ARM GAS  C:\Users\jrdia\AppData\Local\Temp\ccmzeGcI.s 			page 1


   1              		.syntax unified
   2              		.cpu cortex-m0
   3              		.fpu softvfp
   4              		.eabi_attribute 20, 1
   5              		.eabi_attribute 21, 1
   6              		.eabi_attribute 23, 3
   7              		.eabi_attribute 24, 1
   8              		.eabi_attribute 25, 1
   9              		.eabi_attribute 26, 1
  10              		.eabi_attribute 30, 2
  11              		.eabi_attribute 34, 0
  12              		.eabi_attribute 18, 4
  13              		.thumb
  14              		.syntax unified
  15              		.file	"Arduino.c"
  16              		.text
  17              	.Ltext0:
  18              		.cfi_sections	.debug_frame
  19              		.section	.text.delay,"ax",%progbits
  20              		.align	2
  21              		.global	delay
  22              		.code	16
  23              		.thumb_func
  24              		.type	delay, %function
  25              	delay:
  26              		.fnstart
  27              	.LFB112:
  28              		.file 1 "Arduino.c"
   1:Arduino.c     **** /* ========================================
   2:Arduino.c     ****  *
   3:Arduino.c     ****  * Copyright YOUR COMPANY, THE YEAR
   4:Arduino.c     ****  * All Rights Reserved
   5:Arduino.c     ****  * UNPUBLISHED, LICENSED SOFTWARE.
   6:Arduino.c     ****  *
   7:Arduino.c     ****  * CONFIDENTIAL AND PROPRIETARY INFORMATION
   8:Arduino.c     ****  * WHICH IS THE PROPERTY OF your company.
   9:Arduino.c     ****  *
  10:Arduino.c     ****  * ========================================
  11:Arduino.c     **** */
  12:Arduino.c     **** 
  13:Arduino.c     **** /* [] END OF FILE */
  14:Arduino.c     **** 
  15:Arduino.c     **** #include "Arduino.h"
  16:Arduino.c     ****     #include "iprintf.h"
  17:Arduino.c     **** 
  18:Arduino.c     **** #ifdef __cplusplus
  19:Arduino.c     **** extern "C" {
  20:Arduino.c     **** #endif
  21:Arduino.c     **** 
  22:Arduino.c     **** 	// PSoC include, this has to be wrapped
  23:Arduino.c     **** 	//#include "project.h"
  24:Arduino.c     **** 
  25:Arduino.c     **** #ifdef __cplusplus
  26:Arduino.c     **** }
  27:Arduino.c     **** #endif
  28:Arduino.c     **** void delay(unsigned long value)
  29:Arduino.c     **** {
ARM GAS  C:\Users\jrdia\AppData\Local\Temp\ccmzeGcI.s 			page 2


  29              		.loc 1 29 0
  30              		.cfi_startproc
  31              		@ args = 0, pretend = 0, frame = 0
  32              		@ frame_needed = 0, uses_anonymous_args = 0
  33              	.LVL0:
  34 0000 10B5     		push	{r4, lr}
  35              		.save {r4, lr}
  36              		.cfi_def_cfa_offset 8
  37              		.cfi_offset 4, -8
  38              		.cfi_offset 14, -4
  30:Arduino.c     ****     //CyDelay(
  31:Arduino.c     ****     CyDelay( (uint32)value);
  39              		.loc 1 31 0
  40 0002 FFF7FEFF 		bl	CyDelay
  41              	.LVL1:
  32:Arduino.c     ****     //TCPWM_1_ReadCounter();
  33:Arduino.c     **** }
  42              		.loc 1 33 0
  43              		@ sp needed
  44 0006 10BD     		pop	{r4, pc}
  45              		.cfi_endproc
  46              	.LFE112:
  47              		.fnend
  48              		.size	delay, .-delay
  49              		.section	.text.millis,"ax",%progbits
  50              		.align	2
  51              		.global	millis
  52              		.code	16
  53              		.thumb_func
  54              		.type	millis, %function
  55              	millis:
  56              		.fnstart
  57              	.LFB113:
  34:Arduino.c     **** 
  35:Arduino.c     **** unsigned long milliValue = 0;
  36:Arduino.c     **** unsigned long lastMilli = 0;
  37:Arduino.c     **** unsigned long currentMilli = 0;
  38:Arduino.c     **** unsigned long milliCount = 0;
  39:Arduino.c     **** #define MAX_MILLI 0xFFFF
  40:Arduino.c     **** 
  41:Arduino.c     **** unsigned long millis(void)
  42:Arduino.c     **** {
  58              		.loc 1 42 0
  59              		.cfi_startproc
  60              		@ args = 0, pretend = 0, frame = 0
  61              		@ frame_needed = 0, uses_anonymous_args = 0
  62 0000 10B5     		push	{r4, lr}
  63              		.save {r4, lr}
  64              		.cfi_def_cfa_offset 8
  65              		.cfi_offset 4, -8
  66              		.cfi_offset 14, -4
  43:Arduino.c     ****     //iprintf("Time: %d\r\n",TCPWM_1_ReadCounter());
  44:Arduino.c     ****     currentMilli = Millis_Timer_ReadCounter();
  67              		.loc 1 44 0
  68 0002 FFF7FEFF 		bl	Millis_Timer_ReadCounter
  69              	.LVL2:
  70 0006 074B     		ldr	r3, .L7
ARM GAS  C:\Users\jrdia\AppData\Local\Temp\ccmzeGcI.s 			page 3


  45:Arduino.c     ****     if(lastMilli>currentMilli)
  71              		.loc 1 45 0
  72 0008 5A68     		ldr	r2, [r3, #4]
  44:Arduino.c     ****     if(lastMilli>currentMilli)
  73              		.loc 1 44 0
  74 000a 1860     		str	r0, [r3]
  75              		.loc 1 45 0
  76 000c 9042     		cmp	r0, r2
  77 000e 07D2     		bcs	.L6
  46:Arduino.c     ****         milliCount++;
  78              		.loc 1 46 0
  79 0010 9A68     		ldr	r2, [r3, #8]
  80 0012 0132     		adds	r2, r2, #1
  81 0014 9A60     		str	r2, [r3, #8]
  82              	.L4:
  47:Arduino.c     ****     lastMilli = currentMilli;
  83              		.loc 1 47 0
  84 0016 5860     		str	r0, [r3, #4]
  48:Arduino.c     ****     return currentMilli+milliCount*MAX_MILLI;
  85              		.loc 1 48 0
  86 0018 1304     		lsls	r3, r2, #16
  87 001a 9A1A     		subs	r2, r3, r2
  88 001c 1018     		adds	r0, r2, r0
  49:Arduino.c     ****     
  50:Arduino.c     **** }...
  89              		.loc 1 50 0
  90              		@ sp needed
  91 001e 10BD     		pop	{r4, pc}
  92              	.L6:
  93 0020 9A68     		ldr	r2, [r3, #8]
  94 0022 F8E7     		b	.L4
  95              	.L8:
  96              		.align	2
  97              	.L7:
  98 0024 00000000 		.word	.LANCHOR0
  99              		.cfi_endproc
 100              	.LFE113:
 101              		.fnend
 102              		.size	millis, .-millis
 103              		.global	milliCount
 104              		.global	currentMilli
 105              		.global	lastMilli
 106              		.global	milliValue
 107              		.bss
 108              		.align	2
 109              		.set	.LANCHOR0,. + 0
 110              		.type	currentMilli, %object
 111              		.size	currentMilli, 4
 112              	currentMilli:
 113 0000 00000000 		.space	4
 114              		.type	lastMilli, %object
 115              		.size	lastMilli, 4
 116              	lastMilli:
 117 0004 00000000 		.space	4
 118              		.type	milliCount, %object
 119              		.size	milliCount, 4
 120              	milliCount:
ARM GAS  C:\Users\jrdia\AppData\Local\Temp\ccmzeGcI.s 			page 4


 121 0008 00000000 		.space	4
 122              		.type	milliValue, %object
 123              		.size	milliValue, 4
 124              	milliValue:
 125 000c 00000000 		.space	4
 126              		.text
 127              	.Letext0:
 128              		.file 2 "Generated_Source\\PSoC4/CyLib.h"
 129              		.file 3 "Generated_Source\\PSoC4/Millis_Timer.h"
 130              		.file 4 "Generated_Source\\PSoC4/cytypes.h"
 131              		.file 5 "Stream.h"