ARM GAS  C:\Users\jrdia\AppData\Local\Temp\ccxPPVVw.s 			page 1


   1              		.syntax unified
   2              		.cpu cortex-m0
   3              		.fpu softvfp
   4              		.eabi_attribute 20, 1
   5              		.eabi_attribute 21, 1
   6              		.eabi_attribute 23, 3
   7              		.eabi_attribute 24, 1
   8              		.eabi_attribute 25, 1
   9              		.eabi_attribute 26, 1
  10              		.eabi_attribute 30, 2
  11              		.eabi_attribute 34, 0
  12              		.eabi_attribute 18, 4
  13              		.thumb
  14              		.syntax unified
  15              		.file	"BTD.c"
  16              		.text
  17              	.Ltext0:
  18              		.cfi_sections	.debug_frame
  19              		.section	.text._ZN15USBDeviceConfig4InitEhhb,"axG",%progbits,_ZN15USBDeviceConfig4InitEhhb,comdat
  20              		.align	2
  21              		.weak	_ZN15USBDeviceConfig4InitEhhb
  22              		.code	16
  23              		.thumb_func
  24              		.type	_ZN15USBDeviceConfig4InitEhhb, %function
  25              	_ZN15USBDeviceConfig4InitEhhb:
  26              		.fnstart
  27              	.LFB179:
  28              		.file 1 "UsbCore.h"
   1:UsbCore.h     **** /* Copyright (C) 2011 Circuits At Home, LTD. All rights reserved.
   2:UsbCore.h     **** 
   3:UsbCore.h     **** This software may be distributed and modified under the terms of the GNU
   4:UsbCore.h     **** General Public License version 2 (GPL2) as published by the Free Software
   5:UsbCore.h     **** Foundation and appearing in the file GPL2.TXT included in the packaging of
   6:UsbCore.h     **** this file. Please note that GPL2 Section 2[b] requires that all works based
   7:UsbCore.h     **** on this software must also be made publicly available under the terms of
   8:UsbCore.h     **** the GPL2 ("Copyleft").
   9:UsbCore.h     **** 
  10:UsbCore.h     **** Contact information
  11:UsbCore.h     **** -------------------
  12:UsbCore.h     **** 
  13:UsbCore.h     **** Circuits At Home, LTD
  14:UsbCore.h     **** Web      :  http://www.circuitsathome.com
  15:UsbCore.h     **** e-mail   :  support@circuitsathome.com
  16:UsbCore.h     ****  */
  17:UsbCore.h     **** 
  18:UsbCore.h     **** #if !defined(_usb_h_) || defined(USBCORE_H)
  19:UsbCore.h     **** #error "Never include UsbCore.h directly; include Usb.h instead"
  20:UsbCore.h     **** #else
  21:UsbCore.h     **** #define USBCORE_H
  22:UsbCore.h     **** 
  23:UsbCore.h     **** // Not used anymore? If anyone uses this, please let us know so that this may be
  24:UsbCore.h     **** // moved to the proper place, settings.h.
  25:UsbCore.h     **** //#define USB_METHODS_INLINE
  26:UsbCore.h     **** 
  27:UsbCore.h     **** /* shield pins. First parameter - SS pin, second parameter - INT pin */
  28:UsbCore.h     **** #ifdef BOARD_BLACK_WIDDOW
  29:UsbCore.h     **** typedef MAX3421e<P6, P3> MAX3421E; // Black Widow
ARM GAS  C:\Users\jrdia\AppData\Local\Temp\ccxPPVVw.s 			page 2


  30:UsbCore.h     **** #elif defined(CORE_TEENSY) && (defined(__AVR_AT90USB646__) || defined(__AVR_AT90USB1286__))
  31:UsbCore.h     **** #if EXT_RAM
  32:UsbCore.h     **** typedef MAX3421e<P20, P7> MAX3421E; // Teensy++ 2.0 with XMEM2
  33:UsbCore.h     **** #else
  34:UsbCore.h     **** typedef MAX3421e<P9, P8> MAX3421E; // Teensy++ 1.0 and 2.0
  35:UsbCore.h     **** #endif
  36:UsbCore.h     **** #elif defined(BOARD_MEGA_ADK)
  37:UsbCore.h     **** typedef MAX3421e<P53, P54> MAX3421E; // Arduino Mega ADK
  38:UsbCore.h     **** #elif defined(ARDUINO_AVR_BALANDUINO)
  39:UsbCore.h     **** typedef MAX3421e<P20, P19> MAX3421E; // Balanduino
  40:UsbCore.h     **** #elif defined(__ARDUINO_X86__) && PLATFORM_ID == 0x06
  41:UsbCore.h     **** typedef MAX3421e<P3, P2> MAX3421E; // The Intel Galileo supports much faster read and write speed a
  42:UsbCore.h     **** #elif defined(ESP8266)
  43:UsbCore.h     **** typedef MAX3421e<P15, P5> MAX3421E; // ESP8266 boards
  44:UsbCore.h     **** #else
  45:UsbCore.h     **** typedef MAX3421e<P10, P9> MAX3421E; // Official Arduinos (UNO, Duemilanove, Mega, 2560, Leonardo, D
  46:UsbCore.h     **** #endif
  47:UsbCore.h     **** 
  48:UsbCore.h     **** /* Common setup data constant combinations  */
  49:UsbCore.h     **** #define bmREQ_GET_DESCR     USB_SETUP_DEVICE_TO_HOST|USB_SETUP_TYPE_STANDARD|USB_SETUP_RECIPIENT_DE
  50:UsbCore.h     **** #define bmREQ_SET           USB_SETUP_HOST_TO_DEVICE|USB_SETUP_TYPE_STANDARD|USB_SETUP_RECIPIENT_DE
  51:UsbCore.h     **** #define bmREQ_CL_GET_INTF   USB_SETUP_DEVICE_TO_HOST|USB_SETUP_TYPE_CLASS|USB_SETUP_RECIPIENT_INTER
  52:UsbCore.h     **** 
  53:UsbCore.h     **** // D7           data transfer direction (0 - host-to-device, 1 - device-to-host)
  54:UsbCore.h     **** // D6-5         Type (0- standard, 1 - class, 2 - vendor, 3 - reserved)
  55:UsbCore.h     **** // D4-0         Recipient (0 - device, 1 - interface, 2 - endpoint, 3 - other, 4..31 - reserved)
  56:UsbCore.h     **** 
  57:UsbCore.h     **** // USB Device Classes
  58:UsbCore.h     **** #define USB_CLASS_USE_CLASS_INFO        0x00    // Use Class Info in the Interface Descriptors
  59:UsbCore.h     **** #define USB_CLASS_AUDIO                 0x01    // Audio
  60:UsbCore.h     **** #define USB_CLASS_COM_AND_CDC_CTRL      0x02    // Communications and CDC Control
  61:UsbCore.h     **** #define USB_CLASS_HID                   0x03    // HID
  62:UsbCore.h     **** #define USB_CLASS_PHYSICAL              0x05    // Physical
  63:UsbCore.h     **** #define USB_CLASS_IMAGE                 0x06    // Image
  64:UsbCore.h     **** #define USB_CLASS_PRINTER               0x07    // Printer
  65:UsbCore.h     **** #define USB_CLASS_MASS_STORAGE          0x08    // Mass Storage
  66:UsbCore.h     **** #define USB_CLASS_HUB                   0x09    // Hub
  67:UsbCore.h     **** #define USB_CLASS_CDC_DATA              0x0a    // CDC-Data
  68:UsbCore.h     **** #define USB_CLASS_SMART_CARD            0x0b    // Smart-Card
  69:UsbCore.h     **** #define USB_CLASS_CONTENT_SECURITY      0x0d    // Content Security
  70:UsbCore.h     **** #define USB_CLASS_VIDEO                 0x0e    // Video
  71:UsbCore.h     **** #define USB_CLASS_PERSONAL_HEALTH       0x0f    // Personal Healthcare
  72:UsbCore.h     **** #define USB_CLASS_DIAGNOSTIC_DEVICE     0xdc    // Diagnostic Device
  73:UsbCore.h     **** #define USB_CLASS_WIRELESS_CTRL         0xe0    // Wireless Controller
  74:UsbCore.h     **** #define USB_CLASS_MISC                  0xef    // Miscellaneous
  75:UsbCore.h     **** #define USB_CLASS_APP_SPECIFIC          0xfe    // Application Specific
  76:UsbCore.h     **** #define USB_CLASS_VENDOR_SPECIFIC       0xff    // Vendor Specific
  77:UsbCore.h     **** 
  78:UsbCore.h     **** // Additional Error Codes
  79:UsbCore.h     **** #define USB_DEV_CONFIG_ERROR_DEVICE_NOT_SUPPORTED       0xD1
  80:UsbCore.h     **** #define USB_DEV_CONFIG_ERROR_DEVICE_INIT_INCOMPLETE     0xD2
  81:UsbCore.h     **** #define USB_ERROR_UNABLE_TO_REGISTER_DEVICE_CLASS       0xD3
  82:UsbCore.h     **** #define USB_ERROR_OUT_OF_ADDRESS_SPACE_IN_POOL          0xD4
  83:UsbCore.h     **** #define USB_ERROR_HUB_ADDRESS_OVERFLOW                  0xD5
  84:UsbCore.h     **** #define USB_ERROR_ADDRESS_NOT_FOUND_IN_POOL             0xD6
  85:UsbCore.h     **** #define USB_ERROR_EPINFO_IS_NULL                        0xD7
  86:UsbCore.h     **** #define USB_ERROR_INVALID_ARGUMENT                      0xD8
ARM GAS  C:\Users\jrdia\AppData\Local\Temp\ccxPPVVw.s 			page 3


  87:UsbCore.h     **** #define USB_ERROR_CLASS_INSTANCE_ALREADY_IN_USE         0xD9
  88:UsbCore.h     **** #define USB_ERROR_INVALID_MAX_PKT_SIZE                  0xDA
  89:UsbCore.h     **** #define USB_ERROR_EP_NOT_FOUND_IN_TBL                   0xDB
  90:UsbCore.h     **** #define USB_ERROR_CONFIG_REQUIRES_ADDITIONAL_RESET      0xE0
  91:UsbCore.h     **** #define USB_ERROR_FailGetDevDescr                       0xE1
  92:UsbCore.h     **** #define USB_ERROR_FailSetDevTblEntry                    0xE2
  93:UsbCore.h     **** #define USB_ERROR_FailGetConfDescr                      0xE3
  94:UsbCore.h     **** #define USB_ERROR_TRANSFER_TIMEOUT                      0xFF
  95:UsbCore.h     **** 
  96:UsbCore.h     **** #define USB_XFER_TIMEOUT        5000    // (5000) USB transfer timeout in milliseconds, per section
  97:UsbCore.h     **** //#define USB_NAK_LIMIT         32000   // NAK limit for a transfer. 0 means NAKs are not counted
  98:UsbCore.h     **** #define USB_RETRY_LIMIT         3       // 3 retry limit for a transfer
  99:UsbCore.h     **** #define USB_SETTLE_DELAY        200     // settle delay in milliseconds
 100:UsbCore.h     **** 
 101:UsbCore.h     **** #define USB_NUMDEVICES          16      //number of USB devices
 102:UsbCore.h     **** //#define HUB_MAX_HUBS          7       // maximum number of hubs that can be attached to the host 
 103:UsbCore.h     **** #define HUB_PORT_RESET_DELAY    20      // hub port reset delay 10 ms recomended, can be up to 20 m
 104:UsbCore.h     **** 
 105:UsbCore.h     **** /* USB state machine states */
 106:UsbCore.h     **** #define USB_STATE_MASK                                      0xf0
 107:UsbCore.h     **** 
 108:UsbCore.h     **** #define USB_STATE_DETACHED                                  0x10
 109:UsbCore.h     **** #define USB_DETACHED_SUBSTATE_INITIALIZE                    0x11
 110:UsbCore.h     **** #define USB_DETACHED_SUBSTATE_WAIT_FOR_DEVICE               0x12
 111:UsbCore.h     **** #define USB_DETACHED_SUBSTATE_ILLEGAL                       0x13
 112:UsbCore.h     **** #define USB_ATTACHED_SUBSTATE_SETTLE                        0x20
 113:UsbCore.h     **** #define USB_ATTACHED_SUBSTATE_RESET_DEVICE                  0x30
 114:UsbCore.h     **** #define USB_ATTACHED_SUBSTATE_WAIT_RESET_COMPLETE           0x40
 115:UsbCore.h     **** #define USB_ATTACHED_SUBSTATE_WAIT_SOF                      0x50
 116:UsbCore.h     **** #define USB_ATTACHED_SUBSTATE_WAIT_RESET                    0x51
 117:UsbCore.h     **** #define USB_ATTACHED_SUBSTATE_GET_DEVICE_DESCRIPTOR_SIZE    0x60
 118:UsbCore.h     **** #define USB_STATE_ADDRESSING                                0x70
 119:UsbCore.h     **** #define USB_STATE_CONFIGURING                               0x80
 120:UsbCore.h     **** #define USB_STATE_RUNNING                                   0x90
 121:UsbCore.h     **** #define USB_STATE_ERROR                                     0xa0
 122:UsbCore.h     **** 
 123:UsbCore.h     **** class USBDeviceConfig {
 124:UsbCore.h     **** public:
 125:UsbCore.h     **** 
 126:UsbCore.h     ****         virtual uint8_t Init(uint8_t parent, uint8_t port, bool lowspeed) {
  29              		.loc 1 126 0
  30              		.cfi_startproc
  31              		@ args = 0, pretend = 0, frame = 0
  32              		@ frame_needed = 0, uses_anonymous_args = 0
  33              		@ link register save eliminated.
  34              	.LVL0:
 127:UsbCore.h     ****                 return 0;
 128:UsbCore.h     ****         }
  35              		.loc 1 128 0
  36 0000 0020     		movs	r0, #0
  37              	.LVL1:
  38              		@ sp needed
  39 0002 7047     		bx	lr
  40              		.cfi_endproc
  41              	.LFE179:
  42              		.cantunwind
  43              		.fnend
ARM GAS  C:\Users\jrdia\AppData\Local\Temp\ccxPPVVw.s 			page 4


  44              		.size	_ZN15USBDeviceConfig4InitEhhb, .-_ZN15USBDeviceConfig4InitEhhb
  45              		.section	.text._ZN15USBDeviceConfig15ConfigureDeviceEhhb,"axG",%progbits,_ZN15USBDeviceConfig15Con
  46              		.align	2
  47              		.weak	_ZN15USBDeviceConfig15ConfigureDeviceEhhb
  48              		.code	16
  49              		.thumb_func
  50              		.type	_ZN15USBDeviceConfig15ConfigureDeviceEhhb, %function
  51              	_ZN15USBDeviceConfig15ConfigureDeviceEhhb:
  52              		.fnstart
  53              	.LFB180:
 129:UsbCore.h     **** 
 130:UsbCore.h     ****         virtual uint8_t ConfigureDevice(uint8_t parent, uint8_t port, bool lowspeed) {
  54              		.loc 1 130 0
  55              		.cfi_startproc
  56              		@ args = 0, pretend = 0, frame = 0
  57              		@ frame_needed = 0, uses_anonymous_args = 0
  58              		@ link register save eliminated.
  59              	.LVL2:
 131:UsbCore.h     ****                 return 0;
 132:UsbCore.h     ****         }
  60              		.loc 1 132 0
  61 0000 0020     		movs	r0, #0
  62              	.LVL3:
  63              		@ sp needed
  64 0002 7047     		bx	lr
  65              		.cfi_endproc
  66              	.LFE180:
  67              		.cantunwind
  68              		.fnend
  69              		.size	_ZN15USBDeviceConfig15ConfigureDeviceEhhb, .-_ZN15USBDeviceConfig15ConfigureDeviceEhhb
  70              		.section	.text._ZN15USBDeviceConfig7ReleaseEv,"axG",%progbits,_ZN15USBDeviceConfig7ReleaseEv,comda
  71              		.align	2
  72              		.weak	_ZN15USBDeviceConfig7ReleaseEv
  73              		.code	16
  74              		.thumb_func
  75              		.type	_ZN15USBDeviceConfig7ReleaseEv, %function
  76              	_ZN15USBDeviceConfig7ReleaseEv:
  77              		.fnstart
  78              	.LFB181:
 133:UsbCore.h     **** 
 134:UsbCore.h     ****         virtual uint8_t Release() {
  79              		.loc 1 134 0
  80              		.cfi_startproc
  81              		@ args = 0, pretend = 0, frame = 0
  82              		@ frame_needed = 0, uses_anonymous_args = 0
  83              		@ link register save eliminated.
  84              	.LVL4:
 135:UsbCore.h     ****                 return 0;
 136:UsbCore.h     ****         }
  85              		.loc 1 136 0
  86 0000 0020     		movs	r0, #0
  87              	.LVL5:
  88              		@ sp needed
  89 0002 7047     		bx	lr
  90              		.cfi_endproc
  91              	.LFE181:
  92              		.cantunwind
ARM GAS  C:\Users\jrdia\AppData\Local\Temp\ccxPPVVw.s 			page 5


  93              		.fnend
  94              		.size	_ZN15USBDeviceConfig7ReleaseEv, .-_ZN15USBDeviceConfig7ReleaseEv
  95              		.section	.text._ZN15USBDeviceConfig4PollEv,"axG",%progbits,_ZN15USBDeviceConfig4PollEv,comdat
  96              		.align	2
  97              		.weak	_ZN15USBDeviceConfig4PollEv
  98              		.code	16
  99              		.thumb_func
 100              		.type	_ZN15USBDeviceConfig4PollEv, %function
 101              	_ZN15USBDeviceConfig4PollEv:
 102              		.fnstart
 103              	.LFB182:
 137:UsbCore.h     **** 
 138:UsbCore.h     ****         virtual uint8_t Poll() {
 104              		.loc 1 138 0
 105              		.cfi_startproc
 106              		@ args = 0, pretend = 0, frame = 0
 107              		@ frame_needed = 0, uses_anonymous_args = 0
 108              		@ link register save eliminated.
 109              	.LVL6:
 139:UsbCore.h     ****                 return 0;
 140:UsbCore.h     ****         }
 110              		.loc 1 140 0
 111 0000 0020     		movs	r0, #0
 112              	.LVL7:
 113              		@ sp needed
 114 0002 7047     		bx	lr
 115              		.cfi_endproc
 116              	.LFE182:
 117              		.cantunwind
 118              		.fnend
 119              		.size	_ZN15USBDeviceConfig4PollEv, .-_ZN15USBDeviceConfig4PollEv
 120              		.section	.text._ZN15USBDeviceConfig10GetAddressEv,"axG",%progbits,_ZN15USBDeviceConfig10GetAddress
 121              		.align	2
 122              		.weak	_ZN15USBDeviceConfig10GetAddressEv
 123              		.code	16
 124              		.thumb_func
 125              		.type	_ZN15USBDeviceConfig10GetAddressEv, %function
 126              	_ZN15USBDeviceConfig10GetAddressEv:
 127              		.fnstart
 128              	.LFB183:
 141:UsbCore.h     **** 
 142:UsbCore.h     ****         virtual uint8_t GetAddress() {
 129              		.loc 1 142 0
 130              		.cfi_startproc
 131              		@ args = 0, pretend = 0, frame = 0
 132              		@ frame_needed = 0, uses_anonymous_args = 0
 133              		@ link register save eliminated.
 134              	.LVL8:
 143:UsbCore.h     ****                 return 0;
 144:UsbCore.h     ****         }
 135              		.loc 1 144 0
 136 0000 0020     		movs	r0, #0
 137              	.LVL9:
 138              		@ sp needed
 139 0002 7047     		bx	lr
 140              		.cfi_endproc
 141              	.LFE183:
ARM GAS  C:\Users\jrdia\AppData\Local\Temp\ccxPPVVw.s 			page 6


 142              		.cantunwind
 143              		.fnend
 144              		.size	_ZN15USBDeviceConfig10GetAddressEv, .-_ZN15USBDeviceConfig10GetAddressEv
 145              		.section	.text._ZN15USBDeviceConfig12ResetHubPortEh,"axG",%progbits,_ZN15USBDeviceConfig12ResetHub
 146              		.align	2
 147              		.weak	_ZN15USBDeviceConfig12ResetHubPortEh
 148              		.code	16
 149              		.thumb_func
 150              		.type	_ZN15USBDeviceConfig12ResetHubPortEh, %function
 151              	_ZN15USBDeviceConfig12ResetHubPortEh:
 152              		.fnstart
 153              	.LFB184:
 145:UsbCore.h     **** 
 146:UsbCore.h     ****         virtual void ResetHubPort(uint8_t port) {
 154              		.loc 1 146 0
 155              		.cfi_startproc
 156              		@ args = 0, pretend = 0, frame = 0
 157              		@ frame_needed = 0, uses_anonymous_args = 0
 158              		@ link register save eliminated.
 159              	.LVL10:
 147:UsbCore.h     ****                 return;
 148:UsbCore.h     ****         } // Note used for hubs only!
 160              		.loc 1 148 0
 161              		@ sp needed
 162 0000 7047     		bx	lr
 163              		.cfi_endproc
 164              	.LFE184:
 165              		.cantunwind
 166              		.fnend
 167              		.size	_ZN15USBDeviceConfig12ResetHubPortEh, .-_ZN15USBDeviceConfig12ResetHubPortEh
 168 0002 C046     		.section	.text._ZN15USBDeviceConfig8VIDPIDOKEtt,"axG",%progbits,_ZN15USBDeviceConfig8VIDPIDOKEtt,c
 169              		.align	2
 170              		.weak	_ZN15USBDeviceConfig8VIDPIDOKEtt
 171              		.code	16
 172              		.thumb_func
 173              		.type	_ZN15USBDeviceConfig8VIDPIDOKEtt, %function
 174              	_ZN15USBDeviceConfig8VIDPIDOKEtt:
 175              		.fnstart
 176              	.LFB185:
 149:UsbCore.h     **** 
 150:UsbCore.h     ****         virtual bool VIDPIDOK(uint16_t vid, uint16_t pid) {
 177              		.loc 1 150 0
 178              		.cfi_startproc
 179              		@ args = 0, pretend = 0, frame = 0
 180              		@ frame_needed = 0, uses_anonymous_args = 0
 181              		@ link register save eliminated.
 182              	.LVL11:
 151:UsbCore.h     ****                 return false;
 152:UsbCore.h     ****         }
 183              		.loc 1 152 0
 184 0000 0020     		movs	r0, #0
 185              	.LVL12:
 186              		@ sp needed
 187 0002 7047     		bx	lr
 188              		.cfi_endproc
 189              	.LFE185:
 190              		.cantunwind
ARM GAS  C:\Users\jrdia\AppData\Local\Temp\ccxPPVVw.s 			page 7


 191              		.fnend
 192              		.size	_ZN15USBDeviceConfig8VIDPIDOKEtt, .-_ZN15USBDeviceConfig8VIDPIDOKEtt
 193              		.section	.text._ZN15USBDeviceConfig10DEVCLASSOKEh,"axG",%progbits,_ZN15USBDeviceConfig10DEVCLASSOK
 194              		.align	2
 195              		.weak	_ZN15USBDeviceConfig10DEVCLASSOKEh
 196              		.code	16
 197              		.thumb_func
 198              		.type	_ZN15USBDeviceConfig10DEVCLASSOKEh, %function
 199              	_ZN15USBDeviceConfig10DEVCLASSOKEh:
 200              		.fnstart
 201              	.LFB186:
 153:UsbCore.h     **** 
 154:UsbCore.h     ****         virtual bool DEVCLASSOK(uint8_t klass) {
 202              		.loc 1 154 0
 203              		.cfi_startproc
 204              		@ args = 0, pretend = 0, frame = 0
 205              		@ frame_needed = 0, uses_anonymous_args = 0
 206              		@ link register save eliminated.
 207              	.LVL13:
 155:UsbCore.h     ****                 return false;
 156:UsbCore.h     ****         }
 208              		.loc 1 156 0
 209 0000 0020     		movs	r0, #0
 210              	.LVL14:
 211              		@ sp needed
 212 0002 7047     		bx	lr
 213              		.cfi_endproc
 214              	.LFE186:
 215              		.cantunwind
 216              		.fnend
 217              		.size	_ZN15USBDeviceConfig10DEVCLASSOKEh, .-_ZN15USBDeviceConfig10DEVCLASSOKEh
 218              		.section	.text._ZN15USBDeviceConfig13DEVSUBCLASSOKEh,"axG",%progbits,_ZN15USBDeviceConfig13DEVSUBC
 219              		.align	2
 220              		.weak	_ZN15USBDeviceConfig13DEVSUBCLASSOKEh
 221              		.code	16
 222              		.thumb_func
 223              		.type	_ZN15USBDeviceConfig13DEVSUBCLASSOKEh, %function
 224              	_ZN15USBDeviceConfig13DEVSUBCLASSOKEh:
 225              		.fnstart
 226              	.LFB187:
 157:UsbCore.h     **** 
 158:UsbCore.h     ****         virtual bool DEVSUBCLASSOK(uint8_t subklass) {
 227              		.loc 1 158 0
 228              		.cfi_startproc
 229              		@ args = 0, pretend = 0, frame = 0
 230              		@ frame_needed = 0, uses_anonymous_args = 0
 231              		@ link register save eliminated.
 232              	.LVL15:
 159:UsbCore.h     ****                 return true;
 160:UsbCore.h     ****         }
 233              		.loc 1 160 0
 234 0000 0120     		movs	r0, #1
 235              	.LVL16:
 236              		@ sp needed
 237 0002 7047     		bx	lr
 238              		.cfi_endproc
 239              	.LFE187:
ARM GAS  C:\Users\jrdia\AppData\Local\Temp\ccxPPVVw.s 			page 8


 240              		.cantunwind
 241              		.fnend
 242              		.size	_ZN15USBDeviceConfig13DEVSUBCLASSOKEh, .-_ZN15USBDeviceConfig13DEVSUBCLASSOKEh
 243              		.section	.text._ZN17UsbConfigXtracter14EndpointXtractEhhhhPK23USB_ENDPOINT_DESCRIPTOR,"axG",%progb
 244              		.align	2
 245              		.weak	_ZN17UsbConfigXtracter14EndpointXtractEhhhhPK23USB_ENDPOINT_DESCRIPTOR
 246              		.code	16
 247              		.thumb_func
 248              		.type	_ZN17UsbConfigXtracter14EndpointXtractEhhhhPK23USB_ENDPOINT_DESCRIPTOR, %function
 249              	_ZN17UsbConfigXtracter14EndpointXtractEhhhhPK23USB_ENDPOINT_DESCRIPTOR:
 250              		.fnstart
 251              	.LFB207:
 252              		.file 2 "confdescparser.h"
   1:confdescparser.h **** /* Copyright (C) 2011 Circuits At Home, LTD. All rights reserved.
   2:confdescparser.h **** 
   3:confdescparser.h **** This software may be distributed and modified under the terms of the GNU
   4:confdescparser.h **** General Public License version 2 (GPL2) as published by the Free Software
   5:confdescparser.h **** Foundation and appearing in the file GPL2.TXT included in the packaging of
   6:confdescparser.h **** this file. Please note that GPL2 Section 2[b] requires that all works based
   7:confdescparser.h **** on this software must also be made publicly available under the terms of
   8:confdescparser.h **** the GPL2 ("Copyleft").
   9:confdescparser.h **** 
  10:confdescparser.h **** Contact information
  11:confdescparser.h **** -------------------
  12:confdescparser.h **** 
  13:confdescparser.h **** Circuits At Home, LTD
  14:confdescparser.h **** Web      :  http://www.circuitsathome.com
  15:confdescparser.h **** e-mail   :  support@circuitsathome.com
  16:confdescparser.h ****  */
  17:confdescparser.h **** #if !defined(_usb_h_) || defined(__CONFDESCPARSER_H__)
  18:confdescparser.h **** #error "Never include confdescparser.h directly; include Usb.h instead"
  19:confdescparser.h **** #else
  20:confdescparser.h **** 
  21:confdescparser.h **** #define __CONFDESCPARSER_H__
  22:confdescparser.h **** 
  23:confdescparser.h **** class UsbConfigXtracter {
  24:confdescparser.h **** public:
  25:confdescparser.h ****         //virtual void ConfigXtract(const USB_CONFIGURATION_DESCRIPTOR *conf) = 0;
  26:confdescparser.h ****         //virtual void InterfaceXtract(uint8_t conf, const USB_INTERFACE_DESCRIPTOR *iface) = 0;
  27:confdescparser.h **** 
  28:confdescparser.h ****         virtual void EndpointXtract(uint8_t conf, uint8_t iface, uint8_t alt, uint8_t proto, const 
 253              		.loc 2 28 0
 254              		.cfi_startproc
 255              		@ args = 8, pretend = 0, frame = 0
 256              		@ frame_needed = 0, uses_anonymous_args = 0
 257              		@ link register save eliminated.
 258              	.LVL17:
  29:confdescparser.h ****         };
 259              		.loc 2 29 0
 260              		@ sp needed
 261 0000 7047     		bx	lr
 262              		.cfi_endproc
 263              	.LFE207:
 264              		.cantunwind
 265              		.fnend
 266              		.size	_ZN17UsbConfigXtracter14EndpointXtractEhhhhPK23USB_ENDPOINT_DESCRIPTOR, .-_ZN17UsbConfigXtra
 267 0002 C046     		.section	.text._ZN3BTD10GetAddressEv,"axG",%progbits,_ZN3BTD10GetAddressEv,comdat
ARM GAS  C:\Users\jrdia\AppData\Local\Temp\ccxPPVVw.s 			page 9


 268              		.align	2
 269              		.weak	_ZN3BTD10GetAddressEv
 270              		.code	16
 271              		.thumb_func
 272              		.type	_ZN3BTD10GetAddressEv, %function
 273              	_ZN3BTD10GetAddressEv:
 274              		.fnstart
 275              	.LFB225:
 276              		.file 3 "BTD.h"
   1:BTD.h         **** /* Copyright (C) 2012 Kristian Lauszus, TKJ Electronics. All rights reserved.
   2:BTD.h         **** 
   3:BTD.h         ****  This software may be distributed and modified under the terms of the GNU
   4:BTD.h         ****  General Public License version 2 (GPL2) as published by the Free Software
   5:BTD.h         ****  Foundation and appearing in the file GPL2.TXT included in the packaging of
   6:BTD.h         ****  this file. Please note that GPL2 Section 2[b] requires that all works based
   7:BTD.h         ****  on this software must also be made publicly available under the terms of
   8:BTD.h         ****  the GPL2 ("Copyleft").
   9:BTD.h         **** 
  10:BTD.h         ****  Contact information
  11:BTD.h         ****  -------------------
  12:BTD.h         **** 
  13:BTD.h         ****  Kristian Lauszus, TKJ Electronics
  14:BTD.h         ****  Web      :  http://www.tkjelectronics.com
  15:BTD.h         ****  e-mail   :  kristianl@tkjelectronics.com
  16:BTD.h         ****  */
  17:BTD.h         **** 
  18:BTD.h         **** #ifndef _btd_h_
  19:BTD.h         **** #define _btd_h_
  20:BTD.h         **** 
  21:BTD.h         **** #include "Usb.h"
  22:BTD.h         **** #include "usbhid.h"
  23:BTD.h         **** 
  24:BTD.h         **** //PID and VID of the Sony PS3 devices
  25:BTD.h         **** #define PS3_VID                 0x054C  // Sony Corporation
  26:BTD.h         **** #define PS3_PID                 0x0268  // PS3 Controller DualShock 3
  27:BTD.h         **** #define PS3NAVIGATION_PID       0x042F  // Navigation controller
  28:BTD.h         **** #define PS3MOVE_PID             0x03D5  // Motion controller
  29:BTD.h         **** 
  30:BTD.h         **** #define IOGEAR_GBU521_VID       0x0A5C // The IOGEAR GBU521 dongle does not presents itself correct
  31:BTD.h         **** #define IOGEAR_GBU521_PID       0x21E8
  32:BTD.h         **** 
  33:BTD.h         **** /* Bluetooth dongle data taken from descriptors */
  34:BTD.h         **** #define BULK_MAXPKTSIZE         64 // Max size for ACL data
  35:BTD.h         **** 
  36:BTD.h         **** // Used in control endpoint header for HCI Commands
  37:BTD.h         **** #define bmREQ_HCI_OUT USB_SETUP_HOST_TO_DEVICE|USB_SETUP_TYPE_CLASS|USB_SETUP_RECIPIENT_DEVICE
  38:BTD.h         **** 
  39:BTD.h         **** /* Bluetooth HCI states for hci_task() */
  40:BTD.h         **** #define HCI_INIT_STATE                  0
  41:BTD.h         **** #define HCI_RESET_STATE                 1
  42:BTD.h         **** #define HCI_CLASS_STATE                 2
  43:BTD.h         **** #define HCI_BDADDR_STATE                3
  44:BTD.h         **** #define HCI_LOCAL_VERSION_STATE         4
  45:BTD.h         **** #define HCI_SET_NAME_STATE              5
  46:BTD.h         **** #define HCI_CHECK_DEVICE_SERVICE        6
  47:BTD.h         **** 
  48:BTD.h         **** #define HCI_INQUIRY_STATE               7 // These three states are only used if it should pair and
ARM GAS  C:\Users\jrdia\AppData\Local\Temp\ccxPPVVw.s 			page 10


  49:BTD.h         **** #define HCI_CONNECT_DEVICE_STATE        8
  50:BTD.h         **** #define HCI_CONNECTED_DEVICE_STATE      9
  51:BTD.h         **** 
  52:BTD.h         **** #define HCI_SCANNING_STATE              10
  53:BTD.h         **** #define HCI_CONNECT_IN_STATE            11
  54:BTD.h         **** #define HCI_REMOTE_NAME_STATE           12
  55:BTD.h         **** #define HCI_CONNECTED_STATE             13
  56:BTD.h         **** #define HCI_DISABLE_SCAN_STATE          14
  57:BTD.h         **** #define HCI_DONE_STATE                  15
  58:BTD.h         **** #define HCI_DISCONNECT_STATE            16
  59:BTD.h         **** 
  60:BTD.h         **** /* HCI event flags*/
  61:BTD.h         **** #define HCI_FLAG_CMD_COMPLETE           (1UL << 0)
  62:BTD.h         **** #define HCI_FLAG_CONNECT_COMPLETE       (1UL << 1)
  63:BTD.h         **** #define HCI_FLAG_DISCONNECT_COMPLETE    (1UL << 2)
  64:BTD.h         **** #define HCI_FLAG_REMOTE_NAME_COMPLETE   (1UL << 3)
  65:BTD.h         **** #define HCI_FLAG_INCOMING_REQUEST       (1UL << 4)
  66:BTD.h         **** #define HCI_FLAG_READ_BDADDR            (1UL << 5)
  67:BTD.h         **** #define HCI_FLAG_READ_VERSION           (1UL << 6)
  68:BTD.h         **** #define HCI_FLAG_DEVICE_FOUND           (1UL << 7)
  69:BTD.h         **** #define HCI_FLAG_CONNECT_EVENT          (1UL << 8)
  70:BTD.h         **** 
  71:BTD.h         **** /* Macros for HCI event flag tests */
  72:BTD.h         **** #define hci_check_flag(flag) (hci_event_flag & (flag))
  73:BTD.h         **** #define hci_set_flag(flag) (hci_event_flag |= (flag))
  74:BTD.h         **** #define hci_clear_flag(flag) (hci_event_flag &= ~(flag))
  75:BTD.h         **** 
  76:BTD.h         **** /* HCI Events managed */
  77:BTD.h         **** #define EV_INQUIRY_COMPLETE                             0x01
  78:BTD.h         **** #define EV_INQUIRY_RESULT                               0x02
  79:BTD.h         **** #define EV_CONNECT_COMPLETE                             0x03
  80:BTD.h         **** #define EV_INCOMING_CONNECT                             0x04
  81:BTD.h         **** #define EV_DISCONNECT_COMPLETE                          0x05
  82:BTD.h         **** #define EV_AUTHENTICATION_COMPLETE                      0x06
  83:BTD.h         **** #define EV_REMOTE_NAME_COMPLETE                         0x07
  84:BTD.h         **** #define EV_ENCRYPTION_CHANGE                            0x08
  85:BTD.h         **** #define EV_CHANGE_CONNECTION_LINK                       0x09
  86:BTD.h         **** #define EV_ROLE_CHANGED                                 0x12
  87:BTD.h         **** #define EV_NUM_COMPLETE_PKT                             0x13
  88:BTD.h         **** #define EV_PIN_CODE_REQUEST                             0x16
  89:BTD.h         **** #define EV_LINK_KEY_REQUEST                             0x17
  90:BTD.h         **** #define EV_LINK_KEY_NOTIFICATION                        0x18
  91:BTD.h         **** #define EV_DATA_BUFFER_OVERFLOW                         0x1A
  92:BTD.h         **** #define EV_MAX_SLOTS_CHANGE                             0x1B
  93:BTD.h         **** #define EV_READ_REMOTE_VERSION_INFORMATION_COMPLETE     0x0C
  94:BTD.h         **** #define EV_QOS_SETUP_COMPLETE                           0x0D
  95:BTD.h         **** #define EV_COMMAND_COMPLETE                             0x0E
  96:BTD.h         **** #define EV_COMMAND_STATUS                               0x0F
  97:BTD.h         **** #define EV_LOOPBACK_COMMAND                             0x19
  98:BTD.h         **** #define EV_PAGE_SCAN_REP_MODE                           0x20
  99:BTD.h         **** 
 100:BTD.h         **** /* Bluetooth states for the different Bluetooth drivers */
 101:BTD.h         **** #define L2CAP_WAIT                      0
 102:BTD.h         **** #define L2CAP_DONE                      1
 103:BTD.h         **** 
 104:BTD.h         **** /* Used for HID Control channel */
 105:BTD.h         **** #define L2CAP_CONTROL_CONNECT_REQUEST   2
ARM GAS  C:\Users\jrdia\AppData\Local\Temp\ccxPPVVw.s 			page 11


 106:BTD.h         **** #define L2CAP_CONTROL_CONFIG_REQUEST    3
 107:BTD.h         **** #define L2CAP_CONTROL_SUCCESS           4
 108:BTD.h         **** #define L2CAP_CONTROL_DISCONNECT        5
 109:BTD.h         **** 
 110:BTD.h         **** /* Used for HID Interrupt channel */
 111:BTD.h         **** #define L2CAP_INTERRUPT_SETUP           6
 112:BTD.h         **** #define L2CAP_INTERRUPT_CONNECT_REQUEST 7
 113:BTD.h         **** #define L2CAP_INTERRUPT_CONFIG_REQUEST  8
 114:BTD.h         **** #define L2CAP_INTERRUPT_DISCONNECT      9
 115:BTD.h         **** 
 116:BTD.h         **** /* Used for SDP channel */
 117:BTD.h         **** #define L2CAP_SDP_WAIT                  10
 118:BTD.h         **** #define L2CAP_SDP_SUCCESS               11
 119:BTD.h         **** 
 120:BTD.h         **** /* Used for RFCOMM channel */
 121:BTD.h         **** #define L2CAP_RFCOMM_WAIT               12
 122:BTD.h         **** #define L2CAP_RFCOMM_SUCCESS            13
 123:BTD.h         **** 
 124:BTD.h         **** #define L2CAP_DISCONNECT_RESPONSE       14 // Used for both SDP and RFCOMM channel
 125:BTD.h         **** 
 126:BTD.h         **** /* Bluetooth states used by some drivers */
 127:BTD.h         **** #define TURN_ON_LED                     17
 128:BTD.h         **** #define PS3_ENABLE_SIXAXIS              18
 129:BTD.h         **** #define WII_CHECK_MOTION_PLUS_STATE     19
 130:BTD.h         **** #define WII_CHECK_EXTENSION_STATE       20
 131:BTD.h         **** #define WII_INIT_MOTION_PLUS_STATE      21
 132:BTD.h         **** 
 133:BTD.h         **** /* L2CAP event flags for HID Control channel */
 134:BTD.h         **** #define L2CAP_FLAG_CONNECTION_CONTROL_REQUEST           (1UL << 0)
 135:BTD.h         **** #define L2CAP_FLAG_CONFIG_CONTROL_SUCCESS               (1UL << 1)
 136:BTD.h         **** #define L2CAP_FLAG_CONTROL_CONNECTED                    (1UL << 2)
 137:BTD.h         **** #define L2CAP_FLAG_DISCONNECT_CONTROL_RESPONSE          (1UL << 3)
 138:BTD.h         **** 
 139:BTD.h         **** /* L2CAP event flags for HID Interrupt channel */
 140:BTD.h         **** #define L2CAP_FLAG_CONNECTION_INTERRUPT_REQUEST         (1UL << 4)
 141:BTD.h         **** #define L2CAP_FLAG_CONFIG_INTERRUPT_SUCCESS             (1UL << 5)
 142:BTD.h         **** #define L2CAP_FLAG_INTERRUPT_CONNECTED                  (1UL << 6)
 143:BTD.h         **** #define L2CAP_FLAG_DISCONNECT_INTERRUPT_RESPONSE        (1UL << 7)
 144:BTD.h         **** 
 145:BTD.h         **** /* L2CAP event flags for SDP channel */
 146:BTD.h         **** #define L2CAP_FLAG_CONNECTION_SDP_REQUEST               (1UL << 8)
 147:BTD.h         **** #define L2CAP_FLAG_CONFIG_SDP_SUCCESS                   (1UL << 9)
 148:BTD.h         **** #define L2CAP_FLAG_DISCONNECT_SDP_REQUEST               (1UL << 10)
 149:BTD.h         **** 
 150:BTD.h         **** /* L2CAP event flags for RFCOMM channel */
 151:BTD.h         **** #define L2CAP_FLAG_CONNECTION_RFCOMM_REQUEST            (1UL << 11)
 152:BTD.h         **** #define L2CAP_FLAG_CONFIG_RFCOMM_SUCCESS                (1UL << 12)
 153:BTD.h         **** #define L2CAP_FLAG_DISCONNECT_RFCOMM_REQUEST            (1UL << 13)
 154:BTD.h         **** 
 155:BTD.h         **** #define L2CAP_FLAG_DISCONNECT_RESPONSE                  (1UL << 14)
 156:BTD.h         **** 
 157:BTD.h         **** /* Macros for L2CAP event flag tests */
 158:BTD.h         **** #define l2cap_check_flag(flag) (l2cap_event_flag & (flag))
 159:BTD.h         **** #define l2cap_set_flag(flag) (l2cap_event_flag |= (flag))
 160:BTD.h         **** #define l2cap_clear_flag(flag) (l2cap_event_flag &= ~(flag))
 161:BTD.h         **** 
 162:BTD.h         **** /* L2CAP signaling commands */
ARM GAS  C:\Users\jrdia\AppData\Local\Temp\ccxPPVVw.s 			page 12


 163:BTD.h         **** #define L2CAP_CMD_COMMAND_REJECT        0x01
 164:BTD.h         **** #define L2CAP_CMD_CONNECTION_REQUEST    0x02
 165:BTD.h         **** #define L2CAP_CMD_CONNECTION_RESPONSE   0x03
 166:BTD.h         **** #define L2CAP_CMD_CONFIG_REQUEST        0x04
 167:BTD.h         **** #define L2CAP_CMD_CONFIG_RESPONSE       0x05
 168:BTD.h         **** #define L2CAP_CMD_DISCONNECT_REQUEST    0x06
 169:BTD.h         **** #define L2CAP_CMD_DISCONNECT_RESPONSE   0x07
 170:BTD.h         **** #define L2CAP_CMD_INFORMATION_REQUEST   0x0A
 171:BTD.h         **** #define L2CAP_CMD_INFORMATION_RESPONSE  0x0B
 172:BTD.h         **** 
 173:BTD.h         **** // Used For Connection Response - Remember to Include High Byte
 174:BTD.h         **** #define PENDING     0x01
 175:BTD.h         **** #define SUCCESSFUL  0x00
 176:BTD.h         **** 
 177:BTD.h         **** /* Bluetooth L2CAP PSM - see http://www.bluetooth.org/Technical/AssignedNumbers/logical_link.htm */
 178:BTD.h         **** #define SDP_PSM         0x01 // Service Discovery Protocol PSM Value
 179:BTD.h         **** #define RFCOMM_PSM      0x03 // RFCOMM PSM Value
 180:BTD.h         **** #define HID_CTRL_PSM    0x11 // HID_Control PSM Value
 181:BTD.h         **** #define HID_INTR_PSM    0x13 // HID_Interrupt PSM Value
 182:BTD.h         **** 
 183:BTD.h         **** // Used to determine if it is a Bluetooth dongle
 184:BTD.h         **** #define WI_SUBCLASS_RF      0x01 // RF Controller
 185:BTD.h         **** #define WI_PROTOCOL_BT      0x01 // Bluetooth Programming Interface
 186:BTD.h         **** 
 187:BTD.h         **** #define BTD_MAX_ENDPOINTS   4
 188:BTD.h         **** #define BTD_NUM_SERVICES    4 // Max number of Bluetooth services - if you need more than 4 simply 
 189:BTD.h         **** 
 190:BTD.h         **** #define PAIR    1
 191:BTD.h         **** 
 192:BTD.h         **** class BluetoothService;
 193:BTD.h         **** 
 194:BTD.h         **** /**
 195:BTD.h         ****  * The Bluetooth Dongle class will take care of all the USB communication
 196:BTD.h         ****  * and then pass the data to the BluetoothService classes.
 197:BTD.h         ****  */
 198:BTD.h         **** class BTD : public USBDeviceConfig, public UsbConfigXtracter {
 199:BTD.h         **** public:
 200:BTD.h         ****         /**
 201:BTD.h         ****          * Constructor for the BTD class.
 202:BTD.h         ****          * @param  p   Pointer to USB class instance.
 203:BTD.h         ****          */
 204:BTD.h         ****         BTD(USB *p);
 205:BTD.h         **** 
 206:BTD.h         ****         /** @name USBDeviceConfig implementation */
 207:BTD.h         ****         /**
 208:BTD.h         ****          * Address assignment and basic initialization is done here.
 209:BTD.h         ****          * @param  parent   Hub number.
 210:BTD.h         ****          * @param  port     Port number on the hub.
 211:BTD.h         ****          * @param  lowspeed Speed of the device.
 212:BTD.h         ****          * @return          0 on success.
 213:BTD.h         ****          */
 214:BTD.h         ****         uint8_t ConfigureDevice(uint8_t parent, uint8_t port, bool lowspeed);
 215:BTD.h         ****         /**
 216:BTD.h         ****          * Initialize the Bluetooth dongle.
 217:BTD.h         ****          * @param  parent   Hub number.
 218:BTD.h         ****          * @param  port     Port number on the hub.
 219:BTD.h         ****          * @param  lowspeed Speed of the device.
ARM GAS  C:\Users\jrdia\AppData\Local\Temp\ccxPPVVw.s 			page 13


 220:BTD.h         ****          * @return          0 on success.
 221:BTD.h         ****          */
 222:BTD.h         ****         uint8_t Init(uint8_t parent, uint8_t port, bool lowspeed);
 223:BTD.h         ****         /**
 224:BTD.h         ****          * Release the USB device.
 225:BTD.h         ****          * @return 0 on success.
 226:BTD.h         ****          */
 227:BTD.h         ****         uint8_t Release();
 228:BTD.h         ****         /**
 229:BTD.h         ****          * Poll the USB Input endpoints and run the state machines.
 230:BTD.h         ****          * @return 0 on success.
 231:BTD.h         ****          */
 232:BTD.h         ****         uint8_t Poll();
 233:BTD.h         **** 
 234:BTD.h         ****         /**
 235:BTD.h         ****          * Get the device address.
 236:BTD.h         ****          * @return The device address.
 237:BTD.h         ****          */
 238:BTD.h         ****         virtual uint8_t GetAddress() {
 277              		.loc 3 238 0
 278              		.cfi_startproc
 279              		@ args = 0, pretend = 0, frame = 0
 280              		@ frame_needed = 0, uses_anonymous_args = 0
 281              		@ link register save eliminated.
 282              	.LVL18:
 239:BTD.h         ****                 return bAddress;
 283              		.loc 3 239 0
 284 0000 5023     		movs	r3, #80
 240:BTD.h         ****         };
 285              		.loc 3 240 0
 286              		@ sp needed
 239:BTD.h         ****                 return bAddress;
 287              		.loc 3 239 0
 288 0002 C05C     		ldrb	r0, [r0, r3]
 289              	.LVL19:
 290              		.loc 3 240 0
 291 0004 7047     		bx	lr
 292              		.cfi_endproc
 293              	.LFE225:
 294              		.cantunwind
 295              		.fnend
 296              		.size	_ZN3BTD10GetAddressEv, .-_ZN3BTD10GetAddressEv
 297 0006 C046     		.section	.text._ZN3BTD7isReadyEv,"axG",%progbits,_ZN3BTD7isReadyEv,comdat
 298              		.align	2
 299              		.weak	_ZN3BTD7isReadyEv
 300              		.code	16
 301              		.thumb_func
 302              		.type	_ZN3BTD7isReadyEv, %function
 303              	_ZN3BTD7isReadyEv:
 304              		.fnstart
 305              	.LFB226:
 241:BTD.h         **** 
 242:BTD.h         ****         /**
 243:BTD.h         ****          * Used to check if the dongle has been initialized.
 244:BTD.h         ****          * @return True if it's ready.
 245:BTD.h         ****          */
 246:BTD.h         ****         virtual bool isReady() {
ARM GAS  C:\Users\jrdia\AppData\Local\Temp\ccxPPVVw.s 			page 14


 306              		.loc 3 246 0
 307              		.cfi_startproc
 308              		@ args = 0, pretend = 0, frame = 0
 309              		@ frame_needed = 0, uses_anonymous_args = 0
 310              		@ link register save eliminated.
 311              	.LVL20:
 247:BTD.h         ****                 return bPollEnable;
 312              		.loc 3 247 0
 313 0000 7923     		movs	r3, #121
 248:BTD.h         ****         };
 314              		.loc 3 248 0
 315              		@ sp needed
 247:BTD.h         ****                 return bPollEnable;
 316              		.loc 3 247 0
 317 0002 C05C     		ldrb	r0, [r0, r3]
 318              	.LVL21:
 319              		.loc 3 248 0
 320 0004 7047     		bx	lr
 321              		.cfi_endproc
 322              	.LFE226:
 323              		.cantunwind
 324              		.fnend
 325              		.size	_ZN3BTD7isReadyEv, .-_ZN3BTD7isReadyEv
 326 0006 C046     		.section	.text._ZN3BTD10DEVCLASSOKEh,"axG",%progbits,_ZN3BTD10DEVCLASSOKEh,comdat
 327              		.align	2
 328              		.weak	_ZN3BTD10DEVCLASSOKEh
 329              		.code	16
 330              		.thumb_func
 331              		.type	_ZN3BTD10DEVCLASSOKEh, %function
 332              	_ZN3BTD10DEVCLASSOKEh:
 333              		.fnstart
 334              	.LFB227:
 249:BTD.h         **** 
 250:BTD.h         ****         /**
 251:BTD.h         ****          * Used by the USB core to check what this driver support.
 252:BTD.h         ****          * @param  klass The device's USB class.
 253:BTD.h         ****          * @return       Returns true if the device's USB class matches this driver.
 254:BTD.h         ****          */
 255:BTD.h         ****         virtual bool DEVCLASSOK(uint8_t klass) {
 335              		.loc 3 255 0
 336              		.cfi_startproc
 337              		@ args = 0, pretend = 0, frame = 0
 338              		@ frame_needed = 0, uses_anonymous_args = 0
 339              		@ link register save eliminated.
 340              	.LVL22:
 256:BTD.h         ****                 return (klass == USB_CLASS_WIRELESS_CTRL);
 341              		.loc 3 256 0
 342 0000 E039     		subs	r1, r1, #224
 343              	.LVL23:
 344 0002 0800     		movs	r0, r1
 345              	.LVL24:
 346 0004 4142     		rsbs	r1, r0, #0
 347 0006 4841     		adcs	r0, r0, r1
 257:BTD.h         ****         };
 348              		.loc 3 257 0
 349              		@ sp needed
 256:BTD.h         ****                 return (klass == USB_CLASS_WIRELESS_CTRL);
ARM GAS  C:\Users\jrdia\AppData\Local\Temp\ccxPPVVw.s 			page 15


 350              		.loc 3 256 0
 351 0008 C0B2     		uxtb	r0, r0
 352              		.loc 3 257 0
 353 000a 7047     		bx	lr
 354              		.cfi_endproc
 355              	.LFE227:
 356              		.cantunwind
 357              		.fnend
 358              		.size	_ZN3BTD10DEVCLASSOKEh, .-_ZN3BTD10DEVCLASSOKEh
 359              		.section	.text._ZN3BTD8VIDPIDOKEtt,"axG",%progbits,_ZN3BTD8VIDPIDOKEtt,comdat
 360              		.align	2
 361              		.weak	_ZN3BTD8VIDPIDOKEtt
 362              		.code	16
 363              		.thumb_func
 364              		.type	_ZN3BTD8VIDPIDOKEtt, %function
 365              	_ZN3BTD8VIDPIDOKEtt:
 366              		.fnstart
 367              	.LFB228:
 258:BTD.h         **** 
 259:BTD.h         ****         /**
 260:BTD.h         ****          * Used by the USB core to check what this driver support.
 261:BTD.h         ****          * Used to set the Bluetooth address into the PS3 controllers.
 262:BTD.h         ****          * @param  vid The device's VID.
 263:BTD.h         ****          * @param  pid The device's PID.
 264:BTD.h         ****          * @return     Returns true if the device's VID and PID matches this driver.
 265:BTD.h         ****          */
 266:BTD.h         ****         virtual bool VIDPIDOK(uint16_t vid, uint16_t pid) {
 368              		.loc 3 266 0
 369              		.cfi_startproc
 370              		@ args = 0, pretend = 0, frame = 0
 371              		@ frame_needed = 0, uses_anonymous_args = 0
 372              		@ link register save eliminated.
 373              	.LVL25:
 267:BTD.h         ****                 if(vid == IOGEAR_GBU521_VID && pid == IOGEAR_GBU521_PID)
 374              		.loc 3 267 0
 375 0000 144B     		ldr	r3, .L30
 376 0002 9942     		cmp	r1, r3
 377 0004 10D0     		beq	.L27
 268:BTD.h         ****                         return true;
 269:BTD.h         ****                 if(my_bdaddr[0] != 0x00 || my_bdaddr[1] != 0x00 || my_bdaddr[2] != 0x00 || my_bdadd
 378              		.loc 3 269 0
 379 0006 4369     		ldr	r3, [r0, #20]
 380 0008 002B     		cmp	r3, #0
 381 000a 04D0     		beq	.L28
 270:BTD.h         ****                         if(vid == PS3_VID && (pid == PS3_PID || pid == PS3NAVIGATION_PID || pid == 
 382              		.loc 3 270 0
 383 000c 124B     		ldr	r3, .L30+4
 271:BTD.h         ****                                 return true;
 272:BTD.h         ****                 }
 273:BTD.h         ****                 return false;
 384              		.loc 3 273 0
 385 000e 0020     		movs	r0, #0
 386              	.LVL26:
 270:BTD.h         ****                         if(vid == PS3_VID && (pid == PS3_PID || pid == PS3NAVIGATION_PID || pid == 
 387              		.loc 3 270 0
 388 0010 9942     		cmp	r1, r3
 389 0012 0FD0     		beq	.L29
ARM GAS  C:\Users\jrdia\AppData\Local\Temp\ccxPPVVw.s 			page 16


 390              	.LVL27:
 391              	.L24:
 274:BTD.h         ****         };
 392              		.loc 3 274 0
 393              		@ sp needed
 394 0014 7047     		bx	lr
 395              	.LVL28:
 396              	.L28:
 269:BTD.h         ****                         if(vid == PS3_VID && (pid == PS3_PID || pid == PS3NAVIGATION_PID || pid == 
 397              		.loc 3 269 0 discriminator 1
 398 0016 038B     		ldrh	r3, [r0, #24]
 273:BTD.h         ****         };
 399              		.loc 3 273 0 discriminator 1
 400 0018 0020     		movs	r0, #0
 401              	.LVL29:
 269:BTD.h         ****                         if(vid == PS3_VID && (pid == PS3_PID || pid == PS3NAVIGATION_PID || pid == 
 402              		.loc 3 269 0 discriminator 1
 403 001a 002B     		cmp	r3, #0
 404 001c FAD0     		beq	.L24
 270:BTD.h         ****                                 return true;
 405              		.loc 3 270 0
 406 001e 0E4B     		ldr	r3, .L30+4
 273:BTD.h         ****         };
 407              		.loc 3 273 0
 408 0020 0020     		movs	r0, #0
 270:BTD.h         ****                                 return true;
 409              		.loc 3 270 0
 410 0022 9942     		cmp	r1, r3
 411 0024 F6D1     		bne	.L24
 412 0026 05E0     		b	.L29
 413              	.LVL30:
 414              	.L27:
 273:BTD.h         ****         };
 415              		.loc 3 273 0 discriminator 1
 416 0028 0C4B     		ldr	r3, .L30+8
 417 002a 9C46     		mov	ip, r3
 418 002c 6244     		add	r2, r2, ip
 419              	.LVL31:
 420 002e 5042     		rsbs	r0, r2, #0
 421 0030 5041     		adcs	r0, r0, r2
 422              	.LVL32:
 423 0032 EFE7     		b	.L24
 424              	.LVL33:
 425              	.L29:
 270:BTD.h         ****                                 return true;
 426              		.loc 3 270 0 discriminator 1
 427 0034 9A23     		movs	r3, #154
 428 0036 9B00     		lsls	r3, r3, #2
 429 0038 9A42     		cmp	r2, r3
 430 003a 09D0     		beq	.L23
 270:BTD.h         ****                                 return true;
 431              		.loc 3 270 0 is_stmt 0 discriminator 2
 432 003c 084B     		ldr	r3, .L30+12
 433 003e 9A42     		cmp	r2, r3
 434 0040 06D0     		beq	.L23
 270:BTD.h         ****                                 return true;
 435              		.loc 3 270 0 discriminator 3
ARM GAS  C:\Users\jrdia\AppData\Local\Temp\ccxPPVVw.s 			page 17


 436 0042 084B     		ldr	r3, .L30+16
 437 0044 9C46     		mov	ip, r3
 438 0046 6244     		add	r2, r2, ip
 439              	.LVL34:
 440 0048 5342     		rsbs	r3, r2, #0
 441 004a 5341     		adcs	r3, r3, r2
 442 004c D8B2     		uxtb	r0, r3
 443 004e E1E7     		b	.L24
 444              	.LVL35:
 445              	.L23:
 268:BTD.h         ****                 if(my_bdaddr[0] != 0x00 || my_bdaddr[1] != 0x00 || my_bdaddr[2] != 0x00 || my_bdadd
 446              		.loc 3 268 0 is_stmt 1
 447 0050 0120     		movs	r0, #1
 448 0052 DFE7     		b	.L24
 449              	.L31:
 450              		.align	2
 451              	.L30:
 452 0054 5C0A0000 		.word	2652
 453 0058 4C050000 		.word	1356
 454 005c 18DEFFFF 		.word	-8680
 455 0060 2F040000 		.word	1071
 456 0064 2BFCFFFF 		.word	-981
 457              		.cfi_endproc
 458              	.LFE228:
 459              		.cantunwind
 460              		.fnend
 461              		.size	_ZN3BTD8VIDPIDOKEtt, .-_ZN3BTD8VIDPIDOKEtt
 462              		.section	.text._ZN16ConfigDescParserILh255ELh1ELh1ELh7EE5ParseEtPKhRKt,"axG",%progbits,_ZN16Config
 463              		.align	2
 464              		.weak	_ZN16ConfigDescParserILh255ELh1ELh1ELh7EE5ParseEtPKhRKt
 465              		.code	16
 466              		.thumb_func
 467              		.type	_ZN16ConfigDescParserILh255ELh1ELh1ELh7EE5ParseEtPKhRKt, %function
 468              	_ZN16ConfigDescParserILh255ELh1ELh1ELh7EE5ParseEtPKhRKt:
 469              		.fnstart
 470              	.LFB292:
  30:confdescparser.h **** };
  31:confdescparser.h **** 
  32:confdescparser.h **** #define CP_MASK_COMPARE_CLASS                   1
  33:confdescparser.h **** #define CP_MASK_COMPARE_SUBCLASS                2
  34:confdescparser.h **** #define CP_MASK_COMPARE_PROTOCOL                4
  35:confdescparser.h **** #define CP_MASK_COMPARE_ALL                     7
  36:confdescparser.h **** 
  37:confdescparser.h **** // Configuration Descriptor Parser Class Template
  38:confdescparser.h **** 
  39:confdescparser.h **** template <const uint8_t CLASS_ID, const uint8_t SUBCLASS_ID, const uint8_t PROTOCOL_ID, const uint8
  40:confdescparser.h **** class ConfigDescParser : public USBReadParser {
  41:confdescparser.h ****         UsbConfigXtracter *theXtractor;
  42:confdescparser.h ****         MultiValueBuffer theBuffer;
  43:confdescparser.h ****         MultiByteValueParser valParser;
  44:confdescparser.h ****         ByteSkipper theSkipper;
  45:confdescparser.h ****         uint8_t varBuffer[16 /*sizeof(USB_CONFIGURATION_DESCRIPTOR)*/];
  46:confdescparser.h **** 
  47:confdescparser.h ****         uint8_t stateParseDescr; // ParseDescriptor state
  48:confdescparser.h **** 
  49:confdescparser.h ****         uint8_t dscrLen; // Descriptor length
  50:confdescparser.h ****         uint8_t dscrType; // Descriptor type
ARM GAS  C:\Users\jrdia\AppData\Local\Temp\ccxPPVVw.s 			page 18


  51:confdescparser.h **** 
  52:confdescparser.h ****         bool isGoodInterface; // Apropriate interface flag
  53:confdescparser.h ****         uint8_t confValue; // Configuration value
  54:confdescparser.h ****         uint8_t protoValue; // Protocol value
  55:confdescparser.h ****         uint8_t ifaceNumber; // Interface number
  56:confdescparser.h ****         uint8_t ifaceAltSet; // Interface alternate settings
  57:confdescparser.h **** 
  58:confdescparser.h ****         bool UseOr;
  59:confdescparser.h ****         bool ParseDescriptor(uint8_t **pp, uint16_t *pcntdn);
  60:confdescparser.h ****         void PrintHidDescriptor(const USB_HID_DESCRIPTOR *pDesc);
  61:confdescparser.h **** 
  62:confdescparser.h **** public:
  63:confdescparser.h **** 
  64:confdescparser.h ****         void SetOR(void) {
  65:confdescparser.h ****                 UseOr = true;
  66:confdescparser.h ****         }
  67:confdescparser.h ****         ConfigDescParser(UsbConfigXtracter *xtractor);
  68:confdescparser.h ****         void Parse(const uint16_t len, const uint8_t *pbuf, const uint16_t &offset);
  69:confdescparser.h **** };
  70:confdescparser.h **** 
  71:confdescparser.h **** template <const uint8_t CLASS_ID, const uint8_t SUBCLASS_ID, const uint8_t PROTOCOL_ID, const uint8
  72:confdescparser.h **** ConfigDescParser<CLASS_ID, SUBCLASS_ID, PROTOCOL_ID, MASK>::ConfigDescParser(UsbConfigXtracter *xtr
  73:confdescparser.h **** theXtractor(xtractor),
  74:confdescparser.h **** stateParseDescr(0),
  75:confdescparser.h **** dscrLen(0),
  76:confdescparser.h **** dscrType(0),
  77:confdescparser.h **** UseOr(false) {
  78:confdescparser.h ****         theBuffer.pValue = varBuffer;
  79:confdescparser.h ****         valParser.Initialize(&theBuffer);
  80:confdescparser.h ****         theSkipper.Initialize(&theBuffer);
  81:confdescparser.h **** };
  82:confdescparser.h **** 
  83:confdescparser.h **** template <const uint8_t CLASS_ID, const uint8_t SUBCLASS_ID, const uint8_t PROTOCOL_ID, const uint8
  84:confdescparser.h **** void ConfigDescParser<CLASS_ID, SUBCLASS_ID, PROTOCOL_ID, MASK>::Parse(const uint16_t len, const ui
 471              		.loc 2 84 0
 472              		.cfi_startproc
 473              		@ args = 0, pretend = 0, frame = 8
 474              		@ frame_needed = 0, uses_anonymous_args = 0
 475              	.LVL36:
 476 0000 F0B5     		push	{r4, r5, r6, r7, lr}
 477              		.save {r4, r5, r6, r7, lr}
 478              		.cfi_def_cfa_offset 20
 479              		.cfi_offset 4, -20
 480              		.cfi_offset 5, -16
 481              		.cfi_offset 6, -12
 482              		.cfi_offset 7, -8
 483              		.cfi_offset 14, -4
 484 0002 4546     		mov	r5, r8
 485 0004 5746     		mov	r7, r10
 486 0006 4E46     		mov	r6, r9
 487 0008 E0B4     		push	{r5, r6, r7}
 488              		.save {r8, r9, r10}
 489              		.cfi_def_cfa_offset 32
 490              		.cfi_offset 8, -32
 491              		.cfi_offset 9, -28
 492              		.cfi_offset 10, -24
 493              	.LBB161:
ARM GAS  C:\Users\jrdia\AppData\Local\Temp\ccxPPVVw.s 			page 19


 494              	.LBB162:
  85:confdescparser.h ****         uint16_t cntdn = (uint16_t)len;
  86:confdescparser.h ****         uint8_t *p = (uint8_t*)pbuf;
  87:confdescparser.h **** 
  88:confdescparser.h ****         while(cntdn)
  89:confdescparser.h ****                 if(!ParseDescriptor(&p, &cntdn))
  90:confdescparser.h ****                         return;
  91:confdescparser.h **** }
  92:confdescparser.h **** 
  93:confdescparser.h **** /* Parser for the configuration descriptor. Takes values for class, subclass, protocol fields in in
  94:confdescparser.h ****   compare masks for them. When the match is found, calls EndpointXtract passing buffer containing e
  95:confdescparser.h **** template <const uint8_t CLASS_ID, const uint8_t SUBCLASS_ID, const uint8_t PROTOCOL_ID, const uint8
  96:confdescparser.h **** bool ConfigDescParser<CLASS_ID, SUBCLASS_ID, PROTOCOL_ID, MASK>::ParseDescriptor(uint8_t **pp, uint
  97:confdescparser.h ****         USB_CONFIGURATION_DESCRIPTOR* ucd = reinterpret_cast<USB_CONFIGURATION_DESCRIPTOR*>(varBuff
  98:confdescparser.h ****         USB_INTERFACE_DESCRIPTOR* uid = reinterpret_cast<USB_INTERFACE_DESCRIPTOR*>(varBuffer);
  99:confdescparser.h ****         switch(stateParseDescr) {
 100:confdescparser.h ****                 case 0:
 101:confdescparser.h ****                         theBuffer.valueSize = 2;
 102:confdescparser.h ****                         valParser.Initialize(&theBuffer);
 103:confdescparser.h ****                         stateParseDescr = 1;
 104:confdescparser.h ****                 case 1:
 105:confdescparser.h ****                         if(!valParser.Parse(pp, pcntdn))
 106:confdescparser.h ****                                 return false;
 107:confdescparser.h ****                         dscrLen = *((uint8_t*)theBuffer.pValue);
 108:confdescparser.h ****                         dscrType = *((uint8_t*)theBuffer.pValue + 1);
 109:confdescparser.h ****                         stateParseDescr = 2;
 110:confdescparser.h ****                 case 2:
 111:confdescparser.h ****                         // This is a sort of hack. Assuming that two bytes are all ready in the buf
 112:confdescparser.h ****                         //      the pointer is positioned two bytes ahead in order for the rest of 
 113:confdescparser.h ****                         //      to be read right after the size and the type fields.
 114:confdescparser.h ****                         // This should be used carefully. varBuffer should be used directly to hand
 115:confdescparser.h ****                         //      in the buffer.
 116:confdescparser.h ****                         theBuffer.pValue = varBuffer + 2;
 495              		.loc 2 116 0
 496 000a 0600     		movs	r6, r0
 497 000c FF27     		movs	r7, #255
 498              	.LBE162:
 499              	.LBE161:
  85:confdescparser.h ****         uint16_t cntdn = (uint16_t)len;
 500              		.loc 2 85 0
 501 000e 0A25     		movs	r5, #10
 502              	.LBB181:
 503              	.LBB177:
 504              		.loc 2 116 0
 505 0010 2236     		adds	r6, r6, #34
 506 0012 3740     		ands	r7, r6
 507              	.LBE177:
 508              	.LBE181:
  84:confdescparser.h ****         uint16_t cntdn = (uint16_t)len;
 509              		.loc 2 84 0
 510 0014 0400     		movs	r4, r0
 511              	.LBB182:
 512              	.LBB178:
 513              		.loc 2 116 0
 514 0016 B846     		mov	r8, r7
 515              	.LBE178:
 516              	.LBE182:
ARM GAS  C:\Users\jrdia\AppData\Local\Temp\ccxPPVVw.s 			page 20


  84:confdescparser.h ****         uint16_t cntdn = (uint16_t)len;
 517              		.loc 2 84 0
 518              		.pad #16
 519 0018 84B0     		sub	sp, sp, #16
 520              		.cfi_def_cfa_offset 48
  85:confdescparser.h ****         uint16_t cntdn = (uint16_t)len;
 521              		.loc 2 85 0
 522 001a 6D44     		add	r5, r5, sp
 523 001c 2980     		strh	r1, [r5]
  86:confdescparser.h **** 
 524              		.loc 2 86 0
 525 001e 0392     		str	r2, [sp, #12]
 526              	.LVL37:
 527              	.L64:
  88:confdescparser.h ****                 if(!ParseDescriptor(&p, &cntdn))
 528              		.loc 2 88 0
 529 0020 0029     		cmp	r1, #0
 530 0022 00D1     		bne	.LCB344
 531 0024 81E0     		b	.L32	@long jump
 532              	.LCB344:
 533              	.L102:
 534              	.LVL38:
 535              	.LBB183:
 536              	.LBB179:
  99:confdescparser.h ****                 case 0:
 537              		.loc 2 99 0
 538 0026 3023     		movs	r3, #48
 539 0028 E35C     		ldrb	r3, [r4, r3]
 540 002a 042B     		cmp	r3, #4
 541 002c F8D8     		bhi	.L64
 542 002e 854A     		ldr	r2, .L105
 543 0030 9B00     		lsls	r3, r3, #2
 544 0032 D358     		ldr	r3, [r2, r3]
 545 0034 9F46     		mov	pc, r3
 546              		.section	.rodata._ZN16ConfigDescParserILh255ELh1ELh1ELh7EE5ParseEtPKhRKt,"aG",%progbits,_ZN16Confi
 547              		.align	2
 548              	.L36:
 549 0000 36000000 		.word	.L35
 550 0004 5C000000 		.word	.L37
 551 0008 A6010000 		.word	.L38
 552 000c 84010000 		.word	.L39
 553 0010 36010000 		.word	.L40
 554              		.section	.text._ZN16ConfigDescParserILh255ELh1ELh1ELh7EE5ParseEtPKhRKt,"axG",%progbits,_ZN16Config
 555              	.L35:
 556              	.LBB163:
 557              	.LBB164:
 558              		.file 4 "parsetools.h"
   1:parsetools.h  **** /* Copyright (C) 2011 Circuits At Home, LTD. All rights reserved.
   2:parsetools.h  **** 
   3:parsetools.h  **** This software may be distributed and modified under the terms of the GNU
   4:parsetools.h  **** General Public License version 2 (GPL2) as published by the Free Software
   5:parsetools.h  **** Foundation and appearing in the file GPL2.TXT included in the packaging of
   6:parsetools.h  **** this file. Please note that GPL2 Section 2[b] requires that all works based
   7:parsetools.h  **** on this software must also be made publicly available under the terms of
   8:parsetools.h  **** the GPL2 ("Copyleft").
   9:parsetools.h  **** 
  10:parsetools.h  **** Contact information
ARM GAS  C:\Users\jrdia\AppData\Local\Temp\ccxPPVVw.s 			page 21


  11:parsetools.h  **** -------------------
  12:parsetools.h  **** 
  13:parsetools.h  **** Circuits At Home, LTD
  14:parsetools.h  **** Web      :  http://www.circuitsathome.com
  15:parsetools.h  **** e-mail   :  support@circuitsathome.com
  16:parsetools.h  ****  */
  17:parsetools.h  **** 
  18:parsetools.h  **** #if !defined(_usb_h_) || defined(__PARSETOOLS_H__)
  19:parsetools.h  **** #error "Never include parsetools.h directly; include Usb.h instead"
  20:parsetools.h  **** #else
  21:parsetools.h  **** #define __PARSETOOLS_H__
  22:parsetools.h  **** 
  23:parsetools.h  **** struct MultiValueBuffer {
  24:parsetools.h  ****         uint8_t valueSize;
  25:parsetools.h  ****         void *pValue;
  26:parsetools.h  **** } __attribute__((packed));
  27:parsetools.h  **** 
  28:parsetools.h  **** class MultiByteValueParser {
  29:parsetools.h  ****         uint8_t * pBuf;
  30:parsetools.h  ****         uint8_t countDown;
  31:parsetools.h  ****         uint8_t valueSize;
  32:parsetools.h  **** 
  33:parsetools.h  **** public:
  34:parsetools.h  **** 
  35:parsetools.h  ****         MultiByteValueParser() : pBuf(NULL), countDown(0), valueSize(0) {
  36:parsetools.h  ****         };
  37:parsetools.h  **** 
  38:parsetools.h  ****         const uint8_t* GetBuffer() {
  39:parsetools.h  ****                 return pBuf;
  40:parsetools.h  ****         };
  41:parsetools.h  **** 
  42:parsetools.h  ****         void Initialize(MultiValueBuffer * const pbuf) {
  43:parsetools.h  ****                 pBuf = (uint8_t*)pbuf->pValue;
 559              		.loc 4 43 0
 560 0036 A27A     		ldrb	r2, [r4, #10]
 561 0038 607A     		ldrb	r0, [r4, #9]
 562 003a E37A     		ldrb	r3, [r4, #11]
 563 003c 1202     		lsls	r2, r2, #8
 564 003e 0243     		orrs	r2, r0
 565 0040 1B04     		lsls	r3, r3, #16
 566 0042 1343     		orrs	r3, r2
 567 0044 1A00     		movs	r2, r3
 568 0046 237B     		ldrb	r3, [r4, #12]
 569              	.LBE164:
 570              	.LBE163:
 101:confdescparser.h ****                         valParser.Initialize(&theBuffer);
 571              		.loc 2 101 0
 572 0048 0227     		movs	r7, #2
 573              	.LBB167:
 574              	.LBB165:
 575              		.loc 4 43 0
 576 004a 1B06     		lsls	r3, r3, #24
 577 004c 1343     		orrs	r3, r2
 578 004e 2361     		str	r3, [r4, #16]
 579              	.LBE165:
 580              	.LBE167:
 103:confdescparser.h ****                 case 1:
ARM GAS  C:\Users\jrdia\AppData\Local\Temp\ccxPPVVw.s 			page 22


 581              		.loc 2 103 0
 582 0050 0122     		movs	r2, #1
 583 0052 3023     		movs	r3, #48
 101:confdescparser.h ****                         valParser.Initialize(&theBuffer);
 584              		.loc 2 101 0
 585 0054 2772     		strb	r7, [r4, #8]
 586              	.LVL39:
 587              	.LBB168:
 588              	.LBB166:
  44:parsetools.h  ****                 countDown = valueSize = pbuf->valueSize;
 589              		.loc 4 44 0
 590 0056 6775     		strb	r7, [r4, #21]
 591 0058 2775     		strb	r7, [r4, #20]
 592              	.LVL40:
 593              	.LBE166:
 594              	.LBE168:
 103:confdescparser.h ****                 case 1:
 595              		.loc 2 103 0
 596 005a E254     		strb	r2, [r4, r3]
 597              	.L37:
 105:confdescparser.h ****                                 return false;
 598              		.loc 2 105 0
 599 005c 2000     		movs	r0, r4
 600 005e 2A00     		movs	r2, r5
 601 0060 03A9     		add	r1, sp, #12
 602              	.LVL41:
 603 0062 1030     		adds	r0, r0, #16
 604 0064 FFF7FEFF 		bl	_ZN20MultiByteValueParser5ParseEPPhPt
 605              	.LVL42:
 606 0068 0028     		cmp	r0, #0
 607 006a 5ED0     		beq	.L32
 107:confdescparser.h ****                         dscrType = *((uint8_t*)theBuffer.pValue + 1);
 608              		.loc 2 107 0
 609 006c 3121     		movs	r1, #49
 610 006e A368     		ldr	r3, [r4, #8]
 611 0070 227B     		ldrb	r2, [r4, #12]
 612 0072 1B0A     		lsrs	r3, r3, #8
 613 0074 1206     		lsls	r2, r2, #24
 614 0076 1A43     		orrs	r2, r3
 615 0078 1378     		ldrb	r3, [r2]
 616 007a 6354     		strb	r3, [r4, r1]
 108:confdescparser.h ****                         stateParseDescr = 2;
 617              		.loc 2 108 0
 618 007c 5178     		ldrb	r1, [r2, #1]
 619 007e 3222     		movs	r2, #50
 620 0080 A154     		strb	r1, [r4, r2]
 621              	.L43:
 622              		.loc 2 116 0
 623 0082 4246     		mov	r2, r8
 624 0084 300A     		lsrs	r0, r6, #8
 625 0086 A072     		strb	r0, [r4, #10]
 626 0088 300C     		lsrs	r0, r6, #16
 627 008a E072     		strb	r0, [r4, #11]
 628 008c 300E     		lsrs	r0, r6, #24
 629 008e 6272     		strb	r2, [r4, #9]
 630 0090 2073     		strb	r0, [r4, #12]
 117:confdescparser.h ****                         stateParseDescr = 3;
ARM GAS  C:\Users\jrdia\AppData\Local\Temp\ccxPPVVw.s 			page 23


 631              		.loc 2 117 0
 632 0092 3022     		movs	r2, #48
 633 0094 0320     		movs	r0, #3
 634 0096 A054     		strb	r0, [r4, r2]
 635 0098 3200     		movs	r2, r6
 636              	.L42:
 118:confdescparser.h ****                 case 3:
 119:confdescparser.h ****                         switch(dscrType) {
 637              		.loc 2 119 0
 638 009a 0429     		cmp	r1, #4
 639 009c 02D1     		bne	.L45
 120:confdescparser.h ****                                 case USB_DESCRIPTOR_INTERFACE:
 121:confdescparser.h ****                                         isGoodInterface = false;
 640              		.loc 2 121 0
 641 009e 0027     		movs	r7, #0
 642 00a0 3320     		movs	r0, #51
 643 00a2 2754     		strb	r7, [r4, r0]
 644              	.L45:
 122:confdescparser.h ****                                         break;
 123:confdescparser.h ****                                 case USB_DESCRIPTOR_CONFIGURATION:
 124:confdescparser.h ****                                 case USB_DESCRIPTOR_ENDPOINT:
 125:confdescparser.h ****                                 case HID_DESCRIPTOR_HID:
 126:confdescparser.h ****                                         break;
 127:confdescparser.h ****                         }
 128:confdescparser.h ****                         theBuffer.valueSize = dscrLen - 2;
 645              		.loc 2 128 0
 646 00a4 023B     		subs	r3, r3, #2
 647 00a6 DBB2     		uxtb	r3, r3
 648 00a8 2372     		strb	r3, [r4, #8]
 649              	.LVL43:
 650              	.LBB169:
 651              	.LBB170:
  43:parsetools.h  ****                 countDown = valueSize = pbuf->valueSize;
 652              		.loc 4 43 0
 653 00aa 2261     		str	r2, [r4, #16]
 654              		.loc 4 44 0
 655 00ac 6375     		strb	r3, [r4, #21]
 656 00ae 2375     		strb	r3, [r4, #20]
 657              	.LVL44:
 658              	.LBE170:
 659              	.LBE169:
 129:confdescparser.h ****                         valParser.Initialize(&theBuffer);
 130:confdescparser.h ****                         stateParseDescr = 4;
 660              		.loc 2 130 0
 661 00b0 0422     		movs	r2, #4
 662 00b2 3023     		movs	r3, #48
 663 00b4 E254     		strb	r2, [r4, r3]
 131:confdescparser.h ****                 case 4:
 132:confdescparser.h ****                         switch(dscrType) {
 664              		.loc 2 132 0
 665 00b6 0429     		cmp	r1, #4
 666 00b8 41D0     		beq	.L48
 667              	.L103:
 668 00ba 0529     		cmp	r1, #5
 669 00bc 00D1     		bne	.LCB493
 670 00be 85E0     		b	.L49	@long jump
 671              	.LCB493:
ARM GAS  C:\Users\jrdia\AppData\Local\Temp\ccxPPVVw.s 			page 24


 672 00c0 0229     		cmp	r1, #2
 673 00c2 00D1     		bne	.LCB495
 674 00c4 74E0     		b	.L100	@long jump
 675              	.LCB495:
 676              	.LVL45:
 677              	.LBB171:
 678              	.LBB172:
  45:parsetools.h  ****         };
  46:parsetools.h  **** 
  47:parsetools.h  ****         bool Parse(uint8_t **pp, uint16_t *pcntdn);
  48:parsetools.h  **** };
  49:parsetools.h  **** 
  50:parsetools.h  **** class ByteSkipper {
  51:parsetools.h  ****         uint8_t *pBuf;
  52:parsetools.h  ****         uint8_t nStage;
  53:parsetools.h  ****         uint16_t countDown;
  54:parsetools.h  **** 
  55:parsetools.h  **** public:
  56:parsetools.h  **** 
  57:parsetools.h  ****         ByteSkipper() : pBuf(NULL), nStage(0), countDown(0) {
  58:parsetools.h  ****         };
  59:parsetools.h  **** 
  60:parsetools.h  ****         void Initialize(MultiValueBuffer *pbuf) {
  61:parsetools.h  ****                 pBuf = (uint8_t*)pbuf->pValue;
  62:parsetools.h  ****                 countDown = 0;
  63:parsetools.h  ****         };
  64:parsetools.h  **** 
  65:parsetools.h  ****         bool Skip(uint8_t **pp, uint16_t *pcntdn, uint16_t bytes_to_skip) {
  66:parsetools.h  ****                 switch(nStage) {
 679              		.loc 4 66 0
 680 00c6 237F     		ldrb	r3, [r4, #28]
 681 00c8 002B     		cmp	r3, #0
 682 00ca 00D1     		bne	.LCB505
 683 00cc AAE0     		b	.L57	@long jump
 684              	.LCB505:
 685 00ce 012B     		cmp	r3, #1
 686 00d0 00D0     		beq	.LCB507
 687 00d2 A0E0     		b	.L99	@long jump
 688              	.LCB507:
 689 00d4 E18B     		ldrh	r1, [r4, #30]
 690              	.L59:
  67:parsetools.h  ****                         case 0:
  68:parsetools.h  ****                                 countDown = bytes_to_skip;
  69:parsetools.h  ****                                 nStage++;
  70:parsetools.h  ****                         case 1:
  71:parsetools.h  ****                                 for(; countDown && (*pcntdn); countDown--, (*pp)++, (*pcntdn)--);
 691              		.loc 4 71 0
 692 00d6 0029     		cmp	r1, #0
 693 00d8 15D0     		beq	.L60
 694 00da 2B88     		ldrh	r3, [r5]
 695 00dc 002B     		cmp	r3, #0
 696 00de 24D0     		beq	.L32
 697 00e0 039A     		ldr	r2, [sp, #12]
 698 00e2 0139     		subs	r1, r1, #1
 699 00e4 89B2     		uxth	r1, r1
 700 00e6 501C     		adds	r0, r2, #1
 701 00e8 06E0     		b	.L62
ARM GAS  C:\Users\jrdia\AppData\Local\Temp\ccxPPVVw.s 			page 25


 702              	.L63:
 703 00ea 4A1E     		subs	r2, r1, #1
 704 00ec 92B2     		uxth	r2, r2
 705 00ee 0130     		adds	r0, r0, #1
 706 00f0 002B     		cmp	r3, #0
 707 00f2 00D1     		bne	.LCB529
 708 00f4 9EE0     		b	.L101	@long jump
 709              	.LCB529:
 710 00f6 1100     		movs	r1, r2
 711              	.L62:
 712 00f8 013B     		subs	r3, r3, #1
 713 00fa 9BB2     		uxth	r3, r3
 714 00fc 0029     		cmp	r1, #0
 715 00fe F4D1     		bne	.L63
 716 0100 E183     		strh	r1, [r4, #30]
 717 0102 0390     		str	r0, [sp, #12]
 718 0104 2B80     		strh	r3, [r5]
 719              	.L60:
  72:parsetools.h  **** 
  73:parsetools.h  ****                                 if(!countDown)
  74:parsetools.h  ****                                         nStage = 0;
 720              		.loc 4 74 0
 721 0106 0023     		movs	r3, #0
 722 0108 2700     		movs	r7, r4
 723 010a 2377     		strb	r3, [r4, #28]
 724              	.LVL46:
 725 010c 2037     		adds	r7, r7, #32
 726              	.L51:
 727              	.LBE172:
 728              	.LBE171:
 133:confdescparser.h ****                                 case USB_DESCRIPTOR_CONFIGURATION:
 134:confdescparser.h ****                                         if(!valParser.Parse(pp, pcntdn))
 135:confdescparser.h ****                                                 return false;
 136:confdescparser.h ****                                         confValue = ucd->bConfigurationValue;
 137:confdescparser.h ****                                         break;
 138:confdescparser.h ****                                 case USB_DESCRIPTOR_INTERFACE:
 139:confdescparser.h ****                                         if(!valParser.Parse(pp, pcntdn))
 140:confdescparser.h ****                                                 return false;
 141:confdescparser.h ****                                         if((MASK & CP_MASK_COMPARE_CLASS) && uid->bInterfaceClass !
 142:confdescparser.h ****                                                 break;
 143:confdescparser.h ****                                         if((MASK & CP_MASK_COMPARE_SUBCLASS) && uid->bInterfaceSubC
 144:confdescparser.h ****                                                 break;
 145:confdescparser.h ****                                         if(UseOr) {
 146:confdescparser.h ****                                                 if((!((MASK & CP_MASK_COMPARE_PROTOCOL) && uid->bIn
 147:confdescparser.h ****                                                         break;
 148:confdescparser.h ****                                         } else {
 149:confdescparser.h ****                                                 if((MASK & CP_MASK_COMPARE_PROTOCOL) && uid->bInter
 150:confdescparser.h ****                                                         break;
 151:confdescparser.h ****                                         }
 152:confdescparser.h ****                                         isGoodInterface = true;
 153:confdescparser.h ****                                         ifaceNumber = uid->bInterfaceNumber;
 154:confdescparser.h ****                                         ifaceAltSet = uid->bAlternateSetting;
 155:confdescparser.h ****                                         protoValue = uid->bInterfaceProtocol;
 156:confdescparser.h ****                                         break;
 157:confdescparser.h ****                                 case USB_DESCRIPTOR_ENDPOINT:
 158:confdescparser.h ****                                         if(!valParser.Parse(pp, pcntdn))
 159:confdescparser.h ****                                                 return false;
ARM GAS  C:\Users\jrdia\AppData\Local\Temp\ccxPPVVw.s 			page 26


 160:confdescparser.h ****                                         if(isGoodInterface)
 161:confdescparser.h ****                                                 if(theXtractor)
 162:confdescparser.h ****                                                         theXtractor->EndpointXtract(confValue, ifac
 163:confdescparser.h ****                                         break;
 164:confdescparser.h ****                                         //case HID_DESCRIPTOR_HID:
 165:confdescparser.h ****                                         //      if (!valParser.Parse(pp, pcntdn))
 166:confdescparser.h ****                                         //              return false;
 167:confdescparser.h ****                                         //      PrintHidDescriptor((const USB_HID_DESCRIPTOR*)varBu
 168:confdescparser.h ****                                         //      break;
 169:confdescparser.h ****                                 default:
 170:confdescparser.h ****                                         if(!theSkipper.Skip(pp, pcntdn, dscrLen - 2))
 171:confdescparser.h ****                                                 return false;
 172:confdescparser.h ****                         }
 173:confdescparser.h ****                         theBuffer.pValue = varBuffer;
 729              		.loc 2 173 0
 730 010e 3A0A     		lsrs	r2, r7, #8
 731 0110 A272     		strb	r2, [r4, #10]
 732 0112 3A0C     		lsrs	r2, r7, #16
 733 0114 E272     		strb	r2, [r4, #11]
 734 0116 3A0E     		lsrs	r2, r7, #24
 735 0118 2273     		strb	r2, [r4, #12]
 174:confdescparser.h ****                         stateParseDescr = 0;
 736              		.loc 2 174 0
 737 011a 3023     		movs	r3, #48
 738 011c 0022     		movs	r2, #0
 739 011e 2988     		ldrh	r1, [r5]
 740              	.LVL47:
 173:confdescparser.h ****                         stateParseDescr = 0;
 741              		.loc 2 173 0
 742 0120 6772     		strb	r7, [r4, #9]
 743              		.loc 2 174 0
 744 0122 E254     		strb	r2, [r4, r3]
 745              	.LBE179:
 746              	.LBE183:
  88:confdescparser.h ****                 if(!ParseDescriptor(&p, &cntdn))
 747              		.loc 2 88 0
 748 0124 0029     		cmp	r1, #0
 749 0126 00D0     		beq	.LCB584
 750 0128 7DE7     		b	.L102	@long jump
 751              	.LCB584:
 752              	.LVL48:
 753              	.L32:
  91:confdescparser.h **** 
 754              		.loc 2 91 0
 755 012a 04B0     		add	sp, sp, #16
 756              		@ sp needed
 757              	.LVL49:
 758              	.LVL50:
 759 012c 1CBC     		pop	{r2, r3, r4}
 760 012e 9046     		mov	r8, r2
 761 0130 9946     		mov	r9, r3
 762 0132 A246     		mov	r10, r4
 763 0134 F0BD     		pop	{r4, r5, r6, r7, pc}
 764              	.LVL51:
 765              	.L40:
 766 0136 3223     		movs	r3, #50
 767 0138 E15C     		ldrb	r1, [r4, r3]
ARM GAS  C:\Users\jrdia\AppData\Local\Temp\ccxPPVVw.s 			page 27


 768              	.LBB184:
 769              	.LBB180:
 132:confdescparser.h ****                                 case USB_DESCRIPTOR_CONFIGURATION:
 770              		.loc 2 132 0
 771 013a 0429     		cmp	r1, #4
 772 013c BDD1     		bne	.L103
 773              	.L48:
 139:confdescparser.h ****                                                 return false;
 774              		.loc 2 139 0
 775 013e 2000     		movs	r0, r4
 776 0140 2A00     		movs	r2, r5
 777 0142 03A9     		add	r1, sp, #12
 778              	.LVL52:
 779 0144 1030     		adds	r0, r0, #16
 780 0146 FFF7FEFF 		bl	_ZN20MultiByteValueParser5ParseEPPhPt
 781              	.LVL53:
 782 014a 0028     		cmp	r0, #0
 783 014c EDD0     		beq	.L32
 141:confdescparser.h ****                                                 break;
 784              		.loc 2 141 0
 785 014e 2700     		movs	r7, r4
 786 0150 2037     		adds	r7, r7, #32
 787 0152 7B79     		ldrb	r3, [r7, #5]
 788 0154 FF2B     		cmp	r3, #255
 789 0156 DAD1     		bne	.L51
 143:confdescparser.h ****                                                 break;
 790              		.loc 2 143 0
 791 0158 BB79     		ldrb	r3, [r7, #6]
 792 015a 012B     		cmp	r3, #1
 793 015c D7D1     		bne	.L51
 145:confdescparser.h ****                                                 if((!((MASK & CP_MASK_COMPARE_PROTOCOL) && uid->bIn
 794              		.loc 2 145 0
 795 015e 3733     		adds	r3, r3, #55
 796 0160 E35C     		ldrb	r3, [r4, r3]
 797 0162 002B     		cmp	r3, #0
 798 0164 68D1     		bne	.L104
 149:confdescparser.h ****                                                         break;
 799              		.loc 2 149 0
 800 0166 FB79     		ldrb	r3, [r7, #7]
 801 0168 012B     		cmp	r3, #1
 802 016a D0D1     		bne	.L51
 803              	.L55:
 152:confdescparser.h ****                                         ifaceNumber = uid->bInterfaceNumber;
 804              		.loc 2 152 0
 805 016c 0121     		movs	r1, #1
 806 016e 3322     		movs	r2, #51
 807 0170 A154     		strb	r1, [r4, r2]
 153:confdescparser.h ****                                         ifaceAltSet = uid->bAlternateSetting;
 808              		.loc 2 153 0
 809 0172 B978     		ldrb	r1, [r7, #2]
 810 0174 0332     		adds	r2, r2, #3
 811 0176 A154     		strb	r1, [r4, r2]
 154:confdescparser.h ****                                         protoValue = uid->bInterfaceProtocol;
 812              		.loc 2 154 0
 813 0178 F978     		ldrb	r1, [r7, #3]
 814 017a 0132     		adds	r2, r2, #1
 815 017c A154     		strb	r1, [r4, r2]
ARM GAS  C:\Users\jrdia\AppData\Local\Temp\ccxPPVVw.s 			page 28


 155:confdescparser.h ****                                         break;
 816              		.loc 2 155 0
 817 017e 023A     		subs	r2, r2, #2
 818 0180 A354     		strb	r3, [r4, r2]
 819 0182 C4E7     		b	.L51
 820              	.L39:
 821 0184 A37A     		ldrb	r3, [r4, #10]
 822 0186 607A     		ldrb	r0, [r4, #9]
 823 0188 E27A     		ldrb	r2, [r4, #11]
 824 018a 1B02     		lsls	r3, r3, #8
 825 018c 0343     		orrs	r3, r0
 826 018e 1204     		lsls	r2, r2, #16
 827 0190 1900     		movs	r1, r3
 828 0192 1300     		movs	r3, r2
 829 0194 227B     		ldrb	r2, [r4, #12]
 830 0196 0B43     		orrs	r3, r1
 831 0198 1206     		lsls	r2, r2, #24
 832 019a 1A43     		orrs	r2, r3
 833 019c 3223     		movs	r3, #50
 834 019e E15C     		ldrb	r1, [r4, r3]
 835 01a0 013B     		subs	r3, r3, #1
 836 01a2 E35C     		ldrb	r3, [r4, r3]
 837 01a4 79E7     		b	.L42
 838              	.L38:
 839 01a6 3223     		movs	r3, #50
 840 01a8 E15C     		ldrb	r1, [r4, r3]
 841 01aa 013B     		subs	r3, r3, #1
 842 01ac E35C     		ldrb	r3, [r4, r3]
 843 01ae 68E7     		b	.L43
 844              	.L100:
 134:confdescparser.h ****                                                 return false;
 845              		.loc 2 134 0
 846 01b0 2000     		movs	r0, r4
 847 01b2 2A00     		movs	r2, r5
 848 01b4 03A9     		add	r1, sp, #12
 849              	.LVL54:
 850 01b6 1030     		adds	r0, r0, #16
 851 01b8 FFF7FEFF 		bl	_ZN20MultiByteValueParser5ParseEPPhPt
 852              	.LVL55:
 853 01bc 0028     		cmp	r0, #0
 854 01be B4D0     		beq	.L32
 136:confdescparser.h ****                                         break;
 855              		.loc 2 136 0
 856 01c0 2700     		movs	r7, r4
 857 01c2 3423     		movs	r3, #52
 858 01c4 2037     		adds	r7, r7, #32
 859 01c6 7A79     		ldrb	r2, [r7, #5]
 860 01c8 E254     		strb	r2, [r4, r3]
 861 01ca A0E7     		b	.L51
 862              	.L49:
 158:confdescparser.h ****                                                 return false;
 863              		.loc 2 158 0
 864 01cc 2000     		movs	r0, r4
 865 01ce 2A00     		movs	r2, r5
 866 01d0 03A9     		add	r1, sp, #12
 867              	.LVL56:
 868 01d2 1030     		adds	r0, r0, #16
ARM GAS  C:\Users\jrdia\AppData\Local\Temp\ccxPPVVw.s 			page 29


 869 01d4 FFF7FEFF 		bl	_ZN20MultiByteValueParser5ParseEPPhPt
 870              	.LVL57:
 871 01d8 0028     		cmp	r0, #0
 872 01da A6D0     		beq	.L32
 160:confdescparser.h ****                                                 if(theXtractor)
 873              		.loc 2 160 0
 874 01dc 3323     		movs	r3, #51
 875 01de 2700     		movs	r7, r4
 876 01e0 E35C     		ldrb	r3, [r4, r3]
 877 01e2 2037     		adds	r7, r7, #32
 878 01e4 002B     		cmp	r3, #0
 879 01e6 92D0     		beq	.L51
 161:confdescparser.h ****                                                         theXtractor->EndpointXtract(confValue, ifac
 880              		.loc 2 161 0
 881 01e8 6068     		ldr	r0, [r4, #4]
 882 01ea 0028     		cmp	r0, #0
 883 01ec 00D1     		bne	.LCB745
 884 01ee 8EE7     		b	.L51	@long jump
 885              	.LCB745:
 162:confdescparser.h ****                                         break;
 886              		.loc 2 162 0
 887 01f0 3723     		movs	r3, #55
 888 01f2 E35C     		ldrb	r3, [r4, r3]
 889 01f4 3622     		movs	r2, #54
 890 01f6 9A46     		mov	r10, r3
 891 01f8 0368     		ldr	r3, [r0]
 892 01fa 3421     		movs	r1, #52
 893 01fc 9C46     		mov	ip, r3
 894 01fe 3523     		movs	r3, #53
 895 0200 E35C     		ldrb	r3, [r4, r3]
 896 0202 0197     		str	r7, [sp, #4]
 897 0204 0093     		str	r3, [sp]
 898 0206 6346     		mov	r3, ip
 899 0208 1B68     		ldr	r3, [r3]
 900 020a A25C     		ldrb	r2, [r4, r2]
 901 020c 9946     		mov	r9, r3
 902 020e 615C     		ldrb	r1, [r4, r1]
 903 0210 5346     		mov	r3, r10
 904 0212 C847     		blx	r9
 905              	.LVL58:
 906 0214 7BE7     		b	.L51
 907              	.LVL59:
 908              	.L99:
 170:confdescparser.h ****                                                 return false;
 909              		.loc 2 170 0
 910 0216 E38B     		ldrh	r3, [r4, #30]
 911 0218 002B     		cmp	r3, #0
 912 021a 00D0     		beq	.LCB783
 913 021c 85E7     		b	.L32	@long jump
 914              	.LCB783:
 915 021e 2700     		movs	r7, r4
 916 0220 2037     		adds	r7, r7, #32
 917 0222 74E7     		b	.L51
 918              	.LVL60:
 919              	.L57:
 920 0224 3123     		movs	r3, #49
 921 0226 E15C     		ldrb	r1, [r4, r3]
ARM GAS  C:\Users\jrdia\AppData\Local\Temp\ccxPPVVw.s 			page 30


 922              	.LBB175:
 923              	.LBB173:
  69:parsetools.h  ****                         case 1:
 924              		.loc 4 69 0
 925 0228 303B     		subs	r3, r3, #48
 926              	.LBE173:
 927              	.LBE175:
 170:confdescparser.h ****                                                 return false;
 928              		.loc 2 170 0
 929 022a 0239     		subs	r1, r1, #2
 930 022c 89B2     		uxth	r1, r1
 931              	.LBB176:
 932              	.LBB174:
  68:parsetools.h  ****                                 nStage++;
 933              		.loc 4 68 0
 934 022e E183     		strh	r1, [r4, #30]
  69:parsetools.h  ****                         case 1:
 935              		.loc 4 69 0
 936 0230 2377     		strb	r3, [r4, #28]
 937 0232 50E7     		b	.L59
 938              	.L101:
 939 0234 E183     		strh	r1, [r4, #30]
 940              	.LVL61:
 941 0236 78E7     		b	.L32
 942              	.LVL62:
 943              	.L104:
 944              	.LBE174:
 945              	.LBE176:
 146:confdescparser.h ****                                                         break;
 946              		.loc 2 146 0
 947 0238 FB79     		ldrb	r3, [r7, #7]
 948 023a 002B     		cmp	r3, #0
 949 023c 00D1     		bne	.LCB842
 950 023e 66E7     		b	.L51	@long jump
 951              	.LCB842:
 952 0240 94E7     		b	.L55
 953              	.L106:
 954 0242 C046     		.align	2
 955              	.L105:
 956 0244 00000000 		.word	.L36
 957              	.LBE180:
 958              	.LBE184:
 959              		.cfi_endproc
 960              	.LFE292:
 961              		.fnend
 962              		.size	_ZN16ConfigDescParserILh255ELh1ELh1ELh7EE5ParseEtPKhRKt, .-_ZN16ConfigDescParserILh255ELh1EL
 963              		.section	.text._ZN3BTD14EndpointXtractEhhhhPK23USB_ENDPOINT_DESCRIPTOR,"ax",%progbits
 964              		.align	2
 965              		.global	_ZN3BTD14EndpointXtractEhhhhPK23USB_ENDPOINT_DESCRIPTOR
 966              		.code	16
 967              		.thumb_func
 968              		.type	_ZN3BTD14EndpointXtractEhhhhPK23USB_ENDPOINT_DESCRIPTOR, %function
 969              	_ZN3BTD14EndpointXtractEhhhhPK23USB_ENDPOINT_DESCRIPTOR:
 970              		.fnstart
 971              	.LFB244:
 972              		.file 5 "BTD.c"
   1:BTD.c         **** /* Copyright (C) 2012 Kristian Lauszus, TKJ Electronics. All rights reserved.
ARM GAS  C:\Users\jrdia\AppData\Local\Temp\ccxPPVVw.s 			page 31


   2:BTD.c         **** 
   3:BTD.c         ****  This software may be distributed and modified under the terms of the GNU
   4:BTD.c         ****  General Public License version 2 (GPL2) as published by the Free Software
   5:BTD.c         ****  Foundation and appearing in the file GPL2.TXT included in the packaging of
   6:BTD.c         ****  this file. Please note that GPL2 Section 2[b] requires that all works based
   7:BTD.c         ****  on this software must also be made publicly available under the terms of
   8:BTD.c         ****  the GPL2 ("Copyleft").
   9:BTD.c         **** 
  10:BTD.c         ****  Contact information
  11:BTD.c         ****  -------------------
  12:BTD.c         **** 
  13:BTD.c         ****  Kristian Lauszus, TKJ Electronics
  14:BTD.c         ****  Web      :  http://www.tkjelectronics.com
  15:BTD.c         ****  e-mail   :  kristianl@tkjelectronics.com
  16:BTD.c         ****  */
  17:BTD.c         **** 
  18:BTD.c         **** #include "BTD.h"
  19:BTD.c         **** // To enable serial debugging see "settings.h"
  20:BTD.c         **** //#define EXTRADEBUG // Uncomment to get even more debugging data
  21:BTD.c         **** 
  22:BTD.c         **** const uint8_t BTD::BTD_CONTROL_PIPE = 0;
  23:BTD.c         **** const uint8_t BTD::BTD_EVENT_PIPE = 1;
  24:BTD.c         **** const uint8_t BTD::BTD_DATAIN_PIPE = 2;
  25:BTD.c         **** const uint8_t BTD::BTD_DATAOUT_PIPE = 3;
  26:BTD.c         **** 
  27:BTD.c         **** BTD::BTD(USB *p) :
  28:BTD.c         **** connectToWii(false),
  29:BTD.c         **** pairWithWii(false),
  30:BTD.c         **** connectToHIDDevice(false),
  31:BTD.c         **** pairWithHIDDevice(false),
  32:BTD.c         **** pUsb(p), // Pointer to USB class instance - mandatory
  33:BTD.c         **** bAddress(0), // Device address - mandatory
  34:BTD.c         **** bNumEP(1), // If config descriptor needs to be parsed
  35:BTD.c         **** qNextPollTime(0), // Reset NextPollTime
  36:BTD.c         **** pollInterval(0),
  37:BTD.c         **** bPollEnable(false) // Don't start polling before dongle is connected
  38:BTD.c         **** {
  39:BTD.c         ****         for(uint8_t i = 0; i < BTD_NUM_SERVICES; i++)
  40:BTD.c         ****                 btService[i] = NULL;
  41:BTD.c         **** 
  42:BTD.c         ****         Initialize(); // Set all variables, endpoint structs etc. to default values
  43:BTD.c         **** 
  44:BTD.c         ****         if(pUsb) // Register in USB subsystem
  45:BTD.c         ****                 pUsb->RegisterDeviceClass(this); // Set devConfig[] entry
  46:BTD.c         **** }
  47:BTD.c         **** 
  48:BTD.c         **** uint8_t BTD::ConfigureDevice(uint8_t parent, uint8_t port, bool lowspeed) {
  49:BTD.c         ****         const uint8_t constBufSize = sizeof (USB_DEVICE_DESCRIPTOR);
  50:BTD.c         ****         uint8_t buf[constBufSize];
  51:BTD.c         ****         USB_DEVICE_DESCRIPTOR * udd = reinterpret_cast<USB_DEVICE_DESCRIPTOR*>(buf);
  52:BTD.c         ****         uint8_t rcode;
  53:BTD.c         ****         UsbDevice *p = NULL;
  54:BTD.c         ****         EpInfo *oldep_ptr = NULL;
  55:BTD.c         **** 
  56:BTD.c         ****         Initialize(); // Set all variables, endpoint structs etc. to default values
  57:BTD.c         **** 
  58:BTD.c         ****         AddressPool &addrPool = pUsb->GetAddressPool(); // Get memory address of USB device address
ARM GAS  C:\Users\jrdia\AppData\Local\Temp\ccxPPVVw.s 			page 32


  59:BTD.c         **** #ifdef EXTRADEBUG
  60:BTD.c         ****         Notify(PSTR("\r\nBTD ConfigureDevice"), 0x80);
  61:BTD.c         **** #endif
  62:BTD.c         **** 
  63:BTD.c         ****         if(bAddress) { // Check if address has already been assigned to an instance
  64:BTD.c         **** #ifdef DEBUG_USB_HOST
  65:BTD.c         ****                 Notify(PSTR("\r\nAddress in use"), 0x80);
  66:BTD.c         **** #endif
  67:BTD.c         ****                 return USB_ERROR_CLASS_INSTANCE_ALREADY_IN_USE;
  68:BTD.c         ****         }
  69:BTD.c         **** 
  70:BTD.c         ****         p = addrPool.GetUsbDevicePtr(0); // Get pointer to pseudo device with address 0 assigned
  71:BTD.c         ****         if(!p) {
  72:BTD.c         **** #ifdef DEBUG_USB_HOST
  73:BTD.c         ****                 Notify(PSTR("\r\nAddress not found"), 0x80);
  74:BTD.c         **** #endif
  75:BTD.c         ****                 return USB_ERROR_ADDRESS_NOT_FOUND_IN_POOL;
  76:BTD.c         ****         }
  77:BTD.c         **** 
  78:BTD.c         ****         if(!p->epinfo) {
  79:BTD.c         **** #ifdef DEBUG_USB_HOST
  80:BTD.c         ****                 Notify(PSTR("\r\nepinfo is null"), 0x80);
  81:BTD.c         **** #endif
  82:BTD.c         ****                 return USB_ERROR_EPINFO_IS_NULL;
  83:BTD.c         ****         }
  84:BTD.c         **** 
  85:BTD.c         ****         oldep_ptr = p->epinfo; // Save old pointer to EP_RECORD of address 0
  86:BTD.c         ****         p->epinfo = epInfo; // Temporary assign new pointer to epInfo to p->epinfo in order to avoi
  87:BTD.c         ****         p->lowspeed = lowspeed;
  88:BTD.c         ****         rcode = pUsb->getDevDescr(0, 0, constBufSize, (uint8_t*)buf); // Get device descriptor - ad
  89:BTD.c         **** 
  90:BTD.c         ****         p->epinfo = oldep_ptr; // Restore p->epinfo
  91:BTD.c         **** 
  92:BTD.c         ****         if(rcode)
  93:BTD.c         ****                 goto FailGetDevDescr;
  94:BTD.c         **** 
  95:BTD.c         ****         bAddress = addrPool.AllocAddress(parent, false, port); // Allocate new address according to
  96:BTD.c         **** 
  97:BTD.c         ****         if(!bAddress) {
  98:BTD.c         **** #ifdef DEBUG_USB_HOST
  99:BTD.c         ****                 Notify(PSTR("\r\nOut of address space"), 0x80);
 100:BTD.c         **** #endif
 101:BTD.c         ****                 return USB_ERROR_OUT_OF_ADDRESS_SPACE_IN_POOL;
 102:BTD.c         ****         }
 103:BTD.c         **** 
 104:BTD.c         ****         if (udd->bDeviceClass == 0x09) // Some dongles have an USB hub inside
 105:BTD.c         ****                 goto FailHub;
 106:BTD.c         **** 
 107:BTD.c         ****         epInfo[0].maxPktSize = udd->bMaxPacketSize0; // Extract Max Packet Size from device descrip
 108:BTD.c         ****         epInfo[1].epAddr = udd->bNumConfigurations; // Steal and abuse from epInfo structure to sav
 109:BTD.c         **** 
 110:BTD.c         ****         VID = udd->idVendor;
 111:BTD.c         ****         PID = udd->idProduct;
 112:BTD.c         **** 
 113:BTD.c         ****         return USB_ERROR_CONFIG_REQUIRES_ADDITIONAL_RESET;
 114:BTD.c         **** 
 115:BTD.c         **** FailHub:
ARM GAS  C:\Users\jrdia\AppData\Local\Temp\ccxPPVVw.s 			page 33


 116:BTD.c         **** #ifdef DEBUG_USB_HOST
 117:BTD.c         ****         Notify(PSTR("\r\nPlease create a hub instance in your code: \"USBHub Hub1(&Usb);\""), 0x80)
 118:BTD.c         **** #endif
 119:BTD.c         ****         pUsb->setAddr(bAddress, 0, 0); // Reset address
 120:BTD.c         ****         rcode = USB_DEV_CONFIG_ERROR_DEVICE_NOT_SUPPORTED;
 121:BTD.c         ****         Release();
 122:BTD.c         ****         return rcode;
 123:BTD.c         **** 
 124:BTD.c         **** FailGetDevDescr:
 125:BTD.c         **** #ifdef DEBUG_USB_HOST
 126:BTD.c         ****         NotifyFailGetDevDescr(rcode);
 127:BTD.c         **** #endif
 128:BTD.c         ****         if(rcode != hrJERR)
 129:BTD.c         ****                 rcode = USB_ERROR_FailGetDevDescr;
 130:BTD.c         ****         Release();
 131:BTD.c         ****         return rcode;
 132:BTD.c         **** };
 133:BTD.c         **** 
 134:BTD.c         **** uint8_t BTD::Init(uint8_t parent, uint8_t port, bool lowspeed) {
 135:BTD.c         ****         uint8_t rcode;
 136:BTD.c         ****         uint8_t num_of_conf = epInfo[1].epAddr; // Number of configurations
 137:BTD.c         ****         epInfo[1].epAddr = 0;
 138:BTD.c         **** 
 139:BTD.c         ****         AddressPool &addrPool = pUsb->GetAddressPool();
 140:BTD.c         **** #ifdef EXTRADEBUG
 141:BTD.c         ****         Notify(PSTR("\r\nBTD Init"), 0x80);
 142:BTD.c         **** #endif
 143:BTD.c         ****         UsbDevice *p = addrPool.GetUsbDevicePtr(bAddress); // Get pointer to assigned address recor
 144:BTD.c         **** 
 145:BTD.c         ****         if(!p) {
 146:BTD.c         **** #ifdef DEBUG_USB_HOST
 147:BTD.c         ****                 Notify(PSTR("\r\nAddress not found"), 0x80);
 148:BTD.c         **** #endif
 149:BTD.c         ****                 return USB_ERROR_ADDRESS_NOT_FOUND_IN_POOL;
 150:BTD.c         ****         }
 151:BTD.c         **** 
 152:BTD.c         ****         delay(300); // Assign new address to the device
 153:BTD.c         **** 
 154:BTD.c         ****         rcode = pUsb->setAddr(0, 0, bAddress); // Assign new address to the device
 155:BTD.c         ****         if(rcode) {
 156:BTD.c         **** #ifdef DEBUG_USB_HOST
 157:BTD.c         ****                 Notify(PSTR("\r\nsetAddr: "), 0x80);
 158:BTD.c         ****                 D_PrintHex<uint8_t > (rcode, 0x80);
 159:BTD.c         **** #endif
 160:BTD.c         ****                 p->lowspeed = false;
 161:BTD.c         ****                 goto Fail;
 162:BTD.c         ****         }
 163:BTD.c         **** #ifdef EXTRADEBUG
 164:BTD.c         ****         Notify(PSTR("\r\nAddr: "), 0x80);
 165:BTD.c         ****         D_PrintHex<uint8_t > (bAddress, 0x80);
 166:BTD.c         **** #endif
 167:BTD.c         **** 
 168:BTD.c         ****         p->lowspeed = false;
 169:BTD.c         **** 
 170:BTD.c         ****         p = addrPool.GetUsbDevicePtr(bAddress); // Get pointer to assigned address record
 171:BTD.c         ****         if(!p) {
 172:BTD.c         **** #ifdef DEBUG_USB_HOST
ARM GAS  C:\Users\jrdia\AppData\Local\Temp\ccxPPVVw.s 			page 34


 173:BTD.c         ****                 Notify(PSTR("\r\nAddress not found"), 0x80);
 174:BTD.c         **** #endif
 175:BTD.c         ****                 return USB_ERROR_ADDRESS_NOT_FOUND_IN_POOL;
 176:BTD.c         ****         }
 177:BTD.c         **** 
 178:BTD.c         ****         p->lowspeed = lowspeed;
 179:BTD.c         **** 
 180:BTD.c         ****         rcode = pUsb->setEpInfoEntry(bAddress, 1, epInfo); // Assign epInfo to epinfo pointer - onl
 181:BTD.c         ****         if(rcode)
 182:BTD.c         ****                 goto FailSetDevTblEntry;
 183:BTD.c         **** 
 184:BTD.c         ****         if(VID == PS3_VID && (PID == PS3_PID || PID == PS3NAVIGATION_PID || PID == PS3MOVE_PID)) {
 185:BTD.c         ****                 delay(100);
 186:BTD.c         ****                 rcode = pUsb->setConf(bAddress, epInfo[ BTD_CONTROL_PIPE ].epAddr, 1); // We only n
 187:BTD.c         ****                 if(rcode)
 188:BTD.c         ****                         goto FailSetConfDescr;
 189:BTD.c         **** 
 190:BTD.c         **** #ifdef DEBUG_USB_HOST
 191:BTD.c         ****                 if(PID == PS3_PID || PID == PS3NAVIGATION_PID) {
 192:BTD.c         ****                         if(PID == PS3_PID)
 193:BTD.c         ****                                 Notify(PSTR("\r\nDualshock 3 Controller Connected"), 0x80);
 194:BTD.c         ****                         else // It must be a navigation controller
 195:BTD.c         ****                                 Notify(PSTR("\r\nNavigation Controller Connected"), 0x80);
 196:BTD.c         ****                 } else // It must be a Motion controller
 197:BTD.c         ****                         Notify(PSTR("\r\nMotion Controller Connected"), 0x80);
 198:BTD.c         **** #endif
 199:BTD.c         **** 
 200:BTD.c         ****                 if(my_bdaddr[0] == 0x00 && my_bdaddr[1] == 0x00 && my_bdaddr[2] == 0x00 && my_bdadd
 201:BTD.c         **** #ifdef DEBUG_USB_HOST
 202:BTD.c         ****                         Notify(PSTR("\r\nPlease plug in the dongle before trying to pair with the P
 203:BTD.c         **** #endif
 204:BTD.c         ****                 } else {
 205:BTD.c         ****                         if(PID == PS3_PID || PID == PS3NAVIGATION_PID)
 206:BTD.c         ****                                 setBdaddr(my_bdaddr); // Set internal Bluetooth address
 207:BTD.c         ****                         else
 208:BTD.c         ****                                 setMoveBdaddr(my_bdaddr); // Set internal Bluetooth address
 209:BTD.c         **** #ifdef DEBUG_USB_HOST
 210:BTD.c         ****                         Notify(PSTR("\r\nBluetooth Address was set to: "), 0x80);
 211:BTD.c         ****                         for(int8_t i = 5; i > 0; i--) {
 212:BTD.c         ****                                 D_PrintHex<uint8_t > (my_bdaddr[i], 0x80);
 213:BTD.c         ****                                 Notify(PSTR(":"), 0x80);
 214:BTD.c         ****                         }
 215:BTD.c         ****                         D_PrintHex<uint8_t > (my_bdaddr[0], 0x80);
 216:BTD.c         **** #endif
 217:BTD.c         ****                 }
 218:BTD.c         **** 
 219:BTD.c         ****                 pUsb->setConf(bAddress, epInfo[ BTD_CONTROL_PIPE ].epAddr, 0); // Reset configurati
 220:BTD.c         ****                 pUsb->setAddr(bAddress, 0, 0); // Reset address
 221:BTD.c         ****                 Release(); // Release device
 222:BTD.c         ****                 return USB_DEV_CONFIG_ERROR_DEVICE_NOT_SUPPORTED; // Return
 223:BTD.c         ****         } else {
 224:BTD.c         ****                 // Check if attached device is a Bluetooth dongle and fill endpoint data structure
 225:BTD.c         ****                 // First interface in the configuration must have Bluetooth assigned Class/Subclass
 226:BTD.c         ****                 // And 3 endpoints - interrupt-IN, bulk-IN, bulk-OUT, not necessarily in this order
 227:BTD.c         ****                 for(uint8_t i = 0; i < num_of_conf; i++) {
 228:BTD.c         ****                         if(VID == IOGEAR_GBU521_VID && PID == IOGEAR_GBU521_PID) {
 229:BTD.c         ****                                 ConfigDescParser<USB_CLASS_VENDOR_SPECIFIC, WI_SUBCLASS_RF, WI_PROT
ARM GAS  C:\Users\jrdia\AppData\Local\Temp\ccxPPVVw.s 			page 35


 230:BTD.c         ****                                 rcode = pUsb->getConfDescr(bAddress, 0, i, &confDescrParser);
 231:BTD.c         ****                         } else {
 232:BTD.c         ****                                 ConfigDescParser<USB_CLASS_WIRELESS_CTRL, WI_SUBCLASS_RF, WI_PROTOC
 233:BTD.c         ****                                 rcode = pUsb->getConfDescr(bAddress, 0, i, &confDescrParser);
 234:BTD.c         ****                         }
 235:BTD.c         ****                         if(rcode) // Check error code
 236:BTD.c         ****                                 goto FailGetConfDescr;
 237:BTD.c         ****                         if(bNumEP >= BTD_MAX_ENDPOINTS) // All endpoints extracted
 238:BTD.c         ****                                 break;
 239:BTD.c         ****                 }
 240:BTD.c         **** 
 241:BTD.c         ****                 if(bNumEP < BTD_MAX_ENDPOINTS)
 242:BTD.c         ****                         goto FailUnknownDevice;
 243:BTD.c         **** 
 244:BTD.c         ****                 // Assign epInfo to epinfo pointer - this time all 3 endpoins
 245:BTD.c         ****                 rcode = pUsb->setEpInfoEntry(bAddress, bNumEP, epInfo);
 246:BTD.c         ****                 if(rcode)
 247:BTD.c         ****                         goto FailSetDevTblEntry;
 248:BTD.c         **** 
 249:BTD.c         ****                 // Set Configuration Value
 250:BTD.c         ****                 rcode = pUsb->setConf(bAddress, epInfo[ BTD_CONTROL_PIPE ].epAddr, bConfNum);
 251:BTD.c         ****                 if(rcode)
 252:BTD.c         ****                         goto FailSetConfDescr;
 253:BTD.c         **** 
 254:BTD.c         ****                 hci_num_reset_loops = 100; // only loop 100 times before trying to send the hci res
 255:BTD.c         ****                 hci_counter = 0;
 256:BTD.c         ****                 hci_state = HCI_INIT_STATE;
 257:BTD.c         ****                 waitingForConnection = false;
 258:BTD.c         ****                 bPollEnable = true;
 259:BTD.c         **** 
 260:BTD.c         **** #ifdef DEBUG_USB_HOST
 261:BTD.c         ****                 Notify(PSTR("\r\nBluetooth Dongle Initialized"), 0x80);
 262:BTD.c         **** #endif
 263:BTD.c         ****         }
 264:BTD.c         ****         return 0; // Successful configuration
 265:BTD.c         **** 
 266:BTD.c         ****         /* Diagnostic messages */
 267:BTD.c         **** FailSetDevTblEntry:
 268:BTD.c         **** #ifdef DEBUG_USB_HOST
 269:BTD.c         ****         NotifyFailSetDevTblEntry();
 270:BTD.c         ****         goto Fail;
 271:BTD.c         **** #endif
 272:BTD.c         **** 
 273:BTD.c         **** FailGetConfDescr:
 274:BTD.c         **** #ifdef DEBUG_USB_HOST
 275:BTD.c         ****         NotifyFailGetConfDescr();
 276:BTD.c         ****         goto Fail;
 277:BTD.c         **** #endif
 278:BTD.c         **** 
 279:BTD.c         **** FailSetConfDescr:
 280:BTD.c         **** #ifdef DEBUG_USB_HOST
 281:BTD.c         ****         NotifyFailSetConfDescr();
 282:BTD.c         **** #endif
 283:BTD.c         ****         goto Fail;
 284:BTD.c         **** 
 285:BTD.c         **** FailUnknownDevice:
 286:BTD.c         **** #ifdef DEBUG_USB_HOST
ARM GAS  C:\Users\jrdia\AppData\Local\Temp\ccxPPVVw.s 			page 36


 287:BTD.c         ****         NotifyFailUnknownDevice(VID, PID);
 288:BTD.c         **** #endif
 289:BTD.c         ****         pUsb->setAddr(bAddress, 0, 0); // Reset address
 290:BTD.c         ****         rcode = USB_DEV_CONFIG_ERROR_DEVICE_NOT_SUPPORTED;
 291:BTD.c         **** Fail:
 292:BTD.c         **** #ifdef DEBUG_USB_HOST
 293:BTD.c         ****         Notify(PSTR("\r\nBTD Init Failed, error code: "), 0x80);
 294:BTD.c         ****         NotifyFail(rcode);
 295:BTD.c         **** #endif
 296:BTD.c         ****         Release();
 297:BTD.c         ****         return rcode;
 298:BTD.c         **** }
 299:BTD.c         **** 
 300:BTD.c         **** void BTD::Initialize() {
 301:BTD.c         ****         uint8_t i;
 302:BTD.c         ****         for(i = 0; i < BTD_MAX_ENDPOINTS; i++) {
 303:BTD.c         ****                 epInfo[i].epAddr = 0;
 304:BTD.c         ****                 epInfo[i].maxPktSize = (i) ? 0 : 8;
 305:BTD.c         ****                 epInfo[i].bmSndToggle = 0;
 306:BTD.c         ****                 epInfo[i].bmRcvToggle = 0;
 307:BTD.c         ****                 epInfo[i].bmNakPower = (i) ? USB_NAK_NOWAIT : USB_NAK_MAX_POWER;
 308:BTD.c         ****         }
 309:BTD.c         ****         for(i = 0; i < BTD_NUM_SERVICES; i++) {
 310:BTD.c         ****                 if(btService[i])
 311:BTD.c         ****                         btService[i]->Reset(); // Reset all Bluetooth services
 312:BTD.c         ****         }
 313:BTD.c         **** 
 314:BTD.c         ****         connectToWii = false;
 315:BTD.c         ****         incomingWii = false;
 316:BTD.c         ****         connectToHIDDevice = false;
 317:BTD.c         ****         incomingHIDDevice = false;
 318:BTD.c         ****         incomingPS4 = false;
 319:BTD.c         ****         bAddress = 0; // Clear device address
 320:BTD.c         ****         bNumEP = 1; // Must have to be reset to 1
 321:BTD.c         ****         qNextPollTime = 0; // Reset next poll time
 322:BTD.c         ****         pollInterval = 0;
 323:BTD.c         ****         bPollEnable = false; // Don't start polling before dongle is connected
 324:BTD.c         **** }
 325:BTD.c         **** 
 326:BTD.c         **** /* Extracts interrupt-IN, bulk-IN, bulk-OUT endpoint information from config descriptor */
 327:BTD.c         **** void BTD::EndpointXtract(uint8_t conf, uint8_t iface, uint8_t alt, uint8_t proto, const USB_ENDPOIN
 973              		.loc 5 327 0
 974              		.cfi_startproc
 975              		@ args = 8, pretend = 0, frame = 0
 976              		@ frame_needed = 0, uses_anonymous_args = 0
 977              	.LVL63:
 978 0000 10B5     		push	{r4, lr}
 979              		.cfi_def_cfa_offset 8
 980              		.cfi_offset 4, -8
 981              		.cfi_offset 14, -4
 328:BTD.c         ****         //ErrorMessage<uint8_t>(PSTR("Conf.Val"),conf);
 329:BTD.c         ****         //ErrorMessage<uint8_t>(PSTR("Iface Num"),iface);
 330:BTD.c         ****         //ErrorMessage<uint8_t>(PSTR("Alt.Set"),alt);
 331:BTD.c         **** 
 332:BTD.c         ****         if(alt) // Wrong interface - by BT spec, no alt setting
 982              		.loc 5 332 0
 983 0002 002B     		cmp	r3, #0
ARM GAS  C:\Users\jrdia\AppData\Local\Temp\ccxPPVVw.s 			page 37


 984 0004 27D1     		bne	.L107
 985              	.LVL64:
 986 0006 0322     		movs	r2, #3
 987              	.LVL65:
 988              	.LBB187:
 989              	.LBB188:
 333:BTD.c         ****                 return;
 334:BTD.c         **** 
 335:BTD.c         ****         bConfNum = conf;
 990              		.loc 5 335 0
 991 0008 5D33     		adds	r3, r3, #93
 992              	.LVL66:
 993 000a C154     		strb	r1, [r0, r3]
 994 000c 039B     		ldr	r3, [sp, #12]
 995 000e DB78     		ldrb	r3, [r3, #3]
 996 0010 1340     		ands	r3, r2
 336:BTD.c         ****         uint8_t index;
 337:BTD.c         **** 
 338:BTD.c         ****         if((pep->bmAttributes & bmUSB_TRANSFER_TYPE) == USB_TRANSFER_TYPE_INTERRUPT && (pep->bEndpo
 997              		.loc 5 338 0
 998 0012 032B     		cmp	r3, #3
 999 0014 20D0     		beq	.L115
 339:BTD.c         ****                 index = BTD_EVENT_PIPE;
 340:BTD.c         ****                 epInfo[index].bmNakPower = USB_NAK_NOWAIT;
 341:BTD.c         ****         } else if((pep->bmAttributes & bmUSB_TRANSFER_TYPE) == USB_TRANSFER_TYPE_BULK) // Bulk endp
 1000              		.loc 5 341 0
 1001 0016 022B     		cmp	r3, #2
 1002 0018 1DD1     		bne	.L107
 342:BTD.c         ****                 index = ((pep->bEndpointAddress & 0x80) == 0x80) ? BTD_DATAIN_PIPE : BTD_DATAOUT_PI
 1003              		.loc 5 342 0
 1004 001a 039B     		ldr	r3, [sp, #12]
 1005 001c 9B78     		ldrb	r3, [r3, #2]
 1006 001e 5AB2     		sxtb	r2, r3
 1007 0020 002A     		cmp	r2, #0
 1008 0022 27DB     		blt	.L114
 1009 0024 1A00     		movs	r2, r3
 1010 0026 0323     		movs	r3, #3
 1011              	.LVL67:
 1012              	.L112:
 343:BTD.c         ****         else
 344:BTD.c         ****             return;
 345:BTD.c         **** 
 346:BTD.c         ****         // Fill the rest of endpoint data structure
 347:BTD.c         ****         epInfo[index].epAddr = (pep->bEndpointAddress & 0x0F);
 1013              		.loc 5 347 0
 1014 0028 5900     		lsls	r1, r3, #1
 1015 002a CB18     		adds	r3, r1, r3
 1016 002c C318     		adds	r3, r0, r3
 1017 002e 1900     		movs	r1, r3
 1018 0030 0F24     		movs	r4, #15
 1019 0032 5131     		adds	r1, r1, #81
 1020 0034 2240     		ands	r2, r4
 1021 0036 0A70     		strb	r2, [r1]
 348:BTD.c         ****         epInfo[index].maxPktSize = (uint8_t)pep->wMaxPacketSize;
 1022              		.loc 5 348 0
 1023 0038 039A     		ldr	r2, [sp, #12]
 1024 003a 5233     		adds	r3, r3, #82
ARM GAS  C:\Users\jrdia\AppData\Local\Temp\ccxPPVVw.s 			page 38


 1025 003c 1279     		ldrb	r2, [r2, #4]
 1026 003e 1A70     		strb	r2, [r3]
 349:BTD.c         **** #ifdef EXTRADEBUG
 350:BTD.c         ****         PrintEndpointDescriptor(pep);
 351:BTD.c         **** #endif
 352:BTD.c         ****         if(pollInterval < pep->bInterval) // Set the polling interval as the largest polling interv
 1027              		.loc 5 352 0
 1028 0040 039B     		ldr	r3, [sp, #12]
 1029 0042 9A79     		ldrb	r2, [r3, #6]
 1030 0044 7823     		movs	r3, #120
 1031 0046 C15C     		ldrb	r1, [r0, r3]
 1032 0048 9142     		cmp	r1, r2
 1033 004a 00D2     		bcs	.L113
 353:BTD.c         ****                 pollInterval = pep->bInterval;
 1034              		.loc 5 353 0
 1035 004c C254     		strb	r2, [r0, r3]
 1036              	.L113:
 354:BTD.c         ****         bNumEP++;
 1037              		.loc 5 354 0
 1038 004e 5E22     		movs	r2, #94
 1039 0050 835C     		ldrb	r3, [r0, r2]
 1040 0052 0133     		adds	r3, r3, #1
 1041 0054 8354     		strb	r3, [r0, r2]
 1042              	.LVL68:
 1043              	.L107:
 1044              	.LBE188:
 1045              	.LBE187:
 355:BTD.c         **** }
 1046              		.loc 5 355 0
 1047              		@ sp needed
 1048 0056 10BD     		pop	{r4, pc}
 1049              	.LVL69:
 1050              	.L115:
 1051              	.LBB190:
 1052              	.LBB189:
 338:BTD.c         ****                 index = BTD_EVENT_PIPE;
 1053              		.loc 5 338 0
 1054 0058 039A     		ldr	r2, [sp, #12]
 1055 005a 9278     		ldrb	r2, [r2, #2]
 1056 005c 7F2A     		cmp	r2, #127
 1057 005e FAD9     		bls	.L107
 1058              	.LVL70:
 340:BTD.c         ****         } else if((pep->bmAttributes & bmUSB_TRANSFER_TYPE) == USB_TRANSFER_TYPE_BULK) // Bulk endp
 1059              		.loc 5 340 0
 1060 0060 5621     		movs	r1, #86
 1061              	.LVL71:
 1062 0062 425C     		ldrb	r2, [r0, r1]
 1063 0064 1340     		ands	r3, r2
 1064 0066 0422     		movs	r2, #4
 1065 0068 1343     		orrs	r3, r2
 1066 006a 4354     		strb	r3, [r0, r1]
 1067 006c 039B     		ldr	r3, [sp, #12]
 1068 006e 9A78     		ldrb	r2, [r3, #2]
 1069 0070 0123     		movs	r3, #1
 1070 0072 D9E7     		b	.L112
 1071              	.LVL72:
 1072              	.L114:
ARM GAS  C:\Users\jrdia\AppData\Local\Temp\ccxPPVVw.s 			page 39


 342:BTD.c         ****         else
 1073              		.loc 5 342 0
 1074 0074 1A00     		movs	r2, r3
 1075 0076 0223     		movs	r3, #2
 1076 0078 D6E7     		b	.L112
 1077              	.LBE189:
 1078              	.LBE190:
 1079              		.cfi_endproc
 1080              	.LFE244:
 1081              		.cantunwind
 1082              		.fnend
 1083              		.size	_ZN3BTD14EndpointXtractEhhhhPK23USB_ENDPOINT_DESCRIPTOR, .-_ZN3BTD14EndpointXtractEhhhhPK23U
 1084              		.thumb_set .LTHUNK0,_ZN3BTD14EndpointXtractEhhhhPK23USB_ENDPOINT_DESCRIPTOR
 1085 007a C046     		.section	.text._ZThn4_N3BTD14EndpointXtractEhhhhPK23USB_ENDPOINT_DESCRIPTOR,"ax",%progbits
 1086              		.align	2
 1087              		.global	_ZThn4_N3BTD14EndpointXtractEhhhhPK23USB_ENDPOINT_DESCRIPTOR
 1088              		.code	16
 1089              		.thumb_func
 1090              		.type	_ZThn4_N3BTD14EndpointXtractEhhhhPK23USB_ENDPOINT_DESCRIPTOR, %function
 1091              	_ZThn4_N3BTD14EndpointXtractEhhhhPK23USB_ENDPOINT_DESCRIPTOR:
 1092              		.fnstart
 1093              	.LFB301:
 275:BTD.h         ****         /**@}*/
 276:BTD.h         **** 
 277:BTD.h         ****         /** @name UsbConfigXtracter implementation */
 278:BTD.h         ****         /**
 279:BTD.h         ****          * UsbConfigXtracter implementation, used to extract endpoint information.
 280:BTD.h         ****          * @param conf  Configuration value.
 281:BTD.h         ****          * @param iface Interface number.
 282:BTD.h         ****          * @param alt   Alternate setting.
 283:BTD.h         ****          * @param proto Interface Protocol.
 284:BTD.h         ****          * @param ep    Endpoint Descriptor.
 285:BTD.h         ****          */
 286:BTD.h         ****         void EndpointXtract(uint8_t conf, uint8_t iface, uint8_t alt, uint8_t proto, const USB_ENDP
 1094              		.loc 3 286 0
 1095              		.cfi_startproc
 1096              		@ args = 0, pretend = 0, frame = 0
 1097              		@ frame_needed = 0, uses_anonymous_args = 0
 1098 0000 08B4     		push {r3}
 1099 0002 024B     		ldr	r3, .LTHUMBFUNC0
 1100 0004 9C46     		mov r12, r3
 1101 0006 0438     		subs	r0, r0, #4
 1102 0008 08BC     		pop	{r3}
 1103 000a 6047     		bx	r12
 1104              		.align	2
 1105              	.LTHUMBFUNC0:
 1106 000c 00000000 		.word	.LTHUNK0
 1107              		.cfi_endproc
 1108              	.LFE301:
 1109              		.cantunwind
 1110              		.fnend
 1111              		.size	_ZThn4_N3BTD14EndpointXtractEhhhhPK23USB_ENDPOINT_DESCRIPTOR, .-_ZThn4_N3BTD14EndpointXtract
 1112              		.section	.text._ZN16ConfigDescParserILh224ELh1ELh1ELh7EE5ParseEtPKhRKt,"axG",%progbits,_ZN16Config
 1113              		.align	2
 1114              		.weak	_ZN16ConfigDescParserILh224ELh1ELh1ELh7EE5ParseEtPKhRKt
 1115              		.code	16
 1116              		.thumb_func
ARM GAS  C:\Users\jrdia\AppData\Local\Temp\ccxPPVVw.s 			page 40


 1117              		.type	_ZN16ConfigDescParserILh224ELh1ELh1ELh7EE5ParseEtPKhRKt, %function
 1118              	_ZN16ConfigDescParserILh224ELh1ELh1ELh7EE5ParseEtPKhRKt:
 1119              		.fnstart
 1120              	.LFB291:
  84:confdescparser.h ****         uint16_t cntdn = (uint16_t)len;
 1121              		.loc 2 84 0
 1122              		.cfi_startproc
 1123              		@ args = 0, pretend = 0, frame = 8
 1124              		@ frame_needed = 0, uses_anonymous_args = 0
 1125              	.LVL73:
 1126 0000 F0B5     		push	{r4, r5, r6, r7, lr}
 1127              		.save {r4, r5, r6, r7, lr}
 1128              		.cfi_def_cfa_offset 20
 1129              		.cfi_offset 4, -20
 1130              		.cfi_offset 5, -16
 1131              		.cfi_offset 6, -12
 1132              		.cfi_offset 7, -8
 1133              		.cfi_offset 14, -4
 1134 0002 4546     		mov	r5, r8
 1135 0004 5746     		mov	r7, r10
 1136 0006 4E46     		mov	r6, r9
 1137 0008 E0B4     		push	{r5, r6, r7}
 1138              		.save {r8, r9, r10}
 1139              		.cfi_def_cfa_offset 32
 1140              		.cfi_offset 8, -32
 1141              		.cfi_offset 9, -28
 1142              		.cfi_offset 10, -24
 1143              	.LBB199:
 1144              	.LBB200:
 116:confdescparser.h ****                         stateParseDescr = 3;
 1145              		.loc 2 116 0
 1146 000a 0600     		movs	r6, r0
 1147 000c FF27     		movs	r7, #255
 1148              	.LBE200:
 1149              	.LBE199:
  85:confdescparser.h ****         uint8_t *p = (uint8_t*)pbuf;
 1150              		.loc 2 85 0
 1151 000e 0A25     		movs	r5, #10
 1152              	.LBB219:
 1153              	.LBB215:
 116:confdescparser.h ****                         stateParseDescr = 3;
 1154              		.loc 2 116 0
 1155 0010 2236     		adds	r6, r6, #34
 1156 0012 3740     		ands	r7, r6
 1157              	.LBE215:
 1158              	.LBE219:
  84:confdescparser.h ****         uint16_t cntdn = (uint16_t)len;
 1159              		.loc 2 84 0
 1160 0014 0400     		movs	r4, r0
 1161              	.LBB220:
 1162              	.LBB216:
 116:confdescparser.h ****                         stateParseDescr = 3;
 1163              		.loc 2 116 0
 1164 0016 B846     		mov	r8, r7
 1165              	.LBE216:
 1166              	.LBE220:
  84:confdescparser.h ****         uint16_t cntdn = (uint16_t)len;
ARM GAS  C:\Users\jrdia\AppData\Local\Temp\ccxPPVVw.s 			page 41


 1167              		.loc 2 84 0
 1168              		.pad #16
 1169 0018 84B0     		sub	sp, sp, #16
 1170              		.cfi_def_cfa_offset 48
  85:confdescparser.h ****         uint8_t *p = (uint8_t*)pbuf;
 1171              		.loc 2 85 0
 1172 001a 6D44     		add	r5, r5, sp
 1173 001c 2980     		strh	r1, [r5]
  86:confdescparser.h **** 
 1174              		.loc 2 86 0
 1175 001e 0392     		str	r2, [sp, #12]
 1176              	.LVL74:
 1177              	.L148:
  88:confdescparser.h ****                 if(!ParseDescriptor(&p, &cntdn))
 1178              		.loc 2 88 0
 1179 0020 0029     		cmp	r1, #0
 1180 0022 00D1     		bne	.LCB1047
 1181 0024 81E0     		b	.L116	@long jump
 1182              	.LCB1047:
 1183              	.L186:
 1184              	.LVL75:
 1185              	.LBB221:
 1186              	.LBB217:
  99:confdescparser.h ****                 case 0:
 1187              		.loc 2 99 0
 1188 0026 3023     		movs	r3, #48
 1189 0028 E35C     		ldrb	r3, [r4, r3]
 1190 002a 042B     		cmp	r3, #4
 1191 002c F8D8     		bhi	.L148
 1192 002e 854A     		ldr	r2, .L189
 1193 0030 9B00     		lsls	r3, r3, #2
 1194 0032 D358     		ldr	r3, [r2, r3]
 1195 0034 9F46     		mov	pc, r3
 1196              		.section	.rodata._ZN16ConfigDescParserILh224ELh1ELh1ELh7EE5ParseEtPKhRKt,"aG",%progbits,_ZN16Confi
 1197              		.align	2
 1198              	.L120:
 1199 0000 36000000 		.word	.L119
 1200 0004 5C000000 		.word	.L121
 1201 0008 A6010000 		.word	.L122
 1202 000c 84010000 		.word	.L123
 1203 0010 36010000 		.word	.L124
 1204              		.section	.text._ZN16ConfigDescParserILh224ELh1ELh1ELh7EE5ParseEtPKhRKt,"axG",%progbits,_ZN16Config
 1205              	.L119:
 1206              	.LBB201:
 1207              	.LBB202:
  43:parsetools.h  ****                 countDown = valueSize = pbuf->valueSize;
 1208              		.loc 4 43 0
 1209 0036 A27A     		ldrb	r2, [r4, #10]
 1210 0038 607A     		ldrb	r0, [r4, #9]
 1211 003a E37A     		ldrb	r3, [r4, #11]
 1212 003c 1202     		lsls	r2, r2, #8
 1213 003e 0243     		orrs	r2, r0
 1214 0040 1B04     		lsls	r3, r3, #16
 1215 0042 1343     		orrs	r3, r2
 1216 0044 1A00     		movs	r2, r3
 1217 0046 237B     		ldrb	r3, [r4, #12]
 1218              	.LBE202:
ARM GAS  C:\Users\jrdia\AppData\Local\Temp\ccxPPVVw.s 			page 42


 1219              	.LBE201:
 101:confdescparser.h ****                         valParser.Initialize(&theBuffer);
 1220              		.loc 2 101 0
 1221 0048 0227     		movs	r7, #2
 1222              	.LBB205:
 1223              	.LBB203:
  43:parsetools.h  ****                 countDown = valueSize = pbuf->valueSize;
 1224              		.loc 4 43 0
 1225 004a 1B06     		lsls	r3, r3, #24
 1226 004c 1343     		orrs	r3, r2
 1227 004e 2361     		str	r3, [r4, #16]
 1228              	.LBE203:
 1229              	.LBE205:
 103:confdescparser.h ****                 case 1:
 1230              		.loc 2 103 0
 1231 0050 0122     		movs	r2, #1
 1232 0052 3023     		movs	r3, #48
 101:confdescparser.h ****                         valParser.Initialize(&theBuffer);
 1233              		.loc 2 101 0
 1234 0054 2772     		strb	r7, [r4, #8]
 1235              	.LVL76:
 1236              	.LBB206:
 1237              	.LBB204:
  44:parsetools.h  ****         };
 1238              		.loc 4 44 0
 1239 0056 6775     		strb	r7, [r4, #21]
 1240 0058 2775     		strb	r7, [r4, #20]
 1241              	.LVL77:
 1242              	.LBE204:
 1243              	.LBE206:
 103:confdescparser.h ****                 case 1:
 1244              		.loc 2 103 0
 1245 005a E254     		strb	r2, [r4, r3]
 1246              	.L121:
 105:confdescparser.h ****                                 return false;
 1247              		.loc 2 105 0
 1248 005c 2000     		movs	r0, r4
 1249 005e 2A00     		movs	r2, r5
 1250 0060 03A9     		add	r1, sp, #12
 1251              	.LVL78:
 1252 0062 1030     		adds	r0, r0, #16
 1253 0064 FFF7FEFF 		bl	_ZN20MultiByteValueParser5ParseEPPhPt
 1254              	.LVL79:
 1255 0068 0028     		cmp	r0, #0
 1256 006a 5ED0     		beq	.L116
 107:confdescparser.h ****                         dscrType = *((uint8_t*)theBuffer.pValue + 1);
 1257              		.loc 2 107 0
 1258 006c 3121     		movs	r1, #49
 1259 006e A368     		ldr	r3, [r4, #8]
 1260 0070 227B     		ldrb	r2, [r4, #12]
 1261 0072 1B0A     		lsrs	r3, r3, #8
 1262 0074 1206     		lsls	r2, r2, #24
 1263 0076 1A43     		orrs	r2, r3
 1264 0078 1378     		ldrb	r3, [r2]
 1265 007a 6354     		strb	r3, [r4, r1]
 108:confdescparser.h ****                         stateParseDescr = 2;
 1266              		.loc 2 108 0
ARM GAS  C:\Users\jrdia\AppData\Local\Temp\ccxPPVVw.s 			page 43


 1267 007c 5178     		ldrb	r1, [r2, #1]
 1268 007e 3222     		movs	r2, #50
 1269 0080 A154     		strb	r1, [r4, r2]
 1270              	.L127:
 116:confdescparser.h ****                         stateParseDescr = 3;
 1271              		.loc 2 116 0
 1272 0082 4246     		mov	r2, r8
 1273 0084 300A     		lsrs	r0, r6, #8
 1274 0086 A072     		strb	r0, [r4, #10]
 1275 0088 300C     		lsrs	r0, r6, #16
 1276 008a E072     		strb	r0, [r4, #11]
 1277 008c 300E     		lsrs	r0, r6, #24
 1278 008e 6272     		strb	r2, [r4, #9]
 1279 0090 2073     		strb	r0, [r4, #12]
 117:confdescparser.h ****                 case 3:
 1280              		.loc 2 117 0
 1281 0092 3022     		movs	r2, #48
 1282 0094 0320     		movs	r0, #3
 1283 0096 A054     		strb	r0, [r4, r2]
 1284 0098 3200     		movs	r2, r6
 1285              	.L126:
 119:confdescparser.h ****                                 case USB_DESCRIPTOR_INTERFACE:
 1286              		.loc 2 119 0
 1287 009a 0429     		cmp	r1, #4
 1288 009c 02D1     		bne	.L129
 121:confdescparser.h ****                                         break;
 1289              		.loc 2 121 0
 1290 009e 0027     		movs	r7, #0
 1291 00a0 3320     		movs	r0, #51
 1292 00a2 2754     		strb	r7, [r4, r0]
 1293              	.L129:
 128:confdescparser.h ****                         valParser.Initialize(&theBuffer);
 1294              		.loc 2 128 0
 1295 00a4 023B     		subs	r3, r3, #2
 1296 00a6 DBB2     		uxtb	r3, r3
 1297 00a8 2372     		strb	r3, [r4, #8]
 1298              	.LVL80:
 1299              	.LBB207:
 1300              	.LBB208:
  43:parsetools.h  ****                 countDown = valueSize = pbuf->valueSize;
 1301              		.loc 4 43 0
 1302 00aa 2261     		str	r2, [r4, #16]
  44:parsetools.h  ****         };
 1303              		.loc 4 44 0
 1304 00ac 6375     		strb	r3, [r4, #21]
 1305 00ae 2375     		strb	r3, [r4, #20]
 1306              	.LVL81:
 1307              	.LBE208:
 1308              	.LBE207:
 130:confdescparser.h ****                 case 4:
 1309              		.loc 2 130 0
 1310 00b0 0422     		movs	r2, #4
 1311 00b2 3023     		movs	r3, #48
 1312 00b4 E254     		strb	r2, [r4, r3]
 132:confdescparser.h ****                                 case USB_DESCRIPTOR_CONFIGURATION:
 1313              		.loc 2 132 0
 1314 00b6 0429     		cmp	r1, #4
ARM GAS  C:\Users\jrdia\AppData\Local\Temp\ccxPPVVw.s 			page 44


 1315 00b8 41D0     		beq	.L132
 1316              	.L187:
 1317 00ba 0529     		cmp	r1, #5
 1318 00bc 00D1     		bne	.LCB1196
 1319 00be 85E0     		b	.L133	@long jump
 1320              	.LCB1196:
 1321 00c0 0229     		cmp	r1, #2
 1322 00c2 00D1     		bne	.LCB1198
 1323 00c4 74E0     		b	.L184	@long jump
 1324              	.LCB1198:
 1325              	.LVL82:
 1326              	.LBB209:
 1327              	.LBB210:
  66:parsetools.h  ****                         case 0:
 1328              		.loc 4 66 0
 1329 00c6 237F     		ldrb	r3, [r4, #28]
 1330 00c8 002B     		cmp	r3, #0
 1331 00ca 00D1     		bne	.LCB1208
 1332 00cc AAE0     		b	.L141	@long jump
 1333              	.LCB1208:
 1334 00ce 012B     		cmp	r3, #1
 1335 00d0 00D0     		beq	.LCB1210
 1336 00d2 A0E0     		b	.L183	@long jump
 1337              	.LCB1210:
 1338 00d4 E18B     		ldrh	r1, [r4, #30]
 1339              	.L143:
  71:parsetools.h  **** 
 1340              		.loc 4 71 0
 1341 00d6 0029     		cmp	r1, #0
 1342 00d8 15D0     		beq	.L144
 1343 00da 2B88     		ldrh	r3, [r5]
 1344 00dc 002B     		cmp	r3, #0
 1345 00de 24D0     		beq	.L116
 1346 00e0 039A     		ldr	r2, [sp, #12]
 1347 00e2 0139     		subs	r1, r1, #1
 1348 00e4 89B2     		uxth	r1, r1
 1349 00e6 501C     		adds	r0, r2, #1
 1350 00e8 06E0     		b	.L146
 1351              	.L147:
 1352 00ea 4A1E     		subs	r2, r1, #1
 1353 00ec 92B2     		uxth	r2, r2
 1354 00ee 0130     		adds	r0, r0, #1
 1355 00f0 002B     		cmp	r3, #0
 1356 00f2 00D1     		bne	.LCB1232
 1357 00f4 9EE0     		b	.L185	@long jump
 1358              	.LCB1232:
 1359 00f6 1100     		movs	r1, r2
 1360              	.L146:
 1361 00f8 013B     		subs	r3, r3, #1
 1362 00fa 9BB2     		uxth	r3, r3
 1363 00fc 0029     		cmp	r1, #0
 1364 00fe F4D1     		bne	.L147
 1365 0100 E183     		strh	r1, [r4, #30]
 1366 0102 0390     		str	r0, [sp, #12]
 1367 0104 2B80     		strh	r3, [r5]
 1368              	.L144:
 1369              		.loc 4 74 0
ARM GAS  C:\Users\jrdia\AppData\Local\Temp\ccxPPVVw.s 			page 45


 1370 0106 0023     		movs	r3, #0
 1371 0108 2700     		movs	r7, r4
 1372 010a 2377     		strb	r3, [r4, #28]
 1373              	.LVL83:
 1374 010c 2037     		adds	r7, r7, #32
 1375              	.L135:
 1376              	.LBE210:
 1377              	.LBE209:
 173:confdescparser.h ****                         stateParseDescr = 0;
 1378              		.loc 2 173 0
 1379 010e 3A0A     		lsrs	r2, r7, #8
 1380 0110 A272     		strb	r2, [r4, #10]
 1381 0112 3A0C     		lsrs	r2, r7, #16
 1382 0114 E272     		strb	r2, [r4, #11]
 1383 0116 3A0E     		lsrs	r2, r7, #24
 1384 0118 2273     		strb	r2, [r4, #12]
 1385              		.loc 2 174 0
 1386 011a 3023     		movs	r3, #48
 1387 011c 0022     		movs	r2, #0
 1388 011e 2988     		ldrh	r1, [r5]
 1389              	.LVL84:
 173:confdescparser.h ****                         stateParseDescr = 0;
 1390              		.loc 2 173 0
 1391 0120 6772     		strb	r7, [r4, #9]
 1392              		.loc 2 174 0
 1393 0122 E254     		strb	r2, [r4, r3]
 1394              	.LBE217:
 1395              	.LBE221:
  88:confdescparser.h ****                 if(!ParseDescriptor(&p, &cntdn))
 1396              		.loc 2 88 0
 1397 0124 0029     		cmp	r1, #0
 1398 0126 00D0     		beq	.LCB1287
 1399 0128 7DE7     		b	.L186	@long jump
 1400              	.LCB1287:
 1401              	.LVL85:
 1402              	.L116:
  91:confdescparser.h **** 
 1403              		.loc 2 91 0
 1404 012a 04B0     		add	sp, sp, #16
 1405              		@ sp needed
 1406              	.LVL86:
 1407              	.LVL87:
 1408 012c 1CBC     		pop	{r2, r3, r4}
 1409 012e 9046     		mov	r8, r2
 1410 0130 9946     		mov	r9, r3
 1411 0132 A246     		mov	r10, r4
 1412 0134 F0BD     		pop	{r4, r5, r6, r7, pc}
 1413              	.LVL88:
 1414              	.L124:
 1415 0136 3223     		movs	r3, #50
 1416 0138 E15C     		ldrb	r1, [r4, r3]
 1417              	.LBB222:
 1418              	.LBB218:
 132:confdescparser.h ****                                 case USB_DESCRIPTOR_CONFIGURATION:
 1419              		.loc 2 132 0
 1420 013a 0429     		cmp	r1, #4
 1421 013c BDD1     		bne	.L187
ARM GAS  C:\Users\jrdia\AppData\Local\Temp\ccxPPVVw.s 			page 46


 1422              	.L132:
 139:confdescparser.h ****                                                 return false;
 1423              		.loc 2 139 0
 1424 013e 2000     		movs	r0, r4
 1425 0140 2A00     		movs	r2, r5
 1426 0142 03A9     		add	r1, sp, #12
 1427              	.LVL89:
 1428 0144 1030     		adds	r0, r0, #16
 1429 0146 FFF7FEFF 		bl	_ZN20MultiByteValueParser5ParseEPPhPt
 1430              	.LVL90:
 1431 014a 0028     		cmp	r0, #0
 1432 014c EDD0     		beq	.L116
 141:confdescparser.h ****                                                 break;
 1433              		.loc 2 141 0
 1434 014e 2700     		movs	r7, r4
 1435 0150 2037     		adds	r7, r7, #32
 1436 0152 7B79     		ldrb	r3, [r7, #5]
 1437 0154 E02B     		cmp	r3, #224
 1438 0156 DAD1     		bne	.L135
 143:confdescparser.h ****                                                 break;
 1439              		.loc 2 143 0
 1440 0158 BB79     		ldrb	r3, [r7, #6]
 1441 015a 012B     		cmp	r3, #1
 1442 015c D7D1     		bne	.L135
 145:confdescparser.h ****                                                 if((!((MASK & CP_MASK_COMPARE_PROTOCOL) && uid->bIn
 1443              		.loc 2 145 0
 1444 015e 3733     		adds	r3, r3, #55
 1445 0160 E35C     		ldrb	r3, [r4, r3]
 1446 0162 002B     		cmp	r3, #0
 1447 0164 68D1     		bne	.L188
 149:confdescparser.h ****                                                         break;
 1448              		.loc 2 149 0
 1449 0166 FB79     		ldrb	r3, [r7, #7]
 1450 0168 012B     		cmp	r3, #1
 1451 016a D0D1     		bne	.L135
 1452              	.L139:
 152:confdescparser.h ****                                         ifaceNumber = uid->bInterfaceNumber;
 1453              		.loc 2 152 0
 1454 016c 0121     		movs	r1, #1
 1455 016e 3322     		movs	r2, #51
 1456 0170 A154     		strb	r1, [r4, r2]
 153:confdescparser.h ****                                         ifaceAltSet = uid->bAlternateSetting;
 1457              		.loc 2 153 0
 1458 0172 B978     		ldrb	r1, [r7, #2]
 1459 0174 0332     		adds	r2, r2, #3
 1460 0176 A154     		strb	r1, [r4, r2]
 154:confdescparser.h ****                                         protoValue = uid->bInterfaceProtocol;
 1461              		.loc 2 154 0
 1462 0178 F978     		ldrb	r1, [r7, #3]
 1463 017a 0132     		adds	r2, r2, #1
 1464 017c A154     		strb	r1, [r4, r2]
 155:confdescparser.h ****                                         break;
 1465              		.loc 2 155 0
 1466 017e 023A     		subs	r2, r2, #2
 1467 0180 A354     		strb	r3, [r4, r2]
 1468 0182 C4E7     		b	.L135
 1469              	.L123:
ARM GAS  C:\Users\jrdia\AppData\Local\Temp\ccxPPVVw.s 			page 47


 1470 0184 A37A     		ldrb	r3, [r4, #10]
 1471 0186 607A     		ldrb	r0, [r4, #9]
 1472 0188 E27A     		ldrb	r2, [r4, #11]
 1473 018a 1B02     		lsls	r3, r3, #8
 1474 018c 0343     		orrs	r3, r0
 1475 018e 1204     		lsls	r2, r2, #16
 1476 0190 1900     		movs	r1, r3
 1477 0192 1300     		movs	r3, r2
 1478 0194 227B     		ldrb	r2, [r4, #12]
 1479 0196 0B43     		orrs	r3, r1
 1480 0198 1206     		lsls	r2, r2, #24
 1481 019a 1A43     		orrs	r2, r3
 1482 019c 3223     		movs	r3, #50
 1483 019e E15C     		ldrb	r1, [r4, r3]
 1484 01a0 013B     		subs	r3, r3, #1
 1485 01a2 E35C     		ldrb	r3, [r4, r3]
 1486 01a4 79E7     		b	.L126
 1487              	.L122:
 1488 01a6 3223     		movs	r3, #50
 1489 01a8 E15C     		ldrb	r1, [r4, r3]
 1490 01aa 013B     		subs	r3, r3, #1
 1491 01ac E35C     		ldrb	r3, [r4, r3]
 1492 01ae 68E7     		b	.L127
 1493              	.L184:
 134:confdescparser.h ****                                                 return false;
 1494              		.loc 2 134 0
 1495 01b0 2000     		movs	r0, r4
 1496 01b2 2A00     		movs	r2, r5
 1497 01b4 03A9     		add	r1, sp, #12
 1498              	.LVL91:
 1499 01b6 1030     		adds	r0, r0, #16
 1500 01b8 FFF7FEFF 		bl	_ZN20MultiByteValueParser5ParseEPPhPt
 1501              	.LVL92:
 1502 01bc 0028     		cmp	r0, #0
 1503 01be B4D0     		beq	.L116
 136:confdescparser.h ****                                         break;
 1504              		.loc 2 136 0
 1505 01c0 2700     		movs	r7, r4
 1506 01c2 3423     		movs	r3, #52
 1507 01c4 2037     		adds	r7, r7, #32
 1508 01c6 7A79     		ldrb	r2, [r7, #5]
 1509 01c8 E254     		strb	r2, [r4, r3]
 1510 01ca A0E7     		b	.L135
 1511              	.L133:
 158:confdescparser.h ****                                                 return false;
 1512              		.loc 2 158 0
 1513 01cc 2000     		movs	r0, r4
 1514 01ce 2A00     		movs	r2, r5
 1515 01d0 03A9     		add	r1, sp, #12
 1516              	.LVL93:
 1517 01d2 1030     		adds	r0, r0, #16
 1518 01d4 FFF7FEFF 		bl	_ZN20MultiByteValueParser5ParseEPPhPt
 1519              	.LVL94:
 1520 01d8 0028     		cmp	r0, #0
 1521 01da A6D0     		beq	.L116
 160:confdescparser.h ****                                                 if(theXtractor)
 1522              		.loc 2 160 0
ARM GAS  C:\Users\jrdia\AppData\Local\Temp\ccxPPVVw.s 			page 48


 1523 01dc 3323     		movs	r3, #51
 1524 01de 2700     		movs	r7, r4
 1525 01e0 E35C     		ldrb	r3, [r4, r3]
 1526 01e2 2037     		adds	r7, r7, #32
 1527 01e4 002B     		cmp	r3, #0
 1528 01e6 92D0     		beq	.L135
 161:confdescparser.h ****                                                         theXtractor->EndpointXtract(confValue, ifac
 1529              		.loc 2 161 0
 1530 01e8 6068     		ldr	r0, [r4, #4]
 1531 01ea 0028     		cmp	r0, #0
 1532 01ec 00D1     		bne	.LCB1448
 1533 01ee 8EE7     		b	.L135	@long jump
 1534              	.LCB1448:
 162:confdescparser.h ****                                         break;
 1535              		.loc 2 162 0
 1536 01f0 3723     		movs	r3, #55
 1537 01f2 E35C     		ldrb	r3, [r4, r3]
 1538 01f4 3622     		movs	r2, #54
 1539 01f6 9A46     		mov	r10, r3
 1540 01f8 0368     		ldr	r3, [r0]
 1541 01fa 3421     		movs	r1, #52
 1542 01fc 9C46     		mov	ip, r3
 1543 01fe 3523     		movs	r3, #53
 1544 0200 E35C     		ldrb	r3, [r4, r3]
 1545 0202 0197     		str	r7, [sp, #4]
 1546 0204 0093     		str	r3, [sp]
 1547 0206 6346     		mov	r3, ip
 1548 0208 1B68     		ldr	r3, [r3]
 1549 020a A25C     		ldrb	r2, [r4, r2]
 1550 020c 9946     		mov	r9, r3
 1551 020e 615C     		ldrb	r1, [r4, r1]
 1552 0210 5346     		mov	r3, r10
 1553 0212 C847     		blx	r9
 1554              	.LVL95:
 1555 0214 7BE7     		b	.L135
 1556              	.LVL96:
 1557              	.L183:
 170:confdescparser.h ****                                                 return false;
 1558              		.loc 2 170 0
 1559 0216 E38B     		ldrh	r3, [r4, #30]
 1560 0218 002B     		cmp	r3, #0
 1561 021a 00D0     		beq	.LCB1486
 1562 021c 85E7     		b	.L116	@long jump
 1563              	.LCB1486:
 1564 021e 2700     		movs	r7, r4
 1565 0220 2037     		adds	r7, r7, #32
 1566 0222 74E7     		b	.L135
 1567              	.LVL97:
 1568              	.L141:
 1569 0224 3123     		movs	r3, #49
 1570 0226 E15C     		ldrb	r1, [r4, r3]
 1571              	.LBB213:
 1572              	.LBB211:
  69:parsetools.h  ****                         case 1:
 1573              		.loc 4 69 0
 1574 0228 303B     		subs	r3, r3, #48
 1575              	.LBE211:
ARM GAS  C:\Users\jrdia\AppData\Local\Temp\ccxPPVVw.s 			page 49


 1576              	.LBE213:
 170:confdescparser.h ****                                                 return false;
 1577              		.loc 2 170 0
 1578 022a 0239     		subs	r1, r1, #2
 1579 022c 89B2     		uxth	r1, r1
 1580              	.LBB214:
 1581              	.LBB212:
  68:parsetools.h  ****                                 nStage++;
 1582              		.loc 4 68 0
 1583 022e E183     		strh	r1, [r4, #30]
  69:parsetools.h  ****                         case 1:
 1584              		.loc 4 69 0
 1585 0230 2377     		strb	r3, [r4, #28]
 1586 0232 50E7     		b	.L143
 1587              	.L185:
 1588 0234 E183     		strh	r1, [r4, #30]
 1589              	.LVL98:
 1590 0236 78E7     		b	.L116
 1591              	.LVL99:
 1592              	.L188:
 1593              	.LBE212:
 1594              	.LBE214:
 146:confdescparser.h ****                                                         break;
 1595              		.loc 2 146 0
 1596 0238 FB79     		ldrb	r3, [r7, #7]
 1597 023a 002B     		cmp	r3, #0
 1598 023c 00D1     		bne	.LCB1545
 1599 023e 66E7     		b	.L135	@long jump
 1600              	.LCB1545:
 1601 0240 94E7     		b	.L139
 1602              	.L190:
 1603 0242 C046     		.align	2
 1604              	.L189:
 1605 0244 00000000 		.word	.L120
 1606              	.LBE218:
 1607              	.LBE222:
 1608              		.cfi_endproc
 1609              	.LFE291:
 1610              		.fnend
 1611              		.size	_ZN16ConfigDescParserILh224ELh1ELh1ELh7EE5ParseEtPKhRKt, .-_ZN16ConfigDescParserILh224ELh1EL
 1612              		.section	.text._ZN3BTD10InitializeEv,"ax",%progbits
 1613              		.align	2
 1614              		.global	_ZN3BTD10InitializeEv
 1615              		.code	16
 1616              		.thumb_func
 1617              		.type	_ZN3BTD10InitializeEv, %function
 1618              	_ZN3BTD10InitializeEv:
 1619              		.fnstart
 1620              	.LFB243:
 300:BTD.c         ****         uint8_t i;
 1621              		.loc 5 300 0
 1622              		.cfi_startproc
 1623              		@ args = 0, pretend = 0, frame = 0
 1624              		@ frame_needed = 0, uses_anonymous_args = 0
 1625              	.LVL100:
 1626 0000 F8B5     		push	{r3, r4, r5, r6, r7, lr}
 1627              		.save {r3, r4, r5, r6, r7, lr}
ARM GAS  C:\Users\jrdia\AppData\Local\Temp\ccxPPVVw.s 			page 50


 1628              		.cfi_def_cfa_offset 24
 1629              		.cfi_offset 3, -24
 1630              		.cfi_offset 4, -20
 1631              		.cfi_offset 5, -16
 1632              		.cfi_offset 6, -12
 1633              		.cfi_offset 7, -8
 1634              		.cfi_offset 14, -4
 305:BTD.c         ****                 epInfo[i].bmRcvToggle = 0;
 1635              		.loc 5 305 0
 1636 0002 0123     		movs	r3, #1
 300:BTD.c         ****         uint8_t i;
 1637              		.loc 5 300 0
 1638 0004 4446     		mov	r4, r8
 305:BTD.c         ****                 epInfo[i].bmRcvToggle = 0;
 1639              		.loc 5 305 0
 1640 0006 9846     		mov	r8, r3
 306:BTD.c         ****                 epInfo[i].bmNakPower = (i) ? USB_NAK_NOWAIT : USB_NAK_MAX_POWER;
 1641              		.loc 5 306 0
 1642 0008 0133     		adds	r3, r3, #1
 1643 000a 9C46     		mov	ip, r3
 307:BTD.c         ****         }
 1644              		.loc 5 307 0
 1645 000c 0423     		movs	r3, #4
 300:BTD.c         ****         uint8_t i;
 1646              		.loc 5 300 0
 1647 000e 5646     		mov	r6, r10
 1648 0010 4D46     		mov	r5, r9
 1649 0012 5F46     		mov	r7, fp
 307:BTD.c         ****         }
 1650              		.loc 5 307 0
 1651 0014 9946     		mov	r9, r3
 304:BTD.c         ****                 epInfo[i].bmSndToggle = 0;
 1652              		.loc 5 304 0
 1653 0016 0823     		movs	r3, #8
 300:BTD.c         ****         uint8_t i;
 1654              		.loc 5 300 0
 1655 0018 F0B4     		push	{r4, r5, r6, r7}
 1656              		.save {r8, r9, r10, fp}
 1657              		.cfi_def_cfa_offset 40
 1658              		.cfi_offset 8, -40
 1659              		.cfi_offset 9, -36
 1660              		.cfi_offset 10, -32
 1661              		.cfi_offset 11, -28
 1662 001a 0500     		movs	r5, r0
 303:BTD.c         ****                 epInfo[i].maxPktSize = (i) ? 0 : 8;
 1663              		.loc 5 303 0
 1664 001c 0026     		movs	r6, #0
 304:BTD.c         ****                 epInfo[i].bmSndToggle = 0;
 1665              		.loc 5 304 0
 1666 001e 9B46     		mov	fp, r3
 300:BTD.c         ****         uint8_t i;
 1667              		.loc 5 300 0
 1668 0020 0021     		movs	r1, #0
 307:BTD.c         ****         }
 1669              		.loc 5 307 0
 1670 0022 3C23     		movs	r3, #60
 1671 0024 5135     		adds	r5, r5, #81
ARM GAS  C:\Users\jrdia\AppData\Local\Temp\ccxPPVVw.s 			page 51


 300:BTD.c         ****         uint8_t i;
 1672              		.loc 5 300 0
 1673 0026 0400     		movs	r4, r0
 307:BTD.c         ****         }
 1674              		.loc 5 307 0
 1675 0028 9A46     		mov	r10, r3
 300:BTD.c         ****         uint8_t i;
 1676              		.loc 5 300 0
 1677 002a 0120     		movs	r0, #1
 1678              	.LVL101:
 303:BTD.c         ****                 epInfo[i].maxPktSize = (i) ? 0 : 8;
 1679              		.loc 5 303 0
 1680 002c 2E70     		strb	r6, [r5]
 304:BTD.c         ****                 epInfo[i].bmSndToggle = 0;
 1681              		.loc 5 304 0
 1682 002e 0029     		cmp	r1, #0
 1683 0030 17D0     		beq	.L205
 1684              	.LVL102:
 1685              	.L193:
 306:BTD.c         ****                 epInfo[i].bmNakPower = (i) ? USB_NAK_NOWAIT : USB_NAK_MAX_POWER;
 1686              		.loc 5 306 0
 1687 0032 4746     		mov	r7, r8
 305:BTD.c         ****                 epInfo[i].bmRcvToggle = 0;
 1688              		.loc 5 305 0
 1689 0034 4A00     		lsls	r2, r1, #1
 1690 0036 5218     		adds	r2, r2, r1
 1691 0038 A218     		adds	r2, r4, r2
 304:BTD.c         ****                 epInfo[i].bmSndToggle = 0;
 1692              		.loc 5 304 0
 1693 003a 6E70     		strb	r6, [r5, #1]
 305:BTD.c         ****                 epInfo[i].bmRcvToggle = 0;
 1694              		.loc 5 305 0
 1695 003c 5032     		adds	r2, r2, #80
 1696 003e D378     		ldrb	r3, [r2, #3]
 306:BTD.c         ****                 epInfo[i].bmNakPower = (i) ? USB_NAK_NOWAIT : USB_NAK_MAX_POWER;
 1697              		.loc 5 306 0
 1698 0040 BB43     		bics	r3, r7
 307:BTD.c         ****         }
 1699              		.loc 5 307 0
 1700 0042 6746     		mov	r7, ip
 1701 0044 BB43     		bics	r3, r7
 1702 0046 0327     		movs	r7, #3
 1703 0048 3B40     		ands	r3, r7
 1704 004a 4F46     		mov	r7, r9
 1705 004c 3B43     		orrs	r3, r7
 1706 004e D370     		strb	r3, [r2, #3]
 1707              	.LVL103:
 302:BTD.c         ****                 epInfo[i].epAddr = 0;
 1708              		.loc 5 302 0
 1709 0050 0428     		cmp	r0, #4
 1710 0052 15D0     		beq	.L206
 1711              	.L197:
 1712 0054 0335     		adds	r5, r5, #3
 1713 0056 0130     		adds	r0, r0, #1
 1714              	.LVL104:
 1715 0058 0131     		adds	r1, r1, #1
 1716 005a C0B2     		uxtb	r0, r0
ARM GAS  C:\Users\jrdia\AppData\Local\Temp\ccxPPVVw.s 			page 52


 1717              	.LVL105:
 303:BTD.c         ****                 epInfo[i].maxPktSize = (i) ? 0 : 8;
 1718              		.loc 5 303 0
 1719 005c 2E70     		strb	r6, [r5]
 304:BTD.c         ****                 epInfo[i].bmSndToggle = 0;
 1720              		.loc 5 304 0
 1721 005e 0029     		cmp	r1, #0
 1722 0060 E7D1     		bne	.L193
 1723              	.LVL106:
 1724              	.L205:
 1725 0062 5B46     		mov	r3, fp
 305:BTD.c         ****                 epInfo[i].bmRcvToggle = 0;
 1726              		.loc 5 305 0
 1727 0064 2200     		movs	r2, r4
 306:BTD.c         ****                 epInfo[i].bmNakPower = (i) ? USB_NAK_NOWAIT : USB_NAK_MAX_POWER;
 1728              		.loc 5 306 0
 1729 0066 4746     		mov	r7, r8
 304:BTD.c         ****                 epInfo[i].bmSndToggle = 0;
 1730              		.loc 5 304 0
 1731 0068 6B70     		strb	r3, [r5, #1]
 305:BTD.c         ****                 epInfo[i].bmRcvToggle = 0;
 1732              		.loc 5 305 0
 1733 006a 5032     		adds	r2, r2, #80
 1734 006c D378     		ldrb	r3, [r2, #3]
 306:BTD.c         ****                 epInfo[i].bmNakPower = (i) ? USB_NAK_NOWAIT : USB_NAK_MAX_POWER;
 1735              		.loc 5 306 0
 1736 006e BB43     		bics	r3, r7
 307:BTD.c         ****         }
 1737              		.loc 5 307 0
 1738 0070 6746     		mov	r7, ip
 1739 0072 BB43     		bics	r3, r7
 1740 0074 0327     		movs	r7, #3
 1741 0076 3B40     		ands	r3, r7
 1742 0078 5746     		mov	r7, r10
 1743 007a 3B43     		orrs	r3, r7
 1744 007c D370     		strb	r3, [r2, #3]
 1745              	.LVL107:
 1746 007e E9E7     		b	.L197
 1747              	.L206:
 1748 0080 2500     		movs	r5, r4
 1749 0082 2600     		movs	r6, r4
 1750 0084 6435     		adds	r5, r5, #100
 1751 0086 7436     		adds	r6, r6, #116
 1752              	.LVL108:
 1753              	.L196:
 310:BTD.c         ****                         btService[i]->Reset(); // Reset all Bluetooth services
 1754              		.loc 5 310 0
 1755 0088 2868     		ldr	r0, [r5]
 1756 008a 0028     		cmp	r0, #0
 1757 008c 02D0     		beq	.L195
 311:BTD.c         ****         }
 1758              		.loc 5 311 0
 1759 008e 0368     		ldr	r3, [r0]
 1760 0090 9B68     		ldr	r3, [r3, #8]
 1761 0092 9847     		blx	r3
 1762              	.LVL109:
 1763              	.L195:
ARM GAS  C:\Users\jrdia\AppData\Local\Temp\ccxPPVVw.s 			page 53


 1764 0094 0435     		adds	r5, r5, #4
 309:BTD.c         ****                 if(btService[i])
 1765              		.loc 5 309 0 discriminator 2
 1766 0096 AE42     		cmp	r6, r5
 1767 0098 F6D1     		bne	.L196
 314:BTD.c         ****         incomingWii = false;
 1768              		.loc 5 314 0
 1769 009a 0023     		movs	r3, #0
 1770 009c 4122     		movs	r2, #65
 320:BTD.c         ****         qNextPollTime = 0; // Reset next poll time
 1771              		.loc 5 320 0
 1772 009e 0121     		movs	r1, #1
 314:BTD.c         ****         incomingWii = false;
 1773              		.loc 5 314 0
 1774 00a0 A354     		strb	r3, [r4, r2]
 315:BTD.c         ****         connectToHIDDevice = false;
 1775              		.loc 5 315 0
 1776 00a2 0132     		adds	r2, r2, #1
 1777 00a4 A354     		strb	r3, [r4, r2]
 316:BTD.c         ****         incomingHIDDevice = false;
 1778              		.loc 5 316 0
 1779 00a6 0432     		adds	r2, r2, #4
 1780 00a8 A354     		strb	r3, [r4, r2]
 317:BTD.c         ****         incomingPS4 = false;
 1781              		.loc 5 317 0
 1782 00aa 0132     		adds	r2, r2, #1
 1783 00ac A354     		strb	r3, [r4, r2]
 318:BTD.c         ****         bAddress = 0; // Clear device address
 1784              		.loc 5 318 0
 1785 00ae 3532     		adds	r2, r2, #53
 1786 00b0 A354     		strb	r3, [r4, r2]
 319:BTD.c         ****         bNumEP = 1; // Must have to be reset to 1
 1787              		.loc 5 319 0
 1788 00b2 2C3A     		subs	r2, r2, #44
 1789 00b4 A354     		strb	r3, [r4, r2]
 320:BTD.c         ****         qNextPollTime = 0; // Reset next poll time
 1790              		.loc 5 320 0
 1791 00b6 0E32     		adds	r2, r2, #14
 1792 00b8 A154     		strb	r1, [r4, r2]
 322:BTD.c         ****         bPollEnable = false; // Don't start polling before dongle is connected
 1793              		.loc 5 322 0
 1794 00ba 1A32     		adds	r2, r2, #26
 321:BTD.c         ****         pollInterval = 0;
 1795              		.loc 5 321 0
 1796 00bc 2366     		str	r3, [r4, #96]
 322:BTD.c         ****         bPollEnable = false; // Don't start polling before dongle is connected
 1797              		.loc 5 322 0
 1798 00be A354     		strb	r3, [r4, r2]
 323:BTD.c         **** }
 1799              		.loc 5 323 0
 1800 00c0 0132     		adds	r2, r2, #1
 1801 00c2 A354     		strb	r3, [r4, r2]
 324:BTD.c         **** 
 1802              		.loc 5 324 0
 1803              		@ sp needed
 1804              	.LVL110:
 1805              	.LVL111:
ARM GAS  C:\Users\jrdia\AppData\Local\Temp\ccxPPVVw.s 			page 54


 1806 00c4 3CBC     		pop	{r2, r3, r4, r5}
 1807 00c6 9046     		mov	r8, r2
 1808 00c8 9946     		mov	r9, r3
 1809 00ca A246     		mov	r10, r4
 1810 00cc AB46     		mov	fp, r5
 1811 00ce F8BD     		pop	{r3, r4, r5, r6, r7, pc}
 1812              		.cfi_endproc
 1813              	.LFE243:
 1814              		.fnend
 1815              		.size	_ZN3BTD10InitializeEv, .-_ZN3BTD10InitializeEv
 1816              		.section	.text._ZN3BTDC2EP3USB,"ax",%progbits
 1817              		.align	2
 1818              		.global	_ZN3BTDC2EP3USB
 1819              		.code	16
 1820              		.thumb_func
 1821              		.type	_ZN3BTDC2EP3USB, %function
 1822              	_ZN3BTDC2EP3USB:
 1823              		.fnstart
 1824              	.LFB239:
  27:BTD.c         **** connectToWii(false),
 1825              		.loc 5 27 0
 1826              		.cfi_startproc
 1827              		@ args = 0, pretend = 0, frame = 0
 1828              		@ frame_needed = 0, uses_anonymous_args = 0
 1829              	.LVL112:
 1830              	.LBB223:
  37:BTD.c         **** {
 1831              		.loc 5 37 0
 1832 0000 1A4B     		ldr	r3, .L216
 1833              	.LBE223:
  27:BTD.c         **** connectToWii(false),
 1834              		.loc 5 27 0
 1835 0002 10B5     		push	{r4, lr}
 1836              		.save {r4, lr}
 1837              		.cfi_def_cfa_offset 8
 1838              		.cfi_offset 4, -8
 1839              		.cfi_offset 14, -4
 1840              	.LBB231:
  37:BTD.c         **** {
 1841              		.loc 5 37 0
 1842 0004 1A00     		movs	r2, r3
 1843 0006 3C33     		adds	r3, r3, #60
 1844 0008 0832     		adds	r2, r2, #8
 1845 000a 0260     		str	r2, [r0]
 1846 000c 4360     		str	r3, [r0, #4]
 1847 000e 4122     		movs	r2, #65
 1848 0010 0023     		movs	r3, #0
 1849 0012 8354     		strb	r3, [r0, r2]
 1850 0014 0232     		adds	r2, r2, #2
 1851 0016 8354     		strb	r3, [r0, r2]
 1852 0018 0332     		adds	r2, r2, #3
 1853 001a 8354     		strb	r3, [r0, r2]
 1854 001c 0232     		adds	r2, r2, #2
 1855 001e 8354     		strb	r3, [r0, r2]
 1856 0020 C164     		str	r1, [r0, #76]
 1857 0022 0121     		movs	r1, #1
 1858              	.LVL113:
ARM GAS  C:\Users\jrdia\AppData\Local\Temp\ccxPPVVw.s 			page 55


 1859              	.LBE231:
  27:BTD.c         **** connectToWii(false),
 1860              		.loc 5 27 0
 1861 0024 0400     		movs	r4, r0
 1862              	.LBB232:
  37:BTD.c         **** {
 1863              		.loc 5 37 0
 1864 0026 0832     		adds	r2, r2, #8
 1865 0028 8354     		strb	r3, [r0, r2]
 1866              	.LVL114:
 1867 002a 0E32     		adds	r2, r2, #14
 1868 002c 8154     		strb	r1, [r0, r2]
 1869 002e 1A32     		adds	r2, r2, #26
 1870 0030 0366     		str	r3, [r0, #96]
 1871 0032 8354     		strb	r3, [r0, r2]
 1872 0034 0132     		adds	r2, r2, #1
 1873 0036 8354     		strb	r3, [r0, r2]
 1874              	.LVL115:
 1875              	.LBB224:
 1876              	.LBB225:
  40:BTD.c         **** 
 1877              		.loc 5 40 0
 1878 0038 4366     		str	r3, [r0, #100]
 1879              	.LVL116:
 1880 003a 8366     		str	r3, [r0, #104]
 1881              	.LVL117:
 1882 003c C366     		str	r3, [r0, #108]
 1883              	.LVL118:
 1884 003e 0367     		str	r3, [r0, #112]
 1885              	.LVL119:
 1886              	.LBE225:
  42:BTD.c         **** 
 1887              		.loc 5 42 0
 1888 0040 FFF7FEFF 		bl	_ZN3BTD10InitializeEv
 1889              	.LVL120:
  44:BTD.c         ****                 pUsb->RegisterDeviceClass(this); // Set devConfig[] entry
 1890              		.loc 5 44 0
 1891 0044 E16C     		ldr	r1, [r4, #76]
 1892 0046 0029     		cmp	r1, #0
 1893 0048 09D0     		beq	.L208
 1894              	.LVL121:
 1895 004a 0A00     		movs	r2, r1
 1896 004c 0023     		movs	r3, #0
 1897 004e 7832     		adds	r2, r2, #120
 1898              	.LVL122:
 1899              	.L210:
 1900              	.LBB226:
 1901              	.LBB227:
 161:UsbCore.h     **** 
 162:UsbCore.h     **** };
 163:UsbCore.h     **** 
 164:UsbCore.h     **** /* USB Setup Packet Structure   */
 165:UsbCore.h     **** typedef struct {
 166:UsbCore.h     **** 
 167:UsbCore.h     ****         union { // offset   description
 168:UsbCore.h     ****                 uint8_t bmRequestType; //   0      Bit-map of request type
 169:UsbCore.h     **** 
ARM GAS  C:\Users\jrdia\AppData\Local\Temp\ccxPPVVw.s 			page 56


 170:UsbCore.h     ****                 struct {
 171:UsbCore.h     ****                         uint8_t recipient : 5; //          Recipient of the request
 172:UsbCore.h     ****                         uint8_t type : 2; //          Type of request
 173:UsbCore.h     ****                         uint8_t direction : 1; //          Direction of data X-fer
 174:UsbCore.h     ****                 } __attribute__((packed));
 175:UsbCore.h     ****         } ReqType_u;
 176:UsbCore.h     ****         uint8_t bRequest; //   1      Request
 177:UsbCore.h     **** 
 178:UsbCore.h     ****         union {
 179:UsbCore.h     ****                 uint16_t wValue; //   2      Depends on bRequest
 180:UsbCore.h     **** 
 181:UsbCore.h     ****                 struct {
 182:UsbCore.h     ****                         uint8_t wValueLo;
 183:UsbCore.h     ****                         uint8_t wValueHi;
 184:UsbCore.h     ****                 } __attribute__((packed));
 185:UsbCore.h     ****         } wVal_u;
 186:UsbCore.h     ****         uint16_t wIndex; //   4      Depends on bRequest
 187:UsbCore.h     ****         uint16_t wLength; //   6      Depends on bRequest
 188:UsbCore.h     **** } __attribute__((packed)) SETUP_PKT, *PSETUP_PKT;
 189:UsbCore.h     **** 
 190:UsbCore.h     **** 
 191:UsbCore.h     **** 
 192:UsbCore.h     **** // Base class for incoming data parser
 193:UsbCore.h     **** 
 194:UsbCore.h     **** class USBReadParser {
 195:UsbCore.h     **** public:
 196:UsbCore.h     ****         virtual void Parse(const uint16_t len, const uint8_t *pbuf, const uint16_t &offset) = 0;
 197:UsbCore.h     **** };
 198:UsbCore.h     **** 
 199:UsbCore.h     **** class USB : public MAX3421E {
 200:UsbCore.h     ****         AddressPoolImpl<USB_NUMDEVICES> addrPool;
 201:UsbCore.h     ****         USBDeviceConfig* devConfig[USB_NUMDEVICES];
 202:UsbCore.h     ****         uint8_t bmHubPre;
 203:UsbCore.h     **** 
 204:UsbCore.h     **** public:
 205:UsbCore.h     ****         USB(void);
 206:UsbCore.h     **** 
 207:UsbCore.h     ****         void SetHubPreMask() {
 208:UsbCore.h     ****                 bmHubPre |= bmHUBPRE;
 209:UsbCore.h     ****         };
 210:UsbCore.h     **** 
 211:UsbCore.h     ****         void ResetHubPreMask() {
 212:UsbCore.h     ****                 bmHubPre &= (~bmHUBPRE);
 213:UsbCore.h     ****         };
 214:UsbCore.h     **** 
 215:UsbCore.h     ****         AddressPool& GetAddressPool() {
 216:UsbCore.h     ****                 return (AddressPool&)addrPool;
 217:UsbCore.h     ****         };
 218:UsbCore.h     **** 
 219:UsbCore.h     ****         uint8_t RegisterDeviceClass(USBDeviceConfig *pdev) {
 220:UsbCore.h     ****                 for(uint8_t i = 0; i < USB_NUMDEVICES; i++) {
 221:UsbCore.h     ****                         if(!devConfig[i]) {
 1902              		.loc 1 221 0
 1903 0050 1068     		ldr	r0, [r2]
 1904 0052 0028     		cmp	r0, #0
 1905 0054 05D0     		beq	.L215
 1906              	.LVL123:
ARM GAS  C:\Users\jrdia\AppData\Local\Temp\ccxPPVVw.s 			page 57


 1907 0056 0133     		adds	r3, r3, #1
 1908              	.LVL124:
 1909 0058 0432     		adds	r2, r2, #4
 220:UsbCore.h     ****                         if(!devConfig[i]) {
 1910              		.loc 1 220 0
 1911 005a 102B     		cmp	r3, #16
 1912 005c F8D1     		bne	.L210
 1913              	.LVL125:
 1914              	.L208:
 1915              	.LBE227:
 1916              	.LBE226:
 1917              	.LBE224:
 1918              	.LBE232:
  46:BTD.c         **** 
 1919              		.loc 5 46 0
 1920 005e 2000     		movs	r0, r4
 1921              		@ sp needed
 1922              	.LVL126:
 1923 0060 10BD     		pop	{r4, pc}
 1924              	.LVL127:
 1925              	.L215:
 1926              	.LBB233:
 1927              	.LBB230:
 1928              	.LBB229:
 1929              	.LBB228:
 222:UsbCore.h     ****                                 devConfig[i] = pdev;
 1930              		.loc 1 222 0
 1931 0062 1E33     		adds	r3, r3, #30
 1932              	.LVL128:
 1933 0064 9B00     		lsls	r3, r3, #2
 1934 0066 5C50     		str	r4, [r3, r1]
 1935 0068 F9E7     		b	.L208
 1936              	.L217:
 1937 006a C046     		.align	2
 1938              	.L216:
 1939 006c A4000000 		.word	.LANCHOR0
 1940              	.LBE228:
 1941              	.LBE229:
 1942              	.LBE230:
 1943              	.LBE233:
 1944              		.cfi_endproc
 1945              	.LFE239:
 1946              		.fnend
 1947              		.size	_ZN3BTDC2EP3USB, .-_ZN3BTDC2EP3USB
 1948              		.global	_ZN3BTDC1EP3USB
 1949              		.thumb_set _ZN3BTDC1EP3USB,_ZN3BTDC2EP3USB
 1950              		.section	.text._ZN3BTD15ConfigureDeviceEhhb,"ax",%progbits
 1951              		.align	2
 1952              		.global	_ZN3BTD15ConfigureDeviceEhhb
 1953              		.code	16
 1954              		.thumb_func
 1955              		.type	_ZN3BTD15ConfigureDeviceEhhb, %function
 1956              	_ZN3BTD15ConfigureDeviceEhhb:
 1957              		.fnstart
 1958              	.LFB241:
  48:BTD.c         ****         const uint8_t constBufSize = sizeof (USB_DEVICE_DESCRIPTOR);
 1959              		.loc 5 48 0
ARM GAS  C:\Users\jrdia\AppData\Local\Temp\ccxPPVVw.s 			page 58


 1960              		.cfi_startproc
 1961              		@ args = 0, pretend = 0, frame = 24
 1962              		@ frame_needed = 0, uses_anonymous_args = 0
 1963              	.LVL129:
 1964 0000 F0B5     		push	{r4, r5, r6, r7, lr}
 1965              		.save {r4, r5, r6, r7, lr}
 1966              		.cfi_def_cfa_offset 20
 1967              		.cfi_offset 4, -20
 1968              		.cfi_offset 5, -16
 1969              		.cfi_offset 6, -12
 1970              		.cfi_offset 7, -8
 1971              		.cfi_offset 14, -4
 1972 0002 4D46     		mov	r5, r9
 1973 0004 4446     		mov	r4, r8
 1974 0006 5646     		mov	r6, r10
 1975 0008 5F46     		mov	r7, fp
 1976 000a F0B4     		push	{r4, r5, r6, r7}
 1977              		.save {r8, r9, r10, fp}
 1978              		.cfi_def_cfa_offset 36
 1979              		.cfi_offset 8, -36
 1980              		.cfi_offset 9, -32
 1981              		.cfi_offset 10, -28
 1982              		.cfi_offset 11, -24
 1983 000c 0400     		movs	r4, r0
  63:BTD.c         **** #ifdef DEBUG_USB_HOST
 1984              		.loc 5 63 0
 1985 000e 5025     		movs	r5, #80
  48:BTD.c         ****         const uint8_t constBufSize = sizeof (USB_DEVICE_DESCRIPTOR);
 1986              		.loc 5 48 0
 1987              		.pad #36
 1988 0010 89B0     		sub	sp, sp, #36
 1989              		.cfi_def_cfa_offset 72
 1990              	.LVL130:
  48:BTD.c         ****         const uint8_t constBufSize = sizeof (USB_DEVICE_DESCRIPTOR);
 1991              		.loc 5 48 0
 1992 0012 9846     		mov	r8, r3
 1993 0014 8946     		mov	r9, r1
 1994 0016 9246     		mov	r10, r2
  56:BTD.c         **** 
 1995              		.loc 5 56 0
 1996 0018 FFF7FEFF 		bl	_ZN3BTD10InitializeEv
 1997              	.LVL131:
  63:BTD.c         **** #ifdef DEBUG_USB_HOST
 1998              		.loc 5 63 0
 1999 001c 635D     		ldrb	r3, [r4, r5]
  67:BTD.c         ****         }
 2000              		.loc 5 67 0
 2001 001e D920     		movs	r0, #217
  63:BTD.c         **** #ifdef DEBUG_USB_HOST
 2002              		.loc 5 63 0
 2003 0020 002B     		cmp	r3, #0
 2004 0022 06D0     		beq	.L230
 2005              	.LVL132:
 2006              	.L219:
 132:BTD.c         **** 
 2007              		.loc 5 132 0
 2008 0024 09B0     		add	sp, sp, #36
ARM GAS  C:\Users\jrdia\AppData\Local\Temp\ccxPPVVw.s 			page 59


 2009              		@ sp needed
 2010              	.LVL133:
 2011 0026 3CBC     		pop	{r2, r3, r4, r5}
 2012 0028 9046     		mov	r8, r2
 2013 002a 9946     		mov	r9, r3
 2014 002c A246     		mov	r10, r4
 2015 002e AB46     		mov	fp, r5
 2016 0030 F0BD     		pop	{r4, r5, r6, r7, pc}
 2017              	.LVL134:
 2018              	.L230:
  58:BTD.c         **** #ifdef EXTRADEBUG
 2019              		.loc 5 58 0
 2020 0032 E36C     		ldr	r3, [r4, #76]
  70:BTD.c         ****         if(!p) {
 2021              		.loc 5 70 0
 2022 0034 0021     		movs	r1, #0
  58:BTD.c         **** #ifdef EXTRADEBUG
 2023              		.loc 5 58 0
 2024 0036 9B46     		mov	fp, r3
  70:BTD.c         ****         if(!p) {
 2025              		.loc 5 70 0
 2026 0038 1B68     		ldr	r3, [r3]
 2027 003a 5846     		mov	r0, fp
 2028 003c 1B68     		ldr	r3, [r3]
 2029 003e 9847     		blx	r3
 2030              	.LVL135:
 2031 0040 061E     		subs	r6, r0, #0
 2032              	.LVL136:
  71:BTD.c         **** #ifdef DEBUG_USB_HOST
 2033              		.loc 5 71 0
 2034 0042 58D0     		beq	.L224
  78:BTD.c         **** #ifdef DEBUG_USB_HOST
 2035              		.loc 5 78 0
 2036 0044 4378     		ldrb	r3, [r0, #1]
 2037 0046 0178     		ldrb	r1, [r0]
 2038 0048 8778     		ldrb	r7, [r0, #2]
 2039 004a 1B02     		lsls	r3, r3, #8
 2040 004c 0B43     		orrs	r3, r1
 2041 004e 3F04     		lsls	r7, r7, #16
 2042 0050 1A00     		movs	r2, r3
 2043 0052 3B00     		movs	r3, r7
 2044 0054 C778     		ldrb	r7, [r0, #3]
 2045 0056 1343     		orrs	r3, r2
 2046 0058 3F06     		lsls	r7, r7, #24
 2047 005a 1F43     		orrs	r7, r3
  82:BTD.c         ****         }
 2048              		.loc 5 82 0
 2049 005c D720     		movs	r0, #215
 2050              	.LVL137:
  78:BTD.c         **** #ifdef DEBUG_USB_HOST
 2051              		.loc 5 78 0
 2052 005e 002F     		cmp	r7, #0
 2053 0060 E0D0     		beq	.L219
 2054              	.LVL138:
  86:BTD.c         ****         p->lowspeed = lowspeed;
 2055              		.loc 5 86 0
 2056 0062 2300     		movs	r3, r4
ARM GAS  C:\Users\jrdia\AppData\Local\Temp\ccxPPVVw.s 			page 60


 2057 0064 5133     		adds	r3, r3, #81
 2058 0066 1A0A     		lsrs	r2, r3, #8
 2059 0068 3370     		strb	r3, [r6]
 2060 006a 7270     		strb	r2, [r6, #1]
 2061 006c 1A0C     		lsrs	r2, r3, #16
 2062 006e 1B0E     		lsrs	r3, r3, #24
 2063 0070 F370     		strb	r3, [r6, #3]
  87:BTD.c         ****         rcode = pUsb->getDevDescr(0, 0, constBufSize, (uint8_t*)buf); // Get device descriptor - ad
 2064              		.loc 5 87 0
 2065 0072 4346     		mov	r3, r8
 2066 0074 B371     		strb	r3, [r6, #6]
  88:BTD.c         **** 
 2067              		.loc 5 88 0
 2068 0076 03AB     		add	r3, sp, #12
 2069              	.LVL139:
  86:BTD.c         ****         p->lowspeed = lowspeed;
 2070              		.loc 5 86 0
 2071 0078 B270     		strb	r2, [r6, #2]
  88:BTD.c         **** 
 2072              		.loc 5 88 0
 2073 007a 0021     		movs	r1, #0
 2074 007c 0093     		str	r3, [sp]
 2075 007e 0022     		movs	r2, #0
 2076 0080 1223     		movs	r3, #18
 2077              	.LVL140:
 2078 0082 E06C     		ldr	r0, [r4, #76]
 2079 0084 FFF7FEFF 		bl	_ZN3USB11getDevDescrEhhtPh
 2080              	.LVL141:
  90:BTD.c         **** 
 2081              		.loc 5 90 0
 2082 0088 3B0A     		lsrs	r3, r7, #8
 2083 008a 3770     		strb	r7, [r6]
 2084 008c 7370     		strb	r3, [r6, #1]
 2085 008e 3B0C     		lsrs	r3, r7, #16
 2086 0090 3F0E     		lsrs	r7, r7, #24
 2087              	.LVL142:
  88:BTD.c         **** 
 2088              		.loc 5 88 0
 2089 0092 8046     		mov	r8, r0
 2090              	.LVL143:
  90:BTD.c         **** 
 2091              		.loc 5 90 0
 2092 0094 B370     		strb	r3, [r6, #2]
 2093 0096 F770     		strb	r7, [r6, #3]
  92:BTD.c         ****                 goto FailGetDevDescr;
 2094              		.loc 5 92 0
 2095 0098 0028     		cmp	r0, #0
 2096 009a 09D0     		beq	.L231
 2097              	.L220:
 128:BTD.c         ****                 rcode = USB_ERROR_FailGetDevDescr;
 2098              		.loc 5 128 0
 2099 009c 0D28     		cmp	r0, #13
 2100 009e 01D0     		beq	.L222
 129:BTD.c         ****         Release();
 2101              		.loc 5 129 0
 2102 00a0 E123     		movs	r3, #225
 2103 00a2 9846     		mov	r8, r3
ARM GAS  C:\Users\jrdia\AppData\Local\Temp\ccxPPVVw.s 			page 61


 2104              	.L222:
 2105              	.LVL144:
 130:BTD.c         ****         return rcode;
 2106              		.loc 5 130 0
 2107 00a4 2368     		ldr	r3, [r4]
 2108 00a6 2000     		movs	r0, r4
 2109 00a8 9B68     		ldr	r3, [r3, #8]
 2110 00aa 9847     		blx	r3
 2111              	.LVL145:
 131:BTD.c         **** };
 2112              		.loc 5 131 0
 2113 00ac 4046     		mov	r0, r8
 2114 00ae B9E7     		b	.L219
 2115              	.LVL146:
 2116              	.L231:
  95:BTD.c         **** 
 2117              		.loc 5 95 0
 2118 00b0 5B46     		mov	r3, fp
 2119 00b2 1B68     		ldr	r3, [r3]
 2120 00b4 4946     		mov	r1, r9
 2121 00b6 5E68     		ldr	r6, [r3, #4]
 2122              	.LVL147:
 2123 00b8 0022     		movs	r2, #0
 2124 00ba 5346     		mov	r3, r10
 2125 00bc 5846     		mov	r0, fp
 2126              	.LVL148:
 2127 00be B047     		blx	r6
 2128              	.LVL149:
 2129 00c0 0100     		movs	r1, r0
 2130 00c2 6055     		strb	r0, [r4, r5]
 101:BTD.c         ****         }
 2131              		.loc 5 101 0
 2132 00c4 D420     		movs	r0, #212
  97:BTD.c         **** #ifdef DEBUG_USB_HOST
 2133              		.loc 5 97 0
 2134 00c6 0029     		cmp	r1, #0
 2135 00c8 ACD0     		beq	.L219
 104:BTD.c         ****                 goto FailHub;
 2136              		.loc 5 104 0
 2137 00ca 6B46     		mov	r3, sp
 2138 00cc 1B7C     		ldrb	r3, [r3, #16]
 2139 00ce 092B     		cmp	r3, #9
 2140 00d0 13D0     		beq	.L221
 107:BTD.c         ****         epInfo[1].epAddr = udd->bNumConfigurations; // Steal and abuse from epInfo structure to sav
 2141              		.loc 5 107 0
 2142 00d2 6B46     		mov	r3, sp
 2143 00d4 DA7C     		ldrb	r2, [r3, #19]
 2144 00d6 5223     		movs	r3, #82
 2145 00d8 E254     		strb	r2, [r4, r3]
 108:BTD.c         **** 
 2146              		.loc 5 108 0
 2147 00da 6B46     		mov	r3, sp
 2148 00dc 5A7F     		ldrb	r2, [r3, #29]
 2149 00de 5423     		movs	r3, #84
 2150 00e0 E254     		strb	r2, [r4, r3]
 110:BTD.c         ****         PID = udd->idProduct;
 2151              		.loc 5 110 0
ARM GAS  C:\Users\jrdia\AppData\Local\Temp\ccxPPVVw.s 			page 62


 2152 00e2 6B46     		mov	r3, sp
 2153 00e4 9A8A     		ldrh	r2, [r3, #20]
 2154 00e6 7623     		movs	r3, #118
 2155 00e8 E252     		strh	r2, [r4, r3]
 111:BTD.c         **** 
 2156              		.loc 5 111 0
 2157 00ea 6B46     		mov	r3, sp
 2158 00ec DA8A     		ldrh	r2, [r3, #22]
 2159 00ee 7423     		movs	r3, #116
 113:BTD.c         **** 
 2160              		.loc 5 113 0
 2161 00f0 0C30     		adds	r0, r0, #12
 111:BTD.c         **** 
 2162              		.loc 5 111 0
 2163 00f2 E252     		strh	r2, [r4, r3]
 113:BTD.c         **** 
 2164              		.loc 5 113 0
 2165 00f4 96E7     		b	.L219
 2166              	.LVL150:
 2167              	.L224:
  75:BTD.c         ****         }
 2168              		.loc 5 75 0
 2169 00f6 D620     		movs	r0, #214
 2170              	.LVL151:
 2171 00f8 94E7     		b	.L219
 2172              	.LVL152:
 2173              	.L221:
 119:BTD.c         ****         rcode = USB_DEV_CONFIG_ERROR_DEVICE_NOT_SUPPORTED;
 2174              		.loc 5 119 0
 2175 00fa 0023     		movs	r3, #0
 2176 00fc E06C     		ldr	r0, [r4, #76]
 2177 00fe 1A00     		movs	r2, r3
 2178 0100 FFF7FEFF 		bl	_ZN3USB7setAddrEhhh
 2179              	.LVL153:
 121:BTD.c         ****         return rcode;
 2180              		.loc 5 121 0
 2181 0104 2368     		ldr	r3, [r4]
 2182 0106 2000     		movs	r0, r4
 2183 0108 9B68     		ldr	r3, [r3, #8]
 2184 010a 9847     		blx	r3
 2185              	.LVL154:
 122:BTD.c         **** 
 2186              		.loc 5 122 0
 2187 010c D120     		movs	r0, #209
 2188 010e 89E7     		b	.L219
 2189              		.cfi_endproc
 2190              	.LFE241:
 2191              		.fnend
 2192              		.size	_ZN3BTD15ConfigureDeviceEhhb, .-_ZN3BTD15ConfigureDeviceEhhb
 2193              		.section	.text._ZN3BTD7ReleaseEv,"ax",%progbits
 2194              		.align	2
 2195              		.global	_ZN3BTD7ReleaseEv
 2196              		.code	16
 2197              		.thumb_func
 2198              		.type	_ZN3BTD7ReleaseEv, %function
 2199              	_ZN3BTD7ReleaseEv:
 2200              		.fnstart
ARM GAS  C:\Users\jrdia\AppData\Local\Temp\ccxPPVVw.s 			page 63


 2201              	.LFB246:
 356:BTD.c         **** 
 357:BTD.c         **** void BTD::PrintEndpointDescriptor(const USB_ENDPOINT_DESCRIPTOR* ep_ptr) {
 358:BTD.c         **** #ifdef EXTRADEBUG
 359:BTD.c         ****         Notify(PSTR("\r\nEndpoint descriptor:"), 0x80);
 360:BTD.c         ****         Notify(PSTR("\r\nLength:\t\t"), 0x80);
 361:BTD.c         ****         D_PrintHex<uint8_t > (ep_ptr->bLength, 0x80);
 362:BTD.c         ****         Notify(PSTR("\r\nType:\t\t"), 0x80);
 363:BTD.c         ****         D_PrintHex<uint8_t > (ep_ptr->bDescriptorType, 0x80);
 364:BTD.c         ****         Notify(PSTR("\r\nAddress:\t"), 0x80);
 365:BTD.c         ****         D_PrintHex<uint8_t > (ep_ptr->bEndpointAddress, 0x80);
 366:BTD.c         ****         Notify(PSTR("\r\nAttributes:\t"), 0x80);
 367:BTD.c         ****         D_PrintHex<uint8_t > (ep_ptr->bmAttributes, 0x80);
 368:BTD.c         ****         Notify(PSTR("\r\nMaxPktSize:\t"), 0x80);
 369:BTD.c         ****         D_PrintHex<uint16_t > (ep_ptr->wMaxPacketSize, 0x80);
 370:BTD.c         ****         Notify(PSTR("\r\nPoll Intrv:\t"), 0x80);
 371:BTD.c         ****         D_PrintHex<uint8_t > (ep_ptr->bInterval, 0x80);
 372:BTD.c         **** #endif
 373:BTD.c         **** }
 374:BTD.c         **** 
 375:BTD.c         **** /* Performs a cleanup after failed Init() attempt */
 376:BTD.c         **** uint8_t BTD::Release() {
 2202              		.loc 5 376 0
 2203              		.cfi_startproc
 2204              		@ args = 0, pretend = 0, frame = 0
 2205              		@ frame_needed = 0, uses_anonymous_args = 0
 2206              	.LVL155:
 2207 0000 10B5     		push	{r4, lr}
 2208              		.save {r4, lr}
 2209              		.cfi_def_cfa_offset 8
 2210              		.cfi_offset 4, -8
 2211              		.cfi_offset 14, -4
 2212              		.loc 5 376 0
 2213 0002 0400     		movs	r4, r0
 377:BTD.c         ****         Initialize(); // Set all variables, endpoint structs etc. to default values
 2214              		.loc 5 377 0
 2215 0004 FFF7FEFF 		bl	_ZN3BTD10InitializeEv
 2216              	.LVL156:
 378:BTD.c         ****         pUsb->GetAddressPool().FreeAddress(bAddress);
 2217              		.loc 5 378 0
 2218 0008 5023     		movs	r3, #80
 2219 000a E06C     		ldr	r0, [r4, #76]
 2220 000c E15C     		ldrb	r1, [r4, r3]
 2221 000e 0368     		ldr	r3, [r0]
 379:BTD.c         ****         return 0;
 380:BTD.c         **** }
 2222              		.loc 5 380 0
 2223              		@ sp needed
 378:BTD.c         ****         pUsb->GetAddressPool().FreeAddress(bAddress);
 2224              		.loc 5 378 0
 2225 0010 9B68     		ldr	r3, [r3, #8]
 2226 0012 9847     		blx	r3
 2227              	.LVL157:
 2228              		.loc 5 380 0
 2229 0014 0020     		movs	r0, #0
 2230              	.LVL158:
 2231 0016 10BD     		pop	{r4, pc}
ARM GAS  C:\Users\jrdia\AppData\Local\Temp\ccxPPVVw.s 			page 64


 2232              		.cfi_endproc
 2233              	.LFE246:
 2234              		.fnend
 2235              		.size	_ZN3BTD7ReleaseEv, .-_ZN3BTD7ReleaseEv
 2236              		.section	.text._ZN3BTD23PrintEndpointDescriptorEPK23USB_ENDPOINT_DESCRIPTOR,"ax",%progbits
 2237              		.align	2
 2238              		.global	_ZN3BTD23PrintEndpointDescriptorEPK23USB_ENDPOINT_DESCRIPTOR
 2239              		.code	16
 2240              		.thumb_func
 2241              		.type	_ZN3BTD23PrintEndpointDescriptorEPK23USB_ENDPOINT_DESCRIPTOR, %function
 2242              	_ZN3BTD23PrintEndpointDescriptorEPK23USB_ENDPOINT_DESCRIPTOR:
 2243              		.fnstart
 2244              	.LFB245:
 357:BTD.c         **** #ifdef EXTRADEBUG
 2245              		.loc 5 357 0
 2246              		.cfi_startproc
 2247              		@ args = 0, pretend = 0, frame = 0
 2248              		@ frame_needed = 0, uses_anonymous_args = 0
 2249              		@ link register save eliminated.
 2250              	.LVL159:
 373:BTD.c         **** 
 2251              		.loc 5 373 0
 2252              		@ sp needed
 2253 0000 7047     		bx	lr
 2254              		.cfi_endproc
 2255              	.LFE245:
 2256              		.cantunwind
 2257              		.fnend
 2258              		.size	_ZN3BTD23PrintEndpointDescriptorEPK23USB_ENDPOINT_DESCRIPTOR, .-_ZN3BTD23PrintEndpointDescri
 2259 0002 C046     		.section	.text._ZN3BTD10disconnectEv,"ax",%progbits
 2260              		.align	2
 2261              		.global	_ZN3BTD10disconnectEv
 2262              		.code	16
 2263              		.thumb_func
 2264              		.type	_ZN3BTD10disconnectEv, %function
 2265              	_ZN3BTD10disconnectEv:
 2266              		.fnstart
 2267              	.LFB248:
 381:BTD.c         **** 
 382:BTD.c         **** uint8_t BTD::Poll() {
 383:BTD.c         ****         if(!bPollEnable)
 384:BTD.c         ****                 return 0;
 385:BTD.c         ****         if((int32_t)((uint32_t)millis() - qNextPollTime) >= 0L) { // Don't poll if shorter than pol
 386:BTD.c         ****                 qNextPollTime = (uint32_t)millis() + pollInterval; // Set new poll time
 387:BTD.c         ****                 HCI_event_task(); // Poll the HCI event pipe
 388:BTD.c         ****                 HCI_task(); // HCI state machine
 389:BTD.c         ****                 ACL_event_task(); // Poll the ACL input pipe too
 390:BTD.c         ****         }
 391:BTD.c         ****         return 0;
 392:BTD.c         **** }
 393:BTD.c         **** 
 394:BTD.c         **** void BTD::disconnect() {
 2268              		.loc 5 394 0
 2269              		.cfi_startproc
 2270              		@ args = 0, pretend = 0, frame = 0
 2271              		@ frame_needed = 0, uses_anonymous_args = 0
 2272              	.LVL160:
ARM GAS  C:\Users\jrdia\AppData\Local\Temp\ccxPPVVw.s 			page 65


 2273 0000 70B5     		push	{r4, r5, r6, lr}
 2274              		.save {r4, r5, r6, lr}
 2275              		.cfi_def_cfa_offset 16
 2276              		.cfi_offset 4, -16
 2277              		.cfi_offset 5, -12
 2278              		.cfi_offset 6, -8
 2279              		.cfi_offset 14, -4
 2280 0002 0400     		movs	r4, r0
 2281 0004 7430     		adds	r0, r0, #116
 2282              	.LVL161:
 2283 0006 0500     		movs	r5, r0
 2284 0008 6434     		adds	r4, r4, #100
 2285              	.LVL162:
 2286              	.L236:
 2287              	.LBB234:
 395:BTD.c         ****         for(uint8_t i = 0; i < BTD_NUM_SERVICES; i++)
 396:BTD.c         ****                 if(btService[i])
 2288              		.loc 5 396 0
 2289 000a 2068     		ldr	r0, [r4]
 2290 000c 0028     		cmp	r0, #0
 2291 000e 02D0     		beq	.L235
 397:BTD.c         ****                         btService[i]->disconnect();
 2292              		.loc 5 397 0
 2293 0010 0368     		ldr	r3, [r0]
 2294 0012 DB68     		ldr	r3, [r3, #12]
 2295 0014 9847     		blx	r3
 2296              	.LVL163:
 2297              	.L235:
 2298 0016 0434     		adds	r4, r4, #4
 395:BTD.c         ****         for(uint8_t i = 0; i < BTD_NUM_SERVICES; i++)
 2299              		.loc 5 395 0 discriminator 2
 2300 0018 AC42     		cmp	r4, r5
 2301 001a F6D1     		bne	.L236
 2302              	.LBE234:
 398:BTD.c         **** };
 2303              		.loc 5 398 0
 2304              		@ sp needed
 2305              	.LVL164:
 2306 001c 70BD     		pop	{r4, r5, r6, pc}
 2307              		.cfi_endproc
 2308              	.LFE248:
 2309              		.fnend
 2310              		.size	_ZN3BTD10disconnectEv, .-_ZN3BTD10disconnectEv
 2311 001e C046     		.section	.text._ZN3BTD14ACL_event_taskEv,"ax",%progbits
 2312              		.align	2
 2313              		.global	_ZN3BTD14ACL_event_taskEv
 2314              		.code	16
 2315              		.thumb_func
 2316              		.type	_ZN3BTD14ACL_event_taskEv, %function
 2317              	_ZN3BTD14ACL_event_taskEv:
 2318              		.fnstart
 2319              	.LFB251:
 399:BTD.c         **** 
 400:BTD.c         **** void BTD::HCI_event_task() {
 401:BTD.c         ****         uint16_t length = BULK_MAXPKTSIZE; // Request more than 16 bytes anyway, the inTransfer rou
 402:BTD.c         ****         uint8_t rcode = pUsb->inTransfer(bAddress, epInfo[ BTD_EVENT_PIPE ].epAddr, &length, hcibuf
 403:BTD.c         **** 
ARM GAS  C:\Users\jrdia\AppData\Local\Temp\ccxPPVVw.s 			page 66


 404:BTD.c         ****         if(!rcode || rcode == hrNAK) { // Check for errors
 405:BTD.c         ****                 switch(hcibuf[0]) { // Switch on event type
 406:BTD.c         ****                         case EV_COMMAND_COMPLETE:
 407:BTD.c         ****                                 if(!hcibuf[5]) { // Check if command succeeded
 408:BTD.c         ****                                         hci_set_flag(HCI_FLAG_CMD_COMPLETE); // Set command complet
 409:BTD.c         ****                                         if((hcibuf[3] == 0x01) && (hcibuf[4] == 0x10)) { // Paramet
 410:BTD.c         ****                                                 hci_version = hcibuf[6]; // Used to check if it sup
 411:BTD.c         ****                                                 hci_set_flag(HCI_FLAG_READ_VERSION);
 412:BTD.c         ****                                         } else if((hcibuf[3] == 0x09) && (hcibuf[4] == 0x10)) { // 
 413:BTD.c         ****                                                 for(uint8_t i = 0; i < 6; i++)
 414:BTD.c         ****                                                         my_bdaddr[i] = hcibuf[6 + i];
 415:BTD.c         ****                                                 hci_set_flag(HCI_FLAG_READ_BDADDR);
 416:BTD.c         ****                                         }
 417:BTD.c         ****                                 }
 418:BTD.c         ****                                 break;
 419:BTD.c         **** 
 420:BTD.c         ****                         case EV_COMMAND_STATUS:
 421:BTD.c         ****                                 if(hcibuf[2]) { // Show status on serial if not OK
 422:BTD.c         **** #ifdef DEBUG_USB_HOST
 423:BTD.c         ****                                         Notify(PSTR("\r\nHCI Command Failed: "), 0x80);
 424:BTD.c         ****                                         D_PrintHex<uint8_t > (hcibuf[2], 0x80);
 425:BTD.c         **** #endif
 426:BTD.c         ****                                 }
 427:BTD.c         ****                                 break;
 428:BTD.c         **** 
 429:BTD.c         ****                         case EV_INQUIRY_COMPLETE:
 430:BTD.c         ****                                 if(inquiry_counter >= 5 && (pairWithWii || pairWithHIDDevice)) {
 431:BTD.c         ****                                         inquiry_counter = 0;
 432:BTD.c         **** #ifdef DEBUG_USB_HOST
 433:BTD.c         ****                                         if(pairWithWii)
 434:BTD.c         ****                                                 Notify(PSTR("\r\nCouldn't find Wiimote"), 0x80);
 435:BTD.c         ****                                         else
 436:BTD.c         ****                                                 Notify(PSTR("\r\nCouldn't find HID device"), 0x80);
 437:BTD.c         **** #endif
 438:BTD.c         ****                                         connectToWii = false;
 439:BTD.c         ****                                         pairWithWii = false;
 440:BTD.c         ****                                         connectToHIDDevice = false;
 441:BTD.c         ****                                         pairWithHIDDevice = false;
 442:BTD.c         ****                                         hci_state = HCI_SCANNING_STATE;
 443:BTD.c         ****                                 }
 444:BTD.c         ****                                 inquiry_counter++;
 445:BTD.c         ****                                 break;
 446:BTD.c         **** 
 447:BTD.c         ****                         case EV_INQUIRY_RESULT:
 448:BTD.c         ****                                 if(hcibuf[2]) { // Check that there is more than zero responses
 449:BTD.c         **** #ifdef EXTRADEBUG
 450:BTD.c         ****                                         Notify(PSTR("\r\nNumber of responses: "), 0x80);
 451:BTD.c         ****                                         Notify(hcibuf[2], 0x80);
 452:BTD.c         **** #endif
 453:BTD.c         ****                                         for(uint8_t i = 0; i < hcibuf[2]; i++) {
 454:BTD.c         ****                                                 uint8_t offset = 8 * hcibuf[2] + 3 * i;
 455:BTD.c         **** 
 456:BTD.c         ****                                                 for(uint8_t j = 0; j < 3; j++)
 457:BTD.c         ****                                                         classOfDevice[j] = hcibuf[j + 4 + offset];
 458:BTD.c         **** 
 459:BTD.c         **** #ifdef EXTRADEBUG
 460:BTD.c         ****                                                 Notify(PSTR("\r\nClass of device: "), 0x80);
ARM GAS  C:\Users\jrdia\AppData\Local\Temp\ccxPPVVw.s 			page 67


 461:BTD.c         ****                                                 D_PrintHex<uint8_t > (classOfDevice[2], 0x80);
 462:BTD.c         ****                                                 Notify(PSTR(" "), 0x80);
 463:BTD.c         ****                                                 D_PrintHex<uint8_t > (classOfDevice[1], 0x80);
 464:BTD.c         ****                                                 Notify(PSTR(" "), 0x80);
 465:BTD.c         ****                                                 D_PrintHex<uint8_t > (classOfDevice[0], 0x80);
 466:BTD.c         **** #endif
 467:BTD.c         **** 
 468:BTD.c         ****                                                 if(pairWithWii && classOfDevice[2] == 0x00 && (clas
 469:BTD.c         ****                                                         checkRemoteName = true; // Check remote nam
 470:BTD.c         **** 
 471:BTD.c         ****                                                         for(uint8_t j = 0; j < 6; j++)
 472:BTD.c         ****                                                                 disc_bdaddr[j] = hcibuf[j + 3 + 6 *
 473:BTD.c         **** 
 474:BTD.c         ****                                                         hci_set_flag(HCI_FLAG_DEVICE_FOUND);
 475:BTD.c         ****                                                         break;
 476:BTD.c         ****                                                 } else if(pairWithHIDDevice && (classOfDevice[1] & 
 477:BTD.c         **** #ifdef DEBUG_USB_HOST
 478:BTD.c         ****                                                         if(classOfDevice[0] & 0x80)
 479:BTD.c         ****                                                                 Notify(PSTR("\r\nMouse found"), 0x8
 480:BTD.c         ****                                                         if(classOfDevice[0] & 0x40)
 481:BTD.c         ****                                                                 Notify(PSTR("\r\nKeyboard found"), 
 482:BTD.c         ****                                                         if(classOfDevice[0] & 0x08)
 483:BTD.c         ****                                                                 Notify(PSTR("\r\nGamepad found"), 0
 484:BTD.c         **** #endif
 485:BTD.c         **** 
 486:BTD.c         ****                                                         for(uint8_t j = 0; j < 6; j++)
 487:BTD.c         ****                                                                 disc_bdaddr[j] = hcibuf[j + 3 + 6 *
 488:BTD.c         **** 
 489:BTD.c         ****                                                         hci_set_flag(HCI_FLAG_DEVICE_FOUND);
 490:BTD.c         ****                                                         break;
 491:BTD.c         ****                                                 }
 492:BTD.c         ****                                         }
 493:BTD.c         ****                                 }
 494:BTD.c         ****                                 break;
 495:BTD.c         **** 
 496:BTD.c         ****                         case EV_CONNECT_COMPLETE:
 497:BTD.c         ****                                 hci_set_flag(HCI_FLAG_CONNECT_EVENT);
 498:BTD.c         ****                                 if(!hcibuf[2]) { // Check if connected OK
 499:BTD.c         **** #ifdef EXTRADEBUG
 500:BTD.c         ****                                         Notify(PSTR("\r\nConnection established"), 0x80);
 501:BTD.c         **** #endif
 502:BTD.c         ****                                         hci_handle = hcibuf[3] | ((hcibuf[4] & 0x0F) << 8); // Stor
 503:BTD.c         ****                                         hci_set_flag(HCI_FLAG_CONNECT_COMPLETE); // Set connection 
 504:BTD.c         ****                                 } else {
 505:BTD.c         ****                                         hci_state = HCI_CHECK_DEVICE_SERVICE;
 506:BTD.c         **** #ifdef DEBUG_USB_HOST
 507:BTD.c         ****                                         Notify(PSTR("\r\nConnection Failed: "), 0x80);
 508:BTD.c         ****                                         D_PrintHex<uint8_t > (hcibuf[2], 0x80);
 509:BTD.c         **** #endif
 510:BTD.c         ****                                 }
 511:BTD.c         ****                                 break;
 512:BTD.c         **** 
 513:BTD.c         ****                         case EV_DISCONNECT_COMPLETE:
 514:BTD.c         ****                                 if(!hcibuf[2]) { // Check if disconnected OK
 515:BTD.c         ****                                         hci_set_flag(HCI_FLAG_DISCONNECT_COMPLETE); // Set disconne
 516:BTD.c         ****                                         hci_clear_flag(HCI_FLAG_CONNECT_COMPLETE); // Clear connect
 517:BTD.c         ****                                 }
ARM GAS  C:\Users\jrdia\AppData\Local\Temp\ccxPPVVw.s 			page 68


 518:BTD.c         ****                                 break;
 519:BTD.c         **** 
 520:BTD.c         ****                         case EV_REMOTE_NAME_COMPLETE:
 521:BTD.c         ****                                 if(!hcibuf[2]) { // Check if reading is OK
 522:BTD.c         ****                                         for(uint8_t i = 0; i < min(sizeof (remote_name), sizeof (hc
 523:BTD.c         ****                                                 remote_name[i] = hcibuf[9 + i];
 524:BTD.c         ****                                                 if(remote_name[i] == '\0') // End of string
 525:BTD.c         ****                                                         break;
 526:BTD.c         ****                                         }
 527:BTD.c         ****                                         // TODO: Altid st '\0' i remote name!
 528:BTD.c         ****                                         hci_set_flag(HCI_FLAG_REMOTE_NAME_COMPLETE);
 529:BTD.c         ****                                 }
 530:BTD.c         ****                                 break;
 531:BTD.c         **** 
 532:BTD.c         ****                         case EV_INCOMING_CONNECT:
 533:BTD.c         ****                                 for(uint8_t i = 0; i < 6; i++)
 534:BTD.c         ****                                         disc_bdaddr[i] = hcibuf[i + 2];
 535:BTD.c         **** 
 536:BTD.c         ****                                 for(uint8_t i = 0; i < 3; i++)
 537:BTD.c         ****                                         classOfDevice[i] = hcibuf[i + 8];
 538:BTD.c         **** 
 539:BTD.c         ****                                 if((classOfDevice[1] & 0x05) && (classOfDevice[0] & 0xC8)) { // Che
 540:BTD.c         **** #ifdef DEBUG_USB_HOST
 541:BTD.c         ****                                         if(classOfDevice[0] & 0x80)
 542:BTD.c         ****                                                 Notify(PSTR("\r\nMouse is connecting"), 0x80);
 543:BTD.c         ****                                         if(classOfDevice[0] & 0x40)
 544:BTD.c         ****                                                 Notify(PSTR("\r\nKeyboard is connecting"), 0x80);
 545:BTD.c         ****                                         if(classOfDevice[0] & 0x08)
 546:BTD.c         ****                                                 Notify(PSTR("\r\nGamepad is connecting"), 0x80);
 547:BTD.c         **** #endif
 548:BTD.c         ****                                         incomingHIDDevice = true;
 549:BTD.c         ****                                 }
 550:BTD.c         **** 
 551:BTD.c         **** #ifdef EXTRADEBUG
 552:BTD.c         ****                                 Notify(PSTR("\r\nClass of device: "), 0x80);
 553:BTD.c         ****                                 D_PrintHex<uint8_t > (classOfDevice[2], 0x80);
 554:BTD.c         ****                                 Notify(PSTR(" "), 0x80);
 555:BTD.c         ****                                 D_PrintHex<uint8_t > (classOfDevice[1], 0x80);
 556:BTD.c         ****                                 Notify(PSTR(" "), 0x80);
 557:BTD.c         ****                                 D_PrintHex<uint8_t > (classOfDevice[0], 0x80);
 558:BTD.c         **** #endif
 559:BTD.c         ****                                 hci_set_flag(HCI_FLAG_INCOMING_REQUEST);
 560:BTD.c         ****                                 break;
 561:BTD.c         **** 
 562:BTD.c         ****                         case EV_PIN_CODE_REQUEST:
 563:BTD.c         ****                                 if(pairWithWii) {
 564:BTD.c         **** #ifdef DEBUG_USB_HOST
 565:BTD.c         ****                                         Notify(PSTR("\r\nPairing with Wiimote"), 0x80);
 566:BTD.c         **** #endif
 567:BTD.c         ****                                         hci_pin_code_request_reply();
 568:BTD.c         ****                                 } else if(btdPin != NULL) {
 569:BTD.c         **** #ifdef DEBUG_USB_HOST
 570:BTD.c         ****                                         Notify(PSTR("\r\nBluetooth pin is set too: "), 0x80);
 571:BTD.c         ****                                         NotifyStr(btdPin, 0x80);
 572:BTD.c         **** #endif
 573:BTD.c         ****                                         hci_pin_code_request_reply();
 574:BTD.c         ****                                 } else {
ARM GAS  C:\Users\jrdia\AppData\Local\Temp\ccxPPVVw.s 			page 69


 575:BTD.c         **** #ifdef DEBUG_USB_HOST
 576:BTD.c         ****                                         Notify(PSTR("\r\nNo pin was set"), 0x80);
 577:BTD.c         **** #endif
 578:BTD.c         ****                                         hci_pin_code_negative_request_reply();
 579:BTD.c         ****                                 }
 580:BTD.c         ****                                 break;
 581:BTD.c         **** 
 582:BTD.c         ****                         case EV_LINK_KEY_REQUEST:
 583:BTD.c         **** #ifdef DEBUG_USB_HOST
 584:BTD.c         ****                                 Notify(PSTR("\r\nReceived Key Request"), 0x80);
 585:BTD.c         **** #endif
 586:BTD.c         ****                                 hci_link_key_request_negative_reply();
 587:BTD.c         ****                                 break;
 588:BTD.c         **** 
 589:BTD.c         ****                         case EV_AUTHENTICATION_COMPLETE:
 590:BTD.c         ****                                 if(!hcibuf[2]) { // Check if pairing was successful
 591:BTD.c         ****                                         if(pairWithWii && !connectToWii) {
 592:BTD.c         **** #ifdef DEBUG_USB_HOST
 593:BTD.c         ****                                                 Notify(PSTR("\r\nPairing successful with Wiimote"),
 594:BTD.c         **** #endif
 595:BTD.c         ****                                                 connectToWii = true; // Used to indicate to the Wii
 596:BTD.c         ****                                         } else if(pairWithHIDDevice && !connectToHIDDevice) {
 597:BTD.c         **** #ifdef DEBUG_USB_HOST
 598:BTD.c         ****                                                 Notify(PSTR("\r\nPairing successful with HID device
 599:BTD.c         **** #endif
 600:BTD.c         ****                                                 connectToHIDDevice = true; // Used to indicate to t
 601:BTD.c         ****                                         }
 602:BTD.c         ****                                 } else {
 603:BTD.c         **** #ifdef DEBUG_USB_HOST
 604:BTD.c         ****                                         Notify(PSTR("\r\nPairing Failed: "), 0x80);
 605:BTD.c         ****                                         D_PrintHex<uint8_t > (hcibuf[2], 0x80);
 606:BTD.c         **** #endif
 607:BTD.c         ****                                         hci_disconnect(hci_handle);
 608:BTD.c         ****                                         hci_state = HCI_DISCONNECT_STATE;
 609:BTD.c         ****                                 }
 610:BTD.c         ****                                 break;
 611:BTD.c         ****                                 /* We will just ignore the following events */
 612:BTD.c         ****                         case EV_NUM_COMPLETE_PKT:
 613:BTD.c         ****                         case EV_ROLE_CHANGED:
 614:BTD.c         ****                         case EV_PAGE_SCAN_REP_MODE:
 615:BTD.c         ****                         case EV_LOOPBACK_COMMAND:
 616:BTD.c         ****                         case EV_DATA_BUFFER_OVERFLOW:
 617:BTD.c         ****                         case EV_CHANGE_CONNECTION_LINK:
 618:BTD.c         ****                         case EV_MAX_SLOTS_CHANGE:
 619:BTD.c         ****                         case EV_QOS_SETUP_COMPLETE:
 620:BTD.c         ****                         case EV_LINK_KEY_NOTIFICATION:
 621:BTD.c         ****                         case EV_ENCRYPTION_CHANGE:
 622:BTD.c         ****                         case EV_READ_REMOTE_VERSION_INFORMATION_COMPLETE:
 623:BTD.c         ****                                 break;
 624:BTD.c         **** #ifdef EXTRADEBUG
 625:BTD.c         ****                         default:
 626:BTD.c         ****                                 if(hcibuf[0] != 0x00) {
 627:BTD.c         ****                                         Notify(PSTR("\r\nUnmanaged HCI Event: "), 0x80);
 628:BTD.c         ****                                         D_PrintHex<uint8_t > (hcibuf[0], 0x80);
 629:BTD.c         ****                                 }
 630:BTD.c         ****                                 break;
 631:BTD.c         **** #endif
ARM GAS  C:\Users\jrdia\AppData\Local\Temp\ccxPPVVw.s 			page 70


 632:BTD.c         ****                 } // Switch
 633:BTD.c         ****         }
 634:BTD.c         **** #ifdef EXTRADEBUG
 635:BTD.c         ****         else {
 636:BTD.c         ****                 Notify(PSTR("\r\nHCI event error: "), 0x80);
 637:BTD.c         ****                 D_PrintHex<uint8_t > (rcode, 0x80);
 638:BTD.c         ****         }
 639:BTD.c         **** #endif
 640:BTD.c         **** }
 641:BTD.c         **** 
 642:BTD.c         **** /* Poll Bluetooth and print result */
 643:BTD.c         **** void BTD::HCI_task() {
 644:BTD.c         ****         switch(hci_state) {
 645:BTD.c         ****                 case HCI_INIT_STATE:
 646:BTD.c         ****                         hci_counter++;
 647:BTD.c         ****                         if(hci_counter > hci_num_reset_loops) { // wait until we have looped x time
 648:BTD.c         ****                                 hci_reset();
 649:BTD.c         ****                                 hci_state = HCI_RESET_STATE;
 650:BTD.c         ****                                 hci_counter = 0;
 651:BTD.c         ****                         }
 652:BTD.c         ****                         break;
 653:BTD.c         **** 
 654:BTD.c         ****                 case HCI_RESET_STATE:
 655:BTD.c         ****                         hci_counter++;
 656:BTD.c         ****                         if(hci_check_flag(HCI_FLAG_CMD_COMPLETE)) {
 657:BTD.c         ****                                 hci_counter = 0;
 658:BTD.c         **** #ifdef DEBUG_USB_HOST
 659:BTD.c         ****                                 Notify(PSTR("\r\nHCI Reset complete"), 0x80);
 660:BTD.c         **** #endif
 661:BTD.c         ****                                 hci_state = HCI_CLASS_STATE;
 662:BTD.c         ****                                 hci_write_class_of_device();
 663:BTD.c         ****                         } else if(hci_counter > hci_num_reset_loops) {
 664:BTD.c         ****                                 hci_num_reset_loops *= 10;
 665:BTD.c         ****                                 if(hci_num_reset_loops > 2000)
 666:BTD.c         ****                                         hci_num_reset_loops = 2000;
 667:BTD.c         **** #ifdef DEBUG_USB_HOST
 668:BTD.c         ****                                 Notify(PSTR("\r\nNo response to HCI Reset"), 0x80);
 669:BTD.c         **** #endif
 670:BTD.c         ****                                 hci_state = HCI_INIT_STATE;
 671:BTD.c         ****                                 hci_counter = 0;
 672:BTD.c         ****                         }
 673:BTD.c         ****                         break;
 674:BTD.c         **** 
 675:BTD.c         ****                 case HCI_CLASS_STATE:
 676:BTD.c         ****                         if(hci_check_flag(HCI_FLAG_CMD_COMPLETE)) {
 677:BTD.c         **** #ifdef DEBUG_USB_HOST
 678:BTD.c         ****                                 Notify(PSTR("\r\nWrite class of device"), 0x80);
 679:BTD.c         **** #endif
 680:BTD.c         ****                                 hci_state = HCI_BDADDR_STATE;
 681:BTD.c         ****                                 hci_read_bdaddr();
 682:BTD.c         ****                         }
 683:BTD.c         ****                         break;
 684:BTD.c         **** 
 685:BTD.c         ****                 case HCI_BDADDR_STATE:
 686:BTD.c         ****                         if(hci_check_flag(HCI_FLAG_READ_BDADDR)) {
 687:BTD.c         **** #ifdef DEBUG_USB_HOST
 688:BTD.c         ****                                 Notify(PSTR("\r\nLocal Bluetooth Address: "), 0x80);
ARM GAS  C:\Users\jrdia\AppData\Local\Temp\ccxPPVVw.s 			page 71


 689:BTD.c         ****                                 for(int8_t i = 5; i > 0; i--) {
 690:BTD.c         ****                                         D_PrintHex<uint8_t > (my_bdaddr[i], 0x80);
 691:BTD.c         ****                                         Notify(PSTR(":"), 0x80);
 692:BTD.c         ****                                 }
 693:BTD.c         ****                                 D_PrintHex<uint8_t > (my_bdaddr[0], 0x80);
 694:BTD.c         **** #endif
 695:BTD.c         ****                                 hci_read_local_version_information();
 696:BTD.c         ****                                 hci_state = HCI_LOCAL_VERSION_STATE;
 697:BTD.c         ****                         }
 698:BTD.c         ****                         break;
 699:BTD.c         **** 
 700:BTD.c         ****                 case HCI_LOCAL_VERSION_STATE: // The local version is used by the PS3BT class
 701:BTD.c         ****                         if(hci_check_flag(HCI_FLAG_READ_VERSION)) {
 702:BTD.c         ****                                 if(btdName != NULL) {
 703:BTD.c         ****                                         hci_set_local_name(btdName);
 704:BTD.c         ****                                         hci_state = HCI_SET_NAME_STATE;
 705:BTD.c         ****                                 } else
 706:BTD.c         ****                                         hci_state = HCI_CHECK_DEVICE_SERVICE;
 707:BTD.c         ****                         }
 708:BTD.c         ****                         break;
 709:BTD.c         **** 
 710:BTD.c         ****                 case HCI_SET_NAME_STATE:
 711:BTD.c         ****                         if(hci_check_flag(HCI_FLAG_CMD_COMPLETE)) {
 712:BTD.c         **** #ifdef DEBUG_USB_HOST
 713:BTD.c         ****                                 Notify(PSTR("\r\nThe name is set to: "), 0x80);
 714:BTD.c         ****                                 NotifyStr(btdName, 0x80);
 715:BTD.c         **** #endif
 716:BTD.c         ****                                 hci_state = HCI_CHECK_DEVICE_SERVICE;
 717:BTD.c         ****                         }
 718:BTD.c         ****                         break;
 719:BTD.c         **** 
 720:BTD.c         ****                 case HCI_CHECK_DEVICE_SERVICE:
 721:BTD.c         ****                         if(pairWithHIDDevice || pairWithWii) { // Check if it should try to connect
 722:BTD.c         **** #ifdef DEBUG_USB_HOST
 723:BTD.c         ****                                 if(pairWithWii)
 724:BTD.c         ****                                         Notify(PSTR("\r\nStarting inquiry\r\nPress 1 & 2 on the Wii
 725:BTD.c         ****                                 else
 726:BTD.c         ****                                         Notify(PSTR("\r\nPlease enable discovery of your device"), 
 727:BTD.c         **** #endif
 728:BTD.c         ****                                 hci_inquiry();
 729:BTD.c         ****                                 hci_state = HCI_INQUIRY_STATE;
 730:BTD.c         ****                         } else
 731:BTD.c         ****                                 hci_state = HCI_SCANNING_STATE; // Don't try to connect to a Wiimot
 732:BTD.c         ****                         break;
 733:BTD.c         **** 
 734:BTD.c         ****                 case HCI_INQUIRY_STATE:
 735:BTD.c         ****                         if(hci_check_flag(HCI_FLAG_DEVICE_FOUND)) {
 736:BTD.c         ****                                 hci_inquiry_cancel(); // Stop inquiry
 737:BTD.c         **** #ifdef DEBUG_USB_HOST
 738:BTD.c         ****                                 if(pairWithWii)
 739:BTD.c         ****                                         Notify(PSTR("\r\nWiimote found"), 0x80);
 740:BTD.c         ****                                 else
 741:BTD.c         ****                                         Notify(PSTR("\r\nHID device found"), 0x80);
 742:BTD.c         **** 
 743:BTD.c         ****                                 Notify(PSTR("\r\nNow just create the instance like so:"), 0x80);
 744:BTD.c         ****                                 if(pairWithWii)
 745:BTD.c         ****                                         Notify(PSTR("\r\nWII Wii(&Btd);"), 0x80);
ARM GAS  C:\Users\jrdia\AppData\Local\Temp\ccxPPVVw.s 			page 72


 746:BTD.c         ****                                 else
 747:BTD.c         ****                                         Notify(PSTR("\r\nBTHID bthid(&Btd);"), 0x80);
 748:BTD.c         **** 
 749:BTD.c         ****                                 Notify(PSTR("\r\nAnd then press any button on the "), 0x80);
 750:BTD.c         ****                                 if(pairWithWii)
 751:BTD.c         ****                                         Notify(PSTR("Wiimote"), 0x80);
 752:BTD.c         ****                                 else
 753:BTD.c         ****                                         Notify(PSTR("device"), 0x80);
 754:BTD.c         **** #endif
 755:BTD.c         ****                                 if(checkRemoteName) {
 756:BTD.c         ****                                         hci_remote_name(); // We need to know the name to distingui
 757:BTD.c         ****                                         hci_state = HCI_REMOTE_NAME_STATE;
 758:BTD.c         ****                                 } else
 759:BTD.c         ****                                         hci_state = HCI_CONNECT_DEVICE_STATE;
 760:BTD.c         ****                         }
 761:BTD.c         ****                         break;
 762:BTD.c         **** 
 763:BTD.c         ****                 case HCI_CONNECT_DEVICE_STATE:
 764:BTD.c         ****                         if(hci_check_flag(HCI_FLAG_CMD_COMPLETE)) {
 765:BTD.c         **** #ifdef DEBUG_USB_HOST
 766:BTD.c         ****                                 if(pairWithWii)
 767:BTD.c         ****                                         Notify(PSTR("\r\nConnecting to Wiimote"), 0x80);
 768:BTD.c         ****                                 else
 769:BTD.c         ****                                         Notify(PSTR("\r\nConnecting to HID device"), 0x80);
 770:BTD.c         **** #endif
 771:BTD.c         ****                                 checkRemoteName = false;
 772:BTD.c         ****                                 hci_connect();
 773:BTD.c         ****                                 hci_state = HCI_CONNECTED_DEVICE_STATE;
 774:BTD.c         ****                         }
 775:BTD.c         ****                         break;
 776:BTD.c         **** 
 777:BTD.c         ****                 case HCI_CONNECTED_DEVICE_STATE:
 778:BTD.c         ****                         if(hci_check_flag(HCI_FLAG_CONNECT_EVENT)) {
 779:BTD.c         ****                                 if(hci_check_flag(HCI_FLAG_CONNECT_COMPLETE)) {
 780:BTD.c         **** #ifdef DEBUG_USB_HOST
 781:BTD.c         ****                                         if(pairWithWii)
 782:BTD.c         ****                                                 Notify(PSTR("\r\nConnected to Wiimote"), 0x80);
 783:BTD.c         ****                                         else
 784:BTD.c         ****                                                 Notify(PSTR("\r\nConnected to HID device"), 0x80);
 785:BTD.c         **** #endif
 786:BTD.c         ****                                         hci_authentication_request(); // This will start the pairin
 787:BTD.c         ****                                         hci_state = HCI_SCANNING_STATE;
 788:BTD.c         ****                                 } else {
 789:BTD.c         **** #ifdef DEBUG_USB_HOST
 790:BTD.c         ****                                         Notify(PSTR("\r\nTrying to connect one more time..."), 0x80
 791:BTD.c         **** #endif
 792:BTD.c         ****                                         hci_connect(); // Try to connect one more time
 793:BTD.c         ****                                 }
 794:BTD.c         ****                         }
 795:BTD.c         ****                         break;
 796:BTD.c         **** 
 797:BTD.c         ****                 case HCI_SCANNING_STATE:
 798:BTD.c         ****                         if(!connectToWii && !pairWithWii && !connectToHIDDevice && !pairWithHIDDevi
 799:BTD.c         **** #ifdef DEBUG_USB_HOST
 800:BTD.c         ****                                 Notify(PSTR("\r\nWait For Incoming Connection Request"), 0x80);
 801:BTD.c         **** #endif
 802:BTD.c         ****                                 hci_write_scan_enable();
ARM GAS  C:\Users\jrdia\AppData\Local\Temp\ccxPPVVw.s 			page 73


 803:BTD.c         ****                                 waitingForConnection = true;
 804:BTD.c         ****                                 hci_state = HCI_CONNECT_IN_STATE;
 805:BTD.c         ****                         }
 806:BTD.c         ****                         break;
 807:BTD.c         **** 
 808:BTD.c         ****                 case HCI_CONNECT_IN_STATE:
 809:BTD.c         ****                         if(hci_check_flag(HCI_FLAG_INCOMING_REQUEST)) {
 810:BTD.c         ****                                 waitingForConnection = false;
 811:BTD.c         **** #ifdef DEBUG_USB_HOST
 812:BTD.c         ****                                 Notify(PSTR("\r\nIncoming Connection Request"), 0x80);
 813:BTD.c         **** #endif
 814:BTD.c         ****                                 hci_remote_name();
 815:BTD.c         ****                                 hci_state = HCI_REMOTE_NAME_STATE;
 816:BTD.c         ****                         } else if(hci_check_flag(HCI_FLAG_DISCONNECT_COMPLETE))
 817:BTD.c         ****                                 hci_state = HCI_DISCONNECT_STATE;
 818:BTD.c         ****                         break;
 819:BTD.c         **** 
 820:BTD.c         ****                 case HCI_REMOTE_NAME_STATE:
 821:BTD.c         ****                         if(hci_check_flag(HCI_FLAG_REMOTE_NAME_COMPLETE)) {
 822:BTD.c         **** #ifdef DEBUG_USB_HOST
 823:BTD.c         ****                                 Notify(PSTR("\r\nRemote Name: "), 0x80);
 824:BTD.c         ****                                 for(uint8_t i = 0; i < strlen(remote_name); i++)
 825:BTD.c         ****                                         Notifyc(remote_name[i], 0x80);
 826:BTD.c         **** #endif
 827:BTD.c         ****                                 if(strncmp((const char*)remote_name, "Nintendo", 8) == 0) {
 828:BTD.c         ****                                         incomingWii = true;
 829:BTD.c         ****                                         motionPlusInside = false;
 830:BTD.c         ****                                         wiiUProController = false;
 831:BTD.c         ****                                         pairWiiUsingSync = false;
 832:BTD.c         **** #ifdef DEBUG_USB_HOST
 833:BTD.c         ****                                         Notify(PSTR("\r\nWiimote is connecting"), 0x80);
 834:BTD.c         **** #endif
 835:BTD.c         ****                                         if(strncmp((const char*)remote_name, "Nintendo RVL-CNT-01-T
 836:BTD.c         **** #ifdef DEBUG_USB_HOST
 837:BTD.c         ****                                                 Notify(PSTR(" with Motion Plus Inside"), 0x80);
 838:BTD.c         **** #endif
 839:BTD.c         ****                                                 motionPlusInside = true;
 840:BTD.c         ****                                         } else if(strncmp((const char*)remote_name, "Nintendo RVL-C
 841:BTD.c         **** #ifdef DEBUG_USB_HOST
 842:BTD.c         ****                                                 Notify(PSTR(" - Wii U Pro Controller"), 0x80);
 843:BTD.c         **** #endif
 844:BTD.c         ****                                                 wiiUProController = motionPlusInside = pairWiiUsing
 845:BTD.c         ****                                         } else if(strncmp((const char*)remote_name, "Nintendo RVL-W
 846:BTD.c         **** #ifdef DEBUG_USB_HOST
 847:BTD.c         ****                                                 Notify(PSTR(" - Wii Balance Board"), 0x80);
 848:BTD.c         **** #endif
 849:BTD.c         ****                                                 pairWiiUsingSync = true;
 850:BTD.c         ****                                         }
 851:BTD.c         ****                                 }
 852:BTD.c         ****                                 if(classOfDevice[2] == 0 && classOfDevice[1] == 0x25 && classOfDevi
 853:BTD.c         **** #ifdef DEBUG_USB_HOST
 854:BTD.c         ****                                         Notify(PSTR("\r\nPS4 controller is connecting"), 0x80);
 855:BTD.c         **** #endif
 856:BTD.c         ****                                         incomingPS4 = true;
 857:BTD.c         ****                                 }
 858:BTD.c         ****                                 if(pairWithWii && checkRemoteName)
 859:BTD.c         ****                                         hci_state = HCI_CONNECT_DEVICE_STATE;
ARM GAS  C:\Users\jrdia\AppData\Local\Temp\ccxPPVVw.s 			page 74


 860:BTD.c         ****                                 else {
 861:BTD.c         ****                                         hci_accept_connection();
 862:BTD.c         ****                                         hci_state = HCI_CONNECTED_STATE;
 863:BTD.c         ****                                 }
 864:BTD.c         ****                         }
 865:BTD.c         ****                         break;
 866:BTD.c         **** 
 867:BTD.c         ****                 case HCI_CONNECTED_STATE:
 868:BTD.c         ****                         if(hci_check_flag(HCI_FLAG_CONNECT_COMPLETE)) {
 869:BTD.c         **** #ifdef DEBUG_USB_HOST
 870:BTD.c         ****                                 Notify(PSTR("\r\nConnected to Device: "), 0x80);
 871:BTD.c         ****                                 for(int8_t i = 5; i > 0; i--) {
 872:BTD.c         ****                                         D_PrintHex<uint8_t > (disc_bdaddr[i], 0x80);
 873:BTD.c         ****                                         Notify(PSTR(":"), 0x80);
 874:BTD.c         ****                                 }
 875:BTD.c         ****                                 D_PrintHex<uint8_t > (disc_bdaddr[0], 0x80);
 876:BTD.c         **** #endif
 877:BTD.c         ****                                 if(incomingPS4)
 878:BTD.c         ****                                         connectToHIDDevice = true; // We should always connect to t
 879:BTD.c         **** 
 880:BTD.c         ****                                 // Clear these flags for a new connection
 881:BTD.c         ****                                 l2capConnectionClaimed = false;
 882:BTD.c         ****                                 sdpConnectionClaimed = false;
 883:BTD.c         ****                                 rfcommConnectionClaimed = false;
 884:BTD.c         **** 
 885:BTD.c         ****                                 hci_event_flag = 0;
 886:BTD.c         ****                                 hci_state = HCI_DONE_STATE;
 887:BTD.c         ****                         }
 888:BTD.c         ****                         break;
 889:BTD.c         **** 
 890:BTD.c         ****                 case HCI_DONE_STATE:
 891:BTD.c         ****                         hci_counter++;
 892:BTD.c         ****                         if(hci_counter > 1000) { // Wait until we have looped 1000 times to make su
 893:BTD.c         ****                                 hci_counter = 0;
 894:BTD.c         ****                                 hci_state = HCI_SCANNING_STATE;
 895:BTD.c         ****                         }
 896:BTD.c         ****                         break;
 897:BTD.c         **** 
 898:BTD.c         ****                 case HCI_DISCONNECT_STATE:
 899:BTD.c         ****                         if(hci_check_flag(HCI_FLAG_DISCONNECT_COMPLETE)) {
 900:BTD.c         **** #ifdef DEBUG_USB_HOST
 901:BTD.c         ****                                 Notify(PSTR("\r\nHCI Disconnected from Device"), 0x80);
 902:BTD.c         **** #endif
 903:BTD.c         ****                                 hci_event_flag = 0; // Clear all flags
 904:BTD.c         **** 
 905:BTD.c         ****                                 // Reset all buffers
 906:BTD.c         ****                                 memset(hcibuf, 0, BULK_MAXPKTSIZE);
 907:BTD.c         ****                                 memset(l2capinbuf, 0, BULK_MAXPKTSIZE);
 908:BTD.c         **** 
 909:BTD.c         ****                                 connectToWii = incomingWii = pairWithWii = false;
 910:BTD.c         ****                                 connectToHIDDevice = incomingHIDDevice = pairWithHIDDevice = checkR
 911:BTD.c         ****                                 incomingPS4 = false;
 912:BTD.c         **** 
 913:BTD.c         ****                                 hci_state = HCI_SCANNING_STATE;
 914:BTD.c         ****                         }
 915:BTD.c         ****                         break;
 916:BTD.c         ****                 default:
ARM GAS  C:\Users\jrdia\AppData\Local\Temp\ccxPPVVw.s 			page 75


 917:BTD.c         ****                         break;
 918:BTD.c         ****         }
 919:BTD.c         **** }
 920:BTD.c         **** 
 921:BTD.c         **** void BTD::ACL_event_task() {
 2320              		.loc 5 921 0
 2321              		.cfi_startproc
 2322              		@ args = 0, pretend = 0, frame = 8
 2323              		@ frame_needed = 0, uses_anonymous_args = 0
 2324              	.LVL165:
 2325 0000 F0B5     		push	{r4, r5, r6, r7, lr}
 2326              		.save {r4, r5, r6, r7, lr}
 2327              		.cfi_def_cfa_offset 20
 2328              		.cfi_offset 4, -20
 2329              		.cfi_offset 5, -16
 2330              		.cfi_offset 6, -12
 2331              		.cfi_offset 7, -8
 2332              		.cfi_offset 14, -4
 2333              		.pad #20
 2334 0002 85B0     		sub	sp, sp, #20
 2335              		.cfi_def_cfa_offset 40
 922:BTD.c         ****         uint16_t length = BULK_MAXPKTSIZE;
 2336              		.loc 5 922 0
 2337 0004 4023     		movs	r3, #64
 2338 0006 6A46     		mov	r2, sp
 2339 0008 D381     		strh	r3, [r2, #14]
 923:BTD.c         ****         uint8_t rcode = pUsb->inTransfer(bAddress, epInfo[ BTD_DATAIN_PIPE ].epAddr, &length, l2cap
 2340              		.loc 5 923 0
 2341 000a 1733     		adds	r3, r3, #23
 2342 000c C25C     		ldrb	r2, [r0, r3]
 2343 000e 073B     		subs	r3, r3, #7
 2344 0010 C15C     		ldrb	r1, [r0, r3]
 2345 0012 2833     		adds	r3, r3, #40
 2346 0014 C35C     		ldrb	r3, [r0, r3]
 2347 0016 0700     		movs	r7, r0
 2348 0018 0193     		str	r3, [sp, #4]
 2349 001a 0E23     		movs	r3, #14
 2350 001c C937     		adds	r7, r7, #201
 2351 001e 0097     		str	r7, [sp]
 921:BTD.c         ****         uint16_t length = BULK_MAXPKTSIZE;
 2352              		.loc 5 921 0
 2353 0020 0500     		movs	r5, r0
 2354              		.loc 5 923 0
 2355 0022 6B44     		add	r3, r3, sp
 2356 0024 C06C     		ldr	r0, [r0, #76]
 2357              	.LVL166:
 2358 0026 FFF7FEFF 		bl	_ZN3USB10inTransferEhhPtPhh
 2359              	.LVL167:
 2360              	.LBB235:
 924:BTD.c         **** 
 925:BTD.c         ****         if(!rcode) { // Check for errors
 2361              		.loc 5 925 0
 2362 002a 0028     		cmp	r0, #0
 2363 002c 0DD0     		beq	.L242
 2364 002e 2C00     		movs	r4, r5
 2365 0030 7435     		adds	r5, r5, #116
 2366              	.LVL168:
ARM GAS  C:\Users\jrdia\AppData\Local\Temp\ccxPPVVw.s 			page 76


 2367 0032 6434     		adds	r4, r4, #100
 2368              	.LVL169:
 2369              	.L243:
 2370              	.LBE235:
 2371              	.LBB238:
 926:BTD.c         ****                 if(length > 0) { // Check if any data was read
 927:BTD.c         ****                         for(uint8_t i = 0; i < BTD_NUM_SERVICES; i++) {
 928:BTD.c         ****                                 if(btService[i])
 929:BTD.c         ****                                         btService[i]->ACLData(l2capinbuf);
 930:BTD.c         ****                         }
 931:BTD.c         ****                 }
 932:BTD.c         ****         }
 933:BTD.c         **** #ifdef EXTRADEBUG
 934:BTD.c         ****         else if(rcode != hrNAK) {
 935:BTD.c         ****                 Notify(PSTR("\r\nACL data in error: "), 0x80);
 936:BTD.c         ****                 D_PrintHex<uint8_t > (rcode, 0x80);
 937:BTD.c         ****         }
 938:BTD.c         **** #endif
 939:BTD.c         ****         for(uint8_t i = 0; i < BTD_NUM_SERVICES; i++)
 940:BTD.c         ****                 if(btService[i])
 2372              		.loc 5 940 0
 2373 0034 2068     		ldr	r0, [r4]
 2374 0036 0028     		cmp	r0, #0
 2375 0038 02D0     		beq	.L247
 941:BTD.c         ****                         btService[i]->Run();
 2376              		.loc 5 941 0
 2377 003a 0368     		ldr	r3, [r0]
 2378 003c 5B68     		ldr	r3, [r3, #4]
 2379 003e 9847     		blx	r3
 2380              	.LVL170:
 2381              	.L247:
 2382 0040 0434     		adds	r4, r4, #4
 939:BTD.c         ****                 if(btService[i])
 2383              		.loc 5 939 0 discriminator 2
 2384 0042 A542     		cmp	r5, r4
 2385 0044 F6D1     		bne	.L243
 2386              	.LBE238:
 942:BTD.c         **** }
 2387              		.loc 5 942 0
 2388 0046 05B0     		add	sp, sp, #20
 2389              		@ sp needed
 2390              	.LVL171:
 2391 0048 F0BD     		pop	{r4, r5, r6, r7, pc}
 2392              	.LVL172:
 2393              	.L242:
 2394              	.LBB239:
 2395              	.LBB236:
 926:BTD.c         ****                         for(uint8_t i = 0; i < BTD_NUM_SERVICES; i++) {
 2396              		.loc 5 926 0
 2397 004a 6B46     		mov	r3, sp
 2398 004c 2C00     		movs	r4, r5
 2399 004e DB89     		ldrh	r3, [r3, #14]
 2400 0050 6434     		adds	r4, r4, #100
 2401 0052 002B     		cmp	r3, #0
 2402 0054 0CD0     		beq	.L258
 2403 0056 2600     		movs	r6, r4
 2404 0058 7435     		adds	r5, r5, #116
ARM GAS  C:\Users\jrdia\AppData\Local\Temp\ccxPPVVw.s 			page 77


 2405              	.LVL173:
 2406              	.L246:
 2407              	.LBB237:
 928:BTD.c         ****                                         btService[i]->ACLData(l2capinbuf);
 2408              		.loc 5 928 0
 2409 005a 3068     		ldr	r0, [r6]
 2410 005c 0028     		cmp	r0, #0
 2411 005e 03D0     		beq	.L245
 929:BTD.c         ****                         }
 2412              		.loc 5 929 0
 2413 0060 0368     		ldr	r3, [r0]
 2414 0062 3900     		movs	r1, r7
 2415 0064 1B68     		ldr	r3, [r3]
 2416 0066 9847     		blx	r3
 2417              	.LVL174:
 2418              	.L245:
 2419 0068 0436     		adds	r6, r6, #4
 927:BTD.c         ****                                 if(btService[i])
 2420              		.loc 5 927 0 discriminator 2
 2421 006a B542     		cmp	r5, r6
 2422 006c F5D1     		bne	.L246
 2423 006e E1E7     		b	.L243
 2424              	.LVL175:
 2425              	.L258:
 2426 0070 7435     		adds	r5, r5, #116
 2427              	.LVL176:
 2428 0072 DFE7     		b	.L243
 2429              	.LBE237:
 2430              	.LBE236:
 2431              	.LBE239:
 2432              		.cfi_endproc
 2433              	.LFE251:
 2434              		.fnend
 2435              		.size	_ZN3BTD14ACL_event_taskEv, .-_ZN3BTD14ACL_event_taskEv
 2436              		.section	.text._ZN3BTD11HCI_CommandEPht,"ax",%progbits
 2437              		.align	2
 2438              		.global	_ZN3BTD11HCI_CommandEPht
 2439              		.code	16
 2440              		.thumb_func
 2441              		.type	_ZN3BTD11HCI_CommandEPht, %function
 2442              	_ZN3BTD11HCI_CommandEPht:
 2443              		.fnstart
 2444              	.LFB252:
 943:BTD.c         **** 
 944:BTD.c         **** /************************************************************/
 945:BTD.c         **** /*                    HCI Commands                        */
 946:BTD.c         **** 
 947:BTD.c         **** /************************************************************/
 948:BTD.c         **** void BTD::HCI_Command(uint8_t* data, uint16_t nbytes) {
 2445              		.loc 5 948 0
 2446              		.cfi_startproc
 2447              		@ args = 0, pretend = 0, frame = 0
 2448              		@ frame_needed = 0, uses_anonymous_args = 0
 2449              	.LVL177:
 2450 0000 30B5     		push	{r4, r5, lr}
 2451              		.save {r4, r5, lr}
 2452              		.cfi_def_cfa_offset 12
ARM GAS  C:\Users\jrdia\AppData\Local\Temp\ccxPPVVw.s 			page 78


 2453              		.cfi_offset 4, -12
 2454              		.cfi_offset 5, -8
 2455              		.cfi_offset 14, -4
 949:BTD.c         ****         hci_clear_flag(HCI_FLAG_CMD_COMPLETE);
 2456              		.loc 5 949 0
 2457 0002 8624     		movs	r4, #134
 948:BTD.c         ****         hci_clear_flag(HCI_FLAG_CMD_COMPLETE);
 2458              		.loc 5 948 0
 2459 0004 0D00     		movs	r5, r1
 2460              		.loc 5 949 0
 2461 0006 0121     		movs	r1, #1
 2462              	.LVL178:
 2463 0008 035B     		ldrh	r3, [r0, r4]
 948:BTD.c         ****         hci_clear_flag(HCI_FLAG_CMD_COMPLETE);
 2464              		.loc 5 948 0
 2465              		.pad #36
 2466 000a 89B0     		sub	sp, sp, #36
 2467              		.cfi_def_cfa_offset 48
 2468              		.loc 5 949 0
 2469 000c 8B43     		bics	r3, r1
 2470 000e 0353     		strh	r3, [r0, r4]
 950:BTD.c         ****         pUsb->ctrlReq(bAddress, epInfo[ BTD_CONTROL_PIPE ].epAddr, bmREQ_HCI_OUT, 0x00, 0x00, 0x00,
 2471              		.loc 5 950 0
 2472 0010 5123     		movs	r3, #81
 2473 0012 C45C     		ldrb	r4, [r0, r3]
 2474 0014 013B     		subs	r3, r3, #1
 2475 0016 C15C     		ldrb	r1, [r0, r3]
 2476 0018 0023     		movs	r3, #0
 2477 001a C06C     		ldr	r0, [r0, #76]
 2478              	.LVL179:
 2479 001c 0793     		str	r3, [sp, #28]
 2480 001e 0592     		str	r2, [sp, #20]
 2481 0020 0492     		str	r2, [sp, #16]
 2482 0022 0393     		str	r3, [sp, #12]
 2483 0024 0293     		str	r3, [sp, #8]
 2484 0026 0193     		str	r3, [sp, #4]
 2485 0028 0093     		str	r3, [sp]
 2486 002a 0695     		str	r5, [sp, #24]
 2487 002c 2033     		adds	r3, r3, #32
 2488 002e 2200     		movs	r2, r4
 2489              	.LVL180:
 2490 0030 FFF7FEFF 		bl	_ZN3USB7ctrlReqEhhhhhhtttPhP13USBReadParser
 2491              	.LVL181:
 951:BTD.c         **** }
 2492              		.loc 5 951 0
 2493 0034 09B0     		add	sp, sp, #36
 2494              		@ sp needed
 2495              	.LVL182:
 2496 0036 30BD     		pop	{r4, r5, pc}
 2497              		.cfi_endproc
 2498              	.LFE252:
 2499              		.fnend
 2500              		.size	_ZN3BTD11HCI_CommandEPht, .-_ZN3BTD11HCI_CommandEPht
 2501              		.section	.text._ZN3BTD9hci_resetEv,"ax",%progbits
 2502              		.align	2
 2503              		.global	_ZN3BTD9hci_resetEv
 2504              		.code	16
ARM GAS  C:\Users\jrdia\AppData\Local\Temp\ccxPPVVw.s 			page 79


 2505              		.thumb_func
 2506              		.type	_ZN3BTD9hci_resetEv, %function
 2507              	_ZN3BTD9hci_resetEv:
 2508              		.fnstart
 2509              	.LFB253:
 952:BTD.c         **** 
 953:BTD.c         **** void BTD::hci_reset() {
 2510              		.loc 5 953 0
 2511              		.cfi_startproc
 2512              		@ args = 0, pretend = 0, frame = 0
 2513              		@ frame_needed = 0, uses_anonymous_args = 0
 2514              	.LVL183:
 954:BTD.c         ****         hci_event_flag = 0; // Clear all the flags
 2515              		.loc 5 954 0
 2516 0000 0022     		movs	r2, #0
 2517 0002 8623     		movs	r3, #134
 2518 0004 C252     		strh	r2, [r0, r3]
 955:BTD.c         ****         hcibuf[0] = 0x03; // HCI OCF = 3
 2519              		.loc 5 955 0
 2520 0006 0332     		adds	r2, r2, #3
 2521 0008 0333     		adds	r3, r3, #3
 2522 000a C254     		strb	r2, [r0, r3]
 956:BTD.c         ****         hcibuf[1] = 0x03 << 2; // HCI OGF = 3
 2523              		.loc 5 956 0
 2524 000c 0932     		adds	r2, r2, #9
 2525 000e 0133     		adds	r3, r3, #1
 2526 0010 C254     		strb	r2, [r0, r3]
 957:BTD.c         ****         hcibuf[2] = 0x00;
 958:BTD.c         **** 
 959:BTD.c         ****         HCI_Command(hcibuf, 3);
 2527              		.loc 5 959 0
 2528 0012 0100     		movs	r1, r0
 957:BTD.c         ****         hcibuf[2] = 0x00;
 2529              		.loc 5 957 0
 2530 0014 0022     		movs	r2, #0
 953:BTD.c         ****         hci_event_flag = 0; // Clear all the flags
 2531              		.loc 5 953 0
 2532 0016 10B5     		push	{r4, lr}
 2533              		.save {r4, lr}
 2534              		.cfi_def_cfa_offset 8
 2535              		.cfi_offset 4, -8
 2536              		.cfi_offset 14, -4
 957:BTD.c         ****         hcibuf[2] = 0x00;
 2537              		.loc 5 957 0
 2538 0018 0133     		adds	r3, r3, #1
 2539 001a C254     		strb	r2, [r0, r3]
 2540              		.loc 5 959 0
 2541 001c 8931     		adds	r1, r1, #137
 2542 001e 0322     		movs	r2, #3
 2543 0020 FFF7FEFF 		bl	_ZN3BTD11HCI_CommandEPht
 2544              	.LVL184:
 960:BTD.c         **** }
 2545              		.loc 5 960 0
 2546              		@ sp needed
 2547 0024 10BD     		pop	{r4, pc}
 2548              		.cfi_endproc
 2549              	.LFE253:
ARM GAS  C:\Users\jrdia\AppData\Local\Temp\ccxPPVVw.s 			page 80


 2550              		.fnend
 2551              		.size	_ZN3BTD9hci_resetEv, .-_ZN3BTD9hci_resetEv
 2552 0026 C046     		.section	.text._ZN3BTD21hci_write_scan_enableEv,"ax",%progbits
 2553              		.align	2
 2554              		.global	_ZN3BTD21hci_write_scan_enableEv
 2555              		.code	16
 2556              		.thumb_func
 2557              		.type	_ZN3BTD21hci_write_scan_enableEv, %function
 2558              	_ZN3BTD21hci_write_scan_enableEv:
 2559              		.fnstart
 2560              	.LFB254:
 961:BTD.c         **** 
 962:BTD.c         **** void BTD::hci_write_scan_enable() {
 2561              		.loc 5 962 0
 2562              		.cfi_startproc
 2563              		@ args = 0, pretend = 0, frame = 0
 2564              		@ frame_needed = 0, uses_anonymous_args = 0
 2565              	.LVL185:
 963:BTD.c         ****         hci_clear_flag(HCI_FLAG_INCOMING_REQUEST);
 2566              		.loc 5 963 0
 2567 0000 8622     		movs	r2, #134
 2568 0002 1021     		movs	r1, #16
 2569 0004 835A     		ldrh	r3, [r0, r2]
 962:BTD.c         ****         hci_clear_flag(HCI_FLAG_INCOMING_REQUEST);
 2570              		.loc 5 962 0
 2571 0006 10B5     		push	{r4, lr}
 2572              		.save {r4, lr}
 2573              		.cfi_def_cfa_offset 8
 2574              		.cfi_offset 4, -8
 2575              		.cfi_offset 14, -4
 2576              		.loc 5 963 0
 2577 0008 8B43     		bics	r3, r1
 2578 000a 8352     		strh	r3, [r0, r2]
 964:BTD.c         ****         hcibuf[0] = 0x1A; // HCI OCF = 1A
 2579              		.loc 5 964 0
 2580 000c 8923     		movs	r3, #137
 2581 000e 6C3A     		subs	r2, r2, #108
 2582 0010 C254     		strb	r2, [r0, r3]
 965:BTD.c         ****         hcibuf[1] = 0x03 << 2; // HCI OGF = 3
 2583              		.loc 5 965 0
 2584 0012 0E3A     		subs	r2, r2, #14
 2585 0014 0133     		adds	r3, r3, #1
 2586 0016 C254     		strb	r2, [r0, r3]
 966:BTD.c         ****         hcibuf[2] = 0x01; // parameter length = 1
 2587              		.loc 5 966 0
 2588 0018 0133     		adds	r3, r3, #1
 2589 001a 0B3A     		subs	r2, r2, #11
 2590 001c C254     		strb	r2, [r0, r3]
 967:BTD.c         ****         if(btdName != NULL)
 2591              		.loc 5 967 0
 2592 001e C368     		ldr	r3, [r0, #12]
 2593 0020 002B     		cmp	r3, #0
 2594 0022 08D0     		beq	.L262
 968:BTD.c         ****                 hcibuf[3] = 0x03; // Inquiry Scan enabled. Page Scan enabled.
 2595              		.loc 5 968 0
 2596 0024 8C23     		movs	r3, #140
 2597 0026 0232     		adds	r2, r2, #2
ARM GAS  C:\Users\jrdia\AppData\Local\Temp\ccxPPVVw.s 			page 81


 2598 0028 C254     		strb	r2, [r0, r3]
 2599              	.L263:
 969:BTD.c         ****         else
 970:BTD.c         ****                 hcibuf[3] = 0x02; // Inquiry Scan disabled. Page Scan enabled.
 971:BTD.c         **** 
 972:BTD.c         ****         HCI_Command(hcibuf, 4);
 2600              		.loc 5 972 0
 2601 002a 0100     		movs	r1, r0
 2602 002c 0422     		movs	r2, #4
 2603 002e 8931     		adds	r1, r1, #137
 2604 0030 FFF7FEFF 		bl	_ZN3BTD11HCI_CommandEPht
 2605              	.LVL186:
 973:BTD.c         **** }
 2606              		.loc 5 973 0
 2607              		@ sp needed
 2608 0034 10BD     		pop	{r4, pc}
 2609              	.LVL187:
 2610              	.L262:
 970:BTD.c         **** 
 2611              		.loc 5 970 0
 2612 0036 0222     		movs	r2, #2
 2613 0038 8C23     		movs	r3, #140
 2614 003a C254     		strb	r2, [r0, r3]
 2615 003c F5E7     		b	.L263
 2616              		.cfi_endproc
 2617              	.LFE254:
 2618              		.fnend
 2619              		.size	_ZN3BTD21hci_write_scan_enableEv, .-_ZN3BTD21hci_write_scan_enableEv
 2620 003e C046     		.section	.text._ZN3BTD22hci_write_scan_disableEv,"ax",%progbits
 2621              		.align	2
 2622              		.global	_ZN3BTD22hci_write_scan_disableEv
 2623              		.code	16
 2624              		.thumb_func
 2625              		.type	_ZN3BTD22hci_write_scan_disableEv, %function
 2626              	_ZN3BTD22hci_write_scan_disableEv:
 2627              		.fnstart
 2628              	.LFB255:
 974:BTD.c         **** 
 975:BTD.c         **** void BTD::hci_write_scan_disable() {
 2629              		.loc 5 975 0
 2630              		.cfi_startproc
 2631              		@ args = 0, pretend = 0, frame = 0
 2632              		@ frame_needed = 0, uses_anonymous_args = 0
 2633              	.LVL188:
 976:BTD.c         ****         hcibuf[0] = 0x1A; // HCI OCF = 1A
 2634              		.loc 5 976 0
 2635 0000 1A22     		movs	r2, #26
 2636 0002 8923     		movs	r3, #137
 2637 0004 C254     		strb	r2, [r0, r3]
 977:BTD.c         ****         hcibuf[1] = 0x03 << 2; // HCI OGF = 3
 2638              		.loc 5 977 0
 2639 0006 0E3A     		subs	r2, r2, #14
 2640 0008 0133     		adds	r3, r3, #1
 2641 000a C254     		strb	r2, [r0, r3]
 978:BTD.c         ****         hcibuf[2] = 0x01; // parameter length = 1
 2642              		.loc 5 978 0
 2643 000c 0B3A     		subs	r2, r2, #11
ARM GAS  C:\Users\jrdia\AppData\Local\Temp\ccxPPVVw.s 			page 82


 2644 000e 0133     		adds	r3, r3, #1
 2645 0010 C254     		strb	r2, [r0, r3]
 979:BTD.c         ****         hcibuf[3] = 0x00; // Inquiry Scan disabled. Page Scan disabled.
 980:BTD.c         **** 
 981:BTD.c         ****         HCI_Command(hcibuf, 4);
 2646              		.loc 5 981 0
 2647 0012 0100     		movs	r1, r0
 979:BTD.c         ****         hcibuf[3] = 0x00; // Inquiry Scan disabled. Page Scan disabled.
 2648              		.loc 5 979 0
 2649 0014 0022     		movs	r2, #0
 975:BTD.c         ****         hcibuf[0] = 0x1A; // HCI OCF = 1A
 2650              		.loc 5 975 0
 2651 0016 10B5     		push	{r4, lr}
 2652              		.save {r4, lr}
 2653              		.cfi_def_cfa_offset 8
 2654              		.cfi_offset 4, -8
 2655              		.cfi_offset 14, -4
 979:BTD.c         ****         hcibuf[3] = 0x00; // Inquiry Scan disabled. Page Scan disabled.
 2656              		.loc 5 979 0
 2657 0018 0133     		adds	r3, r3, #1
 2658 001a C254     		strb	r2, [r0, r3]
 2659              		.loc 5 981 0
 2660 001c 8931     		adds	r1, r1, #137
 2661 001e 0432     		adds	r2, r2, #4
 2662 0020 FFF7FEFF 		bl	_ZN3BTD11HCI_CommandEPht
 2663              	.LVL189:
 982:BTD.c         **** }
 2664              		.loc 5 982 0
 2665              		@ sp needed
 2666 0024 10BD     		pop	{r4, pc}
 2667              		.cfi_endproc
 2668              	.LFE255:
 2669              		.fnend
 2670              		.size	_ZN3BTD22hci_write_scan_disableEv, .-_ZN3BTD22hci_write_scan_disableEv
 2671 0026 C046     		.section	.text._ZN3BTD15hci_read_bdaddrEv,"ax",%progbits
 2672              		.align	2
 2673              		.global	_ZN3BTD15hci_read_bdaddrEv
 2674              		.code	16
 2675              		.thumb_func
 2676              		.type	_ZN3BTD15hci_read_bdaddrEv, %function
 2677              	_ZN3BTD15hci_read_bdaddrEv:
 2678              		.fnstart
 2679              	.LFB256:
 983:BTD.c         **** 
 984:BTD.c         **** void BTD::hci_read_bdaddr() {
 2680              		.loc 5 984 0
 2681              		.cfi_startproc
 2682              		@ args = 0, pretend = 0, frame = 0
 2683              		@ frame_needed = 0, uses_anonymous_args = 0
 2684              	.LVL190:
 985:BTD.c         ****         hci_clear_flag(HCI_FLAG_READ_BDADDR);
 2685              		.loc 5 985 0
 2686 0000 8622     		movs	r2, #134
 2687 0002 2021     		movs	r1, #32
 2688 0004 835A     		ldrh	r3, [r0, r2]
 984:BTD.c         ****         hci_clear_flag(HCI_FLAG_READ_BDADDR);
 2689              		.loc 5 984 0
ARM GAS  C:\Users\jrdia\AppData\Local\Temp\ccxPPVVw.s 			page 83


 2690 0006 10B5     		push	{r4, lr}
 2691              		.save {r4, lr}
 2692              		.cfi_def_cfa_offset 8
 2693              		.cfi_offset 4, -8
 2694              		.cfi_offset 14, -4
 2695              		.loc 5 985 0
 2696 0008 8B43     		bics	r3, r1
 2697 000a 8352     		strh	r3, [r0, r2]
 986:BTD.c         ****         hcibuf[0] = 0x09; // HCI OCF = 9
 2698              		.loc 5 986 0
 2699 000c 8923     		movs	r3, #137
 2700 000e 7D3A     		subs	r2, r2, #125
 2701 0010 C254     		strb	r2, [r0, r3]
 987:BTD.c         ****         hcibuf[1] = 0x04 << 2; // HCI OGF = 4
 2702              		.loc 5 987 0
 2703 0012 0732     		adds	r2, r2, #7
 2704 0014 0133     		adds	r3, r3, #1
 2705 0016 C254     		strb	r2, [r0, r3]
 988:BTD.c         ****         hcibuf[2] = 0x00;
 989:BTD.c         **** 
 990:BTD.c         ****         HCI_Command(hcibuf, 3);
 2706              		.loc 5 990 0
 2707 0018 0100     		movs	r1, r0
 988:BTD.c         ****         hcibuf[2] = 0x00;
 2708              		.loc 5 988 0
 2709 001a 0022     		movs	r2, #0
 2710 001c 0133     		adds	r3, r3, #1
 2711 001e C254     		strb	r2, [r0, r3]
 2712              		.loc 5 990 0
 2713 0020 8931     		adds	r1, r1, #137
 2714 0022 0332     		adds	r2, r2, #3
 2715 0024 FFF7FEFF 		bl	_ZN3BTD11HCI_CommandEPht
 2716              	.LVL191:
 991:BTD.c         **** }
 2717              		.loc 5 991 0
 2718              		@ sp needed
 2719 0028 10BD     		pop	{r4, pc}
 2720              		.cfi_endproc
 2721              	.LFE256:
 2722              		.fnend
 2723              		.size	_ZN3BTD15hci_read_bdaddrEv, .-_ZN3BTD15hci_read_bdaddrEv
 2724 002a C046     		.section	.text._ZN3BTD34hci_read_local_version_informationEv,"ax",%progbits
 2725              		.align	2
 2726              		.global	_ZN3BTD34hci_read_local_version_informationEv
 2727              		.code	16
 2728              		.thumb_func
 2729              		.type	_ZN3BTD34hci_read_local_version_informationEv, %function
 2730              	_ZN3BTD34hci_read_local_version_informationEv:
 2731              		.fnstart
 2732              	.LFB257:
 992:BTD.c         **** 
 993:BTD.c         **** void BTD::hci_read_local_version_information() {
 2733              		.loc 5 993 0
 2734              		.cfi_startproc
 2735              		@ args = 0, pretend = 0, frame = 0
 2736              		@ frame_needed = 0, uses_anonymous_args = 0
 2737              	.LVL192:
ARM GAS  C:\Users\jrdia\AppData\Local\Temp\ccxPPVVw.s 			page 84


 994:BTD.c         ****         hci_clear_flag(HCI_FLAG_READ_VERSION);
 2738              		.loc 5 994 0
 2739 0000 8622     		movs	r2, #134
 2740 0002 4021     		movs	r1, #64
 2741 0004 835A     		ldrh	r3, [r0, r2]
 993:BTD.c         ****         hci_clear_flag(HCI_FLAG_READ_VERSION);
 2742              		.loc 5 993 0
 2743 0006 10B5     		push	{r4, lr}
 2744              		.save {r4, lr}
 2745              		.cfi_def_cfa_offset 8
 2746              		.cfi_offset 4, -8
 2747              		.cfi_offset 14, -4
 2748              		.loc 5 994 0
 2749 0008 8B43     		bics	r3, r1
 2750 000a 8352     		strh	r3, [r0, r2]
 995:BTD.c         ****         hcibuf[0] = 0x01; // HCI OCF = 1
 2751              		.loc 5 995 0
 2752 000c 8923     		movs	r3, #137
 2753 000e 853A     		subs	r2, r2, #133
 2754 0010 C254     		strb	r2, [r0, r3]
 996:BTD.c         ****         hcibuf[1] = 0x04 << 2; // HCI OGF = 4
 2755              		.loc 5 996 0
 2756 0012 0F32     		adds	r2, r2, #15
 2757 0014 0133     		adds	r3, r3, #1
 2758 0016 C254     		strb	r2, [r0, r3]
 997:BTD.c         ****         hcibuf[2] = 0x00;
 998:BTD.c         **** 
 999:BTD.c         ****         HCI_Command(hcibuf, 3);
 2759              		.loc 5 999 0
 2760 0018 0100     		movs	r1, r0
 997:BTD.c         ****         hcibuf[2] = 0x00;
 2761              		.loc 5 997 0
 2762 001a 0022     		movs	r2, #0
 2763 001c 0133     		adds	r3, r3, #1
 2764 001e C254     		strb	r2, [r0, r3]
 2765              		.loc 5 999 0
 2766 0020 8931     		adds	r1, r1, #137
 2767 0022 0332     		adds	r2, r2, #3
 2768 0024 FFF7FEFF 		bl	_ZN3BTD11HCI_CommandEPht
 2769              	.LVL193:
1000:BTD.c         **** }
 2770              		.loc 5 1000 0
 2771              		@ sp needed
 2772 0028 10BD     		pop	{r4, pc}
 2773              		.cfi_endproc
 2774              	.LFE257:
 2775              		.fnend
 2776              		.size	_ZN3BTD34hci_read_local_version_informationEv, .-_ZN3BTD34hci_read_local_version_information
 2777 002a C046     		.section	.text._ZN3BTD21hci_accept_connectionEv,"ax",%progbits
 2778              		.align	2
 2779              		.global	_ZN3BTD21hci_accept_connectionEv
 2780              		.code	16
 2781              		.thumb_func
 2782              		.type	_ZN3BTD21hci_accept_connectionEv, %function
 2783              	_ZN3BTD21hci_accept_connectionEv:
 2784              		.fnstart
 2785              	.LFB258:
ARM GAS  C:\Users\jrdia\AppData\Local\Temp\ccxPPVVw.s 			page 85


1001:BTD.c         **** 
1002:BTD.c         **** void BTD::hci_accept_connection() {
 2786              		.loc 5 1002 0
 2787              		.cfi_startproc
 2788              		@ args = 0, pretend = 0, frame = 0
 2789              		@ frame_needed = 0, uses_anonymous_args = 0
 2790              	.LVL194:
1003:BTD.c         ****         hci_clear_flag(HCI_FLAG_CONNECT_COMPLETE);
 2791              		.loc 5 1003 0
 2792 0000 8622     		movs	r2, #134
 2793 0002 0221     		movs	r1, #2
 2794 0004 835A     		ldrh	r3, [r0, r2]
1002:BTD.c         ****         hci_clear_flag(HCI_FLAG_CONNECT_COMPLETE);
 2795              		.loc 5 1002 0
 2796 0006 10B5     		push	{r4, lr}
 2797              		.save {r4, lr}
 2798              		.cfi_def_cfa_offset 8
 2799              		.cfi_offset 4, -8
 2800              		.cfi_offset 14, -4
 2801              		.loc 5 1003 0
 2802 0008 8B43     		bics	r3, r1
 2803 000a 8352     		strh	r3, [r0, r2]
1004:BTD.c         ****         hcibuf[0] = 0x09; // HCI OCF = 9
 2804              		.loc 5 1004 0
 2805 000c 8923     		movs	r3, #137
 2806 000e 7D3A     		subs	r2, r2, #125
 2807 0010 C254     		strb	r2, [r0, r3]
1005:BTD.c         ****         hcibuf[1] = 0x01 << 2; // HCI OGF = 1
 2808              		.loc 5 1005 0
 2809 0012 053A     		subs	r2, r2, #5
 2810 0014 0133     		adds	r3, r3, #1
 2811 0016 C254     		strb	r2, [r0, r3]
1006:BTD.c         ****         hcibuf[2] = 0x07; // parameter length 7
 2812              		.loc 5 1006 0
 2813 0018 0332     		adds	r2, r2, #3
 2814 001a 0133     		adds	r3, r3, #1
 2815 001c C254     		strb	r2, [r0, r3]
1007:BTD.c         ****         hcibuf[3] = disc_bdaddr[0]; // 6 octet bdaddr
 2816              		.loc 5 1007 0
 2817 001e 027F     		ldrb	r2, [r0, #28]
 2818 0020 0133     		adds	r3, r3, #1
 2819 0022 C254     		strb	r2, [r0, r3]
1008:BTD.c         ****         hcibuf[4] = disc_bdaddr[1];
 2820              		.loc 5 1008 0
 2821 0024 427F     		ldrb	r2, [r0, #29]
 2822 0026 0133     		adds	r3, r3, #1
 2823 0028 C254     		strb	r2, [r0, r3]
1009:BTD.c         ****         hcibuf[5] = disc_bdaddr[2];
 2824              		.loc 5 1009 0
 2825 002a 827F     		ldrb	r2, [r0, #30]
 2826 002c 0133     		adds	r3, r3, #1
 2827 002e C254     		strb	r2, [r0, r3]
1010:BTD.c         ****         hcibuf[6] = disc_bdaddr[3];
 2828              		.loc 5 1010 0
 2829 0030 C27F     		ldrb	r2, [r0, #31]
 2830 0032 0133     		adds	r3, r3, #1
 2831 0034 C254     		strb	r2, [r0, r3]
ARM GAS  C:\Users\jrdia\AppData\Local\Temp\ccxPPVVw.s 			page 86


1011:BTD.c         ****         hcibuf[7] = disc_bdaddr[4];
 2832              		.loc 5 1011 0
 2833 0036 6F3B     		subs	r3, r3, #111
 2834 0038 C25C     		ldrb	r2, [r0, r3]
 2835 003a 7033     		adds	r3, r3, #112
 2836 003c C254     		strb	r2, [r0, r3]
1012:BTD.c         ****         hcibuf[8] = disc_bdaddr[5];
 2837              		.loc 5 1012 0
 2838 003e 6F3B     		subs	r3, r3, #111
 2839 0040 C25C     		ldrb	r2, [r0, r3]
 2840 0042 7033     		adds	r3, r3, #112
 2841 0044 C254     		strb	r2, [r0, r3]
1013:BTD.c         ****         hcibuf[9] = 0x00; // Switch role to master
1014:BTD.c         **** 
1015:BTD.c         ****         HCI_Command(hcibuf, 10);
 2842              		.loc 5 1015 0
 2843 0046 0100     		movs	r1, r0
1013:BTD.c         ****         hcibuf[9] = 0x00; // Switch role to master
 2844              		.loc 5 1013 0
 2845 0048 0022     		movs	r2, #0
 2846 004a 0133     		adds	r3, r3, #1
 2847 004c C254     		strb	r2, [r0, r3]
 2848              		.loc 5 1015 0
 2849 004e 8931     		adds	r1, r1, #137
 2850 0050 0A32     		adds	r2, r2, #10
 2851 0052 FFF7FEFF 		bl	_ZN3BTD11HCI_CommandEPht
 2852              	.LVL195:
1016:BTD.c         **** }
 2853              		.loc 5 1016 0
 2854              		@ sp needed
 2855 0056 10BD     		pop	{r4, pc}
 2856              		.cfi_endproc
 2857              	.LFE258:
 2858              		.fnend
 2859              		.size	_ZN3BTD21hci_accept_connectionEv, .-_ZN3BTD21hci_accept_connectionEv
 2860              		.section	.text._ZN3BTD15hci_remote_nameEv,"ax",%progbits
 2861              		.align	2
 2862              		.global	_ZN3BTD15hci_remote_nameEv
 2863              		.code	16
 2864              		.thumb_func
 2865              		.type	_ZN3BTD15hci_remote_nameEv, %function
 2866              	_ZN3BTD15hci_remote_nameEv:
 2867              		.fnstart
 2868              	.LFB259:
1017:BTD.c         **** 
1018:BTD.c         **** void BTD::hci_remote_name() {
 2869              		.loc 5 1018 0
 2870              		.cfi_startproc
 2871              		@ args = 0, pretend = 0, frame = 0
 2872              		@ frame_needed = 0, uses_anonymous_args = 0
 2873              	.LVL196:
1019:BTD.c         ****         hci_clear_flag(HCI_FLAG_REMOTE_NAME_COMPLETE);
 2874              		.loc 5 1019 0
 2875 0000 8622     		movs	r2, #134
 2876 0002 0821     		movs	r1, #8
 2877 0004 835A     		ldrh	r3, [r0, r2]
1018:BTD.c         ****         hci_clear_flag(HCI_FLAG_REMOTE_NAME_COMPLETE);
ARM GAS  C:\Users\jrdia\AppData\Local\Temp\ccxPPVVw.s 			page 87


 2878              		.loc 5 1018 0
 2879 0006 10B5     		push	{r4, lr}
 2880              		.save {r4, lr}
 2881              		.cfi_def_cfa_offset 8
 2882              		.cfi_offset 4, -8
 2883              		.cfi_offset 14, -4
 2884              		.loc 5 1019 0
 2885 0008 8B43     		bics	r3, r1
 2886 000a 8352     		strh	r3, [r0, r2]
1020:BTD.c         ****         hcibuf[0] = 0x19; // HCI OCF = 19
 2887              		.loc 5 1020 0
 2888 000c 8923     		movs	r3, #137
 2889 000e 6D3A     		subs	r2, r2, #109
 2890 0010 C254     		strb	r2, [r0, r3]
1021:BTD.c         ****         hcibuf[1] = 0x01 << 2; // HCI OGF = 1
 2891              		.loc 5 1021 0
 2892 0012 153A     		subs	r2, r2, #21
 2893 0014 0133     		adds	r3, r3, #1
 2894 0016 C254     		strb	r2, [r0, r3]
1022:BTD.c         ****         hcibuf[2] = 0x0A; // parameter length = 10
 2895              		.loc 5 1022 0
 2896 0018 0632     		adds	r2, r2, #6
 2897 001a 0133     		adds	r3, r3, #1
 2898 001c C254     		strb	r2, [r0, r3]
1023:BTD.c         ****         hcibuf[3] = disc_bdaddr[0]; // 6 octet bdaddr
 2899              		.loc 5 1023 0
 2900 001e 027F     		ldrb	r2, [r0, #28]
 2901 0020 0133     		adds	r3, r3, #1
 2902 0022 C254     		strb	r2, [r0, r3]
1024:BTD.c         ****         hcibuf[4] = disc_bdaddr[1];
 2903              		.loc 5 1024 0
 2904 0024 427F     		ldrb	r2, [r0, #29]
 2905 0026 0133     		adds	r3, r3, #1
 2906 0028 C254     		strb	r2, [r0, r3]
1025:BTD.c         ****         hcibuf[5] = disc_bdaddr[2];
 2907              		.loc 5 1025 0
