ARM GAS  C:\Users\jrdia\AppData\Local\Temp\ccYHzYw6.s 			page 1


   1              		.syntax unified
   2              		.cpu cortex-m0
   3              		.fpu softvfp
   4              		.eabi_attribute 20, 1
   5              		.eabi_attribute 21, 1
   6              		.eabi_attribute 23, 3
   7              		.eabi_attribute 24, 1
   8              		.eabi_attribute 25, 1
   9              		.eabi_attribute 26, 1
  10              		.eabi_attribute 30, 2
  11              		.eabi_attribute 34, 0
  12              		.eabi_attribute 18, 4
  13              		.thumb
  14              		.syntax unified
  15              		.file	"BTHID.c"
  16              		.text
  17              	.Ltext0:
  18              		.cfi_sections	.debug_frame
  19              		.section	.text._ZN5BTHID14ParseBTHIDDataEhPh,"axG",%progbits,_ZN5BTHID14ParseBTHIDDataEhPh,comdat
  20              		.align	2
  21              		.weak	_ZN5BTHID14ParseBTHIDDataEhPh
  22              		.code	16
  23              		.thumb_func
  24              		.type	_ZN5BTHID14ParseBTHIDDataEhPh, %function
  25              	_ZN5BTHID14ParseBTHIDDataEhPh:
  26              		.fnstart
  27              	.LFB277:
  28              		.file 1 "BTHID.h"
   1:BTHID.h       **** /* Copyright (C) 2013 Kristian Lauszus, TKJ Electronics. All rights reserved.
   2:BTHID.h       **** 
   3:BTHID.h       ****  This software may be distributed and modified under the terms of the GNU
   4:BTHID.h       ****  General Public License version 2 (GPL2) as published by the Free Software
   5:BTHID.h       ****  Foundation and appearing in the file GPL2.TXT included in the packaging of
   6:BTHID.h       ****  this file. Please note that GPL2 Section 2[b] requires that all works based
   7:BTHID.h       ****  on this software must also be made publicly available under the terms of
   8:BTHID.h       ****  the GPL2 ("Copyleft").
   9:BTHID.h       **** 
  10:BTHID.h       ****  Contact information
  11:BTHID.h       ****  -------------------
  12:BTHID.h       **** 
  13:BTHID.h       ****  Kristian Lauszus, TKJ Electronics
  14:BTHID.h       ****  Web      :  http://www.tkjelectronics.com
  15:BTHID.h       ****  e-mail   :  kristianl@tkjelectronics.com
  16:BTHID.h       ****  */
  17:BTHID.h       **** 
  18:BTHID.h       **** #ifndef _bthid_h_
  19:BTHID.h       **** #define _bthid_h_
  20:BTHID.h       **** 
  21:BTHID.h       **** #include "BTD.h"
  22:BTHID.h       **** #include "hidboot.h"
  23:BTHID.h       **** 
  24:BTHID.h       **** #define KEYBOARD_PARSER_ID      0
  25:BTHID.h       **** #define MOUSE_PARSER_ID         1
  26:BTHID.h       **** #define NUM_PARSERS             2
  27:BTHID.h       **** 
  28:BTHID.h       **** /** This BluetoothService class implements support for Bluetooth HID devices. */
  29:BTHID.h       **** class BTHID : public BluetoothService {
ARM GAS  C:\Users\jrdia\AppData\Local\Temp\ccYHzYw6.s 			page 2


  30:BTHID.h       **** public:
  31:BTHID.h       ****         /**
  32:BTHID.h       ****          * Constructor for the BTHID class.
  33:BTHID.h       ****          * @param  p   Pointer to the BTD class instance.
  34:BTHID.h       ****          * @param  pair   Set this to true in order to pair with the device. If the argument is omi
  35:BTHID.h       ****          * @param  pin   Write the pin to BTD#btdPin. If argument is omitted, then "0000" will be u
  36:BTHID.h       ****          */
  37:BTHID.h       ****         BTHID(BTD *p, bool pair = false, const char *pin = "0000");
  38:BTHID.h       **** 
  39:BTHID.h       ****         /** @name BluetoothService implementation */
  40:BTHID.h       ****         /** Used this to disconnect the devices. */
  41:BTHID.h       ****         void disconnect();
  42:BTHID.h       ****         /**@}*/
  43:BTHID.h       **** 
  44:BTHID.h       ****         /**
  45:BTHID.h       ****          * Get HIDReportParser.
  46:BTHID.h       ****          * @param  id ID of parser.
  47:BTHID.h       ****          * @return    Returns the corresponding HIDReportParser. Returns NULL if id is not valid.
  48:BTHID.h       ****          */
  49:BTHID.h       ****         HIDReportParser *GetReportParser(uint8_t id) {
  50:BTHID.h       ****                 if (id >= NUM_PARSERS)
  51:BTHID.h       ****                         return NULL;
  52:BTHID.h       ****                 return pRptParser[id];
  53:BTHID.h       ****         };
  54:BTHID.h       **** 
  55:BTHID.h       ****         /**
  56:BTHID.h       ****          * Set HIDReportParser to be used.
  57:BTHID.h       ****          * @param  id  Id of parser.
  58:BTHID.h       ****          * @param  prs Pointer to HIDReportParser.
  59:BTHID.h       ****          * @return     Returns true if the HIDReportParser is set. False otherwise.
  60:BTHID.h       ****          */
  61:BTHID.h       ****         bool SetReportParser(uint8_t id, HIDReportParser *prs) {
  62:BTHID.h       ****                 if (id >= NUM_PARSERS)
  63:BTHID.h       ****                         return false;
  64:BTHID.h       ****                 pRptParser[id] = prs;
  65:BTHID.h       ****                 return true;
  66:BTHID.h       ****         };
  67:BTHID.h       **** 
  68:BTHID.h       ****         /**
  69:BTHID.h       ****          * Set HID protocol mode.
  70:BTHID.h       ****          * @param mode HID protocol to use. Either USB_HID_BOOT_PROTOCOL or HID_RPT_PROTOCOL.
  71:BTHID.h       ****          */
  72:BTHID.h       ****         void setProtocolMode(uint8_t mode) {
  73:BTHID.h       ****                 protocolMode = mode;
  74:BTHID.h       ****         };
  75:BTHID.h       **** 
  76:BTHID.h       ****         /**@{*/
  77:BTHID.h       ****         /**
  78:BTHID.h       ****          * Used to set the leds on a keyboard.
  79:BTHID.h       ****          * @param data See ::KBDLEDS in hidboot.h
  80:BTHID.h       ****          */
  81:BTHID.h       ****         void setLeds(struct KBDLEDS data) {
  82:BTHID.h       ****                 setLeds(*((uint8_t*)&data));
  83:BTHID.h       ****         };
  84:BTHID.h       ****         void setLeds(uint8_t data);
  85:BTHID.h       ****         /**@}*/
  86:BTHID.h       **** 
ARM GAS  C:\Users\jrdia\AppData\Local\Temp\ccYHzYw6.s 			page 3


  87:BTHID.h       ****         /** True if a device is connected */
  88:BTHID.h       ****         bool connected;
  89:BTHID.h       **** 
  90:BTHID.h       ****         /** Call this to start the pairing sequence with a device */
  91:BTHID.h       ****         void pair(void) {
  92:BTHID.h       ****                 if(pBtd)
  93:BTHID.h       ****                         pBtd->pairWithHID();
  94:BTHID.h       ****         };
  95:BTHID.h       **** 
  96:BTHID.h       **** protected:
  97:BTHID.h       ****         /** @name BluetoothService implementation */
  98:BTHID.h       ****         /**
  99:BTHID.h       ****          * Used to pass acldata to the services.
 100:BTHID.h       ****          * @param ACLData Incoming acldata.
 101:BTHID.h       ****          */
 102:BTHID.h       ****         void ACLData(uint8_t* ACLData);
 103:BTHID.h       ****         /** Used to run part of the state machine. */
 104:BTHID.h       ****         void Run();
 105:BTHID.h       ****         /** Use this to reset the service. */
 106:BTHID.h       ****         void Reset();
 107:BTHID.h       ****         /**
 108:BTHID.h       ****          * Called when a device is successfully initialized.
 109:BTHID.h       ****          * Use attachOnInit(void (*funcOnInit)(void)) to call your own function.
 110:BTHID.h       ****          * This is useful for instance if you want to set the LEDs in a specific way.
 111:BTHID.h       ****          */
 112:BTHID.h       ****         void onInit() {
 113:BTHID.h       ****                 if(pFuncOnInit)
 114:BTHID.h       ****                         pFuncOnInit(); // Call the user function
 115:BTHID.h       ****                 OnInitBTHID();
 116:BTHID.h       ****         };
 117:BTHID.h       ****         /**@}*/
 118:BTHID.h       **** 
 119:BTHID.h       ****         /** @name Overridable functions */
 120:BTHID.h       ****         /**
 121:BTHID.h       ****          * Used to parse Bluetooth HID data to any class that inherits this class.
 122:BTHID.h       ****          * @param len The length of the incoming data.
 123:BTHID.h       ****          * @param buf Pointer to the data buffer.
 124:BTHID.h       ****          */
 125:BTHID.h       ****         virtual void ParseBTHIDData(uint8_t len, uint8_t *buf) {
  29              		.loc 1 125 0
  30              		.cfi_startproc
  31              		@ args = 0, pretend = 0, frame = 0
  32              		@ frame_needed = 0, uses_anonymous_args = 0
  33              		@ link register save eliminated.
  34              	.LVL0:
 126:BTHID.h       ****                 return;
 127:BTHID.h       ****         };
  35              		.loc 1 127 0
  36              		@ sp needed
  37 0000 7047     		bx	lr
  38              		.cfi_endproc
  39              	.LFE277:
  40              		.cantunwind
  41              		.fnend
  42              		.size	_ZN5BTHID14ParseBTHIDDataEhPh, .-_ZN5BTHID14ParseBTHIDDataEhPh
  43 0002 C046     		.section	.text._ZN5BTHID11OnInitBTHIDEv,"axG",%progbits,_ZN5BTHID11OnInitBTHIDEv,comdat
  44              		.align	2
ARM GAS  C:\Users\jrdia\AppData\Local\Temp\ccYHzYw6.s 			page 4


  45              		.weak	_ZN5BTHID11OnInitBTHIDEv
  46              		.code	16
  47              		.thumb_func
  48              		.type	_ZN5BTHID11OnInitBTHIDEv, %function
  49              	_ZN5BTHID11OnInitBTHIDEv:
  50              		.fnstart
  51              	.LFB278:
 128:BTHID.h       ****         /** Called when a device is connected */
 129:BTHID.h       ****         virtual void OnInitBTHID() {
  52              		.loc 1 129 0
  53              		.cfi_startproc
  54              		@ args = 0, pretend = 0, frame = 0
  55              		@ frame_needed = 0, uses_anonymous_args = 0
  56              		@ link register save eliminated.
  57              	.LVL1:
 130:BTHID.h       ****                 return;
 131:BTHID.h       ****         };
  58              		.loc 1 131 0
  59              		@ sp needed
  60 0000 7047     		bx	lr
  61              		.cfi_endproc
  62              	.LFE278:
  63              		.cantunwind
  64              		.fnend
  65              		.size	_ZN5BTHID11OnInitBTHIDEv, .-_ZN5BTHID11OnInitBTHIDEv
  66 0002 C046     		.section	.text._ZN5BTHID10ResetBTHIDEv,"axG",%progbits,_ZN5BTHID10ResetBTHIDEv,comdat
  67              		.align	2
  68              		.weak	_ZN5BTHID10ResetBTHIDEv
  69              		.code	16
  70              		.thumb_func
  71              		.type	_ZN5BTHID10ResetBTHIDEv, %function
  72              	_ZN5BTHID10ResetBTHIDEv:
  73              		.fnstart
  74              	.LFB279:
 132:BTHID.h       ****         /** Used to reset any buffers in the class that inherits this */
 133:BTHID.h       ****         virtual void ResetBTHID() {
  75              		.loc 1 133 0
  76              		.cfi_startproc
  77              		@ args = 0, pretend = 0, frame = 0
  78              		@ frame_needed = 0, uses_anonymous_args = 0
  79              		@ link register save eliminated.
  80              	.LVL2:
 134:BTHID.h       ****                 return;
 135:BTHID.h       ****         }
  81              		.loc 1 135 0
  82              		@ sp needed
  83 0000 7047     		bx	lr
  84              		.cfi_endproc
  85              	.LFE279:
  86              		.cantunwind
  87              		.fnend
  88              		.size	_ZN5BTHID10ResetBTHIDEv, .-_ZN5BTHID10ResetBTHIDEv
  89 0002 C046     		.section	.text._ZN5BTHID10disconnectEv,"ax",%progbits
  90              		.align	2
  91              		.global	_ZN5BTHID10disconnectEv
  92              		.code	16
  93              		.thumb_func
ARM GAS  C:\Users\jrdia\AppData\Local\Temp\ccYHzYw6.s 			page 5


  94              		.type	_ZN5BTHID10disconnectEv, %function
  95              	_ZN5BTHID10disconnectEv:
  96              		.fnstart
  97              	.LFB284:
  98              		.file 2 "BTHID.c"
   1:BTHID.c       **** /* Copyright (C) 2013 Kristian Lauszus, TKJ Electronics. All rights reserved.
   2:BTHID.c       **** 
   3:BTHID.c       ****  This software may be distributed and modified under the terms of the GNU
   4:BTHID.c       ****  General Public License version 2 (GPL2) as published by the Free Software
   5:BTHID.c       ****  Foundation and appearing in the file GPL2.TXT included in the packaging of
   6:BTHID.c       ****  this file. Please note that GPL2 Section 2[b] requires that all works based
   7:BTHID.c       ****  on this software must also be made publicly available under the terms of
   8:BTHID.c       ****  the GPL2 ("Copyleft").
   9:BTHID.c       **** 
  10:BTHID.c       ****  Contact information
  11:BTHID.c       ****  -------------------
  12:BTHID.c       **** 
  13:BTHID.c       ****  Kristian Lauszus, TKJ Electronics
  14:BTHID.c       ****  Web      :  http://www.tkjelectronics.com
  15:BTHID.c       ****  e-mail   :  kristianl@tkjelectronics.com
  16:BTHID.c       ****  */
  17:BTHID.c       **** 
  18:BTHID.c       **** #include "BTHID.h"
  19:BTHID.c       **** // To enable serial debugging see "settings.h"
  20:BTHID.c       **** //#define EXTRADEBUG // Uncomment to get even more debugging data
  21:BTHID.c       **** //#define PRINTREPORT // Uncomment to print the report send by the HID device
  22:BTHID.c       **** 
  23:BTHID.c       **** BTHID::BTHID(BTD *p, bool pair, const char *pin) :
  24:BTHID.c       **** BluetoothService(p), // Pointer to USB class instance - mandatory
  25:BTHID.c       **** protocolMode(USB_HID_BOOT_PROTOCOL) {
  26:BTHID.c       ****         for(uint8_t i = 0; i < NUM_PARSERS; i++)
  27:BTHID.c       ****                 pRptParser[i] = NULL;
  28:BTHID.c       **** 
  29:BTHID.c       ****         pBtd->pairWithHIDDevice = pair;
  30:BTHID.c       ****         pBtd->btdPin = pin;
  31:BTHID.c       **** 
  32:BTHID.c       ****         /* Set device cid for the control and intterrupt channelse - LSB */
  33:BTHID.c       ****         control_dcid[0] = 0x70; // 0x0070
  34:BTHID.c       ****         control_dcid[1] = 0x00;
  35:BTHID.c       ****         interrupt_dcid[0] = 0x71; // 0x0071
  36:BTHID.c       ****         interrupt_dcid[1] = 0x00;
  37:BTHID.c       **** 
  38:BTHID.c       ****         Reset();
  39:BTHID.c       **** }
  40:BTHID.c       **** 
  41:BTHID.c       **** void BTHID::Reset() {
  42:BTHID.c       ****         connected = false;
  43:BTHID.c       ****         activeConnection = false;
  44:BTHID.c       ****         l2cap_event_flag = 0; // Reset flags
  45:BTHID.c       ****         l2cap_state = L2CAP_WAIT;
  46:BTHID.c       ****         ResetBTHID();
  47:BTHID.c       **** }
  48:BTHID.c       **** 
  49:BTHID.c       **** void BTHID::disconnect() { // Use this void to disconnect the device
  99              		.loc 2 49 0
 100              		.cfi_startproc
 101              		@ args = 0, pretend = 0, frame = 0
ARM GAS  C:\Users\jrdia\AppData\Local\Temp\ccYHzYw6.s 			page 6


 102              		@ frame_needed = 0, uses_anonymous_args = 0
 103              	.LVL3:
 104 0000 10B5     		push	{r4, lr}
 105              		.save {r4, lr}
 106              		.cfi_def_cfa_offset 8
 107              		.cfi_offset 4, -8
 108              		.cfi_offset 14, -4
  50:BTHID.c       ****         // First the HID interrupt channel has to be disconnected, then the HID control channel and
  51:BTHID.c       ****         pBtd->l2cap_disconnection_request(hci_handle, ++identifier, interrupt_scid, interrupt_dcid)
 109              		.loc 2 51 0
 110 0002 0300     		movs	r3, r0
  49:BTHID.c       ****         // First the HID interrupt channel has to be disconnected, then the HID control channel and
 111              		.loc 2 49 0
 112 0004 0400     		movs	r4, r0
 113              		.loc 2 51 0
 114 0006 027D     		ldrb	r2, [r0, #20]
  49:BTHID.c       ****         // First the HID interrupt channel has to be disconnected, then the HID control channel and
 115              		.loc 2 49 0
 116              		.pad #8
 117 0008 82B0     		sub	sp, sp, #8
 118              		.cfi_def_cfa_offset 16
 119              		.loc 2 51 0
 120 000a 0132     		adds	r2, r2, #1
 121 000c D2B2     		uxtb	r2, r2
 122 000e 0275     		strb	r2, [r0, #20]
 123 0010 8189     		ldrh	r1, [r0, #12]
 124 0012 2830     		adds	r0, r0, #40
 125              	.LVL4:
 126 0014 0090     		str	r0, [sp]
 127 0016 1833     		adds	r3, r3, #24
 128              	.LVL5:
 129 0018 A068     		ldr	r0, [r4, #8]
 130 001a FFF7FEFF 		bl	_ZN3BTD27l2cap_disconnection_requestEthPhS0_
 131              	.LVL6:
  52:BTHID.c       ****         Reset();
 132              		.loc 2 52 0
 133 001e 2368     		ldr	r3, [r4]
 134 0020 2000     		movs	r0, r4
 135 0022 9B68     		ldr	r3, [r3, #8]
 136 0024 9847     		blx	r3
 137              	.LVL7:
  53:BTHID.c       ****         l2cap_state = L2CAP_INTERRUPT_DISCONNECT;
 138              		.loc 2 53 0
 139 0026 0922     		movs	r2, #9
 140 0028 2A23     		movs	r3, #42
 141 002a E254     		strb	r2, [r4, r3]
  54:BTHID.c       **** }
 142              		.loc 2 54 0
 143 002c 02B0     		add	sp, sp, #8
 144              		@ sp needed
 145              	.LVL8:
 146 002e 10BD     		pop	{r4, pc}
 147              		.cfi_endproc
 148              	.LFE284:
 149              		.fnend
 150              		.size	_ZN5BTHID10disconnectEv, .-_ZN5BTHID10disconnectEv
 151              		.section	.text._ZN5BTHID3RunEv,"ax",%progbits
ARM GAS  C:\Users\jrdia\AppData\Local\Temp\ccYHzYw6.s 			page 7


 152              		.align	2
 153              		.global	_ZN5BTHID3RunEv
 154              		.code	16
 155              		.thumb_func
 156              		.type	_ZN5BTHID3RunEv, %function
 157              	_ZN5BTHID3RunEv:
 158              		.fnstart
 159              	.LFB287:
  55:BTHID.c       **** 
  56:BTHID.c       **** void BTHID::ACLData(uint8_t* l2capinbuf) {
  57:BTHID.c       ****         if(!pBtd->l2capConnectionClaimed && pBtd->incomingHIDDevice && !connected && !activeConnect
  58:BTHID.c       ****                 if(l2capinbuf[8] == L2CAP_CMD_CONNECTION_REQUEST) {
  59:BTHID.c       ****                         if((l2capinbuf[12] | (l2capinbuf[13] << 8)) == HID_CTRL_PSM) {
  60:BTHID.c       ****                                 pBtd->incomingHIDDevice = false;
  61:BTHID.c       ****                                 pBtd->l2capConnectionClaimed = true; // Claim that the incoming con
  62:BTHID.c       ****                                 activeConnection = true;
  63:BTHID.c       ****                                 hci_handle = pBtd->hci_handle; // Store the HCI Handle for the conn
  64:BTHID.c       ****                                 l2cap_state = L2CAP_WAIT;
  65:BTHID.c       ****                         }
  66:BTHID.c       ****                 }
  67:BTHID.c       ****         }
  68:BTHID.c       **** 
  69:BTHID.c       ****         if(checkHciHandle(l2capinbuf, hci_handle)) { // acl_handle_ok
  70:BTHID.c       ****                 if((l2capinbuf[6] | (l2capinbuf[7] << 8)) == 0x0001U) { // l2cap_control - Channel 
  71:BTHID.c       ****                         if(l2capinbuf[8] == L2CAP_CMD_COMMAND_REJECT) {
  72:BTHID.c       **** #ifdef DEBUG_USB_HOST
  73:BTHID.c       ****                                 Notify(PSTR("\r\nL2CAP Command Rejected - Reason: "), 0x80);
  74:BTHID.c       ****                                 D_PrintHex<uint8_t > (l2capinbuf[13], 0x80);
  75:BTHID.c       ****                                 Notify(PSTR(" "), 0x80);
  76:BTHID.c       ****                                 D_PrintHex<uint8_t > (l2capinbuf[12], 0x80);
  77:BTHID.c       ****                                 Notify(PSTR(" "), 0x80);
  78:BTHID.c       ****                                 D_PrintHex<uint8_t > (l2capinbuf[17], 0x80);
  79:BTHID.c       ****                                 Notify(PSTR(" "), 0x80);
  80:BTHID.c       ****                                 D_PrintHex<uint8_t > (l2capinbuf[16], 0x80);
  81:BTHID.c       ****                                 Notify(PSTR(" "), 0x80);
  82:BTHID.c       ****                                 D_PrintHex<uint8_t > (l2capinbuf[15], 0x80);
  83:BTHID.c       ****                                 Notify(PSTR(" "), 0x80);
  84:BTHID.c       ****                                 D_PrintHex<uint8_t > (l2capinbuf[14], 0x80);
  85:BTHID.c       **** #endif
  86:BTHID.c       ****                         } else if(l2capinbuf[8] == L2CAP_CMD_CONNECTION_RESPONSE) {
  87:BTHID.c       ****                                 if(((l2capinbuf[16] | (l2capinbuf[17] << 8)) == 0x0000) && ((l2capi
  88:BTHID.c       ****                                         if(l2capinbuf[14] == control_dcid[0] && l2capinbuf[15] == c
  89:BTHID.c       ****                                                 //Notify(PSTR("\r\nHID Control Connection Complete"
  90:BTHID.c       ****                                                 identifier = l2capinbuf[9];
  91:BTHID.c       ****                                                 control_scid[0] = l2capinbuf[12];
  92:BTHID.c       ****                                                 control_scid[1] = l2capinbuf[13];
  93:BTHID.c       ****                                                 l2cap_set_flag(L2CAP_FLAG_CONTROL_CONNECTED);
  94:BTHID.c       ****                                         } else if(l2capinbuf[14] == interrupt_dcid[0] && l2capinbuf
  95:BTHID.c       ****                                                 //Notify(PSTR("\r\nHID Interrupt Connection Complet
  96:BTHID.c       ****                                                 identifier = l2capinbuf[9];
  97:BTHID.c       ****                                                 interrupt_scid[0] = l2capinbuf[12];
  98:BTHID.c       ****                                                 interrupt_scid[1] = l2capinbuf[13];
  99:BTHID.c       ****                                                 l2cap_set_flag(L2CAP_FLAG_INTERRUPT_CONNECTED);
 100:BTHID.c       ****                                         }
 101:BTHID.c       ****                                 }
 102:BTHID.c       ****                         } else if(l2capinbuf[8] == L2CAP_CMD_CONNECTION_REQUEST) {
 103:BTHID.c       **** #ifdef EXTRADEBUG
ARM GAS  C:\Users\jrdia\AppData\Local\Temp\ccYHzYw6.s 			page 8


 104:BTHID.c       ****                                 Notify(PSTR("\r\nL2CAP Connection Request - PSM: "), 0x80);
 105:BTHID.c       ****                                 D_PrintHex<uint8_t > (l2capinbuf[13], 0x80);
 106:BTHID.c       ****                                 Notify(PSTR(" "), 0x80);
 107:BTHID.c       ****                                 D_PrintHex<uint8_t > (l2capinbuf[12], 0x80);
 108:BTHID.c       ****                                 Notify(PSTR(" SCID: "), 0x80);
 109:BTHID.c       ****                                 D_PrintHex<uint8_t > (l2capinbuf[15], 0x80);
 110:BTHID.c       ****                                 Notify(PSTR(" "), 0x80);
 111:BTHID.c       ****                                 D_PrintHex<uint8_t > (l2capinbuf[14], 0x80);
 112:BTHID.c       ****                                 Notify(PSTR(" Identifier: "), 0x80);
 113:BTHID.c       ****                                 D_PrintHex<uint8_t > (l2capinbuf[9], 0x80);
 114:BTHID.c       **** #endif
 115:BTHID.c       ****                                 if((l2capinbuf[12] | (l2capinbuf[13] << 8)) == HID_CTRL_PSM) {
 116:BTHID.c       ****                                         identifier = l2capinbuf[9];
 117:BTHID.c       ****                                         control_scid[0] = l2capinbuf[14];
 118:BTHID.c       ****                                         control_scid[1] = l2capinbuf[15];
 119:BTHID.c       ****                                         l2cap_set_flag(L2CAP_FLAG_CONNECTION_CONTROL_REQUEST);
 120:BTHID.c       ****                                 } else if((l2capinbuf[12] | (l2capinbuf[13] << 8)) == HID_INTR_PSM)
 121:BTHID.c       ****                                         identifier = l2capinbuf[9];
 122:BTHID.c       ****                                         interrupt_scid[0] = l2capinbuf[14];
 123:BTHID.c       ****                                         interrupt_scid[1] = l2capinbuf[15];
 124:BTHID.c       ****                                         l2cap_set_flag(L2CAP_FLAG_CONNECTION_INTERRUPT_REQUEST);
 125:BTHID.c       ****                                 }
 126:BTHID.c       ****                         } else if(l2capinbuf[8] == L2CAP_CMD_CONFIG_RESPONSE) {
 127:BTHID.c       ****                                 if((l2capinbuf[16] | (l2capinbuf[17] << 8)) == 0x0000) { // Success
 128:BTHID.c       ****                                         if(l2capinbuf[12] == control_dcid[0] && l2capinbuf[13] == c
 129:BTHID.c       ****                                                 //Notify(PSTR("\r\nHID Control Configuration Comple
 130:BTHID.c       ****                                                 identifier = l2capinbuf[9];
 131:BTHID.c       ****                                                 l2cap_set_flag(L2CAP_FLAG_CONFIG_CONTROL_SUCCESS);
 132:BTHID.c       ****                                         } else if(l2capinbuf[12] == interrupt_dcid[0] && l2capinbuf
 133:BTHID.c       ****                                                 //Notify(PSTR("\r\nHID Interrupt Configuration Comp
 134:BTHID.c       ****                                                 identifier = l2capinbuf[9];
 135:BTHID.c       ****                                                 l2cap_set_flag(L2CAP_FLAG_CONFIG_INTERRUPT_SUCCESS)
 136:BTHID.c       ****                                         }
 137:BTHID.c       ****                                 }
 138:BTHID.c       ****                         } else if(l2capinbuf[8] == L2CAP_CMD_CONFIG_REQUEST) {
 139:BTHID.c       ****                                 if(l2capinbuf[12] == control_dcid[0] && l2capinbuf[13] == control_d
 140:BTHID.c       ****                                         //Notify(PSTR("\r\nHID Control Configuration Request"), 0x8
 141:BTHID.c       ****                                         pBtd->l2cap_config_response(hci_handle, l2capinbuf[9], cont
 142:BTHID.c       ****                                 } else if(l2capinbuf[12] == interrupt_dcid[0] && l2capinbuf[13] == 
 143:BTHID.c       ****                                         //Notify(PSTR("\r\nHID Interrupt Configuration Request"), 0
 144:BTHID.c       ****                                         pBtd->l2cap_config_response(hci_handle, l2capinbuf[9], inte
 145:BTHID.c       ****                                 }
 146:BTHID.c       ****                         } else if(l2capinbuf[8] == L2CAP_CMD_DISCONNECT_REQUEST) {
 147:BTHID.c       ****                                 if(l2capinbuf[12] == control_dcid[0] && l2capinbuf[13] == control_d
 148:BTHID.c       **** #ifdef DEBUG_USB_HOST
 149:BTHID.c       ****                                         Notify(PSTR("\r\nDisconnect Request: Control Channel"), 0x8
 150:BTHID.c       **** #endif
 151:BTHID.c       ****                                         identifier = l2capinbuf[9];
 152:BTHID.c       ****                                         pBtd->l2cap_disconnection_response(hci_handle, identifier, 
 153:BTHID.c       ****                                         Reset();
 154:BTHID.c       ****                                 } else if(l2capinbuf[12] == interrupt_dcid[0] && l2capinbuf[13] == 
 155:BTHID.c       **** #ifdef DEBUG_USB_HOST
 156:BTHID.c       ****                                         Notify(PSTR("\r\nDisconnect Request: Interrupt Channel"), 0
 157:BTHID.c       **** #endif
 158:BTHID.c       ****                                         identifier = l2capinbuf[9];
 159:BTHID.c       ****                                         pBtd->l2cap_disconnection_response(hci_handle, identifier, 
 160:BTHID.c       ****                                         Reset();
ARM GAS  C:\Users\jrdia\AppData\Local\Temp\ccYHzYw6.s 			page 9


 161:BTHID.c       ****                                 }
 162:BTHID.c       ****                         } else if(l2capinbuf[8] == L2CAP_CMD_DISCONNECT_RESPONSE) {
 163:BTHID.c       ****                                 if(l2capinbuf[12] == control_scid[0] && l2capinbuf[13] == control_s
 164:BTHID.c       ****                                         //Notify(PSTR("\r\nDisconnect Response: Control Channel"), 
 165:BTHID.c       ****                                         identifier = l2capinbuf[9];
 166:BTHID.c       ****                                         l2cap_set_flag(L2CAP_FLAG_DISCONNECT_CONTROL_RESPONSE);
 167:BTHID.c       ****                                 } else if(l2capinbuf[12] == interrupt_scid[0] && l2capinbuf[13] == 
 168:BTHID.c       ****                                         //Notify(PSTR("\r\nDisconnect Response: Interrupt Channel")
 169:BTHID.c       ****                                         identifier = l2capinbuf[9];
 170:BTHID.c       ****                                         l2cap_set_flag(L2CAP_FLAG_DISCONNECT_INTERRUPT_RESPONSE);
 171:BTHID.c       ****                                 }
 172:BTHID.c       ****                         }
 173:BTHID.c       **** #ifdef EXTRADEBUG
 174:BTHID.c       ****                         else {
 175:BTHID.c       ****                                 identifier = l2capinbuf[9];
 176:BTHID.c       ****                                 Notify(PSTR("\r\nL2CAP Unknown Signaling Command: "), 0x80);
 177:BTHID.c       ****                                 D_PrintHex<uint8_t > (l2capinbuf[8], 0x80);
 178:BTHID.c       ****                         }
 179:BTHID.c       **** #endif
 180:BTHID.c       ****                 } else if(l2capinbuf[6] == interrupt_dcid[0] && l2capinbuf[7] == interrupt_dcid[1])
 181:BTHID.c       **** #ifdef PRINTREPORT
 182:BTHID.c       ****                         Notify(PSTR("\r\nL2CAP Interrupt: "), 0x80);
 183:BTHID.c       ****                         for(uint16_t i = 0; i < ((uint16_t)l2capinbuf[5] << 8 | l2capinbuf[4]); i++
 184:BTHID.c       ****                                 D_PrintHex<uint8_t > (l2capinbuf[i + 8], 0x80);
 185:BTHID.c       ****                                 Notify(PSTR(" "), 0x80);
 186:BTHID.c       ****                         }
 187:BTHID.c       **** #endif
 188:BTHID.c       ****                         if(l2capinbuf[8] == 0xA1) { // HID_THDR_DATA_INPUT
 189:BTHID.c       ****                                 uint16_t length = ((uint16_t)l2capinbuf[5] << 8 | l2capinbuf[4]);
 190:BTHID.c       ****                                 ParseBTHIDData((uint8_t)(length - 1), &l2capinbuf[9]);
 191:BTHID.c       **** 
 192:BTHID.c       ****                                 switch(l2capinbuf[9]) {
 193:BTHID.c       ****                                         case 0x01: // Keyboard or Joystick events
 194:BTHID.c       ****                                                 if(pRptParser[KEYBOARD_PARSER_ID])
 195:BTHID.c       ****                                                         pRptParser[KEYBOARD_PARSER_ID]->Parse(reint
 196:BTHID.c       ****                                                 break;
 197:BTHID.c       **** 
 198:BTHID.c       ****                                         case 0x02: // Mouse events
 199:BTHID.c       ****                                                 if(pRptParser[MOUSE_PARSER_ID])
 200:BTHID.c       ****                                                         pRptParser[MOUSE_PARSER_ID]->Parse(reinterp
 201:BTHID.c       ****                                                 break;
 202:BTHID.c       **** #ifdef EXTRADEBUG
 203:BTHID.c       ****                                         default:
 204:BTHID.c       ****                                                 Notify(PSTR("\r\nUnknown Report type: "), 0x80);
 205:BTHID.c       ****                                                 D_PrintHex<uint8_t > (l2capinbuf[9], 0x80);
 206:BTHID.c       ****                                                 break;
 207:BTHID.c       **** #endif
 208:BTHID.c       ****                                 }
 209:BTHID.c       ****                         }
 210:BTHID.c       ****                 } else if(l2capinbuf[6] == control_dcid[0] && l2capinbuf[7] == control_dcid[1]) { /
 211:BTHID.c       **** #ifdef PRINTREPORT
 212:BTHID.c       ****                         Notify(PSTR("\r\nL2CAP Control: "), 0x80);
 213:BTHID.c       ****                         for(uint16_t i = 0; i < ((uint16_t)l2capinbuf[5] << 8 | l2capinbuf[4]); i++
 214:BTHID.c       ****                                 D_PrintHex<uint8_t > (l2capinbuf[i + 8], 0x80);
 215:BTHID.c       ****                                 Notify(PSTR(" "), 0x80);
 216:BTHID.c       ****                         }
 217:BTHID.c       **** #endif
ARM GAS  C:\Users\jrdia\AppData\Local\Temp\ccYHzYw6.s 			page 10


 218:BTHID.c       ****                 }
 219:BTHID.c       **** #ifdef EXTRADEBUG
 220:BTHID.c       ****                 else {
 221:BTHID.c       ****                         Notify(PSTR("\r\nUnsupported L2CAP Data - Channel ID: "), 0x80);
 222:BTHID.c       ****                         D_PrintHex<uint8_t > (l2capinbuf[7], 0x80);
 223:BTHID.c       ****                         Notify(PSTR(" "), 0x80);
 224:BTHID.c       ****                         D_PrintHex<uint8_t > (l2capinbuf[6], 0x80);
 225:BTHID.c       **** 
 226:BTHID.c       ****                         Notify(PSTR("\r\nData: "), 0x80);
 227:BTHID.c       ****                         Notify(PSTR("\r\n"), 0x80);
 228:BTHID.c       ****                         for(uint16_t i = 0; i < ((uint16_t)l2capinbuf[5] << 8 | l2capinbuf[4]); i++
 229:BTHID.c       ****                                 D_PrintHex<uint8_t > (l2capinbuf[i + 8], 0x80);
 230:BTHID.c       ****                                 Notify(PSTR(" "), 0x80);
 231:BTHID.c       ****                         }
 232:BTHID.c       ****                 }
 233:BTHID.c       **** #endif
 234:BTHID.c       ****                 L2CAP_task();
 235:BTHID.c       ****         }
 236:BTHID.c       **** }
 237:BTHID.c       **** 
 238:BTHID.c       **** void BTHID::L2CAP_task() {
 239:BTHID.c       ****         switch(l2cap_state) {
 240:BTHID.c       ****                         /* These states are used if the HID device is the host */
 241:BTHID.c       ****                 case L2CAP_CONTROL_SUCCESS:
 242:BTHID.c       ****                         if(l2cap_check_flag(L2CAP_FLAG_CONFIG_CONTROL_SUCCESS)) {
 243:BTHID.c       **** #ifdef DEBUG_USB_HOST
 244:BTHID.c       ****                                 Notify(PSTR("\r\nHID Control Successfully Configured"), 0x80);
 245:BTHID.c       **** #endif
 246:BTHID.c       ****                                 setProtocol(); // Set protocol before establishing HID interrupt ch
 247:BTHID.c       ****                                 l2cap_state = L2CAP_INTERRUPT_SETUP;
 248:BTHID.c       ****                         }
 249:BTHID.c       ****                         break;
 250:BTHID.c       **** 
 251:BTHID.c       ****                 case L2CAP_INTERRUPT_SETUP:
 252:BTHID.c       ****                         if(l2cap_check_flag(L2CAP_FLAG_CONNECTION_INTERRUPT_REQUEST)) {
 253:BTHID.c       **** #ifdef DEBUG_USB_HOST
 254:BTHID.c       ****                                 Notify(PSTR("\r\nHID Interrupt Incoming Connection Request"), 0x80)
 255:BTHID.c       **** #endif
 256:BTHID.c       ****                                 pBtd->l2cap_connection_response(hci_handle, identifier, interrupt_d
 257:BTHID.c       ****                                 delay(1);
 258:BTHID.c       ****                                 pBtd->l2cap_connection_response(hci_handle, identifier, interrupt_d
 259:BTHID.c       ****                                 identifier++;
 260:BTHID.c       ****                                 delay(1);
 261:BTHID.c       ****                                 pBtd->l2cap_config_request(hci_handle, identifier, interrupt_scid);
 262:BTHID.c       **** 
 263:BTHID.c       ****                                 l2cap_state = L2CAP_INTERRUPT_CONFIG_REQUEST;
 264:BTHID.c       ****                         }
 265:BTHID.c       ****                         break;
 266:BTHID.c       **** 
 267:BTHID.c       ****                         /* These states are used if the Arduino is the host */
 268:BTHID.c       ****                 case L2CAP_CONTROL_CONNECT_REQUEST:
 269:BTHID.c       ****                         if(l2cap_check_flag(L2CAP_FLAG_CONTROL_CONNECTED)) {
 270:BTHID.c       **** #ifdef DEBUG_USB_HOST
 271:BTHID.c       ****                                 Notify(PSTR("\r\nSend HID Control Config Request"), 0x80);
 272:BTHID.c       **** #endif
 273:BTHID.c       ****                                 identifier++;
 274:BTHID.c       ****                                 pBtd->l2cap_config_request(hci_handle, identifier, control_scid);
ARM GAS  C:\Users\jrdia\AppData\Local\Temp\ccYHzYw6.s 			page 11


 275:BTHID.c       ****                                 l2cap_state = L2CAP_CONTROL_CONFIG_REQUEST;
 276:BTHID.c       ****                         }
 277:BTHID.c       ****                         break;
 278:BTHID.c       **** 
 279:BTHID.c       ****                 case L2CAP_CONTROL_CONFIG_REQUEST:
 280:BTHID.c       ****                         if(l2cap_check_flag(L2CAP_FLAG_CONFIG_CONTROL_SUCCESS)) {
 281:BTHID.c       ****                                 setProtocol(); // Set protocol before establishing HID interrupt ch
 282:BTHID.c       ****                                 delay(1); // Short delay between commands - just to be sure
 283:BTHID.c       **** #ifdef DEBUG_USB_HOST
 284:BTHID.c       ****                                 Notify(PSTR("\r\nSend HID Interrupt Connection Request"), 0x80);
 285:BTHID.c       **** #endif
 286:BTHID.c       ****                                 identifier++;
 287:BTHID.c       ****                                 pBtd->l2cap_connection_request(hci_handle, identifier, interrupt_dc
 288:BTHID.c       ****                                 l2cap_state = L2CAP_INTERRUPT_CONNECT_REQUEST;
 289:BTHID.c       ****                         }
 290:BTHID.c       ****                         break;
 291:BTHID.c       **** 
 292:BTHID.c       ****                 case L2CAP_INTERRUPT_CONNECT_REQUEST:
 293:BTHID.c       ****                         if(l2cap_check_flag(L2CAP_FLAG_INTERRUPT_CONNECTED)) {
 294:BTHID.c       **** #ifdef DEBUG_USB_HOST
 295:BTHID.c       ****                                 Notify(PSTR("\r\nSend HID Interrupt Config Request"), 0x80);
 296:BTHID.c       **** #endif
 297:BTHID.c       ****                                 identifier++;
 298:BTHID.c       ****                                 pBtd->l2cap_config_request(hci_handle, identifier, interrupt_scid);
 299:BTHID.c       ****                                 l2cap_state = L2CAP_INTERRUPT_CONFIG_REQUEST;
 300:BTHID.c       ****                         }
 301:BTHID.c       ****                         break;
 302:BTHID.c       **** 
 303:BTHID.c       ****                 case L2CAP_INTERRUPT_CONFIG_REQUEST:
 304:BTHID.c       ****                         if(l2cap_check_flag(L2CAP_FLAG_CONFIG_INTERRUPT_SUCCESS)) { // Now the HID 
 305:BTHID.c       **** #ifdef DEBUG_USB_HOST
 306:BTHID.c       ****                                 Notify(PSTR("\r\nHID Channels Established"), 0x80);
 307:BTHID.c       **** #endif
 308:BTHID.c       ****                                 pBtd->connectToHIDDevice = false;
 309:BTHID.c       ****                                 pBtd->pairWithHIDDevice = false;
 310:BTHID.c       ****                                 connected = true;
 311:BTHID.c       ****                                 onInit();
 312:BTHID.c       ****                                 l2cap_state = L2CAP_DONE;
 313:BTHID.c       ****                         }
 314:BTHID.c       ****                         break;
 315:BTHID.c       **** 
 316:BTHID.c       ****                 case L2CAP_DONE:
 317:BTHID.c       ****                         break;
 318:BTHID.c       **** 
 319:BTHID.c       ****                 case L2CAP_INTERRUPT_DISCONNECT:
 320:BTHID.c       ****                         if(l2cap_check_flag(L2CAP_FLAG_DISCONNECT_INTERRUPT_RESPONSE)) {
 321:BTHID.c       **** #ifdef DEBUG_USB_HOST
 322:BTHID.c       ****                                 Notify(PSTR("\r\nDisconnected Interrupt Channel"), 0x80);
 323:BTHID.c       **** #endif
 324:BTHID.c       ****                                 identifier++;
 325:BTHID.c       ****                                 pBtd->l2cap_disconnection_request(hci_handle, identifier, control_s
 326:BTHID.c       ****                                 l2cap_state = L2CAP_CONTROL_DISCONNECT;
 327:BTHID.c       ****                         }
 328:BTHID.c       ****                         break;
 329:BTHID.c       **** 
 330:BTHID.c       ****                 case L2CAP_CONTROL_DISCONNECT:
 331:BTHID.c       ****                         if(l2cap_check_flag(L2CAP_FLAG_DISCONNECT_CONTROL_RESPONSE)) {
ARM GAS  C:\Users\jrdia\AppData\Local\Temp\ccYHzYw6.s 			page 12


 332:BTHID.c       **** #ifdef DEBUG_USB_HOST
 333:BTHID.c       ****                                 Notify(PSTR("\r\nDisconnected Control Channel"), 0x80);
 334:BTHID.c       **** #endif
 335:BTHID.c       ****                                 pBtd->hci_disconnect(hci_handle);
 336:BTHID.c       ****                                 hci_handle = -1; // Reset handle
 337:BTHID.c       ****                                 l2cap_event_flag = 0; // Reset flags
 338:BTHID.c       ****                                 l2cap_state = L2CAP_WAIT;
 339:BTHID.c       ****                         }
 340:BTHID.c       ****                         break;
 341:BTHID.c       ****         }
 342:BTHID.c       **** }
 343:BTHID.c       **** 
 344:BTHID.c       **** void BTHID::Run() {
 160              		.loc 2 344 0
 161              		.cfi_startproc
 162              		@ args = 0, pretend = 0, frame = 0
 163              		@ frame_needed = 0, uses_anonymous_args = 0
 164              	.LVL9:
 165 0000 70B5     		push	{r4, r5, r6, lr}
 166              		.save {r4, r5, r6, lr}
 167              		.cfi_def_cfa_offset 16
 168              		.cfi_offset 4, -16
 169              		.cfi_offset 5, -12
 170              		.cfi_offset 6, -8
 171              		.cfi_offset 14, -4
 345:BTHID.c       ****         switch(l2cap_state) {
 172              		.loc 2 345 0
 173 0002 2A25     		movs	r5, #42
 174 0004 435D     		ldrb	r3, [r0, r5]
 344:BTHID.c       ****         switch(l2cap_state) {
 175              		.loc 2 344 0
 176              		.pad #8
 177 0006 82B0     		sub	sp, sp, #8
 178              		.cfi_def_cfa_offset 24
 344:BTHID.c       ****         switch(l2cap_state) {
 179              		.loc 2 344 0
 180 0008 0400     		movs	r4, r0
 181              		.loc 2 345 0
 182 000a 002B     		cmp	r3, #0
 183 000c 12D1     		bne	.L5
 184              	.LVL10:
 185              	.LBB26:
 186              	.LBB27:
 346:BTHID.c       ****                 case L2CAP_WAIT:
 347:BTHID.c       ****                         if(pBtd->connectToHIDDevice && !pBtd->l2capConnectionClaimed && !connected 
 187              		.loc 2 347 0
 188 000e 8068     		ldr	r0, [r0, #8]
 189              	.LVL11:
 190 0010 4633     		adds	r3, r3, #70
 191 0012 C35C     		ldrb	r3, [r0, r3]
 192 0014 002B     		cmp	r3, #0
 193 0016 09D0     		beq	.L8
 194 0018 437A     		ldrb	r3, [r0, #9]
 195 001a 002B     		cmp	r3, #0
 196 001c 06D1     		bne	.L8
 197 001e 637D     		ldrb	r3, [r4, #21]
 198 0020 002B     		cmp	r3, #0
ARM GAS  C:\Users\jrdia\AppData\Local\Temp\ccYHzYw6.s 			page 13


 199 0022 03D1     		bne	.L8
 200 0024 2522     		movs	r2, #37
 201 0026 A35C     		ldrb	r3, [r4, r2]
 202 0028 002B     		cmp	r3, #0
 203 002a 2CD0     		beq	.L16
 204              	.L8:
 348:BTHID.c       ****                                 pBtd->l2capConnectionClaimed = true;
 349:BTHID.c       ****                                 activeConnection = true;
 350:BTHID.c       **** #ifdef DEBUG_USB_HOST
 351:BTHID.c       ****                                 Notify(PSTR("\r\nSend HID Control Connection Request"), 0x80);
 352:BTHID.c       **** #endif
 353:BTHID.c       ****                                 hci_handle = pBtd->hci_handle; // Store the HCI Handle for the conn
 354:BTHID.c       ****                                 l2cap_event_flag = 0; // Reset flags
 355:BTHID.c       ****                                 identifier = 0;
 356:BTHID.c       ****                                 pBtd->l2cap_connection_request(hci_handle, identifier, control_dcid
 357:BTHID.c       ****                                 l2cap_state = L2CAP_CONTROL_CONNECT_REQUEST;
 358:BTHID.c       ****                         } else if(l2cap_check_flag(L2CAP_FLAG_CONNECTION_CONTROL_REQUEST)) {
 205              		.loc 2 358 0
 206 002c 0123     		movs	r3, #1
 207 002e 2269     		ldr	r2, [r4, #16]
 208 0030 1A42     		tst	r2, r3
 209 0032 01D1     		bne	.L17
 210              	.LVL12:
 211              	.L5:
 212              	.LBE27:
 213              	.LBE26:
 359:BTHID.c       **** #ifdef DEBUG_USB_HOST
 360:BTHID.c       ****                                 Notify(PSTR("\r\nHID Control Incoming Connection Request"), 0x80);
 361:BTHID.c       **** #endif
 362:BTHID.c       ****                                 pBtd->l2cap_connection_response(hci_handle, identifier, control_dci
 363:BTHID.c       ****                                 delay(1);
 364:BTHID.c       ****                                 pBtd->l2cap_connection_response(hci_handle, identifier, control_dci
 365:BTHID.c       ****                                 identifier++;
 366:BTHID.c       ****                                 delay(1);
 367:BTHID.c       ****                                 pBtd->l2cap_config_request(hci_handle, identifier, control_scid);
 368:BTHID.c       ****                                 l2cap_state = L2CAP_CONTROL_SUCCESS;
 369:BTHID.c       ****                         }
 370:BTHID.c       ****                         break;
 371:BTHID.c       ****         }
 372:BTHID.c       **** }
 214              		.loc 2 372 0
 215 0034 02B0     		add	sp, sp, #8
 216              		@ sp needed
 217              	.LVL13:
 218 0036 70BD     		pop	{r4, r5, r6, pc}
 219              	.LVL14:
 220              	.L17:
 221              	.LBB30:
 222              	.LBB28:
 362:BTHID.c       ****                                 delay(1);
 223              		.loc 2 362 0
 224 0038 2600     		movs	r6, r4
 225 003a 2500     		movs	r5, r4
 226 003c 2636     		adds	r6, r6, #38
 227 003e 1635     		adds	r5, r5, #22
 228 0040 227D     		ldrb	r2, [r4, #20]
 229 0042 A189     		ldrh	r1, [r4, #12]
ARM GAS  C:\Users\jrdia\AppData\Local\Temp\ccYHzYw6.s 			page 14


 230 0044 0193     		str	r3, [sp, #4]
 231 0046 0095     		str	r5, [sp]
 232 0048 3300     		movs	r3, r6
 233 004a FFF7FEFF 		bl	_ZN3BTD25l2cap_connection_responseEthPhS0_h
 234              	.LVL15:
 363:BTHID.c       ****                                 pBtd->l2cap_connection_response(hci_handle, identifier, control_dci
 235              		.loc 2 363 0
 236 004e 0120     		movs	r0, #1
 237 0050 FFF7FEFF 		bl	delay
 238              	.LVL16:
 364:BTHID.c       ****                                 identifier++;
 239              		.loc 2 364 0
 240 0054 0023     		movs	r3, #0
 241 0056 227D     		ldrb	r2, [r4, #20]
 242 0058 A189     		ldrh	r1, [r4, #12]
 243 005a 0193     		str	r3, [sp, #4]
 244 005c A068     		ldr	r0, [r4, #8]
 245 005e 3300     		movs	r3, r6
 246 0060 0095     		str	r5, [sp]
 247 0062 FFF7FEFF 		bl	_ZN3BTD25l2cap_connection_responseEthPhS0_h
 248              	.LVL17:
 365:BTHID.c       ****                                 delay(1);
 249              		.loc 2 365 0
 250 0066 237D     		ldrb	r3, [r4, #20]
 366:BTHID.c       ****                                 pBtd->l2cap_config_request(hci_handle, identifier, control_scid);
 251              		.loc 2 366 0
 252 0068 0120     		movs	r0, #1
 365:BTHID.c       ****                                 delay(1);
 253              		.loc 2 365 0
 254 006a 0133     		adds	r3, r3, #1
 255 006c 2375     		strb	r3, [r4, #20]
 366:BTHID.c       ****                                 pBtd->l2cap_config_request(hci_handle, identifier, control_scid);
 256              		.loc 2 366 0
 257 006e FFF7FEFF 		bl	delay
 258              	.LVL18:
 367:BTHID.c       ****                                 l2cap_state = L2CAP_CONTROL_SUCCESS;
 259              		.loc 2 367 0
 260 0072 227D     		ldrb	r2, [r4, #20]
 261 0074 2B00     		movs	r3, r5
 262 0076 A189     		ldrh	r1, [r4, #12]
 263 0078 A068     		ldr	r0, [r4, #8]
 264 007a FFF7FEFF 		bl	_ZN3BTD20l2cap_config_requestEthPh
 265              	.LVL19:
 368:BTHID.c       ****                         }
 266              		.loc 2 368 0
 267 007e 0422     		movs	r2, #4
 268 0080 2A23     		movs	r3, #42
 269 0082 E254     		strb	r2, [r4, r3]
 270              	.LBE28:
 271              	.LBE30:
 272              		.loc 2 372 0
 273 0084 D6E7     		b	.L5
 274              	.L16:
 275              	.LBB31:
 276              	.LBB29:
 348:BTHID.c       ****                                 activeConnection = true;
 277              		.loc 2 348 0
ARM GAS  C:\Users\jrdia\AppData\Local\Temp\ccYHzYw6.s 			page 15


 278 0086 0121     		movs	r1, #1
 279 0088 4172     		strb	r1, [r0, #9]
 349:BTHID.c       **** #ifdef DEBUG_USB_HOST
 280              		.loc 2 349 0
 281 008a A154     		strb	r1, [r4, r2]
 353:BTHID.c       ****                                 l2cap_event_flag = 0; // Reset flags
 282              		.loc 2 353 0
 283 008c 418B     		ldrh	r1, [r0, #26]
 354:BTHID.c       ****                                 identifier = 0;
 284              		.loc 2 354 0
 285 008e 2361     		str	r3, [r4, #16]
 355:BTHID.c       ****                                 pBtd->l2cap_connection_request(hci_handle, identifier, control_dcid
 286              		.loc 2 355 0
 287 0090 2375     		strb	r3, [r4, #20]
 356:BTHID.c       ****                                 l2cap_state = L2CAP_CONTROL_CONNECT_REQUEST;
 288              		.loc 2 356 0
 289 0092 2300     		movs	r3, r4
 290 0094 143A     		subs	r2, r2, #20
 291 0096 2633     		adds	r3, r3, #38
 292 0098 0092     		str	r2, [sp]
 353:BTHID.c       ****                                 l2cap_event_flag = 0; // Reset flags
 293              		.loc 2 353 0
 294 009a A181     		strh	r1, [r4, #12]
 356:BTHID.c       ****                                 l2cap_state = L2CAP_CONTROL_CONNECT_REQUEST;
 295              		.loc 2 356 0
 296 009c 0022     		movs	r2, #0
 297 009e FFF7FEFF 		bl	_ZN3BTD24l2cap_connection_requestEthPht
 298              	.LVL20:
 357:BTHID.c       ****                         } else if(l2cap_check_flag(L2CAP_FLAG_CONNECTION_CONTROL_REQUEST)) {
 299              		.loc 2 357 0
 300 00a2 0223     		movs	r3, #2
 301 00a4 6355     		strb	r3, [r4, r5]
 302 00a6 C5E7     		b	.L5
 303              	.LBE29:
 304              	.LBE31:
 305              		.cfi_endproc
 306              	.LFE287:
 307              		.fnend
 308              		.size	_ZN5BTHID3RunEv, .-_ZN5BTHID3RunEv
 309              		.section	.text._ZN5BTHID6onInitEv,"axG",%progbits,_ZN5BTHID6onInitEv,comdat
 310              		.align	2
 311              		.weak	_ZN5BTHID6onInitEv
 312              		.code	16
 313              		.thumb_func
 314              		.type	_ZN5BTHID6onInitEv, %function
 315              	_ZN5BTHID6onInitEv:
 316              		.fnstart
 317              	.LFB276:
 112:BTHID.h       ****                 if(pFuncOnInit)
 318              		.loc 1 112 0
 319              		.cfi_startproc
 320              		@ args = 0, pretend = 0, frame = 0
 321              		@ frame_needed = 0, uses_anonymous_args = 0
 322              	.LVL21:
 113:BTHID.h       ****                         pFuncOnInit(); // Call the user function
 323              		.loc 1 113 0
 324 0000 4368     		ldr	r3, [r0, #4]
ARM GAS  C:\Users\jrdia\AppData\Local\Temp\ccYHzYw6.s 			page 16


 112:BTHID.h       ****                 if(pFuncOnInit)
 325              		.loc 1 112 0
 326 0002 10B5     		push	{r4, lr}
 327              		.save {r4, lr}
 328              		.cfi_def_cfa_offset 8
 329              		.cfi_offset 4, -8
 330              		.cfi_offset 14, -4
 112:BTHID.h       ****                 if(pFuncOnInit)
 331              		.loc 1 112 0
 332 0004 0400     		movs	r4, r0
 113:BTHID.h       ****                         pFuncOnInit(); // Call the user function
 333              		.loc 1 113 0
 334 0006 002B     		cmp	r3, #0
 335 0008 00D0     		beq	.L19
 114:BTHID.h       ****                 OnInitBTHID();
 336              		.loc 1 114 0
 337 000a 9847     		blx	r3
 338              	.LVL22:
 339              	.L19:
 115:BTHID.h       ****         };
 340              		.loc 1 115 0
 341 000c 2368     		ldr	r3, [r4]
 342 000e 044A     		ldr	r2, .L25
 343 0010 9B69     		ldr	r3, [r3, #24]
 344 0012 9342     		cmp	r3, r2
 345 0014 00D1     		bne	.L24
 346              	.L18:
 116:BTHID.h       ****         /**@}*/
 347              		.loc 1 116 0
 348              		@ sp needed
 349              	.LVL23:
 350 0016 10BD     		pop	{r4, pc}
 351              	.LVL24:
 352              	.L24:
 115:BTHID.h       ****         };
 353              		.loc 1 115 0
 354 0018 2000     		movs	r0, r4
 355 001a 9847     		blx	r3
 356              	.LVL25:
 116:BTHID.h       ****         /**@}*/
 357              		.loc 1 116 0
 358 001c FBE7     		b	.L18
 359              	.L26:
 360 001e C046     		.align	2
 361              	.L25:
 362 0020 00000000 		.word	_ZN5BTHID11OnInitBTHIDEv
 363              		.cfi_endproc
 364              	.LFE276:
 365              		.fnend
 366              		.size	_ZN5BTHID6onInitEv, .-_ZN5BTHID6onInitEv
 367              		.section	.text._ZN5BTHID5ResetEv,"ax",%progbits
 368              		.align	2
 369              		.global	_ZN5BTHID5ResetEv
 370              		.code	16
 371              		.thumb_func
 372              		.type	_ZN5BTHID5ResetEv, %function
 373              	_ZN5BTHID5ResetEv:
ARM GAS  C:\Users\jrdia\AppData\Local\Temp\ccYHzYw6.s 			page 17


 374              		.fnstart
 375              	.LFB283:
  41:BTHID.c       ****         connected = false;
 376              		.loc 2 41 0
 377              		.cfi_startproc
 378              		@ args = 0, pretend = 0, frame = 0
 379              		@ frame_needed = 0, uses_anonymous_args = 0
 380              	.LVL26:
  42:BTHID.c       ****         activeConnection = false;
 381              		.loc 2 42 0
 382 0000 0023     		movs	r3, #0
  43:BTHID.c       ****         l2cap_event_flag = 0; // Reset flags
 383              		.loc 2 43 0
 384 0002 2522     		movs	r2, #37
  42:BTHID.c       ****         activeConnection = false;
 385              		.loc 2 42 0
 386 0004 4375     		strb	r3, [r0, #21]
  43:BTHID.c       ****         l2cap_event_flag = 0; // Reset flags
 387              		.loc 2 43 0
 388 0006 8354     		strb	r3, [r0, r2]
  45:BTHID.c       ****         ResetBTHID();
 389              		.loc 2 45 0
 390 0008 0532     		adds	r2, r2, #5
  44:BTHID.c       ****         l2cap_state = L2CAP_WAIT;
 391              		.loc 2 44 0
 392 000a 0361     		str	r3, [r0, #16]
  45:BTHID.c       ****         ResetBTHID();
 393              		.loc 2 45 0
 394 000c 8354     		strb	r3, [r0, r2]
  46:BTHID.c       **** }
 395              		.loc 2 46 0
 396 000e 0368     		ldr	r3, [r0]
 397 0010 034A     		ldr	r2, .L30
 398 0012 DB69     		ldr	r3, [r3, #28]
  41:BTHID.c       ****         connected = false;
 399              		.loc 2 41 0
 400 0014 10B5     		push	{r4, lr}
 401              		.save {r4, lr}
 402              		.cfi_def_cfa_offset 8
 403              		.cfi_offset 4, -8
 404              		.cfi_offset 14, -4
 405 0016 9342     		cmp	r3, r2
 406 0018 00D1     		bne	.L29
 407              	.LVL27:
 408              	.L27:
  47:BTHID.c       **** 
 409              		.loc 2 47 0
 410              		@ sp needed
 411 001a 10BD     		pop	{r4, pc}
 412              	.LVL28:
 413              	.L29:
  46:BTHID.c       **** }
 414              		.loc 2 46 0
 415 001c 9847     		blx	r3
 416              	.LVL29:
  47:BTHID.c       **** 
 417              		.loc 2 47 0
ARM GAS  C:\Users\jrdia\AppData\Local\Temp\ccYHzYw6.s 			page 18


 418 001e FCE7     		b	.L27
 419              	.L31:
 420              		.align	2
 421              	.L30:
 422 0020 00000000 		.word	_ZN5BTHID10ResetBTHIDEv
 423              		.cfi_endproc
 424              	.LFE283:
 425              		.fnend
 426              		.size	_ZN5BTHID5ResetEv, .-_ZN5BTHID5ResetEv
 427              		.section	.text._ZN5BTHIDC2EP3BTDbPKc,"ax",%progbits
 428              		.align	2
 429              		.global	_ZN5BTHIDC2EP3BTDbPKc
 430              		.code	16
 431              		.thumb_func
 432              		.type	_ZN5BTHIDC2EP3BTDbPKc, %function
 433              	_ZN5BTHIDC2EP3BTDbPKc:
 434              		.fnstart
 435              	.LFB281:
  23:BTHID.c       **** BluetoothService(p), // Pointer to USB class instance - mandatory
 436              		.loc 2 23 0
 437              		.cfi_startproc
 438              		@ args = 0, pretend = 0, frame = 0
 439              		@ frame_needed = 0, uses_anonymous_args = 0
 440              	.LVL30:
 441 0000 70B5     		push	{r4, r5, r6, lr}
 442              		.cfi_def_cfa_offset 16
 443              		.cfi_offset 4, -16
 444              		.cfi_offset 5, -12
 445              		.cfi_offset 6, -8
 446              		.cfi_offset 14, -4
 447              	.LBB36:
 448              	.LBB37:
 449              	.LBB38:
 450              		.file 3 "BTD.h"
   1:BTD.h         **** /* Copyright (C) 2012 Kristian Lauszus, TKJ Electronics. All rights reserved.
   2:BTD.h         **** 
   3:BTD.h         ****  This software may be distributed and modified under the terms of the GNU
   4:BTD.h         ****  General Public License version 2 (GPL2) as published by the Free Software
   5:BTD.h         ****  Foundation and appearing in the file GPL2.TXT included in the packaging of
   6:BTD.h         ****  this file. Please note that GPL2 Section 2[b] requires that all works based
   7:BTD.h         ****  on this software must also be made publicly available under the terms of
   8:BTD.h         ****  the GPL2 ("Copyleft").
   9:BTD.h         **** 
  10:BTD.h         ****  Contact information
  11:BTD.h         ****  -------------------
  12:BTD.h         **** 
  13:BTD.h         ****  Kristian Lauszus, TKJ Electronics
  14:BTD.h         ****  Web      :  http://www.tkjelectronics.com
  15:BTD.h         ****  e-mail   :  kristianl@tkjelectronics.com
  16:BTD.h         ****  */
  17:BTD.h         **** 
  18:BTD.h         **** #ifndef _btd_h_
  19:BTD.h         **** #define _btd_h_
  20:BTD.h         **** 
  21:BTD.h         **** #include "Usb.h"
  22:BTD.h         **** #include "usbhid.h"
  23:BTD.h         **** 
ARM GAS  C:\Users\jrdia\AppData\Local\Temp\ccYHzYw6.s 			page 19


  24:BTD.h         **** //PID and VID of the Sony PS3 devices
  25:BTD.h         **** #define PS3_VID                 0x054C  // Sony Corporation
  26:BTD.h         **** #define PS3_PID                 0x0268  // PS3 Controller DualShock 3
  27:BTD.h         **** #define PS3NAVIGATION_PID       0x042F  // Navigation controller
  28:BTD.h         **** #define PS3MOVE_PID             0x03D5  // Motion controller
  29:BTD.h         **** 
  30:BTD.h         **** #define IOGEAR_GBU521_VID       0x0A5C // The IOGEAR GBU521 dongle does not presents itself correct
  31:BTD.h         **** #define IOGEAR_GBU521_PID       0x21E8
  32:BTD.h         **** 
  33:BTD.h         **** /* Bluetooth dongle data taken from descriptors */
  34:BTD.h         **** #define BULK_MAXPKTSIZE         64 // Max size for ACL data
  35:BTD.h         **** 
  36:BTD.h         **** // Used in control endpoint header for HCI Commands
  37:BTD.h         **** #define bmREQ_HCI_OUT USB_SETUP_HOST_TO_DEVICE|USB_SETUP_TYPE_CLASS|USB_SETUP_RECIPIENT_DEVICE
  38:BTD.h         **** 
  39:BTD.h         **** /* Bluetooth HCI states for hci_task() */
  40:BTD.h         **** #define HCI_INIT_STATE                  0
  41:BTD.h         **** #define HCI_RESET_STATE                 1
  42:BTD.h         **** #define HCI_CLASS_STATE                 2
  43:BTD.h         **** #define HCI_BDADDR_STATE                3
  44:BTD.h         **** #define HCI_LOCAL_VERSION_STATE         4
  45:BTD.h         **** #define HCI_SET_NAME_STATE              5
  46:BTD.h         **** #define HCI_CHECK_DEVICE_SERVICE        6
  47:BTD.h         **** 
  48:BTD.h         **** #define HCI_INQUIRY_STATE               7 // These three states are only used if it should pair and
  49:BTD.h         **** #define HCI_CONNECT_DEVICE_STATE        8
  50:BTD.h         **** #define HCI_CONNECTED_DEVICE_STATE      9
  51:BTD.h         **** 
  52:BTD.h         **** #define HCI_SCANNING_STATE              10
  53:BTD.h         **** #define HCI_CONNECT_IN_STATE            11
  54:BTD.h         **** #define HCI_REMOTE_NAME_STATE           12
  55:BTD.h         **** #define HCI_CONNECTED_STATE             13
  56:BTD.h         **** #define HCI_DISABLE_SCAN_STATE          14
  57:BTD.h         **** #define HCI_DONE_STATE                  15
  58:BTD.h         **** #define HCI_DISCONNECT_STATE            16
  59:BTD.h         **** 
  60:BTD.h         **** /* HCI event flags*/
  61:BTD.h         **** #define HCI_FLAG_CMD_COMPLETE           (1UL << 0)
  62:BTD.h         **** #define HCI_FLAG_CONNECT_COMPLETE       (1UL << 1)
  63:BTD.h         **** #define HCI_FLAG_DISCONNECT_COMPLETE    (1UL << 2)
  64:BTD.h         **** #define HCI_FLAG_REMOTE_NAME_COMPLETE   (1UL << 3)
  65:BTD.h         **** #define HCI_FLAG_INCOMING_REQUEST       (1UL << 4)
  66:BTD.h         **** #define HCI_FLAG_READ_BDADDR            (1UL << 5)
  67:BTD.h         **** #define HCI_FLAG_READ_VERSION           (1UL << 6)
  68:BTD.h         **** #define HCI_FLAG_DEVICE_FOUND           (1UL << 7)
  69:BTD.h         **** #define HCI_FLAG_CONNECT_EVENT          (1UL << 8)
  70:BTD.h         **** 
  71:BTD.h         **** /* Macros for HCI event flag tests */
  72:BTD.h         **** #define hci_check_flag(flag) (hci_event_flag & (flag))
  73:BTD.h         **** #define hci_set_flag(flag) (hci_event_flag |= (flag))
  74:BTD.h         **** #define hci_clear_flag(flag) (hci_event_flag &= ~(flag))
  75:BTD.h         **** 
  76:BTD.h         **** /* HCI Events managed */
  77:BTD.h         **** #define EV_INQUIRY_COMPLETE                             0x01
  78:BTD.h         **** #define EV_INQUIRY_RESULT                               0x02
  79:BTD.h         **** #define EV_CONNECT_COMPLETE                             0x03
  80:BTD.h         **** #define EV_INCOMING_CONNECT                             0x04
ARM GAS  C:\Users\jrdia\AppData\Local\Temp\ccYHzYw6.s 			page 20


  81:BTD.h         **** #define EV_DISCONNECT_COMPLETE                          0x05
  82:BTD.h         **** #define EV_AUTHENTICATION_COMPLETE                      0x06
  83:BTD.h         **** #define EV_REMOTE_NAME_COMPLETE                         0x07
  84:BTD.h         **** #define EV_ENCRYPTION_CHANGE                            0x08
  85:BTD.h         **** #define EV_CHANGE_CONNECTION_LINK                       0x09
  86:BTD.h         **** #define EV_ROLE_CHANGED                                 0x12
  87:BTD.h         **** #define EV_NUM_COMPLETE_PKT                             0x13
  88:BTD.h         **** #define EV_PIN_CODE_REQUEST                             0x16
  89:BTD.h         **** #define EV_LINK_KEY_REQUEST                             0x17
  90:BTD.h         **** #define EV_LINK_KEY_NOTIFICATION                        0x18
  91:BTD.h         **** #define EV_DATA_BUFFER_OVERFLOW                         0x1A
  92:BTD.h         **** #define EV_MAX_SLOTS_CHANGE                             0x1B
  93:BTD.h         **** #define EV_READ_REMOTE_VERSION_INFORMATION_COMPLETE     0x0C
  94:BTD.h         **** #define EV_QOS_SETUP_COMPLETE                           0x0D
  95:BTD.h         **** #define EV_COMMAND_COMPLETE                             0x0E
  96:BTD.h         **** #define EV_COMMAND_STATUS                               0x0F
  97:BTD.h         **** #define EV_LOOPBACK_COMMAND                             0x19
  98:BTD.h         **** #define EV_PAGE_SCAN_REP_MODE                           0x20
  99:BTD.h         **** 
 100:BTD.h         **** /* Bluetooth states for the different Bluetooth drivers */
 101:BTD.h         **** #define L2CAP_WAIT                      0
 102:BTD.h         **** #define L2CAP_DONE                      1
 103:BTD.h         **** 
 104:BTD.h         **** /* Used for HID Control channel */
 105:BTD.h         **** #define L2CAP_CONTROL_CONNECT_REQUEST   2
 106:BTD.h         **** #define L2CAP_CONTROL_CONFIG_REQUEST    3
 107:BTD.h         **** #define L2CAP_CONTROL_SUCCESS           4
 108:BTD.h         **** #define L2CAP_CONTROL_DISCONNECT        5
 109:BTD.h         **** 
 110:BTD.h         **** /* Used for HID Interrupt channel */
 111:BTD.h         **** #define L2CAP_INTERRUPT_SETUP           6
 112:BTD.h         **** #define L2CAP_INTERRUPT_CONNECT_REQUEST 7
 113:BTD.h         **** #define L2CAP_INTERRUPT_CONFIG_REQUEST  8
 114:BTD.h         **** #define L2CAP_INTERRUPT_DISCONNECT      9
 115:BTD.h         **** 
 116:BTD.h         **** /* Used for SDP channel */
 117:BTD.h         **** #define L2CAP_SDP_WAIT                  10
 118:BTD.h         **** #define L2CAP_SDP_SUCCESS               11
 119:BTD.h         **** 
 120:BTD.h         **** /* Used for RFCOMM channel */
 121:BTD.h         **** #define L2CAP_RFCOMM_WAIT               12
 122:BTD.h         **** #define L2CAP_RFCOMM_SUCCESS            13
 123:BTD.h         **** 
 124:BTD.h         **** #define L2CAP_DISCONNECT_RESPONSE       14 // Used for both SDP and RFCOMM channel
 125:BTD.h         **** 
 126:BTD.h         **** /* Bluetooth states used by some drivers */
 127:BTD.h         **** #define TURN_ON_LED                     17
 128:BTD.h         **** #define PS3_ENABLE_SIXAXIS              18
 129:BTD.h         **** #define WII_CHECK_MOTION_PLUS_STATE     19
 130:BTD.h         **** #define WII_CHECK_EXTENSION_STATE       20
 131:BTD.h         **** #define WII_INIT_MOTION_PLUS_STATE      21
 132:BTD.h         **** 
 133:BTD.h         **** /* L2CAP event flags for HID Control channel */
 134:BTD.h         **** #define L2CAP_FLAG_CONNECTION_CONTROL_REQUEST           (1UL << 0)
 135:BTD.h         **** #define L2CAP_FLAG_CONFIG_CONTROL_SUCCESS               (1UL << 1)
 136:BTD.h         **** #define L2CAP_FLAG_CONTROL_CONNECTED                    (1UL << 2)
 137:BTD.h         **** #define L2CAP_FLAG_DISCONNECT_CONTROL_RESPONSE          (1UL << 3)
ARM GAS  C:\Users\jrdia\AppData\Local\Temp\ccYHzYw6.s 			page 21


 138:BTD.h         **** 
 139:BTD.h         **** /* L2CAP event flags for HID Interrupt channel */
 140:BTD.h         **** #define L2CAP_FLAG_CONNECTION_INTERRUPT_REQUEST         (1UL << 4)
 141:BTD.h         **** #define L2CAP_FLAG_CONFIG_INTERRUPT_SUCCESS             (1UL << 5)
 142:BTD.h         **** #define L2CAP_FLAG_INTERRUPT_CONNECTED                  (1UL << 6)
 143:BTD.h         **** #define L2CAP_FLAG_DISCONNECT_INTERRUPT_RESPONSE        (1UL << 7)
 144:BTD.h         **** 
 145:BTD.h         **** /* L2CAP event flags for SDP channel */
 146:BTD.h         **** #define L2CAP_FLAG_CONNECTION_SDP_REQUEST               (1UL << 8)
 147:BTD.h         **** #define L2CAP_FLAG_CONFIG_SDP_SUCCESS                   (1UL << 9)
 148:BTD.h         **** #define L2CAP_FLAG_DISCONNECT_SDP_REQUEST               (1UL << 10)
 149:BTD.h         **** 
 150:BTD.h         **** /* L2CAP event flags for RFCOMM channel */
 151:BTD.h         **** #define L2CAP_FLAG_CONNECTION_RFCOMM_REQUEST            (1UL << 11)
 152:BTD.h         **** #define L2CAP_FLAG_CONFIG_RFCOMM_SUCCESS                (1UL << 12)
 153:BTD.h         **** #define L2CAP_FLAG_DISCONNECT_RFCOMM_REQUEST            (1UL << 13)
 154:BTD.h         **** 
 155:BTD.h         **** #define L2CAP_FLAG_DISCONNECT_RESPONSE                  (1UL << 14)
 156:BTD.h         **** 
 157:BTD.h         **** /* Macros for L2CAP event flag tests */
 158:BTD.h         **** #define l2cap_check_flag(flag) (l2cap_event_flag & (flag))
 159:BTD.h         **** #define l2cap_set_flag(flag) (l2cap_event_flag |= (flag))
 160:BTD.h         **** #define l2cap_clear_flag(flag) (l2cap_event_flag &= ~(flag))
 161:BTD.h         **** 
 162:BTD.h         **** /* L2CAP signaling commands */
 163:BTD.h         **** #define L2CAP_CMD_COMMAND_REJECT        0x01
 164:BTD.h         **** #define L2CAP_CMD_CONNECTION_REQUEST    0x02
 165:BTD.h         **** #define L2CAP_CMD_CONNECTION_RESPONSE   0x03
 166:BTD.h         **** #define L2CAP_CMD_CONFIG_REQUEST        0x04
 167:BTD.h         **** #define L2CAP_CMD_CONFIG_RESPONSE       0x05
 168:BTD.h         **** #define L2CAP_CMD_DISCONNECT_REQUEST    0x06
 169:BTD.h         **** #define L2CAP_CMD_DISCONNECT_RESPONSE   0x07
 170:BTD.h         **** #define L2CAP_CMD_INFORMATION_REQUEST   0x0A
 171:BTD.h         **** #define L2CAP_CMD_INFORMATION_RESPONSE  0x0B
 172:BTD.h         **** 
 173:BTD.h         **** // Used For Connection Response - Remember to Include High Byte
 174:BTD.h         **** #define PENDING     0x01
 175:BTD.h         **** #define SUCCESSFUL  0x00
 176:BTD.h         **** 
 177:BTD.h         **** /* Bluetooth L2CAP PSM - see http://www.bluetooth.org/Technical/AssignedNumbers/logical_link.htm */
 178:BTD.h         **** #define SDP_PSM         0x01 // Service Discovery Protocol PSM Value
 179:BTD.h         **** #define RFCOMM_PSM      0x03 // RFCOMM PSM Value
 180:BTD.h         **** #define HID_CTRL_PSM    0x11 // HID_Control PSM Value
 181:BTD.h         **** #define HID_INTR_PSM    0x13 // HID_Interrupt PSM Value
 182:BTD.h         **** 
 183:BTD.h         **** // Used to determine if it is a Bluetooth dongle
 184:BTD.h         **** #define WI_SUBCLASS_RF      0x01 // RF Controller
 185:BTD.h         **** #define WI_PROTOCOL_BT      0x01 // Bluetooth Programming Interface
 186:BTD.h         **** 
 187:BTD.h         **** #define BTD_MAX_ENDPOINTS   4
 188:BTD.h         **** #define BTD_NUM_SERVICES    4 // Max number of Bluetooth services - if you need more than 4 simply 
 189:BTD.h         **** 
 190:BTD.h         **** #define PAIR    1
 191:BTD.h         **** 
 192:BTD.h         **** class BluetoothService;
 193:BTD.h         **** 
 194:BTD.h         **** /**
ARM GAS  C:\Users\jrdia\AppData\Local\Temp\ccYHzYw6.s 			page 22


 195:BTD.h         ****  * The Bluetooth Dongle class will take care of all the USB communication
 196:BTD.h         ****  * and then pass the data to the BluetoothService classes.
 197:BTD.h         ****  */
 198:BTD.h         **** class BTD : public USBDeviceConfig, public UsbConfigXtracter {
 199:BTD.h         **** public:
 200:BTD.h         ****         /**
 201:BTD.h         ****          * Constructor for the BTD class.
 202:BTD.h         ****          * @param  p   Pointer to USB class instance.
 203:BTD.h         ****          */
 204:BTD.h         ****         BTD(USB *p);
 205:BTD.h         **** 
 206:BTD.h         ****         /** @name USBDeviceConfig implementation */
 207:BTD.h         ****         /**
 208:BTD.h         ****          * Address assignment and basic initialization is done here.
 209:BTD.h         ****          * @param  parent   Hub number.
 210:BTD.h         ****          * @param  port     Port number on the hub.
 211:BTD.h         ****          * @param  lowspeed Speed of the device.
 212:BTD.h         ****          * @return          0 on success.
 213:BTD.h         ****          */
 214:BTD.h         ****         uint8_t ConfigureDevice(uint8_t parent, uint8_t port, bool lowspeed);
 215:BTD.h         ****         /**
 216:BTD.h         ****          * Initialize the Bluetooth dongle.
 217:BTD.h         ****          * @param  parent   Hub number.
 218:BTD.h         ****          * @param  port     Port number on the hub.
 219:BTD.h         ****          * @param  lowspeed Speed of the device.
 220:BTD.h         ****          * @return          0 on success.
 221:BTD.h         ****          */
 222:BTD.h         ****         uint8_t Init(uint8_t parent, uint8_t port, bool lowspeed);
 223:BTD.h         ****         /**
 224:BTD.h         ****          * Release the USB device.
 225:BTD.h         ****          * @return 0 on success.
 226:BTD.h         ****          */
 227:BTD.h         ****         uint8_t Release();
 228:BTD.h         ****         /**
 229:BTD.h         ****          * Poll the USB Input endpoints and run the state machines.
 230:BTD.h         ****          * @return 0 on success.
 231:BTD.h         ****          */
 232:BTD.h         ****         uint8_t Poll();
 233:BTD.h         **** 
 234:BTD.h         ****         /**
 235:BTD.h         ****          * Get the device address.
 236:BTD.h         ****          * @return The device address.
 237:BTD.h         ****          */
 238:BTD.h         ****         virtual uint8_t GetAddress() {
 239:BTD.h         ****                 return bAddress;
 240:BTD.h         ****         };
 241:BTD.h         **** 
 242:BTD.h         ****         /**
 243:BTD.h         ****          * Used to check if the dongle has been initialized.
 244:BTD.h         ****          * @return True if it's ready.
 245:BTD.h         ****          */
 246:BTD.h         ****         virtual bool isReady() {
 247:BTD.h         ****                 return bPollEnable;
 248:BTD.h         ****         };
 249:BTD.h         **** 
 250:BTD.h         ****         /**
 251:BTD.h         ****          * Used by the USB core to check what this driver support.
ARM GAS  C:\Users\jrdia\AppData\Local\Temp\ccYHzYw6.s 			page 23


 252:BTD.h         ****          * @param  klass The device's USB class.
 253:BTD.h         ****          * @return       Returns true if the device's USB class matches this driver.
 254:BTD.h         ****          */
 255:BTD.h         ****         virtual bool DEVCLASSOK(uint8_t klass) {
 256:BTD.h         ****                 return (klass == USB_CLASS_WIRELESS_CTRL);
 257:BTD.h         ****         };
 258:BTD.h         **** 
 259:BTD.h         ****         /**
 260:BTD.h         ****          * Used by the USB core to check what this driver support.
 261:BTD.h         ****          * Used to set the Bluetooth address into the PS3 controllers.
 262:BTD.h         ****          * @param  vid The device's VID.
 263:BTD.h         ****          * @param  pid The device's PID.
 264:BTD.h         ****          * @return     Returns true if the device's VID and PID matches this driver.
 265:BTD.h         ****          */
 266:BTD.h         ****         virtual bool VIDPIDOK(uint16_t vid, uint16_t pid) {
 267:BTD.h         ****                 if(vid == IOGEAR_GBU521_VID && pid == IOGEAR_GBU521_PID)
 268:BTD.h         ****                         return true;
 269:BTD.h         ****                 if(my_bdaddr[0] != 0x00 || my_bdaddr[1] != 0x00 || my_bdaddr[2] != 0x00 || my_bdadd
 270:BTD.h         ****                         if(vid == PS3_VID && (pid == PS3_PID || pid == PS3NAVIGATION_PID || pid == 
 271:BTD.h         ****                                 return true;
 272:BTD.h         ****                 }
 273:BTD.h         ****                 return false;
 274:BTD.h         ****         };
 275:BTD.h         ****         /**@}*/
 276:BTD.h         **** 
 277:BTD.h         ****         /** @name UsbConfigXtracter implementation */
 278:BTD.h         ****         /**
 279:BTD.h         ****          * UsbConfigXtracter implementation, used to extract endpoint information.
 280:BTD.h         ****          * @param conf  Configuration value.
 281:BTD.h         ****          * @param iface Interface number.
 282:BTD.h         ****          * @param alt   Alternate setting.
 283:BTD.h         ****          * @param proto Interface Protocol.
 284:BTD.h         ****          * @param ep    Endpoint Descriptor.
 285:BTD.h         ****          */
 286:BTD.h         ****         void EndpointXtract(uint8_t conf, uint8_t iface, uint8_t alt, uint8_t proto, const USB_ENDP
 287:BTD.h         ****         /**@}*/
 288:BTD.h         **** 
 289:BTD.h         ****         /** Disconnects both the L2CAP Channel and the HCI Connection for all Bluetooth services. *
 290:BTD.h         ****         void disconnect();
 291:BTD.h         **** 
 292:BTD.h         ****         /**
 293:BTD.h         ****          * Register Bluetooth dongle members/services.
 294:BTD.h         ****          * @param  pService Pointer to BluetoothService class instance.
 295:BTD.h         ****          * @return          The service ID on success or -1 on fail.
 296:BTD.h         ****          */
 297:BTD.h         ****         int8_t registerBluetoothService(BluetoothService *pService) {
 298:BTD.h         ****                 for(uint8_t i = 0; i < BTD_NUM_SERVICES; i++) {
 299:BTD.h         ****                         if(!btService[i]) {
 300:BTD.h         ****                                 btService[i] = pService;
 301:BTD.h         ****                                 return i; // Return ID
 302:BTD.h         ****                         }
 303:BTD.h         ****                 }
 304:BTD.h         ****                 return -1; // Error registering BluetoothService
 305:BTD.h         ****         };
 306:BTD.h         **** 
 307:BTD.h         ****         /** @name HCI Commands */
 308:BTD.h         ****         /**
ARM GAS  C:\Users\jrdia\AppData\Local\Temp\ccYHzYw6.s 			page 24


 309:BTD.h         ****          * Used to send a HCI Command.
 310:BTD.h         ****          * @param data   Data to send.
 311:BTD.h         ****          * @param nbytes Number of bytes to send.
 312:BTD.h         ****          */
 313:BTD.h         ****         void HCI_Command(uint8_t* data, uint16_t nbytes);
 314:BTD.h         ****         /** Reset the Bluetooth dongle. */
 315:BTD.h         ****         void hci_reset();
 316:BTD.h         ****         /** Read the Bluetooth address of the dongle. */
 317:BTD.h         ****         void hci_read_bdaddr();
 318:BTD.h         ****         /** Read the HCI Version of the Bluetooth dongle. */
 319:BTD.h         ****         void hci_read_local_version_information();
 320:BTD.h         ****         /**
 321:BTD.h         ****          * Set the local name of the Bluetooth dongle.
 322:BTD.h         ****          * @param name Desired name.
 323:BTD.h         ****          */
 324:BTD.h         ****         void hci_set_local_name(const char* name);
 325:BTD.h         ****         /** Enable visibility to other Bluetooth devices. */
 326:BTD.h         ****         void hci_write_scan_enable();
 327:BTD.h         ****         /** Disable visibility to other Bluetooth devices. */
 328:BTD.h         ****         void hci_write_scan_disable();
 329:BTD.h         ****         /** Read the remote devices name. */
 330:BTD.h         ****         void hci_remote_name();
 331:BTD.h         ****         /** Accept the connection with the Bluetooth device. */
 332:BTD.h         ****         void hci_accept_connection();
 333:BTD.h         ****         /**
 334:BTD.h         ****          * Disconnect the HCI connection.
 335:BTD.h         ****          * @param handle The HCI Handle for the connection.
 336:BTD.h         ****          */
 337:BTD.h         ****         void hci_disconnect(uint16_t handle);
 338:BTD.h         ****         /**
 339:BTD.h         ****          * Respond with the pin for the connection.
 340:BTD.h         ****          * The pin is automatically set for the Wii library,
 341:BTD.h         ****          * but can be customized for the SPP library.
 342:BTD.h         ****          */
 343:BTD.h         ****         void hci_pin_code_request_reply();
 344:BTD.h         ****         /** Respons when no pin was set. */
 345:BTD.h         ****         void hci_pin_code_negative_request_reply();
 346:BTD.h         ****         /**
 347:BTD.h         ****          * Command is used to reply to a Link Key Request event from the BR/EDR Controller
 348:BTD.h         ****          * if the Host does not have a stored Link Key for the connection.
 349:BTD.h         ****          */
 350:BTD.h         ****         void hci_link_key_request_negative_reply();
 351:BTD.h         ****         /** Used to try to authenticate with the remote device. */
 352:BTD.h         ****         void hci_authentication_request();
 353:BTD.h         ****         /** Start a HCI inquiry. */
 354:BTD.h         ****         void hci_inquiry();
 355:BTD.h         ****         /** Cancel a HCI inquiry. */
 356:BTD.h         ****         void hci_inquiry_cancel();
 357:BTD.h         ****         /** Connect to last device communicated with. */
 358:BTD.h         ****         void hci_connect();
 359:BTD.h         ****         /**
 360:BTD.h         ****          * Connect to device.
 361:BTD.h         ****          * @param bdaddr Bluetooth address of the device.
 362:BTD.h         ****          */
 363:BTD.h         ****         void hci_connect(uint8_t *bdaddr);
 364:BTD.h         ****         /** Used to a set the class of the device. */
 365:BTD.h         ****         void hci_write_class_of_device();
ARM GAS  C:\Users\jrdia\AppData\Local\Temp\ccYHzYw6.s 			page 25


 366:BTD.h         ****         /**@}*/
 367:BTD.h         **** 
 368:BTD.h         ****         /** @name L2CAP Commands */
 369:BTD.h         ****         /**
 370:BTD.h         ****          * Used to send L2CAP Commands.
 371:BTD.h         ****          * @param handle      HCI Handle.
 372:BTD.h         ****          * @param data        Data to send.
 373:BTD.h         ****          * @param nbytes      Number of bytes to send.
 374:BTD.h         ****          * @param channelLow,channelHigh  Low and high byte of channel to send to.
 375:BTD.h         ****          * If argument is omitted then the Standard L2CAP header: Channel ID (0x01) for ACL-U will 
 376:BTD.h         ****          */
 377:BTD.h         ****         void L2CAP_Command(uint16_t handle, uint8_t* data, uint8_t nbytes, uint8_t channelLow = 0x0
 378:BTD.h         ****         /**
 379:BTD.h         ****          * L2CAP Connection Request.
 380:BTD.h         ****          * @param handle HCI handle.
 381:BTD.h         ****          * @param rxid   Identifier.
 382:BTD.h         ****          * @param scid   Source Channel Identifier.
 383:BTD.h         ****          * @param psm    Protocol/Service Multiplexer - see: https://www.bluetooth.org/Technical/As
 384:BTD.h         ****          */
 385:BTD.h         ****         void l2cap_connection_request(uint16_t handle, uint8_t rxid, uint8_t* scid, uint16_t psm);
 386:BTD.h         ****         /**
 387:BTD.h         ****          * L2CAP Connection Response.
 388:BTD.h         ****          * @param handle HCI handle.
 389:BTD.h         ****          * @param rxid   Identifier.
 390:BTD.h         ****          * @param dcid   Destination Channel Identifier.
 391:BTD.h         ****          * @param scid   Source Channel Identifier.
 392:BTD.h         ****          * @param result Result - First send ::PENDING and then ::SUCCESSFUL.
 393:BTD.h         ****          */
 394:BTD.h         ****         void l2cap_connection_response(uint16_t handle, uint8_t rxid, uint8_t* dcid, uint8_t* scid,
 395:BTD.h         ****         /**
 396:BTD.h         ****          * L2CAP Config Request.
 397:BTD.h         ****          * @param handle HCI Handle.
 398:BTD.h         ****          * @param rxid   Identifier.
 399:BTD.h         ****          * @param dcid   Destination Channel Identifier.
 400:BTD.h         ****          */
 401:BTD.h         ****         void l2cap_config_request(uint16_t handle, uint8_t rxid, uint8_t* dcid);
 402:BTD.h         ****         /**
 403:BTD.h         ****          * L2CAP Config Response.
 404:BTD.h         ****          * @param handle HCI Handle.
 405:BTD.h         ****          * @param rxid   Identifier.
 406:BTD.h         ****          * @param scid   Source Channel Identifier.
 407:BTD.h         ****          */
 408:BTD.h         ****         void l2cap_config_response(uint16_t handle, uint8_t rxid, uint8_t* scid);
 409:BTD.h         ****         /**
 410:BTD.h         ****          * L2CAP Disconnection Request.
 411:BTD.h         ****          * @param handle HCI Handle.
 412:BTD.h         ****          * @param rxid   Identifier.
 413:BTD.h         ****          * @param dcid   Device Channel Identifier.
 414:BTD.h         ****          * @param scid   Source Channel Identifier.
 415:BTD.h         ****          */
 416:BTD.h         ****         void l2cap_disconnection_request(uint16_t handle, uint8_t rxid, uint8_t* dcid, uint8_t* sci
 417:BTD.h         ****         /**
 418:BTD.h         ****          * L2CAP Disconnection Response.
 419:BTD.h         ****          * @param handle HCI Handle.
 420:BTD.h         ****          * @param rxid   Identifier.
 421:BTD.h         ****          * @param dcid   Device Channel Identifier.
 422:BTD.h         ****          * @param scid   Source Channel Identifier.
ARM GAS  C:\Users\jrdia\AppData\Local\Temp\ccYHzYw6.s 			page 26


 423:BTD.h         ****          */
 424:BTD.h         ****         void l2cap_disconnection_response(uint16_t handle, uint8_t rxid, uint8_t* dcid, uint8_t* sc
 425:BTD.h         ****         /**
 426:BTD.h         ****          * L2CAP Information Response.
 427:BTD.h         ****          * @param handle       HCI Handle.
 428:BTD.h         ****          * @param rxid         Identifier.
 429:BTD.h         ****          * @param infoTypeLow,infoTypeHigh  Infotype.
 430:BTD.h         ****          */
 431:BTD.h         ****         void l2cap_information_response(uint16_t handle, uint8_t rxid, uint8_t infoTypeLow, uint8_t
 432:BTD.h         ****         /**@}*/
 433:BTD.h         **** 
 434:BTD.h         ****         /** Use this to see if it is waiting for a incoming connection. */
 435:BTD.h         ****         bool waitingForConnection;
 436:BTD.h         ****         /** This is used by the service to know when to store the device information. */
 437:BTD.h         ****         bool l2capConnectionClaimed;
 438:BTD.h         ****         /** This is used by the SPP library to claim the current SDP incoming request. */
 439:BTD.h         ****         bool sdpConnectionClaimed;
 440:BTD.h         ****         /** This is used by the SPP library to claim the current RFCOMM incoming request. */
 441:BTD.h         ****         bool rfcommConnectionClaimed;
 442:BTD.h         **** 
 443:BTD.h         ****         /** The name you wish to make the dongle show up as. It is set automatically by the SPP lib
 444:BTD.h         ****         const char* btdName;
 445:BTD.h         ****         /** The pin you wish to make the dongle use for authentication. It is set automatically by 
 446:BTD.h         ****         const char* btdPin;
 447:BTD.h         **** 
 448:BTD.h         ****         /** The bluetooth dongles Bluetooth address. */
 449:BTD.h         ****         uint8_t my_bdaddr[6];
 450:BTD.h         ****         /** HCI handle for the last connection. */
 451:BTD.h         ****         uint16_t hci_handle;
 452:BTD.h         ****         /** Last incoming devices Bluetooth address. */
 453:BTD.h         ****         uint8_t disc_bdaddr[6];
 454:BTD.h         ****         /** First 30 chars of last remote name. */
 455:BTD.h         ****         char remote_name[30];
 456:BTD.h         ****         /**
 457:BTD.h         ****          * The supported HCI Version read from the Bluetooth dongle.
 458:BTD.h         ****          * Used by the PS3BT library to check the HCI Version of the Bluetooth dongle,
 459:BTD.h         ****          * it should be at least 3 to work properly with the library.
 460:BTD.h         ****          */
 461:BTD.h         ****         uint8_t hci_version;
 462:BTD.h         **** 
 463:BTD.h         ****         /** Call this function to pair with a Wiimote */
 464:BTD.h         ****         void pairWithWiimote() {
 465:BTD.h         ****                 pairWithWii = true;
 466:BTD.h         ****                 hci_state = HCI_CHECK_DEVICE_SERVICE;
 467:BTD.h         ****         };
 468:BTD.h         ****         /** Used to only send the ACL data to the Wiimote. */
 469:BTD.h         ****         bool connectToWii;
 470:BTD.h         ****         /** True if a Wiimote is connecting. */
 471:BTD.h         ****         bool incomingWii;
 472:BTD.h         ****         /** True when it should pair with a Wiimote. */
 473:BTD.h         ****         bool pairWithWii;
 474:BTD.h         ****         /** True if it's the new Wiimote with the Motion Plus Inside or a Wii U Pro Controller. */
 475:BTD.h         ****         bool motionPlusInside;
 476:BTD.h         ****         /** True if it's a Wii U Pro Controller. */
 477:BTD.h         ****         bool wiiUProController;
 478:BTD.h         **** 
 479:BTD.h         ****         /** Call this function to pair with a HID device */
ARM GAS  C:\Users\jrdia\AppData\Local\Temp\ccYHzYw6.s 			page 27


 480:BTD.h         ****         void pairWithHID() {
 481:BTD.h         ****                 waitingForConnection = false;
 482:BTD.h         ****                 pairWithHIDDevice = true;
 483:BTD.h         ****                 hci_state = HCI_CHECK_DEVICE_SERVICE;
 484:BTD.h         ****         };
 485:BTD.h         ****         /** Used to only send the ACL data to the HID device. */
 486:BTD.h         ****         bool connectToHIDDevice;
 487:BTD.h         ****         /** True if a HID device is connecting. */
 488:BTD.h         ****         bool incomingHIDDevice;
 489:BTD.h         ****         /** True when it should pair with a device like a mouse or keyboard. */
 490:BTD.h         ****         bool pairWithHIDDevice;
 491:BTD.h         **** 
 492:BTD.h         ****         /**
 493:BTD.h         ****          * Read the poll interval taken from the endpoint descriptors.
 494:BTD.h         ****          * @return The poll interval in ms.
 495:BTD.h         ****          */
 496:BTD.h         ****         uint8_t readPollInterval() {
 497:BTD.h         ****                 return pollInterval;
 498:BTD.h         ****         };
 499:BTD.h         **** 
 500:BTD.h         **** protected:
 501:BTD.h         ****         /** Pointer to USB class instance. */
 502:BTD.h         ****         USB *pUsb;
 503:BTD.h         ****         /** Device address. */
 504:BTD.h         ****         uint8_t bAddress;
 505:BTD.h         ****         /** Endpoint info structure. */
 506:BTD.h         ****         EpInfo epInfo[BTD_MAX_ENDPOINTS];
 507:BTD.h         **** 
 508:BTD.h         ****         /** Configuration number. */
 509:BTD.h         ****         uint8_t bConfNum;
 510:BTD.h         ****         /** Total number of endpoints in the configuration. */
 511:BTD.h         ****         uint8_t bNumEP;
 512:BTD.h         ****         /** Next poll time based on poll interval taken from the USB descriptor. */
 513:BTD.h         ****         uint32_t qNextPollTime;
 514:BTD.h         **** 
 515:BTD.h         ****         /** Bluetooth dongle control endpoint. */
 516:BTD.h         ****         static const uint8_t BTD_CONTROL_PIPE;
 517:BTD.h         ****         /** HCI event endpoint index. */
 518:BTD.h         ****         static const uint8_t BTD_EVENT_PIPE;
 519:BTD.h         ****         /** ACL In endpoint index. */
 520:BTD.h         ****         static const uint8_t BTD_DATAIN_PIPE;
 521:BTD.h         ****         /** ACL Out endpoint index. */
 522:BTD.h         ****         static const uint8_t BTD_DATAOUT_PIPE;
 523:BTD.h         **** 
 524:BTD.h         ****         /**
 525:BTD.h         ****          * Used to print the USB Endpoint Descriptor.
 526:BTD.h         ****          * @param ep_ptr Pointer to USB Endpoint Descriptor.
 527:BTD.h         ****          */
 528:BTD.h         ****         void PrintEndpointDescriptor(const USB_ENDPOINT_DESCRIPTOR* ep_ptr);
 529:BTD.h         **** 
 530:BTD.h         **** private:
 531:BTD.h         ****         void Initialize(); // Set all variables, endpoint structs etc. to default values
 532:BTD.h         ****         BluetoothService *btService[BTD_NUM_SERVICES];
 533:BTD.h         **** 
 534:BTD.h         ****         uint16_t PID, VID; // PID and VID of device connected
 535:BTD.h         **** 
 536:BTD.h         ****         uint8_t pollInterval;
ARM GAS  C:\Users\jrdia\AppData\Local\Temp\ccYHzYw6.s 			page 28


 537:BTD.h         ****         bool bPollEnable;
 538:BTD.h         **** 
 539:BTD.h         ****         bool pairWiiUsingSync; // True if pairing was done using the Wii SYNC button.
 540:BTD.h         ****         bool checkRemoteName; // Used to check remote device's name before connecting.
 541:BTD.h         ****         bool incomingPS4; // True if a PS4 controller is connecting
 542:BTD.h         ****         uint8_t classOfDevice[3]; // Class of device of last device
 543:BTD.h         **** 
 544:BTD.h         ****         /* Variables used by high level HCI task */
 545:BTD.h         ****         uint8_t hci_state; // Current state of Bluetooth HCI connection
 546:BTD.h         ****         uint16_t hci_counter; // Counter used for Bluetooth HCI reset loops
 547:BTD.h         ****         uint16_t hci_num_reset_loops; // This value indicate how many times it should read before t
 548:BTD.h         ****         uint16_t hci_event_flag; // HCI flags of received Bluetooth events
 549:BTD.h         ****         uint8_t inquiry_counter;
 550:BTD.h         **** 
 551:BTD.h         ****         uint8_t hcibuf[BULK_MAXPKTSIZE]; // General purpose buffer for HCI data
 552:BTD.h         ****         uint8_t l2capinbuf[BULK_MAXPKTSIZE]; // General purpose buffer for L2CAP in data
 553:BTD.h         ****         uint8_t l2capoutbuf[14]; // General purpose buffer for L2CAP out data
 554:BTD.h         **** 
 555:BTD.h         ****         /* State machines */
 556:BTD.h         ****         void HCI_event_task(); // Poll the HCI event pipe
 557:BTD.h         ****         void HCI_task(); // HCI state machine
 558:BTD.h         ****         void ACL_event_task(); // ACL input pipe
 559:BTD.h         **** 
 560:BTD.h         ****         /* Used to set the Bluetooth Address internally to the PS3 Controllers */
 561:BTD.h         ****         void setBdaddr(uint8_t* BDADDR);
 562:BTD.h         ****         void setMoveBdaddr(uint8_t* BDADDR);
 563:BTD.h         **** };
 564:BTD.h         **** 
 565:BTD.h         **** /** All Bluetooth services should inherit this class. */
 566:BTD.h         **** class BluetoothService {
 567:BTD.h         **** public:
 568:BTD.h         ****         BluetoothService(BTD *p) : pBtd(p) {
 451              		.loc 3 568 0
 452 0002 184C     		ldr	r4, .L41
 453 0004 8160     		str	r1, [r0, #8]
 454 0006 0460     		str	r4, [r0]
 569:BTD.h         ****                 if(pBtd)
 455              		.loc 3 569 0
 456 0008 0029     		cmp	r1, #0
 457 000a 09D0     		beq	.L33
 458 000c 0D00     		movs	r5, r1
 459 000e 0024     		movs	r4, #0
 460 0010 6435     		adds	r5, r5, #100
 461              	.L35:
 462              	.LVL31:
 463              	.LBB39:
 464              	.LBB40:
 299:BTD.h         ****                                 btService[i] = pService;
 465              		.loc 3 299 0
 466 0012 2E68     		ldr	r6, [r5]
 467 0014 002E     		cmp	r6, #0
 468 0016 1FD0     		beq	.L40
 469              	.LVL32:
 470 0018 0134     		adds	r4, r4, #1
 471              	.LVL33:
 472 001a 0435     		adds	r5, r5, #4
 298:BTD.h         ****                         if(!btService[i]) {
ARM GAS  C:\Users\jrdia\AppData\Local\Temp\ccYHzYw6.s 			page 29


 473              		.loc 3 298 0
 474 001c 042C     		cmp	r4, #4
 475 001e F8D1     		bne	.L35
 476              	.L33:
 477              	.LVL34:
 478              	.LBE40:
 479              	.LBE39:
 480              	.LBE38:
 481              	.LBE37:
  25:BTHID.c       ****         for(uint8_t i = 0; i < NUM_PARSERS; i++)
 482              		.loc 2 25 0
 483 0020 114C     		ldr	r4, .L41+4
 484 0022 2425     		movs	r5, #36
 485 0024 0834     		adds	r4, r4, #8
 486 0026 0460     		str	r4, [r0]
 487 0028 0024     		movs	r4, #0
 488 002a 4455     		strb	r4, [r0, r5]
 489              	.LVL35:
 490              	.LBB44:
  29:BTHID.c       ****         pBtd->btdPin = pin;
 491              		.loc 2 29 0
 492 002c 2435     		adds	r5, r5, #36
 493              	.LBB45:
  27:BTHID.c       **** 
 494              		.loc 2 27 0
 495 002e C461     		str	r4, [r0, #28]
 496              	.LVL36:
 497 0030 0462     		str	r4, [r0, #32]
 498              	.LVL37:
 499              	.LBE45:
  29:BTHID.c       ****         pBtd->btdPin = pin;
 500              		.loc 2 29 0
 501 0032 4A55     		strb	r2, [r1, r5]
  30:BTHID.c       **** 
 502              		.loc 2 30 0
 503 0034 0B61     		str	r3, [r1, #16]
  33:BTHID.c       ****         control_dcid[1] = 0x00;
 504              		.loc 2 33 0
 505 0036 7022     		movs	r2, #112
 506              	.LVL38:
 507 0038 2623     		movs	r3, #38
 508              	.LVL39:
 509 003a C254     		strb	r2, [r0, r3]
 510              	.LVL40:
  34:BTHID.c       ****         interrupt_dcid[0] = 0x71; // 0x0071
 511              		.loc 2 34 0
 512 003c 0133     		adds	r3, r3, #1
 513 003e C454     		strb	r4, [r0, r3]
  35:BTHID.c       ****         interrupt_dcid[1] = 0x00;
 514              		.loc 2 35 0
 515 0040 0132     		adds	r2, r2, #1
 516 0042 0133     		adds	r3, r3, #1
 517 0044 C254     		strb	r2, [r0, r3]
  36:BTHID.c       **** 
 518              		.loc 2 36 0
 519 0046 0133     		adds	r3, r3, #1
 520 0048 C454     		strb	r4, [r0, r3]
ARM GAS  C:\Users\jrdia\AppData\Local\Temp\ccYHzYw6.s 			page 30


 521              	.LVL41:
 522              	.LBB46:
 523              	.LBB47:
  43:BTHID.c       ****         l2cap_event_flag = 0; // Reset flags
 524              		.loc 2 43 0
 525 004a 043B     		subs	r3, r3, #4
  42:BTHID.c       ****         activeConnection = false;
 526              		.loc 2 42 0
 527 004c 4475     		strb	r4, [r0, #21]
  43:BTHID.c       ****         l2cap_event_flag = 0; // Reset flags
 528              		.loc 2 43 0
 529 004e C454     		strb	r4, [r0, r3]
  45:BTHID.c       ****         ResetBTHID();
 530              		.loc 2 45 0
 531 0050 0533     		adds	r3, r3, #5
  44:BTHID.c       ****         l2cap_state = L2CAP_WAIT;
 532              		.loc 2 44 0
 533 0052 0461     		str	r4, [r0, #16]
 534              	.LBE47:
 535              	.LBE46:
 536              	.LBE44:
 537              	.LBE36:
  39:BTHID.c       **** 
 538              		.loc 2 39 0
 539              		@ sp needed
 540              	.LBB52:
 541              	.LBB50:
 542              	.LBB49:
 543              	.LBB48:
  45:BTHID.c       ****         ResetBTHID();
 544              		.loc 2 45 0
 545 0054 C454     		strb	r4, [r0, r3]
 546              	.LVL42:
 547              	.LBE48:
 548              	.LBE49:
 549              	.LBE50:
 550              	.LBE52:
  39:BTHID.c       **** 
 551              		.loc 2 39 0
 552 0056 70BD     		pop	{r4, r5, r6, pc}
 553              	.LVL43:
 554              	.L40:
 555              	.LBB53:
 556              	.LBB51:
 557              	.LBB43:
 558              	.LBB42:
 559              	.LBB41:
 300:BTD.h         ****                                 return i; // Return ID
 560              		.loc 3 300 0
 561 0058 1834     		adds	r4, r4, #24
 562              	.LVL44:
 563 005a A400     		lsls	r4, r4, #2
 564 005c 0C19     		adds	r4, r1, r4
 565 005e 6060     		str	r0, [r4, #4]
 566 0060 DEE7     		b	.L33
 567              	.L42:
 568 0062 C046     		.align	2
ARM GAS  C:\Users\jrdia\AppData\Local\Temp\ccYHzYw6.s 			page 31


 569              	.L41:
 570 0064 08000000 		.word	_ZTV16BluetoothService+8
 571 0068 28000000 		.word	.LANCHOR0
 572              	.LBE41:
 573              	.LBE42:
 574              	.LBE43:
 575              	.LBE51:
 576              	.LBE53:
 577              		.cfi_endproc
 578              	.LFE281:
 579              		.cantunwind
 580              		.fnend
 581              		.size	_ZN5BTHIDC2EP3BTDbPKc, .-_ZN5BTHIDC2EP3BTDbPKc
 582              		.global	_ZN5BTHIDC1EP3BTDbPKc
 583              		.thumb_set _ZN5BTHIDC1EP3BTDbPKc,_ZN5BTHIDC2EP3BTDbPKc
 584              		.section	.text._ZN5BTHID11setProtocolEv,"ax",%progbits
 585              		.align	2
 586              		.global	_ZN5BTHID11setProtocolEv
 587              		.code	16
 588              		.thumb_func
 589              		.type	_ZN5BTHID11setProtocolEv, %function
 590              	_ZN5BTHID11setProtocolEv:
 591              		.fnstart
 592              	.LFB288:
 373:BTHID.c       **** 
 374:BTHID.c       **** /************************************************************/
 375:BTHID.c       **** /*                    HID Commands                          */
 376:BTHID.c       **** 
 377:BTHID.c       **** /************************************************************/
 378:BTHID.c       **** void BTHID::setProtocol() {
 593              		.loc 2 378 0
 594              		.cfi_startproc
 595              		@ args = 0, pretend = 0, frame = 8
 596              		@ frame_needed = 0, uses_anonymous_args = 0
 597              	.LVL45:
 379:BTHID.c       **** #ifdef DEBUG_USB_HOST
 380:BTHID.c       ****         Notify(PSTR("\r\nSet protocol mode: "), 0x80);
 381:BTHID.c       ****         D_PrintHex<uint8_t > (protocolMode, 0x80);
 382:BTHID.c       **** #endif
 383:BTHID.c       ****         if (protocolMode != USB_HID_BOOT_PROTOCOL && protocolMode != HID_RPT_PROTOCOL) {
 598              		.loc 2 383 0
 599 0000 2422     		movs	r2, #36
 378:BTHID.c       **** #ifdef DEBUG_USB_HOST
 600              		.loc 2 378 0
 601 0002 10B5     		push	{r4, lr}
 602              		.save {r4, lr}
 603              		.cfi_def_cfa_offset 8
 604              		.cfi_offset 4, -8
 605              		.cfi_offset 14, -4
 606              		.loc 2 383 0
 607 0004 815C     		ldrb	r1, [r0, r2]
 378:BTHID.c       **** #ifdef DEBUG_USB_HOST
 608              		.loc 2 378 0
 609              		.pad #16
 610 0006 84B0     		sub	sp, sp, #16
 611              		.cfi_def_cfa_offset 24
 378:BTHID.c       **** #ifdef DEBUG_USB_HOST
ARM GAS  C:\Users\jrdia\AppData\Local\Temp\ccYHzYw6.s 			page 32


 612              		.loc 2 378 0
 613 0008 0300     		movs	r3, r0
 614              		.loc 2 383 0
 615 000a 0129     		cmp	r1, #1
 616 000c 10D9     		bls	.L46
 384:BTHID.c       **** #ifdef DEBUG_USB_HOST
 385:BTHID.c       ****                 Notify(PSTR("\r\nNot a valid protocol mode. Using Boot protocol instead."), 0x80);
 386:BTHID.c       **** #endif
 387:BTHID.c       ****                 protocolMode = USB_HID_BOOT_PROTOCOL; // Use Boot Protocol by default
 617              		.loc 2 387 0
 618 000e 0021     		movs	r1, #0
 619 0010 8154     		strb	r1, [r0, r2]
 620 0012 7031     		adds	r1, r1, #112
 621              	.L45:
 388:BTHID.c       ****         }
 389:BTHID.c       ****         uint8_t command = 0x70 | protocolMode; // Set Protocol, see Bluetooth HID specs page 33
 622              		.loc 2 389 0
 623 0014 0F22     		movs	r2, #15
 624 0016 6A44     		add	r2, r2, sp
 625 0018 1170     		strb	r1, [r2]
 390:BTHID.c       ****         pBtd->L2CAP_Command(hci_handle, &command, 1, control_scid[0], control_scid[1]);
 626              		.loc 2 390 0
 627 001a DC7D     		ldrb	r4, [r3, #23]
 628 001c 9989     		ldrh	r1, [r3, #12]
 629 001e 9868     		ldr	r0, [r3, #8]
 630              	.LVL46:
 631 0020 0194     		str	r4, [sp, #4]
 632 0022 9B7D     		ldrb	r3, [r3, #22]
 633              	.LVL47:
 634 0024 0093     		str	r3, [sp]
 635 0026 0123     		movs	r3, #1
 636 0028 FFF7FEFF 		bl	_ZN3BTD13L2CAP_CommandEtPhhhh
 637              	.LVL48:
 391:BTHID.c       **** }
 638              		.loc 2 391 0
 639 002c 04B0     		add	sp, sp, #16
 640              		@ sp needed
 641 002e 10BD     		pop	{r4, pc}
 642              	.LVL49:
 643              	.L46:
 644 0030 4C32     		adds	r2, r2, #76
 645 0032 1143     		orrs	r1, r2
 646 0034 EEE7     		b	.L45
 647              		.cfi_endproc
 648              	.LFE288:
 649              		.fnend
 650              		.size	_ZN5BTHID11setProtocolEv, .-_ZN5BTHID11setProtocolEv
 651 0036 C046     		.section	.text._ZN5BTHID10L2CAP_taskEv,"ax",%progbits
 652              		.align	2
 653              		.global	_ZN5BTHID10L2CAP_taskEv
 654              		.code	16
 655              		.thumb_func
 656              		.type	_ZN5BTHID10L2CAP_taskEv, %function
 657              	_ZN5BTHID10L2CAP_taskEv:
 658              		.fnstart
 659              	.LFB286:
 238:BTHID.c       ****         switch(l2cap_state) {
ARM GAS  C:\Users\jrdia\AppData\Local\Temp\ccYHzYw6.s 			page 33


 660              		.loc 2 238 0
 661              		.cfi_startproc
 662              		@ args = 0, pretend = 0, frame = 0
 663              		@ frame_needed = 0, uses_anonymous_args = 0
 664              	.LVL50:
 239:BTHID.c       ****                         /* These states are used if the HID device is the host */
 665              		.loc 2 239 0
 666 0000 2A23     		movs	r3, #42
 238:BTHID.c       ****         switch(l2cap_state) {
 667              		.loc 2 238 0
 668 0002 70B5     		push	{r4, r5, r6, lr}
 669              		.save {r4, r5, r6, lr}
 670              		.cfi_def_cfa_offset 16
 671              		.cfi_offset 4, -16
 672              		.cfi_offset 5, -12
 673              		.cfi_offset 6, -8
 674              		.cfi_offset 14, -4
 239:BTHID.c       ****                         /* These states are used if the HID device is the host */
 675              		.loc 2 239 0
 676 0004 C35C     		ldrb	r3, [r0, r3]
 238:BTHID.c       ****         switch(l2cap_state) {
 677              		.loc 2 238 0
 678              		.pad #8
 679 0006 82B0     		sub	sp, sp, #8
 680              		.cfi_def_cfa_offset 24
 238:BTHID.c       ****         switch(l2cap_state) {
 681              		.loc 2 238 0
 682 0008 0400     		movs	r4, r0
 239:BTHID.c       ****                         /* These states are used if the HID device is the host */
 683              		.loc 2 239 0
 684 000a 092B     		cmp	r3, #9
 685 000c 21D8     		bhi	.L47
 686 000e 5A4A     		ldr	r2, .L90
 687 0010 9B00     		lsls	r3, r3, #2
 688 0012 D358     		ldr	r3, [r2, r3]
 689 0014 9F46     		mov	pc, r3
 690              		.section	.rodata
 691              		.align	2
 692              	.L50:
 693 0000 52000000 		.word	.L47
 694 0004 52000000 		.word	.L47
 695 0008 7C000000 		.word	.L49
 696 000c 9E000000 		.word	.L51
 697 0010 CE000000 		.word	.L52
 698 0014 E0000000 		.word	.L53
 699 0018 FE000000 		.word	.L54
 700 001c 4A010000 		.word	.L55
 701 0020 16000000 		.word	.L56
 702 0024 56000000 		.word	.L57
 703              		.section	.text._ZN5BTHID10L2CAP_taskEv
 704              	.L56:
 304:BTHID.c       **** #ifdef DEBUG_USB_HOST
 705              		.loc 2 304 0
 706 0016 0369     		ldr	r3, [r0, #16]
 707 0018 9B06     		lsls	r3, r3, #26
 708 001a 1AD5     		bpl	.L47
 308:BTHID.c       ****                                 pBtd->pairWithHIDDevice = false;
ARM GAS  C:\Users\jrdia\AppData\Local\Temp\ccYHzYw6.s 			page 34


 709              		.loc 2 308 0
 710 001c 0022     		movs	r2, #0
 711 001e 4621     		movs	r1, #70
 712 0020 8368     		ldr	r3, [r0, #8]
 713 0022 5A54     		strb	r2, [r3, r1]
 309:BTHID.c       ****                                 connected = true;
 714              		.loc 2 309 0
 715 0024 0231     		adds	r1, r1, #2
 716 0026 5A54     		strb	r2, [r3, r1]
 310:BTHID.c       ****                                 onInit();
 717              		.loc 2 310 0
 718 0028 0123     		movs	r3, #1
 719 002a 4375     		strb	r3, [r0, #21]
 311:BTHID.c       ****                                 l2cap_state = L2CAP_DONE;
 720              		.loc 2 311 0
 721 002c 0368     		ldr	r3, [r0]
 722 002e 5349     		ldr	r1, .L90+4
 723 0030 1A69     		ldr	r2, [r3, #16]
 724 0032 8A42     		cmp	r2, r1
 725 0034 00D0     		beq	.LCB549
 726 0036 9AE0     		b	.L58	@long jump
 727              	.LCB549:
 728              	.LVL51:
 729              	.LBB58:
 730              	.LBB59:
 113:BTHID.h       ****                         pFuncOnInit(); // Call the user function
 731              		.loc 1 113 0
 732 0038 4268     		ldr	r2, [r0, #4]
 733 003a 002A     		cmp	r2, #0
 734 003c 01D0     		beq	.L59
 114:BTHID.h       ****                 OnInitBTHID();
 735              		.loc 1 114 0
 736 003e 9047     		blx	r2
 737              	.LVL52:
 738 0040 2368     		ldr	r3, [r4]
 739              	.L59:
 115:BTHID.h       ****         };
 740              		.loc 1 115 0
 741 0042 9B69     		ldr	r3, [r3, #24]
 742 0044 4E4A     		ldr	r2, .L90+8
 743 0046 9342     		cmp	r3, r2
 744 0048 00D0     		beq	.LCB568
 745 004a 92E0     		b	.L89	@long jump
 746              	.LCB568:
 747              	.LVL53:
 748              	.L60:
 749              	.LBE59:
 750              	.LBE58:
 312:BTHID.c       ****                         }
 751              		.loc 2 312 0
 752 004c 0122     		movs	r2, #1
 753 004e 2A23     		movs	r3, #42
 754 0050 E254     		strb	r2, [r4, r3]
 755              	.L47:
 342:BTHID.c       **** 
 756              		.loc 2 342 0
 757 0052 02B0     		add	sp, sp, #8
ARM GAS  C:\Users\jrdia\AppData\Local\Temp\ccYHzYw6.s 			page 35


 758              		@ sp needed
 759              	.LVL54:
 760 0054 70BD     		pop	{r4, r5, r6, pc}
 761              	.LVL55:
 762              	.L57:
 320:BTHID.c       **** #ifdef DEBUG_USB_HOST
 763              		.loc 2 320 0
 764 0056 0369     		ldr	r3, [r0, #16]
 765 0058 1B06     		lsls	r3, r3, #24
 766 005a FAD5     		bpl	.L47
 325:BTHID.c       ****                                 l2cap_state = L2CAP_CONTROL_DISCONNECT;
 767              		.loc 2 325 0
 768 005c 0300     		movs	r3, r0
 324:BTHID.c       ****                                 pBtd->l2cap_disconnection_request(hci_handle, identifier, control_s
 769              		.loc 2 324 0
 770 005e 027D     		ldrb	r2, [r0, #20]
 325:BTHID.c       ****                                 l2cap_state = L2CAP_CONTROL_DISCONNECT;
 771              		.loc 2 325 0
 772 0060 8189     		ldrh	r1, [r0, #12]
 324:BTHID.c       ****                                 pBtd->l2cap_disconnection_request(hci_handle, identifier, control_s
 773              		.loc 2 324 0
 774 0062 0132     		adds	r2, r2, #1
 775 0064 D2B2     		uxtb	r2, r2
 776 0066 0275     		strb	r2, [r0, #20]
 325:BTHID.c       ****                                 l2cap_state = L2CAP_CONTROL_DISCONNECT;
 777              		.loc 2 325 0
 778 0068 2630     		adds	r0, r0, #38
 779              	.LVL56:
 780 006a 1633     		adds	r3, r3, #22
 781 006c 0090     		str	r0, [sp]
 782 006e A068     		ldr	r0, [r4, #8]
 783 0070 FFF7FEFF 		bl	_ZN3BTD27l2cap_disconnection_requestEthPhS0_
 784              	.LVL57:
 326:BTHID.c       ****                         }
 785              		.loc 2 326 0
 786 0074 0522     		movs	r2, #5
 787 0076 2A23     		movs	r3, #42
 788 0078 E254     		strb	r2, [r4, r3]
 789 007a EAE7     		b	.L47
 790              	.LVL58:
 791              	.L49:
 269:BTHID.c       **** #ifdef DEBUG_USB_HOST
 792              		.loc 2 269 0
 793 007c 0369     		ldr	r3, [r0, #16]
 794 007e 5B07     		lsls	r3, r3, #29
 795 0080 E7D5     		bpl	.L47
 274:BTHID.c       ****                                 l2cap_state = L2CAP_CONTROL_CONFIG_REQUEST;
 796              		.loc 2 274 0
 797 0082 0300     		movs	r3, r0
 273:BTHID.c       ****                                 pBtd->l2cap_config_request(hci_handle, identifier, control_scid);
 798              		.loc 2 273 0
 799 0084 027D     		ldrb	r2, [r0, #20]
 274:BTHID.c       ****                                 l2cap_state = L2CAP_CONTROL_CONFIG_REQUEST;
 800              		.loc 2 274 0
 801 0086 1633     		adds	r3, r3, #22
 273:BTHID.c       ****                                 pBtd->l2cap_config_request(hci_handle, identifier, control_scid);
 802              		.loc 2 273 0
ARM GAS  C:\Users\jrdia\AppData\Local\Temp\ccYHzYw6.s 			page 36


 803 0088 0132     		adds	r2, r2, #1
 804 008a D2B2     		uxtb	r2, r2
 805 008c 0275     		strb	r2, [r0, #20]
 274:BTHID.c       ****                                 l2cap_state = L2CAP_CONTROL_CONFIG_REQUEST;
 806              		.loc 2 274 0
 807 008e 8189     		ldrh	r1, [r0, #12]
 808 0090 8068     		ldr	r0, [r0, #8]
 809              	.LVL59:
 810 0092 FFF7FEFF 		bl	_ZN3BTD20l2cap_config_requestEthPh
 811              	.LVL60:
 275:BTHID.c       ****                         }
 812              		.loc 2 275 0
 813 0096 0322     		movs	r2, #3
 814 0098 2A23     		movs	r3, #42
 815 009a E254     		strb	r2, [r4, r3]
 816 009c D9E7     		b	.L47
 817              	.LVL61:
 818              	.L51:
 280:BTHID.c       ****                                 setProtocol(); // Set protocol before establishing HID interrupt ch
 819              		.loc 2 280 0
 820 009e 0369     		ldr	r3, [r0, #16]
 821 00a0 9B07     		lsls	r3, r3, #30
 822 00a2 D6D5     		bpl	.L47
 281:BTHID.c       ****                                 delay(1); // Short delay between commands - just to be sure
 823              		.loc 2 281 0
 824 00a4 FFF7FEFF 		bl	_ZN5BTHID11setProtocolEv
 825              	.LVL62:
 282:BTHID.c       **** #ifdef DEBUG_USB_HOST
 826              		.loc 2 282 0
 827 00a8 0120     		movs	r0, #1
 828 00aa FFF7FEFF 		bl	delay
 829              	.LVL63:
 287:BTHID.c       ****                                 l2cap_state = L2CAP_INTERRUPT_CONNECT_REQUEST;
 830              		.loc 2 287 0
 831 00ae 1320     		movs	r0, #19
 832 00b0 2300     		movs	r3, r4
 286:BTHID.c       ****                                 pBtd->l2cap_connection_request(hci_handle, identifier, interrupt_dc
 833              		.loc 2 286 0
 834 00b2 227D     		ldrb	r2, [r4, #20]
 287:BTHID.c       ****                                 l2cap_state = L2CAP_INTERRUPT_CONNECT_REQUEST;
 835              		.loc 2 287 0
 836 00b4 2833     		adds	r3, r3, #40
 286:BTHID.c       ****                                 pBtd->l2cap_connection_request(hci_handle, identifier, interrupt_dc
 837              		.loc 2 286 0
 838 00b6 0132     		adds	r2, r2, #1
 839 00b8 D2B2     		uxtb	r2, r2
 840 00ba 2275     		strb	r2, [r4, #20]
 287:BTHID.c       ****                                 l2cap_state = L2CAP_INTERRUPT_CONNECT_REQUEST;
 841              		.loc 2 287 0
 842 00bc 0090     		str	r0, [sp]
 843 00be A189     		ldrh	r1, [r4, #12]
 844 00c0 A068     		ldr	r0, [r4, #8]
 845 00c2 FFF7FEFF 		bl	_ZN3BTD24l2cap_connection_requestEthPht
 846              	.LVL64:
 288:BTHID.c       ****                         }
 847              		.loc 2 288 0
 848 00c6 0722     		movs	r2, #7
ARM GAS  C:\Users\jrdia\AppData\Local\Temp\ccYHzYw6.s 			page 37


 849 00c8 2A23     		movs	r3, #42
 850 00ca E254     		strb	r2, [r4, r3]
 851 00cc C1E7     		b	.L47
 852              	.LVL65:
 853              	.L52:
 242:BTHID.c       **** #ifdef DEBUG_USB_HOST
 854              		.loc 2 242 0
 855 00ce 0369     		ldr	r3, [r0, #16]
 856 00d0 9B07     		lsls	r3, r3, #30
 857 00d2 BED5     		bpl	.L47
 246:BTHID.c       ****                                 l2cap_state = L2CAP_INTERRUPT_SETUP;
 858              		.loc 2 246 0
 859 00d4 FFF7FEFF 		bl	_ZN5BTHID11setProtocolEv
 860              	.LVL66:
 247:BTHID.c       ****                         }
 861              		.loc 2 247 0
 862 00d8 0622     		movs	r2, #6
 863 00da 2A23     		movs	r3, #42
 864 00dc E254     		strb	r2, [r4, r3]
 865 00de B8E7     		b	.L47
 866              	.LVL67:
 867              	.L53:
 331:BTHID.c       **** #ifdef DEBUG_USB_HOST
 868              		.loc 2 331 0
 869 00e0 0369     		ldr	r3, [r0, #16]
 870 00e2 1B07     		lsls	r3, r3, #28
 871 00e4 B5D5     		bpl	.L47
 335:BTHID.c       ****                                 hci_handle = -1; // Reset handle
 872              		.loc 2 335 0
 873 00e6 8189     		ldrh	r1, [r0, #12]
 874 00e8 8068     		ldr	r0, [r0, #8]
 875              	.LVL68:
 876 00ea FFF7FEFF 		bl	_ZN3BTD14hci_disconnectEt
 877              	.LVL69:
 336:BTHID.c       ****                                 l2cap_event_flag = 0; // Reset flags
 878              		.loc 2 336 0
 879 00ee 0123     		movs	r3, #1
 880 00f0 5B42     		rsbs	r3, r3, #0
 881 00f2 A381     		strh	r3, [r4, #12]
 338:BTHID.c       ****                         }
 882              		.loc 2 338 0
 883 00f4 2A22     		movs	r2, #42
 337:BTHID.c       ****                                 l2cap_state = L2CAP_WAIT;
 884              		.loc 2 337 0
 885 00f6 0023     		movs	r3, #0
 886 00f8 2361     		str	r3, [r4, #16]
 338:BTHID.c       ****                         }
 887              		.loc 2 338 0
 888 00fa A354     		strb	r3, [r4, r2]
 342:BTHID.c       **** 
 889              		.loc 2 342 0
 890 00fc A9E7     		b	.L47
 891              	.LVL70:
 892              	.L54:
 252:BTHID.c       **** #ifdef DEBUG_USB_HOST
 893              		.loc 2 252 0
 894 00fe 0369     		ldr	r3, [r0, #16]
ARM GAS  C:\Users\jrdia\AppData\Local\Temp\ccYHzYw6.s 			page 38


 895 0100 DB06     		lsls	r3, r3, #27
 896 0102 A6D5     		bpl	.L47
 256:BTHID.c       ****                                 delay(1);
 897              		.loc 2 256 0
 898 0104 0500     		movs	r5, r0
 899 0106 0600     		movs	r6, r0
 900 0108 0123     		movs	r3, #1
 901 010a 1835     		adds	r5, r5, #24
 902 010c 027D     		ldrb	r2, [r0, #20]
 903 010e 8189     		ldrh	r1, [r0, #12]
 904 0110 2836     		adds	r6, r6, #40
 905 0112 0193     		str	r3, [sp, #4]
 906 0114 0095     		str	r5, [sp]
 907 0116 3300     		movs	r3, r6
 908 0118 8068     		ldr	r0, [r0, #8]
 909              	.LVL71:
 910 011a FFF7FEFF 		bl	_ZN3BTD25l2cap_connection_responseEthPhS0_h
 911              	.LVL72:
 257:BTHID.c       ****                                 pBtd->l2cap_connection_response(hci_handle, identifier, interrupt_d
 912              		.loc 2 257 0
 913 011e 0120     		movs	r0, #1
 914 0120 FFF7FEFF 		bl	delay
 915              	.LVL73:
 258:BTHID.c       ****                                 identifier++;
 916              		.loc 2 258 0
 917 0124 0023     		movs	r3, #0
 918 0126 227D     		ldrb	r2, [r4, #20]
 919 0128 A189     		ldrh	r1, [r4, #12]
 920 012a 0193     		str	r3, [sp, #4]
 921 012c A068     		ldr	r0, [r4, #8]
 922 012e 3300     		movs	r3, r6
 923 0130 0095     		str	r5, [sp]
 924 0132 FFF7FEFF 		bl	_ZN3BTD25l2cap_connection_responseEthPhS0_h
 925              	.LVL74:
 259:BTHID.c       ****                                 delay(1);
 926              		.loc 2 259 0
 927 0136 237D     		ldrb	r3, [r4, #20]
 260:BTHID.c       ****                                 pBtd->l2cap_config_request(hci_handle, identifier, interrupt_scid);
 928              		.loc 2 260 0
 929 0138 0120     		movs	r0, #1
 259:BTHID.c       ****                                 delay(1);
 930              		.loc 2 259 0
 931 013a 0133     		adds	r3, r3, #1
 932 013c 2375     		strb	r3, [r4, #20]
 260:BTHID.c       ****                                 pBtd->l2cap_config_request(hci_handle, identifier, interrupt_scid);
 933              		.loc 2 260 0
 934 013e FFF7FEFF 		bl	delay
 935              	.LVL75:
 261:BTHID.c       **** 
 936              		.loc 2 261 0
 937 0142 227D     		ldrb	r2, [r4, #20]
 938 0144 A189     		ldrh	r1, [r4, #12]
 939 0146 2B00     		movs	r3, r5
 940 0148 0AE0     		b	.L88
 941              	.LVL76:
 942              	.L55:
 293:BTHID.c       **** #ifdef DEBUG_USB_HOST
ARM GAS  C:\Users\jrdia\AppData\Local\Temp\ccYHzYw6.s 			page 39


 943              		.loc 2 293 0
 944 014a 0369     		ldr	r3, [r0, #16]
 945 014c 5B06     		lsls	r3, r3, #25
 946 014e 00D4     		bmi	.LCB774
 947 0150 7FE7     		b	.L47	@long jump
 948              	.LCB774:
 298:BTHID.c       ****                                 l2cap_state = L2CAP_INTERRUPT_CONFIG_REQUEST;
 949              		.loc 2 298 0
 950 0152 0300     		movs	r3, r0
 297:BTHID.c       ****                                 pBtd->l2cap_config_request(hci_handle, identifier, interrupt_scid);
 951              		.loc 2 297 0
 952 0154 027D     		ldrb	r2, [r0, #20]
 298:BTHID.c       ****                                 l2cap_state = L2CAP_INTERRUPT_CONFIG_REQUEST;
 953              		.loc 2 298 0
 954 0156 8189     		ldrh	r1, [r0, #12]
 297:BTHID.c       ****                                 pBtd->l2cap_config_request(hci_handle, identifier, interrupt_scid);
 955              		.loc 2 297 0
 956 0158 0132     		adds	r2, r2, #1
 957 015a D2B2     		uxtb	r2, r2
 958 015c 0275     		strb	r2, [r0, #20]
 298:BTHID.c       ****                                 l2cap_state = L2CAP_INTERRUPT_CONFIG_REQUEST;
 959              		.loc 2 298 0
 960 015e 1833     		adds	r3, r3, #24
 961              	.LVL77:
 962              	.L88:
 963 0160 A068     		ldr	r0, [r4, #8]
 964 0162 FFF7FEFF 		bl	_ZN3BTD20l2cap_config_requestEthPh
 965              	.LVL78:
 299:BTHID.c       ****                         }
 966              		.loc 2 299 0
 967 0166 0822     		movs	r2, #8
 968 0168 2A23     		movs	r3, #42
 969 016a E254     		strb	r2, [r4, r3]
 970 016c 71E7     		b	.L47
 971              	.LVL79:
 972              	.L58:
 311:BTHID.c       ****                                 l2cap_state = L2CAP_DONE;
 973              		.loc 2 311 0
 974 016e 9047     		blx	r2
 975              	.LVL80:
 976 0170 6CE7     		b	.L60
 977              	.LVL81:
 978              	.L89:
 979              	.LBB61:
 980              	.LBB60:
 115:BTHID.h       ****         };
 981              		.loc 1 115 0
 982 0172 2000     		movs	r0, r4
 983 0174 9847     		blx	r3
 984              	.LVL82:
 985 0176 69E7     		b	.L60
 986              	.L91:
 987              		.align	2
 988              	.L90:
 989 0178 00000000 		.word	.L50
 990 017c 00000000 		.word	_ZN5BTHID6onInitEv
 991 0180 00000000 		.word	_ZN5BTHID11OnInitBTHIDEv
ARM GAS  C:\Users\jrdia\AppData\Local\Temp\ccYHzYw6.s 			page 40


 992              	.LBE60:
 993              	.LBE61:
 994              		.cfi_endproc
 995              	.LFE286:
 996              		.fnend
 997              		.size	_ZN5BTHID10L2CAP_taskEv, .-_ZN5BTHID10L2CAP_taskEv
 998              		.section	.text._ZN5BTHID7ACLDataEPh,"ax",%progbits
 999              		.align	2
 1000              		.global	_ZN5BTHID7ACLDataEPh
 1001              		.code	16
 1002              		.thumb_func
 1003              		.type	_ZN5BTHID7ACLDataEPh, %function
 1004              	_ZN5BTHID7ACLDataEPh:
 1005              		.fnstart
 1006              	.LFB285:
  56:BTHID.c       ****         if(!pBtd->l2capConnectionClaimed && pBtd->incomingHIDDevice && !connected && !activeConnect
 1007              		.loc 2 56 0
 1008              		.cfi_startproc
 1009              		@ args = 0, pretend = 0, frame = 0
 1010              		@ frame_needed = 0, uses_anonymous_args = 0
 1011              	.LVL83:
 1012 0000 F0B5     		push	{r4, r5, r6, r7, lr}
 1013              		.save {r4, r5, r6, r7, lr}
 1014              		.cfi_def_cfa_offset 20
 1015              		.cfi_offset 4, -20
 1016              		.cfi_offset 5, -16
 1017              		.cfi_offset 6, -12
 1018              		.cfi_offset 7, -8
 1019              		.cfi_offset 14, -4
 1020 0002 0400     		movs	r4, r0
  57:BTHID.c       ****                 if(l2capinbuf[8] == L2CAP_CMD_CONNECTION_REQUEST) {
 1021              		.loc 2 57 0
 1022 0004 8068     		ldr	r0, [r0, #8]
 1023              	.LVL84:
  56:BTHID.c       ****         if(!pBtd->l2capConnectionClaimed && pBtd->incomingHIDDevice && !connected && !activeConnect
 1024              		.loc 2 56 0
 1025              		.pad #12
 1026 0006 83B0     		sub	sp, sp, #12
 1027              		.cfi_def_cfa_offset 32
  57:BTHID.c       ****                 if(l2capinbuf[8] == L2CAP_CMD_CONNECTION_REQUEST) {
 1028              		.loc 2 57 0
 1029 0008 437A     		ldrb	r3, [r0, #9]
  56:BTHID.c       ****         if(!pBtd->l2capConnectionClaimed && pBtd->incomingHIDDevice && !connected && !activeConnect
 1030              		.loc 2 56 0
 1031 000a 0D00     		movs	r5, r1
  57:BTHID.c       ****                 if(l2capinbuf[8] == L2CAP_CMD_CONNECTION_REQUEST) {
 1032              		.loc 2 57 0
 1033 000c 002B     		cmp	r3, #0
 1034 000e 03D1     		bne	.L95
  57:BTHID.c       ****                 if(l2capinbuf[8] == L2CAP_CMD_CONNECTION_REQUEST) {
 1035              		.loc 2 57 0 is_stmt 0 discriminator 1
 1036 0010 4723     		movs	r3, #71
 1037 0012 C25C     		ldrb	r2, [r0, r3]
 1038 0014 002A     		cmp	r2, #0
 1039 0016 06D1     		bne	.L131
 1040              	.LVL85:
 1041              	.L95:
ARM GAS  C:\Users\jrdia\AppData\Local\Temp\ccYHzYw6.s 			page 41


 1042 0018 A189     		ldrh	r1, [r4, #12]
 1043              	.L94:
 1044              	.LVL86:
 1045              	.LBB72:
 1046              	.LBB73:
 1047              	.LBB74:
 570:BTD.h         ****                         pBtd->registerBluetoothService(this); // Register it as a Bluetooth service
 571:BTD.h         ****         };
 572:BTD.h         ****         /**
 573:BTD.h         ****          * Used to pass acldata to the Bluetooth service.
 574:BTD.h         ****          * @param ACLData Pointer to the incoming acldata.
 575:BTD.h         ****          */
 576:BTD.h         ****         virtual void ACLData(uint8_t* ACLData) = 0;
 577:BTD.h         ****         /** Used to run the different state machines in the Bluetooth service. */
 578:BTD.h         ****         virtual void Run() = 0;
 579:BTD.h         ****         /** Used to reset the Bluetooth service. */
 580:BTD.h         ****         virtual void Reset() = 0;
 581:BTD.h         ****         /** Used to disconnect both the L2CAP Channel and the HCI Connection for the Bluetooth serv
 582:BTD.h         ****         virtual void disconnect() = 0;
 583:BTD.h         **** 
 584:BTD.h         ****         /**
 585:BTD.h         ****          * Used to call your own function when the device is successfully initialized.
 586:BTD.h         ****          * @param funcOnInit Function to call.
 587:BTD.h         ****          */
 588:BTD.h         ****         void attachOnInit(void (*funcOnInit)(void)) {
 589:BTD.h         ****                 pFuncOnInit = funcOnInit; // TODO: This really belong in a class of it's own as it 
 590:BTD.h         ****         };
 591:BTD.h         **** 
 592:BTD.h         **** protected:
 593:BTD.h         ****         /**
 594:BTD.h         ****          * Called when a device is successfully initialized.
 595:BTD.h         ****          * Use attachOnInit(void (*funcOnInit)(void)) to call your own function.
 596:BTD.h         ****          * This is useful for instance if you want to set the LEDs in a specific way.
 597:BTD.h         ****          */
 598:BTD.h         ****         virtual void onInit() = 0;
 599:BTD.h         **** 
 600:BTD.h         ****         /** Used to check if the incoming L2CAP data matches the HCI Handle */
 601:BTD.h         ****         bool checkHciHandle(uint8_t *buf, uint16_t handle) {
 602:BTD.h         ****                 return (buf[0] == (handle & 0xFF)) && (buf[1] == ((handle >> 8) | 0x20));
 1048              		.loc 3 602 0 is_stmt 1
 1049 001a 2B78     		ldrb	r3, [r5]
 1050 001c CAB2     		uxtb	r2, r1
 1051 001e 9A42     		cmp	r2, r3
 1052 0020 1AD0     		beq	.L132
 1053              	.LVL87:
 1054              	.L92:
 1055              	.LBE74:
 1056              	.LBE73:
 1057              	.LBE72:
 236:BTHID.c       **** 
 1058              		.loc 2 236 0
 1059 0022 03B0     		add	sp, sp, #12
 1060              		@ sp needed
 1061              	.LVL88:
 1062 0024 F0BD     		pop	{r4, r5, r6, r7, pc}
 1063              	.LVL89:
 1064              	.L131:
ARM GAS  C:\Users\jrdia\AppData\Local\Temp\ccYHzYw6.s 			page 42


  57:BTHID.c       ****                 if(l2capinbuf[8] == L2CAP_CMD_CONNECTION_REQUEST) {
 1065              		.loc 2 57 0 discriminator 2
 1066 0026 627D     		ldrb	r2, [r4, #21]
 1067 0028 002A     		cmp	r2, #0
 1068 002a F5D1     		bne	.L95
  57:BTHID.c       ****                 if(l2capinbuf[8] == L2CAP_CMD_CONNECTION_REQUEST) {
 1069              		.loc 2 57 0 is_stmt 0 discriminator 3
 1070 002c 2521     		movs	r1, #37
 1071              	.LVL90:
 1072 002e 625C     		ldrb	r2, [r4, r1]
 1073 0030 002A     		cmp	r2, #0
 1074 0032 F1D1     		bne	.L95
  58:BTHID.c       ****                         if((l2capinbuf[12] | (l2capinbuf[13] << 8)) == HID_CTRL_PSM) {
 1075              		.loc 2 58 0 is_stmt 1
 1076 0034 2E7A     		ldrb	r6, [r5, #8]
 1077 0036 022E     		cmp	r6, #2
 1078 0038 EED1     		bne	.L95
 1079 003a 6E7B     		ldrb	r6, [r5, #13]
 1080 003c 2F7B     		ldrb	r7, [r5, #12]
 1081 003e 3602     		lsls	r6, r6, #8
  59:BTHID.c       ****                                 pBtd->incomingHIDDevice = false;
 1082              		.loc 2 59 0
 1083 0040 3E43     		orrs	r6, r7
 1084 0042 112E     		cmp	r6, #17
 1085 0044 E8D1     		bne	.L95
  60:BTHID.c       ****                                 pBtd->l2capConnectionClaimed = true; // Claim that the incoming con
 1086              		.loc 2 60 0
 1087 0046 C254     		strb	r2, [r0, r3]
  61:BTHID.c       ****                                 activeConnection = true;
 1088              		.loc 2 61 0
 1089 0048 463B     		subs	r3, r3, #70
 1090 004a 4372     		strb	r3, [r0, #9]
  62:BTHID.c       ****                                 hci_handle = pBtd->hci_handle; // Store the HCI Handle for the conn
 1091              		.loc 2 62 0
 1092 004c 6354     		strb	r3, [r4, r1]
  63:BTHID.c       ****                                 l2cap_state = L2CAP_WAIT;
 1093              		.loc 2 63 0
 1094 004e 418B     		ldrh	r1, [r0, #26]
  64:BTHID.c       ****                         }
 1095              		.loc 2 64 0
 1096 0050 2933     		adds	r3, r3, #41
  63:BTHID.c       ****                                 l2cap_state = L2CAP_WAIT;
 1097              		.loc 2 63 0
 1098 0052 A181     		strh	r1, [r4, #12]
  64:BTHID.c       ****                         }
 1099              		.loc 2 64 0
 1100 0054 E254     		strb	r2, [r4, r3]
 1101 0056 E0E7     		b	.L94
 1102              	.LVL91:
 1103              	.L132:
 1104              	.LBB88:
 1105              	.LBB76:
 1106              	.LBB75:
 1107              		.loc 3 602 0
 1108 0058 2023     		movs	r3, #32
 1109 005a 6A78     		ldrb	r2, [r5, #1]
 1110 005c 0E12     		asrs	r6, r1, #8
ARM GAS  C:\Users\jrdia\AppData\Local\Temp\ccYHzYw6.s 			page 43


 1111 005e 3343     		orrs	r3, r6
 1112 0060 9A42     		cmp	r2, r3
 1113 0062 DED1     		bne	.L92
 1114              	.LVL92:
 1115              	.LBE75:
 1116              	.LBE76:
 1117              	.LBB77:
 1118              	.LBB78:
  70:BTHID.c       ****                         if(l2capinbuf[8] == L2CAP_CMD_COMMAND_REJECT) {
 1119              		.loc 2 70 0
 1120 0064 EE79     		ldrb	r6, [r5, #7]
 1121 0066 AA79     		ldrb	r2, [r5, #6]
 1122 0068 3302     		lsls	r3, r6, #8
 1123 006a 1343     		orrs	r3, r2
 1124 006c 012B     		cmp	r3, #1
 1125 006e 07D0     		beq	.L133
 1126              	.LBB79:
 180:BTHID.c       **** #ifdef PRINTREPORT
 1127              		.loc 2 180 0
 1128 0070 2823     		movs	r3, #40
 1129 0072 E35C     		ldrb	r3, [r4, r3]
 1130 0074 9342     		cmp	r3, r2
 1131 0076 28D0     		beq	.L134
 1132              	.LVL93:
 1133              	.L99:
 1134              	.LBE79:
 1135              	.LBE78:
 234:BTHID.c       ****         }
 1136              		.loc 2 234 0
 1137 0078 2000     		movs	r0, r4
 1138 007a FFF7FEFF 		bl	_ZN5BTHID10L2CAP_taskEv
 1139              	.LVL94:
 1140              	.LBE77:
 1141              	.LBE88:
 236:BTHID.c       **** 
 1142              		.loc 2 236 0
 1143 007e D0E7     		b	.L92
 1144              	.LVL95:
 1145              	.L133:
 1146              	.LBB89:
 1147              	.LBB87:
 1148              	.LBB86:
  71:BTHID.c       **** #ifdef DEBUG_USB_HOST
 1149              		.loc 2 71 0
 1150 0080 2A7A     		ldrb	r2, [r5, #8]
 1151 0082 012A     		cmp	r2, #1
 1152 0084 F8D0     		beq	.L99
  86:BTHID.c       ****                                 if(((l2capinbuf[16] | (l2capinbuf[17] << 8)) == 0x0000) && ((l2capi
 1153              		.loc 2 86 0
 1154 0086 032A     		cmp	r2, #3
 1155 0088 5BD0     		beq	.L135
 102:BTHID.c       **** #ifdef EXTRADEBUG
 1156              		.loc 2 102 0
 1157 008a 022A     		cmp	r2, #2
 1158 008c 00D1     		bne	.LCB981
 1159 008e 7DE0     		b	.L136	@long jump
 1160              	.LCB981:
ARM GAS  C:\Users\jrdia\AppData\Local\Temp\ccYHzYw6.s 			page 44


 126:BTHID.c       ****                                 if((l2capinbuf[16] | (l2capinbuf[17] << 8)) == 0x0000) { // Success
 1161              		.loc 2 126 0
 1162 0090 052A     		cmp	r2, #5
 1163 0092 3BD0     		beq	.L137
 138:BTHID.c       ****                                 if(l2capinbuf[12] == control_dcid[0] && l2capinbuf[13] == control_d
 1164              		.loc 2 138 0
 1165 0094 042A     		cmp	r2, #4
 1166 0096 00D1     		bne	.LCB985
 1167 0098 8CE0     		b	.L138	@long jump
 1168              	.LCB985:
 146:BTHID.c       ****                                 if(l2capinbuf[12] == control_dcid[0] && l2capinbuf[13] == control_d
 1169              		.loc 2 146 0
 1170 009a 062A     		cmp	r2, #6
 1171 009c 00D1     		bne	.LCB987
 1172 009e 9FE0     		b	.L139	@long jump
 1173              	.LCB987:
 162:BTHID.c       ****                                 if(l2capinbuf[12] == control_scid[0] && l2capinbuf[13] == control_s
 1174              		.loc 2 162 0
 1175 00a0 072A     		cmp	r2, #7
 1176 00a2 E9D1     		bne	.L99
 163:BTHID.c       ****                                         //Notify(PSTR("\r\nDisconnect Response: Control Channel"), 
 1177              		.loc 2 163 0
 1178 00a4 2B7B     		ldrb	r3, [r5, #12]
 1179 00a6 A27D     		ldrb	r2, [r4, #22]
 1180 00a8 9A42     		cmp	r2, r3
 1181 00aa 00D1     		bne	.LCB993
 1182 00ac F2E0     		b	.L140	@long jump
 1183              	.LCB993:
 1184              	.L111:
 167:BTHID.c       ****                                         //Notify(PSTR("\r\nDisconnect Response: Interrupt Channel")
 1185              		.loc 2 167 0
 1186 00ae 227E     		ldrb	r2, [r4, #24]
 1187 00b0 9A42     		cmp	r2, r3
 1188 00b2 E1D1     		bne	.L99
 167:BTHID.c       ****                                         //Notify(PSTR("\r\nDisconnect Response: Interrupt Channel")
 1189              		.loc 2 167 0 is_stmt 0 discriminator 1
 1190 00b4 6A7B     		ldrb	r2, [r5, #13]
 1191 00b6 637E     		ldrb	r3, [r4, #25]
 1192 00b8 9A42     		cmp	r2, r3
 1193 00ba DDD1     		bne	.L99
 169:BTHID.c       ****                                         l2cap_set_flag(L2CAP_FLAG_DISCONNECT_INTERRUPT_RESPONSE);
 1194              		.loc 2 169 0 is_stmt 1
 1195 00bc 6B7A     		ldrb	r3, [r5, #9]
 170:BTHID.c       ****                                 }
 1196              		.loc 2 170 0
 1197 00be 2269     		ldr	r2, [r4, #16]
 169:BTHID.c       ****                                         l2cap_set_flag(L2CAP_FLAG_DISCONNECT_INTERRUPT_RESPONSE);
 1198              		.loc 2 169 0
 1199 00c0 2375     		strb	r3, [r4, #20]
 170:BTHID.c       ****                                 }
 1200              		.loc 2 170 0
 1201 00c2 8023     		movs	r3, #128
 1202 00c4 1343     		orrs	r3, r2
 1203 00c6 2361     		str	r3, [r4, #16]
 1204 00c8 D6E7     		b	.L99
 1205              	.L134:
 1206              	.LBB84:
ARM GAS  C:\Users\jrdia\AppData\Local\Temp\ccYHzYw6.s 			page 45


 180:BTHID.c       **** #ifdef PRINTREPORT
 1207              		.loc 2 180 0 discriminator 1
 1208 00ca 2923     		movs	r3, #41
 1209 00cc E35C     		ldrb	r3, [r4, r3]
 1210 00ce B342     		cmp	r3, r6
 1211 00d0 D2D1     		bne	.L99
 1212              	.LBB80:
 188:BTHID.c       ****                                 uint16_t length = ((uint16_t)l2capinbuf[5] << 8 | l2capinbuf[4]);
 1213              		.loc 2 188 0
 1214 00d2 2B7A     		ldrb	r3, [r5, #8]
 1215 00d4 A12B     		cmp	r3, #161
 1216 00d6 CFD1     		bne	.L99
 1217              	.LVL96:
 1218              	.LBB81:
 190:BTHID.c       **** 
 1219              		.loc 2 190 0
 1220 00d8 2368     		ldr	r3, [r4]
 1221 00da 7A4A     		ldr	r2, .L147
 1222 00dc 5B69     		ldr	r3, [r3, #20]
 1223 00de 2E79     		ldrb	r6, [r5, #4]
 1224 00e0 9342     		cmp	r3, r2
 1225 00e2 00D0     		beq	.LCB1037
 1226 00e4 E7E0     		b	.L141	@long jump
 1227              	.LCB1037:
 1228              	.LVL97:
 1229              	.L112:
 192:BTHID.c       ****                                         case 0x01: // Keyboard or Joystick events
 1230              		.loc 2 192 0
 1231 00e6 6B7A     		ldrb	r3, [r5, #9]
 1232 00e8 012B     		cmp	r3, #1
 1233 00ea 00D1     		bne	.LCB1044
 1234 00ec DEE0     		b	.L113	@long jump
 1235              	.LCB1044:
 1236 00ee 022B     		cmp	r3, #2
 1237 00f0 C2D1     		bne	.L99
 199:BTHID.c       ****                                                         pRptParser[MOUSE_PARSER_ID]->Parse(reinterp
 1238              		.loc 2 199 0
 1239 00f2 206A     		ldr	r0, [r4, #32]
 1240 00f4 0028     		cmp	r0, #0
 1241 00f6 BFD0     		beq	.L99
 1242              	.L128:
 200:BTHID.c       ****                                                 break;
 1243              		.loc 2 200 0
 1244 00f8 0268     		ldr	r2, [r0]
 1245 00fa 0A35     		adds	r5, r5, #10
 1246              	.LVL98:
 1247 00fc B31E     		subs	r3, r6, #2
 1248 00fe 0095     		str	r5, [sp]
 1249 0100 1568     		ldr	r5, [r2]
 1250              	.LVL99:
 1251 0102 DBB2     		uxtb	r3, r3
 1252 0104 0022     		movs	r2, #0
 1253 0106 2100     		movs	r1, r4
 1254 0108 A847     		blx	r5
 1255              	.LVL100:
 1256 010a B5E7     		b	.L99
 1257              	.LVL101:
ARM GAS  C:\Users\jrdia\AppData\Local\Temp\ccYHzYw6.s 			page 46


 1258              	.L137:
 1259 010c 6B7C     		ldrb	r3, [r5, #17]
 1260 010e 2A7C     		ldrb	r2, [r5, #16]
 1261 0110 1B02     		lsls	r3, r3, #8
 1262              	.LBE81:
 1263              	.LBE80:
 1264              	.LBE84:
 127:BTHID.c       ****                                         if(l2capinbuf[12] == control_dcid[0] && l2capinbuf[13] == c
 1265              		.loc 2 127 0
 1266 0112 1343     		orrs	r3, r2
 1267 0114 B0D1     		bne	.L99
 128:BTHID.c       ****                                                 //Notify(PSTR("\r\nHID Control Configuration Comple
 1268              		.loc 2 128 0
 1269 0116 2622     		movs	r2, #38
 1270 0118 2B7B     		ldrb	r3, [r5, #12]
 1271 011a A25C     		ldrb	r2, [r4, r2]
 1272 011c 9A42     		cmp	r2, r3
 1273 011e 00D1     		bne	.LCB1088
 1274 0120 9AE0     		b	.L142	@long jump
 1275              	.LCB1088:
 1276              	.L106:
 132:BTHID.c       ****                                                 //Notify(PSTR("\r\nHID Interrupt Configuration Comp
 1277              		.loc 2 132 0
 1278 0122 2822     		movs	r2, #40
 1279 0124 A25C     		ldrb	r2, [r4, r2]
 1280 0126 9A42     		cmp	r2, r3
 1281 0128 A6D1     		bne	.L99
 132:BTHID.c       ****                                                 //Notify(PSTR("\r\nHID Interrupt Configuration Comp
 1282              		.loc 2 132 0 is_stmt 0 discriminator 1
 1283 012a 2923     		movs	r3, #41
 1284 012c 6A7B     		ldrb	r2, [r5, #13]
 1285 012e E35C     		ldrb	r3, [r4, r3]
 1286 0130 9A42     		cmp	r2, r3
 1287 0132 A1D1     		bne	.L99
 134:BTHID.c       ****                                                 l2cap_set_flag(L2CAP_FLAG_CONFIG_INTERRUPT_SUCCESS)
 1288              		.loc 2 134 0 is_stmt 1
 1289 0134 6B7A     		ldrb	r3, [r5, #9]
 135:BTHID.c       ****                                         }
 1290              		.loc 2 135 0
 1291 0136 2269     		ldr	r2, [r4, #16]
 134:BTHID.c       ****                                                 l2cap_set_flag(L2CAP_FLAG_CONFIG_INTERRUPT_SUCCESS)
 1292              		.loc 2 134 0
 1293 0138 2375     		strb	r3, [r4, #20]
 135:BTHID.c       ****                                         }
 1294              		.loc 2 135 0
 1295 013a 2023     		movs	r3, #32
 1296 013c 1343     		orrs	r3, r2
 1297 013e 2361     		str	r3, [r4, #16]
 1298 0140 9AE7     		b	.L99
 1299              	.L135:
 1300 0142 6B7C     		ldrb	r3, [r5, #17]
 1301 0144 2A7C     		ldrb	r2, [r5, #16]
 1302 0146 1B02     		lsls	r3, r3, #8
  87:BTHID.c       ****                                         if(l2capinbuf[14] == control_dcid[0] && l2capinbuf[15] == c
 1303              		.loc 2 87 0
 1304 0148 1343     		orrs	r3, r2
 1305 014a 95D1     		bne	.L99
ARM GAS  C:\Users\jrdia\AppData\Local\Temp\ccYHzYw6.s 			page 47


 1306 014c EB7C     		ldrb	r3, [r5, #19]
 1307 014e AA7C     		ldrb	r2, [r5, #18]
 1308 0150 1B02     		lsls	r3, r3, #8
  87:BTHID.c       ****                                         if(l2capinbuf[14] == control_dcid[0] && l2capinbuf[15] == c
 1309              		.loc 2 87 0 is_stmt 0 discriminator 1
 1310 0152 1343     		orrs	r3, r2
 1311 0154 90D1     		bne	.L99
  88:BTHID.c       ****                                                 //Notify(PSTR("\r\nHID Control Connection Complete"
 1312              		.loc 2 88 0 is_stmt 1
 1313 0156 2622     		movs	r2, #38
 1314 0158 AB7B     		ldrb	r3, [r5, #14]
 1315 015a A25C     		ldrb	r2, [r4, r2]
 1316 015c 9A42     		cmp	r2, r3
 1317 015e 00D1     		bne	.LCB1132
 1318 0160 87E0     		b	.L143	@long jump
 1319              	.LCB1132:
 1320              	.L102:
  94:BTHID.c       ****                                                 //Notify(PSTR("\r\nHID Interrupt Connection Complet
 1321              		.loc 2 94 0
 1322 0162 2822     		movs	r2, #40
 1323 0164 A25C     		ldrb	r2, [r4, r2]
 1324 0166 9A42     		cmp	r2, r3
 1325 0168 86D1     		bne	.L99
  94:BTHID.c       ****                                                 //Notify(PSTR("\r\nHID Interrupt Connection Complet
 1326              		.loc 2 94 0 is_stmt 0 discriminator 1
 1327 016a 2923     		movs	r3, #41
 1328 016c EA7B     		ldrb	r2, [r5, #15]
 1329 016e E35C     		ldrb	r3, [r4, r3]
 1330 0170 9A42     		cmp	r2, r3
 1331 0172 00D0     		beq	.LCB1143
 1332 0174 80E7     		b	.L99	@long jump
 1333              	.LCB1143:
  96:BTHID.c       ****                                                 interrupt_scid[0] = l2capinbuf[12];
 1334              		.loc 2 96 0 is_stmt 1
 1335 0176 6B7A     		ldrb	r3, [r5, #9]
  99:BTHID.c       ****                                         }
 1336              		.loc 2 99 0
 1337 0178 2269     		ldr	r2, [r4, #16]
  96:BTHID.c       ****                                                 interrupt_scid[0] = l2capinbuf[12];
 1338              		.loc 2 96 0
 1339 017a 2375     		strb	r3, [r4, #20]
  97:BTHID.c       ****                                                 interrupt_scid[1] = l2capinbuf[13];
 1340              		.loc 2 97 0
 1341 017c 2B7B     		ldrb	r3, [r5, #12]
 1342 017e 2376     		strb	r3, [r4, #24]
  98:BTHID.c       ****                                                 l2cap_set_flag(L2CAP_FLAG_INTERRUPT_CONNECTED);
 1343              		.loc 2 98 0
 1344 0180 6B7B     		ldrb	r3, [r5, #13]
 1345 0182 6376     		strb	r3, [r4, #25]
  99:BTHID.c       ****                                         }
 1346              		.loc 2 99 0
 1347 0184 4023     		movs	r3, #64
 1348 0186 1343     		orrs	r3, r2
 1349 0188 2361     		str	r3, [r4, #16]
 1350 018a 75E7     		b	.L99
 1351              	.L136:
 1352 018c 6A7B     		ldrb	r2, [r5, #13]
ARM GAS  C:\Users\jrdia\AppData\Local\Temp\ccYHzYw6.s 			page 48


 1353 018e 297B     		ldrb	r1, [r5, #12]
 1354 0190 1202     		lsls	r2, r2, #8
 115:BTHID.c       ****                                         identifier = l2capinbuf[9];
 1355              		.loc 2 115 0
 1356 0192 0A43     		orrs	r2, r1
 1357 0194 112A     		cmp	r2, #17
 1358 0196 40D0     		beq	.L144
 120:BTHID.c       ****                                         identifier = l2capinbuf[9];
 1359              		.loc 2 120 0
 1360 0198 132A     		cmp	r2, #19
 1361 019a 00D0     		beq	.LCB1170
 1362 019c 6CE7     		b	.L99	@long jump
 1363              	.LCB1170:
 121:BTHID.c       ****                                         interrupt_scid[0] = l2capinbuf[14];
 1364              		.loc 2 121 0
 1365 019e 6B7A     		ldrb	r3, [r5, #9]
 124:BTHID.c       ****                                 }
 1366              		.loc 2 124 0
 1367 01a0 2269     		ldr	r2, [r4, #16]
 121:BTHID.c       ****                                         interrupt_scid[0] = l2capinbuf[14];
 1368              		.loc 2 121 0
 1369 01a2 2375     		strb	r3, [r4, #20]
 122:BTHID.c       ****                                         interrupt_scid[1] = l2capinbuf[15];
 1370              		.loc 2 122 0
 1371 01a4 AB7B     		ldrb	r3, [r5, #14]
 1372 01a6 2376     		strb	r3, [r4, #24]
 123:BTHID.c       ****                                         l2cap_set_flag(L2CAP_FLAG_CONNECTION_INTERRUPT_REQUEST);
 1373              		.loc 2 123 0
 1374 01a8 EB7B     		ldrb	r3, [r5, #15]
 1375 01aa 6376     		strb	r3, [r4, #25]
 124:BTHID.c       ****                                 }
 1376              		.loc 2 124 0
 1377 01ac 1023     		movs	r3, #16
 1378 01ae 1343     		orrs	r3, r2
 1379 01b0 2361     		str	r3, [r4, #16]
 1380 01b2 61E7     		b	.L99
 1381              	.L138:
 139:BTHID.c       ****                                         //Notify(PSTR("\r\nHID Control Configuration Request"), 0x8
 1382              		.loc 2 139 0
 1383 01b4 2232     		adds	r2, r2, #34
 1384 01b6 2B7B     		ldrb	r3, [r5, #12]
 1385 01b8 A25C     		ldrb	r2, [r4, r2]
 1386 01ba 9A42     		cmp	r2, r3
 1387 01bc 37D0     		beq	.L145
 1388              	.L108:
 142:BTHID.c       ****                                         //Notify(PSTR("\r\nHID Interrupt Configuration Request"), 0
 1389              		.loc 2 142 0
 1390 01be 2822     		movs	r2, #40
 1391 01c0 A25C     		ldrb	r2, [r4, r2]
 1392 01c2 9A42     		cmp	r2, r3
 1393 01c4 00D0     		beq	.LCB1199
 1394 01c6 57E7     		b	.L99	@long jump
 1395              	.LCB1199:
 142:BTHID.c       ****                                         //Notify(PSTR("\r\nHID Interrupt Configuration Request"), 0
 1396              		.loc 2 142 0 is_stmt 0 discriminator 1
 1397 01c8 2923     		movs	r3, #41
 1398 01ca 6A7B     		ldrb	r2, [r5, #13]
ARM GAS  C:\Users\jrdia\AppData\Local\Temp\ccYHzYw6.s 			page 49


 1399 01cc E35C     		ldrb	r3, [r4, r3]
 1400 01ce 9A42     		cmp	r2, r3
 1401 01d0 00D0     		beq	.LCB1204
 1402 01d2 51E7     		b	.L99	@long jump
 1403              	.LCB1204:
 144:BTHID.c       ****                                 }
 1404              		.loc 2 144 0 is_stmt 1
 1405 01d4 2300     		movs	r3, r4
 1406 01d6 6A7A     		ldrb	r2, [r5, #9]
 1407 01d8 1833     		adds	r3, r3, #24
 1408 01da FFF7FEFF 		bl	_ZN3BTD21l2cap_config_responseEthPh
 1409              	.LVL102:
 1410 01de 4BE7     		b	.L99
 1411              	.L139:
 147:BTHID.c       **** #ifdef DEBUG_USB_HOST
 1412              		.loc 2 147 0
 1413 01e0 2032     		adds	r2, r2, #32
 1414 01e2 2B7B     		ldrb	r3, [r5, #12]
 1415 01e4 A25C     		ldrb	r2, [r4, r2]
 1416 01e6 9A42     		cmp	r2, r3
 1417 01e8 2CD0     		beq	.L146
 1418              	.L110:
 154:BTHID.c       **** #ifdef DEBUG_USB_HOST
 1419              		.loc 2 154 0
 1420 01ea 2822     		movs	r2, #40
 1421 01ec A25C     		ldrb	r2, [r4, r2]
 1422 01ee 9A42     		cmp	r2, r3
 1423 01f0 00D0     		beq	.LCB1227
 1424 01f2 41E7     		b	.L99	@long jump
 1425              	.LCB1227:
 154:BTHID.c       **** #ifdef DEBUG_USB_HOST
 1426              		.loc 2 154 0 is_stmt 0 discriminator 1
 1427 01f4 2923     		movs	r3, #41
 1428 01f6 6A7B     		ldrb	r2, [r5, #13]
 1429 01f8 E35C     		ldrb	r3, [r4, r3]
 1430 01fa 9A42     		cmp	r2, r3
 1431 01fc 00D0     		beq	.LCB1232
 1432 01fe 3BE7     		b	.L99	@long jump
 1433              	.LCB1232:
 159:BTHID.c       ****                                         Reset();
 1434              		.loc 2 159 0 is_stmt 1
 1435 0200 2300     		movs	r3, r4
 158:BTHID.c       ****                                         pBtd->l2cap_disconnection_response(hci_handle, identifier, 
 1436              		.loc 2 158 0
 1437 0202 6A7A     		ldrb	r2, [r5, #9]
 159:BTHID.c       ****                                         Reset();
 1438              		.loc 2 159 0
 1439 0204 1833     		adds	r3, r3, #24
 158:BTHID.c       ****                                         pBtd->l2cap_disconnection_response(hci_handle, identifier, 
 1440              		.loc 2 158 0
 1441 0206 2275     		strb	r2, [r4, #20]
 1442              	.L127:
 159:BTHID.c       ****                                         Reset();
 1443              		.loc 2 159 0
 1444 0208 0093     		str	r3, [sp]
 1445 020a 1033     		adds	r3, r3, #16
 1446 020c FFF7FEFF 		bl	_ZN3BTD28l2cap_disconnection_responseEthPhS0_
ARM GAS  C:\Users\jrdia\AppData\Local\Temp\ccYHzYw6.s 			page 50


 1447              	.LVL103:
 160:BTHID.c       ****                                 }
 1448              		.loc 2 160 0
 1449 0210 2368     		ldr	r3, [r4]
 1450 0212 2000     		movs	r0, r4
 1451 0214 9B68     		ldr	r3, [r3, #8]
 1452 0216 9847     		blx	r3
 1453              	.LVL104:
 1454 0218 2EE7     		b	.L99
 1455              	.L144:
 116:BTHID.c       ****                                         control_scid[0] = l2capinbuf[14];
 1456              		.loc 2 116 0
 1457 021a 6A7A     		ldrb	r2, [r5, #9]
 1458 021c 2275     		strb	r2, [r4, #20]
 117:BTHID.c       ****                                         control_scid[1] = l2capinbuf[15];
 1459              		.loc 2 117 0
 1460 021e AA7B     		ldrb	r2, [r5, #14]
 1461 0220 A275     		strb	r2, [r4, #22]
 118:BTHID.c       ****                                         l2cap_set_flag(L2CAP_FLAG_CONNECTION_CONTROL_REQUEST);
 1462              		.loc 2 118 0
 1463 0222 EA7B     		ldrb	r2, [r5, #15]
 1464 0224 E275     		strb	r2, [r4, #23]
 119:BTHID.c       ****                                 } else if((l2capinbuf[12] | (l2capinbuf[13] << 8)) == HID_INTR_PSM)
 1465              		.loc 2 119 0
 1466 0226 2269     		ldr	r2, [r4, #16]
 1467 0228 1343     		orrs	r3, r2
 1468 022a 2361     		str	r3, [r4, #16]
 1469 022c 24E7     		b	.L99
 1470              	.L145:
 139:BTHID.c       ****                                         //Notify(PSTR("\r\nHID Control Configuration Request"), 0x8
 1471              		.loc 2 139 0 discriminator 1
 1472 022e 2722     		movs	r2, #39
 1473 0230 6E7B     		ldrb	r6, [r5, #13]
 1474 0232 A25C     		ldrb	r2, [r4, r2]
 1475 0234 9642     		cmp	r6, r2
 1476 0236 C2D1     		bne	.L108
 141:BTHID.c       ****                                 } else if(l2capinbuf[12] == interrupt_dcid[0] && l2capinbuf[13] == 
 1477              		.loc 2 141 0
 1478 0238 2300     		movs	r3, r4
 1479 023a 6A7A     		ldrb	r2, [r5, #9]
 1480 023c 1633     		adds	r3, r3, #22
 1481 023e FFF7FEFF 		bl	_ZN3BTD21l2cap_config_responseEthPh
 1482              	.LVL105:
 1483 0242 19E7     		b	.L99
 1484              	.L146:
 147:BTHID.c       **** #ifdef DEBUG_USB_HOST
 1485              		.loc 2 147 0 discriminator 1
 1486 0244 2722     		movs	r2, #39
 1487 0246 6E7B     		ldrb	r6, [r5, #13]
 1488 0248 A25C     		ldrb	r2, [r4, r2]
 1489 024a 9642     		cmp	r6, r2
 1490 024c CDD1     		bne	.L110
 152:BTHID.c       ****                                         Reset();
 1491              		.loc 2 152 0
 1492 024e 2300     		movs	r3, r4
 151:BTHID.c       ****                                         pBtd->l2cap_disconnection_response(hci_handle, identifier, 
 1493              		.loc 2 151 0
ARM GAS  C:\Users\jrdia\AppData\Local\Temp\ccYHzYw6.s 			page 51


 1494 0250 6A7A     		ldrb	r2, [r5, #9]
 152:BTHID.c       ****                                         Reset();
 1495              		.loc 2 152 0
 1496 0252 1633     		adds	r3, r3, #22
 151:BTHID.c       ****                                         pBtd->l2cap_disconnection_response(hci_handle, identifier, 
 1497              		.loc 2 151 0
 1498 0254 2275     		strb	r2, [r4, #20]
 1499 0256 D7E7     		b	.L127
 1500              	.L142:
 128:BTHID.c       ****                                                 //Notify(PSTR("\r\nHID Control Configuration Comple
 1501              		.loc 2 128 0 discriminator 1
 1502 0258 2722     		movs	r2, #39
 1503 025a 697B     		ldrb	r1, [r5, #13]
 1504 025c A25C     		ldrb	r2, [r4, r2]
 1505 025e 9142     		cmp	r1, r2
 1506 0260 00D0     		beq	.LCB1312
 1507 0262 5EE7     		b	.L106	@long jump
 1508              	.LCB1312:
 130:BTHID.c       ****                                                 l2cap_set_flag(L2CAP_FLAG_CONFIG_CONTROL_SUCCESS);
 1509              		.loc 2 130 0
 1510 0264 6B7A     		ldrb	r3, [r5, #9]
 131:BTHID.c       ****                                         } else if(l2capinbuf[12] == interrupt_dcid[0] && l2capinbuf
 1511              		.loc 2 131 0
 1512 0266 2269     		ldr	r2, [r4, #16]
 130:BTHID.c       ****                                                 l2cap_set_flag(L2CAP_FLAG_CONFIG_CONTROL_SUCCESS);
 1513              		.loc 2 130 0
 1514 0268 2375     		strb	r3, [r4, #20]
 131:BTHID.c       ****                                         } else if(l2capinbuf[12] == interrupt_dcid[0] && l2capinbuf
 1515              		.loc 2 131 0
 1516 026a 0223     		movs	r3, #2
 1517 026c 1343     		orrs	r3, r2
 1518 026e 2361     		str	r3, [r4, #16]
 1519 0270 02E7     		b	.L99
 1520              	.L143:
  88:BTHID.c       ****                                                 //Notify(PSTR("\r\nHID Control Connection Complete"
 1521              		.loc 2 88 0 discriminator 1
 1522 0272 2722     		movs	r2, #39
 1523 0274 E97B     		ldrb	r1, [r5, #15]
 1524 0276 A25C     		ldrb	r2, [r4, r2]
 1525 0278 9142     		cmp	r1, r2
 1526 027a 00D0     		beq	.LCB1331
 1527 027c 71E7     		b	.L102	@long jump
 1528              	.LCB1331:
  90:BTHID.c       ****                                                 control_scid[0] = l2capinbuf[12];
 1529              		.loc 2 90 0
 1530 027e 6B7A     		ldrb	r3, [r5, #9]
  93:BTHID.c       ****                                         } else if(l2capinbuf[14] == interrupt_dcid[0] && l2capinbuf
 1531              		.loc 2 93 0
 1532 0280 2269     		ldr	r2, [r4, #16]
  90:BTHID.c       ****                                                 control_scid[0] = l2capinbuf[12];
 1533              		.loc 2 90 0
 1534 0282 2375     		strb	r3, [r4, #20]
  91:BTHID.c       ****                                                 control_scid[1] = l2capinbuf[13];
 1535              		.loc 2 91 0
 1536 0284 2B7B     		ldrb	r3, [r5, #12]
 1537 0286 A375     		strb	r3, [r4, #22]
  92:BTHID.c       ****                                                 l2cap_set_flag(L2CAP_FLAG_CONTROL_CONNECTED);
ARM GAS  C:\Users\jrdia\AppData\Local\Temp\ccYHzYw6.s 			page 52


 1538              		.loc 2 92 0
 1539 0288 6B7B     		ldrb	r3, [r5, #13]
 1540 028a E375     		strb	r3, [r4, #23]
  93:BTHID.c       ****                                         } else if(l2capinbuf[14] == interrupt_dcid[0] && l2capinbuf
 1541              		.loc 2 93 0
 1542 028c 0423     		movs	r3, #4
 1543 028e 1343     		orrs	r3, r2
 1544 0290 2361     		str	r3, [r4, #16]
 1545 0292 F1E6     		b	.L99
 1546              	.L140:
 163:BTHID.c       ****                                         //Notify(PSTR("\r\nDisconnect Response: Control Channel"), 
 1547              		.loc 2 163 0 discriminator 1
 1548 0294 697B     		ldrb	r1, [r5, #13]
 1549 0296 E27D     		ldrb	r2, [r4, #23]
 1550 0298 9142     		cmp	r1, r2
 1551 029a 00D0     		beq	.LCB1353
 1552 029c 07E7     		b	.L111	@long jump
 1553              	.LCB1353:
 165:BTHID.c       ****                                         l2cap_set_flag(L2CAP_FLAG_DISCONNECT_CONTROL_RESPONSE);
 1554              		.loc 2 165 0
 1555 029e 6B7A     		ldrb	r3, [r5, #9]
 166:BTHID.c       ****                                 } else if(l2capinbuf[12] == interrupt_scid[0] && l2capinbuf[13] == 
 1556              		.loc 2 166 0
 1557 02a0 2269     		ldr	r2, [r4, #16]
 165:BTHID.c       ****                                         l2cap_set_flag(L2CAP_FLAG_DISCONNECT_CONTROL_RESPONSE);
 1558              		.loc 2 165 0
 1559 02a2 2375     		strb	r3, [r4, #20]
 166:BTHID.c       ****                                 } else if(l2capinbuf[12] == interrupt_scid[0] && l2capinbuf[13] == 
 1560              		.loc 2 166 0
 1561 02a4 0823     		movs	r3, #8
 1562 02a6 1343     		orrs	r3, r2
 1563 02a8 2361     		str	r3, [r4, #16]
 1564 02aa E5E6     		b	.L99
 1565              	.L113:
 1566              	.LBB85:
 1567              	.LBB83:
 1568              	.LBB82:
 194:BTHID.c       ****                                                         pRptParser[KEYBOARD_PARSER_ID]->Parse(reint
 1569              		.loc 2 194 0
 1570 02ac E069     		ldr	r0, [r4, #28]
 1571 02ae 0028     		cmp	r0, #0
 1572 02b0 00D0     		beq	.LCB1374
 1573 02b2 21E7     		b	.L128	@long jump
 1574              	.LCB1374:
 1575 02b4 E0E6     		b	.L99
 1576              	.LVL106:
 1577              	.L141:
 190:BTHID.c       **** 
 1578              		.loc 2 190 0
 1579 02b6 2A00     		movs	r2, r5
 1580 02b8 711E     		subs	r1, r6, #1
 1581 02ba C9B2     		uxtb	r1, r1
 1582 02bc 0932     		adds	r2, r2, #9
 1583 02be 2000     		movs	r0, r4
 1584 02c0 9847     		blx	r3
 1585              	.LVL107:
 1586 02c2 10E7     		b	.L112
ARM GAS  C:\Users\jrdia\AppData\Local\Temp\ccYHzYw6.s 			page 53


 1587              	.L148:
 1588              		.align	2
 1589              	.L147:
 1590 02c4 00000000 		.word	_ZN5BTHID14ParseBTHIDDataEhPh
 1591              	.LBE82:
 1592              	.LBE83:
 1593              	.LBE85:
 1594              	.LBE86:
 1595              	.LBE87:
 1596              	.LBE89:
 1597              		.cfi_endproc
 1598              	.LFE285:
 1599              		.fnend
 1600              		.size	_ZN5BTHID7ACLDataEPh, .-_ZN5BTHID7ACLDataEPh
 1601              		.section	.text._ZN5BTHID7setLedsEh,"ax",%progbits
 1602              		.align	2
 1603              		.global	_ZN5BTHID7setLedsEh
 1604              		.code	16
 1605              		.thumb_func
 1606              		.type	_ZN5BTHID7setLedsEh, %function
 1607              	_ZN5BTHID7setLedsEh:
 1608              		.fnstart
 1609              	.LFB289:
 392:BTHID.c       **** 
 393:BTHID.c       **** void BTHID::setLeds(uint8_t data) {
 1610              		.loc 2 393 0
 1611              		.cfi_startproc
 1612              		@ args = 0, pretend = 0, frame = 8
 1613              		@ frame_needed = 0, uses_anonymous_args = 0
 1614              	.LVL108:
 1615 0000 0300     		movs	r3, r0
 394:BTHID.c       ****         uint8_t buf[3];
 395:BTHID.c       ****         buf[0] = 0xA2; // HID BT DATA_request (0xA0) | Report Type (Output 0x02)
 1616              		.loc 2 395 0
 1617 0002 A220     		movs	r0, #162
 1618              	.LVL109:
 393:BTHID.c       ****         uint8_t buf[3];
 1619              		.loc 2 393 0
 1620 0004 10B5     		push	{r4, lr}
 1621              		.save {r4, lr}
 1622              		.cfi_def_cfa_offset 8
 1623              		.cfi_offset 4, -8
 1624              		.cfi_offset 14, -4
 1625              		.pad #16
 1626 0006 84B0     		sub	sp, sp, #16
 1627              		.cfi_def_cfa_offset 24
 1628              		.loc 2 395 0
 1629 0008 03AA     		add	r2, sp, #12
 1630 000a 1070     		strb	r0, [r2]
 396:BTHID.c       ****         buf[1] = 0x01; // Report ID
 1631              		.loc 2 396 0
 1632 000c A138     		subs	r0, r0, #161
 1633 000e 5070     		strb	r0, [r2, #1]
 397:BTHID.c       ****         buf[2] = data;
 1634              		.loc 2 397 0
 1635 0010 9170     		strb	r1, [r2, #2]
 398:BTHID.c       ****         pBtd->L2CAP_Command(hci_handle, buf, 3, interrupt_scid[0], interrupt_scid[1]);
ARM GAS  C:\Users\jrdia\AppData\Local\Temp\ccYHzYw6.s 			page 54


 1636              		.loc 2 398 0
 1637 0012 5C7E     		ldrb	r4, [r3, #25]
 1638 0014 9989     		ldrh	r1, [r3, #12]
 1639              	.LVL110:
 1640 0016 9868     		ldr	r0, [r3, #8]
 1641 0018 0194     		str	r4, [sp, #4]
 1642 001a 1B7E     		ldrb	r3, [r3, #24]
 1643              	.LVL111:
 1644 001c 0093     		str	r3, [sp]
 1645 001e 0323     		movs	r3, #3
 1646 0020 FFF7FEFF 		bl	_ZN3BTD13L2CAP_CommandEtPhhhh
 1647              	.LVL112:
 399:BTHID.c       **** }
 1648              		.loc 2 399 0
 1649 0024 04B0     		add	sp, sp, #16
 1650              		@ sp needed
 1651 0026 10BD     		pop	{r4, pc}
 1652              		.cfi_endproc
 1653              	.LFE289:
 1654              		.fnend
 1655              		.size	_ZN5BTHID7setLedsEh, .-_ZN5BTHID7setLedsEh
 1656              		.weak	_ZTS16BluetoothService
 1657              		.section	.rodata._ZTS16BluetoothService,"aG",%progbits,_ZTS16BluetoothService,comdat
 1658              		.align	2
 1659              		.type	_ZTS16BluetoothService, %object
 1660              		.size	_ZTS16BluetoothService, 19
 1661              	_ZTS16BluetoothService:
 1662 0000 3136426C 		.ascii	"16BluetoothService\000"
 1662      7565746F 
 1662      6F746853 
 1662      65727669 
 1662      636500
 1663              		.weak	_ZTI16BluetoothService
 1664              		.section	.rodata._ZTI16BluetoothService,"aG",%progbits,_ZTI16BluetoothService,comdat
 1665              		.align	2
 1666              		.type	_ZTI16BluetoothService, %object
 1667              		.size	_ZTI16BluetoothService, 8
 1668              	_ZTI16BluetoothService:
 1669 0000 08000000 		.word	_ZTVN10__cxxabiv117__class_type_infoE+8
 1670 0004 00000000 		.word	_ZTS16BluetoothService
 1671              		.global	_ZTS5BTHID
 1672              		.global	_ZTI5BTHID
 1673              		.weak	_ZTV16BluetoothService
 1674              		.section	.rodata._ZTV16BluetoothService,"aG",%progbits,_ZTV16BluetoothService,comdat
 1675              		.align	2
 1676              		.type	_ZTV16BluetoothService, %object
 1677              		.size	_ZTV16BluetoothService, 28
 1678              	_ZTV16BluetoothService:
 1679 0000 00000000 		.word	0
 1680 0004 00000000 		.word	_ZTI16BluetoothService
 1681 0008 00000000 		.word	__cxa_pure_virtual
 1682 000c 00000000 		.word	__cxa_pure_virtual
 1683 0010 00000000 		.word	__cxa_pure_virtual
 1684 0014 00000000 		.word	__cxa_pure_virtual
 1685 0018 00000000 		.word	__cxa_pure_virtual
 1686              		.global	_ZTV5BTHID
 1687              		.section	.rodata
ARM GAS  C:\Users\jrdia\AppData\Local\Temp\ccYHzYw6.s 			page 55


 1688              		.align	2
 1689              		.set	.LANCHOR0,. + 0
 1690              		.type	_ZTV5BTHID, %object
 1691              		.size	_ZTV5BTHID, 40
 1692              	_ZTV5BTHID:
 1693 0028 00000000 		.word	0
 1694 002c 00000000 		.word	_ZTI5BTHID
 1695 0030 00000000 		.word	_ZN5BTHID7ACLDataEPh
 1696 0034 00000000 		.word	_ZN5BTHID3RunEv
 1697 0038 00000000 		.word	_ZN5BTHID5ResetEv
 1698 003c 00000000 		.word	_ZN5BTHID10disconnectEv
 1699 0040 00000000 		.word	_ZN5BTHID6onInitEv
 1700 0044 00000000 		.word	_ZN5BTHID14ParseBTHIDDataEhPh
 1701 0048 00000000 		.word	_ZN5BTHID11OnInitBTHIDEv
 1702 004c 00000000 		.word	_ZN5BTHID10ResetBTHIDEv
 1703              		.align	2
 1704              		.type	_ZTS5BTHID, %object
 1705              		.size	_ZTS5BTHID, 7
 1706              	_ZTS5BTHID:
 1707 0050 35425448 		.ascii	"5BTHID\000"
 1707      494400
 1708 0057 00       		.space	1
 1709              		.type	_ZTI5BTHID, %object
 1710              		.size	_ZTI5BTHID, 12
 1711              	_ZTI5BTHID:
 1712 0058 08000000 		.word	_ZTVN10__cxxabiv120__si_class_type_infoE+8
 1713 005c 00000000 		.word	_ZTS5BTHID
 1714 0060 00000000 		.word	_ZTI16BluetoothService
 1715              		.text
 1716              	.Letext0:
 1717              		.file 4 "c:\\program files (x86)\\cypress\\psoc creator\\4.1\\psoc creator\\import\\gnu\\arm\\5.4.
 1718              		.file 5 "c:\\program files (x86)\\cypress\\psoc creator\\4.1\\psoc creator\\import\\gnu\\arm\\5.4.
 1719              		.file 6 "address.h"
 1720              		.file 7 "usb_ch9.h"
 1721              		.file 8 "usbhost.h"
 1722              		.file 9 "UsbCore.h"
 1723              		.file 10 "hidboot.h"
 1724              		.file 11 "usbhid.h"
 1725              		.file 12 "confdescparser.h"
 1726              		.file 13 "sink_parser.h"
 1727              		.file 14 "avrpins.h"
 1728              		.file 15 "hidusagestr.h"
 1729              		.file 16 "./Stream.h"
 1730              		.file 17 "./Arduino.h"
 1731              		.section	.debug_info,"",%progbits
 1732              	.Ldebug_info0:
 1733 0000 EC580000 		.4byte	0x58ec
 1734 0004 0400     		.2byte	0x4
 1735 0006 00000000 		.4byte	.Ldebug_abbrev0
 1736 000a 04       		.byte	0x4
 1737 000b 01       		.uleb128 0x1
 1738 000c 6C310000 		.4byte	.LASF1189
 1739 0010 04       		.byte	0x4
 1740 0011 4C0E0000 		.4byte	.LASF1190
 1741 0015 540E0000 		.4byte	.LASF1191
 1742 0019 B0000000 		.4byte	.Ldebug_ranges0+0xb0
 1743 001d 00000000 		.4byte	0
ARM GAS  C:\Users\jrdia\AppData\Local\Temp\ccYHzYw6.s 			page 56


 1744 0021 00000000 		.4byte	.Ldebug_line0
 1745 0025 02       		.uleb128 0x2
 1746 0026 765F0000 		.4byte	.LASF0
 1747 002a 04       		.byte	0x4
 1748 002b 1B       		.byte	0x1b
 1749 002c 30000000 		.4byte	0x30
 1750 0030 03       		.uleb128 0x3
 1751 0031 01       		.byte	0x1
 1752 0032 06       		.byte	0x6
 1753 0033 9A370000 		.4byte	.LASF2
 1754 0037 02       		.uleb128 0x2
 1755 0038 0E030000 		.4byte	.LASF1
 1756 003c 04       		.byte	0x4
 1757 003d 1D       		.byte	0x1d
 1758 003e 42000000 		.4byte	0x42
 1759 0042 03       		.uleb128 0x3
 1760 0043 01       		.byte	0x1
 1761 0044 08       		.byte	0x8
 1762 0045 F6190000 		.4byte	.LASF3
 1763 0049 03       		.uleb128 0x3
 1764 004a 02       		.byte	0x2
 1765 004b 05       		.byte	0x5
 1766 004c 3A620000 		.4byte	.LASF4
 1767 0050 02       		.uleb128 0x2
 1768 0051 4C160000 		.4byte	.LASF5
 1769 0055 04       		.byte	0x4
 1770 0056 2B       		.byte	0x2b
 1771 0057 5B000000 		.4byte	0x5b
 1772 005b 03       		.uleb128 0x3
 1773 005c 02       		.byte	0x2
 1774 005d 07       		.byte	0x7
 1775 005e 7F370000 		.4byte	.LASF6
 1776 0062 03       		.uleb128 0x3
 1777 0063 04       		.byte	0x4
 1778 0064 05       		.byte	0x5
 1779 0065 613E0000 		.4byte	.LASF7
 1780 0069 02       		.uleb128 0x2
 1781 006a 18500000 		.4byte	.LASF8
 1782 006e 04       		.byte	0x4
 1783 006f 41       		.byte	0x41
 1784 0070 74000000 		.4byte	0x74
 1785 0074 03       		.uleb128 0x3
 1786 0075 04       		.byte	0x4
 1787 0076 07       		.byte	0x7
 1788 0077 E2430000 		.4byte	.LASF9
 1789 007b 03       		.uleb128 0x3
 1790 007c 08       		.byte	0x8
 1791 007d 05       		.byte	0x5
 1792 007e 605A0000 		.4byte	.LASF10
 1793 0082 03       		.uleb128 0x3
 1794 0083 08       		.byte	0x8
 1795 0084 07       		.byte	0x7
 1796 0085 96540000 		.4byte	.LASF11
 1797 0089 04       		.uleb128 0x4
 1798 008a 04       		.byte	0x4
 1799 008b 05       		.byte	0x5
 1800 008c 696E7400 		.ascii	"int\000"
ARM GAS  C:\Users\jrdia\AppData\Local\Temp\ccYHzYw6.s 			page 57


 1801 0090 03       		.uleb128 0x3
 1802 0091 04       		.byte	0x4
 1803 0092 07       		.byte	0x7
 1804 0093 74600000 		.4byte	.LASF12
 1805 0097 02       		.uleb128 0x2
 1806 0098 9C330000 		.4byte	.LASF13
 1807 009c 05       		.byte	0x5
 1808 009d 14       		.byte	0x14
 1809 009e 25000000 		.4byte	0x25
 1810 00a2 02       		.uleb128 0x2
 1811 00a3 9B250000 		.4byte	.LASF14
 1812 00a7 05       		.byte	0x5
 1813 00a8 18       		.byte	0x18
 1814 00a9 37000000 		.4byte	0x37
 1815 00ad 02       		.uleb128 0x2
 1816 00ae 5C060000 		.4byte	.LASF15
 1817 00b2 05       		.byte	0x5
 1818 00b3 24       		.byte	0x24
 1819 00b4 50000000 		.4byte	0x50
 1820 00b8 02       		.uleb128 0x2
 1821 00b9 22410000 		.4byte	.LASF16
 1822 00bd 05       		.byte	0x5
 1823 00be 30       		.byte	0x30
 1824 00bf 69000000 		.4byte	0x69
 1825 00c3 05       		.uleb128 0x5
 1826 00c4 04       		.byte	0x4
 1827 00c5 03       		.uleb128 0x3
 1828 00c6 04       		.byte	0x4
 1829 00c7 07       		.byte	0x7
 1830 00c8 A1360000 		.4byte	.LASF17
 1831 00cc 06       		.uleb128 0x6
 1832 00cd 04       		.byte	0x4
 1833 00ce D2000000 		.4byte	0xd2
 1834 00d2 07       		.uleb128 0x7
 1835 00d3 03       		.uleb128 0x3
 1836 00d4 01       		.byte	0x1
 1837 00d5 08       		.byte	0x8
 1838 00d6 BE450000 		.4byte	.LASF18
 1839 00da 06       		.uleb128 0x6
 1840 00db 04       		.byte	0x4
 1841 00dc E0000000 		.4byte	0xe0
 1842 00e0 08       		.uleb128 0x8
 1843 00e1 D3000000 		.4byte	0xd3
 1844 00e5 03       		.uleb128 0x3
 1845 00e6 08       		.byte	0x8
 1846 00e7 04       		.byte	0x4
 1847 00e8 0C4E0000 		.4byte	.LASF19
 1848 00ec 03       		.uleb128 0x3
 1849 00ed 04       		.byte	0x4
 1850 00ee 04       		.byte	0x4
 1851 00ef 781B0000 		.4byte	.LASF20
 1852 00f3 03       		.uleb128 0x3
 1853 00f4 08       		.byte	0x8
 1854 00f5 04       		.byte	0x4
 1855 00f6 AB420000 		.4byte	.LASF21
 1856 00fa 03       		.uleb128 0x3
 1857 00fb 01       		.byte	0x1
ARM GAS  C:\Users\jrdia\AppData\Local\Temp\ccYHzYw6.s 			page 58


 1858 00fc 02       		.byte	0x2
 1859 00fd 050B0000 		.4byte	.LASF22
 1860 0101 09       		.uleb128 0x9
 1861 0102 E8110000 		.4byte	.LASF1192
 1862 0106 01       		.byte	0x1
 1863 0107 42000000 		.4byte	0x42
 1864 010b 10       		.byte	0x10
 1865 010c 29       		.byte	0x29
 1866 010d 24010000 		.4byte	0x124
 1867 0111 0A       		.uleb128 0xa
 1868 0112 F7170000 		.4byte	.LASF23
 1869 0116 00       		.byte	0
 1870 0117 0A       		.uleb128 0xa
 1871 0118 394D0000 		.4byte	.LASF24
 1872 011c 01       		.byte	0x1
 1873 011d 0A       		.uleb128 0xa
 1874 011e DB590000 		.4byte	.LASF25
 1875 0122 02       		.byte	0x2
 1876 0123 00       		.byte	0
 1877 0124 0B       		.uleb128 0xb
 1878 0125 922C0000 		.4byte	.LASF31
 1879 0129 03       		.byte	0x3
 1880 012a 06       		.byte	0x6
 1881 012b 20       		.byte	0x20
 1882 012c 9E010000 		.4byte	0x19e
 1883 0130 0C       		.uleb128 0xc
 1884 0131 01       		.byte	0x1
 1885 0132 06       		.byte	0x6
 1886 0133 24       		.byte	0x24
 1887 0134 7F010000 		.4byte	0x17f
 1888 0138 0D       		.uleb128 0xd
 1889 0139 01       		.byte	0x1
 1890 013a 06       		.byte	0x6
 1891 013b 27       		.byte	0x27
 1892 013c 6E010000 		.4byte	0x16e
 1893 0140 0E       		.uleb128 0xe
 1894 0141 930A0000 		.4byte	.LASF26
 1895 0145 06       		.byte	0x6
 1896 0146 28       		.byte	0x28
 1897 0147 A2000000 		.4byte	0xa2
 1898 014b 01       		.byte	0x1
 1899 014c 01       		.byte	0x1
 1900 014d 07       		.byte	0x7
 1901 014e 00       		.byte	0
 1902 014f 0E       		.uleb128 0xe
 1903 0150 E7450000 		.4byte	.LASF27
 1904 0154 06       		.byte	0x6
 1905 0155 29       		.byte	0x29
 1906 0156 A2000000 		.4byte	0xa2
 1907 015a 01       		.byte	0x1
 1908 015b 01       		.byte	0x1
 1909 015c 06       		.byte	0x6
 1910 015d 00       		.byte	0
 1911 015e 0E       		.uleb128 0xe
 1912 015f 0A080000 		.4byte	.LASF28
 1913 0163 06       		.byte	0x6
 1914 0164 2A       		.byte	0x2a
ARM GAS  C:\Users\jrdia\AppData\Local\Temp\ccYHzYw6.s 			page 59


 1915 0165 A2000000 		.4byte	0xa2
 1916 0169 01       		.byte	0x1
 1917 016a 06       		.byte	0x6
 1918 016b 00       		.byte	0
 1919 016c 00       		.byte	0
 1920 016d 00       		.byte	0
 1921 016e 0F       		.uleb128 0xf
 1922 016f F14D0000 		.4byte	.LASF37
 1923 0173 06       		.byte	0x6
 1924 0174 25       		.byte	0x25
 1925 0175 A2000000 		.4byte	0xa2
 1926 0179 10       		.uleb128 0x10
 1927 017a 38010000 		.4byte	0x138
 1928 017e 00       		.byte	0
 1929 017f 11       		.uleb128 0x11
 1930 0180 74320000 		.4byte	.LASF29
 1931 0184 06       		.byte	0x6
 1932 0185 21       		.byte	0x21
 1933 0186 A2000000 		.4byte	0xa2
 1934 018a 00       		.byte	0
 1935 018b 11       		.uleb128 0x11
 1936 018c 6C620000 		.4byte	.LASF30
 1937 0190 06       		.byte	0x6
 1938 0191 22       		.byte	0x22
 1939 0192 A2000000 		.4byte	0xa2
 1940 0196 01       		.byte	0x1
 1941 0197 12       		.uleb128 0x12
 1942 0198 30010000 		.4byte	0x130
 1943 019c 02       		.byte	0x2
 1944 019d 00       		.byte	0
 1945 019e 0B       		.uleb128 0xb
 1946 019f B2290000 		.4byte	.LASF32
 1947 01a3 01       		.byte	0x1
 1948 01a4 06       		.byte	0x6
 1949 01a5 39       		.byte	0x39
 1950 01a6 0F020000 		.4byte	0x20f
 1951 01aa 0C       		.uleb128 0xc
 1952 01ab 01       		.byte	0x1
 1953 01ac 06       		.byte	0x6
 1954 01ad 3B       		.byte	0x3b
 1955 01ae 08020000 		.4byte	0x208
 1956 01b2 0D       		.uleb128 0xd
 1957 01b3 01       		.byte	0x1
 1958 01b4 06       		.byte	0x6
 1959 01b5 3D       		.byte	0x3d
 1960 01b6 F7010000 		.4byte	0x1f7
 1961 01ba 0E       		.uleb128 0xe
 1962 01bb 243F0000 		.4byte	.LASF33
 1963 01bf 06       		.byte	0x6
 1964 01c0 3E       		.byte	0x3e
 1965 01c1 A2000000 		.4byte	0xa2
 1966 01c5 01       		.byte	0x1
 1967 01c6 03       		.byte	0x3
 1968 01c7 05       		.byte	0x5
 1969 01c8 00       		.byte	0
 1970 01c9 0E       		.uleb128 0xe
 1971 01ca 45570000 		.4byte	.LASF34
ARM GAS  C:\Users\jrdia\AppData\Local\Temp\ccYHzYw6.s 			page 60


 1972 01ce 06       		.byte	0x6
 1973 01cf 3F       		.byte	0x3f
 1974 01d0 A2000000 		.4byte	0xa2
 1975 01d4 01       		.byte	0x1
 1976 01d5 03       		.byte	0x3
 1977 01d6 02       		.byte	0x2
 1978 01d7 00       		.byte	0
 1979 01d8 0E       		.uleb128 0xe
 1980 01d9 38030000 		.4byte	.LASF35
 1981 01dd 06       		.byte	0x6
 1982 01de 40       		.byte	0x40
 1983 01df A2000000 		.4byte	0xa2
 1984 01e3 01       		.byte	0x1
 1985 01e4 01       		.byte	0x1
 1986 01e5 01       		.byte	0x1
 1987 01e6 00       		.byte	0
 1988 01e7 0E       		.uleb128 0xe
 1989 01e8 33480000 		.4byte	.LASF36
 1990 01ec 06       		.byte	0x6
 1991 01ed 41       		.byte	0x41
 1992 01ee A2000000 		.4byte	0xa2
 1993 01f2 01       		.byte	0x1
 1994 01f3 01       		.byte	0x1
 1995 01f4 00       		.byte	0
 1996 01f5 00       		.byte	0
 1997 01f6 00       		.byte	0
 1998 01f7 10       		.uleb128 0x10
 1999 01f8 B2010000 		.4byte	0x1b2
 2000 01fc 0F       		.uleb128 0xf
 2001 01fd E9250000 		.4byte	.LASF38
 2002 0201 06       		.byte	0x6
 2003 0202 43       		.byte	0x43
 2004 0203 A2000000 		.4byte	0xa2
 2005 0207 00       		.byte	0
 2006 0208 12       		.uleb128 0x12
 2007 0209 AA010000 		.4byte	0x1aa
 2008 020d 00       		.byte	0
 2009 020e 00       		.byte	0
 2010 020f 0B       		.uleb128 0xb
 2011 0210 61340000 		.4byte	.LASF39
 2012 0214 07       		.byte	0x7
 2013 0215 06       		.byte	0x6
 2014 0216 4B       		.byte	0x4b
 2015 0217 4C020000 		.4byte	0x24c
 2016 021b 11       		.uleb128 0x11
 2017 021c 884F0000 		.4byte	.LASF40
 2018 0220 06       		.byte	0x6
 2019 0221 4C       		.byte	0x4c
 2020 0222 4C020000 		.4byte	0x24c
 2021 0226 00       		.byte	0
 2022 0227 11       		.uleb128 0x11
 2023 0228 782C0000 		.4byte	.LASF41
 2024 022c 06       		.byte	0x6
 2025 022d 4D       		.byte	0x4d
 2026 022e 9E010000 		.4byte	0x19e
 2027 0232 04       		.byte	0x4
 2028 0233 11       		.uleb128 0x11
ARM GAS  C:\Users\jrdia\AppData\Local\Temp\ccYHzYw6.s 			page 61


 2029 0234 EB3A0000 		.4byte	.LASF42
 2030 0238 06       		.byte	0x6
 2031 0239 4E       		.byte	0x4e
 2032 023a A2000000 		.4byte	0xa2
 2033 023e 05       		.byte	0x5
 2034 023f 11       		.uleb128 0x11
 2035 0240 003D0000 		.4byte	.LASF43
 2036 0244 06       		.byte	0x6
 2037 0245 4F       		.byte	0x4f
 2038 0246 FA000000 		.4byte	0xfa
 2039 024a 06       		.byte	0x6
 2040 024b 00       		.byte	0
 2041 024c 06       		.uleb128 0x6
 2042 024d 04       		.byte	0x4
 2043 024e 24010000 		.4byte	0x124
 2044 0252 02       		.uleb128 0x2
 2045 0253 A3330000 		.4byte	.LASF44
 2046 0257 06       		.byte	0x6
 2047 0258 5A       		.byte	0x5a
 2048 0259 5D020000 		.4byte	0x25d
 2049 025d 06       		.uleb128 0x6
 2050 025e 04       		.byte	0x4
 2051 025f 63020000 		.4byte	0x263
 2052 0263 13       		.uleb128 0x13
 2053 0264 6E020000 		.4byte	0x26e
 2054 0268 14       		.uleb128 0x14
 2055 0269 6E020000 		.4byte	0x26e
 2056 026d 00       		.byte	0
 2057 026e 06       		.uleb128 0x6
 2058 026f 04       		.byte	0x4
 2059 0270 0F020000 		.4byte	0x20f
 2060 0274 15       		.uleb128 0x15
 2061 0275 F4430000 		.4byte	.LASF45
 2062 0279 15       		.uleb128 0x15
 2063 027a 294D0000 		.4byte	.LASF46
 2064 027e 16       		.uleb128 0x16
 2065 027f 07       		.byte	0x7
 2066 0280 07       		.byte	0x7
 2067 0281 8D       		.byte	0x8d
 2068 0282 CD010000 		.4byte	.LASF54
 2069 0286 D3020000 		.4byte	0x2d3
 2070 028a 11       		.uleb128 0x11
 2071 028b AA360000 		.4byte	.LASF47
 2072 028f 07       		.byte	0x7
 2073 0290 8E       		.byte	0x8e
 2074 0291 A2000000 		.4byte	0xa2
 2075 0295 00       		.byte	0
 2076 0296 11       		.uleb128 0x11
 2077 0297 6E510000 		.4byte	.LASF48
 2078 029b 07       		.byte	0x7
 2079 029c 8F       		.byte	0x8f
 2080 029d A2000000 		.4byte	0xa2
 2081 02a1 01       		.byte	0x1
 2082 02a2 11       		.uleb128 0x11
 2083 02a3 77200000 		.4byte	.LASF49
 2084 02a7 07       		.byte	0x7
 2085 02a8 90       		.byte	0x90
ARM GAS  C:\Users\jrdia\AppData\Local\Temp\ccYHzYw6.s 			page 62


 2086 02a9 A2000000 		.4byte	0xa2
 2087 02ad 02       		.byte	0x2
 2088 02ae 11       		.uleb128 0x11
 2089 02af 15010000 		.4byte	.LASF50
 2090 02b3 07       		.byte	0x7
 2091 02b4 91       		.byte	0x91
 2092 02b5 A2000000 		.4byte	0xa2
 2093 02b9 03       		.byte	0x3
 2094 02ba 11       		.uleb128 0x11
 2095 02bb ED1F0000 		.4byte	.LASF51
 2096 02bf 07       		.byte	0x7
 2097 02c0 92       		.byte	0x92
 2098 02c1 AD000000 		.4byte	0xad
 2099 02c5 04       		.byte	0x4
 2100 02c6 11       		.uleb128 0x11
 2101 02c7 AF0E0000 		.4byte	.LASF52
 2102 02cb 07       		.byte	0x7
 2103 02cc 93       		.byte	0x93
 2104 02cd A2000000 		.4byte	0xa2
 2105 02d1 06       		.byte	0x6
 2106 02d2 00       		.byte	0
 2107 02d3 02       		.uleb128 0x2
 2108 02d4 0A340000 		.4byte	.LASF53
 2109 02d8 07       		.byte	0x7
 2110 02d9 94       		.byte	0x94
 2111 02da 7E020000 		.4byte	0x27e
 2112 02de 16       		.uleb128 0x16
 2113 02df 09       		.byte	0x9
 2114 02e0 07       		.byte	0x7
 2115 02e1 97       		.byte	0x97
 2116 02e2 C42F0000 		.4byte	.LASF55
 2117 02e6 3F030000 		.4byte	0x33f
 2118 02ea 11       		.uleb128 0x11
 2119 02eb AA360000 		.4byte	.LASF47
 2120 02ef 07       		.byte	0x7
 2121 02f0 98       		.byte	0x98
 2122 02f1 A2000000 		.4byte	0xa2
 2123 02f5 00       		.byte	0
 2124 02f6 11       		.uleb128 0x11
 2125 02f7 6E510000 		.4byte	.LASF48
 2126 02fb 07       		.byte	0x7
 2127 02fc 99       		.byte	0x99
 2128 02fd A2000000 		.4byte	0xa2
 2129 0301 01       		.byte	0x1
 2130 0302 11       		.uleb128 0x11
 2131 0303 5F4C0000 		.4byte	.LASF56
 2132 0307 07       		.byte	0x7
 2133 0308 9A       		.byte	0x9a
 2134 0309 AD000000 		.4byte	0xad
 2135 030d 02       		.byte	0x2
 2136 030e 11       		.uleb128 0x11
 2137 030f A5260000 		.4byte	.LASF57
 2138 0313 07       		.byte	0x7
 2139 0314 9B       		.byte	0x9b
 2140 0315 A2000000 		.4byte	0xa2
 2141 0319 04       		.byte	0x4
 2142 031a 11       		.uleb128 0x11
ARM GAS  C:\Users\jrdia\AppData\Local\Temp\ccYHzYw6.s 			page 63


 2143 031b 315C0000 		.4byte	.LASF58
 2144 031f 07       		.byte	0x7
 2145 0320 9C       		.byte	0x9c
 2146 0321 A2000000 		.4byte	0xa2
 2147 0325 05       		.byte	0x5
 2148 0326 11       		.uleb128 0x11
 2149 0327 DA2B0000 		.4byte	.LASF59
 2150 032b 07       		.byte	0x7
 2151 032c 9D       		.byte	0x9d
 2152 032d A2000000 		.4byte	0xa2
 2153 0331 06       		.byte	0x6
 2154 0332 11       		.uleb128 0x11
 2155 0333 93610000 		.4byte	.LASF60
 2156 0337 07       		.byte	0x7
 2157 0338 9E       		.byte	0x9e
 2158 0339 AD000000 		.4byte	0xad
 2159 033d 07       		.byte	0x7
 2160 033e 00       		.byte	0
 2161 033f 02       		.uleb128 0x2
 2162 0340 0C000000 		.4byte	.LASF61
 2163 0344 07       		.byte	0x7
 2164 0345 9F       		.byte	0x9f
 2165 0346 DE020000 		.4byte	0x2de
 2166 034a 17       		.uleb128 0x17
 2167 034b 01       		.byte	0x1
 2168 034c 42000000 		.4byte	0x42
 2169 0350 08       		.byte	0x8
 2170 0351 7C       		.byte	0x7c
 2171 0352 59490000 		.4byte	.LASF1193
 2172 0356 67030000 		.4byte	0x367
 2173 035a 0A       		.uleb128 0xa
 2174 035b 92370000 		.4byte	.LASF62
 2175 035f 00       		.byte	0
 2176 0360 0A       		.uleb128 0xa
 2177 0361 882B0000 		.4byte	.LASF63
 2178 0365 01       		.byte	0x1
 2179 0366 00       		.byte	0
 2180 0367 02       		.uleb128 0x2
 2181 0368 65030000 		.4byte	.LASF64
 2182 036c 08       		.byte	0x8
 2183 036d 7F       		.byte	0x7f
 2184 036e 4A030000 		.4byte	0x34a
 2185 0372 18       		.uleb128 0x18
 2186 0373 12630000 		.4byte	.LASF98
 2187 0377 01       		.byte	0x1
 2188 0378 08       		.byte	0x8
 2189 0379 81       		.byte	0x81
 2190 037a B2050000 		.4byte	0x5b2
 2191 037e 19       		.uleb128 0x19
 2192 037f CE120000 		.4byte	.LASF190
 2193 0383 08       		.byte	0x8
 2194 0384 9E       		.byte	0x9e
 2195 0385 A2000000 		.4byte	0xa2
 2196 0389 1A       		.uleb128 0x1a
 2197 038a 37250000 		.4byte	.LASF65
 2198 038e 08       		.byte	0x8
 2199 038f A2       		.byte	0xa2
ARM GAS  C:\Users\jrdia\AppData\Local\Temp\ccYHzYw6.s 			page 64


 2200 0390 C5620000 		.4byte	.LASF67
 2201 0394 B2050000 		.4byte	0x5b2
 2202 0398 01       		.byte	0x1
 2203 0399 A1030000 		.4byte	0x3a1
 2204 039d A7030000 		.4byte	0x3a7
 2205 03a1 1B       		.uleb128 0x1b
 2206 03a2 B2050000 		.4byte	0x5b2
 2207 03a6 00       		.byte	0
 2208 03a7 1C       		.uleb128 0x1c
 2209 03a8 FE0D0000 		.4byte	.LASF69
 2210 03ac 08       		.byte	0x8
 2211 03ad AD       		.byte	0xad
 2212 03ae 19490000 		.4byte	.LASF83
 2213 03b2 01       		.byte	0x1
 2214 03b3 BB030000 		.4byte	0x3bb
 2215 03b7 CB030000 		.4byte	0x3cb
 2216 03bb 1B       		.uleb128 0x1b
 2217 03bc B2050000 		.4byte	0x5b2
 2218 03c0 14       		.uleb128 0x14
 2219 03c1 A2000000 		.4byte	0xa2
 2220 03c5 14       		.uleb128 0x14
 2221 03c6 A2000000 		.4byte	0xa2
 2222 03ca 00       		.byte	0
 2223 03cb 1A       		.uleb128 0x1a
 2224 03cc 6F040000 		.4byte	.LASF66
 2225 03d0 08       		.byte	0x8
 2226 03d1 E5       		.byte	0xe5
 2227 03d2 BE170000 		.4byte	.LASF68
 2228 03d6 B8050000 		.4byte	0x5b8
 2229 03da 01       		.byte	0x1
 2230 03db E3030000 		.4byte	0x3e3
 2231 03df F8030000 		.4byte	0x3f8
 2232 03e3 1B       		.uleb128 0x1b
 2233 03e4 B2050000 		.4byte	0x5b2
 2234 03e8 14       		.uleb128 0x14
 2235 03e9 A2000000 		.4byte	0xa2
 2236 03ed 14       		.uleb128 0x14
 2237 03ee A2000000 		.4byte	0xa2
 2238 03f2 14       		.uleb128 0x14
 2239 03f3 B8050000 		.4byte	0x5b8
 2240 03f7 00       		.byte	0
 2241 03f8 1D       		.uleb128 0x1d
 2242 03f9 E83D0000 		.4byte	.LASF70
 2243 03fd 08       		.byte	0x8
 2244 03fe 2C01     		.2byte	0x12c
 2245 0400 DE050000 		.4byte	.LASF88
 2246 0404 01       		.byte	0x1
 2247 0405 0D040000 		.4byte	0x40d
 2248 0409 18040000 		.4byte	0x418
 2249 040d 1B       		.uleb128 0x1b
 2250 040e B2050000 		.4byte	0x5b2
 2251 0412 14       		.uleb128 0x14
 2252 0413 A2000000 		.4byte	0xa2
 2253 0417 00       		.byte	0
 2254 0418 1E       		.uleb128 0x1e
 2255 0419 89040000 		.4byte	.LASF71
 2256 041d 08       		.byte	0x8
ARM GAS  C:\Users\jrdia\AppData\Local\Temp\ccYHzYw6.s 			page 65


 2257 041e 3501     		.2byte	0x135
 2258 0420 684A0000 		.4byte	.LASF73
 2259 0424 A2000000 		.4byte	0xa2
 2260 0428 01       		.byte	0x1
 2261 0429 31040000 		.4byte	0x431
 2262 042d 3C040000 		.4byte	0x43c
 2263 0431 1B       		.uleb128 0x1b
 2264 0432 B2050000 		.4byte	0x5b2
 2265 0436 14       		.uleb128 0x14
 2266 0437 A2000000 		.4byte	0xa2
 2267 043b 00       		.byte	0
 2268 043c 1E       		.uleb128 0x1e
 2269 043d 0C600000 		.4byte	.LASF72
 2270 0441 08       		.byte	0x8
 2271 0442 7801     		.2byte	0x178
 2272 0444 973E0000 		.4byte	.LASF74
 2273 0448 B8050000 		.4byte	0x5b8
 2274 044c 01       		.byte	0x1
 2275 044d 55040000 		.4byte	0x455
 2276 0451 6A040000 		.4byte	0x46a
 2277 0455 1B       		.uleb128 0x1b
 2278 0456 B2050000 		.4byte	0x5b2
 2279 045a 14       		.uleb128 0x14
 2280 045b A2000000 		.4byte	0xa2
 2281 045f 14       		.uleb128 0x14
 2282 0460 A2000000 		.4byte	0xa2
 2283 0464 14       		.uleb128 0x14
 2284 0465 B8050000 		.4byte	0x5b8
 2285 0469 00       		.byte	0
 2286 046a 1E       		.uleb128 0x1e
 2287 046b 24350000 		.4byte	.LASF75
 2288 046f 08       		.byte	0x8
 2289 0470 CE01     		.2byte	0x1ce
 2290 0472 801F0000 		.4byte	.LASF76
 2291 0476 A2000000 		.4byte	0xa2
 2292 047a 01       		.byte	0x1
 2293 047b 83040000 		.4byte	0x483
 2294 047f 89040000 		.4byte	0x489
 2295 0483 1B       		.uleb128 0x1b
 2296 0484 B2050000 		.4byte	0x5b2
 2297 0488 00       		.byte	0
 2298 0489 1E       		.uleb128 0x1e
 2299 048a E7350000 		.4byte	.LASF77
 2300 048e 08       		.byte	0x8
 2301 048f D901     		.2byte	0x1d9
 2302 0491 B7140000 		.4byte	.LASF78
 2303 0495 AD000000 		.4byte	0xad
 2304 0499 01       		.byte	0x1
 2305 049a A2040000 		.4byte	0x4a2
 2306 049e A8040000 		.4byte	0x4a8
 2307 04a2 1B       		.uleb128 0x1b
 2308 04a3 B2050000 		.4byte	0x5b2
 2309 04a7 00       		.byte	0
 2310 04a8 1E       		.uleb128 0x1e
 2311 04a9 20560000 		.4byte	.LASF79
 2312 04ad 08       		.byte	0x8
 2313 04ae E701     		.2byte	0x1e7
ARM GAS  C:\Users\jrdia\AppData\Local\Temp\ccYHzYw6.s 			page 66


 2314 04b0 773F0000 		.4byte	.LASF80
 2315 04b4 97000000 		.4byte	0x97
 2316 04b8 01       		.byte	0x1
 2317 04b9 C1040000 		.4byte	0x4c1
 2318 04bd C7040000 		.4byte	0x4c7
 2319 04c1 1B       		.uleb128 0x1b
 2320 04c2 B2050000 		.4byte	0x5b2
 2321 04c6 00       		.byte	0
 2322 04c7 1E       		.uleb128 0x1e
 2323 04c8 20560000 		.4byte	.LASF79
 2324 04cc 08       		.byte	0x8
 2325 04cd 0F02     		.2byte	0x20f
 2326 04cf F13E0000 		.4byte	.LASF81
 2327 04d3 97000000 		.4byte	0x97
 2328 04d7 01       		.byte	0x1
 2329 04d8 E0040000 		.4byte	0x4e0
 2330 04dc EB040000 		.4byte	0x4eb
 2331 04e0 1B       		.uleb128 0x1b
 2332 04e1 B2050000 		.4byte	0x5b2
 2333 04e5 14       		.uleb128 0x14
 2334 04e6 89000000 		.4byte	0x89
 2335 04ea 00       		.byte	0
 2336 04eb 1C       		.uleb128 0x1c
 2337 04ec 83480000 		.4byte	.LASF82
 2338 04f0 08       		.byte	0x8
 2339 04f1 90       		.byte	0x90
 2340 04f2 B20C0000 		.4byte	.LASF84
 2341 04f6 01       		.byte	0x1
 2342 04f7 FF040000 		.4byte	0x4ff
 2343 04fb 0A050000 		.4byte	0x50a
 2344 04ff 1B       		.uleb128 0x1b
 2345 0500 B2050000 		.4byte	0x5b2
 2346 0504 14       		.uleb128 0x14
 2347 0505 67030000 		.4byte	0x367
 2348 0509 00       		.byte	0
 2349 050a 1A       		.uleb128 0x1a
 2350 050b 4C0F0000 		.4byte	.LASF85
 2351 050f 08       		.byte	0x8
 2352 0510 94       		.byte	0x94
 2353 0511 9A350000 		.4byte	.LASF86
 2354 0515 A2000000 		.4byte	0xa2
 2355 0519 01       		.byte	0x1
 2356 051a 22050000 		.4byte	0x522
 2357 051e 28050000 		.4byte	0x528
 2358 0522 1B       		.uleb128 0x1b
 2359 0523 B2050000 		.4byte	0x5b2
 2360 0527 00       		.byte	0
 2361 0528 1D       		.uleb128 0x1d
 2362 0529 B24E0000 		.4byte	.LASF87
 2363 052d 08       		.byte	0x8
 2364 052e 3B02     		.2byte	0x23b
 2365 0530 6B130000 		.4byte	.LASF89
 2366 0534 01       		.byte	0x1
 2367 0535 3D050000 		.4byte	0x53d
 2368 0539 43050000 		.4byte	0x543
 2369 053d 1B       		.uleb128 0x1b
 2370 053e B2050000 		.4byte	0x5b2
ARM GAS  C:\Users\jrdia\AppData\Local\Temp\ccYHzYw6.s 			page 67


 2371 0542 00       		.byte	0
 2372 0543 1A       		.uleb128 0x1a
 2373 0544 6A2D0000 		.4byte	.LASF90
 2374 0548 08       		.byte	0x8
 2375 0549 98       		.byte	0x98
 2376 054a 3F460000 		.4byte	.LASF91
 2377 054e A2000000 		.4byte	0xa2
 2378 0552 01       		.byte	0x1
 2379 0553 5B050000 		.4byte	0x55b
 2380 0557 61050000 		.4byte	0x561
 2381 055b 1B       		.uleb128 0x1b
 2382 055c B2050000 		.4byte	0x5b2
 2383 0560 00       		.byte	0
 2384 0561 1E       		.uleb128 0x1e
 2385 0562 4E490000 		.4byte	.LASF92
 2386 0566 08       		.byte	0x8
 2387 0567 7102     		.2byte	0x271
 2388 0569 34140000 		.4byte	.LASF93
 2389 056d A2000000 		.4byte	0xa2
 2390 0571 01       		.byte	0x1
 2391 0572 7A050000 		.4byte	0x57a
 2392 0576 80050000 		.4byte	0x580
 2393 057a 1B       		.uleb128 0x1b
 2394 057b B2050000 		.4byte	0x5b2
 2395 057f 00       		.byte	0
 2396 0580 1E       		.uleb128 0x1e
 2397 0581 2C060000 		.4byte	.LASF94
 2398 0585 08       		.byte	0x8
 2399 0586 5E02     		.2byte	0x25e
 2400 0588 D0420000 		.4byte	.LASF95
 2401 058c A2000000 		.4byte	0xa2
 2402 0590 01       		.byte	0x1
 2403 0591 99050000 		.4byte	0x599
 2404 0595 9F050000 		.4byte	0x59f
 2405 0599 1B       		.uleb128 0x1b
 2406 059a B2050000 		.4byte	0x5b2
 2407 059e 00       		.byte	0
 2408 059f 1F       		.uleb128 0x1f
 2409 05a0 8D140000 		.4byte	.LASF96
 2410 05a4 79020000 		.4byte	0x279
 2411 05a8 1F       		.uleb128 0x1f
 2412 05a9 3A290000 		.4byte	.LASF97
 2413 05ad 74020000 		.4byte	0x274
 2414 05b1 00       		.byte	0
 2415 05b2 06       		.uleb128 0x6
 2416 05b3 04       		.byte	0x4
 2417 05b4 72030000 		.4byte	0x372
 2418 05b8 06       		.uleb128 0x6
 2419 05b9 04       		.byte	0x4
 2420 05ba A2000000 		.4byte	0xa2
 2421 05be 20       		.uleb128 0x20
 2422 05bf 55534200 		.ascii	"USB\000"
 2423 05c3 BC       		.byte	0xbc
 2424 05c4 09       		.byte	0x9
 2425 05c5 C7       		.byte	0xc7
 2426 05c6 380B0000 		.4byte	0xb38
 2427 05ca 21       		.uleb128 0x21
ARM GAS  C:\Users\jrdia\AppData\Local\Temp\ccYHzYw6.s 			page 68


 2428 05cb 72030000 		.4byte	0x372
 2429 05cf 00       		.byte	0
 2430 05d0 01       		.byte	0x1
 2431 05d1 11       		.uleb128 0x11
 2432 05d2 F6110000 		.4byte	.LASF99
 2433 05d6 09       		.byte	0x9
 2434 05d7 C8       		.byte	0xc8
 2435 05d8 380B0000 		.4byte	0xb38
 2436 05dc 00       		.byte	0
 2437 05dd 11       		.uleb128 0x11
 2438 05de 07110000 		.4byte	.LASF100
 2439 05e2 09       		.byte	0x9
 2440 05e3 C9       		.byte	0xc9
 2441 05e4 4C0B0000 		.4byte	0xb4c
 2442 05e8 78       		.byte	0x78
 2443 05e9 11       		.uleb128 0x11
 2444 05ea 36460000 		.4byte	.LASF101
 2445 05ee 09       		.byte	0x9
 2446 05ef CA       		.byte	0xca
 2447 05f0 A2000000 		.4byte	0xa2
 2448 05f4 B8       		.byte	0xb8
 2449 05f5 22       		.uleb128 0x22
 2450 05f6 55534200 		.ascii	"USB\000"
 2451 05fa 09       		.byte	0x9
 2452 05fb CD       		.byte	0xcd
 2453 05fc 88200000 		.4byte	.LASF1194
 2454 0600 400D0000 		.4byte	0xd40
 2455 0604 01       		.byte	0x1
 2456 0605 0D060000 		.4byte	0x60d
 2457 0609 13060000 		.4byte	0x613
 2458 060d 1B       		.uleb128 0x1b
 2459 060e 400D0000 		.4byte	0xd40
 2460 0612 00       		.byte	0
 2461 0613 1C       		.uleb128 0x1c
 2462 0614 97320000 		.4byte	.LASF102
 2463 0618 09       		.byte	0x9
 2464 0619 CF       		.byte	0xcf
 2465 061a 060C0000 		.4byte	.LASF103
 2466 061e 01       		.byte	0x1
 2467 061f 27060000 		.4byte	0x627
 2468 0623 2D060000 		.4byte	0x62d
 2469 0627 1B       		.uleb128 0x1b
 2470 0628 400D0000 		.4byte	0xd40
 2471 062c 00       		.byte	0
 2472 062d 1C       		.uleb128 0x1c
 2473 062e 99470000 		.4byte	.LASF104
 2474 0632 09       		.byte	0x9
 2475 0633 D3       		.byte	0xd3
 2476 0634 8D0D0000 		.4byte	.LASF105
 2477 0638 01       		.byte	0x1
 2478 0639 41060000 		.4byte	0x641
 2479 063d 47060000 		.4byte	0x647
 2480 0641 1B       		.uleb128 0x1b
 2481 0642 400D0000 		.4byte	0xd40
 2482 0646 00       		.byte	0
 2483 0647 1A       		.uleb128 0x1a
 2484 0648 65590000 		.4byte	.LASF106
ARM GAS  C:\Users\jrdia\AppData\Local\Temp\ccYHzYw6.s 			page 69


 2485 064c 09       		.byte	0x9
 2486 064d D7       		.byte	0xd7
 2487 064e 3E630000 		.4byte	.LASF107
 2488 0652 4B0D0000 		.4byte	0xd4b
 2489 0656 01       		.byte	0x1
 2490 0657 5F060000 		.4byte	0x65f
 2491 065b 65060000 		.4byte	0x665
 2492 065f 1B       		.uleb128 0x1b
 2493 0660 400D0000 		.4byte	0xd40
 2494 0664 00       		.byte	0
 2495 0665 1A       		.uleb128 0x1a
 2496 0666 D5250000 		.4byte	.LASF108
 2497 066a 09       		.byte	0x9
 2498 066b DB       		.byte	0xdb
 2499 066c AC0B0000 		.4byte	.LASF109
 2500 0670 A2000000 		.4byte	0xa2
 2501 0674 01       		.byte	0x1
 2502 0675 7D060000 		.4byte	0x67d
 2503 0679 88060000 		.4byte	0x688
 2504 067d 1B       		.uleb128 0x1b
 2505 067e 400D0000 		.4byte	0xd40
 2506 0682 14       		.uleb128 0x14
 2507 0683 5C0B0000 		.4byte	0xb5c
 2508 0687 00       		.byte	0
 2509 0688 1C       		.uleb128 0x1c
 2510 0689 B84C0000 		.4byte	.LASF110
 2511 068d 09       		.byte	0x9
 2512 068e E5       		.byte	0xe5
 2513 068f C7390000 		.4byte	.LASF111
 2514 0693 01       		.byte	0x1
 2515 0694 9C060000 		.4byte	0x69c
 2516 0698 A7060000 		.4byte	0x6a7
 2517 069c 1B       		.uleb128 0x1b
 2518 069d 400D0000 		.4byte	0xd40
 2519 06a1 14       		.uleb128 0x14
 2520 06a2 52020000 		.4byte	0x252
 2521 06a6 00       		.byte	0
 2522 06a7 1A       		.uleb128 0x1a
 2523 06a8 1D570000 		.4byte	.LASF112
 2524 06ac 09       		.byte	0x9
 2525 06ad E8       		.byte	0xe8
 2526 06ae 17330000 		.4byte	.LASF113
 2527 06b2 A2000000 		.4byte	0xa2
 2528 06b6 01       		.byte	0x1
 2529 06b7 BF060000 		.4byte	0x6bf
 2530 06bb C5060000 		.4byte	0x6c5
 2531 06bf 1B       		.uleb128 0x1b
 2532 06c0 400D0000 		.4byte	0xd40
 2533 06c4 00       		.byte	0
 2534 06c5 1C       		.uleb128 0x1c
 2535 06c6 7C070000 		.4byte	.LASF114
 2536 06ca 09       		.byte	0x9
 2537 06cb E9       		.byte	0xe9
 2538 06cc 97600000 		.4byte	.LASF115
 2539 06d0 01       		.byte	0x1
 2540 06d1 D9060000 		.4byte	0x6d9
 2541 06d5 E4060000 		.4byte	0x6e4
ARM GAS  C:\Users\jrdia\AppData\Local\Temp\ccYHzYw6.s 			page 70


 2542 06d9 1B       		.uleb128 0x1b
 2543 06da 400D0000 		.4byte	0xd40
 2544 06de 14       		.uleb128 0x14
 2545 06df A2000000 		.4byte	0xa2
 2546 06e3 00       		.byte	0
 2547 06e4 1A       		.uleb128 0x1a
 2548 06e5 4B390000 		.4byte	.LASF116
 2549 06e9 09       		.byte	0x9
 2550 06ea EB       		.byte	0xeb
 2551 06eb 3C2F0000 		.4byte	.LASF117
 2552 06ef 4C020000 		.4byte	0x24c
 2553 06f3 01       		.byte	0x1
 2554 06f4 FC060000 		.4byte	0x6fc
 2555 06f8 0C070000 		.4byte	0x70c
 2556 06fc 1B       		.uleb128 0x1b
 2557 06fd 400D0000 		.4byte	0xd40
 2558 0701 14       		.uleb128 0x14
 2559 0702 A2000000 		.4byte	0xa2
 2560 0706 14       		.uleb128 0x14
 2561 0707 A2000000 		.4byte	0xa2
 2562 070b 00       		.byte	0
 2563 070c 1A       		.uleb128 0x1a
 2564 070d 141C0000 		.4byte	.LASF118
 2565 0711 09       		.byte	0x9
 2566 0712 EC       		.byte	0xec
 2567 0713 62400000 		.4byte	.LASF119
 2568 0717 A2000000 		.4byte	0xa2
 2569 071b 01       		.byte	0x1
 2570 071c 24070000 		.4byte	0x724
 2571 0720 39070000 		.4byte	0x739
 2572 0724 1B       		.uleb128 0x1b
 2573 0725 400D0000 		.4byte	0xd40
 2574 0729 14       		.uleb128 0x14
 2575 072a A2000000 		.4byte	0xa2
 2576 072e 14       		.uleb128 0x14
 2577 072f A2000000 		.4byte	0xa2
 2578 0733 14       		.uleb128 0x14
 2579 0734 4C020000 		.4byte	0x24c
 2580 0738 00       		.byte	0
 2581 0739 1A       		.uleb128 0x1a
 2582 073a FF510000 		.4byte	.LASF120
 2583 073e 09       		.byte	0x9
 2584 073f EF       		.byte	0xef
 2585 0740 501C0000 		.4byte	.LASF121
 2586 0744 A2000000 		.4byte	0xa2
 2587 0748 01       		.byte	0x1
 2588 0749 51070000 		.4byte	0x751
 2589 074d 6B070000 		.4byte	0x76b
 2590 0751 1B       		.uleb128 0x1b
 2591 0752 400D0000 		.4byte	0xd40
 2592 0756 14       		.uleb128 0x14
 2593 0757 A2000000 		.4byte	0xa2
 2594 075b 14       		.uleb128 0x14
 2595 075c A2000000 		.4byte	0xa2
 2596 0760 14       		.uleb128 0x14
 2597 0761 AD000000 		.4byte	0xad
 2598 0765 14       		.uleb128 0x14
ARM GAS  C:\Users\jrdia\AppData\Local\Temp\ccYHzYw6.s 			page 71


 2599 0766 B8050000 		.4byte	0x5b8
 2600 076a 00       		.byte	0
 2601 076b 1A       		.uleb128 0x1a
 2602 076c 15200000 		.4byte	.LASF122
 2603 0770 09       		.byte	0x9
 2604 0771 F0       		.byte	0xf0
 2605 0772 710F0000 		.4byte	.LASF123
 2606 0776 A2000000 		.4byte	0xa2
 2607 077a 01       		.byte	0x1
 2608 077b 83070000 		.4byte	0x783
 2609 077f A2070000 		.4byte	0x7a2
 2610 0783 1B       		.uleb128 0x1b
 2611 0784 400D0000 		.4byte	0xd40
 2612 0788 14       		.uleb128 0x14
 2613 0789 A2000000 		.4byte	0xa2
 2614 078d 14       		.uleb128 0x14
 2615 078e A2000000 		.4byte	0xa2
 2616 0792 14       		.uleb128 0x14
 2617 0793 AD000000 		.4byte	0xad
 2618 0797 14       		.uleb128 0x14
 2619 0798 A2000000 		.4byte	0xa2
 2620 079c 14       		.uleb128 0x14
 2621 079d B8050000 		.4byte	0x5b8
 2622 07a1 00       		.byte	0
 2623 07a2 1A       		.uleb128 0x1a
 2624 07a3 15200000 		.4byte	.LASF122
 2625 07a7 09       		.byte	0x9
 2626 07a8 F2       		.byte	0xf2
 2627 07a9 69640000 		.4byte	.LASF124
 2628 07ad A2000000 		.4byte	0xa2
 2629 07b1 01       		.byte	0x1
 2630 07b2 BA070000 		.4byte	0x7ba
 2631 07b6 D4070000 		.4byte	0x7d4
 2632 07ba 1B       		.uleb128 0x1b
 2633 07bb 400D0000 		.4byte	0xd40
 2634 07bf 14       		.uleb128 0x14
 2635 07c0 A2000000 		.4byte	0xa2
 2636 07c4 14       		.uleb128 0x14
 2637 07c5 A2000000 		.4byte	0xa2
 2638 07c9 14       		.uleb128 0x14
 2639 07ca A2000000 		.4byte	0xa2
 2640 07ce 14       		.uleb128 0x14
 2641 07cf 510D0000 		.4byte	0xd51
 2642 07d3 00       		.byte	0
 2643 07d4 1A       		.uleb128 0x1a
 2644 07d5 DF540000 		.4byte	.LASF125
 2645 07d9 09       		.byte	0x9
 2646 07da F4       		.byte	0xf4
 2647 07db EB610000 		.4byte	.LASF126
 2648 07df A2000000 		.4byte	0xa2
 2649 07e3 01       		.byte	0x1
 2650 07e4 EC070000 		.4byte	0x7ec
 2651 07e8 10080000 		.4byte	0x810
 2652 07ec 1B       		.uleb128 0x1b
 2653 07ed 400D0000 		.4byte	0xd40
 2654 07f1 14       		.uleb128 0x14
 2655 07f2 A2000000 		.4byte	0xa2
ARM GAS  C:\Users\jrdia\AppData\Local\Temp\ccYHzYw6.s 			page 72


 2656 07f6 14       		.uleb128 0x14
 2657 07f7 A2000000 		.4byte	0xa2
 2658 07fb 14       		.uleb128 0x14
 2659 07fc AD000000 		.4byte	0xad
 2660 0800 14       		.uleb128 0x14
 2661 0801 A2000000 		.4byte	0xa2
 2662 0805 14       		.uleb128 0x14
 2663 0806 AD000000 		.4byte	0xad
 2664 080a 14       		.uleb128 0x14
 2665 080b B8050000 		.4byte	0x5b8
 2666 080f 00       		.byte	0
 2667 0810 1A       		.uleb128 0x1a
 2668 0811 39120000 		.4byte	.LASF127
 2669 0815 09       		.byte	0x9
 2670 0816 F5       		.byte	0xf5
 2671 0817 AA450000 		.4byte	.LASF128
 2672 081b A2000000 		.4byte	0xa2
 2673 081f 01       		.byte	0x1
 2674 0820 28080000 		.4byte	0x828
 2675 0824 3D080000 		.4byte	0x83d
 2676 0828 1B       		.uleb128 0x1b
 2677 0829 400D0000 		.4byte	0xd40
 2678 082d 14       		.uleb128 0x14
 2679 082e A2000000 		.4byte	0xa2
 2680 0832 14       		.uleb128 0x14
 2681 0833 A2000000 		.4byte	0xa2
 2682 0837 14       		.uleb128 0x14
 2683 0838 A2000000 		.4byte	0xa2
 2684 083c 00       		.byte	0
 2685 083d 1A       		.uleb128 0x1a
 2686 083e 76180000 		.4byte	.LASF129
 2687 0842 09       		.byte	0x9
 2688 0843 F6       		.byte	0xf6
 2689 0844 5D5B0000 		.4byte	.LASF130
 2690 0848 A2000000 		.4byte	0xa2
 2691 084c 01       		.byte	0x1
 2692 084d 55080000 		.4byte	0x855
 2693 0851 6A080000 		.4byte	0x86a
 2694 0855 1B       		.uleb128 0x1b
 2695 0856 400D0000 		.4byte	0xd40
 2696 085a 14       		.uleb128 0x14
 2697 085b A2000000 		.4byte	0xa2
 2698 085f 14       		.uleb128 0x14
 2699 0860 A2000000 		.4byte	0xa2
 2700 0864 14       		.uleb128 0x14
 2701 0865 A2000000 		.4byte	0xa2
 2702 0869 00       		.byte	0
 2703 086a 1A       		.uleb128 0x1a
 2704 086b 2D440000 		.4byte	.LASF131
 2705 086f 09       		.byte	0x9
 2706 0870 F8       		.byte	0xf8
 2707 0871 9C270000 		.4byte	.LASF132
 2708 0875 A2000000 		.4byte	0xa2
 2709 0879 01       		.byte	0x1
 2710 087a 82080000 		.4byte	0x882
 2711 087e A1080000 		.4byte	0x8a1
 2712 0882 1B       		.uleb128 0x1b
ARM GAS  C:\Users\jrdia\AppData\Local\Temp\ccYHzYw6.s 			page 73


 2713 0883 400D0000 		.4byte	0xd40
 2714 0887 14       		.uleb128 0x14
 2715 0888 A2000000 		.4byte	0xa2
 2716 088c 14       		.uleb128 0x14
 2717 088d A2000000 		.4byte	0xa2
 2718 0891 14       		.uleb128 0x14
 2719 0892 AD000000 		.4byte	0xad
 2720 0896 14       		.uleb128 0x14
 2721 0897 B8050000 		.4byte	0x5b8
 2722 089b 14       		.uleb128 0x14
 2723 089c FA000000 		.4byte	0xfa
 2724 08a0 00       		.byte	0
 2725 08a1 1A       		.uleb128 0x1a
 2726 08a2 6D350000 		.4byte	.LASF133
 2727 08a6 09       		.byte	0x9
 2728 08a7 F9       		.byte	0xf9
 2729 08a8 26190000 		.4byte	.LASF134
 2730 08ac A2000000 		.4byte	0xa2
 2731 08b0 01       		.byte	0x1
 2732 08b1 B9080000 		.4byte	0x8b9
 2733 08b5 CE080000 		.4byte	0x8ce
 2734 08b9 1B       		.uleb128 0x1b
 2735 08ba 400D0000 		.4byte	0xd40
 2736 08be 14       		.uleb128 0x14
 2737 08bf A2000000 		.4byte	0xa2
 2738 08c3 14       		.uleb128 0x14
 2739 08c4 FA000000 		.4byte	0xfa
 2740 08c8 14       		.uleb128 0x14
 2741 08c9 AD000000 		.4byte	0xad
 2742 08cd 00       		.byte	0
 2743 08ce 1A       		.uleb128 0x1a
 2744 08cf 6A3E0000 		.4byte	.LASF135
 2745 08d3 09       		.byte	0x9
 2746 08d4 FA       		.byte	0xfa
 2747 08d5 EB060000 		.4byte	.LASF136
 2748 08d9 A2000000 		.4byte	0xa2
 2749 08dd 01       		.byte	0x1
 2750 08de E6080000 		.4byte	0x8e6
 2751 08e2 05090000 		.4byte	0x905
 2752 08e6 1B       		.uleb128 0x1b
 2753 08e7 400D0000 		.4byte	0xd40
 2754 08eb 14       		.uleb128 0x14
 2755 08ec A2000000 		.4byte	0xa2
 2756 08f0 14       		.uleb128 0x14
 2757 08f1 A2000000 		.4byte	0xa2
 2758 08f5 14       		.uleb128 0x14
 2759 08f6 5C0D0000 		.4byte	0xd5c
 2760 08fa 14       		.uleb128 0x14
 2761 08fb B8050000 		.4byte	0x5b8
 2762 08ff 14       		.uleb128 0x14
 2763 0900 A2000000 		.4byte	0xa2
 2764 0904 00       		.byte	0
 2765 0905 1A       		.uleb128 0x1a
 2766 0906 2C030000 		.4byte	.LASF137
 2767 090a 09       		.byte	0x9
 2768 090b FB       		.byte	0xfb
 2769 090c BF160000 		.4byte	.LASF138
ARM GAS  C:\Users\jrdia\AppData\Local\Temp\ccYHzYw6.s 			page 74


 2770 0910 A2000000 		.4byte	0xa2
 2771 0914 01       		.byte	0x1
 2772 0915 1D090000 		.4byte	0x91d
 2773 0919 37090000 		.4byte	0x937
 2774 091d 1B       		.uleb128 0x1b
 2775 091e 400D0000 		.4byte	0xd40
 2776 0922 14       		.uleb128 0x14
 2777 0923 A2000000 		.4byte	0xa2
 2778 0927 14       		.uleb128 0x14
 2779 0928 A2000000 		.4byte	0xa2
 2780 092c 14       		.uleb128 0x14
 2781 092d AD000000 		.4byte	0xad
 2782 0931 14       		.uleb128 0x14
 2783 0932 B8050000 		.4byte	0x5b8
 2784 0936 00       		.byte	0
 2785 0937 1A       		.uleb128 0x1a
 2786 0938 CF3B0000 		.4byte	.LASF139
 2787 093c 09       		.byte	0x9
 2788 093d FC       		.byte	0xfc
 2789 093e 25530000 		.4byte	.LASF140
 2790 0942 A2000000 		.4byte	0xa2
 2791 0946 01       		.byte	0x1
 2792 0947 4F090000 		.4byte	0x94f
 2793 094b 64090000 		.4byte	0x964
 2794 094f 1B       		.uleb128 0x1b
 2795 0950 400D0000 		.4byte	0xd40
 2796 0954 14       		.uleb128 0x14
 2797 0955 A2000000 		.4byte	0xa2
 2798 0959 14       		.uleb128 0x14
 2799 095a A2000000 		.4byte	0xa2
 2800 095e 14       		.uleb128 0x14
 2801 095f AD000000 		.4byte	0xad
 2802 0963 00       		.byte	0
 2803 0964 1C       		.uleb128 0x1c
 2804 0965 2C060000 		.4byte	.LASF94
 2805 0969 09       		.byte	0x9
 2806 096a FE       		.byte	0xfe
 2807 096b 16310000 		.4byte	.LASF141
 2808 096f 01       		.byte	0x1
 2809 0970 78090000 		.4byte	0x978
 2810 0974 7E090000 		.4byte	0x97e
 2811 0978 1B       		.uleb128 0x1b
 2812 0979 400D0000 		.4byte	0xd40
 2813 097d 00       		.byte	0
 2814 097e 1E       		.uleb128 0x1e
 2815 097f 88630000 		.4byte	.LASF142
 2816 0983 09       		.byte	0x9
 2817 0984 0001     		.2byte	0x100
 2818 0986 7C060000 		.4byte	.LASF143
 2819 098a A2000000 		.4byte	0xa2
 2820 098e 01       		.byte	0x1
 2821 098f 97090000 		.4byte	0x997
 2822 0993 AC090000 		.4byte	0x9ac
 2823 0997 1B       		.uleb128 0x1b
 2824 0998 400D0000 		.4byte	0xd40
 2825 099c 14       		.uleb128 0x14
 2826 099d A2000000 		.4byte	0xa2
ARM GAS  C:\Users\jrdia\AppData\Local\Temp\ccYHzYw6.s 			page 75


 2827 09a1 14       		.uleb128 0x14
 2828 09a2 A2000000 		.4byte	0xa2
 2829 09a6 14       		.uleb128 0x14
 2830 09a7 FA000000 		.4byte	0xfa
 2831 09ab 00       		.byte	0
 2832 09ac 1E       		.uleb128 0x1e
 2833 09ad 37450000 		.4byte	.LASF144
 2834 09b1 09       		.byte	0x9
 2835 09b2 0101     		.2byte	0x101
 2836 09b4 21620000 		.4byte	.LASF145
 2837 09b8 A2000000 		.4byte	0xa2
 2838 09bc 01       		.byte	0x1
 2839 09bd C5090000 		.4byte	0x9c5
 2840 09c1 DA090000 		.4byte	0x9da
 2841 09c5 1B       		.uleb128 0x1b
 2842 09c6 400D0000 		.4byte	0xd40
 2843 09ca 14       		.uleb128 0x14
 2844 09cb A2000000 		.4byte	0xa2
 2845 09cf 14       		.uleb128 0x14
 2846 09d0 A2000000 		.4byte	0xa2
 2847 09d4 14       		.uleb128 0x14
 2848 09d5 FA000000 		.4byte	0xfa
 2849 09d9 00       		.byte	0
 2850 09da 1E       		.uleb128 0x1e
 2851 09db 34100000 		.4byte	.LASF146
 2852 09df 09       		.byte	0x9
 2853 09e0 0201     		.2byte	0x102
 2854 09e2 385D0000 		.4byte	.LASF147
 2855 09e6 A2000000 		.4byte	0xa2
 2856 09ea 01       		.byte	0x1
 2857 09eb F3090000 		.4byte	0x9f3
 2858 09ef FE090000 		.4byte	0x9fe
 2859 09f3 1B       		.uleb128 0x1b
 2860 09f4 400D0000 		.4byte	0xd40
 2861 09f8 14       		.uleb128 0x14
 2862 09f9 A2000000 		.4byte	0xa2
 2863 09fd 00       		.byte	0
 2864 09fe 1E       		.uleb128 0x1e
 2865 09ff C3450000 		.4byte	.LASF148
 2866 0a03 09       		.byte	0x9
 2867 0a04 0401     		.2byte	0x104
 2868 0a06 61170000 		.4byte	.LASF149
 2869 0a0a A2000000 		.4byte	0xa2
 2870 0a0e 01       		.byte	0x1
 2871 0a0f 170A0000 		.4byte	0xa17
 2872 0a13 540A0000 		.4byte	0xa54
 2873 0a17 1B       		.uleb128 0x1b
 2874 0a18 400D0000 		.4byte	0xd40
 2875 0a1c 14       		.uleb128 0x14
 2876 0a1d A2000000 		.4byte	0xa2
 2877 0a21 14       		.uleb128 0x14
 2878 0a22 A2000000 		.4byte	0xa2
 2879 0a26 14       		.uleb128 0x14
 2880 0a27 A2000000 		.4byte	0xa2
 2881 0a2b 14       		.uleb128 0x14
 2882 0a2c A2000000 		.4byte	0xa2
 2883 0a30 14       		.uleb128 0x14
ARM GAS  C:\Users\jrdia\AppData\Local\Temp\ccYHzYw6.s 			page 76


 2884 0a31 A2000000 		.4byte	0xa2
 2885 0a35 14       		.uleb128 0x14
 2886 0a36 A2000000 		.4byte	0xa2
 2887 0a3a 14       		.uleb128 0x14
 2888 0a3b AD000000 		.4byte	0xad
 2889 0a3f 14       		.uleb128 0x14
 2890 0a40 AD000000 		.4byte	0xad
 2891 0a44 14       		.uleb128 0x14
 2892 0a45 AD000000 		.4byte	0xad
 2893 0a49 14       		.uleb128 0x14
 2894 0a4a B8050000 		.4byte	0x5b8
 2895 0a4e 14       		.uleb128 0x14
 2896 0a4f 510D0000 		.4byte	0xd51
 2897 0a53 00       		.byte	0
 2898 0a54 23       		.uleb128 0x23
 2899 0a55 8E1E0000 		.4byte	.LASF156
 2900 0a59 09       		.byte	0x9
 2901 0a5a 0801     		.2byte	0x108
 2902 0a5c 135C0000 		.4byte	.LASF158
 2903 0a60 680A0000 		.4byte	0xa68
 2904 0a64 6E0A0000 		.4byte	0xa6e
 2905 0a68 1B       		.uleb128 0x1b
 2906 0a69 400D0000 		.4byte	0xd40
 2907 0a6d 00       		.byte	0
 2908 0a6e 24       		.uleb128 0x24
 2909 0a6f 8E470000 		.4byte	.LASF150
 2910 0a73 09       		.byte	0x9
 2911 0a74 0901     		.2byte	0x109
 2912 0a76 351B0000 		.4byte	.LASF151
 2913 0a7a A2000000 		.4byte	0xa2
 2914 0a7e 860A0000 		.4byte	0xa86
 2915 0a82 A00A0000 		.4byte	0xaa0
 2916 0a86 1B       		.uleb128 0x1b
 2917 0a87 400D0000 		.4byte	0xd40
 2918 0a8b 14       		.uleb128 0x14
 2919 0a8c A2000000 		.4byte	0xa2
 2920 0a90 14       		.uleb128 0x14
 2921 0a91 A2000000 		.4byte	0xa2
 2922 0a95 14       		.uleb128 0x14
 2923 0a96 620D0000 		.4byte	0xd62
 2924 0a9a 14       		.uleb128 0x14
 2925 0a9b 5C0D0000 		.4byte	0xd5c
 2926 0a9f 00       		.byte	0
 2927 0aa0 24       		.uleb128 0x24
 2928 0aa1 ED350000 		.4byte	.LASF152
 2929 0aa5 09       		.byte	0x9
 2930 0aa6 0A01     		.2byte	0x10a
 2931 0aa8 61490000 		.4byte	.LASF153
 2932 0aac A2000000 		.4byte	0xa2
 2933 0ab0 B80A0000 		.4byte	0xab8
 2934 0ab4 D20A0000 		.4byte	0xad2
 2935 0ab8 1B       		.uleb128 0x1b
 2936 0ab9 400D0000 		.4byte	0xd40
 2937 0abd 14       		.uleb128 0x14
 2938 0abe 4C020000 		.4byte	0x24c
 2939 0ac2 14       		.uleb128 0x14
 2940 0ac3 AD000000 		.4byte	0xad
ARM GAS  C:\Users\jrdia\AppData\Local\Temp\ccYHzYw6.s 			page 77


 2941 0ac7 14       		.uleb128 0x14
 2942 0ac8 AD000000 		.4byte	0xad
 2943 0acc 14       		.uleb128 0x14
 2944 0acd B8050000 		.4byte	0x5b8
 2945 0ad1 00       		.byte	0
 2946 0ad2 24       		.uleb128 0x24
 2947 0ad3 5D4A0000 		.4byte	.LASF154
 2948 0ad7 09       		.byte	0x9
 2949 0ad8 0B01     		.2byte	0x10b
 2950 0ada BF480000 		.4byte	.LASF155
 2951 0ade A2000000 		.4byte	0xa2
 2952 0ae2 EA0A0000 		.4byte	0xaea
 2953 0ae6 090B0000 		.4byte	0xb09
 2954 0aea 1B       		.uleb128 0x1b
 2955 0aeb 400D0000 		.4byte	0xd40
 2956 0aef 14       		.uleb128 0x14
 2957 0af0 4C020000 		.4byte	0x24c
 2958 0af4 14       		.uleb128 0x14
 2959 0af5 AD000000 		.4byte	0xad
 2960 0af9 14       		.uleb128 0x14
 2961 0afa 5C0D0000 		.4byte	0xd5c
 2962 0afe 14       		.uleb128 0x14
 2963 0aff B8050000 		.4byte	0x5b8
 2964 0b03 14       		.uleb128 0x14
 2965 0b04 A2000000 		.4byte	0xa2
 2966 0b08 00       		.byte	0
 2967 0b09 25       		.uleb128 0x25
 2968 0b0a 3B0B0000 		.4byte	.LASF157
 2969 0b0e 09       		.byte	0x9
 2970 0b0f 0C01     		.2byte	0x10c
 2971 0b11 BE1D0000 		.4byte	.LASF159
 2972 0b15 A2000000 		.4byte	0xa2
 2973 0b19 1D0B0000 		.4byte	0xb1d
 2974 0b1d 1B       		.uleb128 0x1b
 2975 0b1e 400D0000 		.4byte	0xd40
 2976 0b22 14       		.uleb128 0x14
 2977 0b23 A2000000 		.4byte	0xa2
 2978 0b27 14       		.uleb128 0x14
 2979 0b28 A2000000 		.4byte	0xa2
 2980 0b2c 14       		.uleb128 0x14
 2981 0b2d A2000000 		.4byte	0xa2
 2982 0b31 14       		.uleb128 0x14
 2983 0b32 FA000000 		.4byte	0xfa
 2984 0b36 00       		.byte	0
 2985 0b37 00       		.byte	0
 2986 0b38 26       		.uleb128 0x26
 2987 0b39 162F0000 		.4byte	.LASF254
 2988 0b3d 4C0B0000 		.4byte	0xb4c
 2989 0b41 27       		.uleb128 0x27
 2990 0b42 802A0000 		.4byte	.LASF1195
 2991 0b46 42000000 		.4byte	0x42
 2992 0b4a 10       		.byte	0x10
 2993 0b4b 00       		.byte	0
 2994 0b4c 28       		.uleb128 0x28
 2995 0b4d 5C0B0000 		.4byte	0xb5c
 2996 0b51 5C0B0000 		.4byte	0xb5c
 2997 0b55 29       		.uleb128 0x29
ARM GAS  C:\Users\jrdia\AppData\Local\Temp\ccYHzYw6.s 			page 78


 2998 0b56 C5000000 		.4byte	0xc5
 2999 0b5a 0F       		.byte	0xf
 3000 0b5b 00       		.byte	0
 3001 0b5c 06       		.uleb128 0x6
 3002 0b5d 04       		.byte	0x4
 3003 0b5e 620B0000 		.4byte	0xb62
 3004 0b62 2A       		.uleb128 0x2a
 3005 0b63 77010000 		.4byte	.LASF161
 3006 0b67 04       		.byte	0x4
 3007 0b68 09       		.byte	0x9
 3008 0b69 7B       		.byte	0x7b
 3009 0b6a 620B0000 		.4byte	0xb62
 3010 0b6e 400D0000 		.4byte	0xd40
 3011 0b72 2B       		.uleb128 0x2b
 3012 0b73 3B400000 		.4byte	.LASF160
 3013 0b77 42140000 		.4byte	0x1442
 3014 0b7b 00       		.byte	0
 3015 0b7c 01       		.byte	0x1
 3016 0b7d 2C       		.uleb128 0x2c
 3017 0b7e 77010000 		.4byte	.LASF161
 3018 0b82 58630000 		.4byte	.LASF162
 3019 0b86 5C0B0000 		.4byte	0xb5c
 3020 0b8a 01       		.byte	0x1
 3021 0b8b 930B0000 		.4byte	0xb93
 3022 0b8f 9E0B0000 		.4byte	0xb9e
 3023 0b93 1B       		.uleb128 0x1b
 3024 0b94 5C0B0000 		.4byte	0xb5c
 3025 0b98 14       		.uleb128 0x14
 3026 0b99 FD170000 		.4byte	0x17fd
 3027 0b9d 00       		.byte	0
 3028 0b9e 2C       		.uleb128 0x2c
 3029 0b9f 77010000 		.4byte	.LASF161
 3030 0ba3 32370000 		.4byte	.LASF163
 3031 0ba7 5C0B0000 		.4byte	0xb5c
 3032 0bab 01       		.byte	0x1
 3033 0bac B40B0000 		.4byte	0xbb4
 3034 0bb0 BA0B0000 		.4byte	0xbba
 3035 0bb4 1B       		.uleb128 0x1b
 3036 0bb5 5C0B0000 		.4byte	0xb5c
 3037 0bb9 00       		.byte	0
 3038 0bba 2D       		.uleb128 0x2d
 3039 0bbb 20560000 		.4byte	.LASF79
 3040 0bbf 09       		.byte	0x9
 3041 0bc0 7E       		.byte	0x7e
 3042 0bc1 E3490000 		.4byte	.LASF165
 3043 0bc5 A2000000 		.4byte	0xa2
 3044 0bc9 01       		.byte	0x1
 3045 0bca 02       		.uleb128 0x2
 3046 0bcb 10       		.byte	0x10
 3047 0bcc 00       		.uleb128 0
 3048 0bcd 620B0000 		.4byte	0xb62
 3049 0bd1 01       		.byte	0x1
 3050 0bd2 DA0B0000 		.4byte	0xbda
 3051 0bd6 EF0B0000 		.4byte	0xbef
 3052 0bda 1B       		.uleb128 0x1b
 3053 0bdb 5C0B0000 		.4byte	0xb5c
 3054 0bdf 14       		.uleb128 0x14
ARM GAS  C:\Users\jrdia\AppData\Local\Temp\ccYHzYw6.s 			page 79


 3055 0be0 A2000000 		.4byte	0xa2
 3056 0be4 14       		.uleb128 0x14
 3057 0be5 A2000000 		.4byte	0xa2
 3058 0be9 14       		.uleb128 0x14
 3059 0bea FA000000 		.4byte	0xfa
 3060 0bee 00       		.byte	0
 3061 0bef 2D       		.uleb128 0x2d
 3062 0bf0 CB450000 		.4byte	.LASF164
 3063 0bf4 09       		.byte	0x9
 3064 0bf5 82       		.byte	0x82
 3065 0bf6 AA430000 		.4byte	.LASF166
 3066 0bfa A2000000 		.4byte	0xa2
 3067 0bfe 01       		.byte	0x1
 3068 0bff 02       		.uleb128 0x2
 3069 0c00 10       		.byte	0x10
 3070 0c01 01       		.uleb128 0x1
 3071 0c02 620B0000 		.4byte	0xb62
 3072 0c06 01       		.byte	0x1
 3073 0c07 0F0C0000 		.4byte	0xc0f
 3074 0c0b 240C0000 		.4byte	0xc24
 3075 0c0f 1B       		.uleb128 0x1b
 3076 0c10 5C0B0000 		.4byte	0xb5c
 3077 0c14 14       		.uleb128 0x14
 3078 0c15 A2000000 		.4byte	0xa2
 3079 0c19 14       		.uleb128 0x14
 3080 0c1a A2000000 		.4byte	0xa2
 3081 0c1e 14       		.uleb128 0x14
 3082 0c1f FA000000 		.4byte	0xfa
 3083 0c23 00       		.byte	0
 3084 0c24 2D       		.uleb128 0x2d
 3085 0c25 15080000 		.4byte	.LASF167
 3086 0c29 09       		.byte	0x9
 3087 0c2a 86       		.byte	0x86
 3088 0c2b 40250000 		.4byte	.LASF168
 3089 0c2f A2000000 		.4byte	0xa2
 3090 0c33 01       		.byte	0x1
 3091 0c34 02       		.uleb128 0x2
 3092 0c35 10       		.byte	0x10
 3093 0c36 02       		.uleb128 0x2
 3094 0c37 620B0000 		.4byte	0xb62
 3095 0c3b 01       		.byte	0x1
 3096 0c3c 440C0000 		.4byte	0xc44
 3097 0c40 4A0C0000 		.4byte	0xc4a
 3098 0c44 1B       		.uleb128 0x1b
 3099 0c45 5C0B0000 		.4byte	0xb5c
 3100 0c49 00       		.byte	0
 3101 0c4a 2D       		.uleb128 0x2d
 3102 0c4b B2260000 		.4byte	.LASF169
 3103 0c4f 09       		.byte	0x9
 3104 0c50 8A       		.byte	0x8a
 3105 0c51 AC380000 		.4byte	.LASF170
 3106 0c55 A2000000 		.4byte	0xa2
 3107 0c59 01       		.byte	0x1
 3108 0c5a 02       		.uleb128 0x2
 3109 0c5b 10       		.byte	0x10
 3110 0c5c 03       		.uleb128 0x3
 3111 0c5d 620B0000 		.4byte	0xb62
ARM GAS  C:\Users\jrdia\AppData\Local\Temp\ccYHzYw6.s 			page 80


 3112 0c61 01       		.byte	0x1
 3113 0c62 6A0C0000 		.4byte	0xc6a
 3114 0c66 700C0000 		.4byte	0xc70
 3115 0c6a 1B       		.uleb128 0x1b
 3116 0c6b 5C0B0000 		.4byte	0xb5c
 3117 0c6f 00       		.byte	0
 3118 0c70 2D       		.uleb128 0x2d
 3119 0c71 19610000 		.4byte	.LASF171
 3120 0c75 09       		.byte	0x9
 3121 0c76 8E       		.byte	0x8e
 3122 0c77 F1390000 		.4byte	.LASF172
 3123 0c7b A2000000 		.4byte	0xa2
 3124 0c7f 01       		.byte	0x1
 3125 0c80 02       		.uleb128 0x2
 3126 0c81 10       		.byte	0x10
 3127 0c82 04       		.uleb128 0x4
 3128 0c83 620B0000 		.4byte	0xb62
 3129 0c87 01       		.byte	0x1
 3130 0c88 900C0000 		.4byte	0xc90
 3131 0c8c 960C0000 		.4byte	0xc96
 3132 0c90 1B       		.uleb128 0x1b
 3133 0c91 5C0B0000 		.4byte	0xb5c
 3134 0c95 00       		.byte	0
 3135 0c96 2E       		.uleb128 0x2e
 3136 0c97 725D0000 		.4byte	.LASF177
 3137 0c9b 09       		.byte	0x9
 3138 0c9c 92       		.byte	0x92
 3139 0c9d D50F0000 		.4byte	.LASF179
 3140 0ca1 01       		.byte	0x1
 3141 0ca2 02       		.uleb128 0x2
 3142 0ca3 10       		.byte	0x10
 3143 0ca4 05       		.uleb128 0x5
 3144 0ca5 620B0000 		.4byte	0xb62
 3145 0ca9 01       		.byte	0x1
 3146 0caa B20C0000 		.4byte	0xcb2
 3147 0cae BD0C0000 		.4byte	0xcbd
 3148 0cb2 1B       		.uleb128 0x1b
 3149 0cb3 5C0B0000 		.4byte	0xb5c
 3150 0cb7 14       		.uleb128 0x14
 3151 0cb8 A2000000 		.4byte	0xa2
 3152 0cbc 00       		.byte	0
 3153 0cbd 2D       		.uleb128 0x2d
 3154 0cbe D0180000 		.4byte	.LASF173
 3155 0cc2 09       		.byte	0x9
 3156 0cc3 96       		.byte	0x96
 3157 0cc4 222C0000 		.4byte	.LASF174
 3158 0cc8 FA000000 		.4byte	0xfa
 3159 0ccc 01       		.byte	0x1
 3160 0ccd 02       		.uleb128 0x2
 3161 0cce 10       		.byte	0x10
 3162 0ccf 06       		.uleb128 0x6
 3163 0cd0 620B0000 		.4byte	0xb62
 3164 0cd4 01       		.byte	0x1
 3165 0cd5 DD0C0000 		.4byte	0xcdd
 3166 0cd9 ED0C0000 		.4byte	0xced
 3167 0cdd 1B       		.uleb128 0x1b
 3168 0cde 5C0B0000 		.4byte	0xb5c
ARM GAS  C:\Users\jrdia\AppData\Local\Temp\ccYHzYw6.s 			page 81


 3169 0ce2 14       		.uleb128 0x14
 3170 0ce3 AD000000 		.4byte	0xad
 3171 0ce7 14       		.uleb128 0x14
 3172 0ce8 AD000000 		.4byte	0xad
 3173 0cec 00       		.byte	0
 3174 0ced 2D       		.uleb128 0x2d
 3175 0cee 41270000 		.4byte	.LASF175
 3176 0cf2 09       		.byte	0x9
 3177 0cf3 9A       		.byte	0x9a
 3178 0cf4 72440000 		.4byte	.LASF176
 3179 0cf8 FA000000 		.4byte	0xfa
 3180 0cfc 01       		.byte	0x1
 3181 0cfd 02       		.uleb128 0x2
 3182 0cfe 10       		.byte	0x10
 3183 0cff 07       		.uleb128 0x7
 3184 0d00 620B0000 		.4byte	0xb62
 3185 0d04 01       		.byte	0x1
 3186 0d05 0D0D0000 		.4byte	0xd0d
 3187 0d09 180D0000 		.4byte	0xd18
 3188 0d0d 1B       		.uleb128 0x1b
 3189 0d0e 5C0B0000 		.4byte	0xb5c
 3190 0d12 14       		.uleb128 0x14
 3191 0d13 A2000000 		.4byte	0xa2
 3192 0d17 00       		.byte	0
 3193 0d18 2F       		.uleb128 0x2f
 3194 0d19 BF580000 		.4byte	.LASF178
 3195 0d1d 09       		.byte	0x9
 3196 0d1e 9E       		.byte	0x9e
 3197 0d1f E2290000 		.4byte	.LASF180
 3198 0d23 FA000000 		.4byte	0xfa
 3199 0d27 01       		.byte	0x1
 3200 0d28 02       		.uleb128 0x2
 3201 0d29 10       		.byte	0x10
 3202 0d2a 08       		.uleb128 0x8
 3203 0d2b 620B0000 		.4byte	0xb62
 3204 0d2f 01       		.byte	0x1
 3205 0d30 340D0000 		.4byte	0xd34
 3206 0d34 1B       		.uleb128 0x1b
 3207 0d35 5C0B0000 		.4byte	0xb5c
 3208 0d39 14       		.uleb128 0x14
 3209 0d3a A2000000 		.4byte	0xa2
 3210 0d3e 00       		.byte	0
 3211 0d3f 00       		.byte	0
 3212 0d40 06       		.uleb128 0x6
 3213 0d41 04       		.byte	0x4
 3214 0d42 BE050000 		.4byte	0x5be
 3215 0d46 15       		.uleb128 0x15
 3216 0d47 AC170000 		.4byte	.LASF181
 3217 0d4b 30       		.uleb128 0x30
 3218 0d4c 04       		.byte	0x4
 3219 0d4d 460D0000 		.4byte	0xd46
 3220 0d51 06       		.uleb128 0x6
 3221 0d52 04       		.byte	0x4
 3222 0d53 570D0000 		.4byte	0xd57
 3223 0d57 15       		.uleb128 0x15
 3224 0d58 DF2D0000 		.4byte	.LASF182
 3225 0d5c 06       		.uleb128 0x6
ARM GAS  C:\Users\jrdia\AppData\Local\Temp\ccYHzYw6.s 			page 82


 3226 0d5d 04       		.byte	0x4
 3227 0d5e AD000000 		.4byte	0xad
 3228 0d62 06       		.uleb128 0x6
 3229 0d63 04       		.byte	0x4
 3230 0d64 4C020000 		.4byte	0x24c
 3231 0d68 08       		.uleb128 0x8
 3232 0d69 A2000000 		.4byte	0xa2
 3233 0d6d 28       		.uleb128 0x28
 3234 0d6e A2000000 		.4byte	0xa2
 3235 0d72 7D0D0000 		.4byte	0xd7d
 3236 0d76 29       		.uleb128 0x29
 3237 0d77 C5000000 		.4byte	0xc5
 3238 0d7b 02       		.byte	0x2
 3239 0d7c 00       		.byte	0
 3240 0d7d 0B       		.uleb128 0xb
 3241 0d7e 444E0000 		.4byte	.LASF183
 3242 0d82 01       		.byte	0x1
 3243 0d83 0A       		.byte	0xa
 3244 0d84 70       		.byte	0x70
 3245 0d85 E40D0000 		.4byte	0xde4
 3246 0d89 0E       		.uleb128 0xe
 3247 0d8a E55F0000 		.4byte	.LASF184
 3248 0d8e 0A       		.byte	0xa
 3249 0d8f 71       		.byte	0x71
 3250 0d90 A2000000 		.4byte	0xa2
 3251 0d94 01       		.byte	0x1
 3252 0d95 01       		.byte	0x1
 3253 0d96 07       		.byte	0x7
 3254 0d97 00       		.byte	0
 3255 0d98 0E       		.uleb128 0xe
 3256 0d99 F53C0000 		.4byte	.LASF185
 3257 0d9d 0A       		.byte	0xa
 3258 0d9e 72       		.byte	0x72
 3259 0d9f A2000000 		.4byte	0xa2
 3260 0da3 01       		.byte	0x1
 3261 0da4 01       		.byte	0x1
 3262 0da5 06       		.byte	0x6
 3263 0da6 00       		.byte	0
 3264 0da7 0E       		.uleb128 0xe
 3265 0da8 60580000 		.4byte	.LASF186
 3266 0dac 0A       		.byte	0xa
 3267 0dad 73       		.byte	0x73
 3268 0dae A2000000 		.4byte	0xa2
 3269 0db2 01       		.byte	0x1
 3270 0db3 01       		.byte	0x1
 3271 0db4 05       		.byte	0x5
 3272 0db5 00       		.byte	0
 3273 0db6 0E       		.uleb128 0xe
 3274 0db7 942D0000 		.4byte	.LASF187
 3275 0dbb 0A       		.byte	0xa
 3276 0dbc 74       		.byte	0x74
 3277 0dbd A2000000 		.4byte	0xa2
 3278 0dc1 01       		.byte	0x1
 3279 0dc2 01       		.byte	0x1
 3280 0dc3 04       		.byte	0x4
 3281 0dc4 00       		.byte	0
 3282 0dc5 0E       		.uleb128 0xe
ARM GAS  C:\Users\jrdia\AppData\Local\Temp\ccYHzYw6.s 			page 83


 3283 0dc6 E3550000 		.4byte	.LASF188
 3284 0dca 0A       		.byte	0xa
 3285 0dcb 75       		.byte	0x75
 3286 0dcc A2000000 		.4byte	0xa2
 3287 0dd0 01       		.byte	0x1
 3288 0dd1 01       		.byte	0x1
 3289 0dd2 03       		.byte	0x3
 3290 0dd3 00       		.byte	0
 3291 0dd4 0E       		.uleb128 0xe
 3292 0dd5 33480000 		.4byte	.LASF36
 3293 0dd9 0A       		.byte	0xa
 3294 0dda 76       		.byte	0x76
 3295 0ddb A2000000 		.4byte	0xa2
 3296 0ddf 01       		.byte	0x1
 3297 0de0 03       		.byte	0x3
 3298 0de1 00       		.byte	0
 3299 0de2 00       		.byte	0
 3300 0de3 00       		.byte	0
 3301 0de4 2A       		.uleb128 0x2a
 3302 0de5 B8170000 		.4byte	.LASF189
 3303 0de9 2C       		.byte	0x2c
 3304 0dea 01       		.byte	0x1
 3305 0deb 1D       		.byte	0x1d
 3306 0dec CB100000 		.4byte	0x10cb
 3307 0df0 CB100000 		.4byte	0x10cb
 3308 0df4 21       		.uleb128 0x21
 3309 0df5 CB100000 		.4byte	0x10cb
 3310 0df9 00       		.byte	0
 3311 0dfa 01       		.byte	0x1
 3312 0dfb 31       		.uleb128 0x31
 3313 0dfc 04030000 		.4byte	.LASF191
 3314 0e00 01       		.byte	0x1
 3315 0e01 58       		.byte	0x58
 3316 0e02 FA000000 		.4byte	0xfa
 3317 0e06 15       		.byte	0x15
 3318 0e07 01       		.byte	0x1
 3319 0e08 31       		.uleb128 0x31
 3320 0e09 431A0000 		.4byte	.LASF192
 3321 0e0d 01       		.byte	0x1
 3322 0e0e 8B       		.byte	0x8b
 3323 0e0f 8D120000 		.4byte	0x128d
 3324 0e13 16       		.byte	0x16
 3325 0e14 02       		.byte	0x2
 3326 0e15 31       		.uleb128 0x31
 3327 0e16 D8520000 		.4byte	.LASF193
 3328 0e1a 01       		.byte	0x1
 3329 0e1b 8E       		.byte	0x8e
 3330 0e1c 8D120000 		.4byte	0x128d
 3331 0e20 18       		.byte	0x18
 3332 0e21 02       		.byte	0x2
 3333 0e22 11       		.uleb128 0x11
 3334 0e23 FA310000 		.4byte	.LASF194
 3335 0e27 01       		.byte	0x1
 3336 0e28 91       		.byte	0x91
 3337 0e29 9D120000 		.4byte	0x129d
 3338 0e2d 1C       		.byte	0x1c
 3339 0e2e 11       		.uleb128 0x11
ARM GAS  C:\Users\jrdia\AppData\Local\Temp\ccYHzYw6.s 			page 84


 3340 0e2f 2E0B0000 		.4byte	.LASF195
 3341 0e33 01       		.byte	0x1
 3342 0e34 95       		.byte	0x95
 3343 0e35 A2000000 		.4byte	0xa2
 3344 0e39 24       		.byte	0x24
 3345 0e3a 11       		.uleb128 0x11
 3346 0e3b AE1B0000 		.4byte	.LASF196
 3347 0e3f 01       		.byte	0x1
 3348 0e40 99       		.byte	0x99
 3349 0e41 FA000000 		.4byte	0xfa
 3350 0e45 25       		.byte	0x25
 3351 0e46 11       		.uleb128 0x11
 3352 0e47 3E010000 		.4byte	.LASF197
 3353 0e4b 01       		.byte	0x1
 3354 0e4c 9C       		.byte	0x9c
 3355 0e4d 8D120000 		.4byte	0x128d
 3356 0e51 26       		.byte	0x26
 3357 0e52 11       		.uleb128 0x11
 3358 0e53 EA3B0000 		.4byte	.LASF198
 3359 0e57 01       		.byte	0x1
 3360 0e58 9D       		.byte	0x9d
 3361 0e59 8D120000 		.4byte	0x128d
 3362 0e5d 28       		.byte	0x28
 3363 0e5e 11       		.uleb128 0x11
 3364 0e5f 075C0000 		.4byte	.LASF199
 3365 0e63 01       		.byte	0x1
 3366 0e64 9E       		.byte	0x9e
 3367 0e65 A2000000 		.4byte	0xa2
 3368 0e69 2A       		.byte	0x2a
 3369 0e6a 2C       		.uleb128 0x2c
 3370 0e6b B8170000 		.4byte	.LASF189
 3371 0e6f AA340000 		.4byte	.LASF200
 3372 0e73 3E130000 		.4byte	0x133e
 3373 0e77 01       		.byte	0x1
 3374 0e78 800E0000 		.4byte	0xe80
 3375 0e7c 8B0E0000 		.4byte	0xe8b
 3376 0e80 1B       		.uleb128 0x1b
 3377 0e81 3E130000 		.4byte	0x133e
 3378 0e85 14       		.uleb128 0x14
 3379 0e86 44130000 		.4byte	0x1344
 3380 0e8a 00       		.byte	0
 3381 0e8b 1A       		.uleb128 0x1a
 3382 0e8c B8170000 		.4byte	.LASF189
 3383 0e90 02       		.byte	0x2
 3384 0e91 17       		.byte	0x17
 3385 0e92 C5590000 		.4byte	.LASF201
 3386 0e96 3E130000 		.4byte	0x133e
 3387 0e9a 01       		.byte	0x1
 3388 0e9b A30E0000 		.4byte	0xea3
 3389 0e9f B80E0000 		.4byte	0xeb8
 3390 0ea3 1B       		.uleb128 0x1b
 3391 0ea4 3E130000 		.4byte	0x133e
 3392 0ea8 14       		.uleb128 0x14
 3393 0ea9 4F130000 		.4byte	0x134f
 3394 0ead 14       		.uleb128 0x14
 3395 0eae FA000000 		.4byte	0xfa
 3396 0eb2 14       		.uleb128 0x14
ARM GAS  C:\Users\jrdia\AppData\Local\Temp\ccYHzYw6.s 			page 85


 3397 0eb3 DA000000 		.4byte	0xda
 3398 0eb7 00       		.byte	0
 3399 0eb8 2E       		.uleb128 0x2e
 3400 0eb9 6C3F0000 		.4byte	.LASF202
 3401 0ebd 02       		.byte	0x2
 3402 0ebe 31       		.byte	0x31
 3403 0ebf 67370000 		.4byte	.LASF203
 3404 0ec3 01       		.byte	0x1
 3405 0ec4 02       		.uleb128 0x2
 3406 0ec5 10       		.byte	0x10
 3407 0ec6 03       		.uleb128 0x3
 3408 0ec7 E40D0000 		.4byte	0xde4
 3409 0ecb 01       		.byte	0x1
 3410 0ecc D40E0000 		.4byte	0xed4
 3411 0ed0 DA0E0000 		.4byte	0xeda
 3412 0ed4 1B       		.uleb128 0x1b
 3413 0ed5 3E130000 		.4byte	0x133e
 3414 0ed9 00       		.byte	0
 3415 0eda 1A       		.uleb128 0x1a
 3416 0edb A2150000 		.4byte	.LASF204
 3417 0edf 01       		.byte	0x1
 3418 0ee0 31       		.byte	0x31
 3419 0ee1 8D570000 		.4byte	.LASF205
 3420 0ee5 AD120000 		.4byte	0x12ad
 3421 0ee9 01       		.byte	0x1
 3422 0eea F20E0000 		.4byte	0xef2
 3423 0eee FD0E0000 		.4byte	0xefd
 3424 0ef2 1B       		.uleb128 0x1b
 3425 0ef3 3E130000 		.4byte	0x133e
 3426 0ef7 14       		.uleb128 0x14
 3427 0ef8 A2000000 		.4byte	0xa2
 3428 0efc 00       		.byte	0
 3429 0efd 1A       		.uleb128 0x1a
 3430 0efe A2290000 		.4byte	.LASF206
 3431 0f02 01       		.byte	0x1
 3432 0f03 3D       		.byte	0x3d
 3433 0f04 D8230000 		.4byte	.LASF207
 3434 0f08 FA000000 		.4byte	0xfa
 3435 0f0c 01       		.byte	0x1
 3436 0f0d 150F0000 		.4byte	0xf15
 3437 0f11 250F0000 		.4byte	0xf25
 3438 0f15 1B       		.uleb128 0x1b
 3439 0f16 3E130000 		.4byte	0x133e
 3440 0f1a 14       		.uleb128 0x14
 3441 0f1b A2000000 		.4byte	0xa2
 3442 0f1f 14       		.uleb128 0x14
 3443 0f20 AD120000 		.4byte	0x12ad
 3444 0f24 00       		.byte	0
 3445 0f25 1C       		.uleb128 0x1c
 3446 0f26 AF3B0000 		.4byte	.LASF208
 3447 0f2a 01       		.byte	0x1
 3448 0f2b 48       		.byte	0x48
 3449 0f2c 8E420000 		.4byte	.LASF209
 3450 0f30 01       		.byte	0x1
 3451 0f31 390F0000 		.4byte	0xf39
 3452 0f35 440F0000 		.4byte	0xf44
 3453 0f39 1B       		.uleb128 0x1b
ARM GAS  C:\Users\jrdia\AppData\Local\Temp\ccYHzYw6.s 			page 86


 3454 0f3a 3E130000 		.4byte	0x133e
 3455 0f3e 14       		.uleb128 0x14
 3456 0f3f A2000000 		.4byte	0xa2
 3457 0f43 00       		.byte	0
 3458 0f44 1C       		.uleb128 0x1c
 3459 0f45 E33A0000 		.4byte	.LASF210
 3460 0f49 01       		.byte	0x1
 3461 0f4a 51       		.byte	0x51
 3462 0f4b F64C0000 		.4byte	.LASF211
 3463 0f4f 01       		.byte	0x1
 3464 0f50 580F0000 		.4byte	0xf58
 3465 0f54 630F0000 		.4byte	0xf63
 3466 0f58 1B       		.uleb128 0x1b
 3467 0f59 3E130000 		.4byte	0x133e
 3468 0f5d 14       		.uleb128 0x14
 3469 0f5e 7D0D0000 		.4byte	0xd7d
 3470 0f62 00       		.byte	0
 3471 0f63 1D       		.uleb128 0x1d
 3472 0f64 E33A0000 		.4byte	.LASF210
 3473 0f68 02       		.byte	0x2
 3474 0f69 8901     		.2byte	0x189
 3475 0f6b 8B390000 		.4byte	.LASF212
 3476 0f6f 01       		.byte	0x1
 3477 0f70 780F0000 		.4byte	0xf78
 3478 0f74 830F0000 		.4byte	0xf83
 3479 0f78 1B       		.uleb128 0x1b
 3480 0f79 3E130000 		.4byte	0x133e
 3481 0f7d 14       		.uleb128 0x14
 3482 0f7e A2000000 		.4byte	0xa2
 3483 0f82 00       		.byte	0
 3484 0f83 1C       		.uleb128 0x1c
 3485 0f84 06290000 		.4byte	.LASF213
 3486 0f88 01       		.byte	0x1
 3487 0f89 5B       		.byte	0x5b
 3488 0f8a 104C0000 		.4byte	.LASF214
 3489 0f8e 01       		.byte	0x1
 3490 0f8f 970F0000 		.4byte	0xf97
 3491 0f93 9D0F0000 		.4byte	0xf9d
 3492 0f97 1B       		.uleb128 0x1b
 3493 0f98 3E130000 		.4byte	0x133e
 3494 0f9c 00       		.byte	0
 3495 0f9d 2E       		.uleb128 0x2e
 3496 0f9e 604E0000 		.4byte	.LASF215
 3497 0fa2 02       		.byte	0x2
 3498 0fa3 38       		.byte	0x38
 3499 0fa4 3A000000 		.4byte	.LASF216
 3500 0fa8 01       		.byte	0x1
 3501 0fa9 02       		.uleb128 0x2
 3502 0faa 10       		.byte	0x10
 3503 0fab 00       		.uleb128 0
 3504 0fac E40D0000 		.4byte	0xde4
 3505 0fb0 02       		.byte	0x2
 3506 0fb1 B90F0000 		.4byte	0xfb9
 3507 0fb5 C40F0000 		.4byte	0xfc4
 3508 0fb9 1B       		.uleb128 0x1b
 3509 0fba 3E130000 		.4byte	0x133e
 3510 0fbe 14       		.uleb128 0x14
ARM GAS  C:\Users\jrdia\AppData\Local\Temp\ccYHzYw6.s 			page 87


 3511 0fbf B8050000 		.4byte	0x5b8
 3512 0fc3 00       		.byte	0
 3513 0fc4 32       		.uleb128 0x32
 3514 0fc5 52756E00 		.ascii	"Run\000"
 3515 0fc9 02       		.byte	0x2
 3516 0fca 5801     		.2byte	0x158
 3517 0fcc FF4E0000 		.4byte	.LASF240
 3518 0fd0 01       		.byte	0x1
 3519 0fd1 02       		.uleb128 0x2
 3520 0fd2 10       		.byte	0x10
 3521 0fd3 01       		.uleb128 0x1
 3522 0fd4 E40D0000 		.4byte	0xde4
 3523 0fd8 02       		.byte	0x2
 3524 0fd9 E10F0000 		.4byte	0xfe1
 3525 0fdd E70F0000 		.4byte	0xfe7
 3526 0fe1 1B       		.uleb128 0x1b
 3527 0fe2 3E130000 		.4byte	0x133e
 3528 0fe6 00       		.byte	0
 3529 0fe7 2E       		.uleb128 0x2e
 3530 0fe8 65060000 		.4byte	.LASF217
 3531 0fec 02       		.byte	0x2
 3532 0fed 29       		.byte	0x29
 3533 0fee 41320000 		.4byte	.LASF218
 3534 0ff2 01       		.byte	0x1
 3535 0ff3 02       		.uleb128 0x2
 3536 0ff4 10       		.byte	0x10
 3537 0ff5 02       		.uleb128 0x2
 3538 0ff6 E40D0000 		.4byte	0xde4
 3539 0ffa 02       		.byte	0x2
 3540 0ffb 03100000 		.4byte	0x1003
 3541 0fff 09100000 		.4byte	0x1009
 3542 1003 1B       		.uleb128 0x1b
 3543 1004 3E130000 		.4byte	0x133e
 3544 1008 00       		.byte	0
 3545 1009 2E       		.uleb128 0x2e
 3546 100a 555E0000 		.4byte	.LASF219
 3547 100e 01       		.byte	0x1
 3548 100f 70       		.byte	0x70
 3549 1010 8D5E0000 		.4byte	.LASF220
 3550 1014 01       		.byte	0x1
 3551 1015 02       		.uleb128 0x2
 3552 1016 10       		.byte	0x10
 3553 1017 04       		.uleb128 0x4
 3554 1018 E40D0000 		.4byte	0xde4
 3555 101c 02       		.byte	0x2
 3556 101d 25100000 		.4byte	0x1025
 3557 1021 2B100000 		.4byte	0x102b
 3558 1025 1B       		.uleb128 0x1b
 3559 1026 3E130000 		.4byte	0x133e
 3560 102a 00       		.byte	0
 3561 102b 2E       		.uleb128 0x2e
 3562 102c 11280000 		.4byte	.LASF221
 3563 1030 01       		.byte	0x1
 3564 1031 7D       		.byte	0x7d
 3565 1032 68020000 		.4byte	.LASF222
 3566 1036 01       		.byte	0x1
 3567 1037 02       		.uleb128 0x2
ARM GAS  C:\Users\jrdia\AppData\Local\Temp\ccYHzYw6.s 			page 88


 3568 1038 10       		.byte	0x10
 3569 1039 05       		.uleb128 0x5
 3570 103a E40D0000 		.4byte	0xde4
 3571 103e 02       		.byte	0x2
 3572 103f 47100000 		.4byte	0x1047
 3573 1043 57100000 		.4byte	0x1057
 3574 1047 1B       		.uleb128 0x1b
 3575 1048 3E130000 		.4byte	0x133e
 3576 104c 14       		.uleb128 0x14
 3577 104d A2000000 		.4byte	0xa2
 3578 1051 14       		.uleb128 0x14
 3579 1052 B8050000 		.4byte	0x5b8
 3580 1056 00       		.byte	0
 3581 1057 2E       		.uleb128 0x2e
 3582 1058 99260000 		.4byte	.LASF223
 3583 105c 01       		.byte	0x1
 3584 105d 81       		.byte	0x81
 3585 105e 62110000 		.4byte	.LASF224
 3586 1062 01       		.byte	0x1
 3587 1063 02       		.uleb128 0x2
 3588 1064 10       		.byte	0x10
 3589 1065 06       		.uleb128 0x6
 3590 1066 E40D0000 		.4byte	0xde4
 3591 106a 02       		.byte	0x2
 3592 106b 73100000 		.4byte	0x1073
 3593 106f 79100000 		.4byte	0x1079
 3594 1073 1B       		.uleb128 0x1b
 3595 1074 3E130000 		.4byte	0x133e
 3596 1078 00       		.byte	0
 3597 1079 2E       		.uleb128 0x2e
 3598 107a 26260000 		.4byte	.LASF225
 3599 107e 01       		.byte	0x1
 3600 107f 85       		.byte	0x85
 3601 1080 41130000 		.4byte	.LASF226
 3602 1084 01       		.byte	0x1
 3603 1085 02       		.uleb128 0x2
 3604 1086 10       		.byte	0x10
 3605 1087 07       		.uleb128 0x7
 3606 1088 E40D0000 		.4byte	0xde4
 3607 108c 02       		.byte	0x2
 3608 108d 95100000 		.4byte	0x1095
 3609 1091 9B100000 		.4byte	0x109b
 3610 1095 1B       		.uleb128 0x1b
 3611 1096 3E130000 		.4byte	0x133e
 3612 109a 00       		.byte	0
 3613 109b 23       		.uleb128 0x23
 3614 109c E4330000 		.4byte	.LASF227
 3615 10a0 02       		.byte	0x2
 3616 10a1 7A01     		.2byte	0x17a
 3617 10a3 CB5A0000 		.4byte	.LASF228
 3618 10a7 AF100000 		.4byte	0x10af
 3619 10ab B5100000 		.4byte	0x10b5
 3620 10af 1B       		.uleb128 0x1b
 3621 10b0 3E130000 		.4byte	0x133e
 3622 10b4 00       		.byte	0
 3623 10b5 33       		.uleb128 0x33
 3624 10b6 08460000 		.4byte	.LASF1196
ARM GAS  C:\Users\jrdia\AppData\Local\Temp\ccYHzYw6.s 			page 89


 3625 10ba 02       		.byte	0x2
 3626 10bb EE       		.byte	0xee
 3627 10bc B6100000 		.4byte	.LASF1197
 3628 10c0 C4100000 		.4byte	0x10c4
 3629 10c4 1B       		.uleb128 0x1b
 3630 10c5 3E130000 		.4byte	0x133e
 3631 10c9 00       		.byte	0
 3632 10ca 00       		.byte	0
 3633 10cb 34       		.uleb128 0x34
 3634 10cc 772B0000 		.4byte	.LASF229
 3635 10d0 18       		.byte	0x18
 3636 10d1 03       		.byte	0x3
 3637 10d2 3602     		.2byte	0x236
 3638 10d4 CB100000 		.4byte	0x10cb
 3639 10d8 8D120000 		.4byte	0x128d
 3640 10dc 2B       		.uleb128 0x2b
 3641 10dd A3510000 		.4byte	.LASF230
 3642 10e1 42140000 		.4byte	0x1442
 3643 10e5 00       		.byte	0
 3644 10e6 01       		.byte	0x1
 3645 10e7 35       		.uleb128 0x35
 3646 10e8 DB450000 		.4byte	.LASF231
 3647 10ec 03       		.byte	0x3
 3648 10ed 5E02     		.2byte	0x25e
 3649 10ef CC000000 		.4byte	0xcc
 3650 10f3 04       		.byte	0x4
 3651 10f4 02       		.byte	0x2
 3652 10f5 35       		.uleb128 0x35
 3653 10f6 863B0000 		.4byte	.LASF232
 3654 10fa 03       		.byte	0x3
 3655 10fb 6102     		.2byte	0x261
 3656 10fd 4F130000 		.4byte	0x134f
 3657 1101 08       		.byte	0x8
 3658 1102 02       		.byte	0x2
 3659 1103 35       		.uleb128 0x35
 3660 1104 F32F0000 		.4byte	.LASF233
 3661 1108 03       		.byte	0x3
 3662 1109 6402     		.2byte	0x264
 3663 110b AD000000 		.4byte	0xad
 3664 110f 0C       		.byte	0xc
 3665 1110 02       		.byte	0x2
 3666 1111 35       		.uleb128 0x35
 3667 1112 2C110000 		.4byte	.LASF234
 3668 1116 03       		.byte	0x3
 3669 1117 6702     		.2byte	0x267
 3670 1119 B8000000 		.4byte	0xb8
 3671 111d 10       		.byte	0x10
 3672 111e 02       		.byte	0x2
 3673 111f 35       		.uleb128 0x35
 3674 1120 90250000 		.4byte	.LASF235
 3675 1124 03       		.byte	0x3
 3676 1125 6A02     		.2byte	0x26a
 3677 1127 A2000000 		.4byte	0xa2
 3678 112b 14       		.byte	0x14
 3679 112c 02       		.byte	0x2
 3680 112d 2C       		.uleb128 0x2c
 3681 112e 74280000 		.4byte	.LASF236
ARM GAS  C:\Users\jrdia\AppData\Local\Temp\ccYHzYw6.s 			page 90


 3682 1132 5F550000 		.4byte	.LASF237
 3683 1136 C3000000 		.4byte	0xc3
 3684 113a 01       		.byte	0x1
 3685 113b 43110000 		.4byte	0x1143
 3686 113f 4E110000 		.4byte	0x114e
 3687 1143 1B       		.uleb128 0x1b
 3688 1144 52140000 		.4byte	0x1452
 3689 1148 1B       		.uleb128 0x1b
 3690 1149 89000000 		.4byte	0x89
 3691 114d 00       		.byte	0
 3692 114e 2C       		.uleb128 0x2c
 3693 114f 772B0000 		.4byte	.LASF229
 3694 1153 A0030000 		.4byte	.LASF238
 3695 1157 52140000 		.4byte	0x1452
 3696 115b 01       		.byte	0x1
 3697 115c 64110000 		.4byte	0x1164
 3698 1160 6F110000 		.4byte	0x116f
 3699 1164 1B       		.uleb128 0x1b
 3700 1165 52140000 		.4byte	0x1452
 3701 1169 14       		.uleb128 0x14
 3702 116a 58140000 		.4byte	0x1458
 3703 116e 00       		.byte	0
 3704 116f 1E       		.uleb128 0x1e
 3705 1170 772B0000 		.4byte	.LASF229
 3706 1174 03       		.byte	0x3
 3707 1175 3802     		.2byte	0x238
 3708 1177 07530000 		.4byte	.LASF239
 3709 117b 52140000 		.4byte	0x1452
 3710 117f 01       		.byte	0x1
 3711 1180 88110000 		.4byte	0x1188
 3712 1184 93110000 		.4byte	0x1193
 3713 1188 1B       		.uleb128 0x1b
 3714 1189 52140000 		.4byte	0x1452
 3715 118d 14       		.uleb128 0x14
 3716 118e 4F130000 		.4byte	0x134f
 3717 1192 00       		.byte	0
 3718 1193 36       		.uleb128 0x36
 3719 1194 604E0000 		.4byte	.LASF215
 3720 1198 03       		.byte	0x3
 3721 1199 4002     		.2byte	0x240
 3722 119b F93B0000 		.4byte	.LASF242
 3723 119f 01       		.byte	0x1
 3724 11a0 02       		.uleb128 0x2
 3725 11a1 10       		.byte	0x10
 3726 11a2 00       		.uleb128 0
 3727 11a3 CB100000 		.4byte	0x10cb
 3728 11a7 01       		.byte	0x1
 3729 11a8 B0110000 		.4byte	0x11b0
 3730 11ac BB110000 		.4byte	0x11bb
 3731 11b0 1B       		.uleb128 0x1b
 3732 11b1 52140000 		.4byte	0x1452
 3733 11b5 14       		.uleb128 0x14
 3734 11b6 B8050000 		.4byte	0x5b8
 3735 11ba 00       		.byte	0
 3736 11bb 32       		.uleb128 0x32
 3737 11bc 52756E00 		.ascii	"Run\000"
 3738 11c0 03       		.byte	0x3
ARM GAS  C:\Users\jrdia\AppData\Local\Temp\ccYHzYw6.s 			page 91


 3739 11c1 4202     		.2byte	0x242
 3740 11c3 E0410000 		.4byte	.LASF241
 3741 11c7 01       		.byte	0x1
 3742 11c8 02       		.uleb128 0x2
 3743 11c9 10       		.byte	0x10
 3744 11ca 01       		.uleb128 0x1
 3745 11cb CB100000 		.4byte	0x10cb
 3746 11cf 01       		.byte	0x1
 3747 11d0 D8110000 		.4byte	0x11d8
 3748 11d4 DE110000 		.4byte	0x11de
 3749 11d8 1B       		.uleb128 0x1b
 3750 11d9 52140000 		.4byte	0x1452
 3751 11dd 00       		.byte	0
 3752 11de 36       		.uleb128 0x36
 3753 11df 65060000 		.4byte	.LASF217
 3754 11e3 03       		.byte	0x3
 3755 11e4 4402     		.2byte	0x244
 3756 11e6 6A5C0000 		.4byte	.LASF243
 3757 11ea 01       		.byte	0x1
 3758 11eb 02       		.uleb128 0x2
 3759 11ec 10       		.byte	0x10
 3760 11ed 02       		.uleb128 0x2
 3761 11ee CB100000 		.4byte	0x10cb
 3762 11f2 01       		.byte	0x1
 3763 11f3 FB110000 		.4byte	0x11fb
 3764 11f7 01120000 		.4byte	0x1201
 3765 11fb 1B       		.uleb128 0x1b
 3766 11fc 52140000 		.4byte	0x1452
 3767 1200 00       		.byte	0
 3768 1201 36       		.uleb128 0x36
 3769 1202 6C3F0000 		.4byte	.LASF202
 3770 1206 03       		.byte	0x3
 3771 1207 4602     		.2byte	0x246
 3772 1209 F25E0000 		.4byte	.LASF244
 3773 120d 01       		.byte	0x1
 3774 120e 02       		.uleb128 0x2
 3775 120f 10       		.byte	0x10
 3776 1210 03       		.uleb128 0x3
 3777 1211 CB100000 		.4byte	0x10cb
 3778 1215 01       		.byte	0x1
 3779 1216 1E120000 		.4byte	0x121e
 3780 121a 24120000 		.4byte	0x1224
 3781 121e 1B       		.uleb128 0x1b
 3782 121f 52140000 		.4byte	0x1452
 3783 1223 00       		.byte	0
 3784 1224 1D       		.uleb128 0x1d
 3785 1225 CE0A0000 		.4byte	.LASF245
 3786 1229 03       		.byte	0x3
 3787 122a 4C02     		.2byte	0x24c
 3788 122c B5130000 		.4byte	.LASF246
 3789 1230 01       		.byte	0x1
 3790 1231 39120000 		.4byte	0x1239
 3791 1235 44120000 		.4byte	0x1244
 3792 1239 1B       		.uleb128 0x1b
 3793 123a 52140000 		.4byte	0x1452
 3794 123e 14       		.uleb128 0x14
 3795 123f CC000000 		.4byte	0xcc
ARM GAS  C:\Users\jrdia\AppData\Local\Temp\ccYHzYw6.s 			page 92


 3796 1243 00       		.byte	0
 3797 1244 36       		.uleb128 0x36
 3798 1245 555E0000 		.4byte	.LASF219
 3799 1249 03       		.byte	0x3
 3800 124a 5602     		.2byte	0x256
 3801 124c 752D0000 		.4byte	.LASF247
 3802 1250 01       		.byte	0x1
 3803 1251 02       		.uleb128 0x2
 3804 1252 10       		.byte	0x10
 3805 1253 04       		.uleb128 0x4
 3806 1254 CB100000 		.4byte	0x10cb
 3807 1258 02       		.byte	0x2
 3808 1259 61120000 		.4byte	0x1261
 3809 125d 67120000 		.4byte	0x1267
 3810 1261 1B       		.uleb128 0x1b
 3811 1262 52140000 		.4byte	0x1452
 3812 1266 00       		.byte	0
 3813 1267 37       		.uleb128 0x37
 3814 1268 93290000 		.4byte	.LASF248
 3815 126c 03       		.byte	0x3
 3816 126d 5902     		.2byte	0x259
 3817 126f E8340000 		.4byte	.LASF249
 3818 1273 FA000000 		.4byte	0xfa
 3819 1277 02       		.byte	0x2
 3820 1278 7C120000 		.4byte	0x127c
 3821 127c 1B       		.uleb128 0x1b
 3822 127d 52140000 		.4byte	0x1452
 3823 1281 14       		.uleb128 0x14
 3824 1282 B8050000 		.4byte	0x5b8
 3825 1286 14       		.uleb128 0x14
 3826 1287 AD000000 		.4byte	0xad
 3827 128b 00       		.byte	0
 3828 128c 00       		.byte	0
 3829 128d 28       		.uleb128 0x28
 3830 128e A2000000 		.4byte	0xa2
 3831 1292 9D120000 		.4byte	0x129d
 3832 1296 29       		.uleb128 0x29
 3833 1297 C5000000 		.4byte	0xc5
 3834 129b 01       		.byte	0x1
 3835 129c 00       		.byte	0
 3836 129d 28       		.uleb128 0x28
 3837 129e AD120000 		.4byte	0x12ad
 3838 12a2 AD120000 		.4byte	0x12ad
 3839 12a6 29       		.uleb128 0x29
 3840 12a7 C5000000 		.4byte	0xc5
 3841 12ab 01       		.byte	0x1
 3842 12ac 00       		.byte	0
 3843 12ad 06       		.uleb128 0x6
 3844 12ae 04       		.byte	0x4
 3845 12af B3120000 		.4byte	0x12b3
 3846 12b3 2A       		.uleb128 0x2a
 3847 12b4 CE050000 		.4byte	.LASF250
 3848 12b8 04       		.byte	0x4
 3849 12b9 0B       		.byte	0xb
 3850 12ba 8A       		.byte	0x8a
 3851 12bb B3120000 		.4byte	0x12b3
 3852 12bf 3E130000 		.4byte	0x133e
ARM GAS  C:\Users\jrdia\AppData\Local\Temp\ccYHzYw6.s 			page 93


 3853 12c3 2B       		.uleb128 0x2b
 3854 12c4 F00B0000 		.4byte	.LASF251
 3855 12c8 42140000 		.4byte	0x1442
 3856 12cc 00       		.byte	0
 3857 12cd 01       		.byte	0x1
 3858 12ce 2C       		.uleb128 0x2c
 3859 12cf CE050000 		.4byte	.LASF250
 3860 12d3 EA550000 		.4byte	.LASF252
 3861 12d7 AD120000 		.4byte	0x12ad
 3862 12db 01       		.byte	0x1
 3863 12dc E4120000 		.4byte	0x12e4
 3864 12e0 EF120000 		.4byte	0x12ef
 3865 12e4 1B       		.uleb128 0x1b
 3866 12e5 AD120000 		.4byte	0x12ad
 3867 12e9 14       		.uleb128 0x14
 3868 12ea E1170000 		.4byte	0x17e1
 3869 12ee 00       		.byte	0
 3870 12ef 2C       		.uleb128 0x2c
 3871 12f0 CE050000 		.4byte	.LASF250
 3872 12f4 1A640000 		.4byte	.LASF253
 3873 12f8 AD120000 		.4byte	0x12ad
 3874 12fc 01       		.byte	0x1
 3875 12fd 05130000 		.4byte	0x1305
 3876 1301 0B130000 		.4byte	0x130b
 3877 1305 1B       		.uleb128 0x1b
 3878 1306 AD120000 		.4byte	0x12ad
 3879 130a 00       		.byte	0
 3880 130b 38       		.uleb128 0x38
 3881 130c F4400000 		.4byte	.LASF314
 3882 1310 0B       		.byte	0xb
 3883 1311 8C       		.byte	0x8c
 3884 1312 39360000 		.4byte	.LASF316
 3885 1316 01       		.byte	0x1
 3886 1317 02       		.uleb128 0x2
 3887 1318 10       		.byte	0x10
 3888 1319 00       		.uleb128 0
 3889 131a B3120000 		.4byte	0x12b3
 3890 131e 01       		.byte	0x1
 3891 131f 23130000 		.4byte	0x1323
 3892 1323 1B       		.uleb128 0x1b
 3893 1324 AD120000 		.4byte	0x12ad
 3894 1328 14       		.uleb128 0x14
 3895 1329 BA170000 		.4byte	0x17ba
 3896 132d 14       		.uleb128 0x14
 3897 132e FA000000 		.4byte	0xfa
 3898 1332 14       		.uleb128 0x14
 3899 1333 A2000000 		.4byte	0xa2
 3900 1337 14       		.uleb128 0x14
 3901 1338 B8050000 		.4byte	0x5b8
 3902 133c 00       		.byte	0
 3903 133d 00       		.byte	0
 3904 133e 06       		.uleb128 0x6
 3905 133f 04       		.byte	0x4
 3906 1340 E40D0000 		.4byte	0xde4
 3907 1344 30       		.uleb128 0x30
 3908 1345 04       		.byte	0x4
 3909 1346 4A130000 		.4byte	0x134a
ARM GAS  C:\Users\jrdia\AppData\Local\Temp\ccYHzYw6.s 			page 94


 3910 134a 08       		.uleb128 0x8
 3911 134b E40D0000 		.4byte	0xde4
 3912 134f 06       		.uleb128 0x6
 3913 1350 04       		.byte	0x4
 3914 1351 55130000 		.4byte	0x1355
 3915 1355 39       		.uleb128 0x39
 3916 1356 42544400 		.ascii	"BTD\000"
 3917 135a 37140000 		.4byte	0x1437
 3918 135e 1E       		.uleb128 0x1e
 3919 135f 08620000 		.4byte	.LASF255
 3920 1363 03       		.byte	0x3
 3921 1364 2901     		.2byte	0x129
 3922 1366 3E530000 		.4byte	.LASF256
 3923 136a 97000000 		.4byte	0x97
 3924 136e 01       		.byte	0x1
 3925 136f 77130000 		.4byte	0x1377
 3926 1373 82130000 		.4byte	0x1382
 3927 1377 1B       		.uleb128 0x1b
 3928 1378 4F130000 		.4byte	0x134f
 3929 137c 14       		.uleb128 0x14
 3930 137d 52140000 		.4byte	0x1452
 3931 1381 00       		.byte	0
 3932 1382 3A       		.uleb128 0x3a
 3933 1383 1F590000 		.4byte	.LASF257
 3934 1387 03       		.byte	0x3
 3935 1388 0402     		.2byte	0x204
 3936 138a 680D0000 		.4byte	0xd68
 3937 138e 02       		.byte	0x2
 3938 138f 3A       		.uleb128 0x3a
 3939 1390 17360000 		.4byte	.LASF258
 3940 1394 03       		.byte	0x3
 3941 1395 0602     		.2byte	0x206
 3942 1397 680D0000 		.4byte	0xd68
 3943 139b 02       		.byte	0x2
 3944 139c 3A       		.uleb128 0x3a
 3945 139d 9A630000 		.4byte	.LASF259
 3946 13a1 03       		.byte	0x3
 3947 13a2 0802     		.2byte	0x208
 3948 13a4 680D0000 		.4byte	0xd68
 3949 13a8 02       		.byte	0x2
 3950 13a9 3A       		.uleb128 0x3a
 3951 13aa DE4A0000 		.4byte	.LASF260
 3952 13ae 03       		.byte	0x3
 3953 13af 0A02     		.2byte	0x20a
 3954 13b1 680D0000 		.4byte	0xd68
 3955 13b5 02       		.byte	0x2
 3956 13b6 3B       		.uleb128 0x3b
 3957 13b7 76560000 		.4byte	.LASF261
 3958 13bb 57160000 		.4byte	.LASF263
 3959 13bf 03       		.byte	0x3
 3960 13c0 A001     		.2byte	0x1a0
 3961 13c2 76560000 		.4byte	.LASF261
 3962 13c6 3B       		.uleb128 0x3b
 3963 13c7 A24F0000 		.4byte	.LASF262
 3964 13cb 63380000 		.4byte	.LASF264
 3965 13cf 03       		.byte	0x3
 3966 13d0 8A01     		.2byte	0x18a
ARM GAS  C:\Users\jrdia\AppData\Local\Temp\ccYHzYw6.s 			page 95


 3967 13d2 A24F0000 		.4byte	.LASF262
 3968 13d6 3B       		.uleb128 0x3b
 3969 13d7 5F330000 		.4byte	.LASF265
 3970 13db D73F0000 		.4byte	.LASF266
 3971 13df 03       		.byte	0x3
 3972 13e0 9101     		.2byte	0x191
 3973 13e2 5F330000 		.4byte	.LASF265
 3974 13e6 3B       		.uleb128 0x3b
 3975 13e7 2E3F0000 		.4byte	.LASF267
 3976 13eb 41510000 		.4byte	.LASF268
 3977 13ef 03       		.byte	0x3
 3978 13f0 8101     		.2byte	0x181
 3979 13f2 2E3F0000 		.4byte	.LASF267
 3980 13f6 3B       		.uleb128 0x3b
 3981 13f7 D84C0000 		.4byte	.LASF269
 3982 13fb 3E3C0000 		.4byte	.LASF270
 3983 13ff 03       		.byte	0x3
 3984 1400 7901     		.2byte	0x179
 3985 1402 D84C0000 		.4byte	.LASF269
 3986 1406 3B       		.uleb128 0x3b
 3987 1407 DB150000 		.4byte	.LASF271
 3988 140b AF3C0000 		.4byte	.LASF272
 3989 140f 03       		.byte	0x3
 3990 1410 5101     		.2byte	0x151
 3991 1412 DB150000 		.4byte	.LASF271
 3992 1416 3B       		.uleb128 0x3b
 3993 1417 87160000 		.4byte	.LASF273
 3994 141b 4A580000 		.4byte	.LASF274
 3995 141f 03       		.byte	0x3
 3996 1420 9801     		.2byte	0x198
 3997 1422 87160000 		.4byte	.LASF273
 3998 1426 3B       		.uleb128 0x3b
 3999 1427 071B0000 		.4byte	.LASF275
 4000 142b DD360000 		.4byte	.LASF276
 4001 142f 03       		.byte	0x3
 4002 1430 A801     		.2byte	0x1a8
 4003 1432 071B0000 		.4byte	.LASF275
 4004 1436 00       		.byte	0
 4005 1437 3C       		.uleb128 0x3c
 4006 1438 89000000 		.4byte	0x89
 4007 143c 42140000 		.4byte	0x1442
 4008 1440 3D       		.uleb128 0x3d
 4009 1441 00       		.byte	0
 4010 1442 06       		.uleb128 0x6
 4011 1443 04       		.byte	0x4
 4012 1444 48140000 		.4byte	0x1448
 4013 1448 3E       		.uleb128 0x3e
 4014 1449 04       		.byte	0x4
 4015 144a 6A290000 		.4byte	.LASF1198
 4016 144e 37140000 		.4byte	0x1437
 4017 1452 06       		.uleb128 0x6
 4018 1453 04       		.byte	0x4
 4019 1454 CB100000 		.4byte	0x10cb
 4020 1458 30       		.uleb128 0x30
 4021 1459 04       		.byte	0x4
 4022 145a 5E140000 		.4byte	0x145e
 4023 145e 08       		.uleb128 0x8
ARM GAS  C:\Users\jrdia\AppData\Local\Temp\ccYHzYw6.s 			page 96


 4024 145f CB100000 		.4byte	0x10cb
 4025 1463 2A       		.uleb128 0x2a
 4026 1464 3D4E0000 		.4byte	.LASF277
 4027 1468 10       		.byte	0x10
 4028 1469 0B       		.byte	0xb
 4029 146a 8F       		.byte	0x8f
 4030 146b 620B0000 		.4byte	0xb62
 4031 146f 2A170000 		.4byte	0x172a
 4032 1473 21       		.uleb128 0x21
 4033 1474 620B0000 		.4byte	0xb62
 4034 1478 00       		.byte	0
 4035 1479 01       		.byte	0x1
 4036 147a 21       		.uleb128 0x21
 4037 147b 2A170000 		.4byte	0x172a
 4038 147f 04       		.byte	0x4
 4039 1480 01       		.byte	0x1
 4040 1481 31       		.uleb128 0x31
 4041 1482 EF280000 		.4byte	.LASF278
 4042 1486 0B       		.byte	0xb
 4043 1487 91       		.byte	0x91
 4044 1488 400D0000 		.4byte	0xd40
 4045 148c 08       		.byte	0x8
 4046 148d 02       		.byte	0x2
 4047 148e 31       		.uleb128 0x31
 4048 148f A5610000 		.4byte	.LASF279
 4049 1493 0B       		.byte	0xb
 4050 1494 92       		.byte	0x92
 4051 1495 A2000000 		.4byte	0xa2
 4052 1499 0C       		.byte	0xc
 4053 149a 02       		.byte	0x2
 4054 149b 3F       		.uleb128 0x3f
 4055 149c 06610000 		.4byte	.LASF280
 4056 14a0 0B       		.byte	0xb
 4057 14a1 95       		.byte	0x95
 4058 14a2 680D0000 		.4byte	0xd68
 4059 14a6 02       		.byte	0x2
 4060 14a7 01       		.byte	0x1
 4061 14a8 3F       		.uleb128 0x3f
 4062 14a9 C2080000 		.4byte	.LASF281
 4063 14ad 0B       		.byte	0xb
 4064 14ae 96       		.byte	0x96
 4065 14af 680D0000 		.4byte	0xd68
 4066 14b3 02       		.byte	0x2
 4067 14b4 02       		.byte	0x2
 4068 14b5 3F       		.uleb128 0x3f
 4069 14b6 08380000 		.4byte	.LASF282
 4070 14ba 0B       		.byte	0xb
 4071 14bb 98       		.byte	0x98
 4072 14bc 680D0000 		.4byte	0xd68
 4073 14c0 02       		.byte	0x2
 4074 14c1 03       		.byte	0x3
 4075 14c2 3F       		.uleb128 0x3f
 4076 14c3 5E0B0000 		.4byte	.LASF283
 4077 14c7 0B       		.byte	0xb
 4078 14c8 99       		.byte	0x99
 4079 14c9 680D0000 		.4byte	0xd68
 4080 14cd 02       		.byte	0x2
ARM GAS  C:\Users\jrdia\AppData\Local\Temp\ccYHzYw6.s 			page 97


 4081 14ce 02       		.byte	0x2
 4082 14cf 3F       		.uleb128 0x3f
 4083 14d0 22340000 		.4byte	.LASF284
 4084 14d4 0B       		.byte	0xb
 4085 14d5 9A       		.byte	0x9a
 4086 14d6 680D0000 		.4byte	0xd68
 4087 14da 02       		.byte	0x2
 4088 14db 07       		.byte	0x7
 4089 14dc 1C       		.uleb128 0x1c
 4090 14dd 1A240000 		.4byte	.LASF285
 4091 14e1 0B       		.byte	0xb
 4092 14e2 9C       		.byte	0x9c
 4093 14e3 A8110000 		.4byte	.LASF286
 4094 14e7 02       		.byte	0x2
 4095 14e8 F0140000 		.4byte	0x14f0
 4096 14ec FB140000 		.4byte	0x14fb
 4097 14f0 1B       		.uleb128 0x1b
 4098 14f1 BA170000 		.4byte	0x17ba
 4099 14f5 14       		.uleb128 0x14
 4100 14f6 C0170000 		.4byte	0x17c0
 4101 14fa 00       		.byte	0
 4102 14fb 1C       		.uleb128 0x1c
 4103 14fc 3A210000 		.4byte	.LASF287
 4104 1500 0B       		.byte	0xb
 4105 1501 9D       		.byte	0x9d
 4106 1502 8E2F0000 		.4byte	.LASF288
 4107 1506 02       		.byte	0x2
 4108 1507 0F150000 		.4byte	0x150f
 4109 150b 1A150000 		.4byte	0x151a
 4110 150f 1B       		.uleb128 0x1b
 4111 1510 BA170000 		.4byte	0x17ba
 4112 1514 14       		.uleb128 0x14
 4113 1515 CB170000 		.4byte	0x17cb
 4114 1519 00       		.byte	0
 4115 151a 2D       		.uleb128 0x2d
 4116 151b A2150000 		.4byte	.LASF204
 4117 151f 0B       		.byte	0xb
 4118 1520 9F       		.byte	0x9f
 4119 1521 53100000 		.4byte	.LASF289
 4120 1525 AD120000 		.4byte	0x12ad
 4121 1529 01       		.byte	0x1
 4122 152a 02       		.uleb128 0x2
 4123 152b 10       		.byte	0x10
 4124 152c 09       		.uleb128 0x9
 4125 152d 63140000 		.4byte	0x1463
 4126 1531 02       		.byte	0x2
 4127 1532 3A150000 		.4byte	0x153a
 4128 1536 45150000 		.4byte	0x1545
 4129 153a 1B       		.uleb128 0x1b
 4130 153b BA170000 		.4byte	0x17ba
 4131 153f 14       		.uleb128 0x14
 4132 1540 A2000000 		.4byte	0xa2
 4133 1544 00       		.byte	0
 4134 1545 1A       		.uleb128 0x1a
 4135 1546 3D4E0000 		.4byte	.LASF277
 4136 154a 0B       		.byte	0xb
 4137 154b A5       		.byte	0xa5
ARM GAS  C:\Users\jrdia\AppData\Local\Temp\ccYHzYw6.s 			page 98


 4138 154c 931E0000 		.4byte	.LASF290
 4139 1550 BA170000 		.4byte	0x17ba
 4140 1554 01       		.byte	0x1
 4141 1555 5D150000 		.4byte	0x155d
 4142 1559 68150000 		.4byte	0x1568
 4143 155d 1B       		.uleb128 0x1b
 4144 155e BA170000 		.4byte	0x17ba
 4145 1562 14       		.uleb128 0x14
 4146 1563 400D0000 		.4byte	0xd40
 4147 1567 00       		.byte	0
 4148 1568 1A       		.uleb128 0x1a
 4149 1569 90320000 		.4byte	.LASF291
 4150 156d 0B       		.byte	0xb
 4151 156e A8       		.byte	0xa8
 4152 156f ED2D0000 		.4byte	.LASF292
 4153 1573 D6170000 		.4byte	0x17d6
 4154 1577 01       		.byte	0x1
 4155 1578 80150000 		.4byte	0x1580
 4156 157c 86150000 		.4byte	0x1586
 4157 1580 1B       		.uleb128 0x1b
 4158 1581 BA170000 		.4byte	0x17ba
 4159 1585 00       		.byte	0
 4160 1586 2D       		.uleb128 0x2d
 4161 1587 A2290000 		.4byte	.LASF206
 4162 158b 0B       		.byte	0xb
 4163 158c AC       		.byte	0xac
 4164 158d EA630000 		.4byte	.LASF293
 4165 1591 FA000000 		.4byte	0xfa
 4166 1595 01       		.byte	0x1
 4167 1596 02       		.uleb128 0x2
 4168 1597 10       		.byte	0x10
 4169 1598 0A       		.uleb128 0xa
 4170 1599 63140000 		.4byte	0x1463
 4171 159d 01       		.byte	0x1
 4172 159e A6150000 		.4byte	0x15a6
 4173 15a2 B6150000 		.4byte	0x15b6
 4174 15a6 1B       		.uleb128 0x1b
 4175 15a7 BA170000 		.4byte	0x17ba
 4176 15ab 14       		.uleb128 0x14
 4177 15ac A2000000 		.4byte	0xa2
 4178 15b0 14       		.uleb128 0x14
 4179 15b1 AD120000 		.4byte	0x12ad
 4180 15b5 00       		.byte	0
 4181 15b6 1A       		.uleb128 0x1a
 4182 15b7 00000000 		.4byte	.LASF294
 4183 15bb 0B       		.byte	0xb
 4184 15bc B0       		.byte	0xb0
 4185 15bd 22200000 		.4byte	.LASF295
 4186 15c1 A2000000 		.4byte	0xa2
 4187 15c5 01       		.byte	0x1
 4188 15c6 CE150000 		.4byte	0x15ce
 4189 15ca DE150000 		.4byte	0x15de
 4190 15ce 1B       		.uleb128 0x1b
 4191 15cf BA170000 		.4byte	0x17ba
 4192 15d3 14       		.uleb128 0x14
 4193 15d4 A2000000 		.4byte	0xa2
 4194 15d8 14       		.uleb128 0x14
ARM GAS  C:\Users\jrdia\AppData\Local\Temp\ccYHzYw6.s 			page 99


 4195 15d9 A2000000 		.4byte	0xa2
 4196 15dd 00       		.byte	0
 4197 15de 1A       		.uleb128 0x1a
 4198 15df 6A5F0000 		.4byte	.LASF296
 4199 15e3 0B       		.byte	0xb
 4200 15e4 B1       		.byte	0xb1
 4201 15e5 233D0000 		.4byte	.LASF297
 4202 15e9 A2000000 		.4byte	0xa2
 4203 15ed 01       		.byte	0x1
 4204 15ee F6150000 		.4byte	0x15f6
 4205 15f2 06160000 		.4byte	0x1606
 4206 15f6 1B       		.uleb128 0x1b
 4207 15f7 BA170000 		.4byte	0x17ba
 4208 15fb 14       		.uleb128 0x14
 4209 15fc A2000000 		.4byte	0xa2
 4210 1600 14       		.uleb128 0x14
 4211 1601 B8050000 		.4byte	0x5b8
 4212 1605 00       		.byte	0
 4213 1606 1A       		.uleb128 0x1a
 4214 1607 FE2F0000 		.4byte	.LASF298
 4215 160b 0B       		.byte	0xb
 4216 160c B2       		.byte	0xb2
 4217 160d 68210000 		.4byte	.LASF299
 4218 1611 A2000000 		.4byte	0xa2
 4219 1615 01       		.byte	0x1
 4220 1616 1E160000 		.4byte	0x161e
 4221 161a 33160000 		.4byte	0x1633
 4222 161e 1B       		.uleb128 0x1b
 4223 161f BA170000 		.4byte	0x17ba
 4224 1623 14       		.uleb128 0x14
 4225 1624 A2000000 		.4byte	0xa2
 4226 1628 14       		.uleb128 0x14
 4227 1629 A2000000 		.4byte	0xa2
 4228 162d 14       		.uleb128 0x14
 4229 162e B8050000 		.4byte	0x5b8
 4230 1632 00       		.byte	0
 4231 1633 1A       		.uleb128 0x1a
 4232 1634 572F0000 		.4byte	.LASF300
 4233 1638 0B       		.byte	0xb
 4234 1639 B3       		.byte	0xb3
 4235 163a DC1E0000 		.4byte	.LASF301
 4236 163e A2000000 		.4byte	0xa2
 4237 1642 01       		.byte	0x1
 4238 1643 4B160000 		.4byte	0x164b
 4239 1647 60160000 		.4byte	0x1660
 4240 164b 1B       		.uleb128 0x1b
 4241 164c BA170000 		.4byte	0x17ba
 4242 1650 14       		.uleb128 0x14
 4243 1651 A2000000 		.4byte	0xa2
 4244 1655 14       		.uleb128 0x14
 4245 1656 A2000000 		.4byte	0xa2
 4246 165a 14       		.uleb128 0x14
 4247 165b A2000000 		.4byte	0xa2
 4248 165f 00       		.byte	0
 4249 1660 1A       		.uleb128 0x1a
 4250 1661 5E350000 		.4byte	.LASF302
 4251 1665 0B       		.byte	0xb
ARM GAS  C:\Users\jrdia\AppData\Local\Temp\ccYHzYw6.s 			page 100


 4252 1666 B5       		.byte	0xb5
 4253 1667 A9440000 		.4byte	.LASF303
 4254 166b A2000000 		.4byte	0xa2
 4255 166f 01       		.byte	0x1
 4256 1670 78160000 		.4byte	0x1678
 4257 1674 88160000 		.4byte	0x1688
 4258 1678 1B       		.uleb128 0x1b
 4259 1679 BA170000 		.4byte	0x17ba
 4260 167d 14       		.uleb128 0x14
 4261 167e AD000000 		.4byte	0xad
 4262 1682 14       		.uleb128 0x14
 4263 1683 510D0000 		.4byte	0xd51
 4264 1687 00       		.byte	0
 4265 1688 1A       		.uleb128 0x1a
 4266 1689 30220000 		.4byte	.LASF304
 4267 168d 0B       		.byte	0xb
 4268 168e B7       		.byte	0xb7
 4269 168f 87090000 		.4byte	.LASF305
 4270 1693 A2000000 		.4byte	0xa2
 4271 1697 01       		.byte	0x1
 4272 1698 A0160000 		.4byte	0x16a0
 4273 169c B5160000 		.4byte	0x16b5
 4274 16a0 1B       		.uleb128 0x1b
 4275 16a1 BA170000 		.4byte	0x17ba
 4276 16a5 14       		.uleb128 0x14
 4277 16a6 A2000000 		.4byte	0xa2
 4278 16aa 14       		.uleb128 0x14
 4279 16ab AD000000 		.4byte	0xad
 4280 16af 14       		.uleb128 0x14
 4281 16b0 B8050000 		.4byte	0x5b8
 4282 16b4 00       		.byte	0
 4283 16b5 1A       		.uleb128 0x1a
 4284 16b6 B0300000 		.4byte	.LASF306
 4285 16ba 0B       		.byte	0xb
 4286 16bb B8       		.byte	0xb8
 4287 16bc CD270000 		.4byte	.LASF307
 4288 16c0 A2000000 		.4byte	0xa2
 4289 16c4 01       		.byte	0x1
 4290 16c5 CD160000 		.4byte	0x16cd
 4291 16c9 F1160000 		.4byte	0x16f1
 4292 16cd 1B       		.uleb128 0x1b
 4293 16ce BA170000 		.4byte	0x17ba
 4294 16d2 14       		.uleb128 0x14
 4295 16d3 A2000000 		.4byte	0xa2
 4296 16d7 14       		.uleb128 0x14
 4297 16d8 A2000000 		.4byte	0xa2
 4298 16dc 14       		.uleb128 0x14
 4299 16dd A2000000 		.4byte	0xa2
 4300 16e1 14       		.uleb128 0x14
 4301 16e2 A2000000 		.4byte	0xa2
 4302 16e6 14       		.uleb128 0x14
 4303 16e7 AD000000 		.4byte	0xad
 4304 16eb 14       		.uleb128 0x14
 4305 16ec B8050000 		.4byte	0x5b8
 4306 16f0 00       		.byte	0
 4307 16f1 40       		.uleb128 0x40
 4308 16f2 ED070000 		.4byte	.LASF308
ARM GAS  C:\Users\jrdia\AppData\Local\Temp\ccYHzYw6.s 			page 101


 4309 16f6 0B       		.byte	0xb
 4310 16f7 B9       		.byte	0xb9
 4311 16f8 942A0000 		.4byte	.LASF309
 4312 16fc A2000000 		.4byte	0xa2
 4313 1700 01       		.byte	0x1
 4314 1701 05170000 		.4byte	0x1705
 4315 1705 1B       		.uleb128 0x1b
 4316 1706 BA170000 		.4byte	0x17ba
 4317 170a 14       		.uleb128 0x14
 4318 170b A2000000 		.4byte	0xa2
 4319 170f 14       		.uleb128 0x14
 4320 1710 A2000000 		.4byte	0xa2
 4321 1714 14       		.uleb128 0x14
 4322 1715 A2000000 		.4byte	0xa2
 4323 1719 14       		.uleb128 0x14
 4324 171a A2000000 		.4byte	0xa2
 4325 171e 14       		.uleb128 0x14
 4326 171f AD000000 		.4byte	0xad
 4327 1723 14       		.uleb128 0x14
 4328 1724 B8050000 		.4byte	0x5b8
 4329 1728 00       		.byte	0
 4330 1729 00       		.byte	0
 4331 172a 2A       		.uleb128 0x2a
 4332 172b B2150000 		.4byte	.LASF310
 4333 172f 04       		.byte	0x4
 4334 1730 0C       		.byte	0xc
 4335 1731 17       		.byte	0x17
 4336 1732 2A170000 		.4byte	0x172a
 4337 1736 BA170000 		.4byte	0x17ba
 4338 173a 2B       		.uleb128 0x2b
 4339 173b E91D0000 		.4byte	.LASF311
 4340 173f 42140000 		.4byte	0x1442
 4341 1743 00       		.byte	0
 4342 1744 01       		.byte	0x1
 4343 1745 2C       		.uleb128 0x2c
 4344 1746 B2150000 		.4byte	.LASF310
 4345 174a 6D580000 		.4byte	.LASF312
 4346 174e EC170000 		.4byte	0x17ec
 4347 1752 01       		.byte	0x1
 4348 1753 5B170000 		.4byte	0x175b
 4349 1757 66170000 		.4byte	0x1766
 4350 175b 1B       		.uleb128 0x1b
 4351 175c EC170000 		.4byte	0x17ec
 4352 1760 14       		.uleb128 0x14
 4353 1761 F2170000 		.4byte	0x17f2
 4354 1765 00       		.byte	0
 4355 1766 2C       		.uleb128 0x2c
 4356 1767 B2150000 		.4byte	.LASF310
 4357 176b EA580000 		.4byte	.LASF313
 4358 176f EC170000 		.4byte	0x17ec
 4359 1773 01       		.byte	0x1
 4360 1774 7C170000 		.4byte	0x177c
 4361 1778 82170000 		.4byte	0x1782
 4362 177c 1B       		.uleb128 0x1b
 4363 177d EC170000 		.4byte	0x17ec
 4364 1781 00       		.byte	0
 4365 1782 38       		.uleb128 0x38
ARM GAS  C:\Users\jrdia\AppData\Local\Temp\ccYHzYw6.s 			page 102


 4366 1783 A4090000 		.4byte	.LASF315
 4367 1787 0C       		.byte	0xc
 4368 1788 1C       		.byte	0x1c
 4369 1789 EB140000 		.4byte	.LASF317
 4370 178d 01       		.byte	0x1
 4371 178e 02       		.uleb128 0x2
 4372 178f 10       		.byte	0x10
 4373 1790 00       		.uleb128 0
 4374 1791 2A170000 		.4byte	0x172a
 4375 1795 01       		.byte	0x1
 4376 1796 9A170000 		.4byte	0x179a
 4377 179a 1B       		.uleb128 0x1b
 4378 179b EC170000 		.4byte	0x17ec
 4379 179f 14       		.uleb128 0x14
 4380 17a0 A2000000 		.4byte	0xa2
 4381 17a4 14       		.uleb128 0x14
 4382 17a5 A2000000 		.4byte	0xa2
 4383 17a9 14       		.uleb128 0x14
 4384 17aa A2000000 		.4byte	0xa2
 4385 17ae 14       		.uleb128 0x14
 4386 17af A2000000 		.4byte	0xa2
 4387 17b3 14       		.uleb128 0x14
 4388 17b4 C0170000 		.4byte	0x17c0
 4389 17b8 00       		.byte	0
 4390 17b9 00       		.byte	0
 4391 17ba 06       		.uleb128 0x6
 4392 17bb 04       		.byte	0x4
 4393 17bc 63140000 		.4byte	0x1463
 4394 17c0 06       		.uleb128 0x6
 4395 17c1 04       		.byte	0x4
 4396 17c2 C6170000 		.4byte	0x17c6
 4397 17c6 08       		.uleb128 0x8
 4398 17c7 D3020000 		.4byte	0x2d3
 4399 17cb 06       		.uleb128 0x6
 4400 17cc 04       		.byte	0x4
 4401 17cd D1170000 		.4byte	0x17d1
 4402 17d1 08       		.uleb128 0x8
 4403 17d2 3F030000 		.4byte	0x33f
 4404 17d6 06       		.uleb128 0x6
 4405 17d7 04       		.byte	0x4
 4406 17d8 DC170000 		.4byte	0x17dc
 4407 17dc 08       		.uleb128 0x8
 4408 17dd BE050000 		.4byte	0x5be
 4409 17e1 30       		.uleb128 0x30
 4410 17e2 04       		.byte	0x4
 4411 17e3 E7170000 		.4byte	0x17e7
 4412 17e7 08       		.uleb128 0x8
 4413 17e8 B3120000 		.4byte	0x12b3
 4414 17ec 06       		.uleb128 0x6
 4415 17ed 04       		.byte	0x4
 4416 17ee 2A170000 		.4byte	0x172a
 4417 17f2 30       		.uleb128 0x30
 4418 17f3 04       		.byte	0x4
 4419 17f4 F8170000 		.4byte	0x17f8
 4420 17f8 08       		.uleb128 0x8
 4421 17f9 2A170000 		.4byte	0x172a
 4422 17fd 30       		.uleb128 0x30
ARM GAS  C:\Users\jrdia\AppData\Local\Temp\ccYHzYw6.s 			page 103


 4423 17fe 04       		.byte	0x4
 4424 17ff 03180000 		.4byte	0x1803
 4425 1803 08       		.uleb128 0x8
 4426 1804 620B0000 		.4byte	0xb62
 4427 1808 41       		.uleb128 0x41
 4428 1809 C40F0000 		.4byte	0xfc4
 4429 180d 01       		.byte	0x1
 4430 180e 16180000 		.4byte	0x1816
 4431 1812 20180000 		.4byte	0x1820
 4432 1816 42       		.uleb128 0x42
 4433 1817 2D2D0000 		.4byte	.LASF318
 4434 181b 20180000 		.4byte	0x1820
 4435 181f 00       		.byte	0
 4436 1820 08       		.uleb128 0x8
 4437 1821 3E130000 		.4byte	0x133e
 4438 1825 41       		.uleb128 0x41
 4439 1826 5E130000 		.4byte	0x135e
 4440 182a 03       		.byte	0x3
 4441 182b 33180000 		.4byte	0x1833
 4442 182f 55180000 		.4byte	0x1855
 4443 1833 42       		.uleb128 0x42
 4444 1834 2D2D0000 		.4byte	.LASF318
 4445 1838 55180000 		.4byte	0x1855
 4446 183c 43       		.uleb128 0x43
 4447 183d 57560000 		.4byte	.LASF319
 4448 1841 03       		.byte	0x3
 4449 1842 2901     		.2byte	0x129
 4450 1844 52140000 		.4byte	0x1452
 4451 1848 44       		.uleb128 0x44
 4452 1849 45       		.uleb128 0x45
 4453 184a 6900     		.ascii	"i\000"
 4454 184c 03       		.byte	0x3
 4455 184d 2A01     		.2byte	0x12a
 4456 184f A2000000 		.4byte	0xa2
 4457 1853 00       		.byte	0
 4458 1854 00       		.byte	0
 4459 1855 08       		.uleb128 0x8
 4460 1856 4F130000 		.4byte	0x134f
 4461 185a 41       		.uleb128 0x41
 4462 185b 67120000 		.4byte	0x1267
 4463 185f 03       		.byte	0x3
 4464 1860 68180000 		.4byte	0x1868
 4465 1864 8A180000 		.4byte	0x188a
 4466 1868 42       		.uleb128 0x42
 4467 1869 2D2D0000 		.4byte	.LASF318
 4468 186d 8A180000 		.4byte	0x188a
 4469 1871 46       		.uleb128 0x46
 4470 1872 62756600 		.ascii	"buf\000"
 4471 1876 03       		.byte	0x3
 4472 1877 5902     		.2byte	0x259
 4473 1879 B8050000 		.4byte	0x5b8
 4474 187d 43       		.uleb128 0x43
 4475 187e E7010000 		.4byte	.LASF320
 4476 1882 03       		.byte	0x3
 4477 1883 5902     		.2byte	0x259
 4478 1885 AD000000 		.4byte	0xad
 4479 1889 00       		.byte	0
ARM GAS  C:\Users\jrdia\AppData\Local\Temp\ccYHzYw6.s 			page 104


 4480 188a 08       		.uleb128 0x8
 4481 188b 52140000 		.4byte	0x1452
 4482 188f 41       		.uleb128 0x41
 4483 1890 6F110000 		.4byte	0x116f
 4484 1894 03       		.byte	0x3
 4485 1895 9D180000 		.4byte	0x189d
 4486 1899 B1180000 		.4byte	0x18b1
 4487 189d 42       		.uleb128 0x42
 4488 189e 2D2D0000 		.4byte	.LASF318
 4489 18a2 8A180000 		.4byte	0x188a
 4490 18a6 46       		.uleb128 0x46
 4491 18a7 7000     		.ascii	"p\000"
 4492 18a9 03       		.byte	0x3
 4493 18aa 3802     		.2byte	0x238
 4494 18ac 4F130000 		.4byte	0x134f
 4495 18b0 00       		.byte	0
 4496 18b1 41       		.uleb128 0x41
 4497 18b2 E70F0000 		.4byte	0xfe7
 4498 18b6 01       		.byte	0x1
 4499 18b7 BF180000 		.4byte	0x18bf
 4500 18bb C9180000 		.4byte	0x18c9
 4501 18bf 42       		.uleb128 0x42
 4502 18c0 2D2D0000 		.4byte	.LASF318
 4503 18c4 20180000 		.4byte	0x1820
 4504 18c8 00       		.byte	0
 4505 18c9 41       		.uleb128 0x41
 4506 18ca 2B100000 		.4byte	0x102b
 4507 18ce 03       		.byte	0x3
 4508 18cf D7180000 		.4byte	0x18d7
 4509 18d3 F7180000 		.4byte	0x18f7
 4510 18d7 42       		.uleb128 0x42
 4511 18d8 2D2D0000 		.4byte	.LASF318
 4512 18dc 20180000 		.4byte	0x1820
 4513 18e0 47       		.uleb128 0x47
 4514 18e1 6C656E00 		.ascii	"len\000"
 4515 18e5 01       		.byte	0x1
 4516 18e6 7D       		.byte	0x7d
 4517 18e7 A2000000 		.4byte	0xa2
 4518 18eb 47       		.uleb128 0x47
 4519 18ec 62756600 		.ascii	"buf\000"
 4520 18f0 01       		.byte	0x1
 4521 18f1 7D       		.byte	0x7d
 4522 18f2 B8050000 		.4byte	0x5b8
 4523 18f6 00       		.byte	0
 4524 18f7 48       		.uleb128 0x48
 4525 18f8 C9180000 		.4byte	0x18c9
 4526 18fc 68020000 		.4byte	.LASF222
 4527 1900 00000000 		.4byte	.LFB277
 4528 1904 02000000 		.4byte	.LFE277-.LFB277
 4529 1908 01       		.uleb128 0x1
 4530 1909 9C       		.byte	0x9c
 4531 190a 12190000 		.4byte	0x1912
 4532 190e 28190000 		.4byte	0x1928
 4533 1912 49       		.uleb128 0x49
 4534 1913 D7180000 		.4byte	0x18d7
 4535 1917 01       		.uleb128 0x1
 4536 1918 50       		.byte	0x50
ARM GAS  C:\Users\jrdia\AppData\Local\Temp\ccYHzYw6.s 			page 105


 4537 1919 49       		.uleb128 0x49
 4538 191a E0180000 		.4byte	0x18e0
 4539 191e 01       		.uleb128 0x1
 4540 191f 51       		.byte	0x51
 4541 1920 49       		.uleb128 0x49
 4542 1921 EB180000 		.4byte	0x18eb
 4543 1925 01       		.uleb128 0x1
 4544 1926 52       		.byte	0x52
 4545 1927 00       		.byte	0
 4546 1928 41       		.uleb128 0x41
 4547 1929 57100000 		.4byte	0x1057
 4548 192d 03       		.byte	0x3
 4549 192e 36190000 		.4byte	0x1936
 4550 1932 40190000 		.4byte	0x1940
 4551 1936 42       		.uleb128 0x42
 4552 1937 2D2D0000 		.4byte	.LASF318
 4553 193b 20180000 		.4byte	0x1820
 4554 193f 00       		.byte	0
 4555 1940 48       		.uleb128 0x48
 4556 1941 28190000 		.4byte	0x1928
 4557 1945 62110000 		.4byte	.LASF224
 4558 1949 00000000 		.4byte	.LFB278
 4559 194d 02000000 		.4byte	.LFE278-.LFB278
 4560 1951 01       		.uleb128 0x1
 4561 1952 9C       		.byte	0x9c
 4562 1953 5B190000 		.4byte	0x195b
 4563 1957 63190000 		.4byte	0x1963
 4564 195b 49       		.uleb128 0x49
 4565 195c 36190000 		.4byte	0x1936
 4566 1960 01       		.uleb128 0x1
 4567 1961 50       		.byte	0x50
 4568 1962 00       		.byte	0
 4569 1963 41       		.uleb128 0x41
 4570 1964 79100000 		.4byte	0x1079
 4571 1968 03       		.byte	0x3
 4572 1969 71190000 		.4byte	0x1971
 4573 196d 7B190000 		.4byte	0x197b
 4574 1971 42       		.uleb128 0x42
 4575 1972 2D2D0000 		.4byte	.LASF318
 4576 1976 20180000 		.4byte	0x1820
 4577 197a 00       		.byte	0
 4578 197b 48       		.uleb128 0x48
 4579 197c 63190000 		.4byte	0x1963
 4580 1980 41130000 		.4byte	.LASF226
 4581 1984 00000000 		.4byte	.LFB279
 4582 1988 02000000 		.4byte	.LFE279-.LFB279
 4583 198c 01       		.uleb128 0x1
 4584 198d 9C       		.byte	0x9c
 4585 198e 96190000 		.4byte	0x1996
 4586 1992 9E190000 		.4byte	0x199e
 4587 1996 49       		.uleb128 0x49
 4588 1997 71190000 		.4byte	0x1971
 4589 199b 01       		.uleb128 0x1
 4590 199c 50       		.byte	0x50
 4591 199d 00       		.byte	0
 4592 199e 4A       		.uleb128 0x4a
 4593 199f B80E0000 		.4byte	0xeb8
ARM GAS  C:\Users\jrdia\AppData\Local\Temp\ccYHzYw6.s 			page 106


 4594 19a3 00000000 		.4byte	.LFB284
 4595 19a7 30000000 		.4byte	.LFE284-.LFB284
 4596 19ab 01       		.uleb128 0x1
 4597 19ac 9C       		.byte	0x9c
 4598 19ad B5190000 		.4byte	0x19b5
 4599 19b1 EA190000 		.4byte	0x19ea
 4600 19b5 4B       		.uleb128 0x4b
 4601 19b6 2D2D0000 		.4byte	.LASF318
 4602 19ba 20180000 		.4byte	0x1820
 4603 19be 00000000 		.4byte	.LLST0
 4604 19c2 4C       		.uleb128 0x4c
 4605 19c3 1E000000 		.4byte	.LVL6
 4606 19c7 B6130000 		.4byte	0x13b6
 4607 19cb DD190000 		.4byte	0x19dd
 4608 19cf 4D       		.uleb128 0x4d
 4609 19d0 01       		.uleb128 0x1
 4610 19d1 53       		.byte	0x53
 4611 19d2 02       		.uleb128 0x2
 4612 19d3 74       		.byte	0x74
 4613 19d4 18       		.sleb128 24
 4614 19d5 4D       		.uleb128 0x4d
 4615 19d6 02       		.uleb128 0x2
 4616 19d7 7D       		.byte	0x7d
 4617 19d8 00       		.sleb128 0
 4618 19d9 02       		.uleb128 0x2
 4619 19da 74       		.byte	0x74
 4620 19db 28       		.sleb128 40
 4621 19dc 00       		.byte	0
 4622 19dd 4E       		.uleb128 0x4e
 4623 19de 26000000 		.4byte	.LVL7
 4624 19e2 4D       		.uleb128 0x4d
 4625 19e3 01       		.uleb128 0x1
 4626 19e4 50       		.byte	0x50
 4627 19e5 02       		.uleb128 0x2
 4628 19e6 74       		.byte	0x74
 4629 19e7 00       		.sleb128 0
 4630 19e8 00       		.byte	0
 4631 19e9 00       		.byte	0
 4632 19ea 48       		.uleb128 0x48
 4633 19eb 08180000 		.4byte	0x1808
 4634 19ef FF4E0000 		.4byte	.LASF240
 4635 19f3 00000000 		.4byte	.LFB287
 4636 19f7 A8000000 		.4byte	.LFE287-.LFB287
 4637 19fb 01       		.uleb128 0x1
 4638 19fc 9C       		.byte	0x9c
 4639 19fd 051A0000 		.4byte	0x1a05
 4640 1a01 B51A0000 		.4byte	0x1ab5
 4641 1a05 4F       		.uleb128 0x4f
 4642 1a06 16180000 		.4byte	0x1816
 4643 1a0a 37000000 		.4byte	.LLST1
 4644 1a0e 50       		.uleb128 0x50
 4645 1a0f 00000000 		.4byte	.Ldebug_ranges0+0
 4646 1a13 4F       		.uleb128 0x4f
 4647 1a14 16180000 		.4byte	0x1816
 4648 1a18 6E000000 		.4byte	.LLST2
 4649 1a1c 4C       		.uleb128 0x4c
 4650 1a1d 4E000000 		.4byte	.LVL15
ARM GAS  C:\Users\jrdia\AppData\Local\Temp\ccYHzYw6.s 			page 107


 4651 1a21 C6130000 		.4byte	0x13c6
 4652 1a25 3D1A0000 		.4byte	0x1a3d
 4653 1a29 4D       		.uleb128 0x4d
 4654 1a2a 01       		.uleb128 0x1
 4655 1a2b 53       		.byte	0x53
 4656 1a2c 02       		.uleb128 0x2
 4657 1a2d 76       		.byte	0x76
 4658 1a2e 00       		.sleb128 0
 4659 1a2f 4D       		.uleb128 0x4d
 4660 1a30 02       		.uleb128 0x2
 4661 1a31 7D       		.byte	0x7d
 4662 1a32 00       		.sleb128 0
 4663 1a33 02       		.uleb128 0x2
 4664 1a34 75       		.byte	0x75
 4665 1a35 00       		.sleb128 0
 4666 1a36 4D       		.uleb128 0x4d
 4667 1a37 02       		.uleb128 0x2
 4668 1a38 7D       		.byte	0x7d
 4669 1a39 04       		.sleb128 4
 4670 1a3a 01       		.uleb128 0x1
 4671 1a3b 31       		.byte	0x31
 4672 1a3c 00       		.byte	0
 4673 1a3d 4C       		.uleb128 0x4c
 4674 1a3e 54000000 		.4byte	.LVL16
 4675 1a42 E4580000 		.4byte	0x58e4
 4676 1a46 501A0000 		.4byte	0x1a50
 4677 1a4a 4D       		.uleb128 0x4d
 4678 1a4b 01       		.uleb128 0x1
 4679 1a4c 50       		.byte	0x50
 4680 1a4d 01       		.uleb128 0x1
 4681 1a4e 31       		.byte	0x31
 4682 1a4f 00       		.byte	0
 4683 1a50 4C       		.uleb128 0x4c
 4684 1a51 66000000 		.4byte	.LVL17
 4685 1a55 C6130000 		.4byte	0x13c6
 4686 1a59 711A0000 		.4byte	0x1a71
 4687 1a5d 4D       		.uleb128 0x4d
 4688 1a5e 01       		.uleb128 0x1
 4689 1a5f 53       		.byte	0x53
 4690 1a60 02       		.uleb128 0x2
 4691 1a61 76       		.byte	0x76
 4692 1a62 00       		.sleb128 0
 4693 1a63 4D       		.uleb128 0x4d
 4694 1a64 02       		.uleb128 0x2
 4695 1a65 7D       		.byte	0x7d
 4696 1a66 00       		.sleb128 0
 4697 1a67 02       		.uleb128 0x2
 4698 1a68 75       		.byte	0x75
 4699 1a69 00       		.sleb128 0
 4700 1a6a 4D       		.uleb128 0x4d
 4701 1a6b 02       		.uleb128 0x2
 4702 1a6c 7D       		.byte	0x7d
 4703 1a6d 04       		.sleb128 4
 4704 1a6e 01       		.uleb128 0x1
 4705 1a6f 30       		.byte	0x30
 4706 1a70 00       		.byte	0
 4707 1a71 4C       		.uleb128 0x4c
ARM GAS  C:\Users\jrdia\AppData\Local\Temp\ccYHzYw6.s 			page 108


 4708 1a72 72000000 		.4byte	.LVL18
 4709 1a76 E4580000 		.4byte	0x58e4
 4710 1a7a 841A0000 		.4byte	0x1a84
 4711 1a7e 4D       		.uleb128 0x4d
 4712 1a7f 01       		.uleb128 0x1
 4713 1a80 50       		.byte	0x50
 4714 1a81 01       		.uleb128 0x1
 4715 1a82 31       		.byte	0x31
 4716 1a83 00       		.byte	0
 4717 1a84 4C       		.uleb128 0x4c
 4718 1a85 7E000000 		.4byte	.LVL19
 4719 1a89 D6130000 		.4byte	0x13d6
 4720 1a8d 981A0000 		.4byte	0x1a98
 4721 1a91 4D       		.uleb128 0x4d
 4722 1a92 01       		.uleb128 0x1
 4723 1a93 53       		.byte	0x53
 4724 1a94 02       		.uleb128 0x2
 4725 1a95 75       		.byte	0x75
 4726 1a96 00       		.sleb128 0
 4727 1a97 00       		.byte	0
 4728 1a98 51       		.uleb128 0x51
 4729 1a99 A2000000 		.4byte	.LVL20
 4730 1a9d E6130000 		.4byte	0x13e6
 4731 1aa1 4D       		.uleb128 0x4d
 4732 1aa2 01       		.uleb128 0x1
 4733 1aa3 52       		.byte	0x52
 4734 1aa4 01       		.uleb128 0x1
 4735 1aa5 30       		.byte	0x30
 4736 1aa6 4D       		.uleb128 0x4d
 4737 1aa7 01       		.uleb128 0x1
 4738 1aa8 53       		.byte	0x53
 4739 1aa9 02       		.uleb128 0x2
 4740 1aaa 74       		.byte	0x74
 4741 1aab 26       		.sleb128 38
 4742 1aac 4D       		.uleb128 0x4d
 4743 1aad 02       		.uleb128 0x2
 4744 1aae 7D       		.byte	0x7d
 4745 1aaf 00       		.sleb128 0
 4746 1ab0 01       		.uleb128 0x1
 4747 1ab1 41       		.byte	0x41
 4748 1ab2 00       		.byte	0
 4749 1ab3 00       		.byte	0
 4750 1ab4 00       		.byte	0
 4751 1ab5 41       		.uleb128 0x41
 4752 1ab6 09100000 		.4byte	0x1009
 4753 1aba 03       		.byte	0x3
 4754 1abb C31A0000 		.4byte	0x1ac3
 4755 1abf CD1A0000 		.4byte	0x1acd
 4756 1ac3 42       		.uleb128 0x42
 4757 1ac4 2D2D0000 		.4byte	.LASF318
 4758 1ac8 20180000 		.4byte	0x1820
 4759 1acc 00       		.byte	0
 4760 1acd 52       		.uleb128 0x52
 4761 1ace B51A0000 		.4byte	0x1ab5
 4762 1ad2 8D5E0000 		.4byte	.LASF220
 4763 1ad6 00000000 		.4byte	.LFB276
 4764 1ada 24000000 		.4byte	.LFE276-.LFB276
ARM GAS  C:\Users\jrdia\AppData\Local\Temp\ccYHzYw6.s 			page 109


 4765 1ade 01       		.uleb128 0x1
 4766 1adf 9C       		.byte	0x9c
 4767 1ae0 E81A0000 		.4byte	0x1ae8
 4768 1ae4 FE1A0000 		.4byte	0x1afe
 4769 1ae8 4F       		.uleb128 0x4f
 4770 1ae9 C31A0000 		.4byte	0x1ac3
 4771 1aed 97000000 		.4byte	.LLST3
 4772 1af1 4E       		.uleb128 0x4e
 4773 1af2 1C000000 		.4byte	.LVL25
 4774 1af6 4D       		.uleb128 0x4d
 4775 1af7 01       		.uleb128 0x1
 4776 1af8 50       		.byte	0x50
 4777 1af9 02       		.uleb128 0x2
 4778 1afa 74       		.byte	0x74
 4779 1afb 00       		.sleb128 0
 4780 1afc 00       		.byte	0
 4781 1afd 00       		.byte	0
 4782 1afe 52       		.uleb128 0x52
 4783 1aff B1180000 		.4byte	0x18b1
 4784 1b03 41320000 		.4byte	.LASF218
 4785 1b07 00000000 		.4byte	.LFB283
 4786 1b0b 24000000 		.4byte	.LFE283-.LFB283
 4787 1b0f 01       		.uleb128 0x1
 4788 1b10 9C       		.byte	0x9c
 4789 1b11 191B0000 		.4byte	0x1b19
 4790 1b15 231B0000 		.4byte	0x1b23
 4791 1b19 4F       		.uleb128 0x4f
 4792 1b1a BF180000 		.4byte	0x18bf
 4793 1b1e CE000000 		.4byte	.LLST4
 4794 1b22 00       		.byte	0
 4795 1b23 41       		.uleb128 0x41
 4796 1b24 8B0E0000 		.4byte	0xe8b
 4797 1b28 00       		.byte	0
 4798 1b29 311B0000 		.4byte	0x1b31
 4799 1b2d 651B0000 		.4byte	0x1b65
 4800 1b31 42       		.uleb128 0x42
 4801 1b32 2D2D0000 		.4byte	.LASF318
 4802 1b36 20180000 		.4byte	0x1820
 4803 1b3a 47       		.uleb128 0x47
 4804 1b3b 7000     		.ascii	"p\000"
 4805 1b3d 02       		.byte	0x2
 4806 1b3e 17       		.byte	0x17
 4807 1b3f 4F130000 		.4byte	0x134f
 4808 1b43 53       		.uleb128 0x53
 4809 1b44 06290000 		.4byte	.LASF213
 4810 1b48 02       		.byte	0x2
 4811 1b49 17       		.byte	0x17
 4812 1b4a FA000000 		.4byte	0xfa
 4813 1b4e 47       		.uleb128 0x47
 4814 1b4f 70696E00 		.ascii	"pin\000"
 4815 1b53 02       		.byte	0x2
 4816 1b54 17       		.byte	0x17
 4817 1b55 DA000000 		.4byte	0xda
 4818 1b59 44       		.uleb128 0x44
 4819 1b5a 54       		.uleb128 0x54
 4820 1b5b 6900     		.ascii	"i\000"
 4821 1b5d 02       		.byte	0x2
ARM GAS  C:\Users\jrdia\AppData\Local\Temp\ccYHzYw6.s 			page 110


 4822 1b5e 1A       		.byte	0x1a
 4823 1b5f A2000000 		.4byte	0xa2
 4824 1b63 00       		.byte	0
 4825 1b64 00       		.byte	0
 4826 1b65 48       		.uleb128 0x48
 4827 1b66 231B0000 		.4byte	0x1b23
 4828 1b6a F33A0000 		.4byte	.LASF321
 4829 1b6e 00000000 		.4byte	.LFB281
 4830 1b72 6C000000 		.4byte	.LFE281-.LFB281
 4831 1b76 01       		.uleb128 0x1
 4832 1b77 9C       		.byte	0x9c
 4833 1b78 801B0000 		.4byte	0x1b80
 4834 1b7c 211C0000 		.4byte	0x1c21
 4835 1b80 49       		.uleb128 0x49
 4836 1b81 311B0000 		.4byte	0x1b31
 4837 1b85 01       		.uleb128 0x1
 4838 1b86 50       		.byte	0x50
 4839 1b87 49       		.uleb128 0x49
 4840 1b88 3A1B0000 		.4byte	0x1b3a
 4841 1b8c 01       		.uleb128 0x1
 4842 1b8d 51       		.byte	0x51
 4843 1b8e 4F       		.uleb128 0x4f
 4844 1b8f 431B0000 		.4byte	0x1b43
 4845 1b93 08010000 		.4byte	.LLST5
 4846 1b97 4F       		.uleb128 0x4f
 4847 1b98 4E1B0000 		.4byte	0x1b4e
 4848 1b9c 43010000 		.4byte	.LLST6
 4849 1ba0 55       		.uleb128 0x55
 4850 1ba1 8F180000 		.4byte	0x188f
 4851 1ba5 02000000 		.4byte	.LBB37
 4852 1ba9 20000000 		.4byte	.Ldebug_ranges0+0x20
 4853 1bad 02       		.byte	0x2
 4854 1bae 19       		.byte	0x19
 4855 1baf F01B0000 		.4byte	0x1bf0
 4856 1bb3 4F       		.uleb128 0x4f
 4857 1bb4 A6180000 		.4byte	0x18a6
 4858 1bb8 7B010000 		.4byte	.LLST7
 4859 1bbc 4F       		.uleb128 0x4f
 4860 1bbd 9D180000 		.4byte	0x189d
 4861 1bc1 99010000 		.4byte	.LLST8
 4862 1bc5 56       		.uleb128 0x56
 4863 1bc6 25180000 		.4byte	0x1825
 4864 1bca 12000000 		.4byte	.LBB39
 4865 1bce 38000000 		.4byte	.Ldebug_ranges0+0x38
 4866 1bd2 03       		.byte	0x3
 4867 1bd3 3A02     		.2byte	0x23a
 4868 1bd5 57       		.uleb128 0x57
 4869 1bd6 3C180000 		.4byte	0x183c
 4870 1bda 57       		.uleb128 0x57
 4871 1bdb 33180000 		.4byte	0x1833
 4872 1bdf 50       		.uleb128 0x50
 4873 1be0 38000000 		.4byte	.Ldebug_ranges0+0x38
 4874 1be4 58       		.uleb128 0x58
 4875 1be5 49180000 		.4byte	0x1849
 4876 1be9 B7010000 		.4byte	.LLST9
 4877 1bed 00       		.byte	0
 4878 1bee 00       		.byte	0
ARM GAS  C:\Users\jrdia\AppData\Local\Temp\ccYHzYw6.s 			page 111


 4879 1bef 00       		.byte	0
 4880 1bf0 59       		.uleb128 0x59
 4881 1bf1 2E000000 		.4byte	.LBB45
 4882 1bf5 04000000 		.4byte	.LBE45-.LBB45
 4883 1bf9 071C0000 		.4byte	0x1c07
 4884 1bfd 58       		.uleb128 0x58
 4885 1bfe 5A1B0000 		.4byte	0x1b5a
 4886 1c02 E2010000 		.4byte	.LLST10
 4887 1c06 00       		.byte	0
 4888 1c07 5A       		.uleb128 0x5a
 4889 1c08 B1180000 		.4byte	0x18b1
 4890 1c0c 4A000000 		.4byte	.LBB46
 4891 1c10 50000000 		.4byte	.Ldebug_ranges0+0x50
 4892 1c14 02       		.byte	0x2
 4893 1c15 26       		.byte	0x26
 4894 1c16 4F       		.uleb128 0x4f
 4895 1c17 BF180000 		.4byte	0x18bf
 4896 1c1b 0E020000 		.4byte	.LLST11
 4897 1c1f 00       		.byte	0
 4898 1c20 00       		.byte	0
 4899 1c21 4A       		.uleb128 0x4a
 4900 1c22 9B100000 		.4byte	0x109b
 4901 1c26 00000000 		.4byte	.LFB288
 4902 1c2a 36000000 		.4byte	.LFE288-.LFB288
 4903 1c2e 01       		.uleb128 0x1
 4904 1c2f 9C       		.byte	0x9c
 4905 1c30 381C0000 		.4byte	0x1c38
 4906 1c34 711C0000 		.4byte	0x1c71
 4907 1c38 4B       		.uleb128 0x4b
 4908 1c39 2D2D0000 		.4byte	.LASF318
 4909 1c3d 20180000 		.4byte	0x1820
 4910 1c41 21020000 		.4byte	.LLST12
 4911 1c45 5B       		.uleb128 0x5b
 4912 1c46 09280000 		.4byte	.LASF322
 4913 1c4a 02       		.byte	0x2
 4914 1c4b 8501     		.2byte	0x185
 4915 1c4d A2000000 		.4byte	0xa2
 4916 1c51 02       		.uleb128 0x2
 4917 1c52 91       		.byte	0x91
 4918 1c53 77       		.sleb128 -9
 4919 1c54 51       		.uleb128 0x51
 4920 1c55 2C000000 		.4byte	.LVL48
 4921 1c59 F6130000 		.4byte	0x13f6
 4922 1c5d 4D       		.uleb128 0x4d
 4923 1c5e 01       		.uleb128 0x1
 4924 1c5f 52       		.byte	0x52
 4925 1c60 02       		.uleb128 0x2
 4926 1c61 91       		.byte	0x91
 4927 1c62 77       		.sleb128 -9
 4928 1c63 4D       		.uleb128 0x4d
 4929 1c64 01       		.uleb128 0x1
 4930 1c65 53       		.byte	0x53
 4931 1c66 01       		.uleb128 0x1
 4932 1c67 31       		.byte	0x31
 4933 1c68 4D       		.uleb128 0x4d
 4934 1c69 02       		.uleb128 0x2
 4935 1c6a 7D       		.byte	0x7d
ARM GAS  C:\Users\jrdia\AppData\Local\Temp\ccYHzYw6.s 			page 112


 4936 1c6b 04       		.sleb128 4
 4937 1c6c 02       		.uleb128 0x2
 4938 1c6d 74       		.byte	0x74
 4939 1c6e 00       		.sleb128 0
 4940 1c6f 00       		.byte	0
 4941 1c70 00       		.byte	0
 4942 1c71 5C       		.uleb128 0x5c
 4943 1c72 B5100000 		.4byte	0x10b5
 4944 1c76 00000000 		.4byte	.LFB286
 4945 1c7a 84010000 		.4byte	.LFE286-.LFB286
 4946 1c7e 01       		.uleb128 0x1
 4947 1c7f 9C       		.byte	0x9c
 4948 1c80 881C0000 		.4byte	0x1c88
 4949 1c84 BE1D0000 		.4byte	0x1dbe
 4950 1c88 4B       		.uleb128 0x4b
 4951 1c89 2D2D0000 		.4byte	.LASF318
 4952 1c8d 20180000 		.4byte	0x1820
 4953 1c91 58020000 		.4byte	.LLST13
 4954 1c95 5D       		.uleb128 0x5d
 4955 1c96 B51A0000 		.4byte	0x1ab5
 4956 1c9a 38000000 		.4byte	.LBB58
 4957 1c9e 68000000 		.4byte	.Ldebug_ranges0+0x68
 4958 1ca2 02       		.byte	0x2
 4959 1ca3 3701     		.2byte	0x137
 4960 1ca5 BF1C0000 		.4byte	0x1cbf
 4961 1ca9 4F       		.uleb128 0x4f
 4962 1caa C31A0000 		.4byte	0x1ac3
 4963 1cae 34030000 		.4byte	.LLST14
 4964 1cb2 4E       		.uleb128 0x4e
 4965 1cb3 76010000 		.4byte	.LVL82
 4966 1cb7 4D       		.uleb128 0x4d
 4967 1cb8 01       		.uleb128 0x1
 4968 1cb9 50       		.byte	0x50
 4969 1cba 02       		.uleb128 0x2
 4970 1cbb 74       		.byte	0x74
 4971 1cbc 00       		.sleb128 0
 4972 1cbd 00       		.byte	0
 4973 1cbe 00       		.byte	0
 4974 1cbf 4C       		.uleb128 0x4c
 4975 1cc0 74000000 		.4byte	.LVL57
 4976 1cc4 B6130000 		.4byte	0x13b6
 4977 1cc8 DA1C0000 		.4byte	0x1cda
 4978 1ccc 4D       		.uleb128 0x4d
 4979 1ccd 01       		.uleb128 0x1
 4980 1cce 53       		.byte	0x53
 4981 1ccf 02       		.uleb128 0x2
 4982 1cd0 74       		.byte	0x74
 4983 1cd1 16       		.sleb128 22
 4984 1cd2 4D       		.uleb128 0x4d
 4985 1cd3 02       		.uleb128 0x2
 4986 1cd4 7D       		.byte	0x7d
 4987 1cd5 00       		.sleb128 0
 4988 1cd6 02       		.uleb128 0x2
 4989 1cd7 74       		.byte	0x74
 4990 1cd8 26       		.sleb128 38
 4991 1cd9 00       		.byte	0
 4992 1cda 4C       		.uleb128 0x4c
ARM GAS  C:\Users\jrdia\AppData\Local\Temp\ccYHzYw6.s 			page 113


 4993 1cdb 96000000 		.4byte	.LVL60
 4994 1cdf D6130000 		.4byte	0x13d6
 4995 1ce3 EE1C0000 		.4byte	0x1cee
 4996 1ce7 4D       		.uleb128 0x4d
 4997 1ce8 01       		.uleb128 0x1
 4998 1ce9 53       		.byte	0x53
 4999 1cea 02       		.uleb128 0x2
 5000 1ceb 74       		.byte	0x74
 5001 1cec 16       		.sleb128 22
 5002 1ced 00       		.byte	0
 5003 1cee 4C       		.uleb128 0x4c
 5004 1cef A8000000 		.4byte	.LVL62
 5005 1cf3 211C0000 		.4byte	0x1c21
 5006 1cf7 021D0000 		.4byte	0x1d02
 5007 1cfb 4D       		.uleb128 0x4d
 5008 1cfc 01       		.uleb128 0x1
 5009 1cfd 50       		.byte	0x50
 5010 1cfe 02       		.uleb128 0x2
 5011 1cff 74       		.byte	0x74
 5012 1d00 00       		.sleb128 0
 5013 1d01 00       		.byte	0
 5014 1d02 4C       		.uleb128 0x4c
 5015 1d03 AE000000 		.4byte	.LVL63
 5016 1d07 E4580000 		.4byte	0x58e4
 5017 1d0b 151D0000 		.4byte	0x1d15
 5018 1d0f 4D       		.uleb128 0x4d
 5019 1d10 01       		.uleb128 0x1
 5020 1d11 50       		.byte	0x50
 5021 1d12 01       		.uleb128 0x1
 5022 1d13 31       		.byte	0x31
 5023 1d14 00       		.byte	0
 5024 1d15 4C       		.uleb128 0x4c
 5025 1d16 C6000000 		.4byte	.LVL64
 5026 1d1a E6130000 		.4byte	0x13e6
 5027 1d1e 2F1D0000 		.4byte	0x1d2f
 5028 1d22 4D       		.uleb128 0x4d
 5029 1d23 01       		.uleb128 0x1
 5030 1d24 53       		.byte	0x53
 5031 1d25 02       		.uleb128 0x2
 5032 1d26 74       		.byte	0x74
 5033 1d27 28       		.sleb128 40
 5034 1d28 4D       		.uleb128 0x4d
 5035 1d29 02       		.uleb128 0x2
 5036 1d2a 7D       		.byte	0x7d
 5037 1d2b 00       		.sleb128 0
 5038 1d2c 01       		.uleb128 0x1
 5039 1d2d 43       		.byte	0x43
 5040 1d2e 00       		.byte	0
 5041 1d2f 4C       		.uleb128 0x4c
 5042 1d30 D8000000 		.4byte	.LVL66
 5043 1d34 211C0000 		.4byte	0x1c21
 5044 1d38 431D0000 		.4byte	0x1d43
 5045 1d3c 4D       		.uleb128 0x4d
 5046 1d3d 01       		.uleb128 0x1
 5047 1d3e 50       		.byte	0x50
 5048 1d3f 02       		.uleb128 0x2
 5049 1d40 74       		.byte	0x74
ARM GAS  C:\Users\jrdia\AppData\Local\Temp\ccYHzYw6.s 			page 114


 5050 1d41 00       		.sleb128 0
 5051 1d42 00       		.byte	0
 5052 1d43 5E       		.uleb128 0x5e
 5053 1d44 EE000000 		.4byte	.LVL69
 5054 1d48 06140000 		.4byte	0x1406
 5055 1d4c 4C       		.uleb128 0x4c
 5056 1d4d 1E010000 		.4byte	.LVL72
 5057 1d51 C6130000 		.4byte	0x13c6
 5058 1d55 6D1D0000 		.4byte	0x1d6d
 5059 1d59 4D       		.uleb128 0x4d
 5060 1d5a 01       		.uleb128 0x1
 5061 1d5b 53       		.byte	0x53
 5062 1d5c 02       		.uleb128 0x2
 5063 1d5d 76       		.byte	0x76
 5064 1d5e 00       		.sleb128 0
 5065 1d5f 4D       		.uleb128 0x4d
 5066 1d60 02       		.uleb128 0x2
 5067 1d61 7D       		.byte	0x7d
 5068 1d62 00       		.sleb128 0
 5069 1d63 02       		.uleb128 0x2
 5070 1d64 75       		.byte	0x75
 5071 1d65 00       		.sleb128 0
 5072 1d66 4D       		.uleb128 0x4d
 5073 1d67 02       		.uleb128 0x2
 5074 1d68 7D       		.byte	0x7d
 5075 1d69 04       		.sleb128 4
 5076 1d6a 01       		.uleb128 0x1
 5077 1d6b 31       		.byte	0x31
 5078 1d6c 00       		.byte	0
 5079 1d6d 4C       		.uleb128 0x4c
 5080 1d6e 24010000 		.4byte	.LVL73
 5081 1d72 E4580000 		.4byte	0x58e4
 5082 1d76 801D0000 		.4byte	0x1d80
 5083 1d7a 4D       		.uleb128 0x4d
 5084 1d7b 01       		.uleb128 0x1
 5085 1d7c 50       		.byte	0x50
 5086 1d7d 01       		.uleb128 0x1
 5087 1d7e 31       		.byte	0x31
 5088 1d7f 00       		.byte	0
 5089 1d80 4C       		.uleb128 0x4c
 5090 1d81 36010000 		.4byte	.LVL74
 5091 1d85 C6130000 		.4byte	0x13c6
 5092 1d89 A11D0000 		.4byte	0x1da1
 5093 1d8d 4D       		.uleb128 0x4d
 5094 1d8e 01       		.uleb128 0x1
 5095 1d8f 53       		.byte	0x53
 5096 1d90 02       		.uleb128 0x2
 5097 1d91 76       		.byte	0x76
 5098 1d92 00       		.sleb128 0
 5099 1d93 4D       		.uleb128 0x4d
 5100 1d94 02       		.uleb128 0x2
 5101 1d95 7D       		.byte	0x7d
 5102 1d96 00       		.sleb128 0
 5103 1d97 02       		.uleb128 0x2
 5104 1d98 75       		.byte	0x75
 5105 1d99 00       		.sleb128 0
 5106 1d9a 4D       		.uleb128 0x4d
ARM GAS  C:\Users\jrdia\AppData\Local\Temp\ccYHzYw6.s 			page 115


 5107 1d9b 02       		.uleb128 0x2
 5108 1d9c 7D       		.byte	0x7d
 5109 1d9d 04       		.sleb128 4
 5110 1d9e 01       		.uleb128 0x1
 5111 1d9f 30       		.byte	0x30
 5112 1da0 00       		.byte	0
 5113 1da1 4C       		.uleb128 0x4c
 5114 1da2 42010000 		.4byte	.LVL75
 5115 1da6 E4580000 		.4byte	0x58e4
 5116 1daa B41D0000 		.4byte	0x1db4
 5117 1dae 4D       		.uleb128 0x4d
 5118 1daf 01       		.uleb128 0x1
 5119 1db0 50       		.byte	0x50
 5120 1db1 01       		.uleb128 0x1
 5121 1db2 31       		.byte	0x31
 5122 1db3 00       		.byte	0
 5123 1db4 5E       		.uleb128 0x5e
 5124 1db5 66010000 		.4byte	.LVL78
 5125 1db9 D6130000 		.4byte	0x13d6
 5126 1dbd 00       		.byte	0
 5127 1dbe 4A       		.uleb128 0x4a
 5128 1dbf 9D0F0000 		.4byte	0xf9d
 5129 1dc3 00000000 		.4byte	.LFB285
 5130 1dc7 C8020000 		.4byte	.LFE285-.LFB285
 5131 1dcb 01       		.uleb128 0x1
 5132 1dcc 9C       		.byte	0x9c
 5133 1dcd D51D0000 		.4byte	0x1dd5
 5134 1dd1 CB1E0000 		.4byte	0x1ecb
 5135 1dd5 4B       		.uleb128 0x4b
 5136 1dd6 2D2D0000 		.4byte	.LASF318
 5137 1dda 20180000 		.4byte	0x1820
 5138 1dde 5D030000 		.4byte	.LLST15
 5139 1de2 5F       		.uleb128 0x5f
 5140 1de3 8A3A0000 		.4byte	.LASF324
 5141 1de7 02       		.byte	0x2
 5142 1de8 38       		.byte	0x38
 5143 1de9 B8050000 		.4byte	0x5b8
 5144 1ded 94030000 		.4byte	.LLST16
 5145 1df1 55       		.uleb128 0x55
 5146 1df2 5A180000 		.4byte	0x185a
 5147 1df6 1A000000 		.4byte	.LBB73
 5148 1dfa 80000000 		.4byte	.Ldebug_ranges0+0x80
 5149 1dfe 02       		.byte	0x2
 5150 1dff 45       		.byte	0x45
 5151 1e00 201E0000 		.4byte	0x1e20
 5152 1e04 4F       		.uleb128 0x4f
 5153 1e05 68180000 		.4byte	0x1868
 5154 1e09 25040000 		.4byte	.LLST17
 5155 1e0d 4F       		.uleb128 0x4f
 5156 1e0e 7D180000 		.4byte	0x187d
 5157 1e12 51040000 		.4byte	.LLST18
 5158 1e16 4F       		.uleb128 0x4f
 5159 1e17 71180000 		.4byte	0x1871
 5160 1e1b 71040000 		.4byte	.LLST19
 5161 1e1f 00       		.byte	0
 5162 1e20 60       		.uleb128 0x60
 5163 1e21 98000000 		.4byte	.Ldebug_ranges0+0x98
ARM GAS  C:\Users\jrdia\AppData\Local\Temp\ccYHzYw6.s 			page 116


 5164 1e25 791E0000 		.4byte	0x1e79
 5165 1e29 61       		.uleb128 0x61
 5166 1e2a B6070000 		.4byte	.LASF323
 5167 1e2e 02       		.byte	0x2
 5168 1e2f BD       		.byte	0xbd
 5169 1e30 AD000000 		.4byte	0xad
 5170 1e34 8F040000 		.4byte	.LLST20
 5171 1e38 62       		.uleb128 0x62
 5172 1e39 0A010000 		.4byte	.LVL100
 5173 1e3d 02       		.uleb128 0x2
 5174 1e3e 75       		.byte	0x75
 5175 1e3f 00       		.sleb128 0
 5176 1e40 601E0000 		.4byte	0x1e60
 5177 1e44 4D       		.uleb128 0x4d
 5178 1e45 01       		.uleb128 0x1
 5179 1e46 51       		.byte	0x51
 5180 1e47 02       		.uleb128 0x2
 5181 1e48 74       		.byte	0x74
 5182 1e49 00       		.sleb128 0
 5183 1e4a 4D       		.uleb128 0x4d
 5184 1e4b 01       		.uleb128 0x1
 5185 1e4c 52       		.byte	0x52
 5186 1e4d 01       		.uleb128 0x1
 5187 1e4e 30       		.byte	0x30
 5188 1e4f 4D       		.uleb128 0x4d
 5189 1e50 01       		.uleb128 0x1
 5190 1e51 53       		.byte	0x53
 5191 1e52 02       		.uleb128 0x2
 5192 1e53 76       		.byte	0x76
 5193 1e54 7E       		.sleb128 -2
 5194 1e55 4D       		.uleb128 0x4d
 5195 1e56 02       		.uleb128 0x2
 5196 1e57 7D       		.byte	0x7d
 5197 1e58 00       		.sleb128 0
 5198 1e59 05       		.uleb128 0x5
 5199 1e5a F3       		.byte	0xf3
 5200 1e5b 01       		.uleb128 0x1
 5201 1e5c 51       		.byte	0x51
 5202 1e5d 23       		.byte	0x23
 5203 1e5e 0A       		.uleb128 0xa
 5204 1e5f 00       		.byte	0
 5205 1e60 4E       		.uleb128 0x4e
 5206 1e61 C2020000 		.4byte	.LVL107
 5207 1e65 4D       		.uleb128 0x4d
 5208 1e66 01       		.uleb128 0x1
 5209 1e67 50       		.byte	0x50
 5210 1e68 02       		.uleb128 0x2
 5211 1e69 74       		.byte	0x74
 5212 1e6a 00       		.sleb128 0
 5213 1e6b 4D       		.uleb128 0x4d
 5214 1e6c 01       		.uleb128 0x1
 5215 1e6d 51       		.byte	0x51
 5216 1e6e 02       		.uleb128 0x2
 5217 1e6f 76       		.byte	0x76
 5218 1e70 7F       		.sleb128 -1
 5219 1e71 4D       		.uleb128 0x4d
 5220 1e72 01       		.uleb128 0x1
ARM GAS  C:\Users\jrdia\AppData\Local\Temp\ccYHzYw6.s 			page 117


 5221 1e73 52       		.byte	0x52
 5222 1e74 02       		.uleb128 0x2
 5223 1e75 75       		.byte	0x75
 5224 1e76 09       		.sleb128 9
 5225 1e77 00       		.byte	0
 5226 1e78 00       		.byte	0
 5227 1e79 4C       		.uleb128 0x4c
 5228 1e7a 7E000000 		.4byte	.LVL94
 5229 1e7e 711C0000 		.4byte	0x1c71
 5230 1e82 8D1E0000 		.4byte	0x1e8d
 5231 1e86 4D       		.uleb128 0x4d
 5232 1e87 01       		.uleb128 0x1
 5233 1e88 50       		.byte	0x50
 5234 1e89 02       		.uleb128 0x2
 5235 1e8a 74       		.byte	0x74
 5236 1e8b 00       		.sleb128 0
 5237 1e8c 00       		.byte	0
 5238 1e8d 4C       		.uleb128 0x4c
 5239 1e8e DE010000 		.4byte	.LVL102
 5240 1e92 16140000 		.4byte	0x1416
 5241 1e96 A11E0000 		.4byte	0x1ea1
 5242 1e9a 4D       		.uleb128 0x4d
 5243 1e9b 01       		.uleb128 0x1
 5244 1e9c 53       		.byte	0x53
 5245 1e9d 02       		.uleb128 0x2
 5246 1e9e 74       		.byte	0x74
 5247 1e9f 18       		.sleb128 24
 5248 1ea0 00       		.byte	0
 5249 1ea1 5E       		.uleb128 0x5e
 5250 1ea2 10020000 		.4byte	.LVL103
 5251 1ea6 26140000 		.4byte	0x1426
 5252 1eaa 63       		.uleb128 0x63
 5253 1eab 18020000 		.4byte	.LVL104
 5254 1eaf BA1E0000 		.4byte	0x1eba
 5255 1eb3 4D       		.uleb128 0x4d
 5256 1eb4 01       		.uleb128 0x1
 5257 1eb5 50       		.byte	0x50
 5258 1eb6 02       		.uleb128 0x2
 5259 1eb7 74       		.byte	0x74
 5260 1eb8 00       		.sleb128 0
 5261 1eb9 00       		.byte	0
 5262 1eba 51       		.uleb128 0x51
 5263 1ebb 42020000 		.4byte	.LVL105
 5264 1ebf 16140000 		.4byte	0x1416
 5265 1ec3 4D       		.uleb128 0x4d
 5266 1ec4 01       		.uleb128 0x1
 5267 1ec5 53       		.byte	0x53
 5268 1ec6 02       		.uleb128 0x2
 5269 1ec7 74       		.byte	0x74
 5270 1ec8 16       		.sleb128 22
 5271 1ec9 00       		.byte	0
 5272 1eca 00       		.byte	0
 5273 1ecb 4A       		.uleb128 0x4a
 5274 1ecc 630F0000 		.4byte	0xf63
 5275 1ed0 00000000 		.4byte	.LFB289
 5276 1ed4 28000000 		.4byte	.LFE289-.LFB289
 5277 1ed8 01       		.uleb128 0x1
ARM GAS  C:\Users\jrdia\AppData\Local\Temp\ccYHzYw6.s 			page 118


 5278 1ed9 9C       		.byte	0x9c
 5279 1eda E21E0000 		.4byte	0x1ee2
 5280 1ede 2B1F0000 		.4byte	0x1f2b
 5281 1ee2 4B       		.uleb128 0x4b
 5282 1ee3 2D2D0000 		.4byte	.LASF318
 5283 1ee7 20180000 		.4byte	0x1820
 5284 1eeb CF040000 		.4byte	.LLST21
 5285 1eef 64       		.uleb128 0x64
 5286 1ef0 74500000 		.4byte	.LASF325
 5287 1ef4 02       		.byte	0x2
 5288 1ef5 8901     		.2byte	0x189
 5289 1ef7 A2000000 		.4byte	0xa2
 5290 1efb FB040000 		.4byte	.LLST22
 5291 1eff 65       		.uleb128 0x65
 5292 1f00 62756600 		.ascii	"buf\000"
 5293 1f04 02       		.byte	0x2
 5294 1f05 8A01     		.2byte	0x18a
 5295 1f07 6D0D0000 		.4byte	0xd6d
 5296 1f0b 02       		.uleb128 0x2
 5297 1f0c 91       		.byte	0x91
 5298 1f0d 74       		.sleb128 -12
 5299 1f0e 51       		.uleb128 0x51
 5300 1f0f 24000000 		.4byte	.LVL112
 5301 1f13 F6130000 		.4byte	0x13f6
 5302 1f17 4D       		.uleb128 0x4d
 5303 1f18 01       		.uleb128 0x1
 5304 1f19 52       		.byte	0x52
 5305 1f1a 02       		.uleb128 0x2
 5306 1f1b 91       		.byte	0x91
 5307 1f1c 74       		.sleb128 -12
 5308 1f1d 4D       		.uleb128 0x4d
 5309 1f1e 01       		.uleb128 0x1
 5310 1f1f 53       		.byte	0x53
 5311 1f20 01       		.uleb128 0x1
 5312 1f21 33       		.byte	0x33
 5313 1f22 4D       		.uleb128 0x4d
 5314 1f23 02       		.uleb128 0x2
 5315 1f24 7D       		.byte	0x7d
 5316 1f25 04       		.sleb128 4
 5317 1f26 02       		.uleb128 0x2
 5318 1f27 74       		.byte	0x74
 5319 1f28 00       		.sleb128 0
 5320 1f29 00       		.byte	0
 5321 1f2a 00       		.byte	0
 5322 1f2b 66       		.uleb128 0x66
 5323 1f2c B6530000 		.4byte	.LASF326
 5324 1f30 0D       		.byte	0xd
 5325 1f31 16       		.byte	0x16
 5326 1f32 89000000 		.4byte	0x89
 5327 1f36 66       		.uleb128 0x66
 5328 1f37 AC240000 		.4byte	.LASF327
 5329 1f3b 0E       		.byte	0xe
 5330 1f3c 19       		.byte	0x19
 5331 1f3d 89000000 		.4byte	0x89
 5332 1f41 66       		.uleb128 0x66
 5333 1f42 F5620000 		.4byte	.LASF328
 5334 1f46 0E       		.byte	0xe
ARM GAS  C:\Users\jrdia\AppData\Local\Temp\ccYHzYw6.s 			page 119


 5335 1f47 1A       		.byte	0x1a
 5336 1f48 89000000 		.4byte	0x89
 5337 1f4c 66       		.uleb128 0x66
 5338 1f4d 0E140000 		.4byte	.LASF329
 5339 1f51 0E       		.byte	0xe
 5340 1f52 1B       		.byte	0x1b
 5341 1f53 89000000 		.4byte	0x89
 5342 1f57 28       		.uleb128 0x28
 5343 1f58 E0000000 		.4byte	0xe0
 5344 1f5c 671F0000 		.4byte	0x1f67
 5345 1f60 29       		.uleb128 0x29
 5346 1f61 C5000000 		.4byte	0xc5
 5347 1f65 01       		.byte	0x1
 5348 1f66 00       		.byte	0
 5349 1f67 67       		.uleb128 0x67
 5350 1f68 0B010000 		.4byte	.LASF330
 5351 1f6c 0F       		.byte	0xf
 5352 1f6d 16       		.byte	0x16
 5353 1f6e 721F0000 		.4byte	0x1f72
 5354 1f72 08       		.uleb128 0x8
 5355 1f73 571F0000 		.4byte	0x1f57
 5356 1f77 28       		.uleb128 0x28
 5357 1f78 E0000000 		.4byte	0xe0
 5358 1f7c 871F0000 		.4byte	0x1f87
 5359 1f80 29       		.uleb128 0x29
 5360 1f81 C5000000 		.4byte	0xc5
 5361 1f85 02       		.byte	0x2
 5362 1f86 00       		.byte	0
 5363 1f87 67       		.uleb128 0x67
 5364 1f88 B7570000 		.4byte	.LASF331
 5365 1f8c 0F       		.byte	0xf
 5366 1f8d 17       		.byte	0x17
 5367 1f8e 921F0000 		.4byte	0x1f92
 5368 1f92 08       		.uleb128 0x8
 5369 1f93 771F0000 		.4byte	0x1f77
 5370 1f97 67       		.uleb128 0x67
 5371 1f98 3D5A0000 		.4byte	.LASF332
 5372 1f9c 0F       		.byte	0xf
 5373 1f9d 18       		.byte	0x18
 5374 1f9e A21F0000 		.4byte	0x1fa2
 5375 1fa2 08       		.uleb128 0x8
 5376 1fa3 571F0000 		.4byte	0x1f57
 5377 1fa7 67       		.uleb128 0x67
 5378 1fa8 7D390000 		.4byte	.LASF333
 5379 1fac 0F       		.byte	0xf
 5380 1fad 19       		.byte	0x19
 5381 1fae B21F0000 		.4byte	0x1fb2
 5382 1fb2 08       		.uleb128 0x8
 5383 1fb3 771F0000 		.4byte	0x1f77
 5384 1fb7 28       		.uleb128 0x28
 5385 1fb8 E0000000 		.4byte	0xe0
 5386 1fbc C71F0000 		.4byte	0x1fc7
 5387 1fc0 29       		.uleb128 0x29
 5388 1fc1 C5000000 		.4byte	0xc5
 5389 1fc5 03       		.byte	0x3
 5390 1fc6 00       		.byte	0
 5391 1fc7 67       		.uleb128 0x67
ARM GAS  C:\Users\jrdia\AppData\Local\Temp\ccYHzYw6.s 			page 120


 5392 1fc8 D4430000 		.4byte	.LASF334
 5393 1fcc 0F       		.byte	0xf
 5394 1fcd 1A       		.byte	0x1a
 5395 1fce D21F0000 		.4byte	0x1fd2
 5396 1fd2 08       		.uleb128 0x8
 5397 1fd3 B71F0000 		.4byte	0x1fb7
 5398 1fd7 28       		.uleb128 0x28
 5399 1fd8 E0000000 		.4byte	0xe0
 5400 1fdc E71F0000 		.4byte	0x1fe7
 5401 1fe0 29       		.uleb128 0x29
 5402 1fe1 C5000000 		.4byte	0xc5
 5403 1fe5 05       		.byte	0x5
 5404 1fe6 00       		.byte	0
 5405 1fe7 67       		.uleb128 0x67
 5406 1fe8 BB340000 		.4byte	.LASF335
 5407 1fec 0F       		.byte	0xf
 5408 1fed 1D       		.byte	0x1d
 5409 1fee F21F0000 		.4byte	0x1ff2
 5410 1ff2 08       		.uleb128 0x8
 5411 1ff3 D71F0000 		.4byte	0x1fd7
 5412 1ff7 28       		.uleb128 0x28
 5413 1ff8 E0000000 		.4byte	0xe0
 5414 1ffc 07200000 		.4byte	0x2007
 5415 2000 29       		.uleb128 0x29
 5416 2001 C5000000 		.4byte	0xc5
 5417 2005 11       		.byte	0x11
 5418 2006 00       		.byte	0
 5419 2007 67       		.uleb128 0x67
 5420 2008 1A5E0000 		.4byte	.LASF336
 5421 200c 0F       		.byte	0xf
 5422 200d 1E       		.byte	0x1e
 5423 200e 12200000 		.4byte	0x2012
 5424 2012 08       		.uleb128 0x8
 5425 2013 F71F0000 		.4byte	0x1ff7
 5426 2017 28       		.uleb128 0x28
 5427 2018 E0000000 		.4byte	0xe0
 5428 201c 27200000 		.4byte	0x2027
 5429 2020 29       		.uleb128 0x29
 5430 2021 C5000000 		.4byte	0xc5
 5431 2025 0A       		.byte	0xa
 5432 2026 00       		.byte	0
 5433 2027 67       		.uleb128 0x67
 5434 2028 54280000 		.4byte	.LASF337
 5435 202c 0F       		.byte	0xf
 5436 202d 1F       		.byte	0x1f
 5437 202e 32200000 		.4byte	0x2032
 5438 2032 08       		.uleb128 0x8
 5439 2033 17200000 		.4byte	0x2017
 5440 2037 28       		.uleb128 0x28
 5441 2038 E0000000 		.4byte	0xe0
 5442 203c 47200000 		.4byte	0x2047
 5443 2040 29       		.uleb128 0x29
 5444 2041 C5000000 		.4byte	0xc5
 5445 2045 08       		.byte	0x8
 5446 2046 00       		.byte	0
 5447 2047 67       		.uleb128 0x67
 5448 2048 F8260000 		.4byte	.LASF338
ARM GAS  C:\Users\jrdia\AppData\Local\Temp\ccYHzYw6.s 			page 121


 5449 204c 0F       		.byte	0xf
 5450 204d 20       		.byte	0x20
 5451 204e 52200000 		.4byte	0x2052
 5452 2052 08       		.uleb128 0x8
 5453 2053 37200000 		.4byte	0x2037
 5454 2057 28       		.uleb128 0x28
 5455 2058 E0000000 		.4byte	0xe0
 5456 205c 67200000 		.4byte	0x2067
 5457 2060 29       		.uleb128 0x29
 5458 2061 C5000000 		.4byte	0xc5
 5459 2065 0B       		.byte	0xb
 5460 2066 00       		.byte	0
 5461 2067 67       		.uleb128 0x67
 5462 2068 A4480000 		.4byte	.LASF339
 5463 206c 0F       		.byte	0xf
 5464 206d 21       		.byte	0x21
 5465 206e 72200000 		.4byte	0x2072
 5466 2072 08       		.uleb128 0x8
 5467 2073 57200000 		.4byte	0x2057
 5468 2077 67       		.uleb128 0x67
 5469 2078 99490000 		.4byte	.LASF340
 5470 207c 0F       		.byte	0xf
 5471 207d 22       		.byte	0x22
 5472 207e 82200000 		.4byte	0x2082
 5473 2082 08       		.uleb128 0x8
 5474 2083 17200000 		.4byte	0x2017
 5475 2087 28       		.uleb128 0x28
 5476 2088 E0000000 		.4byte	0xe0
 5477 208c 97200000 		.4byte	0x2097
 5478 2090 29       		.uleb128 0x29
 5479 2091 C5000000 		.4byte	0xc5
 5480 2095 0D       		.byte	0xd
 5481 2096 00       		.byte	0
 5482 2097 67       		.uleb128 0x67
 5483 2098 28070000 		.4byte	.LASF341
 5484 209c 0F       		.byte	0xf
 5485 209d 23       		.byte	0x23
 5486 209e A2200000 		.4byte	0x20a2
 5487 20a2 08       		.uleb128 0x8
 5488 20a3 87200000 		.4byte	0x2087
 5489 20a7 67       		.uleb128 0x67
 5490 20a8 5C2C0000 		.4byte	.LASF342
 5491 20ac 0F       		.byte	0xf
 5492 20ad 24       		.byte	0x24
 5493 20ae B2200000 		.4byte	0x20b2
 5494 20b2 08       		.uleb128 0x8
 5495 20b3 57200000 		.4byte	0x2057
 5496 20b7 28       		.uleb128 0x28
 5497 20b8 E0000000 		.4byte	0xe0
 5498 20bc C7200000 		.4byte	0x20c7
 5499 20c0 29       		.uleb128 0x29
 5500 20c1 C5000000 		.4byte	0xc5
 5501 20c5 04       		.byte	0x4
 5502 20c6 00       		.byte	0
 5503 20c7 67       		.uleb128 0x67
 5504 20c8 41120000 		.4byte	.LASF343
 5505 20cc 0F       		.byte	0xf
ARM GAS  C:\Users\jrdia\AppData\Local\Temp\ccYHzYw6.s 			page 122


 5506 20cd 25       		.byte	0x25
 5507 20ce D2200000 		.4byte	0x20d2
 5508 20d2 08       		.uleb128 0x8
 5509 20d3 B7200000 		.4byte	0x20b7
 5510 20d7 28       		.uleb128 0x28
 5511 20d8 E0000000 		.4byte	0xe0
 5512 20dc E7200000 		.4byte	0x20e7
 5513 20e0 29       		.uleb128 0x29
 5514 20e1 C5000000 		.4byte	0xc5
 5515 20e5 06       		.byte	0x6
 5516 20e6 00       		.byte	0
 5517 20e7 67       		.uleb128 0x67
 5518 20e8 E1020000 		.4byte	.LASF344
 5519 20ec 0F       		.byte	0xf
 5520 20ed 26       		.byte	0x26
 5521 20ee F2200000 		.4byte	0x20f2
 5522 20f2 08       		.uleb128 0x8
 5523 20f3 D7200000 		.4byte	0x20d7
 5524 20f7 28       		.uleb128 0x28
 5525 20f8 E0000000 		.4byte	0xe0
 5526 20fc 07210000 		.4byte	0x2107
 5527 2100 29       		.uleb128 0x29
 5528 2101 C5000000 		.4byte	0xc5
 5529 2105 07       		.byte	0x7
 5530 2106 00       		.byte	0
 5531 2107 67       		.uleb128 0x67
 5532 2108 32090000 		.4byte	.LASF345
 5533 210c 0F       		.byte	0xf
 5534 210d 27       		.byte	0x27
 5535 210e 12210000 		.4byte	0x2112
 5536 2112 08       		.uleb128 0x8
 5537 2113 F7200000 		.4byte	0x20f7
 5538 2117 67       		.uleb128 0x67
 5539 2118 29300000 		.4byte	.LASF346
 5540 211c 0F       		.byte	0xf
 5541 211d 28       		.byte	0x28
 5542 211e 22210000 		.4byte	0x2122
 5543 2122 08       		.uleb128 0x8
 5544 2123 B71F0000 		.4byte	0x1fb7
 5545 2127 67       		.uleb128 0x67
 5546 2128 775E0000 		.4byte	.LASF347
 5547 212c 0F       		.byte	0xf
 5548 212d 29       		.byte	0x29
 5549 212e 32210000 		.4byte	0x2132
 5550 2132 08       		.uleb128 0x8
 5551 2133 37200000 		.4byte	0x2037
 5552 2137 28       		.uleb128 0x28
 5553 2138 E0000000 		.4byte	0xe0
 5554 213c 47210000 		.4byte	0x2147
 5555 2140 29       		.uleb128 0x29
 5556 2141 C5000000 		.4byte	0xc5
 5557 2145 09       		.byte	0x9
 5558 2146 00       		.byte	0
 5559 2147 67       		.uleb128 0x67
 5560 2148 885C0000 		.4byte	.LASF348
 5561 214c 0F       		.byte	0xf
 5562 214d 2A       		.byte	0x2a
ARM GAS  C:\Users\jrdia\AppData\Local\Temp\ccYHzYw6.s 			page 123


 5563 214e 52210000 		.4byte	0x2152
 5564 2152 08       		.uleb128 0x8
 5565 2153 37210000 		.4byte	0x2137
 5566 2157 67       		.uleb128 0x67
 5567 2158 3F3D0000 		.4byte	.LASF349
 5568 215c 0F       		.byte	0xf
 5569 215d 2B       		.byte	0x2b
 5570 215e 62210000 		.4byte	0x2162
 5571 2162 08       		.uleb128 0x8
 5572 2163 B71F0000 		.4byte	0x1fb7
 5573 2167 67       		.uleb128 0x67
 5574 2168 FE500000 		.4byte	.LASF350
 5575 216c 0F       		.byte	0xf
 5576 216d 2C       		.byte	0x2c
 5577 216e 72210000 		.4byte	0x2172
 5578 2172 08       		.uleb128 0x8
 5579 2173 F7200000 		.4byte	0x20f7
 5580 2177 28       		.uleb128 0x28
 5581 2178 E0000000 		.4byte	0xe0
 5582 217c 87210000 		.4byte	0x2187
 5583 2180 29       		.uleb128 0x29
 5584 2181 C5000000 		.4byte	0xc5
 5585 2185 0E       		.byte	0xe
 5586 2186 00       		.byte	0
 5587 2187 67       		.uleb128 0x67
 5588 2188 011F0000 		.4byte	.LASF351
 5589 218c 0F       		.byte	0xf
 5590 218d 2D       		.byte	0x2d
 5591 218e 92210000 		.4byte	0x2192
 5592 2192 08       		.uleb128 0x8
 5593 2193 77210000 		.4byte	0x2177
 5594 2197 67       		.uleb128 0x67
 5595 2198 C8260000 		.4byte	.LASF352
 5596 219c 0F       		.byte	0xf
 5597 219d 2E       		.byte	0x2e
 5598 219e A2210000 		.4byte	0x21a2
 5599 21a2 08       		.uleb128 0x8
 5600 21a3 87200000 		.4byte	0x2087
 5601 21a7 67       		.uleb128 0x67
 5602 21a8 134E0000 		.4byte	.LASF353
 5603 21ac 0F       		.byte	0xf
 5604 21ad 2F       		.byte	0x2f
 5605 21ae B2210000 		.4byte	0x21b2
 5606 21b2 08       		.uleb128 0x8
 5607 21b3 F7200000 		.4byte	0x20f7
 5608 21b7 67       		.uleb128 0x67
 5609 21b8 F7070000 		.4byte	.LASF354
 5610 21bc 0F       		.byte	0xf
 5611 21bd 30       		.byte	0x30
 5612 21be C2210000 		.4byte	0x21c2
 5613 21c2 08       		.uleb128 0x8
 5614 21c3 D71F0000 		.4byte	0x1fd7
 5615 21c7 67       		.uleb128 0x67
 5616 21c8 DA190000 		.4byte	.LASF355
 5617 21cc 0F       		.byte	0xf
 5618 21cd 31       		.byte	0x31
 5619 21ce D2210000 		.4byte	0x21d2
ARM GAS  C:\Users\jrdia\AppData\Local\Temp\ccYHzYw6.s 			page 124


 5620 21d2 08       		.uleb128 0x8
 5621 21d3 87200000 		.4byte	0x2087
 5622 21d7 67       		.uleb128 0x67
 5623 21d8 23160000 		.4byte	.LASF356
 5624 21dc 0F       		.byte	0xf
 5625 21dd 32       		.byte	0x32
 5626 21de E2210000 		.4byte	0x21e2
 5627 21e2 08       		.uleb128 0x8
 5628 21e3 D71F0000 		.4byte	0x1fd7
 5629 21e7 28       		.uleb128 0x28
 5630 21e8 E0000000 		.4byte	0xe0
 5631 21ec F7210000 		.4byte	0x21f7
 5632 21f0 29       		.uleb128 0x29
 5633 21f1 C5000000 		.4byte	0xc5
 5634 21f5 14       		.byte	0x14
 5635 21f6 00       		.byte	0
 5636 21f7 67       		.uleb128 0x67
 5637 21f8 EF320000 		.4byte	.LASF357
 5638 21fc 0F       		.byte	0xf
 5639 21fd 33       		.byte	0x33
 5640 21fe 02220000 		.4byte	0x2202
 5641 2202 08       		.uleb128 0x8
 5642 2203 E7210000 		.4byte	0x21e7
 5643 2207 67       		.uleb128 0x67
 5644 2208 D84D0000 		.4byte	.LASF358
 5645 220c 0F       		.byte	0xf
 5646 220d 34       		.byte	0x34
 5647 220e 12220000 		.4byte	0x2212
 5648 2212 08       		.uleb128 0x8
 5649 2213 B71F0000 		.4byte	0x1fb7
 5650 2217 67       		.uleb128 0x67
 5651 2218 2B350000 		.4byte	.LASF359
 5652 221c 0F       		.byte	0xf
 5653 221d 35       		.byte	0x35
 5654 221e 22220000 		.4byte	0x2222
 5655 2222 08       		.uleb128 0x8
 5656 2223 37200000 		.4byte	0x2037
 5657 2227 67       		.uleb128 0x67
 5658 2228 F92C0000 		.4byte	.LASF360
 5659 222c 0F       		.byte	0xf
 5660 222d 36       		.byte	0x36
 5661 222e 32220000 		.4byte	0x2232
 5662 2232 08       		.uleb128 0x8
 5663 2233 D7200000 		.4byte	0x20d7
 5664 2237 67       		.uleb128 0x67
 5665 2238 FB2A0000 		.4byte	.LASF361
 5666 223c 0F       		.byte	0xf
 5667 223d 37       		.byte	0x37
 5668 223e 42220000 		.4byte	0x2242
 5669 2242 08       		.uleb128 0x8
 5670 2243 37200000 		.4byte	0x2037
 5671 2247 67       		.uleb128 0x67
 5672 2248 A0550000 		.4byte	.LASF362
 5673 224c 0F       		.byte	0xf
 5674 224d 38       		.byte	0x38
 5675 224e 52220000 		.4byte	0x2252
 5676 2252 08       		.uleb128 0x8
ARM GAS  C:\Users\jrdia\AppData\Local\Temp\ccYHzYw6.s 			page 125


 5677 2253 17200000 		.4byte	0x2017
 5678 2257 67       		.uleb128 0x67
 5679 2258 6B060000 		.4byte	.LASF363
 5680 225c 0F       		.byte	0xf
 5681 225d 3B       		.byte	0x3b
 5682 225e 62220000 		.4byte	0x2262
 5683 2262 08       		.uleb128 0x8
 5684 2263 F7200000 		.4byte	0x20f7
 5685 2267 67       		.uleb128 0x67
 5686 2268 710C0000 		.4byte	.LASF364
 5687 226c 0F       		.byte	0xf
 5688 226d 3C       		.byte	0x3c
 5689 226e 72220000 		.4byte	0x2272
 5690 2272 08       		.uleb128 0x8
 5691 2273 D71F0000 		.4byte	0x1fd7
 5692 2277 67       		.uleb128 0x67
 5693 2278 77040000 		.4byte	.LASF365
 5694 227c 0F       		.byte	0xf
 5695 227d 3D       		.byte	0x3d
 5696 227e 82220000 		.4byte	0x2282
 5697 2282 08       		.uleb128 0x8
 5698 2283 37200000 		.4byte	0x2037
 5699 2287 67       		.uleb128 0x67
 5700 2288 D6350000 		.4byte	.LASF366
 5701 228c 0F       		.byte	0xf
 5702 228d 3E       		.byte	0x3e
 5703 228e 92220000 		.4byte	0x2292
 5704 2292 08       		.uleb128 0x8
 5705 2293 37200000 		.4byte	0x2037
 5706 2297 67       		.uleb128 0x67
 5707 2298 25450000 		.4byte	.LASF367
 5708 229c 0F       		.byte	0xf
 5709 229d 3F       		.byte	0x3f
 5710 229e A2220000 		.4byte	0x22a2
 5711 22a2 08       		.uleb128 0x8
 5712 22a3 B7200000 		.4byte	0x20b7
 5713 22a7 67       		.uleb128 0x67
 5714 22a8 DD1F0000 		.4byte	.LASF368
 5715 22ac 0F       		.byte	0xf
 5716 22ad 40       		.byte	0x40
 5717 22ae B2220000 		.4byte	0x22b2
 5718 22b2 08       		.uleb128 0x8
 5719 22b3 D7200000 		.4byte	0x20d7
 5720 22b7 28       		.uleb128 0x28
 5721 22b8 E0000000 		.4byte	0xe0
 5722 22bc C7220000 		.4byte	0x22c7
 5723 22c0 29       		.uleb128 0x29
 5724 22c1 C5000000 		.4byte	0xc5
 5725 22c5 0F       		.byte	0xf
 5726 22c6 00       		.byte	0
 5727 22c7 67       		.uleb128 0x67
 5728 22c8 3F150000 		.4byte	.LASF369
 5729 22cc 0F       		.byte	0xf
 5730 22cd 41       		.byte	0x41
 5731 22ce D2220000 		.4byte	0x22d2
 5732 22d2 08       		.uleb128 0x8
 5733 22d3 B7220000 		.4byte	0x22b7
ARM GAS  C:\Users\jrdia\AppData\Local\Temp\ccYHzYw6.s 			page 126


 5734 22d7 28       		.uleb128 0x28
 5735 22d8 E0000000 		.4byte	0xe0
 5736 22dc E7220000 		.4byte	0x22e7
 5737 22e0 29       		.uleb128 0x29
 5738 22e1 C5000000 		.4byte	0xc5
 5739 22e5 13       		.byte	0x13
 5740 22e6 00       		.byte	0
 5741 22e7 67       		.uleb128 0x67
 5742 22e8 19580000 		.4byte	.LASF370
 5743 22ec 0F       		.byte	0xf
 5744 22ed 42       		.byte	0x42
 5745 22ee F2220000 		.4byte	0x22f2
 5746 22f2 08       		.uleb128 0x8
 5747 22f3 D7220000 		.4byte	0x22d7
 5748 22f7 67       		.uleb128 0x67
 5749 22f8 80210000 		.4byte	.LASF371
 5750 22fc 0F       		.byte	0xf
 5751 22fd 43       		.byte	0x43
 5752 22fe 02230000 		.4byte	0x2302
 5753 2302 08       		.uleb128 0x8
 5754 2303 571F0000 		.4byte	0x1f57
 5755 2307 67       		.uleb128 0x67
 5756 2308 8B210000 		.4byte	.LASF372
 5757 230c 0F       		.byte	0xf
 5758 230d 44       		.byte	0x44
 5759 230e 12230000 		.4byte	0x2312
 5760 2312 08       		.uleb128 0x8
 5761 2313 571F0000 		.4byte	0x1f57
 5762 2317 67       		.uleb128 0x67
 5763 2318 96210000 		.4byte	.LASF373
 5764 231c 0F       		.byte	0xf
 5765 231d 45       		.byte	0x45
 5766 231e 22230000 		.4byte	0x2322
 5767 2322 08       		.uleb128 0x8
 5768 2323 571F0000 		.4byte	0x1f57
 5769 2327 67       		.uleb128 0x67
 5770 2328 8B3B0000 		.4byte	.LASF374
 5771 232c 0F       		.byte	0xf
 5772 232d 46       		.byte	0x46
 5773 232e 32230000 		.4byte	0x2332
 5774 2332 08       		.uleb128 0x8
 5775 2333 771F0000 		.4byte	0x1f77
 5776 2337 67       		.uleb128 0x67
 5777 2338 973B0000 		.4byte	.LASF375
 5778 233c 0F       		.byte	0xf
 5779 233d 47       		.byte	0x47
 5780 233e 42230000 		.4byte	0x2342
 5781 2342 08       		.uleb128 0x8
 5782 2343 771F0000 		.4byte	0x1f77
 5783 2347 67       		.uleb128 0x67
 5784 2348 A33B0000 		.4byte	.LASF376
 5785 234c 0F       		.byte	0xf
 5786 234d 48       		.byte	0x48
 5787 234e 52230000 		.4byte	0x2352
 5788 2352 08       		.uleb128 0x8
 5789 2353 771F0000 		.4byte	0x1f77
 5790 2357 67       		.uleb128 0x67
ARM GAS  C:\Users\jrdia\AppData\Local\Temp\ccYHzYw6.s 			page 127


 5791 2358 C62C0000 		.4byte	.LASF377
 5792 235c 0F       		.byte	0xf
 5793 235d 49       		.byte	0x49
 5794 235e 62230000 		.4byte	0x2362
 5795 2362 08       		.uleb128 0x8
 5796 2363 D7200000 		.4byte	0x20d7
 5797 2367 67       		.uleb128 0x67
 5798 2368 9C4A0000 		.4byte	.LASF378
 5799 236c 0F       		.byte	0xf
 5800 236d 4A       		.byte	0x4a
 5801 236e 72230000 		.4byte	0x2372
 5802 2372 08       		.uleb128 0x8
 5803 2373 B7200000 		.4byte	0x20b7
 5804 2377 67       		.uleb128 0x67
 5805 2378 F60A0000 		.4byte	.LASF379
 5806 237c 0F       		.byte	0xf
 5807 237d 4B       		.byte	0x4b
 5808 237e 82230000 		.4byte	0x2382
 5809 2382 08       		.uleb128 0x8
 5810 2383 D71F0000 		.4byte	0x1fd7
 5811 2387 67       		.uleb128 0x67
 5812 2388 74590000 		.4byte	.LASF380
 5813 238c 0F       		.byte	0xf
 5814 238d 4C       		.byte	0x4c
 5815 238e 92230000 		.4byte	0x2392
 5816 2392 08       		.uleb128 0x8
 5817 2393 17200000 		.4byte	0x2017
 5818 2397 67       		.uleb128 0x67
 5819 2398 BB500000 		.4byte	.LASF381
 5820 239c 0F       		.byte	0xf
 5821 239d 4D       		.byte	0x4d
 5822 239e A2230000 		.4byte	0x23a2
 5823 23a2 08       		.uleb128 0x8
 5824 23a3 57200000 		.4byte	0x2057
 5825 23a7 67       		.uleb128 0x67
 5826 23a8 D8610000 		.4byte	.LASF382
 5827 23ac 0F       		.byte	0xf
 5828 23ad 4E       		.byte	0x4e
 5829 23ae B2230000 		.4byte	0x23b2
 5830 23b2 08       		.uleb128 0x8
 5831 23b3 17200000 		.4byte	0x2017
 5832 23b7 67       		.uleb128 0x67
 5833 23b8 4C110000 		.4byte	.LASF383
 5834 23bc 0F       		.byte	0xf
 5835 23bd 4F       		.byte	0x4f
 5836 23be C2230000 		.4byte	0x23c2
 5837 23c2 08       		.uleb128 0x8
 5838 23c3 87200000 		.4byte	0x2087
 5839 23c7 67       		.uleb128 0x67
 5840 23c8 072F0000 		.4byte	.LASF384
 5841 23cc 0F       		.byte	0xf
 5842 23cd 50       		.byte	0x50
 5843 23ce D2230000 		.4byte	0x23d2
 5844 23d2 08       		.uleb128 0x8
 5845 23d3 D71F0000 		.4byte	0x1fd7
 5846 23d7 67       		.uleb128 0x67
 5847 23d8 434D0000 		.4byte	.LASF385
ARM GAS  C:\Users\jrdia\AppData\Local\Temp\ccYHzYw6.s 			page 128


 5848 23dc 0F       		.byte	0xf
 5849 23dd 51       		.byte	0x51
 5850 23de E2230000 		.4byte	0x23e2
 5851 23e2 08       		.uleb128 0x8
 5852 23e3 B71F0000 		.4byte	0x1fb7
 5853 23e7 67       		.uleb128 0x67
 5854 23e8 BC410000 		.4byte	.LASF386
 5855 23ec 0F       		.byte	0xf
 5856 23ed 52       		.byte	0x52
 5857 23ee F2230000 		.4byte	0x23f2
 5858 23f2 08       		.uleb128 0x8
 5859 23f3 771F0000 		.4byte	0x1f77
 5860 23f7 67       		.uleb128 0x67
 5861 23f8 C8410000 		.4byte	.LASF387
 5862 23fc 0F       		.byte	0xf
 5863 23fd 53       		.byte	0x53
 5864 23fe 02240000 		.4byte	0x2402
 5865 2402 08       		.uleb128 0x8
 5866 2403 771F0000 		.4byte	0x1f77
 5867 2407 67       		.uleb128 0x67
 5868 2408 D4410000 		.4byte	.LASF388
 5869 240c 0F       		.byte	0xf
 5870 240d 54       		.byte	0x54
 5871 240e 12240000 		.4byte	0x2412
 5872 2412 08       		.uleb128 0x8
 5873 2413 771F0000 		.4byte	0x1f77
 5874 2417 67       		.uleb128 0x67
 5875 2418 22010000 		.4byte	.LASF389
 5876 241c 0F       		.byte	0xf
 5877 241d 55       		.byte	0x55
 5878 241e 22240000 		.4byte	0x2422
 5879 2422 08       		.uleb128 0x8
 5880 2423 B7200000 		.4byte	0x20b7
 5881 2427 67       		.uleb128 0x67
 5882 2428 30010000 		.4byte	.LASF390
 5883 242c 0F       		.byte	0xf
 5884 242d 56       		.byte	0x56
 5885 242e 32240000 		.4byte	0x2432
 5886 2432 08       		.uleb128 0x8
 5887 2433 B7200000 		.4byte	0x20b7
 5888 2437 67       		.uleb128 0x67
 5889 2438 14390000 		.4byte	.LASF391
 5890 243c 0F       		.byte	0xf
 5891 243d 57       		.byte	0x57
 5892 243e 42240000 		.4byte	0x2442
 5893 2442 08       		.uleb128 0x8
 5894 2443 B7200000 		.4byte	0x20b7
 5895 2447 67       		.uleb128 0x67
 5896 2448 B93D0000 		.4byte	.LASF392
 5897 244c 0F       		.byte	0xf
 5898 244d 58       		.byte	0x58
 5899 244e 52240000 		.4byte	0x2452
 5900 2452 08       		.uleb128 0x8
 5901 2453 B71F0000 		.4byte	0x1fb7
 5902 2457 67       		.uleb128 0x67
 5903 2458 CD580000 		.4byte	.LASF393
 5904 245c 0F       		.byte	0xf
ARM GAS  C:\Users\jrdia\AppData\Local\Temp\ccYHzYw6.s 			page 129


 5905 245d 59       		.byte	0x59
 5906 245e 62240000 		.4byte	0x2462
 5907 2462 08       		.uleb128 0x8
 5908 2463 87200000 		.4byte	0x2087
 5909 2467 67       		.uleb128 0x67
 5910 2468 56500000 		.4byte	.LASF394
 5911 246c 0F       		.byte	0xf
 5912 246d 5A       		.byte	0x5a
 5913 246e 72240000 		.4byte	0x2472
 5914 2472 08       		.uleb128 0x8
 5915 2473 37200000 		.4byte	0x2037
 5916 2477 67       		.uleb128 0x67
 5917 2478 DA1A0000 		.4byte	.LASF395
 5918 247c 0F       		.byte	0xf
 5919 247d 5B       		.byte	0x5b
 5920 247e 82240000 		.4byte	0x2482
 5921 2482 08       		.uleb128 0x8
 5922 2483 37200000 		.4byte	0x2037
 5923 2487 28       		.uleb128 0x28
 5924 2488 E0000000 		.4byte	0xe0
 5925 248c 97240000 		.4byte	0x2497
 5926 2490 29       		.uleb128 0x29
 5927 2491 C5000000 		.4byte	0xc5
 5928 2495 0C       		.byte	0xc
 5929 2496 00       		.byte	0
 5930 2497 67       		.uleb128 0x67
 5931 2498 D8640000 		.4byte	.LASF396
 5932 249c 0F       		.byte	0xf
 5933 249d 5C       		.byte	0x5c
 5934 249e A2240000 		.4byte	0x24a2
 5935 24a2 08       		.uleb128 0x8
 5936 24a3 87240000 		.4byte	0x2487
 5937 24a7 67       		.uleb128 0x67
 5938 24a8 02130000 		.4byte	.LASF397
 5939 24ac 0F       		.byte	0xf
 5940 24ad 5D       		.byte	0x5d
 5941 24ae B2240000 		.4byte	0x24b2
 5942 24b2 08       		.uleb128 0x8
 5943 24b3 37210000 		.4byte	0x2137
 5944 24b7 67       		.uleb128 0x67
 5945 24b8 FA400000 		.4byte	.LASF398
 5946 24bc 0F       		.byte	0xf
 5947 24bd 5E       		.byte	0x5e
 5948 24be C2240000 		.4byte	0x24c2
 5949 24c2 08       		.uleb128 0x8
 5950 24c3 17200000 		.4byte	0x2017
 5951 24c7 28       		.uleb128 0x28
 5952 24c8 E0000000 		.4byte	0xe0
 5953 24cc D7240000 		.4byte	0x24d7
 5954 24d0 29       		.uleb128 0x29
 5955 24d1 C5000000 		.4byte	0xc5
 5956 24d5 10       		.byte	0x10
 5957 24d6 00       		.byte	0
 5958 24d7 67       		.uleb128 0x67
 5959 24d8 C9090000 		.4byte	.LASF399
 5960 24dc 0F       		.byte	0xf
 5961 24dd 5F       		.byte	0x5f
ARM GAS  C:\Users\jrdia\AppData\Local\Temp\ccYHzYw6.s 			page 130


 5962 24de E2240000 		.4byte	0x24e2
 5963 24e2 08       		.uleb128 0x8
 5964 24e3 C7240000 		.4byte	0x24c7
 5965 24e7 67       		.uleb128 0x67
 5966 24e8 DA220000 		.4byte	.LASF400
 5967 24ec 0F       		.byte	0xf
 5968 24ed 60       		.byte	0x60
 5969 24ee F2240000 		.4byte	0x24f2
 5970 24f2 08       		.uleb128 0x8
 5971 24f3 87200000 		.4byte	0x2087
 5972 24f7 67       		.uleb128 0x67
 5973 24f8 79250000 		.4byte	.LASF401
 5974 24fc 0F       		.byte	0xf
 5975 24fd 61       		.byte	0x61
 5976 24fe 02250000 		.4byte	0x2502
 5977 2502 08       		.uleb128 0x8
 5978 2503 87240000 		.4byte	0x2487
 5979 2507 67       		.uleb128 0x67
 5980 2508 F84B0000 		.4byte	.LASF402
 5981 250c 0F       		.byte	0xf
 5982 250d 62       		.byte	0x62
 5983 250e 12250000 		.4byte	0x2512
 5984 2512 08       		.uleb128 0x8
 5985 2513 87200000 		.4byte	0x2087
 5986 2517 67       		.uleb128 0x67
 5987 2518 67080000 		.4byte	.LASF403
 5988 251c 0F       		.byte	0xf
 5989 251d 63       		.byte	0x63
 5990 251e 22250000 		.4byte	0x2522
 5991 2522 08       		.uleb128 0x8
 5992 2523 87200000 		.4byte	0x2087
 5993 2527 67       		.uleb128 0x67
 5994 2528 CE5C0000 		.4byte	.LASF404
 5995 252c 0F       		.byte	0xf
 5996 252d 64       		.byte	0x64
 5997 252e 32250000 		.4byte	0x2532
 5998 2532 08       		.uleb128 0x8
 5999 2533 B7220000 		.4byte	0x22b7
 6000 2537 67       		.uleb128 0x67
 6001 2538 AE4B0000 		.4byte	.LASF405
 6002 253c 0F       		.byte	0xf
 6003 253d 65       		.byte	0x65
 6004 253e 42250000 		.4byte	0x2542
 6005 2542 08       		.uleb128 0x8
 6006 2543 77210000 		.4byte	0x2177
 6007 2547 67       		.uleb128 0x67
 6008 2548 543A0000 		.4byte	.LASF406
 6009 254c 0F       		.byte	0xf
 6010 254d 66       		.byte	0x66
 6011 254e 52250000 		.4byte	0x2552
 6012 2552 08       		.uleb128 0x8
 6013 2553 87200000 		.4byte	0x2087
 6014 2557 67       		.uleb128 0x67
 6015 2558 A1140000 		.4byte	.LASF407
 6016 255c 0F       		.byte	0xf
 6017 255d 67       		.byte	0x67
 6018 255e 62250000 		.4byte	0x2562
ARM GAS  C:\Users\jrdia\AppData\Local\Temp\ccYHzYw6.s 			page 131


 6019 2562 08       		.uleb128 0x8
 6020 2563 57200000 		.4byte	0x2057
 6021 2567 67       		.uleb128 0x67
 6022 2568 7F5F0000 		.4byte	.LASF408
 6023 256c 0F       		.byte	0xf
 6024 256d 68       		.byte	0x68
 6025 256e 72250000 		.4byte	0x2572
 6026 2572 08       		.uleb128 0x8
 6027 2573 87200000 		.4byte	0x2087
 6028 2577 67       		.uleb128 0x67
 6029 2578 F3130000 		.4byte	.LASF409
 6030 257c 0F       		.byte	0xf
 6031 257d 69       		.byte	0x69
 6032 257e 82250000 		.4byte	0x2582
 6033 2582 08       		.uleb128 0x8
 6034 2583 C7240000 		.4byte	0x24c7
 6035 2587 67       		.uleb128 0x67
 6036 2588 38170000 		.4byte	.LASF410
 6037 258c 0F       		.byte	0xf
 6038 258d 6A       		.byte	0x6a
 6039 258e 92250000 		.4byte	0x2592
 6040 2592 08       		.uleb128 0x8
 6041 2593 C7240000 		.4byte	0x24c7
 6042 2597 67       		.uleb128 0x67
 6043 2598 BF3B0000 		.4byte	.LASF411
 6044 259c 0F       		.byte	0xf
 6045 259d 6B       		.byte	0x6b
 6046 259e A2250000 		.4byte	0x25a2
 6047 25a2 08       		.uleb128 0x8
 6048 25a3 37200000 		.4byte	0x2037
 6049 25a7 67       		.uleb128 0x67
 6050 25a8 87240000 		.4byte	.LASF412
 6051 25ac 0F       		.byte	0xf
 6052 25ad 6C       		.byte	0x6c
 6053 25ae B2250000 		.4byte	0x25b2
 6054 25b2 08       		.uleb128 0x8
 6055 25b3 17200000 		.4byte	0x2017
 6056 25b7 67       		.uleb128 0x67
 6057 25b8 0A220000 		.4byte	.LASF413
 6058 25bc 0F       		.byte	0xf
 6059 25bd 6D       		.byte	0x6d
 6060 25be C2250000 		.4byte	0x25c2
 6061 25c2 08       		.uleb128 0x8
 6062 25c3 57200000 		.4byte	0x2057
 6063 25c7 67       		.uleb128 0x67
 6064 25c8 D35F0000 		.4byte	.LASF414
 6065 25cc 0F       		.byte	0xf
 6066 25cd 6E       		.byte	0x6e
 6067 25ce D2250000 		.4byte	0x25d2
 6068 25d2 08       		.uleb128 0x8
 6069 25d3 17200000 		.4byte	0x2017
 6070 25d7 67       		.uleb128 0x67
 6071 25d8 DE5D0000 		.4byte	.LASF415
 6072 25dc 0F       		.byte	0xf
 6073 25dd 6F       		.byte	0x6f
 6074 25de E2250000 		.4byte	0x25e2
 6075 25e2 08       		.uleb128 0x8
ARM GAS  C:\Users\jrdia\AppData\Local\Temp\ccYHzYw6.s 			page 132


 6076 25e3 37200000 		.4byte	0x2037
 6077 25e7 67       		.uleb128 0x67
 6078 25e8 6C030000 		.4byte	.LASF416
 6079 25ec 0F       		.byte	0xf
 6080 25ed 70       		.byte	0x70
 6081 25ee F2250000 		.4byte	0x25f2
 6082 25f2 08       		.uleb128 0x8
 6083 25f3 17200000 		.4byte	0x2017
 6084 25f7 67       		.uleb128 0x67
 6085 25f8 6B340000 		.4byte	.LASF417
 6086 25fc 0F       		.byte	0xf
 6087 25fd 71       		.byte	0x71
 6088 25fe 02260000 		.4byte	0x2602
 6089 2602 08       		.uleb128 0x8
 6090 2603 37210000 		.4byte	0x2137
 6091 2607 67       		.uleb128 0x67
 6092 2608 4A330000 		.4byte	.LASF418
 6093 260c 0F       		.byte	0xf
 6094 260d 72       		.byte	0x72
 6095 260e 12260000 		.4byte	0x2612
 6096 2612 08       		.uleb128 0x8
 6097 2613 37210000 		.4byte	0x2137
 6098 2617 67       		.uleb128 0x67
 6099 2618 84360000 		.4byte	.LASF419
 6100 261c 0F       		.byte	0xf
 6101 261d 73       		.byte	0x73
 6102 261e 22260000 		.4byte	0x2622
 6103 2622 08       		.uleb128 0x8
 6104 2623 57200000 		.4byte	0x2057
 6105 2627 67       		.uleb128 0x67
 6106 2628 C0570000 		.4byte	.LASF420
 6107 262c 0F       		.byte	0xf
 6108 262d 74       		.byte	0x74
 6109 262e 32260000 		.4byte	0x2632
 6110 2632 08       		.uleb128 0x8
 6111 2633 37210000 		.4byte	0x2137
 6112 2637 67       		.uleb128 0x67
 6113 2638 3A0A0000 		.4byte	.LASF421
 6114 263c 0F       		.byte	0xf
 6115 263d 75       		.byte	0x75
 6116 263e 42260000 		.4byte	0x2642
 6117 2642 08       		.uleb128 0x8
 6118 2643 57200000 		.4byte	0x2057
 6119 2647 67       		.uleb128 0x67
 6120 2648 040F0000 		.4byte	.LASF422
 6121 264c 0F       		.byte	0xf
 6122 264d 76       		.byte	0x76
 6123 264e 52260000 		.4byte	0x2652
 6124 2652 08       		.uleb128 0x8
 6125 2653 87240000 		.4byte	0x2487
 6126 2657 67       		.uleb128 0x67
 6127 2658 F3240000 		.4byte	.LASF423
 6128 265c 0F       		.byte	0xf
 6129 265d 77       		.byte	0x77
 6130 265e 62260000 		.4byte	0x2662
 6131 2662 08       		.uleb128 0x8
 6132 2663 37210000 		.4byte	0x2137
ARM GAS  C:\Users\jrdia\AppData\Local\Temp\ccYHzYw6.s 			page 133


 6133 2667 67       		.uleb128 0x67
 6134 2668 C42E0000 		.4byte	.LASF424
 6135 266c 0F       		.byte	0xf
 6136 266d 78       		.byte	0x78
 6137 266e 72260000 		.4byte	0x2672
 6138 2672 08       		.uleb128 0x8
 6139 2673 87240000 		.4byte	0x2487
 6140 2677 67       		.uleb128 0x67
 6141 2678 885B0000 		.4byte	.LASF425
 6142 267c 0F       		.byte	0xf
 6143 267d 79       		.byte	0x79
 6144 267e 82260000 		.4byte	0x2682
 6145 2682 08       		.uleb128 0x8
 6146 2683 87240000 		.4byte	0x2487
 6147 2687 67       		.uleb128 0x67
 6148 2688 35280000 		.4byte	.LASF426
 6149 268c 0F       		.byte	0xf
 6150 268d 7A       		.byte	0x7a
 6151 268e 92260000 		.4byte	0x2692
 6152 2692 08       		.uleb128 0x8
 6153 2693 87240000 		.4byte	0x2487
 6154 2697 67       		.uleb128 0x67
 6155 2698 FD590000 		.4byte	.LASF427
 6156 269c 0F       		.byte	0xf
 6157 269d 7B       		.byte	0x7b
 6158 269e A2260000 		.4byte	0x26a2
 6159 26a2 08       		.uleb128 0x8
 6160 26a3 87200000 		.4byte	0x2087
 6161 26a7 67       		.uleb128 0x67
 6162 26a8 E30D0000 		.4byte	.LASF428
 6163 26ac 0F       		.byte	0xf
 6164 26ad 7C       		.byte	0x7c
 6165 26ae B2260000 		.4byte	0x26b2
 6166 26b2 08       		.uleb128 0x8
 6167 26b3 87200000 		.4byte	0x2087
 6168 26b7 67       		.uleb128 0x67
 6169 26b8 13460000 		.4byte	.LASF429
 6170 26bc 0F       		.byte	0xf
 6171 26bd 7D       		.byte	0x7d
 6172 26be C2260000 		.4byte	0x26c2
 6173 26c2 08       		.uleb128 0x8
 6174 26c3 E7210000 		.4byte	0x21e7
 6175 26c7 28       		.uleb128 0x28
 6176 26c8 E0000000 		.4byte	0xe0
 6177 26cc D7260000 		.4byte	0x26d7
 6178 26d0 29       		.uleb128 0x29
 6179 26d1 C5000000 		.4byte	0xc5
 6180 26d5 15       		.byte	0x15
 6181 26d6 00       		.byte	0
 6182 26d7 67       		.uleb128 0x67
 6183 26d8 A32E0000 		.4byte	.LASF430
 6184 26dc 0F       		.byte	0xf
 6185 26dd 7E       		.byte	0x7e
 6186 26de E2260000 		.4byte	0x26e2
 6187 26e2 08       		.uleb128 0x8
 6188 26e3 C7260000 		.4byte	0x26c7
 6189 26e7 28       		.uleb128 0x28
ARM GAS  C:\Users\jrdia\AppData\Local\Temp\ccYHzYw6.s 			page 134


 6190 26e8 E0000000 		.4byte	0xe0
 6191 26ec F7260000 		.4byte	0x26f7
 6192 26f0 29       		.uleb128 0x29
 6193 26f1 C5000000 		.4byte	0xc5
 6194 26f5 16       		.byte	0x16
 6195 26f6 00       		.byte	0
 6196 26f7 67       		.uleb128 0x67
 6197 26f8 5A390000 		.4byte	.LASF431
 6198 26fc 0F       		.byte	0xf
 6199 26fd 7F       		.byte	0x7f
 6200 26fe 02270000 		.4byte	0x2702
 6201 2702 08       		.uleb128 0x8
 6202 2703 E7260000 		.4byte	0x26e7
 6203 2707 67       		.uleb128 0x67
 6204 2708 0A170000 		.4byte	.LASF432
 6205 270c 0F       		.byte	0xf
 6206 270d 82       		.byte	0x82
 6207 270e 12270000 		.4byte	0x2712
 6208 2712 08       		.uleb128 0x8
 6209 2713 B7220000 		.4byte	0x22b7
 6210 2717 67       		.uleb128 0x67
 6211 2718 E45A0000 		.4byte	.LASF433
 6212 271c 0F       		.byte	0xf
 6213 271d 83       		.byte	0x83
 6214 271e 22270000 		.4byte	0x2722
 6215 2722 08       		.uleb128 0x8
 6216 2723 87200000 		.4byte	0x2087
 6217 2727 67       		.uleb128 0x67
 6218 2728 82030000 		.4byte	.LASF434
 6219 272c 0F       		.byte	0xf
 6220 272d 84       		.byte	0x84
 6221 272e 32270000 		.4byte	0x2732
 6222 2732 08       		.uleb128 0x8
 6223 2733 87200000 		.4byte	0x2087
 6224 2737 67       		.uleb128 0x67
 6225 2738 A04D0000 		.4byte	.LASF435
 6226 273c 0F       		.byte	0xf
 6227 273d 85       		.byte	0x85
 6228 273e 42270000 		.4byte	0x2742
 6229 2742 08       		.uleb128 0x8
 6230 2743 77210000 		.4byte	0x2177
 6231 2747 67       		.uleb128 0x67
 6232 2748 06300000 		.4byte	.LASF436
 6233 274c 0F       		.byte	0xf
 6234 274d 86       		.byte	0x86
 6235 274e 52270000 		.4byte	0x2752
 6236 2752 08       		.uleb128 0x8
 6237 2753 87200000 		.4byte	0x2087
 6238 2757 67       		.uleb128 0x67
 6239 2758 315F0000 		.4byte	.LASF437
 6240 275c 0F       		.byte	0xf
 6241 275d 87       		.byte	0x87
 6242 275e 62270000 		.4byte	0x2762
 6243 2762 08       		.uleb128 0x8
 6244 2763 87200000 		.4byte	0x2087
 6245 2767 67       		.uleb128 0x67
 6246 2768 DD1C0000 		.4byte	.LASF438
ARM GAS  C:\Users\jrdia\AppData\Local\Temp\ccYHzYw6.s 			page 135


 6247 276c 0F       		.byte	0xf
 6248 276d 88       		.byte	0x88
 6249 276e 72270000 		.4byte	0x2772
 6250 2772 08       		.uleb128 0x8
 6251 2773 87200000 		.4byte	0x2087
 6252 2777 67       		.uleb128 0x67
 6253 2778 C30D0000 		.4byte	.LASF439
 6254 277c 0F       		.byte	0xf
 6255 277d 89       		.byte	0x89
 6256 277e 82270000 		.4byte	0x2782
 6257 2782 08       		.uleb128 0x8
 6258 2783 77210000 		.4byte	0x2177
 6259 2787 67       		.uleb128 0x67
 6260 2788 973D0000 		.4byte	.LASF440
 6261 278c 0F       		.byte	0xf
 6262 278d 8A       		.byte	0x8a
 6263 278e 92270000 		.4byte	0x2792
 6264 2792 08       		.uleb128 0x8
 6265 2793 87200000 		.4byte	0x2087
 6266 2797 67       		.uleb128 0x67
 6267 2798 D72A0000 		.4byte	.LASF441
 6268 279c 0F       		.byte	0xf
 6269 279d 8B       		.byte	0x8b
 6270 279e A2270000 		.4byte	0x27a2
 6271 27a2 08       		.uleb128 0x8
 6272 27a3 87200000 		.4byte	0x2087
 6273 27a7 67       		.uleb128 0x67
 6274 27a8 FF110000 		.4byte	.LASF442
 6275 27ac 0F       		.byte	0xf
 6276 27ad 8C       		.byte	0x8c
 6277 27ae B2270000 		.4byte	0x27b2
 6278 27b2 08       		.uleb128 0x8
 6279 27b3 C7260000 		.4byte	0x26c7
 6280 27b7 67       		.uleb128 0x67
 6281 27b8 13140000 		.4byte	.LASF443
 6282 27bc 0F       		.byte	0xf
 6283 27bd 8D       		.byte	0x8d
 6284 27be C2270000 		.4byte	0x27c2
 6285 27c2 08       		.uleb128 0x8
 6286 27c3 87200000 		.4byte	0x2087
 6287 27c7 67       		.uleb128 0x67
 6288 27c8 6B240000 		.4byte	.LASF444
 6289 27cc 0F       		.byte	0xf
 6290 27cd 8E       		.byte	0x8e
 6291 27ce D2270000 		.4byte	0x27d2
 6292 27d2 08       		.uleb128 0x8
 6293 27d3 F71F0000 		.4byte	0x1ff7
 6294 27d7 67       		.uleb128 0x67
 6295 27d8 4A420000 		.4byte	.LASF445
 6296 27dc 0F       		.byte	0xf
 6297 27dd 8F       		.byte	0x8f
 6298 27de E2270000 		.4byte	0x27e2
 6299 27e2 08       		.uleb128 0x8
 6300 27e3 87240000 		.4byte	0x2487
 6301 27e7 67       		.uleb128 0x67
 6302 27e8 715B0000 		.4byte	.LASF446
 6303 27ec 0F       		.byte	0xf
ARM GAS  C:\Users\jrdia\AppData\Local\Temp\ccYHzYw6.s 			page 136


 6304 27ed 90       		.byte	0x90
 6305 27ee F2270000 		.4byte	0x27f2
 6306 27f2 08       		.uleb128 0x8
 6307 27f3 57200000 		.4byte	0x2057
 6308 27f7 67       		.uleb128 0x67
 6309 27f8 26420000 		.4byte	.LASF447
 6310 27fc 0F       		.byte	0xf
 6311 27fd 91       		.byte	0x91
 6312 27fe 02280000 		.4byte	0x2802
 6313 2802 08       		.uleb128 0x8
 6314 2803 57200000 		.4byte	0x2057
 6315 2807 67       		.uleb128 0x67
 6316 2808 AE610000 		.4byte	.LASF448
 6317 280c 0F       		.byte	0xf
 6318 280d 92       		.byte	0x92
 6319 280e 12280000 		.4byte	0x2812
 6320 2812 08       		.uleb128 0x8
 6321 2813 57200000 		.4byte	0x2057
 6322 2817 67       		.uleb128 0x67
 6323 2818 A0400000 		.4byte	.LASF449
 6324 281c 0F       		.byte	0xf
 6325 281d 93       		.byte	0x93
 6326 281e 22280000 		.4byte	0x2822
 6327 2822 08       		.uleb128 0x8
 6328 2823 17200000 		.4byte	0x2017
 6329 2827 67       		.uleb128 0x67
 6330 2828 6F1F0000 		.4byte	.LASF450
 6331 282c 0F       		.byte	0xf
 6332 282d 94       		.byte	0x94
 6333 282e 32280000 		.4byte	0x2832
 6334 2832 08       		.uleb128 0x8
 6335 2833 F7200000 		.4byte	0x20f7
 6336 2837 67       		.uleb128 0x67
 6337 2838 A34C0000 		.4byte	.LASF451
 6338 283c 0F       		.byte	0xf
 6339 283d 95       		.byte	0x95
 6340 283e 42280000 		.4byte	0x2842
 6341 2842 08       		.uleb128 0x8
 6342 2843 87240000 		.4byte	0x2487
 6343 2847 67       		.uleb128 0x67
 6344 2848 EF160000 		.4byte	.LASF452
 6345 284c 0F       		.byte	0xf
 6346 284d 96       		.byte	0x96
 6347 284e 52280000 		.4byte	0x2852
 6348 2852 08       		.uleb128 0x8
 6349 2853 C7240000 		.4byte	0x24c7
 6350 2857 67       		.uleb128 0x67
 6351 2858 834E0000 		.4byte	.LASF453
 6352 285c 0F       		.byte	0xf
 6353 285d 97       		.byte	0x97
 6354 285e 62280000 		.4byte	0x2862
 6355 2862 08       		.uleb128 0x8
 6356 2863 C7240000 		.4byte	0x24c7
 6357 2867 67       		.uleb128 0x67
 6358 2868 30600000 		.4byte	.LASF454
 6359 286c 0F       		.byte	0xf
 6360 286d 98       		.byte	0x98
ARM GAS  C:\Users\jrdia\AppData\Local\Temp\ccYHzYw6.s 			page 137


 6361 286e 72280000 		.4byte	0x2872
 6362 2872 08       		.uleb128 0x8
 6363 2873 87200000 		.4byte	0x2087
 6364 2877 67       		.uleb128 0x67
 6365 2878 6D4F0000 		.4byte	.LASF455
 6366 287c 0F       		.byte	0xf
 6367 287d 99       		.byte	0x99
 6368 287e 82280000 		.4byte	0x2882
 6369 2882 08       		.uleb128 0x8
 6370 2883 B7220000 		.4byte	0x22b7
 6371 2887 67       		.uleb128 0x67
 6372 2888 1D220000 		.4byte	.LASF456
 6373 288c 0F       		.byte	0xf
 6374 288d 9A       		.byte	0x9a
 6375 288e 92280000 		.4byte	0x2892
 6376 2892 08       		.uleb128 0x8
 6377 2893 17200000 		.4byte	0x2017
 6378 2897 28       		.uleb128 0x28
 6379 2898 E0000000 		.4byte	0xe0
 6380 289c A7280000 		.4byte	0x28a7
 6381 28a0 29       		.uleb128 0x29
 6382 28a1 C5000000 		.4byte	0xc5
 6383 28a5 12       		.byte	0x12
 6384 28a6 00       		.byte	0
 6385 28a7 67       		.uleb128 0x67
 6386 28a8 42430000 		.4byte	.LASF457
 6387 28ac 0F       		.byte	0xf
 6388 28ad 9B       		.byte	0x9b
 6389 28ae B2280000 		.4byte	0x28b2
 6390 28b2 08       		.uleb128 0x8
 6391 28b3 97280000 		.4byte	0x2897
 6392 28b7 67       		.uleb128 0x67
 6393 28b8 B5390000 		.4byte	.LASF458
 6394 28bc 0F       		.byte	0xf
 6395 28bd 9C       		.byte	0x9c
 6396 28be C2280000 		.4byte	0x28c2
 6397 28c2 08       		.uleb128 0x8
 6398 28c3 37200000 		.4byte	0x2037
 6399 28c7 67       		.uleb128 0x67
 6400 28c8 4C270000 		.4byte	.LASF459
 6401 28cc 0F       		.byte	0xf
 6402 28cd 9D       		.byte	0x9d
 6403 28ce D2280000 		.4byte	0x28d2
 6404 28d2 08       		.uleb128 0x8
 6405 28d3 87200000 		.4byte	0x2087
 6406 28d7 67       		.uleb128 0x67
 6407 28d8 A42B0000 		.4byte	.LASF460
 6408 28dc 0F       		.byte	0xf
 6409 28dd 9E       		.byte	0x9e
 6410 28de E2280000 		.4byte	0x28e2
 6411 28e2 08       		.uleb128 0x8
 6412 28e3 D7200000 		.4byte	0x20d7
 6413 28e7 67       		.uleb128 0x67
 6414 28e8 F4280000 		.4byte	.LASF461
 6415 28ec 0F       		.byte	0xf
 6416 28ed 9F       		.byte	0x9f
 6417 28ee F2280000 		.4byte	0x28f2
ARM GAS  C:\Users\jrdia\AppData\Local\Temp\ccYHzYw6.s 			page 138


 6418 28f2 08       		.uleb128 0x8
 6419 28f3 37200000 		.4byte	0x2037
 6420 28f7 67       		.uleb128 0x67
 6421 28f8 B2600000 		.4byte	.LASF462
 6422 28fc 0F       		.byte	0xf
 6423 28fd A0       		.byte	0xa0
 6424 28fe 02290000 		.4byte	0x2902
 6425 2902 08       		.uleb128 0x8
 6426 2903 57200000 		.4byte	0x2057
 6427 2907 67       		.uleb128 0x67
 6428 2908 9B060000 		.4byte	.LASF463
 6429 290c 0F       		.byte	0xf
 6430 290d A1       		.byte	0xa1
 6431 290e 12290000 		.4byte	0x2912
 6432 2912 08       		.uleb128 0x8
 6433 2913 87200000 		.4byte	0x2087
 6434 2917 67       		.uleb128 0x67
 6435 2918 6E480000 		.4byte	.LASF464
 6436 291c 0F       		.byte	0xf
 6437 291d A2       		.byte	0xa2
 6438 291e 22290000 		.4byte	0x2922
 6439 2922 08       		.uleb128 0x8
 6440 2923 87240000 		.4byte	0x2487
 6441 2927 67       		.uleb128 0x67
 6442 2928 582A0000 		.4byte	.LASF465
 6443 292c 0F       		.byte	0xf
 6444 292d A3       		.byte	0xa3
 6445 292e 32290000 		.4byte	0x2932
 6446 2932 08       		.uleb128 0x8
 6447 2933 37210000 		.4byte	0x2137
 6448 2937 67       		.uleb128 0x67
 6449 2938 99450000 		.4byte	.LASF466
 6450 293c 0F       		.byte	0xf
 6451 293d A4       		.byte	0xa4
 6452 293e 42290000 		.4byte	0x2942
 6453 2942 08       		.uleb128 0x8
 6454 2943 F7200000 		.4byte	0x20f7
 6455 2947 67       		.uleb128 0x67
 6456 2948 44620000 		.4byte	.LASF467
 6457 294c 0F       		.byte	0xf
 6458 294d A5       		.byte	0xa5
 6459 294e 52290000 		.4byte	0x2952
 6460 2952 08       		.uleb128 0x8
 6461 2953 57200000 		.4byte	0x2057
 6462 2957 67       		.uleb128 0x67
 6463 2958 803D0000 		.4byte	.LASF468
 6464 295c 0F       		.byte	0xf
 6465 295d A6       		.byte	0xa6
 6466 295e 62290000 		.4byte	0x2962
 6467 2962 08       		.uleb128 0x8
 6468 2963 57200000 		.4byte	0x2057
 6469 2967 67       		.uleb128 0x67
 6470 2968 08090000 		.4byte	.LASF469
 6471 296c 0F       		.byte	0xf
 6472 296d A7       		.byte	0xa7
 6473 296e 72290000 		.4byte	0x2972
 6474 2972 08       		.uleb128 0x8
ARM GAS  C:\Users\jrdia\AppData\Local\Temp\ccYHzYw6.s 			page 139


 6475 2973 17200000 		.4byte	0x2017
 6476 2977 67       		.uleb128 0x67
 6477 2978 C34D0000 		.4byte	.LASF470
 6478 297c 0F       		.byte	0xf
 6479 297d A8       		.byte	0xa8
 6480 297e 82290000 		.4byte	0x2982
 6481 2982 08       		.uleb128 0x8
 6482 2983 D71F0000 		.4byte	0x1fd7
 6483 2987 67       		.uleb128 0x67
 6484 2988 6B050000 		.4byte	.LASF471
 6485 298c 0F       		.byte	0xf
 6486 298d A9       		.byte	0xa9
 6487 298e 92290000 		.4byte	0x2992
 6488 2992 08       		.uleb128 0x8
 6489 2993 D71F0000 		.4byte	0x1fd7
 6490 2997 67       		.uleb128 0x67
 6491 2998 94200000 		.4byte	.LASF472
 6492 299c 0F       		.byte	0xf
 6493 299d AA       		.byte	0xaa
 6494 299e A2290000 		.4byte	0x29a2
 6495 29a2 08       		.uleb128 0x8
 6496 29a3 D7200000 		.4byte	0x20d7
 6497 29a7 67       		.uleb128 0x67
 6498 29a8 A5070000 		.4byte	.LASF473
 6499 29ac 0F       		.byte	0xf
 6500 29ad AB       		.byte	0xab
 6501 29ae B2290000 		.4byte	0x29b2
 6502 29b2 08       		.uleb128 0x8
 6503 29b3 F7200000 		.4byte	0x20f7
 6504 29b7 67       		.uleb128 0x67
 6505 29b8 7F1A0000 		.4byte	.LASF474
 6506 29bc 0F       		.byte	0xf
 6507 29bd AC       		.byte	0xac
 6508 29be C2290000 		.4byte	0x29c2
 6509 29c2 08       		.uleb128 0x8
 6510 29c3 37200000 		.4byte	0x2037
 6511 29c7 67       		.uleb128 0x67
 6512 29c8 DB400000 		.4byte	.LASF475
 6513 29cc 0F       		.byte	0xf
 6514 29cd AD       		.byte	0xad
 6515 29ce D2290000 		.4byte	0x29d2
 6516 29d2 08       		.uleb128 0x8
 6517 29d3 17200000 		.4byte	0x2017
 6518 29d7 67       		.uleb128 0x67
 6519 29d8 31340000 		.4byte	.LASF476
 6520 29dc 0F       		.byte	0xf
 6521 29dd AE       		.byte	0xae
 6522 29de E2290000 		.4byte	0x29e2
 6523 29e2 08       		.uleb128 0x8
 6524 29e3 17200000 		.4byte	0x2017
 6525 29e7 67       		.uleb128 0x67
 6526 29e8 E3560000 		.4byte	.LASF477
 6527 29ec 0F       		.byte	0xf
 6528 29ed AF       		.byte	0xaf
 6529 29ee F2290000 		.4byte	0x29f2
 6530 29f2 08       		.uleb128 0x8
 6531 29f3 17200000 		.4byte	0x2017
ARM GAS  C:\Users\jrdia\AppData\Local\Temp\ccYHzYw6.s 			page 140


 6532 29f7 67       		.uleb128 0x67
 6533 29f8 2B2F0000 		.4byte	.LASF478
 6534 29fc 0F       		.byte	0xf
 6535 29fd B0       		.byte	0xb0
 6536 29fe 022A0000 		.4byte	0x2a02
 6537 2a02 08       		.uleb128 0x8
 6538 2a03 F7200000 		.4byte	0x20f7
 6539 2a07 67       		.uleb128 0x67
 6540 2a08 C71F0000 		.4byte	.LASF479
 6541 2a0c 0F       		.byte	0xf
 6542 2a0d B1       		.byte	0xb1
 6543 2a0e 122A0000 		.4byte	0x2a12
 6544 2a12 08       		.uleb128 0x8
 6545 2a13 87200000 		.4byte	0x2087
 6546 2a17 67       		.uleb128 0x67
 6547 2a18 680D0000 		.4byte	.LASF480
 6548 2a1c 0F       		.byte	0xf
 6549 2a1d B2       		.byte	0xb2
 6550 2a1e 222A0000 		.4byte	0x2a22
 6551 2a22 08       		.uleb128 0x8
 6552 2a23 57200000 		.4byte	0x2057
 6553 2a27 67       		.uleb128 0x67
 6554 2a28 95440000 		.4byte	.LASF481
 6555 2a2c 0F       		.byte	0xf
 6556 2a2d B3       		.byte	0xb3
 6557 2a2e 322A0000 		.4byte	0x2a32
 6558 2a32 08       		.uleb128 0x8
 6559 2a33 57200000 		.4byte	0x2057
 6560 2a37 67       		.uleb128 0x67
 6561 2a38 D6300000 		.4byte	.LASF482
 6562 2a3c 0F       		.byte	0xf
 6563 2a3d B4       		.byte	0xb4
 6564 2a3e 422A0000 		.4byte	0x2a42
 6565 2a42 08       		.uleb128 0x8
 6566 2a43 17200000 		.4byte	0x2017
 6567 2a47 67       		.uleb128 0x67
 6568 2a48 22390000 		.4byte	.LASF483
 6569 2a4c 0F       		.byte	0xf
 6570 2a4d B7       		.byte	0xb7
 6571 2a4e 522A0000 		.4byte	0x2a52
 6572 2a52 08       		.uleb128 0x8
 6573 2a53 B7200000 		.4byte	0x20b7
 6574 2a57 67       		.uleb128 0x67
 6575 2a58 F2220000 		.4byte	.LASF484
 6576 2a5c 0F       		.byte	0xf
 6577 2a5d B8       		.byte	0xb8
 6578 2a5e 622A0000 		.4byte	0x2a62
 6579 2a62 08       		.uleb128 0x8
 6580 2a63 37210000 		.4byte	0x2137
 6581 2a67 67       		.uleb128 0x67
 6582 2a68 DF040000 		.4byte	.LASF485
 6583 2a6c 0F       		.byte	0xf
 6584 2a6d B9       		.byte	0xb9
 6585 2a6e 722A0000 		.4byte	0x2a72
 6586 2a72 08       		.uleb128 0x8
 6587 2a73 D7200000 		.4byte	0x20d7
 6588 2a77 67       		.uleb128 0x67
ARM GAS  C:\Users\jrdia\AppData\Local\Temp\ccYHzYw6.s 			page 141


 6589 2a78 6B1C0000 		.4byte	.LASF486
 6590 2a7c 0F       		.byte	0xf
 6591 2a7d BA       		.byte	0xba
 6592 2a7e 822A0000 		.4byte	0x2a82
 6593 2a82 08       		.uleb128 0x8
 6594 2a83 D71F0000 		.4byte	0x1fd7
 6595 2a87 67       		.uleb128 0x67
 6596 2a88 B95C0000 		.4byte	.LASF487
 6597 2a8c 0F       		.byte	0xf
 6598 2a8d BB       		.byte	0xbb
 6599 2a8e 922A0000 		.4byte	0x2a92
 6600 2a92 08       		.uleb128 0x8
 6601 2a93 17200000 		.4byte	0x2017
 6602 2a97 67       		.uleb128 0x67
 6603 2a98 8E0F0000 		.4byte	.LASF488
 6604 2a9c 0F       		.byte	0xf
 6605 2a9d BC       		.byte	0xbc
 6606 2a9e A22A0000 		.4byte	0x2aa2
 6607 2aa2 08       		.uleb128 0x8
 6608 2aa3 37210000 		.4byte	0x2137
 6609 2aa7 67       		.uleb128 0x67
 6610 2aa8 171A0000 		.4byte	.LASF489
 6611 2aac 0F       		.byte	0xf
 6612 2aad BD       		.byte	0xbd
 6613 2aae B22A0000 		.4byte	0x2ab2
 6614 2ab2 08       		.uleb128 0x8
 6615 2ab3 17200000 		.4byte	0x2017
 6616 2ab7 67       		.uleb128 0x67
 6617 2ab8 BA0A0000 		.4byte	.LASF490
 6618 2abc 0F       		.byte	0xf
 6619 2abd BE       		.byte	0xbe
 6620 2abe C22A0000 		.4byte	0x2ac2
 6621 2ac2 08       		.uleb128 0x8
 6622 2ac3 17200000 		.4byte	0x2017
 6623 2ac7 67       		.uleb128 0x67
 6624 2ac8 EE010000 		.4byte	.LASF491
 6625 2acc 0F       		.byte	0xf
 6626 2acd BF       		.byte	0xbf
 6627 2ace D22A0000 		.4byte	0x2ad2
 6628 2ad2 08       		.uleb128 0x8
 6629 2ad3 B7200000 		.4byte	0x20b7
 6630 2ad7 67       		.uleb128 0x67
 6631 2ad8 A4580000 		.4byte	.LASF492
 6632 2adc 0F       		.byte	0xf
 6633 2add C0       		.byte	0xc0
 6634 2ade E22A0000 		.4byte	0x2ae2
 6635 2ae2 08       		.uleb128 0x8
 6636 2ae3 17200000 		.4byte	0x2017
 6637 2ae7 67       		.uleb128 0x67
 6638 2ae8 9C4E0000 		.4byte	.LASF493
 6639 2aec 0F       		.byte	0xf
 6640 2aed C1       		.byte	0xc1
 6641 2aee F22A0000 		.4byte	0x2af2
 6642 2af2 08       		.uleb128 0x8
 6643 2af3 57200000 		.4byte	0x2057
 6644 2af7 67       		.uleb128 0x67
 6645 2af8 AA4A0000 		.4byte	.LASF494
ARM GAS  C:\Users\jrdia\AppData\Local\Temp\ccYHzYw6.s 			page 142


 6646 2afc 0F       		.byte	0xf
 6647 2afd C2       		.byte	0xc2
 6648 2afe 022B0000 		.4byte	0x2b02
 6649 2b02 08       		.uleb128 0x8
 6650 2b03 87240000 		.4byte	0x2487
 6651 2b07 67       		.uleb128 0x67
 6652 2b08 E00E0000 		.4byte	.LASF495
 6653 2b0c 0F       		.byte	0xf
 6654 2b0d C5       		.byte	0xc5
 6655 2b0e 122B0000 		.4byte	0x2b12
 6656 2b12 08       		.uleb128 0x8
 6657 2b13 87240000 		.4byte	0x2487
 6658 2b17 67       		.uleb128 0x67
 6659 2b18 B51F0000 		.4byte	.LASF496
 6660 2b1c 0F       		.byte	0xf
 6661 2b1d C6       		.byte	0xc6
 6662 2b1e 222B0000 		.4byte	0x2b22
 6663 2b22 08       		.uleb128 0x8
 6664 2b23 37210000 		.4byte	0x2137
 6665 2b27 67       		.uleb128 0x67
 6666 2b28 693D0000 		.4byte	.LASF497
 6667 2b2c 0F       		.byte	0xf
 6668 2b2d C7       		.byte	0xc7
 6669 2b2e 322B0000 		.4byte	0x2b32
 6670 2b32 08       		.uleb128 0x8
 6671 2b33 57200000 		.4byte	0x2057
 6672 2b37 67       		.uleb128 0x67
 6673 2b38 BE3C0000 		.4byte	.LASF498
 6674 2b3c 0F       		.byte	0xf
 6675 2b3d C8       		.byte	0xc8
 6676 2b3e 422B0000 		.4byte	0x2b42
 6677 2b42 08       		.uleb128 0x8
 6678 2b43 37210000 		.4byte	0x2137
 6679 2b47 67       		.uleb128 0x67
 6680 2b48 E2480000 		.4byte	.LASF499
 6681 2b4c 0F       		.byte	0xf
 6682 2b4d C9       		.byte	0xc9
 6683 2b4e 522B0000 		.4byte	0x2b52
 6684 2b52 08       		.uleb128 0x8
 6685 2b53 B71F0000 		.4byte	0x1fb7
 6686 2b57 67       		.uleb128 0x67
 6687 2b58 914D0000 		.4byte	.LASF500
 6688 2b5c 0F       		.byte	0xf
 6689 2b5d CA       		.byte	0xca
 6690 2b5e 622B0000 		.4byte	0x2b62
 6691 2b62 08       		.uleb128 0x8
 6692 2b63 D71F0000 		.4byte	0x1fd7
 6693 2b67 67       		.uleb128 0x67
 6694 2b68 5A010000 		.4byte	.LASF501
 6695 2b6c 0F       		.byte	0xf
 6696 2b6d CB       		.byte	0xcb
 6697 2b6e 722B0000 		.4byte	0x2b72
 6698 2b72 08       		.uleb128 0x8
 6699 2b73 B7200000 		.4byte	0x20b7
 6700 2b77 67       		.uleb128 0x67
 6701 2b78 C7470000 		.4byte	.LASF502
 6702 2b7c 0F       		.byte	0xf
ARM GAS  C:\Users\jrdia\AppData\Local\Temp\ccYHzYw6.s 			page 143


 6703 2b7d CC       		.byte	0xcc
 6704 2b7e 822B0000 		.4byte	0x2b82
 6705 2b82 08       		.uleb128 0x8
 6706 2b83 57200000 		.4byte	0x2057
 6707 2b87 67       		.uleb128 0x67
 6708 2b88 771D0000 		.4byte	.LASF503
 6709 2b8c 0F       		.byte	0xf
 6710 2b8d CD       		.byte	0xcd
 6711 2b8e 922B0000 		.4byte	0x2b92
 6712 2b92 08       		.uleb128 0x8
 6713 2b93 77210000 		.4byte	0x2177
 6714 2b97 67       		.uleb128 0x67
 6715 2b98 D9320000 		.4byte	.LASF504
 6716 2b9c 0F       		.byte	0xf
 6717 2b9d CE       		.byte	0xce
 6718 2b9e A22B0000 		.4byte	0x2ba2
 6719 2ba2 08       		.uleb128 0x8
 6720 2ba3 77210000 		.4byte	0x2177
 6721 2ba7 67       		.uleb128 0x67
 6722 2ba8 1F000000 		.4byte	.LASF505
 6723 2bac 0F       		.byte	0xf
 6724 2bad CF       		.byte	0xcf
 6725 2bae B22B0000 		.4byte	0x2bb2
 6726 2bb2 08       		.uleb128 0x8
 6727 2bb3 77210000 		.4byte	0x2177
 6728 2bb7 67       		.uleb128 0x67
 6729 2bb8 E8000000 		.4byte	.LASF506
 6730 2bbc 0F       		.byte	0xf
 6731 2bbd D0       		.byte	0xd0
 6732 2bbe C22B0000 		.4byte	0x2bc2
 6733 2bc2 08       		.uleb128 0x8
 6734 2bc3 57200000 		.4byte	0x2057
 6735 2bc7 67       		.uleb128 0x67
 6736 2bc8 89410000 		.4byte	.LASF507
 6737 2bcc 0F       		.byte	0xf
 6738 2bcd D1       		.byte	0xd1
 6739 2bce D22B0000 		.4byte	0x2bd2
 6740 2bd2 08       		.uleb128 0x8
 6741 2bd3 17200000 		.4byte	0x2017
 6742 2bd7 67       		.uleb128 0x67
 6743 2bd8 B42B0000 		.4byte	.LASF508
 6744 2bdc 0F       		.byte	0xf
 6745 2bdd D2       		.byte	0xd2
 6746 2bde E22B0000 		.4byte	0x2be2
 6747 2be2 08       		.uleb128 0x8
 6748 2be3 17200000 		.4byte	0x2017
 6749 2be7 67       		.uleb128 0x67
 6750 2be8 014A0000 		.4byte	.LASF509
 6751 2bec 0F       		.byte	0xf
 6752 2bed D3       		.byte	0xd3
 6753 2bee F22B0000 		.4byte	0x2bf2
 6754 2bf2 08       		.uleb128 0x8
 6755 2bf3 D7200000 		.4byte	0x20d7
 6756 2bf7 67       		.uleb128 0x67
 6757 2bf8 63440000 		.4byte	.LASF510
 6758 2bfc 0F       		.byte	0xf
 6759 2bfd D4       		.byte	0xd4
ARM GAS  C:\Users\jrdia\AppData\Local\Temp\ccYHzYw6.s 			page 144


 6760 2bfe 022C0000 		.4byte	0x2c02
 6761 2c02 08       		.uleb128 0x8
 6762 2c03 D7200000 		.4byte	0x20d7
 6763 2c07 67       		.uleb128 0x67
 6764 2c08 77620000 		.4byte	.LASF511
 6765 2c0c 0F       		.byte	0xf
 6766 2c0d D5       		.byte	0xd5
 6767 2c0e 122C0000 		.4byte	0x2c12
 6768 2c12 08       		.uleb128 0x8
 6769 2c13 D7200000 		.4byte	0x20d7
 6770 2c17 67       		.uleb128 0x67
 6771 2c18 601F0000 		.4byte	.LASF512
 6772 2c1c 0F       		.byte	0xf
 6773 2c1d D6       		.byte	0xd6
 6774 2c1e 222C0000 		.4byte	0x2c22
 6775 2c22 08       		.uleb128 0x8
 6776 2c23 D7200000 		.4byte	0x20d7
 6777 2c27 67       		.uleb128 0x67
 6778 2c28 263E0000 		.4byte	.LASF513
 6779 2c2c 0F       		.byte	0xf
 6780 2c2d D7       		.byte	0xd7
 6781 2c2e 322C0000 		.4byte	0x2c32
 6782 2c32 08       		.uleb128 0x8
 6783 2c33 D7200000 		.4byte	0x20d7
 6784 2c37 67       		.uleb128 0x67
 6785 2c38 225C0000 		.4byte	.LASF514
 6786 2c3c 0F       		.byte	0xf
 6787 2c3d D8       		.byte	0xd8
 6788 2c3e 422C0000 		.4byte	0x2c42
 6789 2c42 08       		.uleb128 0x8
 6790 2c43 D7200000 		.4byte	0x20d7
 6791 2c47 67       		.uleb128 0x67
 6792 2c48 09190000 		.4byte	.LASF515
 6793 2c4c 0F       		.byte	0xf
 6794 2c4d D9       		.byte	0xd9
 6795 2c4e 522C0000 		.4byte	0x2c52
 6796 2c52 08       		.uleb128 0x8
 6797 2c53 D7200000 		.4byte	0x20d7
 6798 2c57 67       		.uleb128 0x67
 6799 2c58 7D380000 		.4byte	.LASF516
 6800 2c5c 0F       		.byte	0xf
 6801 2c5d DA       		.byte	0xda
 6802 2c5e 622C0000 		.4byte	0x2c62
 6803 2c62 08       		.uleb128 0x8
 6804 2c63 D7200000 		.4byte	0x20d7
 6805 2c67 67       		.uleb128 0x67
 6806 2c68 F6560000 		.4byte	.LASF517
 6807 2c6c 0F       		.byte	0xf
 6808 2c6d DB       		.byte	0xdb
 6809 2c6e 722C0000 		.4byte	0x2c72
 6810 2c72 08       		.uleb128 0x8
 6811 2c73 D7200000 		.4byte	0x20d7
 6812 2c77 67       		.uleb128 0x67
 6813 2c78 D8120000 		.4byte	.LASF518
 6814 2c7c 0F       		.byte	0xf
 6815 2c7d DC       		.byte	0xdc
 6816 2c7e 822C0000 		.4byte	0x2c82
ARM GAS  C:\Users\jrdia\AppData\Local\Temp\ccYHzYw6.s 			page 145


 6817 2c82 08       		.uleb128 0x8
 6818 2c83 D7200000 		.4byte	0x20d7
 6819 2c87 67       		.uleb128 0x67
 6820 2c88 1B2A0000 		.4byte	.LASF519
 6821 2c8c 0F       		.byte	0xf
 6822 2c8d DD       		.byte	0xdd
 6823 2c8e 922C0000 		.4byte	0x2c92
 6824 2c92 08       		.uleb128 0x8
 6825 2c93 F7200000 		.4byte	0x20f7
 6826 2c97 67       		.uleb128 0x67
 6827 2c98 EF4A0000 		.4byte	.LASF520
 6828 2c9c 0F       		.byte	0xf
 6829 2c9d DE       		.byte	0xde
 6830 2c9e A22C0000 		.4byte	0x2ca2
 6831 2ca2 08       		.uleb128 0x8
 6832 2ca3 F7200000 		.4byte	0x20f7
 6833 2ca7 67       		.uleb128 0x67
 6834 2ca8 FA0F0000 		.4byte	.LASF521
 6835 2cac 0F       		.byte	0xf
 6836 2cad DF       		.byte	0xdf
 6837 2cae B22C0000 		.4byte	0x2cb2
 6838 2cb2 08       		.uleb128 0x8
 6839 2cb3 17200000 		.4byte	0x2017
 6840 2cb7 67       		.uleb128 0x67
 6841 2cb8 BB370000 		.4byte	.LASF522
 6842 2cbc 0F       		.byte	0xf
 6843 2cbd E0       		.byte	0xe0
 6844 2cbe C22C0000 		.4byte	0x2cc2
 6845 2cc2 08       		.uleb128 0x8
 6846 2cc3 17200000 		.4byte	0x2017
 6847 2cc7 67       		.uleb128 0x67
 6848 2cc8 CF550000 		.4byte	.LASF523
 6849 2ccc 0F       		.byte	0xf
 6850 2ccd E1       		.byte	0xe1
 6851 2cce D22C0000 		.4byte	0x2cd2
 6852 2cd2 08       		.uleb128 0x8
 6853 2cd3 37210000 		.4byte	0x2137
 6854 2cd7 67       		.uleb128 0x67
 6855 2cd8 150D0000 		.4byte	.LASF524
 6856 2cdc 0F       		.byte	0xf
 6857 2cdd E2       		.byte	0xe2
 6858 2cde E22C0000 		.4byte	0x2ce2
 6859 2ce2 08       		.uleb128 0x8
 6860 2ce3 D7200000 		.4byte	0x20d7
 6861 2ce7 67       		.uleb128 0x67
 6862 2ce8 C94C0000 		.4byte	.LASF525
 6863 2cec 0F       		.byte	0xf
 6864 2ced E3       		.byte	0xe3
 6865 2cee F22C0000 		.4byte	0x2cf2
 6866 2cf2 08       		.uleb128 0x8
 6867 2cf3 D7200000 		.4byte	0x20d7
 6868 2cf7 67       		.uleb128 0x67
 6869 2cf8 62270000 		.4byte	.LASF526
 6870 2cfc 0F       		.byte	0xf
 6871 2cfd E4       		.byte	0xe4
 6872 2cfe 022D0000 		.4byte	0x2d02
 6873 2d02 08       		.uleb128 0x8
ARM GAS  C:\Users\jrdia\AppData\Local\Temp\ccYHzYw6.s 			page 146


 6874 2d03 D7200000 		.4byte	0x20d7
 6875 2d07 67       		.uleb128 0x67
 6876 2d08 FC000000 		.4byte	.LASF527
 6877 2d0c 0F       		.byte	0xf
 6878 2d0d E5       		.byte	0xe5
 6879 2d0e 122D0000 		.4byte	0x2d12
 6880 2d12 08       		.uleb128 0x8
 6881 2d13 D7200000 		.4byte	0x20d7
 6882 2d17 67       		.uleb128 0x67
 6883 2d18 B6400000 		.4byte	.LASF528
 6884 2d1c 0F       		.byte	0xf
 6885 2d1d E6       		.byte	0xe6
 6886 2d1e 222D0000 		.4byte	0x2d22
 6887 2d22 08       		.uleb128 0x8
 6888 2d23 D7200000 		.4byte	0x20d7
 6889 2d27 67       		.uleb128 0x67
 6890 2d28 BB250000 		.4byte	.LASF529
 6891 2d2c 0F       		.byte	0xf
 6892 2d2d E9       		.byte	0xe9
 6893 2d2e 322D0000 		.4byte	0x2d32
 6894 2d32 08       		.uleb128 0x8
 6895 2d33 87240000 		.4byte	0x2487
 6896 2d37 67       		.uleb128 0x67
 6897 2d38 B7330000 		.4byte	.LASF530
 6898 2d3c 0F       		.byte	0xf
 6899 2d3d EA       		.byte	0xea
 6900 2d3e 422D0000 		.4byte	0x2d42
 6901 2d42 08       		.uleb128 0x8
 6902 2d43 57200000 		.4byte	0x2057
 6903 2d47 67       		.uleb128 0x67
 6904 2d48 3C610000 		.4byte	.LASF531
 6905 2d4c 0F       		.byte	0xf
 6906 2d4d EB       		.byte	0xeb
 6907 2d4e 522D0000 		.4byte	0x2d52
 6908 2d52 08       		.uleb128 0x8
 6909 2d53 F7200000 		.4byte	0x20f7
 6910 2d57 67       		.uleb128 0x67
 6911 2d58 DC200000 		.4byte	.LASF532
 6912 2d5c 0F       		.byte	0xf
 6913 2d5d EC       		.byte	0xec
 6914 2d5e 622D0000 		.4byte	0x2d62
 6915 2d62 08       		.uleb128 0x8
 6916 2d63 B71F0000 		.4byte	0x1fb7
 6917 2d67 67       		.uleb128 0x67
 6918 2d68 4C440000 		.4byte	.LASF533
 6919 2d6c 0F       		.byte	0xf
 6920 2d6d ED       		.byte	0xed
 6921 2d6e 722D0000 		.4byte	0x2d72
 6922 2d72 08       		.uleb128 0x8
 6923 2d73 B7220000 		.4byte	0x22b7
 6924 2d77 67       		.uleb128 0x67
 6925 2d78 6C3A0000 		.4byte	.LASF534
 6926 2d7c 0F       		.byte	0xf
 6927 2d7d EE       		.byte	0xee
 6928 2d7e 822D0000 		.4byte	0x2d82
 6929 2d82 08       		.uleb128 0x8
 6930 2d83 77210000 		.4byte	0x2177
ARM GAS  C:\Users\jrdia\AppData\Local\Temp\ccYHzYw6.s 			page 147


 6931 2d87 67       		.uleb128 0x67
 6932 2d88 41640000 		.4byte	.LASF535
 6933 2d8c 0F       		.byte	0xf
 6934 2d8d EF       		.byte	0xef
 6935 2d8e 922D0000 		.4byte	0x2d92
 6936 2d92 08       		.uleb128 0x8
 6937 2d93 B7220000 		.4byte	0x22b7
 6938 2d97 67       		.uleb128 0x67
 6939 2d98 5F090000 		.4byte	.LASF536
 6940 2d9c 0F       		.byte	0xf
 6941 2d9d F0       		.byte	0xf0
 6942 2d9e A22D0000 		.4byte	0x2da2
 6943 2da2 08       		.uleb128 0x8
 6944 2da3 B7220000 		.4byte	0x22b7
 6945 2da7 67       		.uleb128 0x67
 6946 2da8 4C3C0000 		.4byte	.LASF537
 6947 2dac 0F       		.byte	0xf
 6948 2dad F1       		.byte	0xf1
 6949 2dae B22D0000 		.4byte	0x2db2
 6950 2db2 08       		.uleb128 0x8
 6951 2db3 87200000 		.4byte	0x2087
 6952 2db7 67       		.uleb128 0x67
 6953 2db8 87010000 		.4byte	.LASF538
 6954 2dbc 0F       		.byte	0xf
 6955 2dbd F2       		.byte	0xf2
 6956 2dbe C22D0000 		.4byte	0x2dc2
 6957 2dc2 08       		.uleb128 0x8
 6958 2dc3 87240000 		.4byte	0x2487
 6959 2dc7 67       		.uleb128 0x67
 6960 2dc8 4D1D0000 		.4byte	.LASF539
 6961 2dcc 0F       		.byte	0xf
 6962 2dcd F3       		.byte	0xf3
 6963 2dce D22D0000 		.4byte	0x2dd2
 6964 2dd2 08       		.uleb128 0x8
 6965 2dd3 B7220000 		.4byte	0x22b7
 6966 2dd7 67       		.uleb128 0x67
 6967 2dd8 4A080000 		.4byte	.LASF540
 6968 2ddc 0F       		.byte	0xf
 6969 2ddd F4       		.byte	0xf4
 6970 2dde E22D0000 		.4byte	0x2de2
 6971 2de2 08       		.uleb128 0x8
 6972 2de3 87200000 		.4byte	0x2087
 6973 2de7 67       		.uleb128 0x67
 6974 2de8 975F0000 		.4byte	.LASF541
 6975 2dec 0F       		.byte	0xf
 6976 2ded F5       		.byte	0xf5
 6977 2dee F22D0000 		.4byte	0x2df2
 6978 2df2 08       		.uleb128 0x8
 6979 2df3 87200000 		.4byte	0x2087
 6980 2df7 67       		.uleb128 0x67
 6981 2df8 3C0C0000 		.4byte	.LASF542
 6982 2dfc 0F       		.byte	0xf
 6983 2dfd F6       		.byte	0xf6
 6984 2dfe 022E0000 		.4byte	0x2e02
 6985 2e02 08       		.uleb128 0x8
 6986 2e03 F7200000 		.4byte	0x20f7
 6987 2e07 67       		.uleb128 0x67
ARM GAS  C:\Users\jrdia\AppData\Local\Temp\ccYHzYw6.s 			page 148


 6988 2e08 C01A0000 		.4byte	.LASF543
 6989 2e0c 0F       		.byte	0xf
 6990 2e0d F7       		.byte	0xf7
 6991 2e0e 122E0000 		.4byte	0x2e12
 6992 2e12 08       		.uleb128 0x8
 6993 2e13 77210000 		.4byte	0x2177
 6994 2e17 67       		.uleb128 0x67
 6995 2e18 630C0000 		.4byte	.LASF544
 6996 2e1c 0F       		.byte	0xf
 6997 2e1d F8       		.byte	0xf8
 6998 2e1e 222E0000 		.4byte	0x2e22
 6999 2e22 08       		.uleb128 0x8
 7000 2e23 B7200000 		.4byte	0x20b7
 7001 2e27 67       		.uleb128 0x67
 7002 2e28 31230000 		.4byte	.LASF545
 7003 2e2c 0F       		.byte	0xf
 7004 2e2d F9       		.byte	0xf9
 7005 2e2e 322E0000 		.4byte	0x2e32
 7006 2e32 08       		.uleb128 0x8
 7007 2e33 37200000 		.4byte	0x2037
 7008 2e37 67       		.uleb128 0x67
 7009 2e38 F5370000 		.4byte	.LASF546
 7010 2e3c 0F       		.byte	0xf
 7011 2e3d FA       		.byte	0xfa
 7012 2e3e 422E0000 		.4byte	0x2e42
 7013 2e42 08       		.uleb128 0x8
 7014 2e43 17200000 		.4byte	0x2017
 7015 2e47 67       		.uleb128 0x67
 7016 2e48 9C170000 		.4byte	.LASF547
 7017 2e4c 0F       		.byte	0xf
 7018 2e4d FB       		.byte	0xfb
 7019 2e4e 522E0000 		.4byte	0x2e52
 7020 2e52 08       		.uleb128 0x8
 7021 2e53 D7200000 		.4byte	0x20d7
 7022 2e57 67       		.uleb128 0x67
 7023 2e58 4C5B0000 		.4byte	.LASF548
 7024 2e5c 0F       		.byte	0xf
 7025 2e5d FC       		.byte	0xfc
 7026 2e5e 622E0000 		.4byte	0x2e62
 7027 2e62 08       		.uleb128 0x8
 7028 2e63 37200000 		.4byte	0x2037
 7029 2e67 67       		.uleb128 0x67
 7030 2e68 2E050000 		.4byte	.LASF549
 7031 2e6c 0F       		.byte	0xf
 7032 2e6d FD       		.byte	0xfd
 7033 2e6e 722E0000 		.4byte	0x2e72
 7034 2e72 08       		.uleb128 0x8
 7035 2e73 37200000 		.4byte	0x2037
 7036 2e77 67       		.uleb128 0x67
 7037 2e78 C2530000 		.4byte	.LASF550
 7038 2e7c 0F       		.byte	0xf
 7039 2e7d FE       		.byte	0xfe
 7040 2e7e 822E0000 		.4byte	0x2e82
 7041 2e82 08       		.uleb128 0x8
 7042 2e83 F7200000 		.4byte	0x20f7
 7043 2e87 67       		.uleb128 0x67
 7044 2e88 1D100000 		.4byte	.LASF551
ARM GAS  C:\Users\jrdia\AppData\Local\Temp\ccYHzYw6.s 			page 149


 7045 2e8c 0F       		.byte	0xf
 7046 2e8d FF       		.byte	0xff
 7047 2e8e 922E0000 		.4byte	0x2e92
 7048 2e92 08       		.uleb128 0x8
 7049 2e93 87200000 		.4byte	0x2087
 7050 2e97 68       		.uleb128 0x68
 7051 2e98 F25D0000 		.4byte	.LASF552
 7052 2e9c 0F       		.byte	0xf
 7053 2e9d 0001     		.2byte	0x100
 7054 2e9f A32E0000 		.4byte	0x2ea3
 7055 2ea3 08       		.uleb128 0x8
 7056 2ea4 37210000 		.4byte	0x2137
 7057 2ea8 68       		.uleb128 0x68
 7058 2ea9 51300000 		.4byte	.LASF553
 7059 2ead 0F       		.byte	0xf
 7060 2eae 0101     		.2byte	0x101
 7061 2eb0 B42E0000 		.4byte	0x2eb4
 7062 2eb4 08       		.uleb128 0x8
 7063 2eb5 37200000 		.4byte	0x2037
 7064 2eb9 68       		.uleb128 0x68
 7065 2eba 912B0000 		.4byte	.LASF554
 7066 2ebe 0F       		.byte	0xf
 7067 2ebf 0201     		.2byte	0x102
 7068 2ec1 C52E0000 		.4byte	0x2ec5
 7069 2ec5 08       		.uleb128 0x8
 7070 2ec6 17200000 		.4byte	0x2017
 7071 2eca 68       		.uleb128 0x68
 7072 2ecb 5C470000 		.4byte	.LASF555
 7073 2ecf 0F       		.byte	0xf
 7074 2ed0 0301     		.2byte	0x103
 7075 2ed2 D62E0000 		.4byte	0x2ed6
 7076 2ed6 08       		.uleb128 0x8
 7077 2ed7 F71F0000 		.4byte	0x1ff7
 7078 2edb 68       		.uleb128 0x68
 7079 2edc 24610000 		.4byte	.LASF556
 7080 2ee0 0F       		.byte	0xf
 7081 2ee1 0401     		.2byte	0x104
 7082 2ee3 E72E0000 		.4byte	0x2ee7
 7083 2ee7 08       		.uleb128 0x8
 7084 2ee8 87240000 		.4byte	0x2487
 7085 2eec 68       		.uleb128 0x68
 7086 2eed 35310000 		.4byte	.LASF557
 7087 2ef1 0F       		.byte	0xf
 7088 2ef2 0701     		.2byte	0x107
 7089 2ef4 F82E0000 		.4byte	0x2ef8
 7090 2ef8 08       		.uleb128 0x8
 7091 2ef9 87240000 		.4byte	0x2487
 7092 2efd 68       		.uleb128 0x68
 7093 2efe A75B0000 		.4byte	.LASF558
 7094 2f02 0F       		.byte	0xf
 7095 2f03 0801     		.2byte	0x108
 7096 2f05 092F0000 		.4byte	0x2f09
 7097 2f09 08       		.uleb128 0x8
 7098 2f0a 57200000 		.4byte	0x2057
 7099 2f0e 68       		.uleb128 0x68
 7100 2f0f 8C550000 		.4byte	.LASF559
 7101 2f13 0F       		.byte	0xf
ARM GAS  C:\Users\jrdia\AppData\Local\Temp\ccYHzYw6.s 			page 150


 7102 2f14 0901     		.2byte	0x109
 7103 2f16 1A2F0000 		.4byte	0x2f1a
 7104 2f1a 08       		.uleb128 0x8
 7105 2f1b 57200000 		.4byte	0x2057
 7106 2f1f 68       		.uleb128 0x68
 7107 2f20 F31B0000 		.4byte	.LASF560
 7108 2f24 0F       		.byte	0xf
 7109 2f25 0A01     		.2byte	0x10a
 7110 2f27 2B2F0000 		.4byte	0x2f2b
 7111 2f2b 08       		.uleb128 0x8
 7112 2f2c E7260000 		.4byte	0x26e7
 7113 2f30 68       		.uleb128 0x68
 7114 2f31 AD540000 		.4byte	.LASF561
 7115 2f35 0F       		.byte	0xf
 7116 2f36 0B01     		.2byte	0x10b
 7117 2f38 3C2F0000 		.4byte	0x2f3c
 7118 2f3c 08       		.uleb128 0x8
 7119 2f3d D7220000 		.4byte	0x22d7
 7120 2f41 68       		.uleb128 0x68
 7121 2f42 36540000 		.4byte	.LASF562
 7122 2f46 0F       		.byte	0xf
 7123 2f47 0C01     		.2byte	0x10c
 7124 2f49 4D2F0000 		.4byte	0x2f4d
 7125 2f4d 08       		.uleb128 0x8
 7126 2f4e E7210000 		.4byte	0x21e7
 7127 2f52 68       		.uleb128 0x68
 7128 2f53 09040000 		.4byte	.LASF563
 7129 2f57 0F       		.byte	0xf
 7130 2f58 0D01     		.2byte	0x10d
 7131 2f5a 5E2F0000 		.4byte	0x2f5e
 7132 2f5e 08       		.uleb128 0x8
 7133 2f5f C7240000 		.4byte	0x24c7
 7134 2f63 68       		.uleb128 0x68
 7135 2f64 534D0000 		.4byte	.LASF564
 7136 2f68 0F       		.byte	0xf
 7137 2f69 1001     		.2byte	0x110
 7138 2f6b 6F2F0000 		.4byte	0x2f6f
 7139 2f6f 08       		.uleb128 0x8
 7140 2f70 37200000 		.4byte	0x2037
 7141 2f74 68       		.uleb128 0x68
 7142 2f75 373B0000 		.4byte	.LASF565
 7143 2f79 0F       		.byte	0xf
 7144 2f7a 1101     		.2byte	0x111
 7145 2f7c 802F0000 		.4byte	0x2f80
 7146 2f80 08       		.uleb128 0x8
 7147 2f81 37210000 		.4byte	0x2137
 7148 2f85 68       		.uleb128 0x68
 7149 2f86 700B0000 		.4byte	.LASF566
 7150 2f8a 0F       		.byte	0xf
 7151 2f8b 1201     		.2byte	0x112
 7152 2f8d 912F0000 		.4byte	0x2f91
 7153 2f91 08       		.uleb128 0x8
 7154 2f92 57200000 		.4byte	0x2057
 7155 2f96 68       		.uleb128 0x68
 7156 2f97 89520000 		.4byte	.LASF567
 7157 2f9b 0F       		.byte	0xf
 7158 2f9c 1301     		.2byte	0x113
ARM GAS  C:\Users\jrdia\AppData\Local\Temp\ccYHzYw6.s 			page 151


 7159 2f9e A22F0000 		.4byte	0x2fa2
 7160 2fa2 08       		.uleb128 0x8
 7161 2fa3 F7200000 		.4byte	0x20f7
 7162 2fa7 68       		.uleb128 0x68
 7163 2fa8 59370000 		.4byte	.LASF568
 7164 2fac 0F       		.byte	0xf
 7165 2fad 1401     		.2byte	0x114
 7166 2faf B32F0000 		.4byte	0x2fb3
 7167 2fb3 08       		.uleb128 0x8
 7168 2fb4 B7200000 		.4byte	0x20b7
 7169 2fb8 68       		.uleb128 0x68
 7170 2fb9 F5020000 		.4byte	.LASF569
 7171 2fbd 0F       		.byte	0xf
 7172 2fbe 1501     		.2byte	0x115
 7173 2fc0 C42F0000 		.4byte	0x2fc4
 7174 2fc4 08       		.uleb128 0x8
 7175 2fc5 B71F0000 		.4byte	0x1fb7
 7176 2fc9 68       		.uleb128 0x68
 7177 2fca 911B0000 		.4byte	.LASF570
 7178 2fce 0F       		.byte	0xf
 7179 2fcf 1601     		.2byte	0x116
 7180 2fd1 D52F0000 		.4byte	0x2fd5
 7181 2fd5 08       		.uleb128 0x8
 7182 2fd6 D71F0000 		.4byte	0x1fd7
 7183 2fda 68       		.uleb128 0x68
 7184 2fdb 66190000 		.4byte	.LASF571
 7185 2fdf 0F       		.byte	0xf
 7186 2fe0 1701     		.2byte	0x117
 7187 2fe2 E62F0000 		.4byte	0x2fe6
 7188 2fe6 08       		.uleb128 0x8
 7189 2fe7 B71F0000 		.4byte	0x1fb7
 7190 2feb 68       		.uleb128 0x68
 7191 2fec 4B370000 		.4byte	.LASF572
 7192 2ff0 0F       		.byte	0xf
 7193 2ff1 1801     		.2byte	0x118
 7194 2ff3 F72F0000 		.4byte	0x2ff7
 7195 2ff7 08       		.uleb128 0x8
 7196 2ff8 B7200000 		.4byte	0x20b7
 7197 2ffc 68       		.uleb128 0x68
 7198 2ffd DF130000 		.4byte	.LASF573
 7199 3001 0F       		.byte	0xf
 7200 3002 1901     		.2byte	0x119
 7201 3004 08300000 		.4byte	0x3008
 7202 3008 08       		.uleb128 0x8
 7203 3009 37210000 		.4byte	0x2137
 7204 300d 68       		.uleb128 0x68
 7205 300e 8B150000 		.4byte	.LASF574
 7206 3012 0F       		.byte	0xf
 7207 3013 1A01     		.2byte	0x11a
 7208 3015 19300000 		.4byte	0x3019
 7209 3019 08       		.uleb128 0x8
 7210 301a 87200000 		.4byte	0x2087
 7211 301e 68       		.uleb128 0x68
 7212 301f 67300000 		.4byte	.LASF575
 7213 3023 0F       		.byte	0xf
 7214 3024 1B01     		.2byte	0x11b
 7215 3026 2A300000 		.4byte	0x302a
ARM GAS  C:\Users\jrdia\AppData\Local\Temp\ccYHzYw6.s 			page 152


 7216 302a 08       		.uleb128 0x8
 7217 302b 87240000 		.4byte	0x2487
 7218 302f 68       		.uleb128 0x68
 7219 3030 E5500000 		.4byte	.LASF576
 7220 3034 0F       		.byte	0xf
 7221 3035 1C01     		.2byte	0x11c
 7222 3037 3B300000 		.4byte	0x303b
 7223 303b 08       		.uleb128 0x8
 7224 303c F7200000 		.4byte	0x20f7
 7225 3040 68       		.uleb128 0x68
 7226 3041 365B0000 		.4byte	.LASF577
 7227 3045 0F       		.byte	0xf
 7228 3046 1D01     		.2byte	0x11d
 7229 3048 4C300000 		.4byte	0x304c
 7230 304c 08       		.uleb128 0x8
 7231 304d 77210000 		.4byte	0x2177
 7232 3051 68       		.uleb128 0x68
 7233 3052 AB010000 		.4byte	.LASF578
 7234 3056 0F       		.byte	0xf
 7235 3057 1E01     		.2byte	0x11e
 7236 3059 5D300000 		.4byte	0x305d
 7237 305d 08       		.uleb128 0x8
 7238 305e 57200000 		.4byte	0x2057
 7239 3062 68       		.uleb128 0x68
 7240 3063 15450000 		.4byte	.LASF579
 7241 3067 0F       		.byte	0xf
 7242 3068 1F01     		.2byte	0x11f
 7243 306a 6E300000 		.4byte	0x306e
 7244 306e 08       		.uleb128 0x8
 7245 306f D7200000 		.4byte	0x20d7
 7246 3073 68       		.uleb128 0x68
 7247 3074 E8260000 		.4byte	.LASF580
 7248 3078 0F       		.byte	0xf
 7249 3079 2001     		.2byte	0x120
 7250 307b 7F300000 		.4byte	0x307f
 7251 307f 08       		.uleb128 0x8
 7252 3080 D7200000 		.4byte	0x20d7
 7253 3084 68       		.uleb128 0x68
 7254 3085 79500000 		.4byte	.LASF581
 7255 3089 0F       		.byte	0xf
 7256 308a 2101     		.2byte	0x121
 7257 308c 90300000 		.4byte	0x3090
 7258 3090 08       		.uleb128 0x8
 7259 3091 C7240000 		.4byte	0x24c7
 7260 3095 68       		.uleb128 0x68
 7261 3096 04440000 		.4byte	.LASF582
 7262 309a 0F       		.byte	0xf
 7263 309b 2201     		.2byte	0x122
 7264 309d A1300000 		.4byte	0x30a1
 7265 30a1 08       		.uleb128 0x8
 7266 30a2 37200000 		.4byte	0x2037
 7267 30a6 68       		.uleb128 0x68
 7268 30a7 10020000 		.4byte	.LASF583
 7269 30ab 0F       		.byte	0xf
 7270 30ac 2301     		.2byte	0x123
 7271 30ae B2300000 		.4byte	0x30b2
 7272 30b2 08       		.uleb128 0x8
ARM GAS  C:\Users\jrdia\AppData\Local\Temp\ccYHzYw6.s 			page 153


 7273 30b3 B71F0000 		.4byte	0x1fb7
 7274 30b7 68       		.uleb128 0x68
 7275 30b8 32150000 		.4byte	.LASF584
 7276 30bc 0F       		.byte	0xf
 7277 30bd 2401     		.2byte	0x124
 7278 30bf C3300000 		.4byte	0x30c3
 7279 30c3 08       		.uleb128 0x8
 7280 30c4 B71F0000 		.4byte	0x1fb7
 7281 30c8 68       		.uleb128 0x68
 7282 30c9 D7530000 		.4byte	.LASF585
 7283 30cd 0F       		.byte	0xf
 7284 30ce 2501     		.2byte	0x125
 7285 30d0 D4300000 		.4byte	0x30d4
 7286 30d4 08       		.uleb128 0x8
 7287 30d5 F71F0000 		.4byte	0x1ff7
 7288 30d9 68       		.uleb128 0x68
 7289 30da D6080000 		.4byte	.LASF586
 7290 30de 0F       		.byte	0xf
 7291 30df 2601     		.2byte	0x126
 7292 30e1 E5300000 		.4byte	0x30e5
 7293 30e5 08       		.uleb128 0x8
 7294 30e6 37200000 		.4byte	0x2037
 7295 30ea 68       		.uleb128 0x68
 7296 30eb E6460000 		.4byte	.LASF587
 7297 30ef 0F       		.byte	0xf
 7298 30f0 2701     		.2byte	0x127
 7299 30f2 F6300000 		.4byte	0x30f6
 7300 30f6 08       		.uleb128 0x8
 7301 30f7 B7200000 		.4byte	0x20b7
 7302 30fb 68       		.uleb128 0x68
 7303 30fc 1F0E0000 		.4byte	.LASF588
 7304 3100 0F       		.byte	0xf
 7305 3101 2801     		.2byte	0x128
 7306 3103 07310000 		.4byte	0x3107
 7307 3107 08       		.uleb128 0x8
 7308 3108 37200000 		.4byte	0x2037
 7309 310c 68       		.uleb128 0x68
 7310 310d 1A3C0000 		.4byte	.LASF589
 7311 3111 0F       		.byte	0xf
 7312 3112 2901     		.2byte	0x129
 7313 3114 18310000 		.4byte	0x3118
 7314 3118 08       		.uleb128 0x8
 7315 3119 37210000 		.4byte	0x2137
 7316 311d 68       		.uleb128 0x68
 7317 311e 26040000 		.4byte	.LASF590
 7318 3122 0F       		.byte	0xf
 7319 3123 2A01     		.2byte	0x12a
 7320 3125 29310000 		.4byte	0x3129
 7321 3129 08       		.uleb128 0x8
 7322 312a D7200000 		.4byte	0x20d7
 7323 312e 68       		.uleb128 0x68
 7324 312f 31060000 		.4byte	.LASF591
 7325 3133 0F       		.byte	0xf
 7326 3134 2B01     		.2byte	0x12b
 7327 3136 3A310000 		.4byte	0x313a
 7328 313a 08       		.uleb128 0x8
 7329 313b D7200000 		.4byte	0x20d7
ARM GAS  C:\Users\jrdia\AppData\Local\Temp\ccYHzYw6.s 			page 154


 7330 313f 68       		.uleb128 0x68
 7331 3140 73160000 		.4byte	.LASF592
 7332 3144 0F       		.byte	0xf
 7333 3145 2C01     		.2byte	0x12c
 7334 3147 4B310000 		.4byte	0x314b
 7335 314b 08       		.uleb128 0x8
 7336 314c F7200000 		.4byte	0x20f7
 7337 3150 68       		.uleb128 0x68
 7338 3151 9D4B0000 		.4byte	.LASF593
 7339 3155 0F       		.byte	0xf
 7340 3156 2D01     		.2byte	0x12d
 7341 3158 5C310000 		.4byte	0x315c
 7342 315c 08       		.uleb128 0x8
 7343 315d F7200000 		.4byte	0x20f7
 7344 3161 68       		.uleb128 0x68
 7345 3162 F0440000 		.4byte	.LASF594
 7346 3166 0F       		.byte	0xf
 7347 3167 2E01     		.2byte	0x12e
 7348 3169 6D310000 		.4byte	0x316d
 7349 316d 08       		.uleb128 0x8
 7350 316e 37200000 		.4byte	0x2037
 7351 3172 68       		.uleb128 0x68
 7352 3173 D4290000 		.4byte	.LASF595
 7353 3177 0F       		.byte	0xf
 7354 3178 2F01     		.2byte	0x12f
 7355 317a 7E310000 		.4byte	0x317e
 7356 317e 08       		.uleb128 0x8
 7357 317f B7200000 		.4byte	0x20b7
 7358 3183 68       		.uleb128 0x68
 7359 3184 7C190000 		.4byte	.LASF596
 7360 3188 0F       		.byte	0xf
 7361 3189 3001     		.2byte	0x130
 7362 318b 8F310000 		.4byte	0x318f
 7363 318f 08       		.uleb128 0x8
 7364 3190 B71F0000 		.4byte	0x1fb7
 7365 3194 68       		.uleb128 0x68
 7366 3195 C6640000 		.4byte	.LASF597
 7367 3199 0F       		.byte	0xf
 7368 319a 3101     		.2byte	0x131
 7369 319c A0310000 		.4byte	0x31a0
 7370 31a0 08       		.uleb128 0x8
 7371 31a1 37200000 		.4byte	0x2037
 7372 31a5 68       		.uleb128 0x68
 7373 31a6 7B110000 		.4byte	.LASF598
 7374 31aa 0F       		.byte	0xf
 7375 31ab 3201     		.2byte	0x132
 7376 31ad B1310000 		.4byte	0x31b1
 7377 31b1 08       		.uleb128 0x8
 7378 31b2 17200000 		.4byte	0x2017
 7379 31b6 68       		.uleb128 0x68
 7380 31b7 58240000 		.4byte	.LASF599
 7381 31bb 0F       		.byte	0xf
 7382 31bc 3301     		.2byte	0x133
 7383 31be C2310000 		.4byte	0x31c2
 7384 31c2 08       		.uleb128 0x8
 7385 31c3 17200000 		.4byte	0x2017
 7386 31c7 68       		.uleb128 0x68
ARM GAS  C:\Users\jrdia\AppData\Local\Temp\ccYHzYw6.s 			page 155


 7387 31c8 58620000 		.4byte	.LASF600
 7388 31cc 0F       		.byte	0xf
 7389 31cd 3401     		.2byte	0x134
 7390 31cf D3310000 		.4byte	0x31d3
 7391 31d3 08       		.uleb128 0x8
 7392 31d4 57200000 		.4byte	0x2057
 7393 31d8 68       		.uleb128 0x68
 7394 31d9 DF210000 		.4byte	.LASF601
 7395 31dd 0F       		.byte	0xf
 7396 31de 3501     		.2byte	0x135
 7397 31e0 E4310000 		.4byte	0x31e4
 7398 31e4 08       		.uleb128 0x8
 7399 31e5 B7200000 		.4byte	0x20b7
 7400 31e9 68       		.uleb128 0x68
 7401 31ea E4090000 		.4byte	.LASF602
 7402 31ee 0F       		.byte	0xf
 7403 31ef 3601     		.2byte	0x136
 7404 31f1 F5310000 		.4byte	0x31f5
 7405 31f5 08       		.uleb128 0x8
 7406 31f6 37200000 		.4byte	0x2037
 7407 31fa 68       		.uleb128 0x68
 7408 31fb 2B5A0000 		.4byte	.LASF603
 7409 31ff 0F       		.byte	0xf
 7410 3200 3701     		.2byte	0x137
 7411 3202 06320000 		.4byte	0x3206
 7412 3206 08       		.uleb128 0x8
 7413 3207 D7200000 		.4byte	0x20d7
 7414 320b 68       		.uleb128 0x68
 7415 320c D2500000 		.4byte	.LASF604
 7416 3210 0F       		.byte	0xf
 7417 3211 3801     		.2byte	0x138
 7418 3213 17320000 		.4byte	0x3217
 7419 3217 08       		.uleb128 0x8
 7420 3218 F7200000 		.4byte	0x20f7
 7421 321c 68       		.uleb128 0x68
 7422 321d CA220000 		.4byte	.LASF605
 7423 3221 0F       		.byte	0xf
 7424 3222 3901     		.2byte	0x139
 7425 3224 28320000 		.4byte	0x3228
 7426 3228 08       		.uleb128 0x8
 7427 3229 F7200000 		.4byte	0x20f7
 7428 322d 68       		.uleb128 0x68
 7429 322e C3290000 		.4byte	.LASF606
 7430 3232 0F       		.byte	0xf
 7431 3233 3A01     		.2byte	0x13a
 7432 3235 39320000 		.4byte	0x3239
 7433 3239 08       		.uleb128 0x8
 7434 323a 37200000 		.4byte	0x2037
 7435 323e 68       		.uleb128 0x68
 7436 323f 2A170000 		.4byte	.LASF607
 7437 3243 0F       		.byte	0xf
 7438 3244 3B01     		.2byte	0x13b
 7439 3246 4A320000 		.4byte	0x324a
 7440 324a 08       		.uleb128 0x8
 7441 324b B7200000 		.4byte	0x20b7
 7442 324f 68       		.uleb128 0x68
 7443 3250 A1460000 		.4byte	.LASF608
ARM GAS  C:\Users\jrdia\AppData\Local\Temp\ccYHzYw6.s 			page 156


 7444 3254 0F       		.byte	0xf
 7445 3255 3C01     		.2byte	0x13c
 7446 3257 5B320000 		.4byte	0x325b
 7447 325b 08       		.uleb128 0x8
 7448 325c D71F0000 		.4byte	0x1fd7
 7449 3260 68       		.uleb128 0x68
 7450 3261 402D0000 		.4byte	.LASF609
 7451 3265 0F       		.byte	0xf
 7452 3266 3D01     		.2byte	0x13d
 7453 3268 6C320000 		.4byte	0x326c
 7454 326c 08       		.uleb128 0x8
 7455 326d 37210000 		.4byte	0x2137
 7456 3271 68       		.uleb128 0x68
 7457 3272 87260000 		.4byte	.LASF610
 7458 3276 0F       		.byte	0xf
 7459 3277 3E01     		.2byte	0x13e
 7460 3279 7D320000 		.4byte	0x327d
 7461 327d 08       		.uleb128 0x8
 7462 327e 37210000 		.4byte	0x2137
 7463 3282 68       		.uleb128 0x68
 7464 3283 07330000 		.4byte	.LASF611
 7465 3287 0F       		.byte	0xf
 7466 3288 3F01     		.2byte	0x13f
 7467 328a 8E320000 		.4byte	0x328e
 7468 328e 08       		.uleb128 0x8
 7469 328f D7200000 		.4byte	0x20d7
 7470 3293 68       		.uleb128 0x68
 7471 3294 83100000 		.4byte	.LASF612
 7472 3298 0F       		.byte	0xf
 7473 3299 4001     		.2byte	0x140
 7474 329b 9F320000 		.4byte	0x329f
 7475 329f 08       		.uleb128 0x8
 7476 32a0 B71F0000 		.4byte	0x1fb7
 7477 32a4 68       		.uleb128 0x68
 7478 32a5 76090000 		.4byte	.LASF613
 7479 32a9 0F       		.byte	0xf
 7480 32aa 4101     		.2byte	0x141
 7481 32ac B0320000 		.4byte	0x32b0
 7482 32b0 08       		.uleb128 0x8
 7483 32b1 B71F0000 		.4byte	0x1fb7
 7484 32b5 68       		.uleb128 0x68
 7485 32b6 A01B0000 		.4byte	.LASF614
 7486 32ba 0F       		.byte	0xf
 7487 32bb 4201     		.2byte	0x142
 7488 32bd C1320000 		.4byte	0x32c1
 7489 32c1 08       		.uleb128 0x8
 7490 32c2 B7200000 		.4byte	0x20b7
 7491 32c6 68       		.uleb128 0x68
 7492 32c7 9C410000 		.4byte	.LASF615
 7493 32cb 0F       		.byte	0xf
 7494 32cc 4301     		.2byte	0x143
 7495 32ce D2320000 		.4byte	0x32d2
 7496 32d2 08       		.uleb128 0x8
 7497 32d3 D7200000 		.4byte	0x20d7
 7498 32d7 68       		.uleb128 0x68
 7499 32d8 D3000000 		.4byte	.LASF616
 7500 32dc 0F       		.byte	0xf
ARM GAS  C:\Users\jrdia\AppData\Local\Temp\ccYHzYw6.s 			page 157


 7501 32dd 4401     		.2byte	0x144
 7502 32df E3320000 		.4byte	0x32e3
 7503 32e3 08       		.uleb128 0x8
 7504 32e4 37200000 		.4byte	0x2037
 7505 32e8 68       		.uleb128 0x68
 7506 32e9 7E510000 		.4byte	.LASF617
 7507 32ed 0F       		.byte	0xf
 7508 32ee 4501     		.2byte	0x145
 7509 32f0 F4320000 		.4byte	0x32f4
 7510 32f4 08       		.uleb128 0x8
 7511 32f5 B7200000 		.4byte	0x20b7
 7512 32f9 68       		.uleb128 0x68
 7513 32fa 415C0000 		.4byte	.LASF618
 7514 32fe 0F       		.byte	0xf
 7515 32ff 4601     		.2byte	0x146
 7516 3301 05330000 		.4byte	0x3305
 7517 3305 08       		.uleb128 0x8
 7518 3306 D71F0000 		.4byte	0x1fd7
 7519 330a 68       		.uleb128 0x68
 7520 330b AC410000 		.4byte	.LASF619
 7521 330f 0F       		.byte	0xf
 7522 3310 4701     		.2byte	0x147
 7523 3312 16330000 		.4byte	0x3316
 7524 3316 08       		.uleb128 0x8
 7525 3317 B71F0000 		.4byte	0x1fb7
 7526 331b 68       		.uleb128 0x68
 7527 331c 5F480000 		.4byte	.LASF620
 7528 3320 0F       		.byte	0xf
 7529 3321 4801     		.2byte	0x148
 7530 3323 27330000 		.4byte	0x3327
 7531 3327 08       		.uleb128 0x8
 7532 3328 D71F0000 		.4byte	0x1fd7
 7533 332c 68       		.uleb128 0x68
 7534 332d AA630000 		.4byte	.LASF621
 7535 3331 0F       		.byte	0xf
 7536 3332 4901     		.2byte	0x149
 7537 3334 38330000 		.4byte	0x3338
 7538 3338 08       		.uleb128 0x8
 7539 3339 87200000 		.4byte	0x2087
 7540 333d 68       		.uleb128 0x68
 7541 333e 522D0000 		.4byte	.LASF622
 7542 3342 0F       		.byte	0xf
 7543 3343 4A01     		.2byte	0x14a
 7544 3345 49330000 		.4byte	0x3349
 7545 3349 08       		.uleb128 0x8
 7546 334a C7240000 		.4byte	0x24c7
 7547 334e 68       		.uleb128 0x68
 7548 334f BD320000 		.4byte	.LASF623
 7549 3353 0F       		.byte	0xf
 7550 3354 4B01     		.2byte	0x14b
 7551 3356 5A330000 		.4byte	0x335a
 7552 335a 08       		.uleb128 0x8
 7553 335b E7210000 		.4byte	0x21e7
 7554 335f 68       		.uleb128 0x68
 7555 3360 BA560000 		.4byte	.LASF624
 7556 3364 0F       		.byte	0xf
 7557 3365 4C01     		.2byte	0x14c
ARM GAS  C:\Users\jrdia\AppData\Local\Temp\ccYHzYw6.s 			page 158


 7558 3367 6B330000 		.4byte	0x336b
 7559 336b 08       		.uleb128 0x8
 7560 336c D7200000 		.4byte	0x20d7
 7561 3370 68       		.uleb128 0x68
 7562 3371 011E0000 		.4byte	.LASF625
 7563 3375 0F       		.byte	0xf
 7564 3376 4D01     		.2byte	0x14d
 7565 3378 7C330000 		.4byte	0x337c
 7566 337c 08       		.uleb128 0x8
 7567 337d 37210000 		.4byte	0x2137
 7568 3381 68       		.uleb128 0x68
 7569 3382 E3510000 		.4byte	.LASF626
 7570 3386 0F       		.byte	0xf
 7571 3387 4E01     		.2byte	0x14e
 7572 3389 8D330000 		.4byte	0x338d
 7573 338d 08       		.uleb128 0x8
 7574 338e 87240000 		.4byte	0x2487
 7575 3392 68       		.uleb128 0x68
 7576 3393 C8380000 		.4byte	.LASF627
 7577 3397 0F       		.byte	0xf
 7578 3398 4F01     		.2byte	0x14f
 7579 339a 9E330000 		.4byte	0x339e
 7580 339e 08       		.uleb128 0x8
 7581 339f 87240000 		.4byte	0x2487
 7582 33a3 68       		.uleb128 0x68
 7583 33a4 4D0C0000 		.4byte	.LASF628
 7584 33a8 0F       		.byte	0xf
 7585 33a9 5001     		.2byte	0x150
 7586 33ab AF330000 		.4byte	0x33af
 7587 33af 08       		.uleb128 0x8
 7588 33b0 F7200000 		.4byte	0x20f7
 7589 33b4 68       		.uleb128 0x68
 7590 33b5 6A1A0000 		.4byte	.LASF629
 7591 33b9 0F       		.byte	0xf
 7592 33ba 5101     		.2byte	0x151
 7593 33bc C0330000 		.4byte	0x33c0
 7594 33c0 08       		.uleb128 0x8
 7595 33c1 87200000 		.4byte	0x2087
 7596 33c5 68       		.uleb128 0x68
 7597 33c6 21210000 		.4byte	.LASF630
 7598 33ca 0F       		.byte	0xf
 7599 33cb 5201     		.2byte	0x152
 7600 33cd D1330000 		.4byte	0x33d1
 7601 33d1 08       		.uleb128 0x8
 7602 33d2 C7240000 		.4byte	0x24c7
 7603 33d6 68       		.uleb128 0x68
 7604 33d7 5F250000 		.4byte	.LASF631
 7605 33db 0F       		.byte	0xf
 7606 33dc 5301     		.2byte	0x153
 7607 33de E2330000 		.4byte	0x33e2
 7608 33e2 08       		.uleb128 0x8
 7609 33e3 F71F0000 		.4byte	0x1ff7
 7610 33e7 68       		.uleb128 0x68
 7611 33e8 F5150000 		.4byte	.LASF632
 7612 33ec 0F       		.byte	0xf
 7613 33ed 5401     		.2byte	0x154
 7614 33ef F3330000 		.4byte	0x33f3
ARM GAS  C:\Users\jrdia\AppData\Local\Temp\ccYHzYw6.s 			page 159


 7615 33f3 08       		.uleb128 0x8
 7616 33f4 C7240000 		.4byte	0x24c7
 7617 33f8 68       		.uleb128 0x68
 7618 33f9 66610000 		.4byte	.LASF633
 7619 33fd 0F       		.byte	0xf
 7620 33fe 5501     		.2byte	0x155
 7621 3400 04340000 		.4byte	0x3404
 7622 3404 08       		.uleb128 0x8
 7623 3405 F71F0000 		.4byte	0x1ff7
 7624 3409 68       		.uleb128 0x68
 7625 340a EA4F0000 		.4byte	.LASF634
 7626 340e 0F       		.byte	0xf
 7627 340f 5601     		.2byte	0x156
 7628 3411 15340000 		.4byte	0x3415
 7629 3415 08       		.uleb128 0x8
 7630 3416 B7220000 		.4byte	0x22b7
 7631 341a 68       		.uleb128 0x68
 7632 341b 36440000 		.4byte	.LASF635
 7633 341f 0F       		.byte	0xf
 7634 3420 5701     		.2byte	0x157
 7635 3422 26340000 		.4byte	0x3426
 7636 3426 08       		.uleb128 0x8
 7637 3427 F7200000 		.4byte	0x20f7
 7638 342b 68       		.uleb128 0x68
 7639 342c A5320000 		.4byte	.LASF636
 7640 3430 0F       		.byte	0xf
 7641 3431 5801     		.2byte	0x158
 7642 3433 37340000 		.4byte	0x3437
 7643 3437 08       		.uleb128 0x8
 7644 3438 37210000 		.4byte	0x2137
 7645 343c 68       		.uleb128 0x68
 7646 343d B1060000 		.4byte	.LASF637
 7647 3441 0F       		.byte	0xf
 7648 3442 5901     		.2byte	0x159
 7649 3444 48340000 		.4byte	0x3448
 7650 3448 08       		.uleb128 0x8
 7651 3449 37210000 		.4byte	0x2137
 7652 344d 68       		.uleb128 0x68
 7653 344e 8F1D0000 		.4byte	.LASF638
 7654 3452 0F       		.byte	0xf
 7655 3453 5A01     		.2byte	0x15a
 7656 3455 59340000 		.4byte	0x3459
 7657 3459 08       		.uleb128 0x8
 7658 345a F7200000 		.4byte	0x20f7
 7659 345e 68       		.uleb128 0x68
 7660 345f 2C1A0000 		.4byte	.LASF639
 7661 3463 0F       		.byte	0xf
 7662 3464 5B01     		.2byte	0x15b
 7663 3466 6A340000 		.4byte	0x346a
 7664 346a 08       		.uleb128 0x8
 7665 346b 57200000 		.4byte	0x2057
 7666 346f 68       		.uleb128 0x68
 7667 3470 E7100000 		.4byte	.LASF640
 7668 3474 0F       		.byte	0xf
 7669 3475 5C01     		.2byte	0x15c
 7670 3477 7B340000 		.4byte	0x347b
 7671 347b 08       		.uleb128 0x8
ARM GAS  C:\Users\jrdia\AppData\Local\Temp\ccYHzYw6.s 			page 160


 7672 347c 87240000 		.4byte	0x2487
 7673 3480 68       		.uleb128 0x68
 7674 3481 1D020000 		.4byte	.LASF641
 7675 3485 0F       		.byte	0xf
 7676 3486 5F01     		.2byte	0x15f
 7677 3488 8C340000 		.4byte	0x348c
 7678 348c 08       		.uleb128 0x8
 7679 348d D71F0000 		.4byte	0x1fd7
 7680 3491 68       		.uleb128 0x68
 7681 3492 8E110000 		.4byte	.LASF642
 7682 3496 0F       		.byte	0xf
 7683 3497 6001     		.2byte	0x160
 7684 3499 9D340000 		.4byte	0x349d
 7685 349d 08       		.uleb128 0x8
 7686 349e 37210000 		.4byte	0x2137
 7687 34a2 68       		.uleb128 0x68
 7688 34a3 97300000 		.4byte	.LASF643
 7689 34a7 0F       		.byte	0xf
 7690 34a8 6101     		.2byte	0x161
 7691 34aa AE340000 		.4byte	0x34ae
 7692 34ae 08       		.uleb128 0x8
 7693 34af 37210000 		.4byte	0x2137
 7694 34b3 68       		.uleb128 0x68
 7695 34b4 A4020000 		.4byte	.LASF644
 7696 34b8 0F       		.byte	0xf
 7697 34b9 6201     		.2byte	0x162
 7698 34bb BF340000 		.4byte	0x34bf
 7699 34bf 08       		.uleb128 0x8
 7700 34c0 F7200000 		.4byte	0x20f7
 7701 34c4 68       		.uleb128 0x68
 7702 34c5 FB4D0000 		.4byte	.LASF645
 7703 34c9 0F       		.byte	0xf
 7704 34ca 6301     		.2byte	0x163
 7705 34cc D0340000 		.4byte	0x34d0
 7706 34d0 08       		.uleb128 0x8
 7707 34d1 F7200000 		.4byte	0x20f7
 7708 34d5 68       		.uleb128 0x68
 7709 34d6 B0460000 		.4byte	.LASF646
 7710 34da 0F       		.byte	0xf
 7711 34db 6401     		.2byte	0x164
 7712 34dd E1340000 		.4byte	0x34e1
 7713 34e1 08       		.uleb128 0x8
 7714 34e2 57200000 		.4byte	0x2057
 7715 34e6 68       		.uleb128 0x68
 7716 34e7 7C430000 		.4byte	.LASF647
 7717 34eb 0F       		.byte	0xf
 7718 34ec 6501     		.2byte	0x165
 7719 34ee F2340000 		.4byte	0x34f2
 7720 34f2 08       		.uleb128 0x8
 7721 34f3 57200000 		.4byte	0x2057
 7722 34f7 68       		.uleb128 0x68
 7723 34f8 FC010000 		.4byte	.LASF648
 7724 34fc 0F       		.byte	0xf
 7725 34fd 6601     		.2byte	0x166
 7726 34ff 03350000 		.4byte	0x3503
 7727 3503 08       		.uleb128 0x8
 7728 3504 F7200000 		.4byte	0x20f7
ARM GAS  C:\Users\jrdia\AppData\Local\Temp\ccYHzYw6.s 			page 161


 7729 3508 68       		.uleb128 0x68
 7730 3509 44380000 		.4byte	.LASF649
 7731 350d 0F       		.byte	0xf
 7732 350e 6701     		.2byte	0x167
 7733 3510 14350000 		.4byte	0x3514
 7734 3514 08       		.uleb128 0x8
 7735 3515 D71F0000 		.4byte	0x1fd7
 7736 3519 68       		.uleb128 0x68
 7737 351a B5020000 		.4byte	.LASF650
 7738 351e 0F       		.byte	0xf
 7739 351f 6801     		.2byte	0x168
 7740 3521 25350000 		.4byte	0x3525
 7741 3525 08       		.uleb128 0x8
 7742 3526 F7200000 		.4byte	0x20f7
 7743 352a 68       		.uleb128 0x68
 7744 352b 001D0000 		.4byte	.LASF651
 7745 352f 0F       		.byte	0xf
 7746 3530 6A01     		.2byte	0x16a
 7747 3532 36350000 		.4byte	0x3536
 7748 3536 08       		.uleb128 0x8
 7749 3537 D7200000 		.4byte	0x20d7
 7750 353b 68       		.uleb128 0x68
 7751 353c A2220000 		.4byte	.LASF652
 7752 3540 0F       		.byte	0xf
 7753 3541 6B01     		.2byte	0x16b
 7754 3543 47350000 		.4byte	0x3547
 7755 3547 08       		.uleb128 0x8
 7756 3548 37200000 		.4byte	0x2037
 7757 354c 68       		.uleb128 0x68
 7758 354d 8B530000 		.4byte	.LASF653
 7759 3551 0F       		.byte	0xf
 7760 3552 6C01     		.2byte	0x16c
 7761 3554 58350000 		.4byte	0x3558
 7762 3558 08       		.uleb128 0x8
 7763 3559 B7200000 		.4byte	0x20b7
 7764 355d 68       		.uleb128 0x68
 7765 355e BF010000 		.4byte	.LASF654
 7766 3562 0F       		.byte	0xf
 7767 3563 6D01     		.2byte	0x16d
 7768 3565 69350000 		.4byte	0x3569
 7769 3569 08       		.uleb128 0x8
 7770 356a B7200000 		.4byte	0x20b7
 7771 356e 68       		.uleb128 0x68
 7772 356f 9C0C0000 		.4byte	.LASF655
 7773 3573 0F       		.byte	0xf
 7774 3574 6E01     		.2byte	0x16e
 7775 3576 7A350000 		.4byte	0x357a
 7776 357a 08       		.uleb128 0x8
 7777 357b 37210000 		.4byte	0x2137
 7778 357f 68       		.uleb128 0x68
 7779 3580 524F0000 		.4byte	.LASF656
 7780 3584 0F       		.byte	0xf
 7781 3585 6F01     		.2byte	0x16f
 7782 3587 8B350000 		.4byte	0x358b
 7783 358b 08       		.uleb128 0x8
 7784 358c 37200000 		.4byte	0x2037
 7785 3590 68       		.uleb128 0x68
ARM GAS  C:\Users\jrdia\AppData\Local\Temp\ccYHzYw6.s 			page 162


 7786 3591 AD500000 		.4byte	.LASF657
 7787 3595 0F       		.byte	0xf
 7788 3596 7001     		.2byte	0x170
 7789 3598 9C350000 		.4byte	0x359c
 7790 359c 08       		.uleb128 0x8
 7791 359d B7200000 		.4byte	0x20b7
 7792 35a1 68       		.uleb128 0x68
 7793 35a2 371D0000 		.4byte	.LASF658
 7794 35a6 0F       		.byte	0xf
 7795 35a7 7101     		.2byte	0x171
 7796 35a9 AD350000 		.4byte	0x35ad
 7797 35ad 08       		.uleb128 0x8
 7798 35ae 37210000 		.4byte	0x2137
 7799 35b2 68       		.uleb128 0x68
 7800 35b3 43450000 		.4byte	.LASF659
 7801 35b7 0F       		.byte	0xf
 7802 35b8 7301     		.2byte	0x173
 7803 35ba BE350000 		.4byte	0x35be
 7804 35be 08       		.uleb128 0x8
 7805 35bf 37210000 		.4byte	0x2137
 7806 35c3 68       		.uleb128 0x68
 7807 35c4 43560000 		.4byte	.LASF660
 7808 35c8 0F       		.byte	0xf
 7809 35c9 7401     		.2byte	0x174
 7810 35cb CF350000 		.4byte	0x35cf
 7811 35cf 08       		.uleb128 0x8
 7812 35d0 37200000 		.4byte	0x2037
 7813 35d4 68       		.uleb128 0x68
 7814 35d5 8F4F0000 		.4byte	.LASF661
 7815 35d9 0F       		.byte	0xf
 7816 35da 7501     		.2byte	0x175
 7817 35dc E0350000 		.4byte	0x35e0
 7818 35e0 08       		.uleb128 0x8
 7819 35e1 17200000 		.4byte	0x2017
 7820 35e5 68       		.uleb128 0x68
 7821 35e6 E9300000 		.4byte	.LASF662
 7822 35ea 0F       		.byte	0xf
 7823 35eb 7601     		.2byte	0x176
 7824 35ed F1350000 		.4byte	0x35f1
 7825 35f1 08       		.uleb128 0x8
 7826 35f2 37210000 		.4byte	0x2137
 7827 35f6 68       		.uleb128 0x68
 7828 35f7 33640000 		.4byte	.LASF663
 7829 35fb 0F       		.byte	0xf
 7830 35fc 7701     		.2byte	0x177
 7831 35fe 02360000 		.4byte	0x3602
 7832 3602 08       		.uleb128 0x8
 7833 3603 B7200000 		.4byte	0x20b7
 7834 3607 68       		.uleb128 0x68
 7835 3608 80610000 		.4byte	.LASF664
 7836 360c 0F       		.byte	0xf
 7837 360d 7801     		.2byte	0x178
 7838 360f 13360000 		.4byte	0x3613
 7839 3613 08       		.uleb128 0x8
 7840 3614 17200000 		.4byte	0x2017
 7841 3618 68       		.uleb128 0x68
 7842 3619 B90E0000 		.4byte	.LASF665
ARM GAS  C:\Users\jrdia\AppData\Local\Temp\ccYHzYw6.s 			page 163


 7843 361d 0F       		.byte	0xf
 7844 361e 7901     		.2byte	0x179
 7845 3620 24360000 		.4byte	0x3624
 7846 3624 08       		.uleb128 0x8
 7847 3625 37210000 		.4byte	0x2137
 7848 3629 68       		.uleb128 0x68
 7849 362a 19180000 		.4byte	.LASF666
 7850 362e 0F       		.byte	0xf
 7851 362f 7A01     		.2byte	0x17a
 7852 3631 35360000 		.4byte	0x3635
 7853 3635 08       		.uleb128 0x8
 7854 3636 17200000 		.4byte	0x2017
 7855 363a 68       		.uleb128 0x68
 7856 363b 1F3B0000 		.4byte	.LASF667
 7857 363f 0F       		.byte	0xf
 7858 3640 7B01     		.2byte	0x17b
 7859 3642 46360000 		.4byte	0x3646
 7860 3646 08       		.uleb128 0x8
 7861 3647 37210000 		.4byte	0x2137
 7862 364b 68       		.uleb128 0x68
 7863 364c 5D4B0000 		.4byte	.LASF668
 7864 3650 0F       		.byte	0xf
 7865 3651 7C01     		.2byte	0x17c
 7866 3653 57360000 		.4byte	0x3657
 7867 3657 08       		.uleb128 0x8
 7868 3658 17200000 		.4byte	0x2017
 7869 365c 68       		.uleb128 0x68
 7870 365d 42230000 		.4byte	.LASF669
 7871 3661 0F       		.byte	0xf
 7872 3662 7D01     		.2byte	0x17d
 7873 3664 68360000 		.4byte	0x3668
 7874 3668 08       		.uleb128 0x8
 7875 3669 87240000 		.4byte	0x2487
 7876 366d 68       		.uleb128 0x68
 7877 366e C5630000 		.4byte	.LASF670
 7878 3672 0F       		.byte	0xf
 7879 3673 7F01     		.2byte	0x17f
 7880 3675 79360000 		.4byte	0x3679
 7881 3679 08       		.uleb128 0x8
 7882 367a B71F0000 		.4byte	0x1fb7
 7883 367e 68       		.uleb128 0x68
 7884 367f A91D0000 		.4byte	.LASF671
 7885 3683 0F       		.byte	0xf
 7886 3684 8001     		.2byte	0x180
 7887 3686 8A360000 		.4byte	0x368a
 7888 368a 08       		.uleb128 0x8
 7889 368b 87200000 		.4byte	0x2087
 7890 368f 68       		.uleb128 0x68
 7891 3690 8B2E0000 		.4byte	.LASF672
 7892 3694 0F       		.byte	0xf
 7893 3695 8101     		.2byte	0x181
 7894 3697 9B360000 		.4byte	0x369b
 7895 369b 08       		.uleb128 0x8
 7896 369c C7240000 		.4byte	0x24c7
 7897 36a0 68       		.uleb128 0x68
 7898 36a1 46600000 		.4byte	.LASF673
 7899 36a5 0F       		.byte	0xf
ARM GAS  C:\Users\jrdia\AppData\Local\Temp\ccYHzYw6.s 			page 164


 7900 36a6 8201     		.2byte	0x182
 7901 36a8 AC360000 		.4byte	0x36ac
 7902 36ac 08       		.uleb128 0x8
 7903 36ad F71F0000 		.4byte	0x1ff7
 7904 36b1 68       		.uleb128 0x68
 7905 36b2 60410000 		.4byte	.LASF674
 7906 36b6 0F       		.byte	0xf
 7907 36b7 8301     		.2byte	0x183
 7908 36b9 BD360000 		.4byte	0x36bd
 7909 36bd 08       		.uleb128 0x8
 7910 36be C7240000 		.4byte	0x24c7
 7911 36c2 68       		.uleb128 0x68
 7912 36c3 F0030000 		.4byte	.LASF675
 7913 36c7 0F       		.byte	0xf
 7914 36c8 8401     		.2byte	0x184
 7915 36ca CE360000 		.4byte	0x36ce
 7916 36ce 08       		.uleb128 0x8
 7917 36cf F71F0000 		.4byte	0x1ff7
 7918 36d3 68       		.uleb128 0x68
 7919 36d4 06560000 		.4byte	.LASF676
 7920 36d8 0F       		.byte	0xf
 7921 36d9 8501     		.2byte	0x185
 7922 36db DF360000 		.4byte	0x36df
 7923 36df 08       		.uleb128 0x8
 7924 36e0 B7220000 		.4byte	0x22b7
 7925 36e4 68       		.uleb128 0x68
 7926 36e5 05570000 		.4byte	.LASF677
 7927 36e9 0F       		.byte	0xf
 7928 36ea 8601     		.2byte	0x186
 7929 36ec F0360000 		.4byte	0x36f0
 7930 36f0 08       		.uleb128 0x8
 7931 36f1 B7220000 		.4byte	0x22b7
 7932 36f5 68       		.uleb128 0x68
 7933 36f6 62070000 		.4byte	.LASF678
 7934 36fa 0F       		.byte	0xf
 7935 36fb 8701     		.2byte	0x187
 7936 36fd 01370000 		.4byte	0x3701
 7937 3701 08       		.uleb128 0x8
 7938 3702 F71F0000 		.4byte	0x1ff7
 7939 3706 68       		.uleb128 0x68
 7940 3707 77570000 		.4byte	.LASF679
 7941 370b 0F       		.byte	0xf
 7942 370c 8801     		.2byte	0x188
 7943 370e 12370000 		.4byte	0x3712
 7944 3712 08       		.uleb128 0x8
 7945 3713 87240000 		.4byte	0x2487
 7946 3717 68       		.uleb128 0x68
 7947 3718 41500000 		.4byte	.LASF680
 7948 371c 0F       		.byte	0xf
 7949 371d 8901     		.2byte	0x189
 7950 371f 23370000 		.4byte	0x3723
 7951 3723 08       		.uleb128 0x8
 7952 3724 87240000 		.4byte	0x2487
 7953 3728 68       		.uleb128 0x68
 7954 3729 5E570000 		.4byte	.LASF681
 7955 372d 0F       		.byte	0xf
 7956 372e 8A01     		.2byte	0x18a
ARM GAS  C:\Users\jrdia\AppData\Local\Temp\ccYHzYw6.s 			page 165


 7957 3730 34370000 		.4byte	0x3734
 7958 3734 08       		.uleb128 0x8
 7959 3735 77210000 		.4byte	0x2177
 7960 3739 68       		.uleb128 0x68
 7961 373a 91080000 		.4byte	.LASF682
 7962 373e 0F       		.byte	0xf
 7963 373f 8B01     		.2byte	0x18b
 7964 3741 45370000 		.4byte	0x3745
 7965 3745 08       		.uleb128 0x8
 7966 3746 57200000 		.4byte	0x2057
 7967 374a 68       		.uleb128 0x68
 7968 374b 040E0000 		.4byte	.LASF683
 7969 374f 0F       		.byte	0xf
 7970 3750 8C01     		.2byte	0x18c
 7971 3752 56370000 		.4byte	0x3756
 7972 3756 08       		.uleb128 0x8
 7973 3757 57200000 		.4byte	0x2057
 7974 375b 68       		.uleb128 0x68
 7975 375c 3E190000 		.4byte	.LASF684
 7976 3760 0F       		.byte	0xf
 7977 3761 8D01     		.2byte	0x18d
 7978 3763 67370000 		.4byte	0x3767
 7979 3767 08       		.uleb128 0x8
 7980 3768 37210000 		.4byte	0x2137
 7981 376c 68       		.uleb128 0x68
 7982 376d 371C0000 		.4byte	.LASF685
 7983 3771 0F       		.byte	0xf
 7984 3772 8E01     		.2byte	0x18e
 7985 3774 78370000 		.4byte	0x3778
 7986 3778 08       		.uleb128 0x8
 7987 3779 C7240000 		.4byte	0x24c7
 7988 377d 68       		.uleb128 0x68
 7989 377e 9B010000 		.4byte	.LASF686
 7990 3782 0F       		.byte	0xf
 7991 3783 8F01     		.2byte	0x18f
 7992 3785 89370000 		.4byte	0x3789
 7993 3789 08       		.uleb128 0x8
 7994 378a D7200000 		.4byte	0x20d7
 7995 378e 68       		.uleb128 0x68
 7996 378f 8C230000 		.4byte	.LASF687
 7997 3793 0F       		.byte	0xf
 7998 3794 9001     		.2byte	0x190
 7999 3796 9A370000 		.4byte	0x379a
 8000 379a 08       		.uleb128 0x8
 8001 379b 571F0000 		.4byte	0x1f57
 8002 379f 68       		.uleb128 0x68
 8003 37a0 9F230000 		.4byte	.LASF688
 8004 37a4 0F       		.byte	0xf
 8005 37a5 9101     		.2byte	0x191
 8006 37a7 AB370000 		.4byte	0x37ab
 8007 37ab 08       		.uleb128 0x8
 8008 37ac 571F0000 		.4byte	0x1f57
 8009 37b0 68       		.uleb128 0x68
 8010 37b1 B2230000 		.4byte	.LASF689
 8011 37b5 0F       		.byte	0xf
 8012 37b6 9201     		.2byte	0x192
 8013 37b8 BC370000 		.4byte	0x37bc
ARM GAS  C:\Users\jrdia\AppData\Local\Temp\ccYHzYw6.s 			page 166


 8014 37bc 08       		.uleb128 0x8
 8015 37bd 571F0000 		.4byte	0x1f57
 8016 37c1 68       		.uleb128 0x68
 8017 37c2 C5230000 		.4byte	.LASF690
 8018 37c6 0F       		.byte	0xf
 8019 37c7 9301     		.2byte	0x193
 8020 37c9 CD370000 		.4byte	0x37cd
 8021 37cd 08       		.uleb128 0x8
 8022 37ce 571F0000 		.4byte	0x1f57
 8023 37d2 68       		.uleb128 0x68
 8024 37d3 56540000 		.4byte	.LASF691
 8025 37d7 0F       		.byte	0xf
 8026 37d8 9401     		.2byte	0x194
 8027 37da DE370000 		.4byte	0x37de
 8028 37de 08       		.uleb128 0x8
 8029 37df 571F0000 		.4byte	0x1f57
 8030 37e3 68       		.uleb128 0x68
 8031 37e4 07240000 		.4byte	.LASF692
 8032 37e8 0F       		.byte	0xf
 8033 37e9 9501     		.2byte	0x195
 8034 37eb EF370000 		.4byte	0x37ef
 8035 37ef 08       		.uleb128 0x8
 8036 37f0 571F0000 		.4byte	0x1f57
 8037 37f4 68       		.uleb128 0x68
 8038 37f5 83540000 		.4byte	.LASF693
 8039 37f9 0F       		.byte	0xf
 8040 37fa 9601     		.2byte	0x196
 8041 37fc 00380000 		.4byte	0x3800
 8042 3800 08       		.uleb128 0x8
 8043 3801 571F0000 		.4byte	0x1f57
 8044 3805 68       		.uleb128 0x68
 8045 3806 32240000 		.4byte	.LASF694
 8046 380a 0F       		.byte	0xf
 8047 380b 9701     		.2byte	0x197
 8048 380d 11380000 		.4byte	0x3811
 8049 3811 08       		.uleb128 0x8
 8050 3812 571F0000 		.4byte	0x1f57
 8051 3816 68       		.uleb128 0x68
 8052 3817 45240000 		.4byte	.LASF695
 8053 381b 0F       		.byte	0xf
 8054 381c 9801     		.2byte	0x198
 8055 381e 22380000 		.4byte	0x3822
 8056 3822 08       		.uleb128 0x8
 8057 3823 571F0000 		.4byte	0x1f57
 8058 3827 68       		.uleb128 0x68
 8059 3828 13540000 		.4byte	.LASF696
 8060 382c 0F       		.byte	0xf
 8061 382d 9901     		.2byte	0x199
 8062 382f 33380000 		.4byte	0x3833
 8063 3833 08       		.uleb128 0x8
 8064 3834 571F0000 		.4byte	0x1f57
 8065 3838 68       		.uleb128 0x68
 8066 3839 57520000 		.4byte	.LASF697
 8067 383d 0F       		.byte	0xf
 8068 383e 9A01     		.2byte	0x19a
 8069 3840 44380000 		.4byte	0x3844
 8070 3844 08       		.uleb128 0x8
ARM GAS  C:\Users\jrdia\AppData\Local\Temp\ccYHzYw6.s 			page 167


 8071 3845 571F0000 		.4byte	0x1f57
 8072 3849 68       		.uleb128 0x68
 8073 384a 58040000 		.4byte	.LASF698
 8074 384e 0F       		.byte	0xf
 8075 384f 9B01     		.2byte	0x19b
 8076 3851 55380000 		.4byte	0x3855
 8077 3855 08       		.uleb128 0x8
 8078 3856 571F0000 		.4byte	0x1f57
 8079 385a 68       		.uleb128 0x68
 8080 385b 99240000 		.4byte	.LASF699
 8081 385f 0F       		.byte	0xf
 8082 3860 9C01     		.2byte	0x19c
 8083 3862 66380000 		.4byte	0x3866
 8084 3866 08       		.uleb128 0x8
 8085 3867 571F0000 		.4byte	0x1f57
 8086 386b 68       		.uleb128 0x68
 8087 386c 21550000 		.4byte	.LASF700
 8088 3870 0F       		.byte	0xf
 8089 3871 9D01     		.2byte	0x19d
 8090 3873 77380000 		.4byte	0x3877
 8091 3877 08       		.uleb128 0x8
 8092 3878 571F0000 		.4byte	0x1f57
 8093 387c 68       		.uleb128 0x68
 8094 387d B2240000 		.4byte	.LASF701
 8095 3881 0F       		.byte	0xf
 8096 3882 9E01     		.2byte	0x19e
 8097 3884 88380000 		.4byte	0x3888
 8098 3888 08       		.uleb128 0x8
 8099 3889 571F0000 		.4byte	0x1f57
 8100 388d 68       		.uleb128 0x68
 8101 388e C5240000 		.4byte	.LASF702
 8102 3892 0F       		.byte	0xf
 8103 3893 9F01     		.2byte	0x19f
 8104 3895 99380000 		.4byte	0x3899
 8105 3899 08       		.uleb128 0x8
 8106 389a 571F0000 		.4byte	0x1f57
 8107 389e 68       		.uleb128 0x68
 8108 389f B2360000 		.4byte	.LASF703
 8109 38a3 0F       		.byte	0xf
 8110 38a4 A201     		.2byte	0x1a2
 8111 38a6 AA380000 		.4byte	0x38aa
 8112 38aa 08       		.uleb128 0x8
 8113 38ab 87200000 		.4byte	0x2087
 8114 38af 68       		.uleb128 0x68
 8115 38b0 3F290000 		.4byte	.LASF704
 8116 38b4 0F       		.byte	0xf
 8117 38b5 A301     		.2byte	0x1a3
 8118 38b7 BB380000 		.4byte	0x38bb
 8119 38bb 08       		.uleb128 0x8
 8120 38bc 57200000 		.4byte	0x2057
 8121 38c0 68       		.uleb128 0x68
 8122 38c1 904C0000 		.4byte	.LASF705
 8123 38c5 0F       		.byte	0xf
 8124 38c6 A601     		.2byte	0x1a6
 8125 38c8 CC380000 		.4byte	0x38cc
 8126 38cc 08       		.uleb128 0x8
 8127 38cd 37210000 		.4byte	0x2137
ARM GAS  C:\Users\jrdia\AppData\Local\Temp\ccYHzYw6.s 			page 168


 8128 38d1 68       		.uleb128 0x68
 8129 38d2 D92F0000 		.4byte	.LASF706
 8130 38d6 0F       		.byte	0xf
 8131 38d7 A701     		.2byte	0x1a7
 8132 38d9 DD380000 		.4byte	0x38dd
 8133 38dd 08       		.uleb128 0x8
 8134 38de 37200000 		.4byte	0x2037
 8135 38e2 68       		.uleb128 0x68
 8136 38e3 B12A0000 		.4byte	.LASF707
 8137 38e7 0F       		.byte	0xf
 8138 38e8 A801     		.2byte	0x1a8
 8139 38ea EE380000 		.4byte	0x38ee
 8140 38ee 08       		.uleb128 0x8
 8141 38ef B71F0000 		.4byte	0x1fb7
 8142 38f3 68       		.uleb128 0x68
 8143 38f4 40300000 		.4byte	.LASF708
 8144 38f8 0F       		.byte	0xf
 8145 38f9 A901     		.2byte	0x1a9
 8146 38fb FF380000 		.4byte	0x38ff
 8147 38ff 08       		.uleb128 0x8
 8148 3900 B7200000 		.4byte	0x20b7
 8149 3904 68       		.uleb128 0x68
 8150 3905 801E0000 		.4byte	.LASF709
 8151 3909 0F       		.byte	0xf
 8152 390a AA01     		.2byte	0x1aa
 8153 390c 10390000 		.4byte	0x3910
 8154 3910 08       		.uleb128 0x8
 8155 3911 D71F0000 		.4byte	0x1fd7
 8156 3915 68       		.uleb128 0x68
 8157 3916 EA2C0000 		.4byte	.LASF710
 8158 391a 0F       		.byte	0xf
 8159 391b AC01     		.2byte	0x1ac
 8160 391d 21390000 		.4byte	0x3921
 8161 3921 08       		.uleb128 0x8
 8162 3922 D71F0000 		.4byte	0x1fd7
 8163 3926 68       		.uleb128 0x68
 8164 3927 CD4E0000 		.4byte	.LASF711
 8165 392b 0F       		.byte	0xf
 8166 392c AD01     		.2byte	0x1ad
 8167 392e 32390000 		.4byte	0x3932
 8168 3932 08       		.uleb128 0x8
 8169 3933 D71F0000 		.4byte	0x1fd7
 8170 3937 68       		.uleb128 0x68
 8171 3938 5A510000 		.4byte	.LASF712
 8172 393c 0F       		.byte	0xf
 8173 393d AE01     		.2byte	0x1ae
 8174 393f 43390000 		.4byte	0x3943
 8175 3943 08       		.uleb128 0x8
 8176 3944 57200000 		.4byte	0x2057
 8177 3948 68       		.uleb128 0x68
 8178 3949 84120000 		.4byte	.LASF713
 8179 394d 0F       		.byte	0xf
 8180 394e AF01     		.2byte	0x1af
 8181 3950 54390000 		.4byte	0x3954
 8182 3954 08       		.uleb128 0x8
 8183 3955 17200000 		.4byte	0x2017
 8184 3959 68       		.uleb128 0x68
ARM GAS  C:\Users\jrdia\AppData\Local\Temp\ccYHzYw6.s 			page 169


 8185 395a 093B0000 		.4byte	.LASF714
 8186 395e 0F       		.byte	0xf
 8187 395f B001     		.2byte	0x1b0
 8188 3961 65390000 		.4byte	0x3965
 8189 3965 08       		.uleb128 0x8
 8190 3966 F7200000 		.4byte	0x20f7
 8191 396a 68       		.uleb128 0x68
 8192 396b 00180000 		.4byte	.LASF715
 8193 396f 0F       		.byte	0xf
 8194 3970 B101     		.2byte	0x1b1
 8195 3972 76390000 		.4byte	0x3976
 8196 3976 08       		.uleb128 0x8
 8197 3977 37210000 		.4byte	0x2137
 8198 397b 68       		.uleb128 0x68
 8199 397c 87590000 		.4byte	.LASF716
 8200 3980 0F       		.byte	0xf
 8201 3981 B201     		.2byte	0x1b2
 8202 3983 87390000 		.4byte	0x3987
 8203 3987 08       		.uleb128 0x8
 8204 3988 B7200000 		.4byte	0x20b7
 8205 398c 68       		.uleb128 0x68
 8206 398d 98430000 		.4byte	.LASF717
 8207 3991 0F       		.byte	0xf
 8208 3992 B301     		.2byte	0x1b3
 8209 3994 98390000 		.4byte	0x3998
 8210 3998 08       		.uleb128 0x8
 8211 3999 37210000 		.4byte	0x2137
 8212 399d 68       		.uleb128 0x68
 8213 399e E31B0000 		.4byte	.LASF718
 8214 39a2 0F       		.byte	0xf
 8215 39a3 B401     		.2byte	0x1b4
 8216 39a5 A9390000 		.4byte	0x39a9
 8217 39a9 08       		.uleb128 0x8
 8218 39aa F7200000 		.4byte	0x20f7
 8219 39ae 68       		.uleb128 0x68
 8220 39af 404F0000 		.4byte	.LASF719
 8221 39b3 0F       		.byte	0xf
 8222 39b4 B501     		.2byte	0x1b5
 8223 39b6 BA390000 		.4byte	0x39ba
 8224 39ba 08       		.uleb128 0x8
 8225 39bb 37210000 		.4byte	0x2137
 8226 39bf 68       		.uleb128 0x68
 8227 39c0 DC4E0000 		.4byte	.LASF720
 8228 39c4 0F       		.byte	0xf
 8229 39c5 B601     		.2byte	0x1b6
 8230 39c7 CB390000 		.4byte	0x39cb
 8231 39cb 08       		.uleb128 0x8
 8232 39cc 37210000 		.4byte	0x2137
 8233 39d0 68       		.uleb128 0x68
 8234 39d1 641D0000 		.4byte	.LASF721
 8235 39d5 0F       		.byte	0xf
 8236 39d6 B701     		.2byte	0x1b7
 8237 39d8 DC390000 		.4byte	0x39dc
 8238 39dc 08       		.uleb128 0x8
 8239 39dd 17200000 		.4byte	0x2017
 8240 39e1 68       		.uleb128 0x68
 8241 39e2 334B0000 		.4byte	.LASF722
ARM GAS  C:\Users\jrdia\AppData\Local\Temp\ccYHzYw6.s 			page 170


 8242 39e6 0F       		.byte	0xf
 8243 39e7 B801     		.2byte	0x1b8
 8244 39e9 ED390000 		.4byte	0x39ed
 8245 39ed 08       		.uleb128 0x8
 8246 39ee 37200000 		.4byte	0x2037
 8247 39f2 68       		.uleb128 0x68
 8248 39f3 DB470000 		.4byte	.LASF723
 8249 39f7 0F       		.byte	0xf
 8250 39f8 B901     		.2byte	0x1b9
 8251 39fa FE390000 		.4byte	0x39fe
 8252 39fe 08       		.uleb128 0x8
 8253 39ff 87240000 		.4byte	0x2487
 8254 3a03 68       		.uleb128 0x68
 8255 3a04 7E180000 		.4byte	.LASF724
 8256 3a08 0F       		.byte	0xf
 8257 3a09 BA01     		.2byte	0x1ba
 8258 3a0b 0F3A0000 		.4byte	0x3a0f
 8259 3a0f 08       		.uleb128 0x8
 8260 3a10 87240000 		.4byte	0x2487
 8261 3a14 68       		.uleb128 0x68
 8262 3a15 143A0000 		.4byte	.LASF725
 8263 3a19 0F       		.byte	0xf
 8264 3a1a BB01     		.2byte	0x1bb
 8265 3a1c 203A0000 		.4byte	0x3a20
 8266 3a20 08       		.uleb128 0x8
 8267 3a21 57200000 		.4byte	0x2057
 8268 3a25 68       		.uleb128 0x68
 8269 3a26 AF2C0000 		.4byte	.LASF726
 8270 3a2a 0F       		.byte	0xf
 8271 3a2b BC01     		.2byte	0x1bc
 8272 3a2d 313A0000 		.4byte	0x3a31
 8273 3a31 08       		.uleb128 0x8
 8274 3a32 57200000 		.4byte	0x2057
 8275 3a36 68       		.uleb128 0x68
 8276 3a37 1F0C0000 		.4byte	.LASF727
 8277 3a3b 0F       		.byte	0xf
 8278 3a3c BD01     		.2byte	0x1bd
 8279 3a3e 423A0000 		.4byte	0x3a42
 8280 3a42 08       		.uleb128 0x8
 8281 3a43 B7220000 		.4byte	0x22b7
 8282 3a47 68       		.uleb128 0x68
 8283 3a48 E7520000 		.4byte	.LASF728
 8284 3a4c 0F       		.byte	0xf
 8285 3a4d BE01     		.2byte	0x1be
 8286 3a4f 533A0000 		.4byte	0x3a53
 8287 3a53 08       		.uleb128 0x8
 8288 3a54 D7200000 		.4byte	0x20d7
 8289 3a58 68       		.uleb128 0x68
 8290 3a59 4B070000 		.4byte	.LASF729
 8291 3a5d 0F       		.byte	0xf
 8292 3a5e BF01     		.2byte	0x1bf
 8293 3a60 643A0000 		.4byte	0x3a64
 8294 3a64 08       		.uleb128 0x8
 8295 3a65 87240000 		.4byte	0x2487
 8296 3a69 68       		.uleb128 0x68
 8297 3a6a 802C0000 		.4byte	.LASF730
 8298 3a6e 0F       		.byte	0xf
ARM GAS  C:\Users\jrdia\AppData\Local\Temp\ccYHzYw6.s 			page 171


 8299 3a6f C001     		.2byte	0x1c0
 8300 3a71 753A0000 		.4byte	0x3a75
 8301 3a75 08       		.uleb128 0x8
 8302 3a76 37200000 		.4byte	0x2037
 8303 3a7a 68       		.uleb128 0x68
 8304 3a7b 3D110000 		.4byte	.LASF731
 8305 3a7f 0F       		.byte	0xf
 8306 3a80 C101     		.2byte	0x1c1
 8307 3a82 863A0000 		.4byte	0x3a86
 8308 3a86 08       		.uleb128 0x8
 8309 3a87 D71F0000 		.4byte	0x1fd7
 8310 3a8b 68       		.uleb128 0x68
 8311 3a8c 79550000 		.4byte	.LASF732
 8312 3a90 0F       		.byte	0xf
 8313 3a91 C201     		.2byte	0x1c2
 8314 3a93 973A0000 		.4byte	0x3a97
 8315 3a97 08       		.uleb128 0x8
 8316 3a98 B71F0000 		.4byte	0x1fb7
 8317 3a9c 68       		.uleb128 0x68
 8318 3a9d 191E0000 		.4byte	.LASF733
 8319 3aa1 0F       		.byte	0xf
 8320 3aa2 C301     		.2byte	0x1c3
 8321 3aa4 A83A0000 		.4byte	0x3aa8
 8322 3aa8 08       		.uleb128 0x8
 8323 3aa9 17200000 		.4byte	0x2017
 8324 3aad 68       		.uleb128 0x68
 8325 3aae 9D3C0000 		.4byte	.LASF734
 8326 3ab2 0F       		.byte	0xf
 8327 3ab3 C401     		.2byte	0x1c4
 8328 3ab5 B93A0000 		.4byte	0x3ab9
 8329 3ab9 08       		.uleb128 0x8
 8330 3aba 37210000 		.4byte	0x2137
 8331 3abe 68       		.uleb128 0x68
 8332 3abf AB160000 		.4byte	.LASF735
 8333 3ac3 0F       		.byte	0xf
 8334 3ac4 C501     		.2byte	0x1c5
 8335 3ac6 CA3A0000 		.4byte	0x3aca
 8336 3aca 08       		.uleb128 0x8
 8337 3acb 57200000 		.4byte	0x2057
 8338 3acf 68       		.uleb128 0x68
 8339 3ad0 C2610000 		.4byte	.LASF736
 8340 3ad4 0F       		.byte	0xf
 8341 3ad5 C601     		.2byte	0x1c6
 8342 3ad7 DB3A0000 		.4byte	0x3adb
 8343 3adb 08       		.uleb128 0x8
 8344 3adc 87240000 		.4byte	0x2487
 8345 3ae0 68       		.uleb128 0x68
 8346 3ae1 56290000 		.4byte	.LASF737
 8347 3ae5 0F       		.byte	0xf
 8348 3ae6 C701     		.2byte	0x1c7
 8349 3ae8 EC3A0000 		.4byte	0x3aec
 8350 3aec 08       		.uleb128 0x8
 8351 3aed 37210000 		.4byte	0x2137
 8352 3af1 68       		.uleb128 0x68
 8353 3af2 58640000 		.4byte	.LASF738
 8354 3af6 0F       		.byte	0xf
 8355 3af7 C801     		.2byte	0x1c8
ARM GAS  C:\Users\jrdia\AppData\Local\Temp\ccYHzYw6.s 			page 172


 8356 3af9 FD3A0000 		.4byte	0x3afd
 8357 3afd 08       		.uleb128 0x8
 8358 3afe F7200000 		.4byte	0x20f7
 8359 3b02 68       		.uleb128 0x68
 8360 3b03 9E5D0000 		.4byte	.LASF739
 8361 3b07 0F       		.byte	0xf
 8362 3b08 C901     		.2byte	0x1c9
 8363 3b0a 0E3B0000 		.4byte	0x3b0e
 8364 3b0e 08       		.uleb128 0x8
 8365 3b0f F7200000 		.4byte	0x20f7
 8366 3b13 68       		.uleb128 0x68
 8367 3b14 C9460000 		.4byte	.LASF740
 8368 3b18 0F       		.byte	0xf
 8369 3b19 CA01     		.2byte	0x1ca
 8370 3b1b 1F3B0000 		.4byte	0x3b1f
 8371 3b1f 08       		.uleb128 0x8
 8372 3b20 87240000 		.4byte	0x2487
 8373 3b24 68       		.uleb128 0x68
 8374 3b25 0E0A0000 		.4byte	.LASF741
 8375 3b29 0F       		.byte	0xf
 8376 3b2a CB01     		.2byte	0x1cb
 8377 3b2c 303B0000 		.4byte	0x3b30
 8378 3b30 08       		.uleb128 0x8
 8379 3b31 17200000 		.4byte	0x2017
 8380 3b35 68       		.uleb128 0x68
 8381 3b36 46350000 		.4byte	.LASF742
 8382 3b3a 0F       		.byte	0xf
 8383 3b3b CC01     		.2byte	0x1cc
 8384 3b3d 413B0000 		.4byte	0x3b41
 8385 3b41 08       		.uleb128 0x8
 8386 3b42 57200000 		.4byte	0x2057
 8387 3b46 68       		.uleb128 0x68
 8388 3b47 1E5B0000 		.4byte	.LASF743
 8389 3b4b 0F       		.byte	0xf
 8390 3b4c CD01     		.2byte	0x1cd
 8391 3b4e 523B0000 		.4byte	0x3b52
 8392 3b52 08       		.uleb128 0x8
 8393 3b53 57200000 		.4byte	0x2057
 8394 3b57 68       		.uleb128 0x68
 8395 3b58 B3490000 		.4byte	.LASF744
 8396 3b5c 0F       		.byte	0xf
 8397 3b5d CE01     		.2byte	0x1ce
 8398 3b5f 633B0000 		.4byte	0x3b63
 8399 3b63 08       		.uleb128 0x8
 8400 3b64 57200000 		.4byte	0x2057
 8401 3b68 68       		.uleb128 0x68
 8402 3b69 A5640000 		.4byte	.LASF745
 8403 3b6d 0F       		.byte	0xf
 8404 3b6e CF01     		.2byte	0x1cf
 8405 3b70 743B0000 		.4byte	0x3b74
 8406 3b74 08       		.uleb128 0x8
 8407 3b75 17200000 		.4byte	0x2017
 8408 3b79 68       		.uleb128 0x68
 8409 3b7a 7F5D0000 		.4byte	.LASF746
 8410 3b7e 0F       		.byte	0xf
 8411 3b7f D001     		.2byte	0x1d0
 8412 3b81 853B0000 		.4byte	0x3b85
ARM GAS  C:\Users\jrdia\AppData\Local\Temp\ccYHzYw6.s 			page 173


 8413 3b85 08       		.uleb128 0x8
 8414 3b86 57200000 		.4byte	0x2057
 8415 3b8a 68       		.uleb128 0x68
 8416 3b8b 501A0000 		.4byte	.LASF747
 8417 3b8f 0F       		.byte	0xf
 8418 3b90 D101     		.2byte	0x1d1
 8419 3b92 963B0000 		.4byte	0x3b96
 8420 3b96 08       		.uleb128 0x8
 8421 3b97 87200000 		.4byte	0x2087
 8422 3b9b 68       		.uleb128 0x68
 8423 3b9c 093E0000 		.4byte	.LASF748
 8424 3ba0 0F       		.byte	0xf
 8425 3ba1 D201     		.2byte	0x1d2
 8426 3ba3 A73B0000 		.4byte	0x3ba7
 8427 3ba7 08       		.uleb128 0x8
 8428 3ba8 57200000 		.4byte	0x2057
 8429 3bac 68       		.uleb128 0x68
 8430 3bad 8C510000 		.4byte	.LASF749
 8431 3bb1 0F       		.byte	0xf
 8432 3bb2 D301     		.2byte	0x1d3
 8433 3bb4 B83B0000 		.4byte	0x3bb8
 8434 3bb8 08       		.uleb128 0x8
 8435 3bb9 17200000 		.4byte	0x2017
 8436 3bbd 68       		.uleb128 0x68
 8437 3bbe 95500000 		.4byte	.LASF750
 8438 3bc2 0F       		.byte	0xf
 8439 3bc3 D401     		.2byte	0x1d4
 8440 3bc5 C93B0000 		.4byte	0x3bc9
 8441 3bc9 08       		.uleb128 0x8
 8442 3bca 57200000 		.4byte	0x2057
 8443 3bce 68       		.uleb128 0x68
 8444 3bcf B4050000 		.4byte	.LASF751
 8445 3bd3 0F       		.byte	0xf
 8446 3bd4 D501     		.2byte	0x1d5
 8447 3bd6 DA3B0000 		.4byte	0x3bda
 8448 3bda 08       		.uleb128 0x8
 8449 3bdb 87200000 		.4byte	0x2087
 8450 3bdf 68       		.uleb128 0x68
 8451 3be0 BC1E0000 		.4byte	.LASF752
 8452 3be4 0F       		.byte	0xf
 8453 3be5 D601     		.2byte	0x1d6
 8454 3be7 EB3B0000 		.4byte	0x3beb
 8455 3beb 08       		.uleb128 0x8
 8456 3bec B7200000 		.4byte	0x20b7
 8457 3bf0 68       		.uleb128 0x68
 8458 3bf1 322D0000 		.4byte	.LASF753
 8459 3bf5 0F       		.byte	0xf
 8460 3bf6 D701     		.2byte	0x1d7
 8461 3bf8 FC3B0000 		.4byte	0x3bfc
 8462 3bfc 08       		.uleb128 0x8
 8463 3bfd B7200000 		.4byte	0x20b7
 8464 3c01 68       		.uleb128 0x68
 8465 3c02 86620000 		.4byte	.LASF754
 8466 3c06 0F       		.byte	0xf
 8467 3c07 D801     		.2byte	0x1d8
 8468 3c09 0D3C0000 		.4byte	0x3c0d
 8469 3c0d 08       		.uleb128 0x8
ARM GAS  C:\Users\jrdia\AppData\Local\Temp\ccYHzYw6.s 			page 174


 8470 3c0e 87240000 		.4byte	0x2487
 8471 3c12 68       		.uleb128 0x68
 8472 3c13 BD030000 		.4byte	.LASF755
 8473 3c17 0F       		.byte	0xf
 8474 3c18 D901     		.2byte	0x1d9
 8475 3c1a 1E3C0000 		.4byte	0x3c1e
 8476 3c1e 08       		.uleb128 0x8
 8477 3c1f 57200000 		.4byte	0x2057
 8478 3c23 68       		.uleb128 0x68
 8479 3c24 F9350000 		.4byte	.LASF756
 8480 3c28 0F       		.byte	0xf
 8481 3c29 DA01     		.2byte	0x1da
 8482 3c2b 2F3C0000 		.4byte	0x3c2f
 8483 3c2f 08       		.uleb128 0x8
 8484 3c30 57200000 		.4byte	0x2057
 8485 3c34 68       		.uleb128 0x68
 8486 3c35 05320000 		.4byte	.LASF757
 8487 3c39 0F       		.byte	0xf
 8488 3c3a DB01     		.2byte	0x1db
 8489 3c3c 403C0000 		.4byte	0x3c40
 8490 3c40 08       		.uleb128 0x8
 8491 3c41 87200000 		.4byte	0x2087
 8492 3c45 68       		.uleb128 0x68
 8493 3c46 274F0000 		.4byte	.LASF758
 8494 3c4a 0F       		.byte	0xf
 8495 3c4b DC01     		.2byte	0x1dc
 8496 3c4d 513C0000 		.4byte	0x3c51
 8497 3c51 08       		.uleb128 0x8
 8498 3c52 87240000 		.4byte	0x2487
 8499 3c56 68       		.uleb128 0x68
 8500 3c57 B7420000 		.4byte	.LASF759
 8501 3c5b 0F       		.byte	0xf
 8502 3c5c DD01     		.2byte	0x1dd
 8503 3c5e 623C0000 		.4byte	0x3c62
 8504 3c62 08       		.uleb128 0x8
 8505 3c63 87240000 		.4byte	0x2487
 8506 3c67 68       		.uleb128 0x68
 8507 3c68 4E0D0000 		.4byte	.LASF760
 8508 3c6c 0F       		.byte	0xf
 8509 3c6d DE01     		.2byte	0x1de
 8510 3c6f 733C0000 		.4byte	0x3c73
 8511 3c73 08       		.uleb128 0x8
 8512 3c74 D7200000 		.4byte	0x20d7
 8513 3c78 68       		.uleb128 0x68
 8514 3c79 7D300000 		.4byte	.LASF761
 8515 3c7d 0F       		.byte	0xf
 8516 3c7e DF01     		.2byte	0x1df
 8517 3c80 843C0000 		.4byte	0x3c84
 8518 3c84 08       		.uleb128 0x8
 8519 3c85 D7200000 		.4byte	0x20d7
 8520 3c89 68       		.uleb128 0x68
 8521 3c8a 101D0000 		.4byte	.LASF762
 8522 3c8e 0F       		.byte	0xf
 8523 3c8f E001     		.2byte	0x1e0
 8524 3c91 953C0000 		.4byte	0x3c95
 8525 3c95 08       		.uleb128 0x8
 8526 3c96 57200000 		.4byte	0x2057
ARM GAS  C:\Users\jrdia\AppData\Local\Temp\ccYHzYw6.s 			page 175


 8527 3c9a 68       		.uleb128 0x68
 8528 3c9b 9B0B0000 		.4byte	.LASF763
 8529 3c9f 0F       		.byte	0xf
 8530 3ca0 E101     		.2byte	0x1e1
 8531 3ca2 A63C0000 		.4byte	0x3ca6
 8532 3ca6 08       		.uleb128 0x8
 8533 3ca7 B7200000 		.4byte	0x20b7
 8534 3cab 68       		.uleb128 0x68
 8535 3cac 36380000 		.4byte	.LASF764
 8536 3cb0 0F       		.byte	0xf
 8537 3cb1 E201     		.2byte	0x1e2
 8538 3cb3 B73C0000 		.4byte	0x3cb7
 8539 3cb7 08       		.uleb128 0x8
 8540 3cb8 B7200000 		.4byte	0x20b7
 8541 3cbc 68       		.uleb128 0x68
 8542 3cbd DA1D0000 		.4byte	.LASF765
 8543 3cc1 0F       		.byte	0xf
 8544 3cc2 E301     		.2byte	0x1e3
 8545 3cc4 C83C0000 		.4byte	0x3cc8
 8546 3cc8 08       		.uleb128 0x8
 8547 3cc9 D71F0000 		.4byte	0x1fd7
 8548 3ccd 68       		.uleb128 0x68
 8549 3cce 285D0000 		.4byte	.LASF766
 8550 3cd2 0F       		.byte	0xf
 8551 3cd3 E401     		.2byte	0x1e4
 8552 3cd5 D93C0000 		.4byte	0x3cd9
 8553 3cd9 08       		.uleb128 0x8
 8554 3cda D7200000 		.4byte	0x20d7
 8555 3cde 68       		.uleb128 0x68
 8556 3cdf CE540000 		.4byte	.LASF767
 8557 3ce3 0F       		.byte	0xf
 8558 3ce4 E501     		.2byte	0x1e5
 8559 3ce6 EA3C0000 		.4byte	0x3cea
 8560 3cea 08       		.uleb128 0x8
 8561 3ceb F7200000 		.4byte	0x20f7
 8562 3cef 68       		.uleb128 0x68
 8563 3cf0 4A340000 		.4byte	.LASF768
 8564 3cf4 0F       		.byte	0xf
 8565 3cf5 EB01     		.2byte	0x1eb
 8566 3cf7 FB3C0000 		.4byte	0x3cfb
 8567 3cfb 08       		.uleb128 0x8
 8568 3cfc 17200000 		.4byte	0x2017
 8569 3d00 68       		.uleb128 0x68
 8570 3d01 5C5E0000 		.4byte	.LASF769
 8571 3d05 0F       		.byte	0xf
 8572 3d06 EC01     		.2byte	0x1ec
 8573 3d08 0C3D0000 		.4byte	0x3d0c
 8574 3d0c 08       		.uleb128 0x8
 8575 3d0d 17200000 		.4byte	0x2017
 8576 3d11 68       		.uleb128 0x68
 8577 3d12 CC280000 		.4byte	.LASF770
 8578 3d16 0F       		.byte	0xf
 8579 3d17 EE01     		.2byte	0x1ee
 8580 3d19 1D3D0000 		.4byte	0x3d1d
 8581 3d1d 08       		.uleb128 0x8
 8582 3d1e D71F0000 		.4byte	0x1fd7
 8583 3d22 68       		.uleb128 0x68
ARM GAS  C:\Users\jrdia\AppData\Local\Temp\ccYHzYw6.s 			page 176


 8584 3d23 73260000 		.4byte	.LASF771
 8585 3d27 0F       		.byte	0xf
 8586 3d28 EF01     		.2byte	0x1ef
 8587 3d2a 2E3D0000 		.4byte	0x3d2e
 8588 3d2e 08       		.uleb128 0x8
 8589 3d2f D7200000 		.4byte	0x20d7
 8590 3d33 68       		.uleb128 0x68
 8591 3d34 DC0B0000 		.4byte	.LASF772
 8592 3d38 0F       		.byte	0xf
 8593 3d39 F001     		.2byte	0x1f0
 8594 3d3b 3F3D0000 		.4byte	0x3d3f
 8595 3d3f 08       		.uleb128 0x8
 8596 3d40 37200000 		.4byte	0x2037
 8597 3d44 68       		.uleb128 0x68
 8598 3d45 5C150000 		.4byte	.LASF773
 8599 3d49 0F       		.byte	0xf
 8600 3d4a F101     		.2byte	0x1f1
 8601 3d4c 503D0000 		.4byte	0x3d50
 8602 3d50 08       		.uleb128 0x8
 8603 3d51 37200000 		.4byte	0x2037
 8604 3d55 68       		.uleb128 0x68
 8605 3d56 E12E0000 		.4byte	.LASF774
 8606 3d5a 0F       		.byte	0xf
 8607 3d5b F301     		.2byte	0x1f3
 8608 3d5d 613D0000 		.4byte	0x3d61
 8609 3d61 08       		.uleb128 0x8
 8610 3d62 37200000 		.4byte	0x2037
 8611 3d66 68       		.uleb128 0x68
 8612 3d67 03430000 		.4byte	.LASF775
 8613 3d6b 0F       		.byte	0xf
 8614 3d6c F401     		.2byte	0x1f4
 8615 3d6e 723D0000 		.4byte	0x3d72
 8616 3d72 08       		.uleb128 0x8
 8617 3d73 37200000 		.4byte	0x2037
 8618 3d77 68       		.uleb128 0x68
 8619 3d78 664C0000 		.4byte	.LASF776
 8620 3d7c 0F       		.byte	0xf
 8621 3d7d F501     		.2byte	0x1f5
 8622 3d7f 833D0000 		.4byte	0x3d83
 8623 3d83 08       		.uleb128 0x8
 8624 3d84 37200000 		.4byte	0x2037
 8625 3d88 68       		.uleb128 0x68
 8626 3d89 474B0000 		.4byte	.LASF777
 8627 3d8d 0F       		.byte	0xf
 8628 3d8e F601     		.2byte	0x1f6
 8629 3d90 943D0000 		.4byte	0x3d94
 8630 3d94 08       		.uleb128 0x8
 8631 3d95 F7200000 		.4byte	0x20f7
 8632 3d99 68       		.uleb128 0x68
 8633 3d9a 71270000 		.4byte	.LASF778
 8634 3d9e 0F       		.byte	0xf
 8635 3d9f F701     		.2byte	0x1f7
 8636 3da1 A53D0000 		.4byte	0x3da5
 8637 3da5 08       		.uleb128 0x8
 8638 3da6 37200000 		.4byte	0x2037
 8639 3daa 68       		.uleb128 0x68
 8640 3dab 953A0000 		.4byte	.LASF779
ARM GAS  C:\Users\jrdia\AppData\Local\Temp\ccYHzYw6.s 			page 177


 8641 3daf 0F       		.byte	0xf
 8642 3db0 F801     		.2byte	0x1f8
 8643 3db2 B63D0000 		.4byte	0x3db6
 8644 3db6 08       		.uleb128 0x8
 8645 3db7 B7200000 		.4byte	0x20b7
 8646 3dbb 68       		.uleb128 0x68
 8647 3dbc 7E1B0000 		.4byte	.LASF780
 8648 3dc0 0F       		.byte	0xf
 8649 3dc1 F901     		.2byte	0x1f9
 8650 3dc3 C73D0000 		.4byte	0x3dc7
 8651 3dc7 08       		.uleb128 0x8
 8652 3dc8 37200000 		.4byte	0x2037
 8653 3dcc 68       		.uleb128 0x68
 8654 3dcd 2D570000 		.4byte	.LASF781
 8655 3dd1 0F       		.byte	0xf
 8656 3dd2 FA01     		.2byte	0x1fa
 8657 3dd4 D83D0000 		.4byte	0x3dd8
 8658 3dd8 08       		.uleb128 0x8
 8659 3dd9 37200000 		.4byte	0x2037
 8660 3ddd 68       		.uleb128 0x68
 8661 3dde 83490000 		.4byte	.LASF782
 8662 3de2 0F       		.byte	0xf
 8663 3de3 FB01     		.2byte	0x1fb
 8664 3de5 E93D0000 		.4byte	0x3de9
 8665 3de9 08       		.uleb128 0x8
 8666 3dea 57200000 		.4byte	0x2057
 8667 3dee 68       		.uleb128 0x68
 8668 3def 1D080000 		.4byte	.LASF783
 8669 3df3 0F       		.byte	0xf
 8670 3df4 FC01     		.2byte	0x1fc
 8671 3df6 FA3D0000 		.4byte	0x3dfa
 8672 3dfa 08       		.uleb128 0x8
 8673 3dfb B7220000 		.4byte	0x22b7
 8674 3dff 68       		.uleb128 0x68
 8675 3e00 6E2E0000 		.4byte	.LASF784
 8676 3e04 0F       		.byte	0xf
 8677 3e05 FD01     		.2byte	0x1fd
 8678 3e07 0B3E0000 		.4byte	0x3e0b
 8679 3e0b 08       		.uleb128 0x8
 8680 3e0c C7240000 		.4byte	0x24c7
 8681 3e10 68       		.uleb128 0x68
 8682 3e11 A61E0000 		.4byte	.LASF785
 8683 3e15 0F       		.byte	0xf
 8684 3e16 FE01     		.2byte	0x1fe
 8685 3e18 1C3E0000 		.4byte	0x3e1c
 8686 3e1c 08       		.uleb128 0x8
 8687 3e1d 87200000 		.4byte	0x2087
 8688 3e21 68       		.uleb128 0x68
 8689 3e22 5F600000 		.4byte	.LASF786
 8690 3e26 0F       		.byte	0xf
 8691 3e27 FF01     		.2byte	0x1ff
 8692 3e29 2D3E0000 		.4byte	0x3e2d
 8693 3e2d 08       		.uleb128 0x8
 8694 3e2e 87240000 		.4byte	0x2487
 8695 3e32 68       		.uleb128 0x68
 8696 3e33 11110000 		.4byte	.LASF787
 8697 3e37 0F       		.byte	0xf
ARM GAS  C:\Users\jrdia\AppData\Local\Temp\ccYHzYw6.s 			page 178


 8698 3e38 0002     		.2byte	0x200
 8699 3e3a 3E3E0000 		.4byte	0x3e3e
 8700 3e3e 08       		.uleb128 0x8
 8701 3e3f 37210000 		.4byte	0x2137
 8702 3e43 68       		.uleb128 0x68
 8703 3e44 2B2A0000 		.4byte	.LASF788
 8704 3e48 0F       		.byte	0xf
 8705 3e49 0102     		.2byte	0x201
 8706 3e4b 4F3E0000 		.4byte	0x3e4f
 8707 3e4f 08       		.uleb128 0x8
 8708 3e50 37210000 		.4byte	0x2137
 8709 3e54 68       		.uleb128 0x68
 8710 3e55 34550000 		.4byte	.LASF789
 8711 3e59 0F       		.byte	0xf
 8712 3e5a 0202     		.2byte	0x202
 8713 3e5c 603E0000 		.4byte	0x3e60
 8714 3e60 08       		.uleb128 0x8
 8715 3e61 17200000 		.4byte	0x2017
 8716 3e65 68       		.uleb128 0x68
 8717 3e66 5C0A0000 		.4byte	.LASF790
 8718 3e6a 0F       		.byte	0xf
 8719 3e6b 0302     		.2byte	0x203
 8720 3e6d 713E0000 		.4byte	0x3e71
 8721 3e71 08       		.uleb128 0x8
 8722 3e72 17200000 		.4byte	0x2017
 8723 3e76 68       		.uleb128 0x68
 8724 3e77 D0600000 		.4byte	.LASF791
 8725 3e7b 0F       		.byte	0xf
 8726 3e7c 0402     		.2byte	0x204
 8727 3e7e 823E0000 		.4byte	0x3e82
 8728 3e82 08       		.uleb128 0x8
 8729 3e83 37210000 		.4byte	0x2137
 8730 3e87 68       		.uleb128 0x68
 8731 3e88 D13C0000 		.4byte	.LASF792
 8732 3e8c 0F       		.byte	0xf
 8733 3e8d 0502     		.2byte	0x205
 8734 3e8f 933E0000 		.4byte	0x3e93
 8735 3e93 08       		.uleb128 0x8
 8736 3e94 B71F0000 		.4byte	0x1fb7
 8737 3e98 68       		.uleb128 0x68
 8738 3e99 42100000 		.4byte	.LASF793
 8739 3e9d 0F       		.byte	0xf
 8740 3e9e 0602     		.2byte	0x206
 8741 3ea0 A43E0000 		.4byte	0x3ea4
 8742 3ea4 08       		.uleb128 0x8
 8743 3ea5 F7200000 		.4byte	0x20f7
 8744 3ea9 68       		.uleb128 0x68
 8745 3eaa 721E0000 		.4byte	.LASF794
 8746 3eae 0F       		.byte	0xf
 8747 3eaf 0802     		.2byte	0x208
 8748 3eb1 B53E0000 		.4byte	0x3eb5
 8749 3eb5 08       		.uleb128 0x8
 8750 3eb6 B7200000 		.4byte	0x20b7
 8751 3eba 68       		.uleb128 0x68
 8752 3ebb C74B0000 		.4byte	.LASF795
 8753 3ebf 0F       		.byte	0xf
 8754 3ec0 0902     		.2byte	0x209
ARM GAS  C:\Users\jrdia\AppData\Local\Temp\ccYHzYw6.s 			page 179


 8755 3ec2 C63E0000 		.4byte	0x3ec6
 8756 3ec6 08       		.uleb128 0x8
 8757 3ec7 D7200000 		.4byte	0x20d7
 8758 3ecb 68       		.uleb128 0x68
 8759 3ecc FC410000 		.4byte	.LASF796
 8760 3ed0 0F       		.byte	0xf
 8761 3ed1 0A02     		.2byte	0x20a
 8762 3ed3 D73E0000 		.4byte	0x3ed7
 8763 3ed7 08       		.uleb128 0x8
 8764 3ed8 17200000 		.4byte	0x2017
 8765 3edc 68       		.uleb128 0x68
 8766 3edd 045E0000 		.4byte	.LASF797
 8767 3ee1 0F       		.byte	0xf
 8768 3ee2 0B02     		.2byte	0x20b
 8769 3ee4 E83E0000 		.4byte	0x3ee8
 8770 3ee8 08       		.uleb128 0x8
 8771 3ee9 37200000 		.4byte	0x2037
 8772 3eed 68       		.uleb128 0x68
 8773 3eee 93640000 		.4byte	.LASF798
 8774 3ef2 0F       		.byte	0xf
 8775 3ef3 0C02     		.2byte	0x20c
 8776 3ef5 F93E0000 		.4byte	0x3ef9
 8777 3ef9 08       		.uleb128 0x8
 8778 3efa B7200000 		.4byte	0x20b7
 8779 3efe 68       		.uleb128 0x68
 8780 3eff FC180000 		.4byte	.LASF799
 8781 3f03 0F       		.byte	0xf
 8782 3f04 0D02     		.2byte	0x20d
 8783 3f06 0A3F0000 		.4byte	0x3f0a
 8784 3f0a 08       		.uleb128 0x8
 8785 3f0b B71F0000 		.4byte	0x1fb7
 8786 3f0f 68       		.uleb128 0x68
 8787 3f10 503D0000 		.4byte	.LASF800
 8788 3f14 0F       		.byte	0xf
 8789 3f15 0E02     		.2byte	0x20e
 8790 3f17 1B3F0000 		.4byte	0x3f1b
 8791 3f1b 08       		.uleb128 0x8
 8792 3f1c F7200000 		.4byte	0x20f7
 8793 3f20 68       		.uleb128 0x68
 8794 3f21 D95E0000 		.4byte	.LASF801
 8795 3f25 0F       		.byte	0xf
 8796 3f26 0F02     		.2byte	0x20f
 8797 3f28 2C3F0000 		.4byte	0x3f2c
 8798 3f2c 08       		.uleb128 0x8
 8799 3f2d F7200000 		.4byte	0x20f7
 8800 3f31 68       		.uleb128 0x68
 8801 3f32 4E260000 		.4byte	.LASF802
 8802 3f36 0F       		.byte	0xf
 8803 3f37 1002     		.2byte	0x210
 8804 3f39 3D3F0000 		.4byte	0x3f3d
 8805 3f3d 08       		.uleb128 0x8
 8806 3f3e D71F0000 		.4byte	0x1fd7
 8807 3f42 68       		.uleb128 0x68
 8808 3f43 0F260000 		.4byte	.LASF803
 8809 3f47 0F       		.byte	0xf
 8810 3f48 1102     		.2byte	0x211
 8811 3f4a 4E3F0000 		.4byte	0x3f4e
ARM GAS  C:\Users\jrdia\AppData\Local\Temp\ccYHzYw6.s 			page 180


 8812 3f4e 08       		.uleb128 0x8
 8813 3f4f 17200000 		.4byte	0x2017
 8814 3f53 68       		.uleb128 0x68
 8815 3f54 60560000 		.4byte	.LASF804
 8816 3f58 0F       		.byte	0xf
 8817 3f59 1202     		.2byte	0x212
 8818 3f5b 5F3F0000 		.4byte	0x3f5f
 8819 3f5f 08       		.uleb128 0x8
 8820 3f60 37200000 		.4byte	0x2037
 8821 3f64 68       		.uleb128 0x68
 8822 3f65 7F080000 		.4byte	.LASF805
 8823 3f69 0F       		.byte	0xf
 8824 3f6a 1302     		.2byte	0x213
 8825 3f6c 703F0000 		.4byte	0x3f70
 8826 3f70 08       		.uleb128 0x8
 8827 3f71 37210000 		.4byte	0x2137
 8828 3f75 68       		.uleb128 0x68
 8829 3f76 81600000 		.4byte	.LASF806
 8830 3f7a 0F       		.byte	0xf
 8831 3f7b 1402     		.2byte	0x214
 8832 3f7d 813F0000 		.4byte	0x3f81
 8833 3f81 08       		.uleb128 0x8
 8834 3f82 37200000 		.4byte	0x2037
 8835 3f86 68       		.uleb128 0x68
 8836 3f87 53170000 		.4byte	.LASF807
 8837 3f8b 0F       		.byte	0xf
 8838 3f8c 1502     		.2byte	0x215
 8839 3f8e 923F0000 		.4byte	0x3f92
 8840 3f92 08       		.uleb128 0x8
 8841 3f93 B7200000 		.4byte	0x20b7
 8842 3f97 68       		.uleb128 0x68
 8843 3f98 3E480000 		.4byte	.LASF808
 8844 3f9c 0F       		.byte	0xf
 8845 3f9d 1602     		.2byte	0x216
 8846 3f9f A33F0000 		.4byte	0x3fa3
 8847 3fa3 08       		.uleb128 0x8
 8848 3fa4 37200000 		.4byte	0x2037
 8849 3fa8 68       		.uleb128 0x68
 8850 3fa9 10410000 		.4byte	.LASF809
 8851 3fad 0F       		.byte	0xf
 8852 3fae 1702     		.2byte	0x217
 8853 3fb0 B43F0000 		.4byte	0x3fb4
 8854 3fb4 08       		.uleb128 0x8
 8855 3fb5 37210000 		.4byte	0x2137
 8856 3fb9 68       		.uleb128 0x68
 8857 3fba 6F360000 		.4byte	.LASF810
 8858 3fbe 0F       		.byte	0xf
 8859 3fbf 1802     		.2byte	0x218
 8860 3fc1 C53F0000 		.4byte	0x3fc5
 8861 3fc5 08       		.uleb128 0x8
 8862 3fc6 17200000 		.4byte	0x2017
 8863 3fca 68       		.uleb128 0x68
 8864 3fcb 4F000000 		.4byte	.LASF811
 8865 3fcf 0F       		.byte	0xf
 8866 3fd0 1902     		.2byte	0x219
 8867 3fd2 D63F0000 		.4byte	0x3fd6
 8868 3fd6 08       		.uleb128 0x8
ARM GAS  C:\Users\jrdia\AppData\Local\Temp\ccYHzYw6.s 			page 181


 8869 3fd7 B7220000 		.4byte	0x22b7
 8870 3fdb 68       		.uleb128 0x68
 8871 3fdc 592B0000 		.4byte	.LASF812
 8872 3fe0 0F       		.byte	0xf
 8873 3fe1 1A02     		.2byte	0x21a
 8874 3fe3 E73F0000 		.4byte	0x3fe7
 8875 3fe7 08       		.uleb128 0x8
 8876 3fe8 87240000 		.4byte	0x2487
 8877 3fec 68       		.uleb128 0x68
 8878 3fed 13060000 		.4byte	.LASF813
 8879 3ff1 0F       		.byte	0xf
 8880 3ff2 1B02     		.2byte	0x21b
 8881 3ff4 F83F0000 		.4byte	0x3ff8
 8882 3ff8 08       		.uleb128 0x8
 8883 3ff9 37210000 		.4byte	0x2137
 8884 3ffd 68       		.uleb128 0x68
 8885 3ffe 22290000 		.4byte	.LASF814
 8886 4002 0F       		.byte	0xf
 8887 4003 1C02     		.2byte	0x21c
 8888 4005 09400000 		.4byte	0x4009
 8889 4009 08       		.uleb128 0x8
 8890 400a 17200000 		.4byte	0x2017
 8891 400e 68       		.uleb128 0x68
 8892 400f 89270000 		.4byte	.LASF815
 8893 4013 0F       		.byte	0xf
 8894 4014 1D02     		.2byte	0x21d
 8895 4016 1A400000 		.4byte	0x401a
 8896 401a 08       		.uleb128 0x8
 8897 401b 37200000 		.4byte	0x2037
 8898 401f 68       		.uleb128 0x68
 8899 4020 490B0000 		.4byte	.LASF816
 8900 4024 0F       		.byte	0xf
 8901 4025 1E02     		.2byte	0x21e
 8902 4027 2B400000 		.4byte	0x402b
 8903 402b 08       		.uleb128 0x8
 8904 402c 17200000 		.4byte	0x2017
 8905 4030 68       		.uleb128 0x68
 8906 4031 5B3B0000 		.4byte	.LASF817
 8907 4035 0F       		.byte	0xf
 8908 4036 1F02     		.2byte	0x21f
 8909 4038 3C400000 		.4byte	0x403c
 8910 403c 08       		.uleb128 0x8
 8911 403d B7200000 		.4byte	0x20b7
 8912 4041 68       		.uleb128 0x68
 8913 4042 53380000 		.4byte	.LASF818
 8914 4046 0F       		.byte	0xf
 8915 4047 2002     		.2byte	0x220
 8916 4049 4D400000 		.4byte	0x404d
 8917 404d 08       		.uleb128 0x8
 8918 404e D7200000 		.4byte	0x20d7
 8919 4052 68       		.uleb128 0x68
 8920 4053 AC5F0000 		.4byte	.LASF819
 8921 4057 0F       		.byte	0xf
 8922 4058 2102     		.2byte	0x221
 8923 405a 5E400000 		.4byte	0x405e
 8924 405e 08       		.uleb128 0x8
 8925 405f 37210000 		.4byte	0x2137
ARM GAS  C:\Users\jrdia\AppData\Local\Temp\ccYHzYw6.s 			page 182


 8926 4063 68       		.uleb128 0x68
 8927 4064 2B2E0000 		.4byte	.LASF820
 8928 4068 0F       		.byte	0xf
 8929 4069 2202     		.2byte	0x222
 8930 406b 6F400000 		.4byte	0x406f
 8931 406f 08       		.uleb128 0x8
 8932 4070 17200000 		.4byte	0x2017
 8933 4074 68       		.uleb128 0x68
 8934 4075 6A2A0000 		.4byte	.LASF821
 8935 4079 0F       		.byte	0xf
 8936 407a 2302     		.2byte	0x223
 8937 407c 80400000 		.4byte	0x4080
 8938 4080 08       		.uleb128 0x8
 8939 4081 F7200000 		.4byte	0x20f7
 8940 4085 68       		.uleb128 0x68
 8941 4086 563F0000 		.4byte	.LASF822
 8942 408a 0F       		.byte	0xf
 8943 408b 2402     		.2byte	0x224
 8944 408d 91400000 		.4byte	0x4091
 8945 4091 08       		.uleb128 0x8
 8946 4092 87200000 		.4byte	0x2087
 8947 4096 68       		.uleb128 0x68
 8948 4097 8C460000 		.4byte	.LASF823
 8949 409b 0F       		.byte	0xf
 8950 409c 2502     		.2byte	0x225
 8951 409e A2400000 		.4byte	0x40a2
 8952 40a2 08       		.uleb128 0x8
 8953 40a3 87240000 		.4byte	0x2487
 8954 40a7 68       		.uleb128 0x68
 8955 40a8 C4150000 		.4byte	.LASF824
 8956 40ac 0F       		.byte	0xf
 8957 40ad 2602     		.2byte	0x226
 8958 40af B3400000 		.4byte	0x40b3
 8959 40b3 08       		.uleb128 0x8
 8960 40b4 37200000 		.4byte	0x2037
 8961 40b8 68       		.uleb128 0x68
 8962 40b9 FD380000 		.4byte	.LASF825
 8963 40bd 0F       		.byte	0xf
 8964 40be 2702     		.2byte	0x227
 8965 40c0 C4400000 		.4byte	0x40c4
 8966 40c4 08       		.uleb128 0x8
 8967 40c5 37200000 		.4byte	0x2037
 8968 40c9 68       		.uleb128 0x68
 8969 40ca 330F0000 		.4byte	.LASF826
 8970 40ce 0F       		.byte	0xf
 8971 40cf 2802     		.2byte	0x228
 8972 40d1 D5400000 		.4byte	0x40d5
 8973 40d5 08       		.uleb128 0x8
 8974 40d6 17200000 		.4byte	0x2017
 8975 40da 68       		.uleb128 0x68
 8976 40db B4270000 		.4byte	.LASF827
 8977 40df 0F       		.byte	0xf
 8978 40e0 2902     		.2byte	0x229
 8979 40e2 E6400000 		.4byte	0x40e6
 8980 40e6 08       		.uleb128 0x8
 8981 40e7 17200000 		.4byte	0x2017
 8982 40eb 68       		.uleb128 0x68
ARM GAS  C:\Users\jrdia\AppData\Local\Temp\ccYHzYw6.s 			page 183


 8983 40ec A3560000 		.4byte	.LASF828
 8984 40f0 0F       		.byte	0xf
 8985 40f1 2A02     		.2byte	0x22a
 8986 40f3 F7400000 		.4byte	0x40f7
 8987 40f7 08       		.uleb128 0x8
 8988 40f8 F7200000 		.4byte	0x20f7
 8989 40fc 68       		.uleb128 0x68
 8990 40fd F4460000 		.4byte	.LASF829
 8991 4101 0F       		.byte	0xf
 8992 4102 2B02     		.2byte	0x22b
 8993 4104 08410000 		.4byte	0x4108
 8994 4108 08       		.uleb128 0x8
 8995 4109 F7200000 		.4byte	0x20f7
 8996 410d 68       		.uleb128 0x68
 8997 410e BA040000 		.4byte	.LASF830
 8998 4112 0F       		.byte	0xf
 8999 4113 2C02     		.2byte	0x22c
 9000 4115 19410000 		.4byte	0x4119
 9001 4119 08       		.uleb128 0x8
 9002 411a 37200000 		.4byte	0x2037
 9003 411e 68       		.uleb128 0x68
 9004 411f 16440000 		.4byte	.LASF831
 9005 4123 0F       		.byte	0xf
 9006 4124 2D02     		.2byte	0x22d
 9007 4126 2A410000 		.4byte	0x412a
 9008 412a 08       		.uleb128 0x8
 9009 412b 37210000 		.4byte	0x2137
 9010 412f 68       		.uleb128 0x68
 9011 4130 CE330000 		.4byte	.LASF832
 9012 4134 0F       		.byte	0xf
 9013 4135 2E02     		.2byte	0x22e
 9014 4137 3B410000 		.4byte	0x413b
 9015 413b 08       		.uleb128 0x8
 9016 413c 37200000 		.4byte	0x2037
 9017 4140 68       		.uleb128 0x68
 9018 4141 5A180000 		.4byte	.LASF833
 9019 4145 0F       		.byte	0xf
 9020 4146 2F02     		.2byte	0x22f
 9021 4148 4C410000 		.4byte	0x414c
 9022 414c 08       		.uleb128 0x8
 9023 414d 87200000 		.4byte	0x2087
 9024 4151 68       		.uleb128 0x68
 9025 4152 0C550000 		.4byte	.LASF834
 9026 4156 0F       		.byte	0xf
 9027 4157 3002     		.2byte	0x230
 9028 4159 5D410000 		.4byte	0x415d
 9029 415d 08       		.uleb128 0x8
 9030 415e F7200000 		.4byte	0x20f7
 9031 4162 68       		.uleb128 0x68
 9032 4163 F5090000 		.4byte	.LASF835
 9033 4167 0F       		.byte	0xf
 9034 4168 3102     		.2byte	0x231
 9035 416a 6E410000 		.4byte	0x416e
 9036 416e 08       		.uleb128 0x8
 9037 416f 57200000 		.4byte	0x2057
 9038 4173 68       		.uleb128 0x68
 9039 4174 86280000 		.4byte	.LASF836
ARM GAS  C:\Users\jrdia\AppData\Local\Temp\ccYHzYw6.s 			page 184


 9040 4178 0F       		.byte	0xf
 9041 4179 3202     		.2byte	0x232
 9042 417b 7F410000 		.4byte	0x417f
 9043 417f 08       		.uleb128 0x8
 9044 4180 B7220000 		.4byte	0x22b7
 9045 4184 68       		.uleb128 0x68
 9046 4185 D62C0000 		.4byte	.LASF837
 9047 4189 0F       		.byte	0xf
 9048 418a 3302     		.2byte	0x233
 9049 418c 90410000 		.4byte	0x4190
 9050 4190 08       		.uleb128 0x8
 9051 4191 D7200000 		.4byte	0x20d7
 9052 4195 68       		.uleb128 0x68
 9053 4196 48410000 		.4byte	.LASF838
 9054 419a 0F       		.byte	0xf
 9055 419b 3402     		.2byte	0x234
 9056 419d A1410000 		.4byte	0x41a1
 9057 41a1 08       		.uleb128 0x8
 9058 41a2 D7200000 		.4byte	0x20d7
 9059 41a6 68       		.uleb128 0x68
 9060 41a7 7C4C0000 		.4byte	.LASF839
 9061 41ab 0F       		.byte	0xf
 9062 41ac 3502     		.2byte	0x235
 9063 41ae B2410000 		.4byte	0x41b2
 9064 41b2 08       		.uleb128 0x8
 9065 41b3 D7200000 		.4byte	0x20d7
 9066 41b7 68       		.uleb128 0x68
 9067 41b8 431F0000 		.4byte	.LASF840
 9068 41bc 0F       		.byte	0xf
 9069 41bd 3602     		.2byte	0x236
 9070 41bf C3410000 		.4byte	0x41c3
 9071 41c3 08       		.uleb128 0x8
 9072 41c4 17200000 		.4byte	0x2017
 9073 41c8 68       		.uleb128 0x68
 9074 41c9 2B410000 		.4byte	.LASF841
 9075 41cd 0F       		.byte	0xf
 9076 41ce 3702     		.2byte	0x237
 9077 41d0 D4410000 		.4byte	0x41d4
 9078 41d4 08       		.uleb128 0x8
 9079 41d5 17200000 		.4byte	0x2017
 9080 41d9 68       		.uleb128 0x68
 9081 41da D74B0000 		.4byte	.LASF842
 9082 41de 0F       		.byte	0xf
 9083 41df 3802     		.2byte	0x238
 9084 41e1 E5410000 		.4byte	0x41e5
 9085 41e5 08       		.uleb128 0x8
 9086 41e6 57200000 		.4byte	0x2057
 9087 41ea 68       		.uleb128 0x68
 9088 41eb E7080000 		.4byte	.LASF843
 9089 41ef 0F       		.byte	0xf
 9090 41f0 3902     		.2byte	0x239
 9091 41f2 F6410000 		.4byte	0x41f6
 9092 41f6 08       		.uleb128 0x8
 9093 41f7 57200000 		.4byte	0x2057
 9094 41fb 68       		.uleb128 0x68
 9095 41fc E52B0000 		.4byte	.LASF844
 9096 4200 0F       		.byte	0xf
ARM GAS  C:\Users\jrdia\AppData\Local\Temp\ccYHzYw6.s 			page 185


 9097 4201 3A02     		.2byte	0x23a
 9098 4203 07420000 		.4byte	0x4207
 9099 4207 08       		.uleb128 0x8
 9100 4208 B7220000 		.4byte	0x22b7
 9101 420c 68       		.uleb128 0x68
 9102 420d 2C020000 		.4byte	.LASF845
 9103 4211 0F       		.byte	0xf
 9104 4212 3B02     		.2byte	0x23b
 9105 4214 18420000 		.4byte	0x4218
 9106 4218 08       		.uleb128 0x8
 9107 4219 F71F0000 		.4byte	0x1ff7
 9108 421d 68       		.uleb128 0x68
 9109 421e 86020000 		.4byte	.LASF846
 9110 4222 0F       		.byte	0xf
 9111 4223 3C02     		.2byte	0x23c
 9112 4225 29420000 		.4byte	0x4229
 9113 4229 08       		.uleb128 0x8
 9114 422a 17200000 		.4byte	0x2017
 9115 422e 68       		.uleb128 0x68
 9116 422f B2000000 		.4byte	.LASF847
 9117 4233 0F       		.byte	0xf
 9118 4234 3D02     		.2byte	0x23d
 9119 4236 3A420000 		.4byte	0x423a
 9120 423a 08       		.uleb128 0x8
 9121 423b C7240000 		.4byte	0x24c7
 9122 423f 68       		.uleb128 0x68
 9123 4240 C1190000 		.4byte	.LASF848
 9124 4244 0F       		.byte	0xf
 9125 4245 3E02     		.2byte	0x23e
 9126 4247 4B420000 		.4byte	0x424b
 9127 424b 08       		.uleb128 0x8
 9128 424c 87240000 		.4byte	0x2487
 9129 4250 68       		.uleb128 0x68
 9130 4251 74220000 		.4byte	.LASF849
 9131 4255 0F       		.byte	0xf
 9132 4256 3F02     		.2byte	0x23f
 9133 4258 5C420000 		.4byte	0x425c
 9134 425c 08       		.uleb128 0x8
 9135 425d 57200000 		.4byte	0x2057
 9136 4261 68       		.uleb128 0x68
 9137 4262 B7120000 		.4byte	.LASF850
 9138 4266 0F       		.byte	0xf
 9139 4267 4002     		.2byte	0x240
 9140 4269 6D420000 		.4byte	0x426d
 9141 426d 08       		.uleb128 0x8
 9142 426e 87240000 		.4byte	0x2487
 9143 4272 68       		.uleb128 0x68
 9144 4273 114A0000 		.4byte	.LASF851
 9145 4277 0F       		.byte	0xf
 9146 4278 4102     		.2byte	0x241
 9147 427a 7E420000 		.4byte	0x427e
 9148 427e 08       		.uleb128 0x8
 9149 427f 87200000 		.4byte	0x2087
 9150 4283 68       		.uleb128 0x68
 9151 4284 85400000 		.4byte	.LASF852
 9152 4288 0F       		.byte	0xf
 9153 4289 4202     		.2byte	0x242
ARM GAS  C:\Users\jrdia\AppData\Local\Temp\ccYHzYw6.s 			page 186


 9154 428b 8F420000 		.4byte	0x428f
 9155 428f 08       		.uleb128 0x8
 9156 4290 77210000 		.4byte	0x2177
 9157 4294 68       		.uleb128 0x68
 9158 4295 1B090000 		.4byte	.LASF853
 9159 4299 0F       		.byte	0xf
 9160 429a 4302     		.2byte	0x243
 9161 429c A0420000 		.4byte	0x42a0
 9162 42a0 08       		.uleb128 0x8
 9163 42a1 37210000 		.4byte	0x2137
 9164 42a5 68       		.uleb128 0x68
 9165 42a6 60200000 		.4byte	.LASF854
 9166 42aa 0F       		.byte	0xf
 9167 42ab 4402     		.2byte	0x244
 9168 42ad B1420000 		.4byte	0x42b1
 9169 42b1 08       		.uleb128 0x8
 9170 42b2 87200000 		.4byte	0x2087
 9171 42b6 68       		.uleb128 0x68
 9172 42b7 44180000 		.4byte	.LASF855
 9173 42bb 0F       		.byte	0xf
 9174 42bc 4502     		.2byte	0x245
 9175 42be C2420000 		.4byte	0x42c2
 9176 42c2 08       		.uleb128 0x8
 9177 42c3 17200000 		.4byte	0x2017
 9178 42c7 68       		.uleb128 0x68
 9179 42c8 A6370000 		.4byte	.LASF856
 9180 42cc 0F       		.byte	0xf
 9181 42cd 4602     		.2byte	0x246
 9182 42cf D3420000 		.4byte	0x42d3
 9183 42d3 08       		.uleb128 0x8
 9184 42d4 87240000 		.4byte	0x2487
 9185 42d8 68       		.uleb128 0x68
 9186 42d9 EA270000 		.4byte	.LASF857
 9187 42dd 0F       		.byte	0xf
 9188 42de 4702     		.2byte	0x247
 9189 42e0 E4420000 		.4byte	0x42e4
 9190 42e4 08       		.uleb128 0x8
 9191 42e5 87240000 		.4byte	0x2487
 9192 42e9 68       		.uleb128 0x68
 9193 42ea CE4F0000 		.4byte	.LASF858
 9194 42ee 0F       		.byte	0xf
 9195 42ef 4802     		.2byte	0x248
 9196 42f1 F5420000 		.4byte	0x42f5
 9197 42f5 08       		.uleb128 0x8
 9198 42f6 B7220000 		.4byte	0x22b7
 9199 42fa 68       		.uleb128 0x68
 9200 42fb A9470000 		.4byte	.LASF859
 9201 42ff 0F       		.byte	0xf
 9202 4300 4902     		.2byte	0x249
 9203 4302 06430000 		.4byte	0x4306
 9204 4306 08       		.uleb128 0x8
 9205 4307 B7220000 		.4byte	0x22b7
 9206 430b 68       		.uleb128 0x68
 9207 430c 0A5D0000 		.4byte	.LASF860
 9208 4310 0F       		.byte	0xf
 9209 4311 4A02     		.2byte	0x24a
 9210 4313 17430000 		.4byte	0x4317
ARM GAS  C:\Users\jrdia\AppData\Local\Temp\ccYHzYw6.s 			page 187


 9211 4317 08       		.uleb128 0x8
 9212 4318 F71F0000 		.4byte	0x1ff7
 9213 431c 68       		.uleb128 0x68
 9214 431d BA300000 		.4byte	.LASF861
 9215 4321 0F       		.byte	0xf
 9216 4322 4B02     		.2byte	0x24b
 9217 4324 28430000 		.4byte	0x4328
 9218 4328 08       		.uleb128 0x8
 9219 4329 B7220000 		.4byte	0x22b7
 9220 432d 68       		.uleb128 0x68
 9221 432e 992C0000 		.4byte	.LASF862
 9222 4332 0F       		.byte	0xf
 9223 4333 4C02     		.2byte	0x24c
 9224 4335 39430000 		.4byte	0x4339
 9225 4339 08       		.uleb128 0x8
 9226 433a F7200000 		.4byte	0x20f7
 9227 433e 68       		.uleb128 0x68
 9228 433f 31260000 		.4byte	.LASF863
 9229 4343 0F       		.byte	0xf
 9230 4344 4D02     		.2byte	0x24d
 9231 4346 4A430000 		.4byte	0x434a
 9232 434a 08       		.uleb128 0x8
 9233 434b C7240000 		.4byte	0x24c7
 9234 434f 68       		.uleb128 0x68
 9235 4350 FA570000 		.4byte	.LASF864
 9236 4354 0F       		.byte	0xf
 9237 4355 4E02     		.2byte	0x24e
 9238 4357 5B430000 		.4byte	0x435b
 9239 435b 08       		.uleb128 0x8
 9240 435c C7240000 		.4byte	0x24c7
 9241 4360 68       		.uleb128 0x68
 9242 4361 57230000 		.4byte	.LASF865
 9243 4365 0F       		.byte	0xf
 9244 4366 4F02     		.2byte	0x24f
 9245 4368 6C430000 		.4byte	0x436c
 9246 436c 08       		.uleb128 0x8
 9247 436d B7220000 		.4byte	0x22b7
 9248 4371 68       		.uleb128 0x68
 9249 4372 C6020000 		.4byte	.LASF866
 9250 4376 0F       		.byte	0xf
 9251 4377 5002     		.2byte	0x250
 9252 4379 7D430000 		.4byte	0x437d
 9253 437d 08       		.uleb128 0x8
 9254 437e 87200000 		.4byte	0x2087
 9255 4382 68       		.uleb128 0x68
 9256 4383 C0210000 		.4byte	.LASF867
 9257 4387 0F       		.byte	0xf
 9258 4388 5102     		.2byte	0x251
 9259 438a 8E430000 		.4byte	0x438e
 9260 438e 08       		.uleb128 0x8
 9261 438f 77210000 		.4byte	0x2177
 9262 4393 68       		.uleb128 0x68
 9263 4394 19380000 		.4byte	.LASF868
 9264 4398 0F       		.byte	0xf
 9265 4399 5202     		.2byte	0x252
 9266 439b 9F430000 		.4byte	0x439f
 9267 439f 08       		.uleb128 0x8
ARM GAS  C:\Users\jrdia\AppData\Local\Temp\ccYHzYw6.s 			page 188


 9268 43a0 57200000 		.4byte	0x2057
 9269 43a4 68       		.uleb128 0x68
 9270 43a5 840B0000 		.4byte	.LASF869
 9271 43a9 0F       		.byte	0xf
 9272 43aa 5302     		.2byte	0x253
 9273 43ac B0430000 		.4byte	0x43b0
 9274 43b0 08       		.uleb128 0x8
 9275 43b1 57200000 		.4byte	0x2057
 9276 43b5 68       		.uleb128 0x68
 9277 43b6 072C0000 		.4byte	.LASF870
 9278 43ba 0F       		.byte	0xf
 9279 43bb 5402     		.2byte	0x254
 9280 43bd C1430000 		.4byte	0x43c1
 9281 43c1 08       		.uleb128 0x8
 9282 43c2 57200000 		.4byte	0x2057
 9283 43c6 68       		.uleb128 0x68
 9284 43c7 C92B0000 		.4byte	.LASF871
 9285 43cb 0F       		.byte	0xf
 9286 43cc 5502     		.2byte	0x255
 9287 43ce D2430000 		.4byte	0x43d2
 9288 43d2 08       		.uleb128 0x8
 9289 43d3 37200000 		.4byte	0x2037
 9290 43d7 68       		.uleb128 0x68
 9291 43d8 EF480000 		.4byte	.LASF872
 9292 43dc 0F       		.byte	0xf
 9293 43dd 5602     		.2byte	0x256
 9294 43df E3430000 		.4byte	0x43e3
 9295 43e3 08       		.uleb128 0x8
 9296 43e4 37210000 		.4byte	0x2137
 9297 43e8 68       		.uleb128 0x68
 9298 43e9 F55F0000 		.4byte	.LASF873
 9299 43ed 0F       		.byte	0xf
 9300 43ee 5702     		.2byte	0x257
 9301 43f0 F4430000 		.4byte	0x43f4
 9302 43f4 08       		.uleb128 0x8
 9303 43f5 B7220000 		.4byte	0x22b7
 9304 43f9 68       		.uleb128 0x68
 9305 43fa 995A0000 		.4byte	.LASF874
 9306 43fe 0F       		.byte	0xf
 9307 43ff 5802     		.2byte	0x258
 9308 4401 05440000 		.4byte	0x4405
 9309 4405 08       		.uleb128 0x8
 9310 4406 E7210000 		.4byte	0x21e7
 9311 440a 68       		.uleb128 0x68
 9312 440b C05E0000 		.4byte	.LASF875
 9313 440f 0F       		.byte	0xf
 9314 4410 5902     		.2byte	0x259
 9315 4412 16440000 		.4byte	0x4416
 9316 4416 08       		.uleb128 0x8
 9317 4417 57200000 		.4byte	0x2057
 9318 441b 68       		.uleb128 0x68
 9319 441c A9280000 		.4byte	.LASF876
 9320 4420 0F       		.byte	0xf
 9321 4421 5A02     		.2byte	0x25a
 9322 4423 27440000 		.4byte	0x4427
 9323 4427 08       		.uleb128 0x8
 9324 4428 17200000 		.4byte	0x2017
ARM GAS  C:\Users\jrdia\AppData\Local\Temp\ccYHzYw6.s 			page 189


 9325 442c 68       		.uleb128 0x68
 9326 442d 30590000 		.4byte	.LASF877
 9327 4431 0F       		.byte	0xf
 9328 4432 5B02     		.2byte	0x25b
 9329 4434 38440000 		.4byte	0x4438
 9330 4438 08       		.uleb128 0x8
 9331 4439 57200000 		.4byte	0x2057
 9332 443d 68       		.uleb128 0x68
 9333 443e 571B0000 		.4byte	.LASF878
 9334 4442 0F       		.byte	0xf
 9335 4443 5C02     		.2byte	0x25c
 9336 4445 49440000 		.4byte	0x4449
 9337 4449 08       		.uleb128 0x8
 9338 444a 17200000 		.4byte	0x2017
 9339 444e 68       		.uleb128 0x68
 9340 444f 693C0000 		.4byte	.LASF879
 9341 4453 0F       		.byte	0xf
 9342 4454 5D02     		.2byte	0x25d
 9343 4456 5A440000 		.4byte	0x445a
 9344 445a 08       		.uleb128 0x8
 9345 445b 57200000 		.4byte	0x2057
 9346 445f 68       		.uleb128 0x68
 9347 4460 EF040000 		.4byte	.LASF880
 9348 4464 0F       		.byte	0xf
 9349 4465 5E02     		.2byte	0x25e
 9350 4467 6B440000 		.4byte	0x446b
 9351 446b 08       		.uleb128 0x8
 9352 446c 57200000 		.4byte	0x2057
 9353 4470 68       		.uleb128 0x68
 9354 4471 07070000 		.4byte	.LASF881
 9355 4475 0F       		.byte	0xf
 9356 4476 5F02     		.2byte	0x25f
 9357 4478 7C440000 		.4byte	0x447c
 9358 447c 08       		.uleb128 0x8
 9359 447d F71F0000 		.4byte	0x1ff7
 9360 4481 68       		.uleb128 0x68
 9361 4482 0D2D0000 		.4byte	.LASF882
 9362 4486 0F       		.byte	0xf
 9363 4487 6002     		.2byte	0x260
 9364 4489 8D440000 		.4byte	0x448d
 9365 448d 08       		.uleb128 0x8
 9366 448e 57200000 		.4byte	0x2057
 9367 4492 68       		.uleb128 0x68
 9368 4493 2F180000 		.4byte	.LASF883
 9369 4497 0F       		.byte	0xf
 9370 4498 6102     		.2byte	0x261
 9371 449a 9E440000 		.4byte	0x449e
 9372 449e 08       		.uleb128 0x8
 9373 449f F7200000 		.4byte	0x20f7
 9374 44a3 68       		.uleb128 0x68
 9375 44a4 7B320000 		.4byte	.LASF884
 9376 44a8 0F       		.byte	0xf
 9377 44a9 6202     		.2byte	0x262
 9378 44ab AF440000 		.4byte	0x44af
 9379 44af 08       		.uleb128 0x8
 9380 44b0 37200000 		.4byte	0x2037
 9381 44b4 68       		.uleb128 0x68
ARM GAS  C:\Users\jrdia\AppData\Local\Temp\ccYHzYw6.s 			page 190


 9382 44b5 085B0000 		.4byte	.LASF885
 9383 44b9 0F       		.byte	0xf
 9384 44ba 6302     		.2byte	0x263
 9385 44bc C0440000 		.4byte	0x44c0
 9386 44c0 08       		.uleb128 0x8
 9387 44c1 F7200000 		.4byte	0x20f7
 9388 44c5 68       		.uleb128 0x68
 9389 44c6 7A1C0000 		.4byte	.LASF886
 9390 44ca 0F       		.byte	0xf
 9391 44cb 6402     		.2byte	0x264
 9392 44cd D1440000 		.4byte	0x44d1
 9393 44d1 08       		.uleb128 0x8
 9394 44d2 17200000 		.4byte	0x2017
 9395 44d6 68       		.uleb128 0x68
 9396 44d7 D2340000 		.4byte	.LASF887
 9397 44db 0F       		.byte	0xf
 9398 44dc 6502     		.2byte	0x265
 9399 44de E2440000 		.4byte	0x44e2
 9400 44e2 08       		.uleb128 0x8
 9401 44e3 87240000 		.4byte	0x2487
 9402 44e7 68       		.uleb128 0x68
 9403 44e8 47090000 		.4byte	.LASF888
 9404 44ec 0F       		.byte	0xf
 9405 44ed 6602     		.2byte	0x266
 9406 44ef F3440000 		.4byte	0x44f3
 9407 44f3 08       		.uleb128 0x8
 9408 44f4 57200000 		.4byte	0x2057
 9409 44f8 68       		.uleb128 0x68
 9410 44f9 774D0000 		.4byte	.LASF889
 9411 44fd 0F       		.byte	0xf
 9412 44fe 6702     		.2byte	0x267
 9413 4500 04450000 		.4byte	0x4504
 9414 4504 08       		.uleb128 0x8
 9415 4505 B7220000 		.4byte	0x22b7
 9416 4509 68       		.uleb128 0x68
 9417 450a 82330000 		.4byte	.LASF890
 9418 450e 0F       		.byte	0xf
 9419 450f 6802     		.2byte	0x268
 9420 4511 15450000 		.4byte	0x4515
 9421 4515 08       		.uleb128 0x8
 9422 4516 87200000 		.4byte	0x2087
 9423 451a 68       		.uleb128 0x68
 9424 451b 9F0A0000 		.4byte	.LASF891
 9425 451f 0F       		.byte	0xf
 9426 4520 6902     		.2byte	0x269
 9427 4522 26450000 		.4byte	0x4526
 9428 4526 08       		.uleb128 0x8
 9429 4527 77210000 		.4byte	0x2177
 9430 452b 68       		.uleb128 0x68
 9431 452c 9F390000 		.4byte	.LASF892
 9432 4530 0F       		.byte	0xf
 9433 4531 6A02     		.2byte	0x26a
 9434 4533 37450000 		.4byte	0x4537
 9435 4537 08       		.uleb128 0x8
 9436 4538 17200000 		.4byte	0x2017
 9437 453c 68       		.uleb128 0x68
 9438 453d 1B370000 		.4byte	.LASF893
ARM GAS  C:\Users\jrdia\AppData\Local\Temp\ccYHzYw6.s 			page 191


 9439 4541 0F       		.byte	0xf
 9440 4542 6B02     		.2byte	0x26b
 9441 4544 48450000 		.4byte	0x4548
 9442 4548 08       		.uleb128 0x8
 9443 4549 17200000 		.4byte	0x2017
 9444 454d 68       		.uleb128 0x68
 9445 454e F6470000 		.4byte	.LASF894
 9446 4552 0F       		.byte	0xf
 9447 4553 6C02     		.2byte	0x26c
 9448 4555 59450000 		.4byte	0x4559
 9449 4559 08       		.uleb128 0x8
 9450 455a 37210000 		.4byte	0x2137
 9451 455e 68       		.uleb128 0x68
 9452 455f 4E4C0000 		.4byte	.LASF895
 9453 4563 0F       		.byte	0xf
 9454 4564 6D02     		.2byte	0x26d
 9455 4566 6A450000 		.4byte	0x456a
 9456 456a 08       		.uleb128 0x8
 9457 456b 37200000 		.4byte	0x2037
 9458 456f 68       		.uleb128 0x68
 9459 4570 911A0000 		.4byte	.LASF896
 9460 4574 0F       		.byte	0xf
 9461 4575 6E02     		.2byte	0x26e
 9462 4577 7B450000 		.4byte	0x457b
 9463 457b 08       		.uleb128 0x8
 9464 457c 87240000 		.4byte	0x2487
 9465 4580 68       		.uleb128 0x68
 9466 4581 0B290000 		.4byte	.LASF897
 9467 4585 0F       		.byte	0xf
 9468 4586 6F02     		.2byte	0x26f
 9469 4588 8C450000 		.4byte	0x458c
 9470 458c 08       		.uleb128 0x8
 9471 458d 17200000 		.4byte	0x2017
 9472 4591 68       		.uleb128 0x68
 9473 4592 47550000 		.4byte	.LASF898
 9474 4596 0F       		.byte	0xf
 9475 4597 7002     		.2byte	0x270
 9476 4599 9D450000 		.4byte	0x459d
 9477 459d 08       		.uleb128 0x8
 9478 459e 57200000 		.4byte	0x2057
 9479 45a2 68       		.uleb128 0x68
 9480 45a3 29270000 		.4byte	.LASF899
 9481 45a7 0F       		.byte	0xf
 9482 45a8 7102     		.2byte	0x271
 9483 45aa AE450000 		.4byte	0x45ae
 9484 45ae 08       		.uleb128 0x8
 9485 45af 57200000 		.4byte	0x2057
 9486 45b3 68       		.uleb128 0x68
 9487 45b4 364C0000 		.4byte	.LASF900
 9488 45b8 0F       		.byte	0xf
 9489 45b9 7202     		.2byte	0x272
 9490 45bb BF450000 		.4byte	0x45bf
 9491 45bf 08       		.uleb128 0x8
 9492 45c0 57200000 		.4byte	0x2057
 9493 45c4 68       		.uleb128 0x68
 9494 45c5 EC3F0000 		.4byte	.LASF901
 9495 45c9 0F       		.byte	0xf
ARM GAS  C:\Users\jrdia\AppData\Local\Temp\ccYHzYw6.s 			page 192


 9496 45ca 7302     		.2byte	0x273
 9497 45cc D0450000 		.4byte	0x45d0
 9498 45d0 08       		.uleb128 0x8
 9499 45d1 F71F0000 		.4byte	0x1ff7
 9500 45d5 68       		.uleb128 0x68
 9501 45d6 8B580000 		.4byte	.LASF902
 9502 45da 0F       		.byte	0xf
 9503 45db 7402     		.2byte	0x274
 9504 45dd E1450000 		.4byte	0x45e1
 9505 45e1 08       		.uleb128 0x8
 9506 45e2 87200000 		.4byte	0x2087
 9507 45e6 68       		.uleb128 0x68
 9508 45e7 B21C0000 		.4byte	.LASF903
 9509 45eb 0F       		.byte	0xf
 9510 45ec 7502     		.2byte	0x275
 9511 45ee F2450000 		.4byte	0x45f2
 9512 45f2 08       		.uleb128 0x8
 9513 45f3 57200000 		.4byte	0x2057
 9514 45f7 68       		.uleb128 0x68
 9515 45f8 C12D0000 		.4byte	.LASF904
 9516 45fc 0F       		.byte	0xf
 9517 45fd 7602     		.2byte	0x276
 9518 45ff 03460000 		.4byte	0x4603
 9519 4603 08       		.uleb128 0x8
 9520 4604 C7240000 		.4byte	0x24c7
 9521 4608 68       		.uleb128 0x68
 9522 4609 082A0000 		.4byte	.LASF905
 9523 460d 0F       		.byte	0xf
 9524 460e 7702     		.2byte	0x277
 9525 4610 14460000 		.4byte	0x4614
 9526 4614 08       		.uleb128 0x8
 9527 4615 17200000 		.4byte	0x2017
 9528 4619 68       		.uleb128 0x68
 9529 461a 18480000 		.4byte	.LASF906
 9530 461e 0F       		.byte	0xf
 9531 461f 7802     		.2byte	0x278
 9532 4621 25460000 		.4byte	0x4625
 9533 4625 08       		.uleb128 0x8
 9534 4626 87200000 		.4byte	0x2087
 9535 462a 68       		.uleb128 0x68
 9536 462b 9A520000 		.4byte	.LASF907
 9537 462f 0F       		.byte	0xf
 9538 4630 7902     		.2byte	0x279
 9539 4632 36460000 		.4byte	0x4636
 9540 4636 08       		.uleb128 0x8
 9541 4637 C7240000 		.4byte	0x24c7
 9542 463b 68       		.uleb128 0x68
 9543 463c FA360000 		.4byte	.LASF908
 9544 4640 0F       		.byte	0xf
 9545 4641 7A02     		.2byte	0x27a
 9546 4643 47460000 		.4byte	0x4647
 9547 4647 08       		.uleb128 0x8
 9548 4648 D7220000 		.4byte	0x22d7
 9549 464c 68       		.uleb128 0x68
 9550 464d 99530000 		.4byte	.LASF909
 9551 4651 0F       		.byte	0xf
 9552 4652 7B02     		.2byte	0x27b
ARM GAS  C:\Users\jrdia\AppData\Local\Temp\ccYHzYw6.s 			page 193


 9553 4654 58460000 		.4byte	0x4658
 9554 4658 08       		.uleb128 0x8
 9555 4659 C7240000 		.4byte	0x24c7
 9556 465d 68       		.uleb128 0x68
 9557 465e 3D200000 		.4byte	.LASF910
 9558 4662 0F       		.byte	0xf
 9559 4663 7C02     		.2byte	0x27c
 9560 4665 69460000 		.4byte	0x4669
 9561 4669 08       		.uleb128 0x8
 9562 466a 77210000 		.4byte	0x2177
 9563 466e 68       		.uleb128 0x68
 9564 466f 221F0000 		.4byte	.LASF911
 9565 4673 0F       		.byte	0xf
 9566 4674 7D02     		.2byte	0x27d
 9567 4676 7A460000 		.4byte	0x467a
 9568 467a 08       		.uleb128 0x8
 9569 467b E7260000 		.4byte	0x26e7
 9570 467f 68       		.uleb128 0x68
 9571 4680 53320000 		.4byte	.LASF912
 9572 4684 0F       		.byte	0xf
 9573 4685 7E02     		.2byte	0x27e
 9574 4687 8B460000 		.4byte	0x468b
 9575 468b 08       		.uleb128 0x8
 9576 468c 97280000 		.4byte	0x2897
 9577 4690 68       		.uleb128 0x68
 9578 4691 515D0000 		.4byte	.LASF913
 9579 4695 0F       		.byte	0xf
 9580 4696 7F02     		.2byte	0x27f
 9581 4698 9C460000 		.4byte	0x469c
 9582 469c 08       		.uleb128 0x8
 9583 469d 77210000 		.4byte	0x2177
 9584 46a1 68       		.uleb128 0x68
 9585 46a2 85000000 		.4byte	.LASF914
 9586 46a6 0F       		.byte	0xf
 9587 46a7 8002     		.2byte	0x280
 9588 46a9 AD460000 		.4byte	0x46ad
 9589 46ad 08       		.uleb128 0x8
 9590 46ae 87200000 		.4byte	0x2087
 9591 46b2 68       		.uleb128 0x68
 9592 46b3 6E140000 		.4byte	.LASF915
 9593 46b7 0F       		.byte	0xf
 9594 46b8 8102     		.2byte	0x281
 9595 46ba BE460000 		.4byte	0x46be
 9596 46be 08       		.uleb128 0x8
 9597 46bf C7240000 		.4byte	0x24c7
 9598 46c3 68       		.uleb128 0x68
 9599 46c4 F50E0000 		.4byte	.LASF916
 9600 46c8 0F       		.byte	0xf
 9601 46c9 8202     		.2byte	0x282
 9602 46cb CF460000 		.4byte	0x46cf
 9603 46cf 08       		.uleb128 0x8
 9604 46d0 D7200000 		.4byte	0x20d7
 9605 46d4 68       		.uleb128 0x68
 9606 46d5 DA570000 		.4byte	.LASF917
 9607 46d9 0F       		.byte	0xf
 9608 46da 8302     		.2byte	0x283
 9609 46dc E0460000 		.4byte	0x46e0
ARM GAS  C:\Users\jrdia\AppData\Local\Temp\ccYHzYw6.s 			page 194


 9610 46e0 08       		.uleb128 0x8
 9611 46e1 F7200000 		.4byte	0x20f7
 9612 46e5 68       		.uleb128 0x68
 9613 46e6 F6520000 		.4byte	.LASF918
 9614 46ea 0F       		.byte	0xf
 9615 46eb 8402     		.2byte	0x284
 9616 46ed F1460000 		.4byte	0x46f1
 9617 46f1 08       		.uleb128 0x8
 9618 46f2 37200000 		.4byte	0x2037
 9619 46f6 68       		.uleb128 0x68
 9620 46f7 EA570000 		.4byte	.LASF919
 9621 46fb 0F       		.byte	0xf
 9622 46fc 8502     		.2byte	0x285
 9623 46fe 02470000 		.4byte	0x4702
 9624 4702 08       		.uleb128 0x8
 9625 4703 F7200000 		.4byte	0x20f7
 9626 4707 68       		.uleb128 0x68
 9627 4708 1F0F0000 		.4byte	.LASF920
 9628 470c 0F       		.byte	0xf
 9629 470d 8602     		.2byte	0x286
 9630 470f 13470000 		.4byte	0x4713
 9631 4713 08       		.uleb128 0x8
 9632 4714 D7200000 		.4byte	0x20d7
 9633 4718 68       		.uleb128 0x68
 9634 4719 0A0B0000 		.4byte	.LASF921
 9635 471d 0F       		.byte	0xf
 9636 471e 8702     		.2byte	0x287
 9637 4720 24470000 		.4byte	0x4724
 9638 4724 08       		.uleb128 0x8
 9639 4725 D7200000 		.4byte	0x20d7
 9640 4729 68       		.uleb128 0x68
 9641 472a 753E0000 		.4byte	.LASF922
 9642 472e 0F       		.byte	0xf
 9643 472f 8802     		.2byte	0x288
 9644 4731 35470000 		.4byte	0x4735
 9645 4735 08       		.uleb128 0x8
 9646 4736 F7200000 		.4byte	0x20f7
 9647 473a 68       		.uleb128 0x68
 9648 473b 3D0D0000 		.4byte	.LASF923
 9649 473f 0F       		.byte	0xf
 9650 4740 8902     		.2byte	0x289
 9651 4742 46470000 		.4byte	0x4746
 9652 4746 08       		.uleb128 0x8
 9653 4747 37200000 		.4byte	0x2037
 9654 474b 68       		.uleb128 0x68
 9655 474c 50190000 		.4byte	.LASF924
 9656 4750 0F       		.byte	0xf
 9657 4751 8A02     		.2byte	0x28a
 9658 4753 57470000 		.4byte	0x4757
 9659 4757 08       		.uleb128 0x8
 9660 4758 F7200000 		.4byte	0x20f7
 9661 475c 68       		.uleb128 0x68
 9662 475d E5370000 		.4byte	.LASF925
 9663 4761 0F       		.byte	0xf
 9664 4762 8B02     		.2byte	0x28b
 9665 4764 68470000 		.4byte	0x4768
 9666 4768 08       		.uleb128 0x8
ARM GAS  C:\Users\jrdia\AppData\Local\Temp\ccYHzYw6.s 			page 195


 9667 4769 F7200000 		.4byte	0x20f7
 9668 476d 68       		.uleb128 0x68
 9669 476e A6100000 		.4byte	.LASF926
 9670 4772 0F       		.byte	0xf
 9671 4773 8C02     		.2byte	0x28c
 9672 4775 79470000 		.4byte	0x4779
 9673 4779 08       		.uleb128 0x8
 9674 477a F7200000 		.4byte	0x20f7
 9675 477e 68       		.uleb128 0x68
 9676 477f 7D230000 		.4byte	.LASF927
 9677 4783 0F       		.byte	0xf
 9678 4784 8D02     		.2byte	0x28d
 9679 4786 8A470000 		.4byte	0x478a
 9680 478a 08       		.uleb128 0x8
 9681 478b D7200000 		.4byte	0x20d7
 9682 478f 68       		.uleb128 0x68
 9683 4790 B7260000 		.4byte	.LASF928
 9684 4794 0F       		.byte	0xf
 9685 4795 8E02     		.2byte	0x28e
 9686 4797 9B470000 		.4byte	0x479b
 9687 479b 08       		.uleb128 0x8
 9688 479c 37200000 		.4byte	0x2037
 9689 47a0 68       		.uleb128 0x68
 9690 47a1 884B0000 		.4byte	.LASF929
 9691 47a5 0F       		.byte	0xf
 9692 47a6 8F02     		.2byte	0x28f
 9693 47a8 AC470000 		.4byte	0x47ac
 9694 47ac 08       		.uleb128 0x8
 9695 47ad 17200000 		.4byte	0x2017
 9696 47b1 68       		.uleb128 0x68
 9697 47b2 B5620000 		.4byte	.LASF930
 9698 47b6 0F       		.byte	0xf
 9699 47b7 9002     		.2byte	0x290
 9700 47b9 BD470000 		.4byte	0x47bd
 9701 47bd 08       		.uleb128 0x8
 9702 47be F7200000 		.4byte	0x20f7
 9703 47c2 68       		.uleb128 0x68
 9704 47c3 69540000 		.4byte	.LASF931
 9705 47c7 0F       		.byte	0xf
 9706 47c8 9102     		.2byte	0x291
 9707 47ca CE470000 		.4byte	0x47ce
 9708 47ce 08       		.uleb128 0x8
 9709 47cf B7220000 		.4byte	0x22b7
 9710 47d3 68       		.uleb128 0x68
 9711 47d4 25250000 		.4byte	.LASF932
 9712 47d8 0F       		.byte	0xf
 9713 47d9 9202     		.2byte	0x292
 9714 47db DF470000 		.4byte	0x47df
 9715 47df 08       		.uleb128 0x8
 9716 47e0 37210000 		.4byte	0x2137
 9717 47e4 68       		.uleb128 0x68
 9718 47e5 0D100000 		.4byte	.LASF933
 9719 47e9 0F       		.byte	0xf
 9720 47ea 9302     		.2byte	0x293
 9721 47ec F0470000 		.4byte	0x47f0
 9722 47f0 08       		.uleb128 0x8
 9723 47f1 F7200000 		.4byte	0x20f7
ARM GAS  C:\Users\jrdia\AppData\Local\Temp\ccYHzYw6.s 			page 196


 9724 47f5 68       		.uleb128 0x68
 9725 47f6 80340000 		.4byte	.LASF934
 9726 47fa 0F       		.byte	0xf
 9727 47fb 9402     		.2byte	0x294
 9728 47fd 01480000 		.4byte	0x4801
 9729 4801 08       		.uleb128 0x8
 9730 4802 F7200000 		.4byte	0x20f7
 9731 4806 68       		.uleb128 0x68
 9732 4807 1E0B0000 		.4byte	.LASF935
 9733 480b 0F       		.byte	0xf
 9734 480c 9502     		.2byte	0x295
 9735 480e 12480000 		.4byte	0x4812
 9736 4812 08       		.uleb128 0x8
 9737 4813 F7200000 		.4byte	0x20f7
 9738 4817 68       		.uleb128 0x68
 9739 4818 185A0000 		.4byte	.LASF936
 9740 481c 0F       		.byte	0xf
 9741 481d 9602     		.2byte	0x296
 9742 481f 23480000 		.4byte	0x4823
 9743 4823 08       		.uleb128 0x8
 9744 4824 D7200000 		.4byte	0x20d7
 9745 4828 68       		.uleb128 0x68
 9746 4829 6D230000 		.4byte	.LASF937
 9747 482d 0F       		.byte	0xf
 9748 482e 9702     		.2byte	0x297
 9749 4830 34480000 		.4byte	0x4834
 9750 4834 08       		.uleb128 0x8
 9751 4835 F7200000 		.4byte	0x20f7
 9752 4839 68       		.uleb128 0x68
 9753 483a 78350000 		.4byte	.LASF938
 9754 483e 0F       		.byte	0xf
 9755 483f 9802     		.2byte	0x298
 9756 4841 45480000 		.4byte	0x4845
 9757 4845 08       		.uleb128 0x8
 9758 4846 17200000 		.4byte	0x2017
 9759 484a 68       		.uleb128 0x68
 9760 484b B35A0000 		.4byte	.LASF939
 9761 484f 0F       		.byte	0xf
 9762 4850 9902     		.2byte	0x299
 9763 4852 56480000 		.4byte	0x4856
 9764 4856 08       		.uleb128 0x8
 9765 4857 87240000 		.4byte	0x2487
 9766 485b 68       		.uleb128 0x68
 9767 485c 4C4E0000 		.4byte	.LASF940
 9768 4860 0F       		.byte	0xf
 9769 4861 9A02     		.2byte	0x29a
 9770 4863 67480000 		.4byte	0x4867
 9771 4867 08       		.uleb128 0x8
 9772 4868 87240000 		.4byte	0x2487
 9773 486c 68       		.uleb128 0x68
 9774 486d 214C0000 		.4byte	.LASF941
 9775 4871 0F       		.byte	0xf
 9776 4872 9B02     		.2byte	0x29b
 9777 4874 78480000 		.4byte	0x4878
 9778 4878 08       		.uleb128 0x8
 9779 4879 17200000 		.4byte	0x2017
 9780 487d 68       		.uleb128 0x68
ARM GAS  C:\Users\jrdia\AppData\Local\Temp\ccYHzYw6.s 			page 197


 9781 487e 644D0000 		.4byte	.LASF942
 9782 4882 0F       		.byte	0xf
 9783 4883 9C02     		.2byte	0x29c
 9784 4885 89480000 		.4byte	0x4889
 9785 4889 08       		.uleb128 0x8
 9786 488a F7200000 		.4byte	0x20f7
 9787 488e 68       		.uleb128 0x68
 9788 488f 432C0000 		.4byte	.LASF943
 9789 4893 0F       		.byte	0xf
 9790 4894 9D02     		.2byte	0x29d
 9791 4896 9A480000 		.4byte	0x489a
 9792 489a 08       		.uleb128 0x8
 9793 489b 37210000 		.4byte	0x2137
 9794 489f 68       		.uleb128 0x68
 9795 48a0 CB360000 		.4byte	.LASF944
 9796 48a4 0F       		.byte	0xf
 9797 48a5 9E02     		.2byte	0x29e
 9798 48a7 AB480000 		.4byte	0x48ab
 9799 48ab 08       		.uleb128 0x8
 9800 48ac 17200000 		.4byte	0x2017
 9801 48b0 68       		.uleb128 0x68
 9802 48b1 AA0F0000 		.4byte	.LASF945
 9803 48b5 0F       		.byte	0xf
 9804 48b6 9F02     		.2byte	0x29f
 9805 48b8 BC480000 		.4byte	0x48bc
 9806 48bc 08       		.uleb128 0x8
 9807 48bd 57200000 		.4byte	0x2057
 9808 48c1 68       		.uleb128 0x68
 9809 48c2 AC180000 		.4byte	.LASF946
 9810 48c6 0F       		.byte	0xf
 9811 48c7 A002     		.2byte	0x2a0
 9812 48c9 CD480000 		.4byte	0x48cd
 9813 48cd 08       		.uleb128 0x8
 9814 48ce F7200000 		.4byte	0x20f7
 9815 48d2 68       		.uleb128 0x68
 9816 48d3 505C0000 		.4byte	.LASF947
 9817 48d7 0F       		.byte	0xf
 9818 48d8 A102     		.2byte	0x2a1
 9819 48da DE480000 		.4byte	0x48de
 9820 48de 08       		.uleb128 0x8
 9821 48df 57200000 		.4byte	0x2057
 9822 48e3 68       		.uleb128 0x68
 9823 48e4 BB3A0000 		.4byte	.LASF948
 9824 48e8 0F       		.byte	0xf
 9825 48e9 A202     		.2byte	0x2a2
 9826 48eb EF480000 		.4byte	0x48ef
 9827 48ef 08       		.uleb128 0x8
 9828 48f0 87240000 		.4byte	0x2487
 9829 48f4 68       		.uleb128 0x68
 9830 48f5 152E0000 		.4byte	.LASF949
 9831 48f9 0F       		.byte	0xf
 9832 48fa A302     		.2byte	0x2a3
 9833 48fc 00490000 		.4byte	0x4900
 9834 4900 08       		.uleb128 0x8
 9835 4901 57200000 		.4byte	0x2057
 9836 4905 68       		.uleb128 0x68
 9837 4906 CF560000 		.4byte	.LASF950
ARM GAS  C:\Users\jrdia\AppData\Local\Temp\ccYHzYw6.s 			page 198


 9838 490a 0F       		.byte	0xf
 9839 490b A402     		.2byte	0x2a4
 9840 490d 11490000 		.4byte	0x4911
 9841 4911 08       		.uleb128 0x8
 9842 4912 87240000 		.4byte	0x2487
 9843 4916 68       		.uleb128 0x68
 9844 4917 36160000 		.4byte	.LASF951
 9845 491b 0F       		.byte	0xf
 9846 491c A502     		.2byte	0x2a5
 9847 491e 22490000 		.4byte	0x4922
 9848 4922 08       		.uleb128 0x8
 9849 4923 77210000 		.4byte	0x2177
 9850 4927 68       		.uleb128 0x68
 9851 4928 BB4E0000 		.4byte	.LASF952
 9852 492c 0F       		.byte	0xf
 9853 492d A602     		.2byte	0x2a6
 9854 492f 33490000 		.4byte	0x4933
 9855 4933 08       		.uleb128 0x8
 9856 4934 37210000 		.4byte	0x2137
 9857 4938 68       		.uleb128 0x68
 9858 4939 79460000 		.4byte	.LASF953
 9859 493d 0F       		.byte	0xf
 9860 493e A702     		.2byte	0x2a7
 9861 4940 44490000 		.4byte	0x4944
 9862 4944 08       		.uleb128 0x8
 9863 4945 57200000 		.4byte	0x2057
 9864 4949 68       		.uleb128 0x68
 9865 494a BB550000 		.4byte	.LASF954
 9866 494e 0F       		.byte	0xf
 9867 494f A802     		.2byte	0x2a8
 9868 4951 55490000 		.4byte	0x4955
 9869 4955 08       		.uleb128 0x8
 9870 4956 87240000 		.4byte	0x2487
 9871 495a 68       		.uleb128 0x68
 9872 495b CE1C0000 		.4byte	.LASF955
 9873 495f 0F       		.byte	0xf
 9874 4960 A902     		.2byte	0x2a9
 9875 4962 66490000 		.4byte	0x4966
 9876 4966 08       		.uleb128 0x8
 9877 4967 D7200000 		.4byte	0x20d7
 9878 496b 68       		.uleb128 0x68
 9879 496c 0E160000 		.4byte	.LASF956
 9880 4970 0F       		.byte	0xf
 9881 4971 AA02     		.2byte	0x2aa
 9882 4973 77490000 		.4byte	0x4977
 9883 4977 08       		.uleb128 0x8
 9884 4978 17200000 		.4byte	0x2017
 9885 497c 68       		.uleb128 0x68
 9886 497d F25B0000 		.4byte	.LASF957
 9887 4981 0F       		.byte	0xf
 9888 4982 AB02     		.2byte	0x2ab
 9889 4984 88490000 		.4byte	0x4988
 9890 4988 08       		.uleb128 0x8
 9891 4989 87200000 		.4byte	0x2087
 9892 498d 68       		.uleb128 0x68
 9893 498e B7200000 		.4byte	.LASF958
 9894 4992 0F       		.byte	0xf
ARM GAS  C:\Users\jrdia\AppData\Local\Temp\ccYHzYw6.s 			page 199


 9895 4993 AC02     		.2byte	0x2ac
 9896 4995 99490000 		.4byte	0x4999
 9897 4999 08       		.uleb128 0x8
 9898 499a 87240000 		.4byte	0x2487
 9899 499e 68       		.uleb128 0x68
 9900 499f C63D0000 		.4byte	.LASF959
 9901 49a3 0F       		.byte	0xf
 9902 49a4 AD02     		.2byte	0x2ad
 9903 49a6 AA490000 		.4byte	0x49aa
 9904 49aa 08       		.uleb128 0x8
 9905 49ab F7200000 		.4byte	0x20f7
 9906 49af 68       		.uleb128 0x68
 9907 49b0 89450000 		.4byte	.LASF960
 9908 49b4 0F       		.byte	0xf
 9909 49b5 AE02     		.2byte	0x2ae
 9910 49b7 BB490000 		.4byte	0x49bb
 9911 49bb 08       		.uleb128 0x8
 9912 49bc F7200000 		.4byte	0x20f7
 9913 49c0 68       		.uleb128 0x68
 9914 49c1 D83D0000 		.4byte	.LASF961
 9915 49c5 0F       		.byte	0xf
 9916 49c6 AF02     		.2byte	0x2af
 9917 49c8 CC490000 		.4byte	0x49cc
 9918 49cc 08       		.uleb128 0x8
 9919 49cd F7200000 		.4byte	0x20f7
 9920 49d1 68       		.uleb128 0x68
 9921 49d2 041A0000 		.4byte	.LASF962
 9922 49d6 0F       		.byte	0xf
 9923 49d7 B002     		.2byte	0x2b0
 9924 49d9 DD490000 		.4byte	0x49dd
 9925 49dd 08       		.uleb128 0x8
 9926 49de F7200000 		.4byte	0x20f7
 9927 49e2 68       		.uleb128 0x68
 9928 49e3 F3450000 		.4byte	.LASF963
 9929 49e7 0F       		.byte	0xf
 9930 49e8 B102     		.2byte	0x2b1
 9931 49ea EE490000 		.4byte	0x49ee
 9932 49ee 08       		.uleb128 0x8
 9933 49ef 37200000 		.4byte	0x2037
 9934 49f3 68       		.uleb128 0x68
 9935 49f4 CE100000 		.4byte	.LASF964
 9936 49f8 0F       		.byte	0xf
 9937 49f9 B202     		.2byte	0x2b2
 9938 49fb FF490000 		.4byte	0x49ff
 9939 49ff 08       		.uleb128 0x8
 9940 4a00 37210000 		.4byte	0x2137
 9941 4a04 68       		.uleb128 0x68
 9942 4a05 0C400000 		.4byte	.LASF965
 9943 4a09 0F       		.byte	0xf
 9944 4a0a B302     		.2byte	0x2b3
 9945 4a0c 104A0000 		.4byte	0x4a10
 9946 4a10 08       		.uleb128 0x8
 9947 4a11 D7200000 		.4byte	0x20d7
 9948 4a15 68       		.uleb128 0x68
 9949 4a16 3E5E0000 		.4byte	.LASF966
 9950 4a1a 0F       		.byte	0xf
 9951 4a1b B402     		.2byte	0x2b4
ARM GAS  C:\Users\jrdia\AppData\Local\Temp\ccYHzYw6.s 			page 200


 9952 4a1d 214A0000 		.4byte	0x4a21
 9953 4a21 08       		.uleb128 0x8
 9954 4a22 37200000 		.4byte	0x2037
 9955 4a26 68       		.uleb128 0x68
 9956 4a27 B65D0000 		.4byte	.LASF967
 9957 4a2b 0F       		.byte	0xf
 9958 4a2c B502     		.2byte	0x2b5
 9959 4a2e 324A0000 		.4byte	0x4a32
 9960 4a32 08       		.uleb128 0x8
 9961 4a33 57200000 		.4byte	0x2057
 9962 4a37 68       		.uleb128 0x68
 9963 4a38 CA1E0000 		.4byte	.LASF968
 9964 4a3c 0F       		.byte	0xf
 9965 4a3d B602     		.2byte	0x2b6
 9966 4a3f 434A0000 		.4byte	0x4a43
 9967 4a43 08       		.uleb128 0x8
 9968 4a44 37210000 		.4byte	0x2137
 9969 4a48 68       		.uleb128 0x68
 9970 4a49 D1490000 		.4byte	.LASF969
 9971 4a4d 0F       		.byte	0xf
 9972 4a4e B702     		.2byte	0x2b7
 9973 4a50 544A0000 		.4byte	0x4a54
 9974 4a54 08       		.uleb128 0x8
 9975 4a55 37210000 		.4byte	0x2137
 9976 4a59 68       		.uleb128 0x68
 9977 4a5a BE520000 		.4byte	.LASF970
 9978 4a5e 0F       		.byte	0xf
 9979 4a5f B802     		.2byte	0x2b8
 9980 4a61 654A0000 		.4byte	0x4a65
 9981 4a65 08       		.uleb128 0x8
 9982 4a66 37200000 		.4byte	0x2037
 9983 4a6a 68       		.uleb128 0x68
 9984 4a6b 402E0000 		.4byte	.LASF971
 9985 4a6f 0F       		.byte	0xf
 9986 4a70 B902     		.2byte	0x2b9
 9987 4a72 764A0000 		.4byte	0x4a76
 9988 4a76 08       		.uleb128 0x8
 9989 4a77 37200000 		.4byte	0x2037
 9990 4a7b 68       		.uleb128 0x68
 9991 4a7c 6D520000 		.4byte	.LASF972
 9992 4a80 0F       		.byte	0xf
 9993 4a81 BA02     		.2byte	0x2ba
 9994 4a83 874A0000 		.4byte	0x4a87
 9995 4a87 08       		.uleb128 0x8
 9996 4a88 37200000 		.4byte	0x2037
 9997 4a8c 68       		.uleb128 0x68
 9998 4a8d 05590000 		.4byte	.LASF973
 9999 4a91 0F       		.byte	0xf
 10000 4a92 BB02     		.2byte	0x2bb
 10001 4a94 984A0000 		.4byte	0x4a98
 10002 4a98 08       		.uleb128 0x8
 10003 4a99 37200000 		.4byte	0x2037
 10004 4a9d 68       		.uleb128 0x68
 10005 4a9e 9F620000 		.4byte	.LASF974
 10006 4aa2 0F       		.byte	0xf
 10007 4aa3 BC02     		.2byte	0x2bc
 10008 4aa5 A94A0000 		.4byte	0x4aa9
ARM GAS  C:\Users\jrdia\AppData\Local\Temp\ccYHzYw6.s 			page 201


 10009 4aa9 08       		.uleb128 0x8
 10010 4aaa 17200000 		.4byte	0x2017
 10011 4aae 68       		.uleb128 0x68
 10012 4aaf 13510000 		.4byte	.LASF975
 10013 4ab3 0F       		.byte	0xf
 10014 4ab4 BD02     		.2byte	0x2bd
 10015 4ab6 BA4A0000 		.4byte	0x4aba
 10016 4aba 08       		.uleb128 0x8
 10017 4abb 17200000 		.4byte	0x2017
 10018 4abf 68       		.uleb128 0x68
 10019 4ac0 74630000 		.4byte	.LASF976
 10020 4ac4 0F       		.byte	0xf
 10021 4ac5 BE02     		.2byte	0x2be
 10022 4ac7 CB4A0000 		.4byte	0x4acb
 10023 4acb 08       		.uleb128 0x8
 10024 4acc 57200000 		.4byte	0x2057
 10025 4ad0 68       		.uleb128 0x68
 10026 4ad1 4F610000 		.4byte	.LASF977
 10027 4ad5 0F       		.byte	0xf
 10028 4ad6 BF02     		.2byte	0x2bf
 10029 4ad8 DC4A0000 		.4byte	0x4adc
 10030 4adc 08       		.uleb128 0x8
 10031 4add 87240000 		.4byte	0x2487
 10032 4ae1 68       		.uleb128 0x68
 10033 4ae2 9F5C0000 		.4byte	.LASF978
 10034 4ae6 0F       		.byte	0xf
 10035 4ae7 C002     		.2byte	0x2c0
 10036 4ae9 ED4A0000 		.4byte	0x4aed
 10037 4aed 08       		.uleb128 0x8
 10038 4aee 77210000 		.4byte	0x2177
 10039 4af2 68       		.uleb128 0x68
 10040 4af3 A3250000 		.4byte	.LASF979
 10041 4af7 0F       		.byte	0xf
 10042 4af8 C102     		.2byte	0x2c1
 10043 4afa FE4A0000 		.4byte	0x4afe
 10044 4afe 08       		.uleb128 0x8
 10045 4aff 87200000 		.4byte	0x2087
 10046 4b03 68       		.uleb128 0x68
 10047 4b04 F1200000 		.4byte	.LASF980
 10048 4b08 0F       		.byte	0xf
 10049 4b09 C202     		.2byte	0x2c2
 10050 4b0b 0F4B0000 		.4byte	0x4b0f
 10051 4b0f 08       		.uleb128 0x8
 10052 4b10 B7220000 		.4byte	0x22b7
 10053 4b14 68       		.uleb128 0x68
 10054 4b15 02500000 		.4byte	.LASF981
 10055 4b19 0F       		.byte	0xf
 10056 4b1a C302     		.2byte	0x2c3
 10057 4b1c 204B0000 		.4byte	0x4b20
 10058 4b20 08       		.uleb128 0x8
 10059 4b21 57200000 		.4byte	0x2057
 10060 4b25 68       		.uleb128 0x68
 10061 4b26 093D0000 		.4byte	.LASF982
 10062 4b2a 0F       		.byte	0xf
 10063 4b2b C402     		.2byte	0x2c4
 10064 4b2d 314B0000 		.4byte	0x4b31
 10065 4b31 08       		.uleb128 0x8
ARM GAS  C:\Users\jrdia\AppData\Local\Temp\ccYHzYw6.s 			page 202


 10066 4b32 77210000 		.4byte	0x2177
 10067 4b36 68       		.uleb128 0x68
 10068 4b37 7A290000 		.4byte	.LASF983
 10069 4b3b 0F       		.byte	0xf
 10070 4b3c C502     		.2byte	0x2c5
 10071 4b3e 424B0000 		.4byte	0x4b42
 10072 4b42 08       		.uleb128 0x8
 10073 4b43 57200000 		.4byte	0x2057
 10074 4b47 68       		.uleb128 0x68
 10075 4b48 FC1F0000 		.4byte	.LASF984
 10076 4b4c 0F       		.byte	0xf
 10077 4b4d C602     		.2byte	0x2c6
 10078 4b4f 534B0000 		.4byte	0x4b53
 10079 4b53 08       		.uleb128 0x8
 10080 4b54 B7220000 		.4byte	0x22b7
 10081 4b58 68       		.uleb128 0x68
 10082 4b59 EF3D0000 		.4byte	.LASF985
 10083 4b5d 0F       		.byte	0xf
 10084 4b5e C702     		.2byte	0x2c7
 10085 4b60 644B0000 		.4byte	0x4b64
 10086 4b64 08       		.uleb128 0x8
 10087 4b65 87200000 		.4byte	0x2087
 10088 4b69 68       		.uleb128 0x68
 10089 4b6a D3070000 		.4byte	.LASF986
 10090 4b6e 0F       		.byte	0xf
 10091 4b6f C802     		.2byte	0x2c8
 10092 4b71 754B0000 		.4byte	0x4b75
 10093 4b75 08       		.uleb128 0x8
 10094 4b76 87200000 		.4byte	0x2087
 10095 4b7a 68       		.uleb128 0x68
 10096 4b7b A2040000 		.4byte	.LASF987
 10097 4b7f 0F       		.byte	0xf
 10098 4b80 C902     		.2byte	0x2c9
 10099 4b82 864B0000 		.4byte	0x4b86
 10100 4b86 08       		.uleb128 0x8
 10101 4b87 57200000 		.4byte	0x2057
 10102 4b8b 68       		.uleb128 0x68
 10103 4b8c 6F150000 		.4byte	.LASF988
 10104 4b90 0F       		.byte	0xf
 10105 4b91 CA02     		.2byte	0x2ca
 10106 4b93 974B0000 		.4byte	0x4b97
 10107 4b97 08       		.uleb128 0x8
 10108 4b98 17200000 		.4byte	0x2017
 10109 4b9c 68       		.uleb128 0x68
 10110 4b9d BD0F0000 		.4byte	.LASF989
 10111 4ba1 0F       		.byte	0xf
 10112 4ba2 CB02     		.2byte	0x2cb
 10113 4ba4 A84B0000 		.4byte	0x4ba8
 10114 4ba8 08       		.uleb128 0x8
 10115 4ba9 57200000 		.4byte	0x2057
 10116 4bad 68       		.uleb128 0x68
 10117 4bae 8F040000 		.4byte	.LASF990
 10118 4bb2 0F       		.byte	0xf
 10119 4bb3 CC02     		.2byte	0x2cc
 10120 4bb5 B94B0000 		.4byte	0x4bb9
 10121 4bb9 08       		.uleb128 0x8
 10122 4bba 17200000 		.4byte	0x2017
ARM GAS  C:\Users\jrdia\AppData\Local\Temp\ccYHzYw6.s 			page 203


 10123 4bbe 68       		.uleb128 0x68
 10124 4bbf 2C3C0000 		.4byte	.LASF991
 10125 4bc3 0F       		.byte	0xf
 10126 4bc4 CD02     		.2byte	0x2cd
 10127 4bc6 CA4B0000 		.4byte	0x4bca
 10128 4bca 08       		.uleb128 0x8
 10129 4bcb 37210000 		.4byte	0x2137
 10130 4bcf 68       		.uleb128 0x68
 10131 4bd0 8B350000 		.4byte	.LASF992
 10132 4bd4 0F       		.byte	0xf
 10133 4bd5 CE02     		.2byte	0x2ce
 10134 4bd7 DB4B0000 		.4byte	0x4bdb
 10135 4bdb 08       		.uleb128 0x8
 10136 4bdc D7200000 		.4byte	0x20d7
 10137 4be0 68       		.uleb128 0x68
 10138 4be1 F31E0000 		.4byte	.LASF993
 10139 4be5 0F       		.byte	0xf
 10140 4be6 CF02     		.2byte	0x2cf
 10141 4be8 EC4B0000 		.4byte	0x4bec
 10142 4bec 08       		.uleb128 0x8
 10143 4bed D71F0000 		.4byte	0x1fd7
 10144 4bf1 68       		.uleb128 0x68
 10145 4bf2 493B0000 		.4byte	.LASF994
 10146 4bf6 0F       		.byte	0xf
 10147 4bf7 D002     		.2byte	0x2d0
 10148 4bf9 FD4B0000 		.4byte	0x4bfd
 10149 4bfd 08       		.uleb128 0x8
 10150 4bfe 37210000 		.4byte	0x2137
 10151 4c02 68       		.uleb128 0x68
 10152 4c03 A4200000 		.4byte	.LASF995
 10153 4c07 0F       		.byte	0xf
 10154 4c08 D102     		.2byte	0x2d1
 10155 4c0a 0E4C0000 		.4byte	0x4c0e
 10156 4c0e 08       		.uleb128 0x8
 10157 4c0f F7200000 		.4byte	0x20f7
 10158 4c13 68       		.uleb128 0x68
 10159 4c14 4B5A0000 		.4byte	.LASF996
 10160 4c18 0F       		.byte	0xf
 10161 4c19 D202     		.2byte	0x2d2
 10162 4c1b 1F4C0000 		.4byte	0x4c1f
 10163 4c1f 08       		.uleb128 0x8
 10164 4c20 D7200000 		.4byte	0x20d7
 10165 4c24 68       		.uleb128 0x68
 10166 4c25 24120000 		.4byte	.LASF997
 10167 4c29 0F       		.byte	0xf
 10168 4c2a D302     		.2byte	0x2d3
 10169 4c2c 304C0000 		.4byte	0x4c30
 10170 4c30 08       		.uleb128 0x8
 10171 4c31 57200000 		.4byte	0x2057
 10172 4c35 68       		.uleb128 0x68
 10173 4c36 12350000 		.4byte	.LASF998
 10174 4c3a 0F       		.byte	0xf
 10175 4c3b D402     		.2byte	0x2d4
 10176 4c3d 414C0000 		.4byte	0x4c41
 10177 4c41 08       		.uleb128 0x8
 10178 4c42 F7200000 		.4byte	0x20f7
 10179 4c46 68       		.uleb128 0x68
ARM GAS  C:\Users\jrdia\AppData\Local\Temp\ccYHzYw6.s 			page 204


 10180 4c47 5F2F0000 		.4byte	.LASF999
 10181 4c4b 0F       		.byte	0xf
 10182 4c4c D502     		.2byte	0x2d5
 10183 4c4e 524C0000 		.4byte	0x4c52
 10184 4c52 08       		.uleb128 0x8
 10185 4c53 87240000 		.4byte	0x2487
 10186 4c57 68       		.uleb128 0x68
 10187 4c58 F32E0000 		.4byte	.LASF1000
 10188 4c5c 0F       		.byte	0xf
 10189 4c5d D602     		.2byte	0x2d6
 10190 4c5f 634C0000 		.4byte	0x4c63
 10191 4c63 08       		.uleb128 0x8
 10192 4c64 57200000 		.4byte	0x2057
 10193 4c68 68       		.uleb128 0x68
 10194 4c69 CE370000 		.4byte	.LASF1001
 10195 4c6d 0F       		.byte	0xf
 10196 4c6e D702     		.2byte	0x2d7
 10197 4c70 744C0000 		.4byte	0x4c74
 10198 4c74 08       		.uleb128 0x8
 10199 4c75 B7220000 		.4byte	0x22b7
 10200 4c79 68       		.uleb128 0x68
 10201 4c7a 590F0000 		.4byte	.LASF1002
 10202 4c7e 0F       		.byte	0xf
 10203 4c7f D802     		.2byte	0x2d8
 10204 4c81 854C0000 		.4byte	0x4c85
 10205 4c85 08       		.uleb128 0x8
 10206 4c86 87240000 		.4byte	0x2487
 10207 4c8a 68       		.uleb128 0x68
 10208 4c8b 3F050000 		.4byte	.LASF1003
 10209 4c8f 0F       		.byte	0xf
 10210 4c90 D902     		.2byte	0x2d9
 10211 4c92 964C0000 		.4byte	0x4c96
 10212 4c96 08       		.uleb128 0x8
 10213 4c97 87200000 		.4byte	0x2087
 10214 4c9b 68       		.uleb128 0x68
 10215 4c9c B3090000 		.4byte	.LASF1004
 10216 4ca0 0F       		.byte	0xf
 10217 4ca1 DA02     		.2byte	0x2da
 10218 4ca3 A74C0000 		.4byte	0x4ca7
 10219 4ca7 08       		.uleb128 0x8
 10220 4ca8 57200000 		.4byte	0x2057
 10221 4cac 68       		.uleb128 0x68
 10222 4cad CE0E0000 		.4byte	.LASF1005
 10223 4cb1 0F       		.byte	0xf
 10224 4cb2 DB02     		.2byte	0x2db
 10225 4cb4 B84C0000 		.4byte	0x4cb8
 10226 4cb8 08       		.uleb128 0x8
 10227 4cb9 D7200000 		.4byte	0x20d7
 10228 4cbd 68       		.uleb128 0x68
 10229 4cbe 4C1E0000 		.4byte	.LASF1006
 10230 4cc2 0F       		.byte	0xf
 10231 4cc3 DC02     		.2byte	0x2dc
 10232 4cc5 C94C0000 		.4byte	0x4cc9
 10233 4cc9 08       		.uleb128 0x8
 10234 4cca F7200000 		.4byte	0x20f7
 10235 4cce 68       		.uleb128 0x68
 10236 4ccf 462A0000 		.4byte	.LASF1007
ARM GAS  C:\Users\jrdia\AppData\Local\Temp\ccYHzYw6.s 			page 205


 10237 4cd3 0F       		.byte	0xf
 10238 4cd4 DD02     		.2byte	0x2dd
 10239 4cd6 DA4C0000 		.4byte	0x4cda
 10240 4cda 08       		.uleb128 0x8
 10241 4cdb 37210000 		.4byte	0x2137
 10242 4cdf 68       		.uleb128 0x68
 10243 4ce0 A2130000 		.4byte	.LASF1008
 10244 4ce4 0F       		.byte	0xf
 10245 4ce5 DE02     		.2byte	0x2de
 10246 4ce7 EB4C0000 		.4byte	0x4ceb
 10247 4ceb 08       		.uleb128 0x8
 10248 4cec F7200000 		.4byte	0x20f7
 10249 4cf0 68       		.uleb128 0x68
 10250 4cf1 883C0000 		.4byte	.LASF1009
 10251 4cf5 0F       		.byte	0xf
 10252 4cf6 DF02     		.2byte	0x2df
 10253 4cf8 FC4C0000 		.4byte	0x4cfc
 10254 4cfc 08       		.uleb128 0x8
 10255 4cfd 37210000 		.4byte	0x2137
 10256 4d01 68       		.uleb128 0x68
 10257 4d02 18230000 		.4byte	.LASF1010
 10258 4d06 0F       		.byte	0xf
 10259 4d07 E002     		.2byte	0x2e0
 10260 4d09 0D4D0000 		.4byte	0x4d0d
 10261 4d0d 08       		.uleb128 0x8
 10262 4d0e 77210000 		.4byte	0x2177
 10263 4d12 68       		.uleb128 0x68
 10264 4d13 75470000 		.4byte	.LASF1011
 10265 4d17 0F       		.byte	0xf
 10266 4d18 E102     		.2byte	0x2e1
 10267 4d1a 1E4D0000 		.4byte	0x4d1e
 10268 4d1e 08       		.uleb128 0x8
 10269 4d1f 57200000 		.4byte	0x2057
 10270 4d23 68       		.uleb128 0x68
 10271 4d24 74530000 		.4byte	.LASF1012
 10272 4d28 0F       		.byte	0xf
 10273 4d29 E202     		.2byte	0x2e2
 10274 4d2b 2F4D0000 		.4byte	0x4d2f
 10275 4d2f 08       		.uleb128 0x8
 10276 4d30 87240000 		.4byte	0x2487
 10277 4d34 68       		.uleb128 0x68
 10278 4d35 C05B0000 		.4byte	.LASF1013
 10279 4d39 0F       		.byte	0xf
 10280 4d3a E302     		.2byte	0x2e3
 10281 4d3c 404D0000 		.4byte	0x4d40
 10282 4d40 08       		.uleb128 0x8
 10283 4d41 57200000 		.4byte	0x2057
 10284 4d45 68       		.uleb128 0x68
 10285 4d46 F0330000 		.4byte	.LASF1014
 10286 4d4a 0F       		.byte	0xf
 10287 4d4b E402     		.2byte	0x2e4
 10288 4d4d 514D0000 		.4byte	0x4d51
 10289 4d51 08       		.uleb128 0x8
 10290 4d52 57200000 		.4byte	0x2057
 10291 4d56 68       		.uleb128 0x68
 10292 4d57 684E0000 		.4byte	.LASF1015
 10293 4d5b 0F       		.byte	0xf
ARM GAS  C:\Users\jrdia\AppData\Local\Temp\ccYHzYw6.s 			page 206


 10294 4d5c E502     		.2byte	0x2e5
 10295 4d5e 624D0000 		.4byte	0x4d62
 10296 4d62 08       		.uleb128 0x8
 10297 4d63 57200000 		.4byte	0x2057
 10298 4d67 68       		.uleb128 0x68
 10299 4d68 32330000 		.4byte	.LASF1016
 10300 4d6c 0F       		.byte	0xf
 10301 4d6d E602     		.2byte	0x2e6
 10302 4d6f 734D0000 		.4byte	0x4d73
 10303 4d73 08       		.uleb128 0x8
 10304 4d74 17200000 		.4byte	0x2017
 10305 4d78 68       		.uleb128 0x68
 10306 4d79 370E0000 		.4byte	.LASF1017
 10307 4d7d 0F       		.byte	0xf
 10308 4d7e E702     		.2byte	0x2e7
 10309 4d80 844D0000 		.4byte	0x4d84
 10310 4d84 08       		.uleb128 0x8
 10311 4d85 17200000 		.4byte	0x2017
 10312 4d89 68       		.uleb128 0x68
 10313 4d8a 4E590000 		.4byte	.LASF1018
 10314 4d8e 0F       		.byte	0xf
 10315 4d8f E802     		.2byte	0x2e8
 10316 4d91 954D0000 		.4byte	0x4d95
 10317 4d95 08       		.uleb128 0x8
 10318 4d96 17200000 		.4byte	0x2017
 10319 4d9a 68       		.uleb128 0x68
 10320 4d9b 8A220000 		.4byte	.LASF1019
 10321 4d9f 0F       		.byte	0xf
 10322 4da0 E902     		.2byte	0x2e9
 10323 4da2 A64D0000 		.4byte	0x4da6
 10324 4da6 08       		.uleb128 0x8
 10325 4da7 17200000 		.4byte	0x2017
 10326 4dab 68       		.uleb128 0x68
 10327 4dac 2B130000 		.4byte	.LASF1020
 10328 4db0 0F       		.byte	0xf
 10329 4db1 EA02     		.2byte	0x2ea
 10330 4db3 B74D0000 		.4byte	0x4db7
 10331 4db7 08       		.uleb128 0x8
 10332 4db8 F7200000 		.4byte	0x20f7
 10333 4dbc 68       		.uleb128 0x68
 10334 4dbd 895A0000 		.4byte	.LASF1021
 10335 4dc1 0F       		.byte	0xf
 10336 4dc2 EB02     		.2byte	0x2eb
 10337 4dc4 C84D0000 		.4byte	0x4dc8
 10338 4dc8 08       		.uleb128 0x8
 10339 4dc9 F7200000 		.4byte	0x20f7
 10340 4dcd 68       		.uleb128 0x68
 10341 4dce 10270000 		.4byte	.LASF1022
 10342 4dd2 0F       		.byte	0xf
 10343 4dd3 EC02     		.2byte	0x2ec
 10344 4dd5 D94D0000 		.4byte	0x4dd9
 10345 4dd9 08       		.uleb128 0x8
 10346 4dda 57200000 		.4byte	0x2057
 10347 4dde 68       		.uleb128 0x68
 10348 4ddf 6A120000 		.4byte	.LASF1023
 10349 4de3 0F       		.byte	0xf
 10350 4de4 ED02     		.2byte	0x2ed
ARM GAS  C:\Users\jrdia\AppData\Local\Temp\ccYHzYw6.s 			page 207


 10351 4de6 EA4D0000 		.4byte	0x4dea
 10352 4dea 08       		.uleb128 0x8
 10353 4deb 87240000 		.4byte	0x2487
 10354 4def 68       		.uleb128 0x68
 10355 4df0 D13A0000 		.4byte	.LASF1024
 10356 4df4 0F       		.byte	0xf
 10357 4df5 EE02     		.2byte	0x2ee
 10358 4df7 FB4D0000 		.4byte	0x4dfb
 10359 4dfb 08       		.uleb128 0x8
 10360 4dfc F7200000 		.4byte	0x20f7
 10361 4e00 68       		.uleb128 0x68
 10362 4e01 D6630000 		.4byte	.LASF1025
 10363 4e05 0F       		.byte	0xf
 10364 4e06 EF02     		.2byte	0x2ef
 10365 4e08 0C4E0000 		.4byte	0x4e0c
 10366 4e0c 08       		.uleb128 0x8
 10367 4e0d 17200000 		.4byte	0x2017
 10368 4e11 68       		.uleb128 0x68
 10369 4e12 20280000 		.4byte	.LASF1026
 10370 4e16 0F       		.byte	0xf
 10371 4e17 F002     		.2byte	0x2f0
 10372 4e19 1D4E0000 		.4byte	0x4e1d
 10373 4e1d 08       		.uleb128 0x8
 10374 4e1e 57200000 		.4byte	0x2057
 10375 4e22 68       		.uleb128 0x68
 10376 4e23 D6440000 		.4byte	.LASF1027
 10377 4e27 0F       		.byte	0xf
 10378 4e28 F102     		.2byte	0x2f1
 10379 4e2a 2E4E0000 		.4byte	0x4e2e
 10380 4e2e 08       		.uleb128 0x8
 10381 4e2f 87200000 		.4byte	0x2087
 10382 4e33 68       		.uleb128 0x68
 10383 4e34 1B4B0000 		.4byte	.LASF1028
 10384 4e38 0F       		.byte	0xf
 10385 4e39 F202     		.2byte	0x2f2
 10386 4e3b 3F4E0000 		.4byte	0x4e3f
 10387 4e3f 08       		.uleb128 0x8
 10388 4e40 87200000 		.4byte	0x2087
 10389 4e44 68       		.uleb128 0x68
 10390 4e45 231C0000 		.4byte	.LASF1029
 10391 4e49 0F       		.byte	0xf
 10392 4e4a F302     		.2byte	0x2f3
 10393 4e4c 504E0000 		.4byte	0x4e50
 10394 4e50 08       		.uleb128 0x8
 10395 4e51 17200000 		.4byte	0x2017
 10396 4e55 68       		.uleb128 0x68
 10397 4e56 41520000 		.4byte	.LASF1030
 10398 4e5a 0F       		.byte	0xf
 10399 4e5b F402     		.2byte	0x2f4
 10400 4e5d 614E0000 		.4byte	0x4e61
 10401 4e61 08       		.uleb128 0x8
 10402 4e62 17200000 		.4byte	0x2017
 10403 4e66 68       		.uleb128 0x68
 10404 4e67 0F420000 		.4byte	.LASF1031
 10405 4e6b 0F       		.byte	0xf
 10406 4e6c F502     		.2byte	0x2f5
 10407 4e6e 724E0000 		.4byte	0x4e72
ARM GAS  C:\Users\jrdia\AppData\Local\Temp\ccYHzYw6.s 			page 208


 10408 4e72 08       		.uleb128 0x8
 10409 4e73 17200000 		.4byte	0x2017
 10410 4e77 68       		.uleb128 0x68
 10411 4e78 BD070000 		.4byte	.LASF1032
 10412 4e7c 0F       		.byte	0xf
 10413 4e7d F602     		.2byte	0x2f6
 10414 4e7f 834E0000 		.4byte	0x4e83
 10415 4e83 08       		.uleb128 0x8
 10416 4e84 17200000 		.4byte	0x2017
 10417 4e88 68       		.uleb128 0x68
 10418 4e89 C5400000 		.4byte	.LASF1033
 10419 4e8d 0F       		.byte	0xf
 10420 4e8e F702     		.2byte	0x2f7
 10421 4e90 944E0000 		.4byte	0x4e94
 10422 4e94 08       		.uleb128 0x8
 10423 4e95 F7200000 		.4byte	0x20f7
 10424 4e99 68       		.uleb128 0x68
 10425 4e9a F3210000 		.4byte	.LASF1034
 10426 4e9e 0F       		.byte	0xf
 10427 4e9f F802     		.2byte	0x2f8
 10428 4ea1 A54E0000 		.4byte	0x4ea5
 10429 4ea5 08       		.uleb128 0x8
 10430 4ea6 17200000 		.4byte	0x2017
 10431 4eaa 68       		.uleb128 0x68
 10432 4eab 94100000 		.4byte	.LASF1035
 10433 4eaf 0F       		.byte	0xf
 10434 4eb0 F902     		.2byte	0x2f9
 10435 4eb2 B64E0000 		.4byte	0x4eb6
 10436 4eb6 08       		.uleb128 0x8
 10437 4eb7 37210000 		.4byte	0x2137
 10438 4ebb 68       		.uleb128 0x68
 10439 4ebc 7C0D0000 		.4byte	.LASF1036
 10440 4ec0 0F       		.byte	0xf
 10441 4ec1 FA02     		.2byte	0x2fa
 10442 4ec3 C74E0000 		.4byte	0x4ec7
 10443 4ec7 08       		.uleb128 0x8
 10444 4ec8 37200000 		.4byte	0x2037
 10445 4ecc 68       		.uleb128 0x68
 10446 4ecd DB280000 		.4byte	.LASF1037
 10447 4ed1 0F       		.byte	0xf
 10448 4ed2 FB02     		.2byte	0x2fb
 10449 4ed4 D84E0000 		.4byte	0x4ed8
 10450 4ed8 08       		.uleb128 0x8
 10451 4ed9 87240000 		.4byte	0x2487
 10452 4edd 68       		.uleb128 0x68
 10453 4ede AB590000 		.4byte	.LASF1038
 10454 4ee2 0F       		.byte	0xf
 10455 4ee3 FC02     		.2byte	0x2fc
 10456 4ee5 E94E0000 		.4byte	0x4ee9
 10457 4ee9 08       		.uleb128 0x8
 10458 4eea 17200000 		.4byte	0x2017
 10459 4eee 68       		.uleb128 0x68
 10460 4eef 4E570000 		.4byte	.LASF1039
 10461 4ef3 0F       		.byte	0xf
 10462 4ef4 FD02     		.2byte	0x2fd
 10463 4ef6 FA4E0000 		.4byte	0x4efa
 10464 4efa 08       		.uleb128 0x8
ARM GAS  C:\Users\jrdia\AppData\Local\Temp\ccYHzYw6.s 			page 209


 10465 4efb D7200000 		.4byte	0x20d7
 10466 4eff 68       		.uleb128 0x68
 10467 4f00 5C1E0000 		.4byte	.LASF1040
 10468 4f04 0F       		.byte	0xf
 10469 4f05 FE02     		.2byte	0x2fe
 10470 4f07 0B4F0000 		.4byte	0x4f0b
 10471 4f0b 08       		.uleb128 0x8
 10472 4f0c 57200000 		.4byte	0x2057
 10473 4f10 68       		.uleb128 0x68
 10474 4f11 59130000 		.4byte	.LASF1041
 10475 4f15 0F       		.byte	0xf
 10476 4f16 FF02     		.2byte	0x2ff
 10477 4f18 1C4F0000 		.4byte	0x4f1c
 10478 4f1c 08       		.uleb128 0x8
 10479 4f1d F7200000 		.4byte	0x20f7
 10480 4f21 68       		.uleb128 0x68
 10481 4f22 17130000 		.4byte	.LASF1042
 10482 4f26 0F       		.byte	0xf
 10483 4f27 0003     		.2byte	0x300
 10484 4f29 2D4F0000 		.4byte	0x4f2d
 10485 4f2d 08       		.uleb128 0x8
 10486 4f2e F7200000 		.4byte	0x20f7
 10487 4f32 68       		.uleb128 0x68
 10488 4f33 582E0000 		.4byte	.LASF1043
 10489 4f37 0F       		.byte	0xf
 10490 4f38 0103     		.2byte	0x301
 10491 4f3a 3E4F0000 		.4byte	0x4f3e
 10492 4f3e 08       		.uleb128 0x8
 10493 4f3f 17200000 		.4byte	0x2017
 10494 4f43 68       		.uleb128 0x68
 10495 4f44 C95D0000 		.4byte	.LASF1044
 10496 4f48 0F       		.byte	0xf
 10497 4f49 0203     		.2byte	0x302
 10498 4f4b 4F4F0000 		.4byte	0x4f4f
 10499 4f4f 08       		.uleb128 0x8
 10500 4f50 17200000 		.4byte	0x2017
 10501 4f54 68       		.uleb128 0x68
 10502 4f55 525F0000 		.4byte	.LASF1045
 10503 4f59 0F       		.byte	0xf
 10504 4f5a 0303     		.2byte	0x303
 10505 4f5c 604F0000 		.4byte	0x4f60
 10506 4f60 08       		.uleb128 0x8
 10507 4f61 17200000 		.4byte	0x2017
 10508 4f65 68       		.uleb128 0x68
 10509 4f66 8D1C0000 		.4byte	.LASF1046
 10510 4f6a 0F       		.byte	0xf
 10511 4f6b 0403     		.2byte	0x304
 10512 4f6d 714F0000 		.4byte	0x4f71
 10513 4f71 08       		.uleb128 0x8
 10514 4f72 57200000 		.4byte	0x2057
 10515 4f76 68       		.uleb128 0x68
 10516 4f77 D7030000 		.4byte	.LASF1047
 10517 4f7b 0F       		.byte	0xf
 10518 4f7c 0503     		.2byte	0x305
 10519 4f7e 824F0000 		.4byte	0x4f82
 10520 4f82 08       		.uleb128 0x8
 10521 4f83 17200000 		.4byte	0x2017
ARM GAS  C:\Users\jrdia\AppData\Local\Temp\ccYHzYw6.s 			page 210


 10522 4f87 68       		.uleb128 0x68
 10523 4f88 0F4F0000 		.4byte	.LASF1048
 10524 4f8c 0F       		.byte	0xf
 10525 4f8d 0603     		.2byte	0x306
 10526 4f8f 934F0000 		.4byte	0x4f93
 10527 4f93 08       		.uleb128 0x8
 10528 4f94 17200000 		.4byte	0x2017
 10529 4f98 68       		.uleb128 0x68
 10530 4f99 01490000 		.4byte	.LASF1049
 10531 4f9d 0F       		.byte	0xf
 10532 4f9e 0703     		.2byte	0x307
 10533 4fa0 A44F0000 		.4byte	0x4fa4
 10534 4fa4 08       		.uleb128 0x8
 10535 4fa5 17200000 		.4byte	0x2017
 10536 4fa9 68       		.uleb128 0x68
 10537 4faa 44060000 		.4byte	.LASF1050
 10538 4fae 0F       		.byte	0xf
 10539 4faf 0803     		.2byte	0x308
 10540 4fb1 B54F0000 		.4byte	0x4fb5
 10541 4fb5 08       		.uleb128 0x8
 10542 4fb6 17200000 		.4byte	0x2017
 10543 4fba 68       		.uleb128 0x68
 10544 4fbb 71100000 		.4byte	.LASF1051
 10545 4fbf 0F       		.byte	0xf
 10546 4fc0 0903     		.2byte	0x309
 10547 4fc2 C64F0000 		.4byte	0x4fc6
 10548 4fc6 08       		.uleb128 0x8
 10549 4fc7 37210000 		.4byte	0x2137
 10550 4fcb 68       		.uleb128 0x68
 10551 4fcc 18430000 		.4byte	.LASF1052
 10552 4fd0 0F       		.byte	0xf
 10553 4fd1 0A03     		.2byte	0x30a
 10554 4fd3 D74F0000 		.4byte	0x4fd7
 10555 4fd7 08       		.uleb128 0x8
 10556 4fd8 37200000 		.4byte	0x2037
 10557 4fdc 68       		.uleb128 0x68
 10558 4fdd CB200000 		.4byte	.LASF1053
 10559 4fe1 0F       		.byte	0xf
 10560 4fe2 0B03     		.2byte	0x30b
 10561 4fe4 E84F0000 		.4byte	0x4fe8
 10562 4fe8 08       		.uleb128 0x8
 10563 4fe9 37200000 		.4byte	0x2037
 10564 4fed 68       		.uleb128 0x68
 10565 4fee D03E0000 		.4byte	.LASF1054
 10566 4ff2 0F       		.byte	0xf
 10567 4ff3 0C03     		.2byte	0x30c
 10568 4ff5 F94F0000 		.4byte	0x4ff9
 10569 4ff9 08       		.uleb128 0x8
 10570 4ffa 57200000 		.4byte	0x2057
 10571 4ffe 68       		.uleb128 0x68
 10572 4fff 22320000 		.4byte	.LASF1055
 10573 5003 0F       		.byte	0xf
 10574 5004 0D03     		.2byte	0x30d
 10575 5006 0A500000 		.4byte	0x500a
 10576 500a 08       		.uleb128 0x8
 10577 500b 57200000 		.4byte	0x2057
 10578 500f 68       		.uleb128 0x68
ARM GAS  C:\Users\jrdia\AppData\Local\Temp\ccYHzYw6.s 			page 211


 10579 5010 C05F0000 		.4byte	.LASF1056
 10580 5014 0F       		.byte	0xf
 10581 5015 1003     		.2byte	0x310
 10582 5017 1B500000 		.4byte	0x501b
 10583 501b 08       		.uleb128 0x8
 10584 501c 37210000 		.4byte	0x2137
 10585 5020 68       		.uleb128 0x68
 10586 5021 AA570000 		.4byte	.LASF1057
 10587 5025 0F       		.byte	0xf
 10588 5026 1103     		.2byte	0x311
 10589 5028 2C500000 		.4byte	0x502c
 10590 502c 08       		.uleb128 0x8
 10591 502d B71F0000 		.4byte	0x1fb7
 10592 5031 68       		.uleb128 0x68
 10593 5032 C53F0000 		.4byte	.LASF1058
 10594 5036 0F       		.byte	0xf
 10595 5037 1203     		.2byte	0x312
 10596 5039 3D500000 		.4byte	0x503d
 10597 503d 08       		.uleb128 0x8
 10598 503e 37210000 		.4byte	0x2137
 10599 5042 68       		.uleb128 0x68
 10600 5043 292B0000 		.4byte	.LASF1059
 10601 5047 0F       		.byte	0xf
 10602 5048 1303     		.2byte	0x313
 10603 504a 4E500000 		.4byte	0x504e
 10604 504e 08       		.uleb128 0x8
 10605 504f 37210000 		.4byte	0x2137
 10606 5053 68       		.uleb128 0x68
 10607 5054 38080000 		.4byte	.LASF1060
 10608 5058 0F       		.byte	0xf
 10609 5059 1403     		.2byte	0x314
 10610 505b 5F500000 		.4byte	0x505f
 10611 505f 08       		.uleb128 0x8
 10612 5060 37210000 		.4byte	0x2137
 10613 5064 68       		.uleb128 0x68
 10614 5065 01450000 		.4byte	.LASF1061
 10615 5069 0F       		.byte	0xf
 10616 506a 1503     		.2byte	0x315
 10617 506c 70500000 		.4byte	0x5070
 10618 5070 08       		.uleb128 0x8
 10619 5071 37210000 		.4byte	0x2137
 10620 5075 68       		.uleb128 0x68
 10621 5076 6F0A0000 		.4byte	.LASF1062
 10622 507a 0F       		.byte	0xf
 10623 507b 1603     		.2byte	0x316
 10624 507d 81500000 		.4byte	0x5081
 10625 5081 08       		.uleb128 0x8
 10626 5082 B7220000 		.4byte	0x22b7
 10627 5086 68       		.uleb128 0x68
 10628 5087 50030000 		.4byte	.LASF1063
 10629 508b 0F       		.byte	0xf
 10630 508c 1703     		.2byte	0x317
 10631 508e 92500000 		.4byte	0x5092
 10632 5092 08       		.uleb128 0x8
 10633 5093 F7200000 		.4byte	0x20f7
 10634 5097 68       		.uleb128 0x68
 10635 5098 2B4A0000 		.4byte	.LASF1064
ARM GAS  C:\Users\jrdia\AppData\Local\Temp\ccYHzYw6.s 			page 212


 10636 509c 0F       		.byte	0xf
 10637 509d 1803     		.2byte	0x318
 10638 509f A3500000 		.4byte	0x50a3
 10639 50a3 08       		.uleb128 0x8
 10640 50a4 57200000 		.4byte	0x2057
 10641 50a8 68       		.uleb128 0x68
 10642 50a9 493E0000 		.4byte	.LASF1065
 10643 50ad 0F       		.byte	0xf
 10644 50ae 1903     		.2byte	0x319
 10645 50b0 B4500000 		.4byte	0x50b4
 10646 50b4 08       		.uleb128 0x8
 10647 50b5 F7200000 		.4byte	0x20f7
 10648 50b9 68       		.uleb128 0x68
 10649 50ba 853E0000 		.4byte	.LASF1066
 10650 50be 0F       		.byte	0xf
 10651 50bf 1A03     		.2byte	0x31a
 10652 50c1 C5500000 		.4byte	0x50c5
 10653 50c5 08       		.uleb128 0x8
 10654 50c6 37200000 		.4byte	0x2037
 10655 50ca 68       		.uleb128 0x68
 10656 50cb 0B520000 		.4byte	.LASF1067
 10657 50cf 0F       		.byte	0xf
 10658 50d0 1B03     		.2byte	0x31b
 10659 50d2 D6500000 		.4byte	0x50d6
 10660 50d6 08       		.uleb128 0x8
 10661 50d7 C7240000 		.4byte	0x24c7
 10662 50db 68       		.uleb128 0x68
 10663 50dc 0A210000 		.4byte	.LASF1068
 10664 50e0 0F       		.byte	0xf
 10665 50e1 1C03     		.2byte	0x31c
 10666 50e3 E7500000 		.4byte	0x50e7
 10667 50e7 08       		.uleb128 0x8
 10668 50e8 B7220000 		.4byte	0x22b7
 10669 50ec 68       		.uleb128 0x68
 10670 50ed 08480000 		.4byte	.LASF1069
 10671 50f1 0F       		.byte	0xf
 10672 50f2 1D03     		.2byte	0x31d
 10673 50f4 F8500000 		.4byte	0x50f8
 10674 50f8 08       		.uleb128 0x8
 10675 50f9 D7200000 		.4byte	0x20d7
 10676 50fd 68       		.uleb128 0x68
 10677 50fe 51480000 		.4byte	.LASF1070
 10678 5102 0F       		.byte	0xf
 10679 5103 1E03     		.2byte	0x31e
 10680 5105 09510000 		.4byte	0x5109
 10681 5109 08       		.uleb128 0x8
 10682 510a B7200000 		.4byte	0x20b7
 10683 510e 68       		.uleb128 0x68
 10684 510f 3C220000 		.4byte	.LASF1071
 10685 5113 0F       		.byte	0xf
 10686 5114 1F03     		.2byte	0x31f
 10687 5116 1A510000 		.4byte	0x511a
 10688 511a 08       		.uleb128 0x8
 10689 511b D7200000 		.4byte	0x20d7
 10690 511f 68       		.uleb128 0x68
 10691 5120 DA160000 		.4byte	.LASF1072
 10692 5124 0F       		.byte	0xf
ARM GAS  C:\Users\jrdia\AppData\Local\Temp\ccYHzYw6.s 			page 213


 10693 5125 2003     		.2byte	0x320
 10694 5127 2B510000 		.4byte	0x512b
 10695 512b 08       		.uleb128 0x8
 10696 512c 37210000 		.4byte	0x2137
 10697 5130 68       		.uleb128 0x68
 10698 5131 114D0000 		.4byte	.LASF1073
 10699 5135 0F       		.byte	0xf
 10700 5136 2103     		.2byte	0x321
 10701 5138 3C510000 		.4byte	0x513c
 10702 513c 08       		.uleb128 0x8
 10703 513d 37210000 		.4byte	0x2137
 10704 5141 68       		.uleb128 0x68
 10705 5142 040D0000 		.4byte	.LASF1074
 10706 5146 0F       		.byte	0xf
 10707 5147 2203     		.2byte	0x322
 10708 5149 4D510000 		.4byte	0x514d
 10709 514d 08       		.uleb128 0x8
 10710 514e 37200000 		.4byte	0x2037
 10711 5152 68       		.uleb128 0x68
 10712 5153 D0040000 		.4byte	.LASF1075
 10713 5157 0F       		.byte	0xf
 10714 5158 2303     		.2byte	0x323
 10715 515a 5E510000 		.4byte	0x515e
 10716 515e 08       		.uleb128 0x8
 10717 515f D71F0000 		.4byte	0x1fd7
 10718 5163 68       		.uleb128 0x68
 10719 5164 51400000 		.4byte	.LASF1076
 10720 5168 0F       		.byte	0xf
 10721 5169 2403     		.2byte	0x324
 10722 516b 6F510000 		.4byte	0x516f
 10723 516f 08       		.uleb128 0x8
 10724 5170 F7200000 		.4byte	0x20f7
 10725 5174 68       		.uleb128 0x68
 10726 5175 94140000 		.4byte	.LASF1077
 10727 5179 0F       		.byte	0xf
 10728 517a 2503     		.2byte	0x325
 10729 517c 80510000 		.4byte	0x5180
 10730 5180 08       		.uleb128 0x8
 10731 5181 B71F0000 		.4byte	0x1fb7
 10732 5185 68       		.uleb128 0x68
 10733 5186 EE4E0000 		.4byte	.LASF1078
 10734 518a 0F       		.byte	0xf
 10735 518b 2603     		.2byte	0x326
 10736 518d 91510000 		.4byte	0x5191
 10737 5191 08       		.uleb128 0x8
 10738 5192 B7200000 		.4byte	0x20b7
 10739 5196 68       		.uleb128 0x68
 10740 5197 99180000 		.4byte	.LASF1079
 10741 519b 0F       		.byte	0xf
 10742 519c 2703     		.2byte	0x327
 10743 519e A2510000 		.4byte	0x51a2
 10744 51a2 08       		.uleb128 0x8
 10745 51a3 17200000 		.4byte	0x2017
 10746 51a7 68       		.uleb128 0x68
 10747 51a8 29430000 		.4byte	.LASF1080
 10748 51ac 0F       		.byte	0xf
 10749 51ad 2803     		.2byte	0x328
ARM GAS  C:\Users\jrdia\AppData\Local\Temp\ccYHzYw6.s 			page 214


 10750 51af B3510000 		.4byte	0x51b3
 10751 51b3 08       		.uleb128 0x8
 10752 51b4 77210000 		.4byte	0x2177
 10753 51b8 68       		.uleb128 0x68
 10754 51b9 14600000 		.4byte	.LASF1081
 10755 51bd 0F       		.byte	0xf
 10756 51be 2903     		.2byte	0x329
 10757 51c0 C4510000 		.4byte	0x51c4
 10758 51c4 08       		.uleb128 0x8
 10759 51c5 77210000 		.4byte	0x2177
 10760 51c9 68       		.uleb128 0x68
 10761 51ca 3E2B0000 		.4byte	.LASF1082
 10762 51ce 0F       		.byte	0xf
 10763 51cf 2A03     		.2byte	0x32a
 10764 51d1 D5510000 		.4byte	0x51d5
 10765 51d5 08       		.uleb128 0x8
 10766 51d6 87200000 		.4byte	0x2087
 10767 51da 68       		.uleb128 0x68
 10768 51db 25310000 		.4byte	.LASF1083
 10769 51df 0F       		.byte	0xf
 10770 51e0 2C03     		.2byte	0x32c
 10771 51e2 E6510000 		.4byte	0x51e6
 10772 51e6 08       		.uleb128 0x8
 10773 51e7 D7200000 		.4byte	0x20d7
 10774 51eb 68       		.uleb128 0x68
 10775 51ec 281D0000 		.4byte	.LASF1084
 10776 51f0 0F       		.byte	0xf
 10777 51f1 2D03     		.2byte	0x32d
 10778 51f3 F7510000 		.4byte	0x51f7
 10779 51f7 08       		.uleb128 0x8
 10780 51f8 D7200000 		.4byte	0x20d7
 10781 51fc 68       		.uleb128 0x68
 10782 51fd DB3B0000 		.4byte	.LASF1085
 10783 5201 0F       		.byte	0xf
 10784 5202 2E03     		.2byte	0x32e
 10785 5204 08520000 		.4byte	0x5208
 10786 5208 08       		.uleb128 0x8
 10787 5209 D7200000 		.4byte	0x20d7
 10788 520d 68       		.uleb128 0x68
 10789 520e 39580000 		.4byte	.LASF1086
 10790 5212 0F       		.byte	0xf
 10791 5213 2F03     		.2byte	0x32f
 10792 5215 19520000 		.4byte	0x5219
 10793 5219 08       		.uleb128 0x8
 10794 521a F7200000 		.4byte	0x20f7
 10795 521e 68       		.uleb128 0x68
 10796 521f D1510000 		.4byte	.LASF1087
 10797 5223 0F       		.byte	0xf
 10798 5224 3003     		.2byte	0x330
 10799 5226 2A520000 		.4byte	0x522a
 10800 522a 08       		.uleb128 0x8
 10801 522b 37200000 		.4byte	0x2037
 10802 522f 68       		.uleb128 0x68
 10803 5230 68010000 		.4byte	.LASF1088
 10804 5234 0F       		.byte	0xf
 10805 5235 3103     		.2byte	0x331
 10806 5237 3B520000 		.4byte	0x523b
ARM GAS  C:\Users\jrdia\AppData\Local\Temp\ccYHzYw6.s 			page 215


 10807 523b 08       		.uleb128 0x8
 10808 523c D71F0000 		.4byte	0x1fd7
 10809 5240 68       		.uleb128 0x68
 10810 5241 09470000 		.4byte	.LASF1089
 10811 5245 0F       		.byte	0xf
 10812 5246 3203     		.2byte	0x332
 10813 5248 4C520000 		.4byte	0x524c
 10814 524c 08       		.uleb128 0x8
 10815 524d D7200000 		.4byte	0x20d7
 10816 5251 68       		.uleb128 0x68
 10817 5252 FF4A0000 		.4byte	.LASF1090
 10818 5256 0F       		.byte	0xf
 10819 5257 3303     		.2byte	0x333
 10820 5259 5D520000 		.4byte	0x525d
 10821 525d 08       		.uleb128 0x8
 10822 525e 57200000 		.4byte	0x2057
 10823 5262 68       		.uleb128 0x68
 10824 5263 C12A0000 		.4byte	.LASF1091
 10825 5267 0F       		.byte	0xf
 10826 5268 3403     		.2byte	0x334
 10827 526a 6E520000 		.4byte	0x526e
 10828 526e 08       		.uleb128 0x8
 10829 526f D7200000 		.4byte	0x20d7
 10830 5273 68       		.uleb128 0x68
 10831 5274 63260000 		.4byte	.LASF1092
 10832 5278 0F       		.byte	0xf
 10833 5279 3503     		.2byte	0x335
 10834 527b 7F520000 		.4byte	0x527f
 10835 527f 08       		.uleb128 0x8
 10836 5280 D7200000 		.4byte	0x20d7
 10837 5284 68       		.uleb128 0x68
 10838 5285 57050000 		.4byte	.LASF1093
 10839 5289 0F       		.byte	0xf
 10840 528a 3603     		.2byte	0x336
 10841 528c 90520000 		.4byte	0x5290
 10842 5290 08       		.uleb128 0x8
 10843 5291 37200000 		.4byte	0x2037
 10844 5295 68       		.uleb128 0x68
 10845 5296 F6530000 		.4byte	.LASF1094
 10846 529a 0F       		.byte	0xf
 10847 529b 3903     		.2byte	0x339
 10848 529d A1520000 		.4byte	0x52a1
 10849 52a1 08       		.uleb128 0x8
 10850 52a2 87200000 		.4byte	0x2087
 10851 52a6 68       		.uleb128 0x68
 10852 52a7 90340000 		.4byte	.LASF1095
 10853 52ab 0F       		.byte	0xf
 10854 52ac 3A03     		.2byte	0x33a
 10855 52ae B2520000 		.4byte	0x52b2
 10856 52b2 08       		.uleb128 0x8
 10857 52b3 37200000 		.4byte	0x2037
 10858 52b7 68       		.uleb128 0x68
 10859 52b8 EB540000 		.4byte	.LASF1096
 10860 52bc 0F       		.byte	0xf
 10861 52bd 3B03     		.2byte	0x33b
 10862 52bf C3520000 		.4byte	0x52c3
 10863 52c3 08       		.uleb128 0x8
ARM GAS  C:\Users\jrdia\AppData\Local\Temp\ccYHzYw6.s 			page 216


 10864 52c4 87200000 		.4byte	0x2087
 10865 52c8 68       		.uleb128 0x68
 10866 52c9 F4250000 		.4byte	.LASF1097
 10867 52cd 0F       		.byte	0xf
 10868 52ce 3C03     		.2byte	0x33c
 10869 52d0 D4520000 		.4byte	0x52d4
 10870 52d4 08       		.uleb128 0x8
 10871 52d5 57200000 		.4byte	0x2057
 10872 52d9 68       		.uleb128 0x68
 10873 52da 9C000000 		.4byte	.LASF1098
 10874 52de 0F       		.byte	0xf
 10875 52df 3D03     		.2byte	0x33d
 10876 52e1 E5520000 		.4byte	0x52e5
 10877 52e5 08       		.uleb128 0x8
 10878 52e6 87240000 		.4byte	0x2487
 10879 52ea 68       		.uleb128 0x68
 10880 52eb 95590000 		.4byte	.LASF1099
 10881 52ef 0F       		.byte	0xf
 10882 52f0 3E03     		.2byte	0x33e
 10883 52f2 F6520000 		.4byte	0x52f6
 10884 52f6 08       		.uleb128 0x8
 10885 52f7 57200000 		.4byte	0x2057
 10886 52fb 68       		.uleb128 0x68
 10887 52fc 25560000 		.4byte	.LASF1100
 10888 5300 0F       		.byte	0xf
 10889 5301 3F03     		.2byte	0x33f
 10890 5303 07530000 		.4byte	0x5307
 10891 5307 08       		.uleb128 0x8
 10892 5308 87200000 		.4byte	0x2087
 10893 530c 68       		.uleb128 0x68
 10894 530d 2B520000 		.4byte	.LASF1101
 10895 5311 0F       		.byte	0xf
 10896 5312 4003     		.2byte	0x340
 10897 5314 18530000 		.4byte	0x5318
 10898 5318 08       		.uleb128 0x8
 10899 5319 37200000 		.4byte	0x2037
 10900 531d 68       		.uleb128 0x68
 10901 531e 4E020000 		.4byte	.LASF1102
 10902 5322 0F       		.byte	0xf
 10903 5323 4203     		.2byte	0x342
 10904 5325 29530000 		.4byte	0x5329
 10905 5329 08       		.uleb128 0x8
 10906 532a 87200000 		.4byte	0x2087
 10907 532e 68       		.uleb128 0x68
 10908 532f 4D210000 		.4byte	.LASF1103
 10909 5333 0F       		.byte	0xf
 10910 5334 4303     		.2byte	0x343
 10911 5336 3A530000 		.4byte	0x533a
 10912 533a 08       		.uleb128 0x8
 10913 533b 87240000 		.4byte	0x2487
 10914 533f 68       		.uleb128 0x68
 10915 5340 6E3B0000 		.4byte	.LASF1104
 10916 5344 0F       		.byte	0xf
 10917 5345 4403     		.2byte	0x344
 10918 5347 4B530000 		.4byte	0x534b
 10919 534b 08       		.uleb128 0x8
 10920 534c 37200000 		.4byte	0x2037
ARM GAS  C:\Users\jrdia\AppData\Local\Temp\ccYHzYw6.s 			page 217


 10921 5350 68       		.uleb128 0x68
 10922 5351 742F0000 		.4byte	.LASF1105
 10923 5355 0F       		.byte	0xf
 10924 5356 4503     		.2byte	0x345
 10925 5358 5C530000 		.4byte	0x535c
 10926 535c 08       		.uleb128 0x8
 10927 535d 37200000 		.4byte	0x2037
 10928 5361 68       		.uleb128 0x68
 10929 5362 E4380000 		.4byte	.LASF1106
 10930 5366 0F       		.byte	0xf
 10931 5367 4603     		.2byte	0x346
 10932 5369 6D530000 		.4byte	0x536d
 10933 536d 08       		.uleb128 0x8
 10934 536e 37200000 		.4byte	0x2037
 10935 5372 68       		.uleb128 0x68
 10936 5373 79420000 		.4byte	.LASF1107
 10937 5377 0F       		.byte	0xf
 10938 5378 4703     		.2byte	0x347
 10939 537a 7E530000 		.4byte	0x537e
 10940 537e 08       		.uleb128 0x8
 10941 537f 37210000 		.4byte	0x2137
 10942 5383 68       		.uleb128 0x68
 10943 5384 8D480000 		.4byte	.LASF1108
 10944 5388 0F       		.byte	0xf
 10945 5389 4803     		.2byte	0x348
 10946 538b 8F530000 		.4byte	0x538f
 10947 538f 08       		.uleb128 0x8
 10948 5390 37210000 		.4byte	0x2137
 10949 5394 68       		.uleb128 0x68
 10950 5395 A81A0000 		.4byte	.LASF1109
 10951 5399 0F       		.byte	0xf
 10952 539a 4903     		.2byte	0x349
 10953 539c A0530000 		.4byte	0x53a0
 10954 53a0 08       		.uleb128 0x8
 10955 53a1 57200000 		.4byte	0x2057
 10956 53a5 68       		.uleb128 0x68
 10957 53a6 284E0000 		.4byte	.LASF1110
 10958 53aa 0F       		.byte	0xf
 10959 53ab 4A03     		.2byte	0x34a
 10960 53ad B1530000 		.4byte	0x53b1
 10961 53b1 08       		.uleb128 0x8
 10962 53b2 17200000 		.4byte	0x2017
 10963 53b6 68       		.uleb128 0x68
 10964 53b7 BF1B0000 		.4byte	.LASF1111
 10965 53bb 0F       		.byte	0xf
 10966 53bc 4B03     		.2byte	0x34b
 10967 53be C2530000 		.4byte	0x53c2
 10968 53c2 08       		.uleb128 0x8
 10969 53c3 B7220000 		.4byte	0x22b7
 10970 53c7 68       		.uleb128 0x68
 10971 53c8 C9060000 		.4byte	.LASF1112
 10972 53cc 0F       		.byte	0xf
 10973 53cd 4C03     		.2byte	0x34c
 10974 53cf D3530000 		.4byte	0x53d3
 10975 53d3 08       		.uleb128 0x8
 10976 53d4 B7220000 		.4byte	0x22b7
 10977 53d8 68       		.uleb128 0x68
ARM GAS  C:\Users\jrdia\AppData\Local\Temp\ccYHzYw6.s 			page 218


 10978 53d9 23500000 		.4byte	.LASF1113
 10979 53dd 0F       		.byte	0xf
 10980 53de 4D03     		.2byte	0x34d
 10981 53e0 E4530000 		.4byte	0x53e4
 10982 53e4 08       		.uleb128 0x8
 10983 53e5 57200000 		.4byte	0x2057
 10984 53e9 68       		.uleb128 0x68
 10985 53ea D9180000 		.4byte	.LASF1114
 10986 53ee 0F       		.byte	0xf
 10987 53ef 4E03     		.2byte	0x34e
 10988 53f1 F5530000 		.4byte	0x53f5
 10989 53f5 08       		.uleb128 0x8
 10990 53f6 B71F0000 		.4byte	0x1fb7
 10991 53fa 68       		.uleb128 0x68
 10992 53fb 3A420000 		.4byte	.LASF1115
 10993 53ff 0F       		.byte	0xf
 10994 5400 4F03     		.2byte	0x34f
 10995 5402 06540000 		.4byte	0x5406
 10996 5406 08       		.uleb128 0x8
 10997 5407 B71F0000 		.4byte	0x1fb7
 10998 540b 68       		.uleb128 0x68
 10999 540c 18190000 		.4byte	.LASF1116
 11000 5410 0F       		.byte	0xf
 11001 5411 5003     		.2byte	0x350
 11002 5413 17540000 		.4byte	0x5417
 11003 5417 08       		.uleb128 0x8
 11004 5418 B7200000 		.4byte	0x20b7
 11005 541c 68       		.uleb128 0x68
 11006 541d 78410000 		.4byte	.LASF1117
 11007 5421 0F       		.byte	0xf
 11008 5422 5103     		.2byte	0x351
 11009 5424 28540000 		.4byte	0x5428
 11010 5428 08       		.uleb128 0x8
 11011 5429 B7200000 		.4byte	0x20b7
 11012 542d 68       		.uleb128 0x68
 11013 542e C14A0000 		.4byte	.LASF1118
 11014 5432 0F       		.byte	0xf
 11015 5433 5203     		.2byte	0x352
 11016 5435 39540000 		.4byte	0x5439
 11017 5439 08       		.uleb128 0x8
 11018 543a 57200000 		.4byte	0x2057
 11019 543e 68       		.uleb128 0x68
 11020 543f 04230000 		.4byte	.LASF1119
 11021 5443 0F       		.byte	0xf
 11022 5444 5303     		.2byte	0x353
 11023 5446 4A540000 		.4byte	0x544a
 11024 544a 08       		.uleb128 0x8
 11025 544b 37200000 		.4byte	0x2037
 11026 544f 68       		.uleb128 0x68
 11027 5450 E6180000 		.4byte	.LASF1120
 11028 5454 0F       		.byte	0xf
 11029 5455 5403     		.2byte	0x354
 11030 5457 5B540000 		.4byte	0x545b
 11031 545b 08       		.uleb128 0x8
 11032 545c 37200000 		.4byte	0x2037
 11033 5460 68       		.uleb128 0x68
 11034 5461 AC190000 		.4byte	.LASF1121
ARM GAS  C:\Users\jrdia\AppData\Local\Temp\ccYHzYw6.s 			page 219


 11035 5465 0F       		.byte	0xf
 11036 5466 5503     		.2byte	0x355
 11037 5468 6C540000 		.4byte	0x546c
 11038 546c 08       		.uleb128 0x8
 11039 546d 37200000 		.4byte	0x2037
 11040 5471 68       		.uleb128 0x68
 11041 5472 E13C0000 		.4byte	.LASF1122
 11042 5476 0F       		.byte	0xf
 11043 5477 5603     		.2byte	0x356
 11044 5479 7D540000 		.4byte	0x547d
 11045 547d 08       		.uleb128 0x8
 11046 547e F7200000 		.4byte	0x20f7
 11047 5482 68       		.uleb128 0x68
 11048 5483 3E030000 		.4byte	.LASF1123
 11049 5487 0F       		.byte	0xf
 11050 5488 5703     		.2byte	0x357
 11051 548a 8E540000 		.4byte	0x548e
 11052 548e 08       		.uleb128 0x8
 11053 548f 37200000 		.4byte	0x2037
 11054 5493 68       		.uleb128 0x68
 11055 5494 FA620000 		.4byte	.LASF1124
 11056 5498 0F       		.byte	0xf
 11057 5499 5803     		.2byte	0x358
 11058 549b 9F540000 		.4byte	0x549f
 11059 549f 08       		.uleb128 0x8
 11060 54a0 37210000 		.4byte	0x2137
 11061 54a4 68       		.uleb128 0x68
 11062 54a5 8C070000 		.4byte	.LASF1125
 11063 54a9 0F       		.byte	0xf
 11064 54aa 5903     		.2byte	0x359
 11065 54ac B0540000 		.4byte	0x54b0
 11066 54b0 08       		.uleb128 0x8
 11067 54b1 37210000 		.4byte	0x2137
 11068 54b5 68       		.uleb128 0x68
 11069 54b6 E2600000 		.4byte	.LASF1126
 11070 54ba 0F       		.byte	0xf
 11071 54bb 5A03     		.2byte	0x35a
 11072 54bd C1540000 		.4byte	0x54c1
 11073 54c1 08       		.uleb128 0x8
 11074 54c2 87240000 		.4byte	0x2487
 11075 54c6 68       		.uleb128 0x68
 11076 54c7 E85C0000 		.4byte	.LASF1127
 11077 54cb 0F       		.byte	0xf
 11078 54cc 5B03     		.2byte	0x35b
 11079 54ce D2540000 		.4byte	0x54d2
 11080 54d2 08       		.uleb128 0x8
 11081 54d3 87240000 		.4byte	0x2487
 11082 54d7 68       		.uleb128 0x68
 11083 54d8 112B0000 		.4byte	.LASF1128
 11084 54dc 0F       		.byte	0xf
 11085 54dd 5C03     		.2byte	0x35c
 11086 54df E3540000 		.4byte	0x54e3
 11087 54e3 08       		.uleb128 0x8
 11088 54e4 87240000 		.4byte	0x2487
 11089 54e8 68       		.uleb128 0x68
 11090 54e9 B4220000 		.4byte	.LASF1129
 11091 54ed 0F       		.byte	0xf
ARM GAS  C:\Users\jrdia\AppData\Local\Temp\ccYHzYw6.s 			page 220


 11092 54ee 5D03     		.2byte	0x35d
 11093 54f0 F4540000 		.4byte	0x54f4
 11094 54f4 08       		.uleb128 0x8
 11095 54f5 37210000 		.4byte	0x2137
 11096 54f9 68       		.uleb128 0x68
 11097 54fa 424A0000 		.4byte	.LASF1130
 11098 54fe 0F       		.byte	0xf
 11099 54ff 5E03     		.2byte	0x35e
 11100 5501 05550000 		.4byte	0x5505
 11101 5505 08       		.uleb128 0x8
 11102 5506 37210000 		.4byte	0x2137
 11103 550a 68       		.uleb128 0x68
 11104 550b 65430000 		.4byte	.LASF1131
 11105 550f 0F       		.byte	0xf
 11106 5510 5F03     		.2byte	0x35f
 11107 5512 16550000 		.4byte	0x5516
 11108 5516 08       		.uleb128 0x8
 11109 5517 17200000 		.4byte	0x2017
 11110 551b 68       		.uleb128 0x68
 11111 551c 800C0000 		.4byte	.LASF1132
 11112 5520 0F       		.byte	0xf
 11113 5521 6003     		.2byte	0x360
 11114 5523 27550000 		.4byte	0x5527
 11115 5527 08       		.uleb128 0x8
 11116 5528 17200000 		.4byte	0x2017
 11117 552c 68       		.uleb128 0x68
 11118 552d DB0A0000 		.4byte	.LASF1133
 11119 5531 0F       		.byte	0xf
 11120 5532 6103     		.2byte	0x361
 11121 5534 38550000 		.4byte	0x5538
 11122 5538 08       		.uleb128 0x8
 11123 5539 57200000 		.4byte	0x2057
 11124 553d 68       		.uleb128 0x68
 11125 553e 0C250000 		.4byte	.LASF1134
 11126 5542 0F       		.byte	0xf
 11127 5543 6203     		.2byte	0x362
 11128 5545 49550000 		.4byte	0x5549
 11129 5549 08       		.uleb128 0x8
 11130 554a 57200000 		.4byte	0x2057
 11131 554e 68       		.uleb128 0x68
 11132 554f D65B0000 		.4byte	.LASF1135
 11133 5553 0F       		.byte	0xf
 11134 5554 6303     		.2byte	0x363
 11135 5556 5A550000 		.4byte	0x555a
 11136 555a 08       		.uleb128 0x8
 11137 555b 37210000 		.4byte	0x2137
 11138 555f 68       		.uleb128 0x68
 11139 5560 A80D0000 		.4byte	.LASF1136
 11140 5564 0F       		.byte	0xf
 11141 5565 6403     		.2byte	0x364
 11142 5567 6B550000 		.4byte	0x556b
 11143 556b 08       		.uleb128 0x8
 11144 556c 57200000 		.4byte	0x2057
 11145 5570 68       		.uleb128 0x68
 11146 5571 BA510000 		.4byte	.LASF1137
 11147 5575 0F       		.byte	0xf
 11148 5576 6503     		.2byte	0x365
ARM GAS  C:\Users\jrdia\AppData\Local\Temp\ccYHzYw6.s 			page 221


 11149 5578 7C550000 		.4byte	0x557c
 11150 557c 08       		.uleb128 0x8
 11151 557d 37210000 		.4byte	0x2137
 11152 5581 68       		.uleb128 0x68
 11153 5582 4E310000 		.4byte	.LASF1138
 11154 5586 0F       		.byte	0xf
 11155 5587 6603     		.2byte	0x366
 11156 5589 8D550000 		.4byte	0x558d
 11157 558d 08       		.uleb128 0x8
 11158 558e 87200000 		.4byte	0x2087
 11159 5592 68       		.uleb128 0x68
 11160 5593 97120000 		.4byte	.LASF1139
 11161 5597 0F       		.byte	0xf
 11162 5598 6703     		.2byte	0x367
 11163 559a 9E550000 		.4byte	0x559e
 11164 559e 08       		.uleb128 0x8
 11165 559f 77210000 		.4byte	0x2177
 11166 55a3 68       		.uleb128 0x68
 11167 55a4 90190000 		.4byte	.LASF1140
 11168 55a8 0F       		.byte	0xf
 11169 55a9 6803     		.2byte	0x368
 11170 55ab AF550000 		.4byte	0x55af
 11171 55af 08       		.uleb128 0x8
 11172 55b0 77210000 		.4byte	0x2177
 11173 55b4 68       		.uleb128 0x68
 11174 55b5 2A3A0000 		.4byte	.LASF1141
 11175 55b9 0F       		.byte	0xf
 11176 55ba 6903     		.2byte	0x369
 11177 55bc C0550000 		.4byte	0x55c0
 11178 55c0 08       		.uleb128 0x8
 11179 55c1 17200000 		.4byte	0x2017
 11180 55c5 68       		.uleb128 0x68
 11181 55c6 3F3A0000 		.4byte	.LASF1142
 11182 55ca 0F       		.byte	0xf
 11183 55cb 6A03     		.2byte	0x36a
 11184 55cd D1550000 		.4byte	0x55d1
 11185 55d1 08       		.uleb128 0x8
 11186 55d2 17200000 		.4byte	0x2017
 11187 55d6 68       		.uleb128 0x68
 11188 55d7 40040000 		.4byte	.LASF1143
 11189 55db 0F       		.byte	0xf
 11190 55dc 6B03     		.2byte	0x36b
 11191 55de E2550000 		.4byte	0x55e2
 11192 55e2 08       		.uleb128 0x8
 11193 55e3 87240000 		.4byte	0x2487
 11194 55e7 68       		.uleb128 0x68
 11195 55e8 12050000 		.4byte	.LASF1144
 11196 55ec 0F       		.byte	0xf
 11197 55ed 6C03     		.2byte	0x36c
 11198 55ef F3550000 		.4byte	0x55f3
 11199 55f3 08       		.uleb128 0x8
 11200 55f4 37210000 		.4byte	0x2137
 11201 55f8 68       		.uleb128 0x68
 11202 55f9 9D050000 		.4byte	.LASF1145
 11203 55fd 0F       		.byte	0xf
 11204 55fe 6D03     		.2byte	0x36d
 11205 5600 04560000 		.4byte	0x5604
ARM GAS  C:\Users\jrdia\AppData\Local\Temp\ccYHzYw6.s 			page 222


 11206 5604 08       		.uleb128 0x8
 11207 5605 F7200000 		.4byte	0x20f7
 11208 5609 68       		.uleb128 0x68
 11209 560a 28510000 		.4byte	.LASF1146
 11210 560e 0F       		.byte	0xf
 11211 560f 6E03     		.2byte	0x36e
 11212 5611 15560000 		.4byte	0x5615
 11213 5615 08       		.uleb128 0x8
 11214 5616 87200000 		.4byte	0x2087
 11215 561a 68       		.uleb128 0x68
 11216 561b 165F0000 		.4byte	.LASF1147
 11217 561f 0F       		.byte	0xf
 11218 5620 6F03     		.2byte	0x36f
 11219 5622 26560000 		.4byte	0x5626
 11220 5626 08       		.uleb128 0x8
 11221 5627 87240000 		.4byte	0x2487
 11222 562b 68       		.uleb128 0x68
 11223 562c 250A0000 		.4byte	.LASF1148
 11224 5630 0F       		.byte	0xf
 11225 5631 7003     		.2byte	0x370
 11226 5633 37560000 		.4byte	0x5637
 11227 5637 08       		.uleb128 0x8
 11228 5638 37200000 		.4byte	0x2037
 11229 563c 68       		.uleb128 0x68
 11230 563d BC180000 		.4byte	.LASF1149
 11231 5641 0F       		.byte	0xf
 11232 5642 7103     		.2byte	0x371
 11233 5644 48560000 		.4byte	0x5648
 11234 5648 08       		.uleb128 0x8
 11235 5649 37200000 		.4byte	0x2037
 11236 564d 68       		.uleb128 0x68
 11237 564e 57450000 		.4byte	.LASF1150
 11238 5652 0F       		.byte	0xf
 11239 5653 7203     		.2byte	0x372
 11240 5655 59560000 		.4byte	0x5659
 11241 5659 08       		.uleb128 0x8
 11242 565a 87240000 		.4byte	0x2487
 11243 565e 68       		.uleb128 0x68
 11244 565f 2A470000 		.4byte	.LASF1151
 11245 5663 0F       		.byte	0xf
 11246 5664 7303     		.2byte	0x373
 11247 5666 6A560000 		.4byte	0x566a
 11248 566a 08       		.uleb128 0x8
 11249 566b 87240000 		.4byte	0x2487
 11250 566f 68       		.uleb128 0x68
 11251 5670 70450000 		.4byte	.LASF1152
 11252 5674 0F       		.byte	0xf
 11253 5675 7403     		.2byte	0x374
 11254 5677 7B560000 		.4byte	0x567b
 11255 567b 08       		.uleb128 0x8
 11256 567c 87240000 		.4byte	0x2487
 11257 5680 68       		.uleb128 0x68
 11258 5681 43470000 		.4byte	.LASF1153
 11259 5685 0F       		.byte	0xf
 11260 5686 7503     		.2byte	0x375
 11261 5688 8C560000 		.4byte	0x568c
 11262 568c 08       		.uleb128 0x8
ARM GAS  C:\Users\jrdia\AppData\Local\Temp\ccYHzYw6.s 			page 223


 11263 568d 87240000 		.4byte	0x2487
 11264 5691 68       		.uleb128 0x68
 11265 5692 EB590000 		.4byte	.LASF1154
 11266 5696 0F       		.byte	0xf
 11267 5697 7603     		.2byte	0x376
 11268 5699 9D560000 		.4byte	0x569d
 11269 569d 08       		.uleb128 0x8
 11270 569e 37210000 		.4byte	0x2137
 11271 56a2 68       		.uleb128 0x68
 11272 56a3 18030000 		.4byte	.LASF1155
 11273 56a7 0F       		.byte	0xf
 11274 56a8 7703     		.2byte	0x377
 11275 56aa AE560000 		.4byte	0x56ae
 11276 56ae 08       		.uleb128 0x8
 11277 56af 37200000 		.4byte	0x2037
 11278 56b3 68       		.uleb128 0x68
 11279 56b4 6F000000 		.4byte	.LASF1156
 11280 56b8 0F       		.byte	0xf
 11281 56b9 7803     		.2byte	0x378
 11282 56bb BF560000 		.4byte	0x56bf
 11283 56bf 08       		.uleb128 0x8
 11284 56c0 57200000 		.4byte	0x2057
 11285 56c4 68       		.uleb128 0x68
 11286 56c5 A33A0000 		.4byte	.LASF1157
 11287 56c9 0F       		.byte	0xf
 11288 56ca 7903     		.2byte	0x379
 11289 56cc D0560000 		.4byte	0x56d0
 11290 56d0 08       		.uleb128 0x8
 11291 56d1 87200000 		.4byte	0x2087
 11292 56d5 68       		.uleb128 0x68
 11293 56d6 30390000 		.4byte	.LASF1158
 11294 56da 0F       		.byte	0xf
 11295 56db 7A03     		.2byte	0x37a
 11296 56dd E1560000 		.4byte	0x56e1
 11297 56e1 08       		.uleb128 0x8
 11298 56e2 87200000 		.4byte	0x2087
 11299 56e6 68       		.uleb128 0x68
 11300 56e7 6E5A0000 		.4byte	.LASF1159
 11301 56eb 0F       		.byte	0xf
 11302 56ec 7B03     		.2byte	0x37b
 11303 56ee F2560000 		.4byte	0x56f2
 11304 56f2 08       		.uleb128 0x8
 11305 56f3 87200000 		.4byte	0x2087
 11306 56f7 68       		.uleb128 0x68
 11307 56f8 21400000 		.4byte	.LASF1160
 11308 56fc 0F       		.byte	0xf
 11309 56fd 7C03     		.2byte	0x37c
 11310 56ff 03570000 		.4byte	0x5703
 11311 5703 08       		.uleb128 0x8
 11312 5704 87240000 		.4byte	0x2487
 11313 5708 68       		.uleb128 0x68
 11314 5709 FB300000 		.4byte	.LASF1161
 11315 570d 0F       		.byte	0xf
 11316 570e 7F03     		.2byte	0x37f
 11317 5710 14570000 		.4byte	0x5714
 11318 5714 08       		.uleb128 0x8
 11319 5715 87240000 		.4byte	0x2487
ARM GAS  C:\Users\jrdia\AppData\Local\Temp\ccYHzYw6.s 			page 224


 11320 5719 68       		.uleb128 0x68
 11321 571a 704B0000 		.4byte	.LASF1162
 11322 571e 0F       		.byte	0xf
 11323 571f 8003     		.2byte	0x380
 11324 5721 25570000 		.4byte	0x5725
 11325 5725 08       		.uleb128 0x8
 11326 5726 F7200000 		.4byte	0x20f7
 11327 572a 68       		.uleb128 0x68
 11328 572b 012E0000 		.4byte	.LASF1163
 11329 572f 0F       		.byte	0xf
 11330 5730 8103     		.2byte	0x381
 11331 5732 36570000 		.4byte	0x5736
 11332 5736 08       		.uleb128 0x8
 11333 5737 D7200000 		.4byte	0x20d7
 11334 573b 68       		.uleb128 0x68
 11335 573c 26360000 		.4byte	.LASF1164
 11336 5740 0F       		.byte	0xf
 11337 5741 8203     		.2byte	0x382
 11338 5743 47570000 		.4byte	0x5747
 11339 5747 08       		.uleb128 0x8
 11340 5748 17200000 		.4byte	0x2017
 11341 574c 68       		.uleb128 0x68
 11342 574d 26540000 		.4byte	.LASF1165
 11343 5751 0F       		.byte	0xf
 11344 5752 8303     		.2byte	0x383
 11345 5754 58570000 		.4byte	0x5758
 11346 5758 08       		.uleb128 0x8
 11347 5759 D7200000 		.4byte	0x20d7
 11348 575d 68       		.uleb128 0x68
 11349 575e 4C220000 		.4byte	.LASF1166
 11350 5762 0F       		.byte	0xf
 11351 5763 8403     		.2byte	0x384
 11352 5765 69570000 		.4byte	0x5769
 11353 5769 08       		.uleb128 0x8
 11354 576a B7200000 		.4byte	0x20b7
 11355 576e 68       		.uleb128 0x68
 11356 576f 61360000 		.4byte	.LASF1167
 11357 5773 0F       		.byte	0xf
 11358 5774 8503     		.2byte	0x385
 11359 5776 7A570000 		.4byte	0x577a
 11360 577a 08       		.uleb128 0x8
 11361 577b B7200000 		.4byte	0x20b7
 11362 577f 68       		.uleb128 0x68
 11363 5780 A31C0000 		.4byte	.LASF1168
 11364 5784 0F       		.byte	0xf
 11365 5785 8603     		.2byte	0x386
 11366 5787 8B570000 		.4byte	0x578b
 11367 578b 08       		.uleb128 0x8
 11368 578c D71F0000 		.4byte	0x1fd7
 11369 5790 68       		.uleb128 0x68
 11370 5791 321E0000 		.4byte	.LASF1169
 11371 5795 0F       		.byte	0xf
 11372 5796 8703     		.2byte	0x387
 11373 5798 9C570000 		.4byte	0x579c
 11374 579c 08       		.uleb128 0x8
 11375 579d 37200000 		.4byte	0x2037
 11376 57a1 68       		.uleb128 0x68
ARM GAS  C:\Users\jrdia\AppData\Local\Temp\ccYHzYw6.s 			page 225


 11377 57a2 1C470000 		.4byte	.LASF1170
 11378 57a6 0F       		.byte	0xf
 11379 57a7 8803     		.2byte	0x388
 11380 57a9 AD570000 		.4byte	0x57ad
 11381 57ad 08       		.uleb128 0x8
 11382 57ae B7200000 		.4byte	0x20b7
 11383 57b2 68       		.uleb128 0x68
 11384 57b3 53120000 		.4byte	.LASF1171
 11385 57b7 0F       		.byte	0xf
 11386 57b8 8903     		.2byte	0x389
 11387 57ba BE570000 		.4byte	0x57be
 11388 57be 08       		.uleb128 0x8
 11389 57bf 37210000 		.4byte	0x2137
 11390 57c3 68       		.uleb128 0x68
 11391 57c4 8D170000 		.4byte	.LASF1172
 11392 57c8 0F       		.byte	0xf
 11393 57c9 8B03     		.2byte	0x38b
 11394 57cb CF570000 		.4byte	0x57cf
 11395 57cf 08       		.uleb128 0x8
 11396 57d0 D71F0000 		.4byte	0x1fd7
 11397 57d4 68       		.uleb128 0x68
 11398 57d5 4B010000 		.4byte	.LASF1173
 11399 57d9 0F       		.byte	0xf
 11400 57da 8C03     		.2byte	0x38c
 11401 57dc E0570000 		.4byte	0x57e0
 11402 57e0 08       		.uleb128 0x8
 11403 57e1 D71F0000 		.4byte	0x1fd7
 11404 57e5 68       		.uleb128 0x68
 11405 57e6 240D0000 		.4byte	.LASF1174
 11406 57ea 0F       		.byte	0xf
 11407 57eb 8D03     		.2byte	0x38d
 11408 57ed F1570000 		.4byte	0x57f1
 11409 57f1 08       		.uleb128 0x8
 11410 57f2 87240000 		.4byte	0x2487
 11411 57f6 68       		.uleb128 0x68
 11412 57f7 AA3F0000 		.4byte	.LASF1175
 11413 57fb 0F       		.byte	0xf
 11414 57fc 8E03     		.2byte	0x38e
 11415 57fe 02580000 		.4byte	0x5802
 11416 5802 08       		.uleb128 0x8
 11417 5803 87240000 		.4byte	0x2487
 11418 5807 68       		.uleb128 0x68
 11419 5808 A1210000 		.4byte	.LASF1176
 11420 580c 0F       		.byte	0xf
 11421 580d 8F03     		.2byte	0x38f
 11422 580f 13580000 		.4byte	0x5813
 11423 5813 08       		.uleb128 0x8
 11424 5814 77210000 		.4byte	0x2177
 11425 5818 68       		.uleb128 0x68
 11426 5819 353E0000 		.4byte	.LASF1177
 11427 581d 0F       		.byte	0xf
 11428 581e 9003     		.2byte	0x390
 11429 5820 24580000 		.4byte	0x5824
 11430 5824 08       		.uleb128 0x8
 11431 5825 37200000 		.4byte	0x2037
 11432 5829 68       		.uleb128 0x68
 11433 582a F00C0000 		.4byte	.LASF1178
ARM GAS  C:\Users\jrdia\AppData\Local\Temp\ccYHzYw6.s 			page 226


 11434 582e 0F       		.byte	0xf
 11435 582f 9103     		.2byte	0x391
 11436 5831 35580000 		.4byte	0x5835
 11437 5835 08       		.uleb128 0x8
 11438 5836 37200000 		.4byte	0x2037
 11439 583a 68       		.uleb128 0x68
 11440 583b 9E2D0000 		.4byte	.LASF1179
 11441 583f 0F       		.byte	0xf
 11442 5840 9203     		.2byte	0x392
 11443 5842 46580000 		.4byte	0x5846
 11444 5846 08       		.uleb128 0x8
 11445 5847 F71F0000 		.4byte	0x1ff7
 11446 584b 68       		.uleb128 0x68
 11447 584c 7A050000 		.4byte	.LASF1180
 11448 5850 0F       		.byte	0xf
 11449 5851 9303     		.2byte	0x393
 11450 5853 57580000 		.4byte	0x5857
 11451 5857 08       		.uleb128 0x8
 11452 5858 F71F0000 		.4byte	0x1ff7
 11453 585c 68       		.uleb128 0x68
 11454 585d A05E0000 		.4byte	.LASF1181
 11455 5861 0F       		.byte	0xf
 11456 5862 9403     		.2byte	0x394
 11457 5864 68580000 		.4byte	0x5868
 11458 5868 08       		.uleb128 0x8
 11459 5869 97280000 		.4byte	0x2897
 11460 586d 68       		.uleb128 0x68
 11461 586e 8C380000 		.4byte	.LASF1182
 11462 5872 0F       		.byte	0xf
 11463 5873 9503     		.2byte	0x395
 11464 5875 79580000 		.4byte	0x5879
 11465 5879 08       		.uleb128 0x8
 11466 587a 97280000 		.4byte	0x2897
 11467 587e 68       		.uleb128 0x68
 11468 587f 5F420000 		.4byte	.LASF1183
 11469 5883 0F       		.byte	0xf
 11470 5884 9603     		.2byte	0x396
 11471 5886 8A580000 		.4byte	0x588a
 11472 588a 08       		.uleb128 0x8
 11473 588b B7220000 		.4byte	0x22b7
 11474 588f 68       		.uleb128 0x68
 11475 5890 5A220000 		.4byte	.LASF1184
 11476 5894 0F       		.byte	0xf
 11477 5895 9703     		.2byte	0x397
 11478 5897 9B580000 		.4byte	0x589b
 11479 589b 08       		.uleb128 0x8
 11480 589c B7220000 		.4byte	0x22b7
 11481 58a0 68       		.uleb128 0x68
 11482 58a1 AC080000 		.4byte	.LASF1185
 11483 58a5 0F       		.byte	0xf
 11484 58a6 9803     		.2byte	0x398
 11485 58a8 AC580000 		.4byte	0x58ac
 11486 58ac 08       		.uleb128 0x8
 11487 58ad 57200000 		.4byte	0x2057
 11488 58b1 68       		.uleb128 0x68
 11489 58b2 F11A0000 		.4byte	.LASF1186
 11490 58b6 0F       		.byte	0xf
ARM GAS  C:\Users\jrdia\AppData\Local\Temp\ccYHzYw6.s 			page 227


 11491 58b7 9903     		.2byte	0x399
 11492 58b9 BD580000 		.4byte	0x58bd
 11493 58bd 08       		.uleb128 0x8
 11494 58be 57200000 		.4byte	0x2057
 11495 58c2 68       		.uleb128 0x68
 11496 58c3 E7120000 		.4byte	.LASF1187
 11497 58c7 0F       		.byte	0xf
 11498 58c8 9A03     		.2byte	0x39a
 11499 58ca CE580000 		.4byte	0x58ce
 11500 58ce 08       		.uleb128 0x8
 11501 58cf 87200000 		.4byte	0x2087
 11502 58d3 68       		.uleb128 0x68
 11503 58d4 D8240000 		.4byte	.LASF1188
 11504 58d8 0F       		.byte	0xf
 11505 58d9 9B03     		.2byte	0x39b
 11506 58db DF580000 		.4byte	0x58df
 11507 58df 08       		.uleb128 0x8
 11508 58e0 87200000 		.4byte	0x2087
 11509 58e4 69       		.uleb128 0x69
 11510 58e5 EF5F0000 		.4byte	.LASF1199
 11511 58e9 EF5F0000 		.4byte	.LASF1199
 11512 58ed 11       		.byte	0x11
 11513 58ee 8A       		.byte	0x8a
 11514 58ef 00       		.byte	0
 11515              		.section	.debug_abbrev,"",%progbits
 11516              	.Ldebug_abbrev0:
 11517 0000 01       		.uleb128 0x1
 11518 0001 11       		.uleb128 0x11
 11519 0002 01       		.byte	0x1
 11520 0003 25       		.uleb128 0x25
 11521 0004 0E       		.uleb128 0xe
 11522 0005 13       		.uleb128 0x13
 11523 0006 0B       		.uleb128 0xb
 11524 0007 03       		.uleb128 0x3
 11525 0008 0E       		.uleb128 0xe
 11526 0009 1B       		.uleb128 0x1b
 11527 000a 0E       		.uleb128 0xe
 11528 000b 55       		.uleb128 0x55
 11529 000c 17       		.uleb128 0x17
 11530 000d 11       		.uleb128 0x11
 11531 000e 01       		.uleb128 0x1
 11532 000f 10       		.uleb128 0x10
 11533 0010 17       		.uleb128 0x17
 11534 0011 00       		.byte	0
 11535 0012 00       		.byte	0
 11536 0013 02       		.uleb128 0x2
 11537 0014 16       		.uleb128 0x16
 11538 0015 00       		.byte	0
 11539 0016 03       		.uleb128 0x3
 11540 0017 0E       		.uleb128 0xe
 11541 0018 3A       		.uleb128 0x3a
 11542 0019 0B       		.uleb128 0xb
 11543 001a 3B       		.uleb128 0x3b
 11544 001b 0B       		.uleb128 0xb
 11545 001c 49       		.uleb128 0x49
 11546 001d 13       		.uleb128 0x13
 11547 001e 00       		.byte	0
ARM GAS  C:\Users\jrdia\AppData\Local\Temp\ccYHzYw6.s 			page 228


 11548 001f 00       		.byte	0
 11549 0020 03       		.uleb128 0x3
 11550 0021 24       		.uleb128 0x24
 11551 0022 00       		.byte	0
 11552 0023 0B       		.uleb128 0xb
 11553 0024 0B       		.uleb128 0xb
 11554 0025 3E       		.uleb128 0x3e
 11555 0026 0B       		.uleb128 0xb
 11556 0027 03       		.uleb128 0x3
 11557 0028 0E       		.uleb128 0xe
 11558 0029 00       		.byte	0
 11559 002a 00       		.byte	0
 11560 002b 04       		.uleb128 0x4
 11561 002c 24       		.uleb128 0x24
 11562 002d 00       		.byte	0
 11563 002e 0B       		.uleb128 0xb
 11564 002f 0B       		.uleb128 0xb
 11565 0030 3E       		.uleb128 0x3e
 11566 0031 0B       		.uleb128 0xb
 11567 0032 03       		.uleb128 0x3
 11568 0033 08       		.uleb128 0x8
 11569 0034 00       		.byte	0
 11570 0035 00       		.byte	0
 11571 0036 05       		.uleb128 0x5
 11572 0037 0F       		.uleb128 0xf
 11573 0038 00       		.byte	0
 11574 0039 0B       		.uleb128 0xb
 11575 003a 0B       		.uleb128 0xb
 11576 003b 00       		.byte	0
 11577 003c 00       		.byte	0
 11578 003d 06       		.uleb128 0x6
 11579 003e 0F       		.uleb128 0xf
 11580 003f 00       		.byte	0
 11581 0040 0B       		.uleb128 0xb
 11582 0041 0B       		.uleb128 0xb
 11583 0042 49       		.uleb128 0x49
 11584 0043 13       		.uleb128 0x13
 11585 0044 00       		.byte	0
 11586 0045 00       		.byte	0
 11587 0046 07       		.uleb128 0x7
 11588 0047 15       		.uleb128 0x15
 11589 0048 00       		.byte	0
 11590 0049 00       		.byte	0
 11591 004a 00       		.byte	0
 11592 004b 08       		.uleb128 0x8
 11593 004c 26       		.uleb128 0x26
 11594 004d 00       		.byte	0
 11595 004e 49       		.uleb128 0x49
 11596 004f 13       		.uleb128 0x13
 11597 0050 00       		.byte	0
 11598 0051 00       		.byte	0
 11599 0052 09       		.uleb128 0x9
 11600 0053 04       		.uleb128 0x4
 11601 0054 01       		.byte	0x1
 11602 0055 03       		.uleb128 0x3
 11603 0056 0E       		.uleb128 0xe
 11604 0057 0B       		.uleb128 0xb
ARM GAS  C:\Users\jrdia\AppData\Local\Temp\ccYHzYw6.s 			page 229


 11605 0058 0B       		.uleb128 0xb
 11606 0059 49       		.uleb128 0x49
 11607 005a 13       		.uleb128 0x13
 11608 005b 3A       		.uleb128 0x3a
 11609 005c 0B       		.uleb128 0xb
 11610 005d 3B       		.uleb128 0x3b
 11611 005e 0B       		.uleb128 0xb
 11612 005f 01       		.uleb128 0x1
 11613 0060 13       		.uleb128 0x13
 11614 0061 00       		.byte	0
 11615 0062 00       		.byte	0
 11616 0063 0A       		.uleb128 0xa
 11617 0064 28       		.uleb128 0x28
 11618 0065 00       		.byte	0
 11619 0066 03       		.uleb128 0x3
 11620 0067 0E       		.uleb128 0xe
 11621 0068 1C       		.uleb128 0x1c
 11622 0069 0B       		.uleb128 0xb
 11623 006a 00       		.byte	0
 11624 006b 00       		.byte	0
 11625 006c 0B       		.uleb128 0xb
 11626 006d 13       		.uleb128 0x13
 11627 006e 01       		.byte	0x1
 11628 006f 03       		.uleb128 0x3
 11629 0070 0E       		.uleb128 0xe
 11630 0071 0B       		.uleb128 0xb
 11631 0072 0B       		.uleb128 0xb
 11632 0073 3A       		.uleb128 0x3a
 11633 0074 0B       		.uleb128 0xb
 11634 0075 3B       		.uleb128 0x3b
 11635 0076 0B       		.uleb128 0xb
 11636 0077 01       		.uleb128 0x1
 11637 0078 13       		.uleb128 0x13
 11638 0079 00       		.byte	0
 11639 007a 00       		.byte	0
 11640 007b 0C       		.uleb128 0xc
 11641 007c 17       		.uleb128 0x17
 11642 007d 01       		.byte	0x1
 11643 007e 0B       		.uleb128 0xb
 11644 007f 0B       		.uleb128 0xb
 11645 0080 3A       		.uleb128 0x3a
 11646 0081 0B       		.uleb128 0xb
 11647 0082 3B       		.uleb128 0x3b
 11648 0083 0B       		.uleb128 0xb
 11649 0084 01       		.uleb128 0x1
 11650 0085 13       		.uleb128 0x13
 11651 0086 00       		.byte	0
 11652 0087 00       		.byte	0
 11653 0088 0D       		.uleb128 0xd
 11654 0089 13       		.uleb128 0x13
 11655 008a 01       		.byte	0x1
 11656 008b 0B       		.uleb128 0xb
 11657 008c 0B       		.uleb128 0xb
 11658 008d 3A       		.uleb128 0x3a
 11659 008e 0B       		.uleb128 0xb
 11660 008f 3B       		.uleb128 0x3b
 11661 0090 0B       		.uleb128 0xb
ARM GAS  C:\Users\jrdia\AppData\Local\Temp\ccYHzYw6.s 			page 230


 11662 0091 01       		.uleb128 0x1
 11663 0092 13       		.uleb128 0x13
 11664 0093 00       		.byte	0
 11665 0094 00       		.byte	0
 11666 0095 0E       		.uleb128 0xe
 11667 0096 0D       		.uleb128 0xd
 11668 0097 00       		.byte	0
 11669 0098 03       		.uleb128 0x3
 11670 0099 0E       		.uleb128 0xe
 11671 009a 3A       		.uleb128 0x3a
 11672 009b 0B       		.uleb128 0xb
 11673 009c 3B       		.uleb128 0x3b
 11674 009d 0B       		.uleb128 0xb
 11675 009e 49       		.uleb128 0x49
 11676 009f 13       		.uleb128 0x13
 11677 00a0 0B       		.uleb128 0xb
 11678 00a1 0B       		.uleb128 0xb
 11679 00a2 0D       		.uleb128 0xd
 11680 00a3 0B       		.uleb128 0xb
 11681 00a4 0C       		.uleb128 0xc
 11682 00a5 0B       		.uleb128 0xb
 11683 00a6 38       		.uleb128 0x38
 11684 00a7 0B       		.uleb128 0xb
 11685 00a8 00       		.byte	0
 11686 00a9 00       		.byte	0
 11687 00aa 0F       		.uleb128 0xf
 11688 00ab 0D       		.uleb128 0xd
 11689 00ac 00       		.byte	0
 11690 00ad 03       		.uleb128 0x3
 11691 00ae 0E       		.uleb128 0xe
 11692 00af 3A       		.uleb128 0x3a
 11693 00b0 0B       		.uleb128 0xb
 11694 00b1 3B       		.uleb128 0x3b
 11695 00b2 0B       		.uleb128 0xb
 11696 00b3 49       		.uleb128 0x49
 11697 00b4 13       		.uleb128 0x13
 11698 00b5 00       		.byte	0
 11699 00b6 00       		.byte	0
 11700 00b7 10       		.uleb128 0x10
 11701 00b8 0D       		.uleb128 0xd
 11702 00b9 00       		.byte	0
 11703 00ba 49       		.uleb128 0x49
 11704 00bb 13       		.uleb128 0x13
 11705 00bc 00       		.byte	0
 11706 00bd 00       		.byte	0
 11707 00be 11       		.uleb128 0x11
 11708 00bf 0D       		.uleb128 0xd
 11709 00c0 00       		.byte	0
 11710 00c1 03       		.uleb128 0x3
 11711 00c2 0E       		.uleb128 0xe
 11712 00c3 3A       		.uleb128 0x3a
 11713 00c4 0B       		.uleb128 0xb
 11714 00c5 3B       		.uleb128 0x3b
 11715 00c6 0B       		.uleb128 0xb
 11716 00c7 49       		.uleb128 0x49
 11717 00c8 13       		.uleb128 0x13
 11718 00c9 38       		.uleb128 0x38
ARM GAS  C:\Users\jrdia\AppData\Local\Temp\ccYHzYw6.s 			page 231


 11719 00ca 0B       		.uleb128 0xb
 11720 00cb 00       		.byte	0
 11721 00cc 00       		.byte	0
 11722 00cd 12       		.uleb128 0x12
 11723 00ce 0D       		.uleb128 0xd
 11724 00cf 00       		.byte	0
 11725 00d0 49       		.uleb128 0x49
 11726 00d1 13       		.uleb128 0x13
 11727 00d2 38       		.uleb128 0x38
 11728 00d3 0B       		.uleb128 0xb
 11729 00d4 00       		.byte	0
 11730 00d5 00       		.byte	0
 11731 00d6 13       		.uleb128 0x13
 11732 00d7 15       		.uleb128 0x15
 11733 00d8 01       		.byte	0x1
 11734 00d9 01       		.uleb128 0x1
 11735 00da 13       		.uleb128 0x13
 11736 00db 00       		.byte	0
 11737 00dc 00       		.byte	0
 11738 00dd 14       		.uleb128 0x14
 11739 00de 05       		.uleb128 0x5
 11740 00df 00       		.byte	0
 11741 00e0 49       		.uleb128 0x49
 11742 00e1 13       		.uleb128 0x13
 11743 00e2 00       		.byte	0
 11744 00e3 00       		.byte	0
 11745 00e4 15       		.uleb128 0x15
 11746 00e5 02       		.uleb128 0x2
 11747 00e6 00       		.byte	0
 11748 00e7 03       		.uleb128 0x3
 11749 00e8 0E       		.uleb128 0xe
 11750 00e9 3C       		.uleb128 0x3c
 11751 00ea 19       		.uleb128 0x19
 11752 00eb 00       		.byte	0
 11753 00ec 00       		.byte	0
 11754 00ed 16       		.uleb128 0x16
 11755 00ee 13       		.uleb128 0x13
 11756 00ef 01       		.byte	0x1
 11757 00f0 0B       		.uleb128 0xb
 11758 00f1 0B       		.uleb128 0xb
 11759 00f2 3A       		.uleb128 0x3a
 11760 00f3 0B       		.uleb128 0xb
 11761 00f4 3B       		.uleb128 0x3b
 11762 00f5 0B       		.uleb128 0xb
 11763 00f6 6E       		.uleb128 0x6e
 11764 00f7 0E       		.uleb128 0xe
 11765 00f8 01       		.uleb128 0x1
 11766 00f9 13       		.uleb128 0x13
 11767 00fa 00       		.byte	0
 11768 00fb 00       		.byte	0
 11769 00fc 17       		.uleb128 0x17
 11770 00fd 04       		.uleb128 0x4
 11771 00fe 01       		.byte	0x1
 11772 00ff 0B       		.uleb128 0xb
 11773 0100 0B       		.uleb128 0xb
 11774 0101 49       		.uleb128 0x49
 11775 0102 13       		.uleb128 0x13
ARM GAS  C:\Users\jrdia\AppData\Local\Temp\ccYHzYw6.s 			page 232


 11776 0103 3A       		.uleb128 0x3a
 11777 0104 0B       		.uleb128 0xb
 11778 0105 3B       		.uleb128 0x3b
 11779 0106 0B       		.uleb128 0xb
 11780 0107 6E       		.uleb128 0x6e
 11781 0108 0E       		.uleb128 0xe
 11782 0109 01       		.uleb128 0x1
 11783 010a 13       		.uleb128 0x13
 11784 010b 00       		.byte	0
 11785 010c 00       		.byte	0
 11786 010d 18       		.uleb128 0x18
 11787 010e 02       		.uleb128 0x2
 11788 010f 01       		.byte	0x1
 11789 0110 03       		.uleb128 0x3
 11790 0111 0E       		.uleb128 0xe
 11791 0112 0B       		.uleb128 0xb
 11792 0113 0B       		.uleb128 0xb
 11793 0114 3A       		.uleb128 0x3a
 11794 0115 0B       		.uleb128 0xb
 11795 0116 3B       		.uleb128 0x3b
 11796 0117 0B       		.uleb128 0xb
 11797 0118 01       		.uleb128 0x1
 11798 0119 13       		.uleb128 0x13
 11799 011a 00       		.byte	0
 11800 011b 00       		.byte	0
 11801 011c 19       		.uleb128 0x19
 11802 011d 0D       		.uleb128 0xd
 11803 011e 00       		.byte	0
 11804 011f 03       		.uleb128 0x3
 11805 0120 0E       		.uleb128 0xe
 11806 0121 3A       		.uleb128 0x3a
 11807 0122 0B       		.uleb128 0xb
 11808 0123 3B       		.uleb128 0x3b
 11809 0124 0B       		.uleb128 0xb
 11810 0125 49       		.uleb128 0x49
 11811 0126 13       		.uleb128 0x13
 11812 0127 3F       		.uleb128 0x3f
 11813 0128 19       		.uleb128 0x19
 11814 0129 3C       		.uleb128 0x3c
 11815 012a 19       		.uleb128 0x19
 11816 012b 00       		.byte	0
 11817 012c 00       		.byte	0
 11818 012d 1A       		.uleb128 0x1a
 11819 012e 2E       		.uleb128 0x2e
 11820 012f 01       		.byte	0x1
 11821 0130 3F       		.uleb128 0x3f
 11822 0131 19       		.uleb128 0x19
 11823 0132 03       		.uleb128 0x3
 11824 0133 0E       		.uleb128 0xe
 11825 0134 3A       		.uleb128 0x3a
 11826 0135 0B       		.uleb128 0xb
 11827 0136 3B       		.uleb128 0x3b
 11828 0137 0B       		.uleb128 0xb
 11829 0138 6E       		.uleb128 0x6e
 11830 0139 0E       		.uleb128 0xe
 11831 013a 49       		.uleb128 0x49
 11832 013b 13       		.uleb128 0x13
ARM GAS  C:\Users\jrdia\AppData\Local\Temp\ccYHzYw6.s 			page 233


 11833 013c 32       		.uleb128 0x32
 11834 013d 0B       		.uleb128 0xb
 11835 013e 3C       		.uleb128 0x3c
 11836 013f 19       		.uleb128 0x19
 11837 0140 64       		.uleb128 0x64
 11838 0141 13       		.uleb128 0x13
 11839 0142 01       		.uleb128 0x1
 11840 0143 13       		.uleb128 0x13
 11841 0144 00       		.byte	0
 11842 0145 00       		.byte	0
 11843 0146 1B       		.uleb128 0x1b
 11844 0147 05       		.uleb128 0x5
 11845 0148 00       		.byte	0
 11846 0149 49       		.uleb128 0x49
 11847 014a 13       		.uleb128 0x13
 11848 014b 34       		.uleb128 0x34
 11849 014c 19       		.uleb128 0x19
 11850 014d 00       		.byte	0
 11851 014e 00       		.byte	0
 11852 014f 1C       		.uleb128 0x1c
 11853 0150 2E       		.uleb128 0x2e
 11854 0151 01       		.byte	0x1
 11855 0152 3F       		.uleb128 0x3f
 11856 0153 19       		.uleb128 0x19
 11857 0154 03       		.uleb128 0x3
 11858 0155 0E       		.uleb128 0xe
 11859 0156 3A       		.uleb128 0x3a
 11860 0157 0B       		.uleb128 0xb
 11861 0158 3B       		.uleb128 0x3b
 11862 0159 0B       		.uleb128 0xb
 11863 015a 6E       		.uleb128 0x6e
 11864 015b 0E       		.uleb128 0xe
 11865 015c 32       		.uleb128 0x32
 11866 015d 0B       		.uleb128 0xb
 11867 015e 3C       		.uleb128 0x3c
 11868 015f 19       		.uleb128 0x19
 11869 0160 64       		.uleb128 0x64
 11870 0161 13       		.uleb128 0x13
 11871 0162 01       		.uleb128 0x1
 11872 0163 13       		.uleb128 0x13
 11873 0164 00       		.byte	0
 11874 0165 00       		.byte	0
 11875 0166 1D       		.uleb128 0x1d
 11876 0167 2E       		.uleb128 0x2e
 11877 0168 01       		.byte	0x1
 11878 0169 3F       		.uleb128 0x3f
 11879 016a 19       		.uleb128 0x19
 11880 016b 03       		.uleb128 0x3
 11881 016c 0E       		.uleb128 0xe
 11882 016d 3A       		.uleb128 0x3a
 11883 016e 0B       		.uleb128 0xb
 11884 016f 3B       		.uleb128 0x3b
 11885 0170 05       		.uleb128 0x5
 11886 0171 6E       		.uleb128 0x6e
 11887 0172 0E       		.uleb128 0xe
 11888 0173 32       		.uleb128 0x32
 11889 0174 0B       		.uleb128 0xb
ARM GAS  C:\Users\jrdia\AppData\Local\Temp\ccYHzYw6.s 			page 234


 11890 0175 3C       		.uleb128 0x3c
 11891 0176 19       		.uleb128 0x19
 11892 0177 64       		.uleb128 0x64
 11893 0178 13       		.uleb128 0x13
 11894 0179 01       		.uleb128 0x1
 11895 017a 13       		.uleb128 0x13
 11896 017b 00       		.byte	0
 11897 017c 00       		.byte	0
 11898 017d 1E       		.uleb128 0x1e
 11899 017e 2E       		.uleb128 0x2e
 11900 017f 01       		.byte	0x1
 11901 0180 3F       		.uleb128 0x3f
 11902 0181 19       		.uleb128 0x19
 11903 0182 03       		.uleb128 0x3
 11904 0183 0E       		.uleb128 0xe
 11905 0184 3A       		.uleb128 0x3a
 11906 0185 0B       		.uleb128 0xb
 11907 0186 3B       		.uleb128 0x3b
 11908 0187 05       		.uleb128 0x5
 11909 0188 6E       		.uleb128 0x6e
 11910 0189 0E       		.uleb128 0xe
 11911 018a 49       		.uleb128 0x49
 11912 018b 13       		.uleb128 0x13
 11913 018c 32       		.uleb128 0x32
 11914 018d 0B       		.uleb128 0xb
 11915 018e 3C       		.uleb128 0x3c
 11916 018f 19       		.uleb128 0x19
 11917 0190 64       		.uleb128 0x64
 11918 0191 13       		.uleb128 0x13
 11919 0192 01       		.uleb128 0x1
 11920 0193 13       		.uleb128 0x13
 11921 0194 00       		.byte	0
 11922 0195 00       		.byte	0
 11923 0196 1F       		.uleb128 0x1f
 11924 0197 2F       		.uleb128 0x2f
 11925 0198 00       		.byte	0
 11926 0199 03       		.uleb128 0x3
 11927 019a 0E       		.uleb128 0xe
 11928 019b 49       		.uleb128 0x49
 11929 019c 13       		.uleb128 0x13
 11930 019d 00       		.byte	0
 11931 019e 00       		.byte	0
 11932 019f 20       		.uleb128 0x20
 11933 01a0 02       		.uleb128 0x2
 11934 01a1 01       		.byte	0x1
 11935 01a2 03       		.uleb128 0x3
 11936 01a3 08       		.uleb128 0x8
 11937 01a4 0B       		.uleb128 0xb
 11938 01a5 0B       		.uleb128 0xb
 11939 01a6 3A       		.uleb128 0x3a
 11940 01a7 0B       		.uleb128 0xb
 11941 01a8 3B       		.uleb128 0x3b
 11942 01a9 0B       		.uleb128 0xb
 11943 01aa 01       		.uleb128 0x1
 11944 01ab 13       		.uleb128 0x13
 11945 01ac 00       		.byte	0
 11946 01ad 00       		.byte	0
ARM GAS  C:\Users\jrdia\AppData\Local\Temp\ccYHzYw6.s 			page 235


 11947 01ae 21       		.uleb128 0x21
 11948 01af 1C       		.uleb128 0x1c
 11949 01b0 00       		.byte	0
 11950 01b1 49       		.uleb128 0x49
 11951 01b2 13       		.uleb128 0x13
 11952 01b3 38       		.uleb128 0x38
 11953 01b4 0B       		.uleb128 0xb
 11954 01b5 32       		.uleb128 0x32
 11955 01b6 0B       		.uleb128 0xb
 11956 01b7 00       		.byte	0
 11957 01b8 00       		.byte	0
 11958 01b9 22       		.uleb128 0x22
 11959 01ba 2E       		.uleb128 0x2e
 11960 01bb 01       		.byte	0x1
 11961 01bc 3F       		.uleb128 0x3f
 11962 01bd 19       		.uleb128 0x19
 11963 01be 03       		.uleb128 0x3
 11964 01bf 08       		.uleb128 0x8
 11965 01c0 3A       		.uleb128 0x3a
 11966 01c1 0B       		.uleb128 0xb
 11967 01c2 3B       		.uleb128 0x3b
 11968 01c3 0B       		.uleb128 0xb
 11969 01c4 6E       		.uleb128 0x6e
 11970 01c5 0E       		.uleb128 0xe
 11971 01c6 49       		.uleb128 0x49
 11972 01c7 13       		.uleb128 0x13
 11973 01c8 32       		.uleb128 0x32
 11974 01c9 0B       		.uleb128 0xb
 11975 01ca 3C       		.uleb128 0x3c
 11976 01cb 19       		.uleb128 0x19
 11977 01cc 64       		.uleb128 0x64
 11978 01cd 13       		.uleb128 0x13
 11979 01ce 01       		.uleb128 0x1
 11980 01cf 13       		.uleb128 0x13
 11981 01d0 00       		.byte	0
 11982 01d1 00       		.byte	0
 11983 01d2 23       		.uleb128 0x23
 11984 01d3 2E       		.uleb128 0x2e
 11985 01d4 01       		.byte	0x1
 11986 01d5 3F       		.uleb128 0x3f
 11987 01d6 19       		.uleb128 0x19
 11988 01d7 03       		.uleb128 0x3
 11989 01d8 0E       		.uleb128 0xe
 11990 01d9 3A       		.uleb128 0x3a
 11991 01da 0B       		.uleb128 0xb
 11992 01db 3B       		.uleb128 0x3b
 11993 01dc 05       		.uleb128 0x5
 11994 01dd 6E       		.uleb128 0x6e
 11995 01de 0E       		.uleb128 0xe
 11996 01df 3C       		.uleb128 0x3c
 11997 01e0 19       		.uleb128 0x19
 11998 01e1 64       		.uleb128 0x64
 11999 01e2 13       		.uleb128 0x13
 12000 01e3 01       		.uleb128 0x1
 12001 01e4 13       		.uleb128 0x13
 12002 01e5 00       		.byte	0
 12003 01e6 00       		.byte	0
ARM GAS  C:\Users\jrdia\AppData\Local\Temp\ccYHzYw6.s 			page 236


 12004 01e7 24       		.uleb128 0x24
 12005 01e8 2E       		.uleb128 0x2e
 12006 01e9 01       		.byte	0x1
 12007 01ea 3F       		.uleb128 0x3f
 12008 01eb 19       		.uleb128 0x19
 12009 01ec 03       		.uleb128 0x3
 12010 01ed 0E       		.uleb128 0xe
 12011 01ee 3A       		.uleb128 0x3a
 12012 01ef 0B       		.uleb128 0xb
 12013 01f0 3B       		.uleb128 0x3b
 12014 01f1 05       		.uleb128 0x5
 12015 01f2 6E       		.uleb128 0x6e
 12016 01f3 0E       		.uleb128 0xe
 12017 01f4 49       		.uleb128 0x49
 12018 01f5 13       		.uleb128 0x13
 12019 01f6 3C       		.uleb128 0x3c
 12020 01f7 19       		.uleb128 0x19
 12021 01f8 64       		.uleb128 0x64
 12022 01f9 13       		.uleb128 0x13
 12023 01fa 01       		.uleb128 0x1
 12024 01fb 13       		.uleb128 0x13
 12025 01fc 00       		.byte	0
 12026 01fd 00       		.byte	0
 12027 01fe 25       		.uleb128 0x25
 12028 01ff 2E       		.uleb128 0x2e
 12029 0200 01       		.byte	0x1
 12030 0201 3F       		.uleb128 0x3f
 12031 0202 19       		.uleb128 0x19
 12032 0203 03       		.uleb128 0x3
 12033 0204 0E       		.uleb128 0xe
 12034 0205 3A       		.uleb128 0x3a
 12035 0206 0B       		.uleb128 0xb
 12036 0207 3B       		.uleb128 0x3b
 12037 0208 05       		.uleb128 0x5
 12038 0209 6E       		.uleb128 0x6e
 12039 020a 0E       		.uleb128 0xe
 12040 020b 49       		.uleb128 0x49
 12041 020c 13       		.uleb128 0x13
 12042 020d 3C       		.uleb128 0x3c
 12043 020e 19       		.uleb128 0x19
 12044 020f 64       		.uleb128 0x64
 12045 0210 13       		.uleb128 0x13
 12046 0211 00       		.byte	0
 12047 0212 00       		.byte	0
 12048 0213 26       		.uleb128 0x26
 12049 0214 02       		.uleb128 0x2
 12050 0215 01       		.byte	0x1
 12051 0216 03       		.uleb128 0x3
 12052 0217 0E       		.uleb128 0xe
 12053 0218 3C       		.uleb128 0x3c
 12054 0219 19       		.uleb128 0x19
 12055 021a 01       		.uleb128 0x1
 12056 021b 13       		.uleb128 0x13
 12057 021c 00       		.byte	0
 12058 021d 00       		.byte	0
 12059 021e 27       		.uleb128 0x27
 12060 021f 30       		.uleb128 0x30
ARM GAS  C:\Users\jrdia\AppData\Local\Temp\ccYHzYw6.s 			page 237


 12061 0220 00       		.byte	0
 12062 0221 03       		.uleb128 0x3
 12063 0222 0E       		.uleb128 0xe
 12064 0223 49       		.uleb128 0x49
 12065 0224 13       		.uleb128 0x13
 12066 0225 1C       		.uleb128 0x1c
 12067 0226 0B       		.uleb128 0xb
 12068 0227 00       		.byte	0
 12069 0228 00       		.byte	0
 12070 0229 28       		.uleb128 0x28
 12071 022a 01       		.uleb128 0x1
 12072 022b 01       		.byte	0x1
 12073 022c 49       		.uleb128 0x49
 12074 022d 13       		.uleb128 0x13
 12075 022e 01       		.uleb128 0x1
 12076 022f 13       		.uleb128 0x13
 12077 0230 00       		.byte	0
 12078 0231 00       		.byte	0
 12079 0232 29       		.uleb128 0x29
 12080 0233 21       		.uleb128 0x21
 12081 0234 00       		.byte	0
 12082 0235 49       		.uleb128 0x49
 12083 0236 13       		.uleb128 0x13
 12084 0237 2F       		.uleb128 0x2f
 12085 0238 0B       		.uleb128 0xb
 12086 0239 00       		.byte	0
 12087 023a 00       		.byte	0
 12088 023b 2A       		.uleb128 0x2a
 12089 023c 02       		.uleb128 0x2
 12090 023d 01       		.byte	0x1
 12091 023e 03       		.uleb128 0x3
 12092 023f 0E       		.uleb128 0xe
 12093 0240 0B       		.uleb128 0xb
 12094 0241 0B       		.uleb128 0xb
 12095 0242 3A       		.uleb128 0x3a
 12096 0243 0B       		.uleb128 0xb
 12097 0244 3B       		.uleb128 0x3b
 12098 0245 0B       		.uleb128 0xb
 12099 0246 1D       		.uleb128 0x1d
 12100 0247 13       		.uleb128 0x13
 12101 0248 01       		.uleb128 0x1
 12102 0249 13       		.uleb128 0x13
 12103 024a 00       		.byte	0
 12104 024b 00       		.byte	0
 12105 024c 2B       		.uleb128 0x2b
 12106 024d 0D       		.uleb128 0xd
 12107 024e 00       		.byte	0
 12108 024f 03       		.uleb128 0x3
 12109 0250 0E       		.uleb128 0xe
 12110 0251 49       		.uleb128 0x49
 12111 0252 13       		.uleb128 0x13
 12112 0253 38       		.uleb128 0x38
 12113 0254 0B       		.uleb128 0xb
 12114 0255 34       		.uleb128 0x34
 12115 0256 19       		.uleb128 0x19
 12116 0257 32       		.uleb128 0x32
 12117 0258 0B       		.uleb128 0xb
ARM GAS  C:\Users\jrdia\AppData\Local\Temp\ccYHzYw6.s 			page 238


 12118 0259 00       		.byte	0
 12119 025a 00       		.byte	0
 12120 025b 2C       		.uleb128 0x2c
 12121 025c 2E       		.uleb128 0x2e
 12122 025d 01       		.byte	0x1
 12123 025e 3F       		.uleb128 0x3f
 12124 025f 19       		.uleb128 0x19
 12125 0260 03       		.uleb128 0x3
 12126 0261 0E       		.uleb128 0xe
 12127 0262 6E       		.uleb128 0x6e
 12128 0263 0E       		.uleb128 0xe
 12129 0264 49       		.uleb128 0x49
 12130 0265 13       		.uleb128 0x13
 12131 0266 34       		.uleb128 0x34
 12132 0267 19       		.uleb128 0x19
 12133 0268 32       		.uleb128 0x32
 12134 0269 0B       		.uleb128 0xb
 12135 026a 3C       		.uleb128 0x3c
 12136 026b 19       		.uleb128 0x19
 12137 026c 64       		.uleb128 0x64
 12138 026d 13       		.uleb128 0x13
 12139 026e 01       		.uleb128 0x1
 12140 026f 13       		.uleb128 0x13
 12141 0270 00       		.byte	0
 12142 0271 00       		.byte	0
 12143 0272 2D       		.uleb128 0x2d
 12144 0273 2E       		.uleb128 0x2e
 12145 0274 01       		.byte	0x1
 12146 0275 3F       		.uleb128 0x3f
 12147 0276 19       		.uleb128 0x19
 12148 0277 03       		.uleb128 0x3
 12149 0278 0E       		.uleb128 0xe
 12150 0279 3A       		.uleb128 0x3a
 12151 027a 0B       		.uleb128 0xb
 12152 027b 3B       		.uleb128 0x3b
 12153 027c 0B       		.uleb128 0xb
 12154 027d 6E       		.uleb128 0x6e
 12155 027e 0E       		.uleb128 0xe
 12156 027f 49       		.uleb128 0x49
 12157 0280 13       		.uleb128 0x13
 12158 0281 4C       		.uleb128 0x4c
 12159 0282 0B       		.uleb128 0xb
 12160 0283 4D       		.uleb128 0x4d
 12161 0284 18       		.uleb128 0x18
 12162 0285 1D       		.uleb128 0x1d
 12163 0286 13       		.uleb128 0x13
 12164 0287 32       		.uleb128 0x32
 12165 0288 0B       		.uleb128 0xb
 12166 0289 3C       		.uleb128 0x3c
 12167 028a 19       		.uleb128 0x19
 12168 028b 64       		.uleb128 0x64
 12169 028c 13       		.uleb128 0x13
 12170 028d 01       		.uleb128 0x1
 12171 028e 13       		.uleb128 0x13
 12172 028f 00       		.byte	0
 12173 0290 00       		.byte	0
 12174 0291 2E       		.uleb128 0x2e
ARM GAS  C:\Users\jrdia\AppData\Local\Temp\ccYHzYw6.s 			page 239


 12175 0292 2E       		.uleb128 0x2e
 12176 0293 01       		.byte	0x1
 12177 0294 3F       		.uleb128 0x3f
 12178 0295 19       		.uleb128 0x19
 12179 0296 03       		.uleb128 0x3
 12180 0297 0E       		.uleb128 0xe
 12181 0298 3A       		.uleb128 0x3a
 12182 0299 0B       		.uleb128 0xb
 12183 029a 3B       		.uleb128 0x3b
 12184 029b 0B       		.uleb128 0xb
 12185 029c 6E       		.uleb128 0x6e
 12186 029d 0E       		.uleb128 0xe
 12187 029e 4C       		.uleb128 0x4c
 12188 029f 0B       		.uleb128 0xb
 12189 02a0 4D       		.uleb128 0x4d
 12190 02a1 18       		.uleb128 0x18
 12191 02a2 1D       		.uleb128 0x1d
 12192 02a3 13       		.uleb128 0x13
 12193 02a4 32       		.uleb128 0x32
 12194 02a5 0B       		.uleb128 0xb
 12195 02a6 3C       		.uleb128 0x3c
 12196 02a7 19       		.uleb128 0x19
 12197 02a8 64       		.uleb128 0x64
 12198 02a9 13       		.uleb128 0x13
 12199 02aa 01       		.uleb128 0x1
 12200 02ab 13       		.uleb128 0x13
 12201 02ac 00       		.byte	0
 12202 02ad 00       		.byte	0
 12203 02ae 2F       		.uleb128 0x2f
 12204 02af 2E       		.uleb128 0x2e
 12205 02b0 01       		.byte	0x1
 12206 02b1 3F       		.uleb128 0x3f
 12207 02b2 19       		.uleb128 0x19
 12208 02b3 03       		.uleb128 0x3
 12209 02b4 0E       		.uleb128 0xe
 12210 02b5 3A       		.uleb128 0x3a
 12211 02b6 0B       		.uleb128 0xb
 12212 02b7 3B       		.uleb128 0x3b
 12213 02b8 0B       		.uleb128 0xb
 12214 02b9 6E       		.uleb128 0x6e
 12215 02ba 0E       		.uleb128 0xe
 12216 02bb 49       		.uleb128 0x49
 12217 02bc 13       		.uleb128 0x13
 12218 02bd 4C       		.uleb128 0x4c
 12219 02be 0B       		.uleb128 0xb
 12220 02bf 4D       		.uleb128 0x4d
 12221 02c0 18       		.uleb128 0x18
 12222 02c1 1D       		.uleb128 0x1d
 12223 02c2 13       		.uleb128 0x13
 12224 02c3 32       		.uleb128 0x32
 12225 02c4 0B       		.uleb128 0xb
 12226 02c5 3C       		.uleb128 0x3c
 12227 02c6 19       		.uleb128 0x19
 12228 02c7 64       		.uleb128 0x64
 12229 02c8 13       		.uleb128 0x13
 12230 02c9 00       		.byte	0
 12231 02ca 00       		.byte	0
ARM GAS  C:\Users\jrdia\AppData\Local\Temp\ccYHzYw6.s 			page 240


 12232 02cb 30       		.uleb128 0x30
 12233 02cc 10       		.uleb128 0x10
 12234 02cd 00       		.byte	0
 12235 02ce 0B       		.uleb128 0xb
 12236 02cf 0B       		.uleb128 0xb
 12237 02d0 49       		.uleb128 0x49
 12238 02d1 13       		.uleb128 0x13
 12239 02d2 00       		.byte	0
 12240 02d3 00       		.byte	0
 12241 02d4 31       		.uleb128 0x31
 12242 02d5 0D       		.uleb128 0xd
 12243 02d6 00       		.byte	0
 12244 02d7 03       		.uleb128 0x3
 12245 02d8 0E       		.uleb128 0xe
 12246 02d9 3A       		.uleb128 0x3a
 12247 02da 0B       		.uleb128 0xb
 12248 02db 3B       		.uleb128 0x3b
 12249 02dc 0B       		.uleb128 0xb
 12250 02dd 49       		.uleb128 0x49
 12251 02de 13       		.uleb128 0x13
 12252 02df 38       		.uleb128 0x38
 12253 02e0 0B       		.uleb128 0xb
 12254 02e1 32       		.uleb128 0x32
 12255 02e2 0B       		.uleb128 0xb
 12256 02e3 00       		.byte	0
 12257 02e4 00       		.byte	0
 12258 02e5 32       		.uleb128 0x32
 12259 02e6 2E       		.uleb128 0x2e
 12260 02e7 01       		.byte	0x1
 12261 02e8 3F       		.uleb128 0x3f
 12262 02e9 19       		.uleb128 0x19
 12263 02ea 03       		.uleb128 0x3
 12264 02eb 08       		.uleb128 0x8
 12265 02ec 3A       		.uleb128 0x3a
 12266 02ed 0B       		.uleb128 0xb
 12267 02ee 3B       		.uleb128 0x3b
 12268 02ef 05       		.uleb128 0x5
 12269 02f0 6E       		.uleb128 0x6e
 12270 02f1 0E       		.uleb128 0xe
 12271 02f2 4C       		.uleb128 0x4c
 12272 02f3 0B       		.uleb128 0xb
 12273 02f4 4D       		.uleb128 0x4d
 12274 02f5 18       		.uleb128 0x18
 12275 02f6 1D       		.uleb128 0x1d
 12276 02f7 13       		.uleb128 0x13
 12277 02f8 32       		.uleb128 0x32
 12278 02f9 0B       		.uleb128 0xb
 12279 02fa 3C       		.uleb128 0x3c
 12280 02fb 19       		.uleb128 0x19
 12281 02fc 64       		.uleb128 0x64
 12282 02fd 13       		.uleb128 0x13
 12283 02fe 01       		.uleb128 0x1
 12284 02ff 13       		.uleb128 0x13
 12285 0300 00       		.byte	0
 12286 0301 00       		.byte	0
 12287 0302 33       		.uleb128 0x33
 12288 0303 2E       		.uleb128 0x2e
ARM GAS  C:\Users\jrdia\AppData\Local\Temp\ccYHzYw6.s 			page 241


 12289 0304 01       		.byte	0x1
 12290 0305 3F       		.uleb128 0x3f
 12291 0306 19       		.uleb128 0x19
 12292 0307 03       		.uleb128 0x3
 12293 0308 0E       		.uleb128 0xe
 12294 0309 3A       		.uleb128 0x3a
 12295 030a 0B       		.uleb128 0xb
 12296 030b 3B       		.uleb128 0x3b
 12297 030c 0B       		.uleb128 0xb
 12298 030d 6E       		.uleb128 0x6e
 12299 030e 0E       		.uleb128 0xe
 12300 030f 3C       		.uleb128 0x3c
 12301 0310 19       		.uleb128 0x19
 12302 0311 64       		.uleb128 0x64
 12303 0312 13       		.uleb128 0x13
 12304 0313 00       		.byte	0
 12305 0314 00       		.byte	0
 12306 0315 34       		.uleb128 0x34
 12307 0316 02       		.uleb128 0x2
 12308 0317 01       		.byte	0x1
 12309 0318 03       		.uleb128 0x3
 12310 0319 0E       		.uleb128 0xe
 12311 031a 0B       		.uleb128 0xb
 12312 031b 0B       		.uleb128 0xb
 12313 031c 3A       		.uleb128 0x3a
 12314 031d 0B       		.uleb128 0xb
 12315 031e 3B       		.uleb128 0x3b
 12316 031f 05       		.uleb128 0x5
 12317 0320 1D       		.uleb128 0x1d
 12318 0321 13       		.uleb128 0x13
 12319 0322 01       		.uleb128 0x1
 12320 0323 13       		.uleb128 0x13
 12321 0324 00       		.byte	0
 12322 0325 00       		.byte	0
 12323 0326 35       		.uleb128 0x35
 12324 0327 0D       		.uleb128 0xd
 12325 0328 00       		.byte	0
 12326 0329 03       		.uleb128 0x3
 12327 032a 0E       		.uleb128 0xe
 12328 032b 3A       		.uleb128 0x3a
 12329 032c 0B       		.uleb128 0xb
 12330 032d 3B       		.uleb128 0x3b
 12331 032e 05       		.uleb128 0x5
 12332 032f 49       		.uleb128 0x49
 12333 0330 13       		.uleb128 0x13
 12334 0331 38       		.uleb128 0x38
 12335 0332 0B       		.uleb128 0xb
 12336 0333 32       		.uleb128 0x32
 12337 0334 0B       		.uleb128 0xb
 12338 0335 00       		.byte	0
 12339 0336 00       		.byte	0
 12340 0337 36       		.uleb128 0x36
 12341 0338 2E       		.uleb128 0x2e
 12342 0339 01       		.byte	0x1
 12343 033a 3F       		.uleb128 0x3f
 12344 033b 19       		.uleb128 0x19
 12345 033c 03       		.uleb128 0x3
ARM GAS  C:\Users\jrdia\AppData\Local\Temp\ccYHzYw6.s 			page 242


 12346 033d 0E       		.uleb128 0xe
 12347 033e 3A       		.uleb128 0x3a
 12348 033f 0B       		.uleb128 0xb
 12349 0340 3B       		.uleb128 0x3b
 12350 0341 05       		.uleb128 0x5
 12351 0342 6E       		.uleb128 0x6e
 12352 0343 0E       		.uleb128 0xe
 12353 0344 4C       		.uleb128 0x4c
 12354 0345 0B       		.uleb128 0xb
 12355 0346 4D       		.uleb128 0x4d
 12356 0347 18       		.uleb128 0x18
 12357 0348 1D       		.uleb128 0x1d
 12358 0349 13       		.uleb128 0x13
 12359 034a 32       		.uleb128 0x32
 12360 034b 0B       		.uleb128 0xb
 12361 034c 3C       		.uleb128 0x3c
 12362 034d 19       		.uleb128 0x19
 12363 034e 64       		.uleb128 0x64
 12364 034f 13       		.uleb128 0x13
 12365 0350 01       		.uleb128 0x1
 12366 0351 13       		.uleb128 0x13
 12367 0352 00       		.byte	0
 12368 0353 00       		.byte	0
 12369 0354 37       		.uleb128 0x37
 12370 0355 2E       		.uleb128 0x2e
 12371 0356 01       		.byte	0x1
 12372 0357 3F       		.uleb128 0x3f
 12373 0358 19       		.uleb128 0x19
 12374 0359 03       		.uleb128 0x3
 12375 035a 0E       		.uleb128 0xe
 12376 035b 3A       		.uleb128 0x3a
 12377 035c 0B       		.uleb128 0xb
 12378 035d 3B       		.uleb128 0x3b
 12379 035e 05       		.uleb128 0x5
 12380 035f 6E       		.uleb128 0x6e
 12381 0360 0E       		.uleb128 0xe
 12382 0361 49       		.uleb128 0x49
 12383 0362 13       		.uleb128 0x13
 12384 0363 32       		.uleb128 0x32
 12385 0364 0B       		.uleb128 0xb
 12386 0365 3C       		.uleb128 0x3c
 12387 0366 19       		.uleb128 0x19
 12388 0367 64       		.uleb128 0x64
 12389 0368 13       		.uleb128 0x13
 12390 0369 00       		.byte	0
 12391 036a 00       		.byte	0
 12392 036b 38       		.uleb128 0x38
 12393 036c 2E       		.uleb128 0x2e
 12394 036d 01       		.byte	0x1
 12395 036e 3F       		.uleb128 0x3f
 12396 036f 19       		.uleb128 0x19
 12397 0370 03       		.uleb128 0x3
 12398 0371 0E       		.uleb128 0xe
 12399 0372 3A       		.uleb128 0x3a
 12400 0373 0B       		.uleb128 0xb
 12401 0374 3B       		.uleb128 0x3b
 12402 0375 0B       		.uleb128 0xb
ARM GAS  C:\Users\jrdia\AppData\Local\Temp\ccYHzYw6.s 			page 243


 12403 0376 6E       		.uleb128 0x6e
 12404 0377 0E       		.uleb128 0xe
 12405 0378 4C       		.uleb128 0x4c
 12406 0379 0B       		.uleb128 0xb
 12407 037a 4D       		.uleb128 0x4d
 12408 037b 18       		.uleb128 0x18
 12409 037c 1D       		.uleb128 0x1d
 12410 037d 13       		.uleb128 0x13
 12411 037e 32       		.uleb128 0x32
 12412 037f 0B       		.uleb128 0xb
 12413 0380 3C       		.uleb128 0x3c
 12414 0381 19       		.uleb128 0x19
 12415 0382 64       		.uleb128 0x64
 12416 0383 13       		.uleb128 0x13
 12417 0384 00       		.byte	0
 12418 0385 00       		.byte	0
 12419 0386 39       		.uleb128 0x39
 12420 0387 02       		.uleb128 0x2
 12421 0388 01       		.byte	0x1
 12422 0389 03       		.uleb128 0x3
 12423 038a 08       		.uleb128 0x8
 12424 038b 3C       		.uleb128 0x3c
 12425 038c 19       		.uleb128 0x19
 12426 038d 01       		.uleb128 0x1
 12427 038e 13       		.uleb128 0x13
 12428 038f 00       		.byte	0
 12429 0390 00       		.byte	0
 12430 0391 3A       		.uleb128 0x3a
 12431 0392 0D       		.uleb128 0xd
 12432 0393 00       		.byte	0
 12433 0394 03       		.uleb128 0x3
 12434 0395 0E       		.uleb128 0xe
 12435 0396 3A       		.uleb128 0x3a
 12436 0397 0B       		.uleb128 0xb
 12437 0398 3B       		.uleb128 0x3b
 12438 0399 05       		.uleb128 0x5
 12439 039a 49       		.uleb128 0x49
 12440 039b 13       		.uleb128 0x13
 12441 039c 3F       		.uleb128 0x3f
 12442 039d 19       		.uleb128 0x19
 12443 039e 32       		.uleb128 0x32
 12444 039f 0B       		.uleb128 0xb
 12445 03a0 3C       		.uleb128 0x3c
 12446 03a1 19       		.uleb128 0x19
 12447 03a2 00       		.byte	0
 12448 03a3 00       		.byte	0
 12449 03a4 3B       		.uleb128 0x3b
 12450 03a5 2E       		.uleb128 0x2e
 12451 03a6 00       		.byte	0
 12452 03a7 3F       		.uleb128 0x3f
 12453 03a8 19       		.uleb128 0x19
 12454 03a9 3C       		.uleb128 0x3c
 12455 03aa 19       		.uleb128 0x19
 12456 03ab 6E       		.uleb128 0x6e
 12457 03ac 0E       		.uleb128 0xe
 12458 03ad 03       		.uleb128 0x3
 12459 03ae 0E       		.uleb128 0xe
ARM GAS  C:\Users\jrdia\AppData\Local\Temp\ccYHzYw6.s 			page 244


 12460 03af 3A       		.uleb128 0x3a
 12461 03b0 0B       		.uleb128 0xb
 12462 03b1 3B       		.uleb128 0x3b
 12463 03b2 05       		.uleb128 0x5
 12464 03b3 6E       		.uleb128 0x6e
 12465 03b4 0E       		.uleb128 0xe
 12466 03b5 00       		.byte	0
 12467 03b6 00       		.byte	0
 12468 03b7 3C       		.uleb128 0x3c
 12469 03b8 15       		.uleb128 0x15
 12470 03b9 01       		.byte	0x1
 12471 03ba 49       		.uleb128 0x49
 12472 03bb 13       		.uleb128 0x13
 12473 03bc 01       		.uleb128 0x1
 12474 03bd 13       		.uleb128 0x13
 12475 03be 00       		.byte	0
 12476 03bf 00       		.byte	0
 12477 03c0 3D       		.uleb128 0x3d
 12478 03c1 18       		.uleb128 0x18
 12479 03c2 00       		.byte	0
 12480 03c3 00       		.byte	0
 12481 03c4 00       		.byte	0
 12482 03c5 3E       		.uleb128 0x3e
 12483 03c6 0F       		.uleb128 0xf
 12484 03c7 00       		.byte	0
 12485 03c8 0B       		.uleb128 0xb
 12486 03c9 0B       		.uleb128 0xb
 12487 03ca 03       		.uleb128 0x3
 12488 03cb 0E       		.uleb128 0xe
 12489 03cc 49       		.uleb128 0x49
 12490 03cd 13       		.uleb128 0x13
 12491 03ce 00       		.byte	0
 12492 03cf 00       		.byte	0
 12493 03d0 3F       		.uleb128 0x3f
 12494 03d1 0D       		.uleb128 0xd
 12495 03d2 00       		.byte	0
 12496 03d3 03       		.uleb128 0x3
 12497 03d4 0E       		.uleb128 0xe
 12498 03d5 3A       		.uleb128 0x3a
 12499 03d6 0B       		.uleb128 0xb
 12500 03d7 3B       		.uleb128 0x3b
 12501 03d8 0B       		.uleb128 0xb
 12502 03d9 49       		.uleb128 0x49
 12503 03da 13       		.uleb128 0x13
 12504 03db 3F       		.uleb128 0x3f
 12505 03dc 19       		.uleb128 0x19
 12506 03dd 32       		.uleb128 0x32
 12507 03de 0B       		.uleb128 0xb
 12508 03df 3C       		.uleb128 0x3c
 12509 03e0 19       		.uleb128 0x19
 12510 03e1 1C       		.uleb128 0x1c
 12511 03e2 0B       		.uleb128 0xb
 12512 03e3 00       		.byte	0
 12513 03e4 00       		.byte	0
 12514 03e5 40       		.uleb128 0x40
 12515 03e6 2E       		.uleb128 0x2e
 12516 03e7 01       		.byte	0x1
ARM GAS  C:\Users\jrdia\AppData\Local\Temp\ccYHzYw6.s 			page 245


 12517 03e8 3F       		.uleb128 0x3f
 12518 03e9 19       		.uleb128 0x19
 12519 03ea 03       		.uleb128 0x3
 12520 03eb 0E       		.uleb128 0xe
 12521 03ec 3A       		.uleb128 0x3a
 12522 03ed 0B       		.uleb128 0xb
 12523 03ee 3B       		.uleb128 0x3b
 12524 03ef 0B       		.uleb128 0xb
 12525 03f0 6E       		.uleb128 0x6e
 12526 03f1 0E       		.uleb128 0xe
 12527 03f2 49       		.uleb128 0x49
 12528 03f3 13       		.uleb128 0x13
 12529 03f4 32       		.uleb128 0x32
 12530 03f5 0B       		.uleb128 0xb
 12531 03f6 3C       		.uleb128 0x3c
 12532 03f7 19       		.uleb128 0x19
 12533 03f8 64       		.uleb128 0x64
 12534 03f9 13       		.uleb128 0x13
 12535 03fa 00       		.byte	0
 12536 03fb 00       		.byte	0
 12537 03fc 41       		.uleb128 0x41
 12538 03fd 2E       		.uleb128 0x2e
 12539 03fe 01       		.byte	0x1
 12540 03ff 47       		.uleb128 0x47
 12541 0400 13       		.uleb128 0x13
 12542 0401 20       		.uleb128 0x20
 12543 0402 0B       		.uleb128 0xb
 12544 0403 64       		.uleb128 0x64
 12545 0404 13       		.uleb128 0x13
 12546 0405 01       		.uleb128 0x1
 12547 0406 13       		.uleb128 0x13
 12548 0407 00       		.byte	0
 12549 0408 00       		.byte	0
 12550 0409 42       		.uleb128 0x42
 12551 040a 05       		.uleb128 0x5
 12552 040b 00       		.byte	0
 12553 040c 03       		.uleb128 0x3
 12554 040d 0E       		.uleb128 0xe
 12555 040e 49       		.uleb128 0x49
 12556 040f 13       		.uleb128 0x13
 12557 0410 34       		.uleb128 0x34
 12558 0411 19       		.uleb128 0x19
 12559 0412 00       		.byte	0
 12560 0413 00       		.byte	0
 12561 0414 43       		.uleb128 0x43
 12562 0415 05       		.uleb128 0x5
 12563 0416 00       		.byte	0
 12564 0417 03       		.uleb128 0x3
 12565 0418 0E       		.uleb128 0xe
 12566 0419 3A       		.uleb128 0x3a
 12567 041a 0B       		.uleb128 0xb
 12568 041b 3B       		.uleb128 0x3b
 12569 041c 05       		.uleb128 0x5
 12570 041d 49       		.uleb128 0x49
 12571 041e 13       		.uleb128 0x13
 12572 041f 00       		.byte	0
 12573 0420 00       		.byte	0
ARM GAS  C:\Users\jrdia\AppData\Local\Temp\ccYHzYw6.s 			page 246


 12574 0421 44       		.uleb128 0x44
 12575 0422 0B       		.uleb128 0xb
 12576 0423 01       		.byte	0x1
 12577 0424 00       		.byte	0
 12578 0425 00       		.byte	0
 12579 0426 45       		.uleb128 0x45
 12580 0427 34       		.uleb128 0x34
 12581 0428 00       		.byte	0
 12582 0429 03       		.uleb128 0x3
 12583 042a 08       		.uleb128 0x8
 12584 042b 3A       		.uleb128 0x3a
 12585 042c 0B       		.uleb128 0xb
 12586 042d 3B       		.uleb128 0x3b
 12587 042e 05       		.uleb128 0x5
 12588 042f 49       		.uleb128 0x49
 12589 0430 13       		.uleb128 0x13
 12590 0431 00       		.byte	0
 12591 0432 00       		.byte	0
 12592 0433 46       		.uleb128 0x46
 12593 0434 05       		.uleb128 0x5
 12594 0435 00       		.byte	0
 12595 0436 03       		.uleb128 0x3
 12596 0437 08       		.uleb128 0x8
 12597 0438 3A       		.uleb128 0x3a
 12598 0439 0B       		.uleb128 0xb
 12599 043a 3B       		.uleb128 0x3b
 12600 043b 05       		.uleb128 0x5
 12601 043c 49       		.uleb128 0x49
 12602 043d 13       		.uleb128 0x13
 12603 043e 00       		.byte	0
 12604 043f 00       		.byte	0
 12605 0440 47       		.uleb128 0x47
 12606 0441 05       		.uleb128 0x5
 12607 0442 00       		.byte	0
 12608 0443 03       		.uleb128 0x3
 12609 0444 08       		.uleb128 0x8
 12610 0445 3A       		.uleb128 0x3a
 12611 0446 0B       		.uleb128 0xb
 12612 0447 3B       		.uleb128 0x3b
 12613 0448 0B       		.uleb128 0xb
 12614 0449 49       		.uleb128 0x49
 12615 044a 13       		.uleb128 0x13
 12616 044b 00       		.byte	0
 12617 044c 00       		.byte	0
 12618 044d 48       		.uleb128 0x48
 12619 044e 2E       		.uleb128 0x2e
 12620 044f 01       		.byte	0x1
 12621 0450 31       		.uleb128 0x31
 12622 0451 13       		.uleb128 0x13
 12623 0452 6E       		.uleb128 0x6e
 12624 0453 0E       		.uleb128 0xe
 12625 0454 11       		.uleb128 0x11
 12626 0455 01       		.uleb128 0x1
 12627 0456 12       		.uleb128 0x12
 12628 0457 06       		.uleb128 0x6
 12629 0458 40       		.uleb128 0x40
 12630 0459 18       		.uleb128 0x18
ARM GAS  C:\Users\jrdia\AppData\Local\Temp\ccYHzYw6.s 			page 247


 12631 045a 64       		.uleb128 0x64
 12632 045b 13       		.uleb128 0x13
 12633 045c 9742     		.uleb128 0x2117
 12634 045e 19       		.uleb128 0x19
 12635 045f 01       		.uleb128 0x1
 12636 0460 13       		.uleb128 0x13
 12637 0461 00       		.byte	0
 12638 0462 00       		.byte	0
 12639 0463 49       		.uleb128 0x49
 12640 0464 05       		.uleb128 0x5
 12641 0465 00       		.byte	0
 12642 0466 31       		.uleb128 0x31
 12643 0467 13       		.uleb128 0x13
 12644 0468 02       		.uleb128 0x2
 12645 0469 18       		.uleb128 0x18
 12646 046a 00       		.byte	0
 12647 046b 00       		.byte	0
 12648 046c 4A       		.uleb128 0x4a
 12649 046d 2E       		.uleb128 0x2e
 12650 046e 01       		.byte	0x1
 12651 046f 47       		.uleb128 0x47
 12652 0470 13       		.uleb128 0x13
 12653 0471 11       		.uleb128 0x11
 12654 0472 01       		.uleb128 0x1
 12655 0473 12       		.uleb128 0x12
 12656 0474 06       		.uleb128 0x6
 12657 0475 40       		.uleb128 0x40
 12658 0476 18       		.uleb128 0x18
 12659 0477 64       		.uleb128 0x64
 12660 0478 13       		.uleb128 0x13
 12661 0479 9742     		.uleb128 0x2117
 12662 047b 19       		.uleb128 0x19
 12663 047c 01       		.uleb128 0x1
 12664 047d 13       		.uleb128 0x13
 12665 047e 00       		.byte	0
 12666 047f 00       		.byte	0
 12667 0480 4B       		.uleb128 0x4b
 12668 0481 05       		.uleb128 0x5
 12669 0482 00       		.byte	0
 12670 0483 03       		.uleb128 0x3
 12671 0484 0E       		.uleb128 0xe
 12672 0485 49       		.uleb128 0x49
 12673 0486 13       		.uleb128 0x13
 12674 0487 34       		.uleb128 0x34
 12675 0488 19       		.uleb128 0x19
 12676 0489 02       		.uleb128 0x2
 12677 048a 17       		.uleb128 0x17
 12678 048b 00       		.byte	0
 12679 048c 00       		.byte	0
 12680 048d 4C       		.uleb128 0x4c
 12681 048e 898201   		.uleb128 0x4109
 12682 0491 01       		.byte	0x1
 12683 0492 11       		.uleb128 0x11
 12684 0493 01       		.uleb128 0x1
 12685 0494 31       		.uleb128 0x31
 12686 0495 13       		.uleb128 0x13
 12687 0496 01       		.uleb128 0x1
ARM GAS  C:\Users\jrdia\AppData\Local\Temp\ccYHzYw6.s 			page 248


 12688 0497 13       		.uleb128 0x13
 12689 0498 00       		.byte	0
 12690 0499 00       		.byte	0
 12691 049a 4D       		.uleb128 0x4d
 12692 049b 8A8201   		.uleb128 0x410a
 12693 049e 00       		.byte	0
 12694 049f 02       		.uleb128 0x2
 12695 04a0 18       		.uleb128 0x18
 12696 04a1 9142     		.uleb128 0x2111
 12697 04a3 18       		.uleb128 0x18
 12698 04a4 00       		.byte	0
 12699 04a5 00       		.byte	0
 12700 04a6 4E       		.uleb128 0x4e
 12701 04a7 898201   		.uleb128 0x4109
 12702 04aa 01       		.byte	0x1
 12703 04ab 11       		.uleb128 0x11
 12704 04ac 01       		.uleb128 0x1
 12705 04ad 00       		.byte	0
 12706 04ae 00       		.byte	0
 12707 04af 4F       		.uleb128 0x4f
 12708 04b0 05       		.uleb128 0x5
 12709 04b1 00       		.byte	0
 12710 04b2 31       		.uleb128 0x31
 12711 04b3 13       		.uleb128 0x13
 12712 04b4 02       		.uleb128 0x2
 12713 04b5 17       		.uleb128 0x17
 12714 04b6 00       		.byte	0
 12715 04b7 00       		.byte	0
 12716 04b8 50       		.uleb128 0x50
 12717 04b9 0B       		.uleb128 0xb
 12718 04ba 01       		.byte	0x1
 12719 04bb 55       		.uleb128 0x55
 12720 04bc 17       		.uleb128 0x17
 12721 04bd 00       		.byte	0
 12722 04be 00       		.byte	0
 12723 04bf 51       		.uleb128 0x51
 12724 04c0 898201   		.uleb128 0x4109
 12725 04c3 01       		.byte	0x1
 12726 04c4 11       		.uleb128 0x11
 12727 04c5 01       		.uleb128 0x1
 12728 04c6 31       		.uleb128 0x31
 12729 04c7 13       		.uleb128 0x13
 12730 04c8 00       		.byte	0
 12731 04c9 00       		.byte	0
 12732 04ca 52       		.uleb128 0x52
 12733 04cb 2E       		.uleb128 0x2e
 12734 04cc 01       		.byte	0x1
 12735 04cd 31       		.uleb128 0x31
 12736 04ce 13       		.uleb128 0x13
 12737 04cf 6E       		.uleb128 0x6e
 12738 04d0 0E       		.uleb128 0xe
 12739 04d1 11       		.uleb128 0x11
 12740 04d2 01       		.uleb128 0x1
 12741 04d3 12       		.uleb128 0x12
 12742 04d4 06       		.uleb128 0x6
 12743 04d5 40       		.uleb128 0x40
 12744 04d6 18       		.uleb128 0x18
ARM GAS  C:\Users\jrdia\AppData\Local\Temp\ccYHzYw6.s 			page 249


 12745 04d7 64       		.uleb128 0x64
 12746 04d8 13       		.uleb128 0x13
 12747 04d9 9642     		.uleb128 0x2116
 12748 04db 19       		.uleb128 0x19
 12749 04dc 01       		.uleb128 0x1
 12750 04dd 13       		.uleb128 0x13
 12751 04de 00       		.byte	0
 12752 04df 00       		.byte	0
 12753 04e0 53       		.uleb128 0x53
 12754 04e1 05       		.uleb128 0x5
 12755 04e2 00       		.byte	0
 12756 04e3 03       		.uleb128 0x3
 12757 04e4 0E       		.uleb128 0xe
 12758 04e5 3A       		.uleb128 0x3a
 12759 04e6 0B       		.uleb128 0xb
 12760 04e7 3B       		.uleb128 0x3b
 12761 04e8 0B       		.uleb128 0xb
 12762 04e9 49       		.uleb128 0x49
 12763 04ea 13       		.uleb128 0x13
 12764 04eb 00       		.byte	0
 12765 04ec 00       		.byte	0
 12766 04ed 54       		.uleb128 0x54
 12767 04ee 34       		.uleb128 0x34
 12768 04ef 00       		.byte	0
 12769 04f0 03       		.uleb128 0x3
 12770 04f1 08       		.uleb128 0x8
 12771 04f2 3A       		.uleb128 0x3a
 12772 04f3 0B       		.uleb128 0xb
 12773 04f4 3B       		.uleb128 0x3b
 12774 04f5 0B       		.uleb128 0xb
 12775 04f6 49       		.uleb128 0x49
 12776 04f7 13       		.uleb128 0x13
 12777 04f8 00       		.byte	0
 12778 04f9 00       		.byte	0
 12779 04fa 55       		.uleb128 0x55
 12780 04fb 1D       		.uleb128 0x1d
 12781 04fc 01       		.byte	0x1
 12782 04fd 31       		.uleb128 0x31
 12783 04fe 13       		.uleb128 0x13
 12784 04ff 52       		.uleb128 0x52
 12785 0500 01       		.uleb128 0x1
 12786 0501 55       		.uleb128 0x55
 12787 0502 17       		.uleb128 0x17
 12788 0503 58       		.uleb128 0x58
 12789 0504 0B       		.uleb128 0xb
 12790 0505 59       		.uleb128 0x59
 12791 0506 0B       		.uleb128 0xb
 12792 0507 01       		.uleb128 0x1
 12793 0508 13       		.uleb128 0x13
 12794 0509 00       		.byte	0
 12795 050a 00       		.byte	0
 12796 050b 56       		.uleb128 0x56
 12797 050c 1D       		.uleb128 0x1d
 12798 050d 01       		.byte	0x1
 12799 050e 31       		.uleb128 0x31
 12800 050f 13       		.uleb128 0x13
 12801 0510 52       		.uleb128 0x52
ARM GAS  C:\Users\jrdia\AppData\Local\Temp\ccYHzYw6.s 			page 250


 12802 0511 01       		.uleb128 0x1
 12803 0512 55       		.uleb128 0x55
 12804 0513 17       		.uleb128 0x17
 12805 0514 58       		.uleb128 0x58
 12806 0515 0B       		.uleb128 0xb
 12807 0516 59       		.uleb128 0x59
 12808 0517 05       		.uleb128 0x5
 12809 0518 00       		.byte	0
 12810 0519 00       		.byte	0
 12811 051a 57       		.uleb128 0x57
 12812 051b 05       		.uleb128 0x5
 12813 051c 00       		.byte	0
 12814 051d 31       		.uleb128 0x31
 12815 051e 13       		.uleb128 0x13
 12816 051f 00       		.byte	0
 12817 0520 00       		.byte	0
 12818 0521 58       		.uleb128 0x58
 12819 0522 34       		.uleb128 0x34
 12820 0523 00       		.byte	0
 12821 0524 31       		.uleb128 0x31
 12822 0525 13       		.uleb128 0x13
 12823 0526 02       		.uleb128 0x2
 12824 0527 17       		.uleb128 0x17
 12825 0528 00       		.byte	0
 12826 0529 00       		.byte	0
 12827 052a 59       		.uleb128 0x59
 12828 052b 0B       		.uleb128 0xb
 12829 052c 01       		.byte	0x1
 12830 052d 11       		.uleb128 0x11
 12831 052e 01       		.uleb128 0x1
 12832 052f 12       		.uleb128 0x12
 12833 0530 06       		.uleb128 0x6
 12834 0531 01       		.uleb128 0x1
 12835 0532 13       		.uleb128 0x13
 12836 0533 00       		.byte	0
 12837 0534 00       		.byte	0
 12838 0535 5A       		.uleb128 0x5a
 12839 0536 1D       		.uleb128 0x1d
 12840 0537 01       		.byte	0x1
 12841 0538 31       		.uleb128 0x31
 12842 0539 13       		.uleb128 0x13
 12843 053a 52       		.uleb128 0x52
 12844 053b 01       		.uleb128 0x1
 12845 053c 55       		.uleb128 0x55
 12846 053d 17       		.uleb128 0x17
 12847 053e 58       		.uleb128 0x58
 12848 053f 0B       		.uleb128 0xb
 12849 0540 59       		.uleb128 0x59
 12850 0541 0B       		.uleb128 0xb
 12851 0542 00       		.byte	0
 12852 0543 00       		.byte	0
 12853 0544 5B       		.uleb128 0x5b
 12854 0545 34       		.uleb128 0x34
 12855 0546 00       		.byte	0
 12856 0547 03       		.uleb128 0x3
 12857 0548 0E       		.uleb128 0xe
 12858 0549 3A       		.uleb128 0x3a
ARM GAS  C:\Users\jrdia\AppData\Local\Temp\ccYHzYw6.s 			page 251


 12859 054a 0B       		.uleb128 0xb
 12860 054b 3B       		.uleb128 0x3b
 12861 054c 05       		.uleb128 0x5
 12862 054d 49       		.uleb128 0x49
 12863 054e 13       		.uleb128 0x13
 12864 054f 02       		.uleb128 0x2
 12865 0550 18       		.uleb128 0x18
 12866 0551 00       		.byte	0
 12867 0552 00       		.byte	0
 12868 0553 5C       		.uleb128 0x5c
 12869 0554 2E       		.uleb128 0x2e
 12870 0555 01       		.byte	0x1
 12871 0556 47       		.uleb128 0x47
 12872 0557 13       		.uleb128 0x13
 12873 0558 11       		.uleb128 0x11
 12874 0559 01       		.uleb128 0x1
 12875 055a 12       		.uleb128 0x12
 12876 055b 06       		.uleb128 0x6
 12877 055c 40       		.uleb128 0x40
 12878 055d 18       		.uleb128 0x18
 12879 055e 64       		.uleb128 0x64
 12880 055f 13       		.uleb128 0x13
 12881 0560 9642     		.uleb128 0x2116
 12882 0562 19       		.uleb128 0x19
 12883 0563 01       		.uleb128 0x1
 12884 0564 13       		.uleb128 0x13
 12885 0565 00       		.byte	0
 12886 0566 00       		.byte	0
 12887 0567 5D       		.uleb128 0x5d
 12888 0568 1D       		.uleb128 0x1d
 12889 0569 01       		.byte	0x1
 12890 056a 31       		.uleb128 0x31
 12891 056b 13       		.uleb128 0x13
 12892 056c 52       		.uleb128 0x52
 12893 056d 01       		.uleb128 0x1
 12894 056e 55       		.uleb128 0x55
 12895 056f 17       		.uleb128 0x17
 12896 0570 58       		.uleb128 0x58
 12897 0571 0B       		.uleb128 0xb
 12898 0572 59       		.uleb128 0x59
 12899 0573 05       		.uleb128 0x5
 12900 0574 01       		.uleb128 0x1
 12901 0575 13       		.uleb128 0x13
 12902 0576 00       		.byte	0
 12903 0577 00       		.byte	0
 12904 0578 5E       		.uleb128 0x5e
 12905 0579 898201   		.uleb128 0x4109
 12906 057c 00       		.byte	0
 12907 057d 11       		.uleb128 0x11
 12908 057e 01       		.uleb128 0x1
 12909 057f 31       		.uleb128 0x31
 12910 0580 13       		.uleb128 0x13
 12911 0581 00       		.byte	0
 12912 0582 00       		.byte	0
 12913 0583 5F       		.uleb128 0x5f
 12914 0584 05       		.uleb128 0x5
 12915 0585 00       		.byte	0
ARM GAS  C:\Users\jrdia\AppData\Local\Temp\ccYHzYw6.s 			page 252


 12916 0586 03       		.uleb128 0x3
 12917 0587 0E       		.uleb128 0xe
 12918 0588 3A       		.uleb128 0x3a
 12919 0589 0B       		.uleb128 0xb
 12920 058a 3B       		.uleb128 0x3b
 12921 058b 0B       		.uleb128 0xb
 12922 058c 49       		.uleb128 0x49
 12923 058d 13       		.uleb128 0x13
 12924 058e 02       		.uleb128 0x2
 12925 058f 17       		.uleb128 0x17
 12926 0590 00       		.byte	0
 12927 0591 00       		.byte	0
 12928 0592 60       		.uleb128 0x60
 12929 0593 0B       		.uleb128 0xb
 12930 0594 01       		.byte	0x1
 12931 0595 55       		.uleb128 0x55
 12932 0596 17       		.uleb128 0x17
 12933 0597 01       		.uleb128 0x1
 12934 0598 13       		.uleb128 0x13
 12935 0599 00       		.byte	0
 12936 059a 00       		.byte	0
 12937 059b 61       		.uleb128 0x61
 12938 059c 34       		.uleb128 0x34
 12939 059d 00       		.byte	0
 12940 059e 03       		.uleb128 0x3
 12941 059f 0E       		.uleb128 0xe
 12942 05a0 3A       		.uleb128 0x3a
 12943 05a1 0B       		.uleb128 0xb
 12944 05a2 3B       		.uleb128 0x3b
 12945 05a3 0B       		.uleb128 0xb
 12946 05a4 49       		.uleb128 0x49
 12947 05a5 13       		.uleb128 0x13
 12948 05a6 02       		.uleb128 0x2
 12949 05a7 17       		.uleb128 0x17
 12950 05a8 00       		.byte	0
 12951 05a9 00       		.byte	0
 12952 05aa 62       		.uleb128 0x62
 12953 05ab 898201   		.uleb128 0x4109
 12954 05ae 01       		.byte	0x1
 12955 05af 11       		.uleb128 0x11
 12956 05b0 01       		.uleb128 0x1
 12957 05b1 9342     		.uleb128 0x2113
 12958 05b3 18       		.uleb128 0x18
 12959 05b4 01       		.uleb128 0x1
 12960 05b5 13       		.uleb128 0x13
 12961 05b6 00       		.byte	0
 12962 05b7 00       		.byte	0
 12963 05b8 63       		.uleb128 0x63
 12964 05b9 898201   		.uleb128 0x4109
 12965 05bc 01       		.byte	0x1
 12966 05bd 11       		.uleb128 0x11
 12967 05be 01       		.uleb128 0x1
 12968 05bf 01       		.uleb128 0x1
 12969 05c0 13       		.uleb128 0x13
 12970 05c1 00       		.byte	0
 12971 05c2 00       		.byte	0
 12972 05c3 64       		.uleb128 0x64
ARM GAS  C:\Users\jrdia\AppData\Local\Temp\ccYHzYw6.s 			page 253


 12973 05c4 05       		.uleb128 0x5
 12974 05c5 00       		.byte	0
 12975 05c6 03       		.uleb128 0x3
 12976 05c7 0E       		.uleb128 0xe
 12977 05c8 3A       		.uleb128 0x3a
 12978 05c9 0B       		.uleb128 0xb
 12979 05ca 3B       		.uleb128 0x3b
 12980 05cb 05       		.uleb128 0x5
 12981 05cc 49       		.uleb128 0x49
 12982 05cd 13       		.uleb128 0x13
 12983 05ce 02       		.uleb128 0x2
 12984 05cf 17       		.uleb128 0x17
 12985 05d0 00       		.byte	0
 12986 05d1 00       		.byte	0
 12987 05d2 65       		.uleb128 0x65
 12988 05d3 34       		.uleb128 0x34
 12989 05d4 00       		.byte	0
 12990 05d5 03       		.uleb128 0x3
 12991 05d6 08       		.uleb128 0x8
 12992 05d7 3A       		.uleb128 0x3a
 12993 05d8 0B       		.uleb128 0xb
 12994 05d9 3B       		.uleb128 0x3b
 12995 05da 05       		.uleb128 0x5
 12996 05db 49       		.uleb128 0x49
 12997 05dc 13       		.uleb128 0x13
 12998 05dd 02       		.uleb128 0x2
 12999 05de 18       		.uleb128 0x18
 13000 05df 00       		.byte	0
 13001 05e0 00       		.byte	0
 13002 05e1 66       		.uleb128 0x66
 13003 05e2 34       		.uleb128 0x34
 13004 05e3 00       		.byte	0
 13005 05e4 03       		.uleb128 0x3
 13006 05e5 0E       		.uleb128 0xe
 13007 05e6 3A       		.uleb128 0x3a
 13008 05e7 0B       		.uleb128 0xb
 13009 05e8 3B       		.uleb128 0x3b
 13010 05e9 0B       		.uleb128 0xb
 13011 05ea 49       		.uleb128 0x49
 13012 05eb 13       		.uleb128 0x13
 13013 05ec 3F       		.uleb128 0x3f
 13014 05ed 19       		.uleb128 0x19
 13015 05ee 3C       		.uleb128 0x3c
 13016 05ef 19       		.uleb128 0x19
 13017 05f0 00       		.byte	0
 13018 05f1 00       		.byte	0
 13019 05f2 67       		.uleb128 0x67
 13020 05f3 34       		.uleb128 0x34
 13021 05f4 00       		.byte	0
 13022 05f5 03       		.uleb128 0x3
 13023 05f6 0E       		.uleb128 0xe
 13024 05f7 3A       		.uleb128 0x3a
 13025 05f8 0B       		.uleb128 0xb
 13026 05f9 3B       		.uleb128 0x3b
 13027 05fa 0B       		.uleb128 0xb
 13028 05fb 49       		.uleb128 0x49
 13029 05fc 13       		.uleb128 0x13
ARM GAS  C:\Users\jrdia\AppData\Local\Temp\ccYHzYw6.s 			page 254


 13030 05fd 00       		.byte	0
 13031 05fe 00       		.byte	0
 13032 05ff 68       		.uleb128 0x68
 13033 0600 34       		.uleb128 0x34
 13034 0601 00       		.byte	0
 13035 0602 03       		.uleb128 0x3
 13036 0603 0E       		.uleb128 0xe
 13037 0604 3A       		.uleb128 0x3a
 13038 0605 0B       		.uleb128 0xb
 13039 0606 3B       		.uleb128 0x3b
 13040 0607 05       		.uleb128 0x5
 13041 0608 49       		.uleb128 0x49
 13042 0609 13       		.uleb128 0x13
 13043 060a 00       		.byte	0
 13044 060b 00       		.byte	0
 13045 060c 69       		.uleb128 0x69
 13046 060d 2E       		.uleb128 0x2e
 13047 060e 00       		.byte	0
 13048 060f 3F       		.uleb128 0x3f
 13049 0610 19       		.uleb128 0x19
 13050 0611 3C       		.uleb128 0x3c
 13051 0612 19       		.uleb128 0x19
 13052 0613 6E       		.uleb128 0x6e
 13053 0614 0E       		.uleb128 0xe
 13054 0615 03       		.uleb128 0x3
 13055 0616 0E       		.uleb128 0xe
 13056 0617 3A       		.uleb128 0x3a
 13057 0618 0B       		.uleb128 0xb
 13058 0619 3B       		.uleb128 0x3b
 13059 061a 0B       		.uleb128 0xb
 13060 061b 00       		.byte	0
 13061 061c 00       		.byte	0
 13062 061d 00       		.byte	0
 13063              		.section	.debug_loc,"",%progbits
 13064              	.Ldebug_loc0:
 13065              	.LLST0:
 13066 0000 00000000 		.4byte	.LVL3
 13067 0004 14000000 		.4byte	.LVL4
 13068 0008 0100     		.2byte	0x1
 13069 000a 50       		.byte	0x50
 13070 000b 14000000 		.4byte	.LVL4
 13071 000f 18000000 		.4byte	.LVL5
 13072 0013 0100     		.2byte	0x1
 13073 0015 53       		.byte	0x53
 13074 0016 18000000 		.4byte	.LVL5
 13075 001a 2E000000 		.4byte	.LVL8
 13076 001e 0100     		.2byte	0x1
 13077 0020 54       		.byte	0x54
 13078 0021 2E000000 		.4byte	.LVL8
 13079 0025 30000000 		.4byte	.LFE284
 13080 0029 0400     		.2byte	0x4
 13081 002b F3       		.byte	0xf3
 13082 002c 01       		.uleb128 0x1
 13083 002d 50       		.byte	0x50
 13084 002e 9F       		.byte	0x9f
 13085 002f 00000000 		.4byte	0
 13086 0033 00000000 		.4byte	0
ARM GAS  C:\Users\jrdia\AppData\Local\Temp\ccYHzYw6.s 			page 255


 13087              	.LLST1:
 13088 0037 00000000 		.4byte	.LVL9
 13089 003b 10000000 		.4byte	.LVL11
 13090 003f 0100     		.2byte	0x1
 13091 0041 50       		.byte	0x50
 13092 0042 10000000 		.4byte	.LVL11
 13093 0046 36000000 		.4byte	.LVL13
 13094 004a 0100     		.2byte	0x1
 13095 004c 54       		.byte	0x54
 13096 004d 36000000 		.4byte	.LVL13
 13097 0051 38000000 		.4byte	.LVL14
 13098 0055 0400     		.2byte	0x4
 13099 0057 F3       		.byte	0xf3
 13100 0058 01       		.uleb128 0x1
 13101 0059 50       		.byte	0x50
 13102 005a 9F       		.byte	0x9f
 13103 005b 38000000 		.4byte	.LVL14
 13104 005f A8000000 		.4byte	.LFE287
 13105 0063 0100     		.2byte	0x1
 13106 0065 54       		.byte	0x54
 13107 0066 00000000 		.4byte	0
 13108 006a 00000000 		.4byte	0
 13109              	.LLST2:
 13110 006e 0E000000 		.4byte	.LVL10
 13111 0072 10000000 		.4byte	.LVL11
 13112 0076 0100     		.2byte	0x1
 13113 0078 50       		.byte	0x50
 13114 0079 10000000 		.4byte	.LVL11
 13115 007d 34000000 		.4byte	.LVL12
 13116 0081 0100     		.2byte	0x1
 13117 0083 54       		.byte	0x54
 13118 0084 38000000 		.4byte	.LVL14
 13119 0088 A8000000 		.4byte	.LFE287
 13120 008c 0100     		.2byte	0x1
 13121 008e 54       		.byte	0x54
 13122 008f 00000000 		.4byte	0
 13123 0093 00000000 		.4byte	0
 13124              	.LLST3:
 13125 0097 00000000 		.4byte	.LVL21
 13126 009b 0B000000 		.4byte	.LVL22-1
 13127 009f 0100     		.2byte	0x1
 13128 00a1 50       		.byte	0x50
 13129 00a2 0B000000 		.4byte	.LVL22-1
 13130 00a6 16000000 		.4byte	.LVL23
 13131 00aa 0100     		.2byte	0x1
 13132 00ac 54       		.byte	0x54
 13133 00ad 16000000 		.4byte	.LVL23
 13134 00b1 18000000 		.4byte	.LVL24
 13135 00b5 0400     		.2byte	0x4
 13136 00b7 F3       		.byte	0xf3
 13137 00b8 01       		.uleb128 0x1
 13138 00b9 50       		.byte	0x50
 13139 00ba 9F       		.byte	0x9f
 13140 00bb 18000000 		.4byte	.LVL24
 13141 00bf 24000000 		.4byte	.LFE276
 13142 00c3 0100     		.2byte	0x1
 13143 00c5 54       		.byte	0x54
ARM GAS  C:\Users\jrdia\AppData\Local\Temp\ccYHzYw6.s 			page 256


 13144 00c6 00000000 		.4byte	0
 13145 00ca 00000000 		.4byte	0
 13146              	.LLST4:
 13147 00ce 00000000 		.4byte	.LVL26
 13148 00d2 1A000000 		.4byte	.LVL27
 13149 00d6 0100     		.2byte	0x1
 13150 00d8 50       		.byte	0x50
 13151 00d9 1A000000 		.4byte	.LVL27
 13152 00dd 1C000000 		.4byte	.LVL28
 13153 00e1 0400     		.2byte	0x4
 13154 00e3 F3       		.byte	0xf3
 13155 00e4 01       		.uleb128 0x1
 13156 00e5 50       		.byte	0x50
 13157 00e6 9F       		.byte	0x9f
 13158 00e7 1C000000 		.4byte	.LVL28
 13159 00eb 1D000000 		.4byte	.LVL29-1
 13160 00ef 0100     		.2byte	0x1
 13161 00f1 50       		.byte	0x50
 13162 00f2 1D000000 		.4byte	.LVL29-1
 13163 00f6 24000000 		.4byte	.LFE283
 13164 00fa 0400     		.2byte	0x4
 13165 00fc F3       		.byte	0xf3
 13166 00fd 01       		.uleb128 0x1
 13167 00fe 50       		.byte	0x50
 13168 00ff 9F       		.byte	0x9f
 13169 0100 00000000 		.4byte	0
 13170 0104 00000000 		.4byte	0
 13171              	.LLST5:
 13172 0108 00000000 		.4byte	.LVL30
 13173 010c 38000000 		.4byte	.LVL38
 13174 0110 0100     		.2byte	0x1
 13175 0112 52       		.byte	0x52
 13176 0113 38000000 		.4byte	.LVL38
 13177 0117 3C000000 		.4byte	.LVL40
 13178 011b 0500     		.2byte	0x5
 13179 011d 71       		.byte	0x71
 13180 011e 00       		.sleb128 0
 13181 011f 75       		.byte	0x75
 13182 0120 00       		.sleb128 0
 13183 0121 22       		.byte	0x22
 13184 0122 3C000000 		.4byte	.LVL40
 13185 0126 58000000 		.4byte	.LVL43
 13186 012a 0400     		.2byte	0x4
 13187 012c F3       		.byte	0xf3
 13188 012d 01       		.uleb128 0x1
 13189 012e 52       		.byte	0x52
 13190 012f 9F       		.byte	0x9f
 13191 0130 58000000 		.4byte	.LVL43
 13192 0134 6C000000 		.4byte	.LFE281
 13193 0138 0100     		.2byte	0x1
 13194 013a 52       		.byte	0x52
 13195 013b 00000000 		.4byte	0
 13196 013f 00000000 		.4byte	0
 13197              	.LLST6:
 13198 0143 00000000 		.4byte	.LVL30
 13199 0147 3A000000 		.4byte	.LVL39
 13200 014b 0100     		.2byte	0x1
ARM GAS  C:\Users\jrdia\AppData\Local\Temp\ccYHzYw6.s 			page 257


 13201 014d 53       		.byte	0x53
 13202 014e 3A000000 		.4byte	.LVL39
 13203 0152 3C000000 		.4byte	.LVL40
 13204 0156 0200     		.2byte	0x2
 13205 0158 71       		.byte	0x71
 13206 0159 10       		.sleb128 16
 13207 015a 3C000000 		.4byte	.LVL40
 13208 015e 58000000 		.4byte	.LVL43
 13209 0162 0400     		.2byte	0x4
 13210 0164 F3       		.byte	0xf3
 13211 0165 01       		.uleb128 0x1
 13212 0166 53       		.byte	0x53
 13213 0167 9F       		.byte	0x9f
 13214 0168 58000000 		.4byte	.LVL43
 13215 016c 6C000000 		.4byte	.LFE281
 13216 0170 0100     		.2byte	0x1
 13217 0172 53       		.byte	0x53
 13218 0173 00000000 		.4byte	0
 13219 0177 00000000 		.4byte	0
 13220              	.LLST7:
 13221 017b 00000000 		.4byte	.LVL30
 13222 017f 20000000 		.4byte	.LVL34
 13223 0183 0100     		.2byte	0x1
 13224 0185 51       		.byte	0x51
 13225 0186 58000000 		.4byte	.LVL43
 13226 018a 6C000000 		.4byte	.LFE281
 13227 018e 0100     		.2byte	0x1
 13228 0190 51       		.byte	0x51
 13229 0191 00000000 		.4byte	0
 13230 0195 00000000 		.4byte	0
 13231              	.LLST8:
 13232 0199 00000000 		.4byte	.LVL30
 13233 019d 20000000 		.4byte	.LVL34
 13234 01a1 0100     		.2byte	0x1
 13235 01a3 50       		.byte	0x50
 13236 01a4 58000000 		.4byte	.LVL43
 13237 01a8 6C000000 		.4byte	.LFE281
 13238 01ac 0100     		.2byte	0x1
 13239 01ae 50       		.byte	0x50
 13240 01af 00000000 		.4byte	0
 13241 01b3 00000000 		.4byte	0
 13242              	.LLST9:
 13243 01b7 12000000 		.4byte	.LVL31
 13244 01bb 18000000 		.4byte	.LVL32
 13245 01bf 0100     		.2byte	0x1
 13246 01c1 54       		.byte	0x54
 13247 01c2 18000000 		.4byte	.LVL32
 13248 01c6 1A000000 		.4byte	.LVL33
 13249 01ca 0300     		.2byte	0x3
 13250 01cc 74       		.byte	0x74
 13251 01cd 01       		.sleb128 1
 13252 01ce 9F       		.byte	0x9f
 13253 01cf 58000000 		.4byte	.LVL43
 13254 01d3 5A000000 		.4byte	.LVL44
 13255 01d7 0100     		.2byte	0x1
 13256 01d9 54       		.byte	0x54
 13257 01da 00000000 		.4byte	0
ARM GAS  C:\Users\jrdia\AppData\Local\Temp\ccYHzYw6.s 			page 258


 13258 01de 00000000 		.4byte	0
 13259              	.LLST10:
 13260 01e2 2C000000 		.4byte	.LVL35
 13261 01e6 30000000 		.4byte	.LVL36
 13262 01ea 0200     		.2byte	0x2
 13263 01ec 30       		.byte	0x30
 13264 01ed 9F       		.byte	0x9f
 13265 01ee 30000000 		.4byte	.LVL36
 13266 01f2 32000000 		.4byte	.LVL37
 13267 01f6 0200     		.2byte	0x2
 13268 01f8 31       		.byte	0x31
 13269 01f9 9F       		.byte	0x9f
 13270 01fa 32000000 		.4byte	.LVL37
 13271 01fe 58000000 		.4byte	.LVL43
 13272 0202 0200     		.2byte	0x2
 13273 0204 32       		.byte	0x32
 13274 0205 9F       		.byte	0x9f
 13275 0206 00000000 		.4byte	0
 13276 020a 00000000 		.4byte	0
 13277              	.LLST11:
 13278 020e 4A000000 		.4byte	.LVL41
 13279 0212 56000000 		.4byte	.LVL42
 13280 0216 0100     		.2byte	0x1
 13281 0218 50       		.byte	0x50
 13282 0219 00000000 		.4byte	0
 13283 021d 00000000 		.4byte	0
 13284              	.LLST12:
 13285 0221 00000000 		.4byte	.LVL45
 13286 0225 20000000 		.4byte	.LVL46
 13287 0229 0100     		.2byte	0x1
 13288 022b 50       		.byte	0x50
 13289 022c 20000000 		.4byte	.LVL46
 13290 0230 24000000 		.4byte	.LVL47
 13291 0234 0100     		.2byte	0x1
 13292 0236 53       		.byte	0x53
 13293 0237 24000000 		.4byte	.LVL47
 13294 023b 30000000 		.4byte	.LVL49
 13295 023f 0400     		.2byte	0x4
 13296 0241 F3       		.byte	0xf3
 13297 0242 01       		.uleb128 0x1
 13298 0243 50       		.byte	0x50
 13299 0244 9F       		.byte	0x9f
 13300 0245 30000000 		.4byte	.LVL49
 13301 0249 36000000 		.4byte	.LFE288
 13302 024d 0100     		.2byte	0x1
 13303 024f 50       		.byte	0x50
 13304 0250 00000000 		.4byte	0
 13305 0254 00000000 		.4byte	0
 13306              	.LLST13:
 13307 0258 00000000 		.4byte	.LVL50
 13308 025c 3F000000 		.4byte	.LVL52-1
 13309 0260 0100     		.2byte	0x1
 13310 0262 50       		.byte	0x50
 13311 0263 3F000000 		.4byte	.LVL52-1
 13312 0267 54000000 		.4byte	.LVL54
 13313 026b 0100     		.2byte	0x1
 13314 026d 54       		.byte	0x54
ARM GAS  C:\Users\jrdia\AppData\Local\Temp\ccYHzYw6.s 			page 259


 13315 026e 54000000 		.4byte	.LVL54
 13316 0272 56000000 		.4byte	.LVL55
 13317 0276 0400     		.2byte	0x4
 13318 0278 F3       		.byte	0xf3
 13319 0279 01       		.uleb128 0x1
 13320 027a 50       		.byte	0x50
 13321 027b 9F       		.byte	0x9f
 13322 027c 56000000 		.4byte	.LVL55
 13323 0280 6A000000 		.4byte	.LVL56
 13324 0284 0100     		.2byte	0x1
 13325 0286 50       		.byte	0x50
 13326 0287 6A000000 		.4byte	.LVL56
 13327 028b 7C000000 		.4byte	.LVL58
 13328 028f 0100     		.2byte	0x1
 13329 0291 54       		.byte	0x54
 13330 0292 7C000000 		.4byte	.LVL58
 13331 0296 92000000 		.4byte	.LVL59
 13332 029a 0100     		.2byte	0x1
 13333 029c 50       		.byte	0x50
 13334 029d 92000000 		.4byte	.LVL59
 13335 02a1 9E000000 		.4byte	.LVL61
 13336 02a5 0100     		.2byte	0x1
 13337 02a7 54       		.byte	0x54
 13338 02a8 9E000000 		.4byte	.LVL61
 13339 02ac A7000000 		.4byte	.LVL62-1
 13340 02b0 0100     		.2byte	0x1
 13341 02b2 50       		.byte	0x50
 13342 02b3 A7000000 		.4byte	.LVL62-1
 13343 02b7 CE000000 		.4byte	.LVL65
 13344 02bb 0100     		.2byte	0x1
 13345 02bd 54       		.byte	0x54
 13346 02be CE000000 		.4byte	.LVL65
 13347 02c2 D7000000 		.4byte	.LVL66-1
 13348 02c6 0100     		.2byte	0x1
 13349 02c8 50       		.byte	0x50
 13350 02c9 D7000000 		.4byte	.LVL66-1
 13351 02cd E0000000 		.4byte	.LVL67
 13352 02d1 0100     		.2byte	0x1
 13353 02d3 54       		.byte	0x54
 13354 02d4 E0000000 		.4byte	.LVL67
 13355 02d8 EA000000 		.4byte	.LVL68
 13356 02dc 0100     		.2byte	0x1
 13357 02de 50       		.byte	0x50
 13358 02df EA000000 		.4byte	.LVL68
 13359 02e3 FE000000 		.4byte	.LVL70
 13360 02e7 0100     		.2byte	0x1
 13361 02e9 54       		.byte	0x54
 13362 02ea FE000000 		.4byte	.LVL70
 13363 02ee 1A010000 		.4byte	.LVL71
 13364 02f2 0100     		.2byte	0x1
 13365 02f4 50       		.byte	0x50
 13366 02f5 1A010000 		.4byte	.LVL71
 13367 02f9 4A010000 		.4byte	.LVL76
 13368 02fd 0100     		.2byte	0x1
 13369 02ff 54       		.byte	0x54
 13370 0300 4A010000 		.4byte	.LVL76
 13371 0304 60010000 		.4byte	.LVL77
ARM GAS  C:\Users\jrdia\AppData\Local\Temp\ccYHzYw6.s 			page 260


 13372 0308 0100     		.2byte	0x1
 13373 030a 50       		.byte	0x50
 13374 030b 60010000 		.4byte	.LVL77
 13375 030f 6E010000 		.4byte	.LVL79
 13376 0313 0100     		.2byte	0x1
 13377 0315 54       		.byte	0x54
 13378 0316 6E010000 		.4byte	.LVL79
 13379 031a 6F010000 		.4byte	.LVL80-1
 13380 031e 0100     		.2byte	0x1
 13381 0320 50       		.byte	0x50
 13382 0321 6F010000 		.4byte	.LVL80-1
 13383 0325 84010000 		.4byte	.LFE286
 13384 0329 0100     		.2byte	0x1
 13385 032b 54       		.byte	0x54
 13386 032c 00000000 		.4byte	0
 13387 0330 00000000 		.4byte	0
 13388              	.LLST14:
 13389 0334 38000000 		.4byte	.LVL51
 13390 0338 3F000000 		.4byte	.LVL52-1
 13391 033c 0100     		.2byte	0x1
 13392 033e 50       		.byte	0x50
 13393 033f 3F000000 		.4byte	.LVL52-1
 13394 0343 4C000000 		.4byte	.LVL53
 13395 0347 0100     		.2byte	0x1
 13396 0349 54       		.byte	0x54
 13397 034a 72010000 		.4byte	.LVL81
 13398 034e 84010000 		.4byte	.LFE286
 13399 0352 0100     		.2byte	0x1
 13400 0354 54       		.byte	0x54
 13401 0355 00000000 		.4byte	0
 13402 0359 00000000 		.4byte	0
 13403              	.LLST15:
 13404 035d 00000000 		.4byte	.LVL83
 13405 0361 06000000 		.4byte	.LVL84
 13406 0365 0100     		.2byte	0x1
 13407 0367 50       		.byte	0x50
 13408 0368 06000000 		.4byte	.LVL84
 13409 036c 24000000 		.4byte	.LVL88
 13410 0370 0100     		.2byte	0x1
 13411 0372 54       		.byte	0x54
 13412 0373 24000000 		.4byte	.LVL88
 13413 0377 26000000 		.4byte	.LVL89
 13414 037b 0400     		.2byte	0x4
 13415 037d F3       		.byte	0xf3
 13416 037e 01       		.uleb128 0x1
 13417 037f 50       		.byte	0x50
 13418 0380 9F       		.byte	0x9f
 13419 0381 26000000 		.4byte	.LVL89
 13420 0385 C8020000 		.4byte	.LFE285
 13421 0389 0100     		.2byte	0x1
 13422 038b 54       		.byte	0x54
 13423 038c 00000000 		.4byte	0
 13424 0390 00000000 		.4byte	0
 13425              	.LLST16:
 13426 0394 00000000 		.4byte	.LVL83
 13427 0398 18000000 		.4byte	.LVL85
 13428 039c 0100     		.2byte	0x1
ARM GAS  C:\Users\jrdia\AppData\Local\Temp\ccYHzYw6.s 			page 261


 13429 039e 51       		.byte	0x51
 13430 039f 18000000 		.4byte	.LVL85
 13431 03a3 22000000 		.4byte	.LVL87
 13432 03a7 0100     		.2byte	0x1
 13433 03a9 55       		.byte	0x55
 13434 03aa 22000000 		.4byte	.LVL87
 13435 03ae 26000000 		.4byte	.LVL89
 13436 03b2 0400     		.2byte	0x4
 13437 03b4 F3       		.byte	0xf3
 13438 03b5 01       		.uleb128 0x1
 13439 03b6 51       		.byte	0x51
 13440 03b7 9F       		.byte	0x9f
 13441 03b8 26000000 		.4byte	.LVL89
 13442 03bc 2E000000 		.4byte	.LVL90
 13443 03c0 0100     		.2byte	0x1
 13444 03c2 51       		.byte	0x51
 13445 03c3 2E000000 		.4byte	.LVL90
 13446 03c7 78000000 		.4byte	.LVL93
 13447 03cb 0100     		.2byte	0x1
 13448 03cd 55       		.byte	0x55
 13449 03ce 78000000 		.4byte	.LVL93
 13450 03d2 80000000 		.4byte	.LVL95
 13451 03d6 0400     		.2byte	0x4
 13452 03d8 F3       		.byte	0xf3
 13453 03d9 01       		.uleb128 0x1
 13454 03da 51       		.byte	0x51
 13455 03db 9F       		.byte	0x9f
 13456 03dc 80000000 		.4byte	.LVL95
 13457 03e0 FC000000 		.4byte	.LVL98
 13458 03e4 0100     		.2byte	0x1
 13459 03e6 55       		.byte	0x55
 13460 03e7 FC000000 		.4byte	.LVL98
 13461 03eb 02010000 		.4byte	.LVL99
 13462 03ef 0300     		.2byte	0x3
 13463 03f1 75       		.byte	0x75
 13464 03f2 76       		.sleb128 -10
 13465 03f3 9F       		.byte	0x9f
 13466 03f4 02010000 		.4byte	.LVL99
 13467 03f8 09010000 		.4byte	.LVL100-1
 13468 03fc 0600     		.2byte	0x6
 13469 03fe 7D       		.byte	0x7d
 13470 03ff 00       		.sleb128 0
 13471 0400 06       		.byte	0x6
 13472 0401 3A       		.byte	0x3a
 13473 0402 1C       		.byte	0x1c
 13474 0403 9F       		.byte	0x9f
 13475 0404 09010000 		.4byte	.LVL100-1
 13476 0408 0C010000 		.4byte	.LVL101
 13477 040c 0400     		.2byte	0x4
 13478 040e F3       		.byte	0xf3
 13479 040f 01       		.uleb128 0x1
 13480 0410 51       		.byte	0x51
 13481 0411 9F       		.byte	0x9f
 13482 0412 0C010000 		.4byte	.LVL101
 13483 0416 C8020000 		.4byte	.LFE285
 13484 041a 0100     		.2byte	0x1
 13485 041c 55       		.byte	0x55
ARM GAS  C:\Users\jrdia\AppData\Local\Temp\ccYHzYw6.s 			page 262


 13486 041d 00000000 		.4byte	0
 13487 0421 00000000 		.4byte	0
 13488              	.LLST17:
 13489 0425 1A000000 		.4byte	.LVL86
 13490 0429 24000000 		.4byte	.LVL88
 13491 042d 0100     		.2byte	0x1
 13492 042f 54       		.byte	0x54
 13493 0430 24000000 		.4byte	.LVL88
 13494 0434 26000000 		.4byte	.LVL89
 13495 0438 0400     		.2byte	0x4
 13496 043a F3       		.byte	0xf3
 13497 043b 01       		.uleb128 0x1
 13498 043c 50       		.byte	0x50
 13499 043d 9F       		.byte	0x9f
 13500 043e 58000000 		.4byte	.LVL91
 13501 0442 C8020000 		.4byte	.LFE285
 13502 0446 0100     		.2byte	0x1
 13503 0448 54       		.byte	0x54
 13504 0449 00000000 		.4byte	0
 13505 044d 00000000 		.4byte	0
 13506              	.LLST18:
 13507 0451 1A000000 		.4byte	.LVL86
 13508 0455 22000000 		.4byte	.LVL87
 13509 0459 0200     		.2byte	0x2
 13510 045b 74       		.byte	0x74
 13511 045c 0C       		.sleb128 12
 13512 045d 58000000 		.4byte	.LVL91
 13513 0461 64000000 		.4byte	.LVL92
 13514 0465 0200     		.2byte	0x2
 13515 0467 74       		.byte	0x74
 13516 0468 0C       		.sleb128 12
 13517 0469 00000000 		.4byte	0
 13518 046d 00000000 		.4byte	0
 13519              	.LLST19:
 13520 0471 1A000000 		.4byte	.LVL86
 13521 0475 22000000 		.4byte	.LVL87
 13522 0479 0100     		.2byte	0x1
 13523 047b 55       		.byte	0x55
 13524 047c 58000000 		.4byte	.LVL91
 13525 0480 64000000 		.4byte	.LVL92
 13526 0484 0100     		.2byte	0x1
 13527 0486 55       		.byte	0x55
 13528 0487 00000000 		.4byte	0
 13529 048b 00000000 		.4byte	0
 13530              	.LLST20:
 13531 048f D8000000 		.4byte	.LVL96
 13532 0493 E6000000 		.4byte	.LVL97
 13533 0497 1200     		.2byte	0x12
 13534 0499 75       		.byte	0x75
 13535 049a 05       		.sleb128 5
 13536 049b 94       		.byte	0x94
 13537 049c 01       		.byte	0x1
 13538 049d 08       		.byte	0x8
 13539 049e FF       		.byte	0xff
 13540 049f 1A       		.byte	0x1a
 13541 04a0 38       		.byte	0x38
 13542 04a1 24       		.byte	0x24
ARM GAS  C:\Users\jrdia\AppData\Local\Temp\ccYHzYw6.s 			page 263


 13543 04a2 75       		.byte	0x75
 13544 04a3 04       		.sleb128 4
 13545 04a4 94       		.byte	0x94
 13546 04a5 01       		.byte	0x1
 13547 04a6 08       		.byte	0x8
 13548 04a7 FF       		.byte	0xff
 13549 04a8 1A       		.byte	0x1a
 13550 04a9 21       		.byte	0x21
 13551 04aa 9F       		.byte	0x9f
 13552 04ab B6020000 		.4byte	.LVL106
 13553 04af C1020000 		.4byte	.LVL107-1
 13554 04b3 1200     		.2byte	0x12
 13555 04b5 75       		.byte	0x75
 13556 04b6 05       		.sleb128 5
 13557 04b7 94       		.byte	0x94
 13558 04b8 01       		.byte	0x1
 13559 04b9 08       		.byte	0x8
 13560 04ba FF       		.byte	0xff
 13561 04bb 1A       		.byte	0x1a
 13562 04bc 38       		.byte	0x38
 13563 04bd 24       		.byte	0x24
 13564 04be 75       		.byte	0x75
 13565 04bf 04       		.sleb128 4
 13566 04c0 94       		.byte	0x94
 13567 04c1 01       		.byte	0x1
 13568 04c2 08       		.byte	0x8
 13569 04c3 FF       		.byte	0xff
 13570 04c4 1A       		.byte	0x1a
 13571 04c5 21       		.byte	0x21
 13572 04c6 9F       		.byte	0x9f
 13573 04c7 00000000 		.4byte	0
 13574 04cb 00000000 		.4byte	0
 13575              	.LLST21:
 13576 04cf 00000000 		.4byte	.LVL108
 13577 04d3 04000000 		.4byte	.LVL109
 13578 04d7 0100     		.2byte	0x1
 13579 04d9 50       		.byte	0x50
 13580 04da 04000000 		.4byte	.LVL109
 13581 04de 1C000000 		.4byte	.LVL111
 13582 04e2 0100     		.2byte	0x1
 13583 04e4 53       		.byte	0x53
 13584 04e5 1C000000 		.4byte	.LVL111
 13585 04e9 28000000 		.4byte	.LFE289
 13586 04ed 0400     		.2byte	0x4
 13587 04ef F3       		.byte	0xf3
 13588 04f0 01       		.uleb128 0x1
 13589 04f1 50       		.byte	0x50
 13590 04f2 9F       		.byte	0x9f
 13591 04f3 00000000 		.4byte	0
 13592 04f7 00000000 		.4byte	0
 13593              	.LLST22:
 13594 04fb 00000000 		.4byte	.LVL108
 13595 04ff 16000000 		.4byte	.LVL110
 13596 0503 0100     		.2byte	0x1
 13597 0505 51       		.byte	0x51
 13598 0506 16000000 		.4byte	.LVL110
 13599 050a 23000000 		.4byte	.LVL112-1
ARM GAS  C:\Users\jrdia\AppData\Local\Temp\ccYHzYw6.s 			page 264


 13600 050e 0200     		.2byte	0x2
 13601 0510 72       		.byte	0x72
 13602 0511 02       		.sleb128 2
 13603 0512 23000000 		.4byte	.LVL112-1
 13604 0516 28000000 		.4byte	.LFE289
 13605 051a 0400     		.2byte	0x4
 13606 051c F3       		.byte	0xf3
 13607 051d 01       		.uleb128 0x1
 13608 051e 51       		.byte	0x51
 13609 051f 9F       		.byte	0x9f
 13610 0520 00000000 		.4byte	0
 13611 0524 00000000 		.4byte	0
 13612              		.section	.debug_aranges,"",%progbits
 13613 0000 74000000 		.4byte	0x74
 13614 0004 0200     		.2byte	0x2
 13615 0006 00000000 		.4byte	.Ldebug_info0
 13616 000a 04       		.byte	0x4
 13617 000b 00       		.byte	0
 13618 000c 0000     		.2byte	0
 13619 000e 0000     		.2byte	0
 13620 0010 00000000 		.4byte	.LFB277
 13621 0014 02000000 		.4byte	.LFE277-.LFB277
 13622 0018 00000000 		.4byte	.LFB278
 13623 001c 02000000 		.4byte	.LFE278-.LFB278
 13624 0020 00000000 		.4byte	.LFB279
 13625 0024 02000000 		.4byte	.LFE279-.LFB279
 13626 0028 00000000 		.4byte	.LFB284
 13627 002c 30000000 		.4byte	.LFE284-.LFB284
 13628 0030 00000000 		.4byte	.LFB287
 13629 0034 A8000000 		.4byte	.LFE287-.LFB287
 13630 0038 00000000 		.4byte	.LFB276
 13631 003c 24000000 		.4byte	.LFE276-.LFB276
 13632 0040 00000000 		.4byte	.LFB283
 13633 0044 24000000 		.4byte	.LFE283-.LFB283
 13634 0048 00000000 		.4byte	.LFB281
 13635 004c 6C000000 		.4byte	.LFE281-.LFB281
 13636 0050 00000000 		.4byte	.LFB288
 13637 0054 36000000 		.4byte	.LFE288-.LFB288
 13638 0058 00000000 		.4byte	.LFB286
 13639 005c 84010000 		.4byte	.LFE286-.LFB286
 13640 0060 00000000 		.4byte	.LFB285
 13641 0064 C8020000 		.4byte	.LFE285-.LFB285
 13642 0068 00000000 		.4byte	.LFB289
 13643 006c 28000000 		.4byte	.LFE289-.LFB289
 13644 0070 00000000 		.4byte	0
 13645 0074 00000000 		.4byte	0
 13646              		.section	.debug_ranges,"",%progbits
 13647              	.Ldebug_ranges0:
 13648 0000 0E000000 		.4byte	.LBB26
 13649 0004 34000000 		.4byte	.LBE26
 13650 0008 38000000 		.4byte	.LBB30
 13651 000c 84000000 		.4byte	.LBE30
 13652 0010 86000000 		.4byte	.LBB31
 13653 0014 A8000000 		.4byte	.LBE31
 13654 0018 00000000 		.4byte	0
 13655 001c 00000000 		.4byte	0
 13656 0020 02000000 		.4byte	.LBB37
ARM GAS  C:\Users\jrdia\AppData\Local\Temp\ccYHzYw6.s 			page 265


 13657 0024 20000000 		.4byte	.LBE37
 13658 0028 58000000 		.4byte	.LBB51
 13659 002c 6C000000 		.4byte	.LBE51
 13660 0030 00000000 		.4byte	0
 13661 0034 00000000 		.4byte	0
 13662 0038 12000000 		.4byte	.LBB39
 13663 003c 20000000 		.4byte	.LBE39
 13664 0040 58000000 		.4byte	.LBB42
 13665 0044 6C000000 		.4byte	.LBE42
 13666 0048 00000000 		.4byte	0
 13667 004c 00000000 		.4byte	0
 13668 0050 4A000000 		.4byte	.LBB46
 13669 0054 54000000 		.4byte	.LBE46
 13670 0058 54000000 		.4byte	.LBB49
 13671 005c 56000000 		.4byte	.LBE49
 13672 0060 00000000 		.4byte	0
 13673 0064 00000000 		.4byte	0
 13674 0068 38000000 		.4byte	.LBB58
 13675 006c 4C000000 		.4byte	.LBE58
 13676 0070 72010000 		.4byte	.LBB61
 13677 0074 84010000 		.4byte	.LBE61
 13678 0078 00000000 		.4byte	0
 13679 007c 00000000 		.4byte	0
 13680 0080 1A000000 		.4byte	.LBB73
 13681 0084 22000000 		.4byte	.LBE73
 13682 0088 58000000 		.4byte	.LBB76
 13683 008c 64000000 		.4byte	.LBE76
 13684 0090 00000000 		.4byte	0
 13685 0094 00000000 		.4byte	0
 13686 0098 D8000000 		.4byte	.LBB81
 13687 009c 12010000 		.4byte	.LBE81
 13688 00a0 AC020000 		.4byte	.LBB82
 13689 00a4 C8020000 		.4byte	.LBE82
 13690 00a8 00000000 		.4byte	0
 13691 00ac 00000000 		.4byte	0
 13692 00b0 00000000 		.4byte	.LFB277
 13693 00b4 02000000 		.4byte	.LFE277
 13694 00b8 00000000 		.4byte	.LFB278
 13695 00bc 02000000 		.4byte	.LFE278
 13696 00c0 00000000 		.4byte	.LFB279
 13697 00c4 02000000 		.4byte	.LFE279
 13698 00c8 00000000 		.4byte	.LFB284
 13699 00cc 30000000 		.4byte	.LFE284
 13700 00d0 00000000 		.4byte	.LFB287
 13701 00d4 A8000000 		.4byte	.LFE287
 13702 00d8 00000000 		.4byte	.LFB276
 13703 00dc 24000000 		.4byte	.LFE276
 13704 00e0 00000000 		.4byte	.LFB283
 13705 00e4 24000000 		.4byte	.LFE283
 13706 00e8 00000000 		.4byte	.LFB281
 13707 00ec 6C000000 		.4byte	.LFE281
 13708 00f0 00000000 		.4byte	.LFB288
 13709 00f4 36000000 		.4byte	.LFE288
 13710 00f8 00000000 		.4byte	.LFB286
 13711 00fc 84010000 		.4byte	.LFE286
 13712 0100 00000000 		.4byte	.LFB285
 13713 0104 C8020000 		.4byte	.LFE285
ARM GAS  C:\Users\jrdia\AppData\Local\Temp\ccYHzYw6.s 			page 266


 13714 0108 00000000 		.4byte	.LFB289
 13715 010c 28000000 		.4byte	.LFE289
 13716 0110 00000000 		.4byte	0
 13717 0114 00000000 		.4byte	0
 13718              		.section	.debug_line,"",%progbits
 13719              	.Ldebug_line0:
 13720 0000 91040000 		.section	.debug_str,"MS",%progbits,1
 13720      0200DC01 
 13720      00000201 
 13720      FB0E0D00 
 13720      01010101 
 13721              	.LASF294:
 13722 0000 53657450 		.ascii	"SetProtocol\000"
 13722      726F746F 
 13722      636F6C00 
 13723              	.LASF61:
 13724 000c 5553425F 		.ascii	"USB_HID_DESCRIPTOR\000"
 13724      4849445F 
 13724      44455343 
 13724      52495054 
 13724      4F5200
 13725              	.LASF505:
 13726 001f 70737472 		.ascii	"pstrUsageStickFollowThough\000"
 13726      55736167 
 13726      65537469 
 13726      636B466F 
 13726      6C6C6F77 
 13727              	.LASF216:
 13728 003a 5F5A4E35 		.ascii	"_ZN5BTHID7ACLDataEPh\000"
 13728      42544849 
 13728      44374143 
 13728      4C446174 
 13728      61455068 
 13729              	.LASF811:
 13730 004f 70737472 		.ascii	"pstrUsageLightIlluminationLevel\000"
 13730      55736167 
 13730      654C6967 
 13730      6874496C 
 13730      6C756D69 
 13731              	.LASF1156:
 13732 006f 70737472 		.ascii	"pstrUsageSoftButtonID\000"
 13732      55736167 
 13732      65536F66 
 13732      74427574 
 13732      746F6E49 
 13733              	.LASF914:
 13734 0085 70737472 		.ascii	"pstrUsageALAudioPlayer\000"
 13734      55736167 
 13734      65414C41 
 13734      7564696F 
 13734      506C6179 
 13735              	.LASF1098:
 13736 009c 70737472 		.ascii	"pstrUsageDataReadBack\000"
 13736      55736167 
 13736      65446174 
 13736      61526561 
 13736      64426163 
ARM GAS  C:\Users\jrdia\AppData\Local\Temp\ccYHzYw6.s 			page 267


 13737              	.LASF847:
 13738 00b2 70737472 		.ascii	"pstrUsageALConsumerControlConfig\000"
 13738      55736167 
 13738      65414C43 
 13738      6F6E7375 
 13738      6D657243 
 13739              	.LASF616:
 13740 00d3 70737472 		.ascii	"pstrUsageFastForward\000"
 13740      55736167 
 13740      65466173 
 13740      74466F72 
 13740      77617264 
 13741              	.LASF506:
 13742 00e8 70737472 		.ascii	"pstrUsageStickTempo\000"
 13742      55736167 
 13742      65537469 
 13742      636B5465 
 13742      6D706F00 
 13743              	.LASF527:
 13744 00fc 70737472 		.ascii	"pstrUsage7Wood\000"
 13744      55736167 
 13744      6537576F 
 13744      6F6400
 13745              	.LASF330:
 13746 010b 70737472 		.ascii	"pstrSpace\000"
 13746      53706163 
 13746      6500
 13747              	.LASF50:
 13748 0115 626D4174 		.ascii	"bmAttributes\000"
 13748      74726962 
 13748      75746573 
 13748      00
 13749              	.LASF389:
 13750 0122 70737472 		.ascii	"pstrUsageVbrx\000"
 13750      55736167 
 13750      65566272 
 13750      7800
 13751              	.LASF390:
 13752 0130 70737472 		.ascii	"pstrUsageVbry\000"
 13752      55736167 
 13752      65566272 
 13752      7900
 13753              	.LASF197:
 13754 013e 636F6E74 		.ascii	"control_dcid\000"
 13754      726F6C5F 
 13754      64636964 
 13754      00
 13755              	.LASF1173:
 13756 014b 70737472 		.ascii	"pstrUsageDepth\000"
 13756      55736167 
 13756      65446570 
 13756      746800
 13757              	.LASF501:
 13758 015a 70737472 		.ascii	"pstrUsageRate\000"
 13758      55736167 
 13758      65526174 
 13758      6500
ARM GAS  C:\Users\jrdia\AppData\Local\Temp\ccYHzYw6.s 			page 268


 13759              	.LASF1088:
 13760 0168 70737472 		.ascii	"pstrUsageTwist\000"
 13760      55736167 
 13760      65547769 
 13760      737400
 13761              	.LASF161:
 13762 0177 55534244 		.ascii	"USBDeviceConfig\000"
 13762      65766963 
 13762      65436F6E 
 13762      66696700 
 13763              	.LASF538:
 13764 0187 70737472 		.ascii	"pstrUsageMoveUpDown\000"
 13764      55736167 
 13764      654D6F76 
 13764      65557044 
 13764      6F776E00 
 13765              	.LASF686:
 13766 019b 70737472 		.ascii	"pstrUsageRinger\000"
 13766      55736167 
 13766      6552696E 
 13766      67657200 
 13767              	.LASF578:
 13768 01ab 70737472 		.ascii	"pstrUsageSurroundOn\000"
 13768      55736167 
 13768      65537572 
 13768      726F756E 
 13768      644F6E00 
 13769              	.LASF654:
 13770 01bf 70737472 		.ascii	"pstrUsagePark\000"
 13770      55736167 
 13770      65506172 
 13770      6B00
 13771              	.LASF54:
 13772 01cd 32335553 		.ascii	"23USB_ENDPOINT_DESCRIPTOR\000"
 13772      425F454E 
 13772      44504F49 
 13772      4E545F44 
 13772      45534352 
 13773              	.LASF320:
 13774 01e7 68616E64 		.ascii	"handle\000"
 13774      6C6500
 13775              	.LASF491:
 13776 01ee 70737472 		.ascii	"pstrUsageVest\000"
 13776      55736167 
 13776      65566573 
 13776      7400
 13777              	.LASF648:
 13778 01fc 70737472 		.ascii	"pstrUsageHookSwitch\000"
 13778      55736167 
 13778      65486F6F 
 13778      6B537769 
 13778      74636800 
 13779              	.LASF583:
 13780 0210 70737472 		.ascii	"pstrUsageCAV\000"
 13780      55736167 
 13780      65434156 
 13780      00
ARM GAS  C:\Users\jrdia\AppData\Local\Temp\ccYHzYw6.s 			page 269


 13781              	.LASF641:
 13782 021d 70737472 		.ascii	"pstrUsagePhone\000"
 13782      55736167 
 13782      6550686F 
 13782      6E6500
 13783              	.LASF845:
 13784 022c 70737472 		.ascii	"pstrUsageALLaunchButtonConfigTool\000"
 13784      55736167 
 13784      65414C4C 
 13784      61756E63 
 13784      68427574 
 13785              	.LASF1102:
 13786 024e 70737472 		.ascii	"pstrUsageScreenSaverDelay\000"
 13786      55736167 
 13786      65536372 
 13786      65656E53 
 13786      61766572 
 13787              	.LASF222:
 13788 0268 5F5A4E35 		.ascii	"_ZN5BTHID14ParseBTHIDDataEhPh\000"
 13788      42544849 
 13788      44313450 
 13788      61727365 
 13788      42544849 
 13789              	.LASF846:
 13790 0286 70737472 		.ascii	"pstrUsageALProgrammableButton\000"
 13790      55736167 
 13790      65414C50 
 13790      726F6772 
 13790      616D6D61 
 13791              	.LASF644:
 13792 02a4 70737472 		.ascii	"pstrUsageHandset\000"
 13792      55736167 
 13792      6548616E 
 13792      64736574 
 13792      00
 13793              	.LASF650:
 13794 02b5 70737472 		.ascii	"pstrUsageFeature\000"
 13794      55736167 
 13794      65466561 
 13794      74757265 
 13794      00
 13795              	.LASF866:
 13796 02c6 70737472 		.ascii	"pstrUsageALInternetBrowser\000"
 13796      55736167 
 13796      65414C49 
 13796      6E746572 
 13796      6E657442 
 13797              	.LASF344:
 13798 02e1 70737472 		.ascii	"pstrUsagePageButton\000"
 13798      55736167 
 13798      65506167 
 13798      65427574 
 13798      746F6E00 
 13799              	.LASF569:
 13800 02f5 70737472 		.ascii	"pstrUsagePower\000"
 13800      55736167 
 13800      65506F77 
ARM GAS  C:\Users\jrdia\AppData\Local\Temp\ccYHzYw6.s 			page 270


 13800      657200
 13801              	.LASF191:
 13802 0304 636F6E6E 		.ascii	"connected\000"
 13802      65637465 
 13802      6400
 13803              	.LASF1:
 13804 030e 5F5F7569 		.ascii	"__uint8_t\000"
 13804      6E74385F 
 13804      7400
 13805              	.LASF1155:
 13806 0318 70737472 		.ascii	"pstrUsageSoftButton\000"
 13806      55736167 
 13806      65536F66 
 13806      74427574 
 13806      746F6E00 
 13807              	.LASF137:
 13808 032c 6F757454 		.ascii	"outTransfer\000"
 13808      72616E73 
 13808      66657200 
 13809              	.LASF35:
 13810 0338 626D4875 		.ascii	"bmHub\000"
 13810      6200
 13811              	.LASF1123:
 13812 033e 70737472 		.ascii	"pstrUsageFontData\000"
 13812      55736167 
 13812      65466F6E 
 13812      74446174 
 13812      6100
 13813              	.LASF1063:
 13814 0350 70737472 		.ascii	"pstrUsage3DDigitizer\000"
 13814      55736167 
 13814      65334444 
 13814      69676974 
 13814      697A6572 
 13815              	.LASF64:
 13816 0365 56425553 		.ascii	"VBUS_t\000"
 13816      5F7400
 13817              	.LASF416:
 13818 036c 70737472 		.ascii	"pstrUsageSystemUndock\000"
 13818      55736167 
 13818      65537973 
 13818      74656D55 
 13818      6E646F63 
 13819              	.LASF434:
 13820 0382 70737472 		.ascii	"pstrUsageTankSimulationDevice\000"
 13820      55736167 
 13820      6554616E 
 13820      6B53696D 
 13820      756C6174 
 13821              	.LASF238:
 13822 03a0 5F5A4E31 		.ascii	"_ZN16BluetoothServiceC4ERKS_\000"
 13822      36426C75 
 13822      65746F6F 
 13822      74685365 
 13822      72766963 
 13823              	.LASF755:
 13824 03bd 70737472 		.ascii	"pstrUsageMediaSelectCable\000"
ARM GAS  C:\Users\jrdia\AppData\Local\Temp\ccYHzYw6.s 			page 271


 13824      55736167 
 13824      654D6564 
 13824      69615365 
 13824      6C656374 
 13825              	.LASF1047:
 13826 03d7 70737472 		.ascii	"pstrUsageACInsertPicture\000"
 13826      55736167 
 13826      65414349 
 13826      6E736572 
 13826      74506963 
 13827              	.LASF675:
 13828 03f0 70737472 		.ascii	"pstrUsageOutsideRingTone\000"
 13828      55736167 
 13828      654F7574 
 13828      73696465 
 13828      52696E67 
 13829              	.LASF563:
 13830 0409 70737472 		.ascii	"pstrUsageSecurityCodeCleared\000"
 13830      55736167 
 13830      65536563 
 13830      75726974 
 13830      79436F64 
 13831              	.LASF590:
 13832 0426 70737472 		.ascii	"pstrUsageBatteryOperation\000"
 13832      55736167 
 13832      65426174 
 13832      74657279 
 13832      4F706572 
 13833              	.LASF1143:
 13834 0440 70737472 		.ascii	"pstrUsageBitDepthFormat\000"
 13834      55736167 
 13834      65426974 
 13834      44657074 
 13834      68466F72 
 13835              	.LASF698:
 13836 0458 70737472 		.ascii	"pstrUsagePhoneKeyPound\000"
 13836      55736167 
 13836      6550686F 
 13836      6E654B65 
 13836      79506F75 
 13837              	.LASF66:
 13838 046f 62797465 		.ascii	"bytesWr\000"
 13838      73577200 
 13839              	.LASF365:
 13840 0477 70737472 		.ascii	"pstrUsageJoystick\000"
 13840      55736167 
 13840      654A6F79 
 13840      73746963 
 13840      6B00
 13841              	.LASF71:
 13842 0489 72656752 		.ascii	"regRd\000"
 13842      6400
 13843              	.LASF990:
 13844 048f 70737472 		.ascii	"pstrUsageACPromote\000"
 13844      55736167 
 13844      65414350 
 13844      726F6D6F 
ARM GAS  C:\Users\jrdia\AppData\Local\Temp\ccYHzYw6.s 			page 272


 13844      746500
 13845              	.LASF987:
 13846 04a2 70737472 		.ascii	"pstrUsageACNumberedList\000"
 13846      55736167 
 13846      6541434E 
 13846      756D6265 
 13846      7265644C 
 13847              	.LASF830:
 13848 04ba 70737472 		.ascii	"pstrUsageChannelRight\000"
 13848      55736167 
 13848      65436861 
 13848      6E6E656C 
 13848      52696768 
 13849              	.LASF1075:
 13850 04d0 70737472 		.ascii	"pstrUsageTouch\000"
 13850      55736167 
 13850      65546F75 
 13850      636800
 13851              	.LASF485:
 13852 04df 70737472 		.ascii	"pstrUsageFlexor\000"
 13852      55736167 
 13852      65466C65 
 13852      786F7200 
 13853              	.LASF880:
 13854 04ef 70737472 		.ascii	"pstrUsageALPreviousTaskApplication\000"
 13854      55736167 
 13854      65414C50 
 13854      72657669 
 13854      6F757354 
 13855              	.LASF1144:
 13856 0512 70737472 		.ascii	"pstrUsageDisplayOrientation\000"
 13856      55736167 
 13856      65446973 
 13856      706C6179 
 13856      4F726965 
 13857              	.LASF549:
 13858 052e 70737472 		.ascii	"pstrUsageGunClip\000"
 13858      55736167 
 13858      6547756E 
 13858      436C6970 
 13858      00
 13859              	.LASF1003:
 13860 053f 70737472 		.ascii	"pstrUsageACPasteSpecial\000"
 13860      55736167 
 13860      65414350 
 13860      61737465 
 13860      53706563 
 13861              	.LASF1093:
 13862 0557 70737472 		.ascii	"pstrUsageTabletPick\000"
 13862      55736167 
 13862      65546162 
 13862      6C657450 
 13862      69636B00 
 13863              	.LASF471:
 13864 056b 70737472 		.ascii	"pstrUsageBrake\000"
 13864      55736167 
 13864      65427261 
ARM GAS  C:\Users\jrdia\AppData\Local\Temp\ccYHzYw6.s 			page 273


 13864      6B6500
 13865              	.LASF1180:
 13866 057a 70737472 		.ascii	"pstrUsageSpectralDopplerModeAdjust\000"
 13866      55736167 
 13866      65537065 
 13866      63747261 
 13866      6C446F70 
 13867              	.LASF1145:
 13868 059d 70737472 		.ascii	"pstrUsagePaletteReport\000"
 13868      55736167 
 13868      6550616C 
 13868      65747465 
 13868      5265706F 
 13869              	.LASF751:
 13870 05b4 70737472 		.ascii	"pstrUsageMediaSelectTuner\000"
 13870      55736167 
 13870      654D6564 
 13870      69615365 
 13870      6C656374 
 13871              	.LASF250:
 13872 05ce 48494452 		.ascii	"HIDReportParser\000"
 13872      65706F72 
 13872      74506172 
 13872      73657200 
 13873              	.LASF88:
 13874 05de 5F5A4E38 		.ascii	"_ZN8MAX3421eI4TPinI5PortbLh2EES0_IS1_Lh1EEE6gpioWrE"
 13874      4D415833 
 13874      34323165 
 13874      49345450 
 13874      696E4935 
 13875 0611 6800     		.ascii	"h\000"
 13876              	.LASF813:
 13877 0613 70737472 		.ascii	"pstrUsageRoomTemperature\000"
 13877      55736167 
 13877      65526F6F 
 13877      6D54656D 
 13877      70657261 
 13878              	.LASF94:
 13879 062c 5461736B 		.ascii	"Task\000"
 13879      00
 13880              	.LASF591:
 13881 0631 70737472 		.ascii	"pstrUsageBatteryOK\000"
 13881      55736167 
 13881      65426174 
 13881      74657279 
 13881      4F4B00
 13882              	.LASF1050:
 13883 0644 70737472 		.ascii	"pstrUsageACSaveAndClose\000"
 13883      55736167 
 13883      65414353 
 13883      61766541 
 13883      6E64436C 
 13884              	.LASF15:
 13885 065c 75696E74 		.ascii	"uint16_t\000"
 13885      31365F74 
 13885      00
 13886              	.LASF217:
ARM GAS  C:\Users\jrdia\AppData\Local\Temp\ccYHzYw6.s 			page 274


 13887 0665 52657365 		.ascii	"Reset\000"
 13887      7400
 13888              	.LASF363:
 13889 066b 70737472 		.ascii	"pstrUsagePointer\000"
 13889      55736167 
 13889      65506F69 
 13889      6E746572 
 13889      00
 13890              	.LASF143:
 13891 067c 5F5A4E33 		.ascii	"_ZN3USB17DefaultAddressingEhhb\000"
 13891      55534231 
 13891      37446566 
 13891      61756C74 
 13891      41646472 
 13892              	.LASF463:
 13893 069b 70737472 		.ascii	"pstrUsageFlareRelease\000"
 13893      55736167 
 13893      65466C61 
 13893      72655265 
 13893      6C656173 
 13894              	.LASF637:
 13895 06b1 70737472 		.ascii	"pstrUsageIndicatorAmber\000"
 13895      55736167 
 13895      65496E64 
 13895      69636174 
 13895      6F72416D 
 13896              	.LASF1112:
 13897 06c9 70737472 		.ascii	"pstrUsageErrorFotDataCanNotBeRead\000"
 13897      55736167 
 13897      65457272 
 13897      6F72466F 
 13897      74446174 
 13898              	.LASF136:
 13899 06eb 5F5A4E33 		.ascii	"_ZN3USB10inTransferEhhPtPhh\000"
 13899      55534231 
 13899      30696E54 
 13899      72616E73 
 13899      66657245 
 13900              	.LASF881:
 13901 0707 70737472 		.ascii	"pstrUsageALPreemptiveHaltTaskApp\000"
 13901      55736167 
 13901      65414C50 
 13901      7265656D 
 13901      70746976 
 13902              	.LASF341:
 13903 0728 70737472 		.ascii	"pstrUsagePageGenericDeviceControls\000"
 13903      55736167 
 13903      65506167 
 13903      6547656E 
 13903      65726963 
 13904              	.LASF729:
 13905 074b 70737472 		.ascii	"pstrUsageBroadcastMode\000"
 13905      55736167 
 13905      6542726F 
 13905      61646361 
 13905      73744D6F 
 13906              	.LASF678:
ARM GAS  C:\Users\jrdia\AppData\Local\Temp\ccYHzYw6.s 			page 275


 13907 0762 70737472 		.ascii	"pstrUsagePriorityRingback\000"
 13907      55736167 
 13907      65507269 
 13907      6F726974 
 13907      7952696E 
 13908              	.LASF114:
 13909 077c 73657455 		.ascii	"setUsbTaskState\000"
 13909      73625461 
 13909      736B5374 
 13909      61746500 
 13910              	.LASF1125:
 13911 078c 70737472 		.ascii	"pstrUsageCharacterHeight\000"
 13911      55736167 
 13911      65436861 
 13911      72616374 
 13911      65724865 
 13912              	.LASF473:
 13913 07a5 70737472 		.ascii	"pstrUsageShifter\000"
 13913      55736167 
 13913      65536869 
 13913      66746572 
 13913      00
 13914              	.LASF323:
 13915 07b6 6C656E67 		.ascii	"length\000"
 13915      746800
 13916              	.LASF1032:
 13917 07bd 70737472 		.ascii	"pstrUsageACResetAlarm\000"
 13917      55736167 
 13917      65414352 
 13917      65736574 
 13917      416C6172 
 13918              	.LASF986:
 13919 07d3 70737472 		.ascii	"pstrUsageACIndentIncrease\000"
 13919      55736167 
 13919      65414349 
 13919      6E64656E 
 13919      74496E63 
 13920              	.LASF308:
 13921 07ed 53657452 		.ascii	"SetReport\000"
 13921      65706F72 
 13921      7400
 13922              	.LASF354:
 13923 07f7 70737472 		.ascii	"pstrUsagePagePower\000"
 13923      55736167 
 13923      65506167 
 13923      65506F77 
 13923      657200
 13924              	.LASF28:
 13925 080a 626D4E61 		.ascii	"bmNakPower\000"
 13925      6B506F77 
 13925      657200
 13926              	.LASF167:
 13927 0815 52656C65 		.ascii	"Release\000"
 13927      61736500 
 13928              	.LASF783:
 13929 081d 70737472 		.ascii	"pstrUsageSearchMarkForward\000"
 13929      55736167 
ARM GAS  C:\Users\jrdia\AppData\Local\Temp\ccYHzYw6.s 			page 276


 13929      65536561 
 13929      7263684D 
 13929      61726B46 
 13930              	.LASF1060:
 13931 0838 70737472 		.ascii	"pstrUsageTouchPad\000"
 13931      55736167 
 13931      65546F75 
 13931      63685061 
 13931      6400
 13932              	.LASF540:
 13933 084a 70737472 		.ascii	"pstrUsageLeanForwardBackward\000"
 13933      55736167 
 13933      654C6561 
 13933      6E466F72 
 13933      77617264 
 13934              	.LASF403:
 13935 0867 70737472 		.ascii	"pstrUsageSystemMenuExit\000"
 13935      55736167 
 13935      65537973 
 13935      74656D4D 
 13935      656E7545 
 13936              	.LASF805:
 13937 087f 70737472 		.ascii	"pstrUsageLongPlay\000"
 13937      55736167 
 13937      654C6F6E 
 13937      67506C61 
 13937      7900
 13938              	.LASF682:
 13939 0891 70737472 		.ascii	"pstrUsageConfirmationTone1\000"
 13939      55736167 
 13939      65436F6E 
 13939      6669726D 
 13939      6174696F 
 13940              	.LASF1185:
 13941 08ac 70737472 		.ascii	"pstrUsage2DModeSelect\000"
 13941      55736167 
 13941      6532444D 
 13941      6F646553 
 13941      656C6563 
 13942              	.LASF281:
 13943 08c2 6570496E 		.ascii	"epInterruptOutIndex\000"
 13943      74657272 
 13943      7570744F 
 13943      7574496E 
 13943      64657800 
 13944              	.LASF586:
 13945 08d6 70737472 		.ascii	"pstrUsageOffHook\000"
 13945      55736167 
 13945      654F6666 
 13945      486F6F6B 
 13945      00
 13946              	.LASF843:
 13947 08e7 70737472 		.ascii	"pstrUsageAlternateAudioDecrement\000"
 13947      55736167 
 13947      65416C74 
 13947      65726E61 
 13947      74654175 
ARM GAS  C:\Users\jrdia\AppData\Local\Temp\ccYHzYw6.s 			page 277


 13948              	.LASF469:
 13949 0908 70737472 		.ascii	"pstrUsageWingFlaps\000"
 13949      55736167 
 13949      6557696E 
 13949      67466C61 
 13949      707300
 13950              	.LASF853:
 13951 091b 70737472 		.ascii	"pstrUsageALDatabaseApp\000"
 13951      55736167 
 13951      65414C44 
 13951      61746162 
 13951      61736541 
 13952              	.LASF345:
 13953 0932 70737472 		.ascii	"pstrUsagePageOrdinal\000"
 13953      55736167 
 13953      65506167 
 13953      654F7264 
 13953      696E616C 
 13954              	.LASF888:
 13955 0947 70737472 		.ascii	"pstrUsageALGrammarCheck\000"
 13955      55736167 
 13955      65414C47 
 13955      72616D6D 
 13955      61724368 
 13956              	.LASF536:
 13957 095f 70737472 		.ascii	"pstrUsageMoveRightLeft\000"
 13957      55736167 
 13957      654D6F76 
 13957      65526967 
 13957      68744C65 
 13958              	.LASF613:
 13959 0976 70737472 		.ascii	"pstrUsageReverse\000"
 13959      55736167 
 13959      65526576 
 13959      65727365 
 13959      00
 13960              	.LASF305:
 13961 0987 5F5A4E36 		.ascii	"_ZN6USBHID11GetHidDescrEhtPh\000"
 13961      55534248 
 13961      49443131 
 13961      47657448 
 13961      69644465 
 13962              	.LASF315:
 13963 09a4 456E6470 		.ascii	"EndpointXtract\000"
 13963      6F696E74 
 13963      58747261 
 13963      637400
 13964              	.LASF1004:
 13965 09b3 70737472 		.ascii	"pstrUsageACInsertMode\000"
 13965      55736167 
 13965      65414349 
 13965      6E736572 
 13965      744D6F64 
 13966              	.LASF399:
 13967 09c9 70737472 		.ascii	"pstrUsageSystemContextMenu\000"
 13967      55736167 
 13967      65537973 
ARM GAS  C:\Users\jrdia\AppData\Local\Temp\ccYHzYw6.s 			page 278


 13967      74656D43 
 13967      6F6E7465 
 13968              	.LASF602:
 13969 09e4 70737472 		.ascii	"pstrUsageStandBy\000"
 13969      55736167 
 13969      65537461 
 13969      6E644279 
 13969      00
 13970              	.LASF835:
 13971 09f5 70737472 		.ascii	"pstrUsageChannelSurround\000"
 13971      55736167 
 13971      65436861 
 13971      6E6E656C 
 13971      53757272 
 13972              	.LASF741:
 13973 0a0e 70737472 		.ascii	"pstrUsageMediaSelectTV\000"
 13973      55736167 
 13973      654D6564 
 13973      69615365 
 13973      6C656374 
 13974              	.LASF1148:
 13975 0a25 70737472 		.ascii	"pstrUsagePaletteData\000"
 13975      55736167 
 13975      6550616C 
 13975      65747465 
 13975      44617461 
 13976              	.LASF421:
 13977 0a3a 70737472 		.ascii	"pstrUsageApplicationDebuggerBreak\000"
 13977      55736167 
 13977      65417070 
 13977      6C696361 
 13977      74696F6E 
 13978              	.LASF790:
 13979 0a5c 70737472 		.ascii	"pstrUsagePlayPause\000"
 13979      55736167 
 13979      65506C61 
 13979      79506175 
 13979      736500
 13980              	.LASF1062:
 13981 0a6f 70737472 		.ascii	"pstrUsageCoordinateMeasuringMachine\000"
 13981      55736167 
 13981      65436F6F 
 13981      7264696E 
 13981      6174654D 
 13982              	.LASF26:
 13983 0a93 626D536E 		.ascii	"bmSndToggle\000"
 13983      64546F67 
 13983      676C6500 
 13984              	.LASF891:
 13985 0a9f 70737472 		.ascii	"pstrUsageALVirusProtection\000"
 13985      55736167 
 13985      65414C56 
 13985      69727573 
 13985      50726F74 
 13986              	.LASF490:
 13987 0aba 70737472 		.ascii	"pstrUsageOculometer\000"
 13987      55736167 
ARM GAS  C:\Users\jrdia\AppData\Local\Temp\ccYHzYw6.s 			page 279


 13987      654F6375 
 13987      6C6F6D65 
 13987      74657200 
 13988              	.LASF245:
 13989 0ace 61747461 		.ascii	"attachOnInit\000"
 13989      63684F6E 
 13989      496E6974 
 13989      00
 13990              	.LASF1133:
 13991 0adb 70737472 		.ascii	"pstrUsageDisplayBrightness\000"
 13991      55736167 
 13991      65446973 
 13991      706C6179 
 13991      42726967 
 13992              	.LASF379:
 13993 0af6 70737472 		.ascii	"pstrUsageWheel\000"
 13993      55736167 
 13993      65576865 
 13993      656C00
 13994              	.LASF22:
 13995 0b05 626F6F6C 		.ascii	"bool\000"
 13995      00
 13996              	.LASF921:
 13997 0b0a 70737472 		.ascii	"pstrUsageACMinimize\000"
 13997      55736167 
 13997      6541434D 
 13997      696E696D 
 13997      697A6500 
 13998              	.LASF935:
 13999 0b1e 70737472 		.ascii	"pstrUsageACBack\000"
 13999      55736167 
 13999      65414342 
 13999      61636B00 
 14000              	.LASF195:
 14001 0b2e 70726F74 		.ascii	"protocolMode\000"
 14001      6F636F6C 
 14001      4D6F6465 
 14001      00
 14002              	.LASF157:
 14003 0b3b 41747465 		.ascii	"AttemptConfig\000"
 14003      6D707443 
 14003      6F6E6669 
 14003      6700
 14004              	.LASF816:
 14005 0b49 70737472 		.ascii	"pstrUsagePoliceAlarm\000"
 14005      55736167 
 14005      65506F6C 
 14005      69636541 
 14005      6C61726D 
 14006              	.LASF283:
 14007 0b5e 6D617845 		.ascii	"maxEpPerInterface\000"
 14007      70506572 
 14007      496E7465 
 14007      72666163 
 14007      6500
 14008              	.LASF566:
 14009 0b70 70737472 		.ascii	"pstrUsageScrollLock\000"
ARM GAS  C:\Users\jrdia\AppData\Local\Temp\ccYHzYw6.s 			page 280


 14009      55736167 
 14009      65536372 
 14009      6F6C6C4C 
 14009      6F636B00 
 14010              	.LASF869:
 14011 0b84 70737472 		.ascii	"pstrUsageALNetworkChat\000"
 14011      55736167 
 14011      65414C4E 
 14011      6574776F 
 14011      726B4368 
 14012              	.LASF763:
 14013 0b9b 70737472 		.ascii	"pstrUsageVCRPlus\000"
 14013      55736167 
 14013      65564352 
 14013      506C7573 
 14013      00
 14014              	.LASF109:
 14015 0bac 5F5A4E33 		.ascii	"_ZN3USB19RegisterDeviceClassEP15USBDeviceConfig\000"
 14015      55534231 
 14015      39526567 
 14015      69737465 
 14015      72446576 
 14016              	.LASF772:
 14017 0bdc 70737472 		.ascii	"pstrUsageSelectDisk\000"
 14017      55736167 
 14017      6553656C 
 14017      65637444 
 14017      69736B00 
 14018              	.LASF251:
 14019 0bf0 5F767074 		.ascii	"_vptr.HIDReportParser\000"
 14019      722E4849 
 14019      44526570 
 14019      6F727450 
 14019      61727365 
 14020              	.LASF103:
 14021 0c06 5F5A4E33 		.ascii	"_ZN3USB13SetHubPreMaskEv\000"
 14021      55534231 
 14021      33536574 
 14021      48756250 
 14021      72654D61 
 14022              	.LASF727:
 14023 0c1f 70737472 		.ascii	"pstrUsageClosedCaptionSelect\000"
 14023      55736167 
 14023      65436C6F 
 14023      73656443 
 14023      61707469 
 14024              	.LASF542:
 14025 0c3c 70737472 		.ascii	"pstrUsageFlipper\000"
 14025      55736167 
 14025      65466C69 
 14025      70706572 
 14025      00
 14026              	.LASF628:
 14027 0c4d 70737472 		.ascii	"pstrUsageIndicatorOff\000"
 14027      55736167 
 14027      65496E64 
 14027      69636174 
ARM GAS  C:\Users\jrdia\AppData\Local\Temp\ccYHzYw6.s 			page 281


 14027      6F724F66 
 14028              	.LASF544:
 14029 0c63 70737472 		.ascii	"pstrUsageBump\000"
 14029      55736167 
 14029      6542756D 
 14029      7000
 14030              	.LASF364:
 14031 0c71 70737472 		.ascii	"pstrUsageMouse\000"
 14031      55736167 
 14031      654D6F75 
 14031      736500
 14032              	.LASF1132:
 14033 0c80 70737472 		.ascii	"pstrUsage14SegmentDirectMap\000"
 14033      55736167 
 14033      65313453 
 14033      65676D65 
 14033      6E744469 
 14034              	.LASF655:
 14035 0c9c 70737472 		.ascii	"pstrUsageForwardCalls\000"
 14035      55736167 
 14035      65466F72 
 14035      77617264 
 14035      43616C6C 
 14036              	.LASF84:
 14037 0cb2 5F5A4E38 		.ascii	"_ZN8MAX3421eI4TPinI5PortbLh2EES0_IS1_Lh1EEE9vbusPow"
 14037      4D415833 
 14037      34323165 
 14037      49345450 
 14037      696E4935 
 14038 0ce5 65724536 		.ascii	"erE6VBUS_t\000"
 14038      56425553 
 14038      5F7400
 14039              	.LASF1178:
 14040 0cf0 70737472 		.ascii	"pstrUsageZoomAdjust\000"
 14040      55736167 
 14040      655A6F6F 
 14040      6D41646A 
 14040      75737400 
 14041              	.LASF1074:
 14042 0d04 70737472 		.ascii	"pstrUsageInRange\000"
 14042      55736167 
 14042      65496E52 
 14042      616E6765 
 14042      00
 14043              	.LASF524:
 14044 0d15 70737472 		.ascii	"pstrUsage1Wood\000"
 14044      55736167 
 14044      6531576F 
 14044      6F6400
 14045              	.LASF1174:
 14046 0d24 70737472 		.ascii	"pstrUsageSoftStepPrimary\000"
 14046      55736167 
 14046      65536F66 
 14046      74537465 
 14046      70507269 
 14047              	.LASF923:
 14048 0d3d 70737472 		.ascii	"pstrUsageACPrint\000"
ARM GAS  C:\Users\jrdia\AppData\Local\Temp\ccYHzYw6.s 			page 282


 14048      55736167 
 14048      65414350 
 14048      72696E74 
 14048      00
 14049              	.LASF760:
 14050 0d4e 70737472 		.ascii	"pstrUsageChannelIncrement\000"
 14050      55736167 
 14050      65436861 
 14050      6E6E656C 
 14050      496E6372 
 14051              	.LASF480:
 14052 0d68 70737472 		.ascii	"pstrUsageHandleBars\000"
 14052      55736167 
 14052      6548616E 
 14052      646C6542 
 14052      61727300 
 14053              	.LASF1036:
 14054 0d7c 70737472 		.ascii	"pstrUsageACReply\000"
 14054      55736167 
 14054      65414352 
 14054      65706C79 
 14054      00
 14055              	.LASF105:
 14056 0d8d 5F5A4E33 		.ascii	"_ZN3USB15ResetHubPreMaskEv\000"
 14056      55534231 
 14056      35526573 
 14056      65744875 
 14056      62507265 
 14057              	.LASF1136:
 14058 0da8 70737472 		.ascii	"pstrUsageAttributeReadback\000"
 14058      55736167 
 14058      65417474 
 14058      72696275 
 14058      74655265 
 14059              	.LASF439:
 14060 0dc3 70737472 		.ascii	"pstrUsageSportsSimulationDevice\000"
 14060      55736167 
 14060      6553706F 
 14060      72747353 
 14060      696D756C 
 14061              	.LASF428:
 14062 0de3 70737472 		.ascii	"pstrUsageSystemDisplayDual\000"
 14062      55736167 
 14062      65537973 
 14062      74656D44 
 14062      6973706C 
 14063              	.LASF69:
 14064 0dfe 72656757 		.ascii	"regWr\000"
 14064      7200
 14065              	.LASF683:
 14066 0e04 70737472 		.ascii	"pstrUsageConfirmationTone2\000"
 14066      55736167 
 14066      65436F6E 
 14066      6669726D 
 14066      6174696F 
 14067              	.LASF588:
 14068 0e1f 70737472 		.ascii	"pstrUsageMessageWaiting\000"
ARM GAS  C:\Users\jrdia\AppData\Local\Temp\ccYHzYw6.s 			page 283


 14068      55736167 
 14068      654D6573 
 14068      73616765 
 14068      57616974 
 14069              	.LASF1017:
 14070 0e37 70737472 		.ascii	"pstrUsageACSelectRow\000"
 14070      55736167 
 14070      65414353 
 14070      656C6563 
 14070      74526F77 
 14071              	.LASF1190:
 14072 0e4c 42544849 		.ascii	"BTHID.c\000"
 14072      442E6300 
 14073              	.LASF1191:
 14074 0e54 433A5C55 		.ascii	"C:\\Users\\jrdia\\OneDrive\\Sync\\Documents\\GitHub"
 14074      73657273 
 14074      5C6A7264 
 14074      69615C4F 
 14074      6E654472 
 14075 0e81 5C50536F 		.ascii	"\\PSoC-Bluetooth-Dualshock\\Bluetooth_Dev.cydsn\000"
 14075      432D426C 
 14075      7565746F 
 14075      6F74682D 
 14075      4475616C 
 14076              	.LASF52:
 14077 0eaf 62496E74 		.ascii	"bInterval\000"
 14077      65727661 
 14077      6C00
 14078              	.LASF665:
 14079 0eb9 70737472 		.ascii	"pstrUsageStoreNumber\000"
 14079      55736167 
 14079      6553746F 
 14079      72654E75 
 14079      6D626572 
 14080              	.LASF1005:
 14081 0ece 70737472 		.ascii	"pstrUsageACDelete\000"
 14081      55736167 
 14081      65414344 
 14081      656C6574 
 14081      6500
 14082              	.LASF495:
 14083 0ee0 70737472 		.ascii	"pstrUsageBaseballBat\000"
 14083      55736167 
 14083      65426173 
 14083      6562616C 
 14083      6C426174 
 14084              	.LASF916:
 14085 0ef5 70737472 		.ascii	"pstrUsageACNew\000"
 14085      55736167 
 14085      6541434E 
 14085      657700
 14086              	.LASF422:
 14087 0f04 70737472 		.ascii	"pstrUsageSystemSpeakerMute\000"
 14087      55736167 
 14087      65537973 
 14087      74656D53 
 14087      7065616B 
ARM GAS  C:\Users\jrdia\AppData\Local\Temp\ccYHzYw6.s 			page 284


 14088              	.LASF920:
 14089 0f1f 70737472 		.ascii	"pstrUsageACMaximize\000"
 14089      55736167 
 14089      6541434D 
 14089      6178696D 
 14089      697A6500 
 14090              	.LASF826:
 14091 0f33 70737472 		.ascii	"pstrUsageTrebleIncrement\000"
 14091      55736167 
 14091      65547265 
 14091      626C6549 
 14091      6E637265 
 14092              	.LASF85:
 14093 0f4c 67657456 		.ascii	"getVbusState\000"
 14093      62757353 
 14093      74617465 
 14093      00
 14094              	.LASF1002:
 14095 0f59 70737472 		.ascii	"pstrUsageACPrintPreview\000"
 14095      55736167 
 14095      65414350 
 14095      72696E74 
 14095      50726576 
 14096              	.LASF123:
 14097 0f71 5F5A4E33 		.ascii	"_ZN3USB12getConfDescrEhhthPh\000"
 14097      55534231 
 14097      32676574 
 14097      436F6E66 
 14097      44657363 
 14098              	.LASF488:
 14099 0f8e 70737472 		.ascii	"pstrUsageHeadMountedDisplay\000"
 14099      55736167 
 14099      65486561 
 14099      644D6F75 
 14099      6E746564 
 14100              	.LASF945:
 14101 0faa 70737472 		.ascii	"pstrUsageACZoomOut\000"
 14101      55736167 
 14101      6541435A 
 14101      6F6F6D4F 
 14101      757400
 14102              	.LASF989:
 14103 0fbd 70737472 		.ascii	"pstrUsageACBulletedList\000"
 14103      55736167 
 14103      65414342 
 14103      756C6C65 
 14103      7465644C 
 14104              	.LASF179:
 14105 0fd5 5F5A4E31 		.ascii	"_ZN15USBDeviceConfig12ResetHubPortEh\000"
 14105      35555342 
 14105      44657669 
 14105      6365436F 
 14105      6E666967 
 14106              	.LASF521:
 14107 0ffa 70737472 		.ascii	"pstrUsageSandWedge\000"
 14107      55736167 
 14107      6553616E 
ARM GAS  C:\Users\jrdia\AppData\Local\Temp\ccYHzYw6.s 			page 285


 14107      64576564 
 14107      676500
 14108              	.LASF933:
 14109 100d 70737472 		.ascii	"pstrUsageACGoto\000"
 14109      55736167 
 14109      65414347 
 14109      6F746F00 
 14110              	.LASF551:
 14111 101d 70737472 		.ascii	"pstrUsageGunSingleShot\000"
 14111      55736167 
 14111      6547756E 
 14111      53696E67 
 14111      6C655368 
 14112              	.LASF146:
 14113 1034 52656C65 		.ascii	"ReleaseDevice\000"
 14113      61736544 
 14113      65766963 
 14113      6500
 14114              	.LASF793:
 14115 1042 70737472 		.ascii	"pstrUsageBalance\000"
 14115      55736167 
 14115      6542616C 
 14115      616E6365 
 14115      00
 14116              	.LASF289:
 14117 1053 5F5A4E36 		.ascii	"_ZN6USBHID15GetReportParserEh\000"
 14117      55534248 
 14117      49443135 
 14117      47657452 
 14117      65706F72 
 14118              	.LASF1051:
 14119 1071 70737472 		.ascii	"pstrUsageACRename\000"
 14119      55736167 
 14119      65414352 
 14119      656E616D 
 14119      6500
 14120              	.LASF612:
 14121 1083 70737472 		.ascii	"pstrUsageForward\000"
 14121      55736167 
 14121      65466F72 
 14121      77617264 
 14121      00
 14122              	.LASF1035:
 14123 1094 70737472 		.ascii	"pstrUsageACSendTo\000"
 14123      55736167 
 14123      65414353 
 14123      656E6454 
 14123      6F00
 14124              	.LASF926:
 14125 10a6 70737472 		.ascii	"pstrUsageACCopy\000"
 14125      55736167 
 14125      65414343 
 14125      6F707900 
 14126              	.LASF1197:
 14127 10b6 5F5A4E35 		.ascii	"_ZN5BTHID10L2CAP_taskEv\000"
 14127      42544849 
 14127      4431304C 
ARM GAS  C:\Users\jrdia\AppData\Local\Temp\ccYHzYw6.s 			page 286


 14127      32434150 
 14127      5F746173 
 14128              	.LASF964:
 14129 10ce 70737472 		.ascii	"pstrUsageACStrikethrough\000"
 14129      55736167 
 14129      65414353 
 14129      7472696B 
 14129      65746872 
 14130              	.LASF640:
 14131 10e7 70737472 		.ascii	"pstrUsageExternalPowerConnected\000"
 14131      55736167 
 14131      65457874 
 14131      65726E61 
 14131      6C506F77 
 14132              	.LASF100:
 14133 1107 64657643 		.ascii	"devConfig\000"
 14133      6F6E6669 
 14133      6700
 14134              	.LASF787:
 14135 1111 70737472 		.ascii	"pstrUsageTrackingIncrement\000"
 14135      55736167 
 14135      65547261 
 14135      636B696E 
 14135      67496E63 
 14136              	.LASF234:
 14137 112c 6C326361 		.ascii	"l2cap_event_flag\000"
 14137      705F6576 
 14137      656E745F 
 14137      666C6167 
 14137      00
 14138              	.LASF731:
 14139 113d 70737472 		.ascii	"pstrUsageStill\000"
 14139      55736167 
 14139      65537469 
 14139      6C6C00
 14140              	.LASF383:
 14141 114c 70737472 		.ascii	"pstrUsageMotionWakeup\000"
 14141      55736167 
 14141      654D6F74 
 14141      696F6E57 
 14141      616B6575 
 14142              	.LASF224:
 14143 1162 5F5A4E35 		.ascii	"_ZN5BTHID11OnInitBTHIDEv\000"
 14143      42544849 
 14143      4431314F 
 14143      6E496E69 
 14143      74425448 
 14144              	.LASF598:
 14145 117b 70737472 		.ascii	"pstrUsageNightMode\000"
 14145      55736167 
 14145      654E6967 
 14145      68744D6F 
 14145      646500
 14146              	.LASF642:
 14147 118e 70737472 		.ascii	"pstrUsageAnsweringMachine\000"
 14147      55736167 
 14147      65416E73 
ARM GAS  C:\Users\jrdia\AppData\Local\Temp\ccYHzYw6.s 			page 287


 14147      77657269 
 14147      6E674D61 
 14148              	.LASF286:
 14149 11a8 5F5A4E36 		.ascii	"_ZN6USBHID23PrintEndpointDescriptorEPK23USB_ENDPOIN"
 14149      55534248 
 14149      49443233 
 14149      5072696E 
 14149      74456E64 
 14150 11db 545F4445 		.ascii	"T_DESCRIPTOR\000"
 14150      53435249 
 14150      50544F52 
 14150      00
 14151              	.LASF1192:
 14152 11e8 4C6F6F6B 		.ascii	"LookaheadMode\000"
 14152      61686561 
 14152      644D6F64 
 14152      6500
 14153              	.LASF99:
 14154 11f6 61646472 		.ascii	"addrPool\000"
 14154      506F6F6C 
 14154      00
 14155              	.LASF442:
 14156 11ff 70737472 		.ascii	"pstrUsageMagicCarpetSimulationDevice\000"
 14156      55736167 
 14156      654D6167 
 14156      69634361 
 14156      72706574 
 14157              	.LASF997:
 14158 1224 70737472 		.ascii	"pstrUsageACAddToCart\000"
 14158      55736167 
 14158      65414341 
 14158      6464546F 
 14158      43617274 
 14159              	.LASF127:
 14160 1239 73657441 		.ascii	"setAddr\000"
 14160      64647200 
 14161              	.LASF343:
 14162 1241 70737472 		.ascii	"pstrUsagePageLEDs\000"
 14162      55736167 
 14162      65506167 
 14162      654C4544 
 14162      7300
 14163              	.LASF1171:
 14164 1253 70737472 		.ascii	"pstrUsageTransmitPower\000"
 14164      55736167 
 14164      65547261 
 14164      6E736D69 
 14164      74506F77 
 14165              	.LASF1023:
 14166 126a 70737472 		.ascii	"pstrUsageACSortDescending\000"
 14166      55736167 
 14166      65414353 
 14166      6F727444 
 14166      65736365 
 14167              	.LASF713:
 14168 1284 70737472 		.ascii	"pstrUsageSleepMode\000"
 14168      55736167 
ARM GAS  C:\Users\jrdia\AppData\Local\Temp\ccYHzYw6.s 			page 288


 14168      65536C65 
 14168      65704D6F 
 14168      646500
 14169              	.LASF1139:
 14170 1297 70737472 		.ascii	"pstrUsageCharAttributeUnderline\000"
 14170      55736167 
 14170      65436861 
 14170      72417474 
 14170      72696275 
 14171              	.LASF850:
 14172 12b7 70737472 		.ascii	"pstrUsageALSpreadsheet\000"
 14172      55736167 
 14172      65414C53 
 14172      70726561 
 14172      64736865 
 14173              	.LASF190:
 14174 12ce 76627573 		.ascii	"vbusState\000"
 14174      53746174 
 14174      6500
 14175              	.LASF518:
 14176 12d8 70737472 		.ascii	"pstrUsage9Iron\000"
 14176      55736167 
 14176      65394972 
 14176      6F6E00
 14177              	.LASF1187:
 14178 12e7 70737472 		.ascii	"pstrUsageSoftControlSelect\000"
 14178      55736167 
 14178      65536F66 
 14178      74436F6E 
 14178      74726F6C 
 14179              	.LASF397:
 14180 1302 70737472 		.ascii	"pstrUsageSystemSleep\000"
 14180      55736167 
 14180      65537973 
 14180      74656D53 
 14180      6C656570 
 14181              	.LASF1042:
 14182 1317 70737472 		.ascii	"pstrUsageACDownload\000"
 14182      55736167 
 14182      65414344 
 14182      6F776E6C 
 14182      6F616400 
 14183              	.LASF1020:
 14184 132b 70737472 		.ascii	"pstrUsageACRedoRepeat\000"
 14184      55736167 
 14184      65414352 
 14184      65646F52 
 14184      65706561 
 14185              	.LASF226:
 14186 1341 5F5A4E35 		.ascii	"_ZN5BTHID10ResetBTHIDEv\000"
 14186      42544849 
 14186      44313052 
 14186      65736574 
 14186      42544849 
 14187              	.LASF1041:
 14188 1359 70737472 		.ascii	"pstrUsageACUpload\000"
 14188      55736167 
ARM GAS  C:\Users\jrdia\AppData\Local\Temp\ccYHzYw6.s 			page 289


 14188      65414355 
 14188      706C6F61 
 14188      6400
 14189              	.LASF89:
 14190 136b 5F5A4E38 		.ascii	"_ZN8MAX3421eI4TPinI5PortbLh2EES0_IS1_Lh1EEE8busprob"
 14190      4D415833 
 14190      34323165 
 14190      49345450 
 14190      696E4935 
 14191 139e 65457600 		.ascii	"eEv\000"
 14192              	.LASF1008:
 14193 13a2 70737472 		.ascii	"pstrUsageACProtect\000"
 14193      55736167 
 14193      65414350 
 14193      726F7465 
 14193      637400
 14194              	.LASF246:
 14195 13b5 5F5A4E31 		.ascii	"_ZN16BluetoothService12attachOnInitEPFvvE\000"
 14195      36426C75 
 14195      65746F6F 
 14195      74685365 
 14195      72766963 
 14196              	.LASF573:
 14197 13df 70737472 		.ascii	"pstrUsageToneEnable\000"
 14197      55736167 
 14197      65546F6E 
 14197      65456E61 
 14197      626C6500 
 14198              	.LASF409:
 14199 13f3 70737472 		.ascii	"pstrUsageSystemColdRestart\000"
 14199      55736167 
 14199      65537973 
 14199      74656D43 
 14199      6F6C6452 
 14200              	.LASF329:
 14201 140e 50494E42 		.ascii	"PINB\000"
 14201      00
 14202              	.LASF443:
 14203 1413 70737472 		.ascii	"pstrUsageBicycleSimulationDevice\000"
 14203      55736167 
 14203      65426963 
 14203      79636C65 
 14203      53696D75 
 14204              	.LASF93:
 14205 1434 5F5A4E38 		.ascii	"_ZN8MAX3421eI4TPinI5PortbLh2EES0_IS1_Lh1EEE10IntHan"
 14205      4D415833 
 14205      34323165 
 14205      49345450 
 14205      696E4935 
 14206 1467 646C6572 		.ascii	"dlerEv\000"
 14206      457600
 14207              	.LASF915:
 14208 146e 70737472 		.ascii	"pstrUsageGenericGUIAppControls\000"
 14208      55736167 
 14208      6547656E 
 14208      65726963 
 14208      47554941 
ARM GAS  C:\Users\jrdia\AppData\Local\Temp\ccYHzYw6.s 			page 290


 14209              	.LASF96:
 14210 148d 5350495F 		.ascii	"SPI_SS\000"
 14210      535300
 14211              	.LASF1077:
 14212 1494 70737472 		.ascii	"pstrUsageTap\000"
 14212      55736167 
 14212      65546170 
 14212      00
 14213              	.LASF407:
 14214 14a1 70737472 		.ascii	"pstrUsageSystemMenuUp\000"
 14214      55736167 
 14214      65537973 
 14214      74656D4D 
 14214      656E7555 
 14215              	.LASF78:
 14216 14b7 5F5A4E38 		.ascii	"_ZN8MAX3421eI4TPinI5PortbLh2EES0_IS1_Lh1EEE5resetEv"
 14216      4D415833 
 14216      34323165 
 14216      49345450 
 14216      696E4935 
 14217 14ea 00       		.ascii	"\000"
 14218              	.LASF317:
 14219 14eb 5F5A4E31 		.ascii	"_ZN17UsbConfigXtracter14EndpointXtractEhhhhPK23USB_"
 14219      37557362 
 14219      436F6E66 
 14219      69675874 
 14219      72616374 
 14220 151e 454E4450 		.ascii	"ENDPOINT_DESCRIPTOR\000"
 14220      4F494E54 
 14220      5F444553 
 14220      43524950 
 14220      544F5200 
 14221              	.LASF584:
 14222 1532 70737472 		.ascii	"pstrUsageCLV\000"
 14222      55736167 
 14222      65434C56 
 14222      00
 14223              	.LASF369:
 14224 153f 70737472 		.ascii	"pstrUsageMultiAxisController\000"
 14224      55736167 
 14224      654D756C 
 14224      74694178 
 14224      6973436F 
 14225              	.LASF773:
 14226 155c 70737472 		.ascii	"pstrUsageEnterDisk\000"
 14226      55736167 
 14226      65456E74 
 14226      65724469 
 14226      736B00
 14227              	.LASF988:
 14228 156f 70737472 		.ascii	"pstrUsageACRestartNumbering\000"
 14228      55736167 
 14228      65414352 
 14228      65737461 
 14228      72744E75 
 14229              	.LASF574:
 14230 158b 70737472 		.ascii	"pstrUsageHighCutFilter\000"
ARM GAS  C:\Users\jrdia\AppData\Local\Temp\ccYHzYw6.s 			page 291


 14230      55736167 
 14230      65486967 
 14230      68437574 
 14230      46696C74 
 14231              	.LASF204:
 14232 15a2 47657452 		.ascii	"GetReportParser\000"
 14232      65706F72 
 14232      74506172 
 14232      73657200 
 14233              	.LASF310:
 14234 15b2 55736243 		.ascii	"UsbConfigXtracter\000"
 14234      6F6E6669 
 14234      67587472 
 14234      61637465 
 14234      7200
 14235              	.LASF824:
 14236 15c4 70737472 		.ascii	"pstrUsageBassIncrement\000"
 14236      55736167 
 14236      65426173 
 14236      73496E63 
 14236      72656D65 
 14237              	.LASF271:
 14238 15db 5F5A4E33 		.ascii	"_ZN3BTD14hci_disconnectEt\000"
 14238      42544431 
 14238      34686369 
 14238      5F646973 
 14238      636F6E6E 
 14239              	.LASF632:
 14240 15f5 70737472 		.ascii	"pstrUsageFastBlinkOnTime\000"
 14240      55736167 
 14240      65466173 
 14240      74426C69 
 14240      6E6B4F6E 
 14241              	.LASF956:
 14242 160e 70737472 		.ascii	"pstrUsageACNewWindow\000"
 14242      55736167 
 14242      6541434E 
 14242      65775769 
 14242      6E646F77 
 14243              	.LASF356:
 14244 1623 70737472 		.ascii	"pstrUsagePageScale\000"
 14244      55736167 
 14244      65506167 
 14244      65536361 
 14244      6C6500
 14245              	.LASF951:
 14246 1636 70737472 		.ascii	"pstrUsageACScrollDown\000"
 14246      55736167 
 14246      65414353 
 14246      63726F6C 
 14246      6C446F77 
 14247              	.LASF5:
 14248 164c 5F5F7569 		.ascii	"__uint16_t\000"
 14248      6E743136 
 14248      5F7400
 14249              	.LASF263:
 14250 1657 6C326361 		.ascii	"l2cap_disconnection_request\000"
ARM GAS  C:\Users\jrdia\AppData\Local\Temp\ccYHzYw6.s 			page 292


 14250      705F6469 
 14250      73636F6E 
 14250      6E656374 
 14250      696F6E5F 
 14251              	.LASF592:
 14252 1673 70737472 		.ascii	"pstrUsageBatteryLow\000"
 14252      55736167 
 14252      65426174 
 14252      74657279 
 14252      4C6F7700 
 14253              	.LASF273:
 14254 1687 5F5A4E33 		.ascii	"_ZN3BTD21l2cap_config_responseEthPh\000"
 14254      42544432 
 14254      316C3263 
 14254      61705F63 
 14254      6F6E6669 
 14255              	.LASF735:
 14256 16ab 70737472 		.ascii	"pstrUsageRecallLast\000"
 14256      55736167 
 14256      65526563 
 14256      616C6C4C 
 14256      61737400 
 14257              	.LASF138:
 14258 16bf 5F5A4E33 		.ascii	"_ZN3USB11outTransferEhhtPh\000"
 14258      55534231 
 14258      316F7574 
 14258      5472616E 
 14258      73666572 
 14259              	.LASF1072:
 14260 16da 70737472 		.ascii	"pstrUsageTipPressure\000"
 14260      55736167 
 14260      65546970 
 14260      50726573 
 14260      73757265 
 14261              	.LASF452:
 14262 16ef 70737472 		.ascii	"pstrUsageAntiTorqueControl\000"
 14262      55736167 
 14262      65416E74 
 14262      69546F72 
 14262      71756543 
 14263              	.LASF432:
 14264 170a 70737472 		.ascii	"pstrUsageFlightSimulationDevice\000"
 14264      55736167 
 14264      65466C69 
 14264      67687453 
 14264      696D756C 
 14265              	.LASF607:
 14266 172a 70737472 		.ascii	"pstrUsageBusy\000"
 14266      55736167 
 14266      65427573 
 14266      7900
 14267              	.LASF410:
 14268 1738 70737472 		.ascii	"pstrUsageSystemWarmRestart\000"
 14268      55736167 
 14268      65537973 
 14268      74656D57 
 14268      61726D52 
ARM GAS  C:\Users\jrdia\AppData\Local\Temp\ccYHzYw6.s 			page 293


 14269              	.LASF807:
 14270 1753 70737472 		.ascii	"pstrUsageSlow\000"
 14270      55736167 
 14270      65536C6F 
 14270      7700
 14271              	.LASF149:
 14272 1761 5F5A4E33 		.ascii	"_ZN3USB7ctrlReqEhhhhhhtttPhP13USBReadParser\000"
 14272      55534237 
 14272      6374726C 
 14272      52657145 
 14272      68686868 
 14273              	.LASF1172:
 14274 178d 70737472 		.ascii	"pstrUsageFocus\000"
 14274      55736167 
 14274      65466F63 
 14274      757300
 14275              	.LASF547:
 14276 179c 70737472 		.ascii	"pstrUsagePlayer\000"
 14276      55736167 
 14276      65506C61 
 14276      79657200 
 14277              	.LASF181:
 14278 17ac 41646472 		.ascii	"AddressPool\000"
 14278      65737350 
 14278      6F6F6C00 
 14279              	.LASF189:
 14280 17b8 42544849 		.ascii	"BTHID\000"
 14280      4400
 14281              	.LASF68:
 14282 17be 5F5A4E38 		.ascii	"_ZN8MAX3421eI4TPinI5PortbLh2EES0_IS1_Lh1EEE7bytesWr"
 14282      4D415833 
 14282      34323165 
 14282      49345450 
 14282      696E4935 
 14283 17f1 45686850 		.ascii	"EhhPh\000"
 14283      6800
 14284              	.LASF23:
 14285 17f7 534B4950 		.ascii	"SKIP_ALL\000"
 14285      5F414C4C 
 14285      00
 14286              	.LASF715:
 14287 1800 70737472 		.ascii	"pstrUsageFunctionButtons\000"
 14287      55736167 
 14287      6546756E 
 14287      6374696F 
 14287      6E427574 
 14288              	.LASF666:
 14289 1819 70737472 		.ascii	"pstrUsageRecallNumber\000"
 14289      55736167 
 14289      65526563 
 14289      616C6C4E 
 14289      756D6265 
 14290              	.LASF883:
 14291 182f 70737472 		.ascii	"pstrUsageALDocuments\000"
 14291      55736167 
 14291      65414C44 
 14291      6F63756D 
ARM GAS  C:\Users\jrdia\AppData\Local\Temp\ccYHzYw6.s 			page 294


 14291      656E7473 
 14292              	.LASF855:
 14293 1844 70737472 		.ascii	"pstrUsageALNewsreader\000"
 14293      55736167 
 14293      65414C4E 
 14293      65777372 
 14293      65616465 
 14294              	.LASF833:
 14295 185a 70737472 		.ascii	"pstrUsageChannelCenterFront\000"
 14295      55736167 
 14295      65436861 
 14295      6E6E656C 
 14295      43656E74 
 14296              	.LASF129:
 14297 1876 73657443 		.ascii	"setConf\000"
 14297      6F6E6600 
 14298              	.LASF724:
 14299 187e 70737472 		.ascii	"pstrUsageMenuValueDecrease\000"
 14299      55736167 
 14299      654D656E 
 14299      7556616C 
 14299      75654465 
 14300              	.LASF1079:
 14301 1899 70737472 		.ascii	"pstrUsageDataValid\000"
 14301      55736167 
 14301      65446174 
 14301      6156616C 
 14301      696400
 14302              	.LASF946:
 14303 18ac 70737472 		.ascii	"pstrUsageACZoom\000"
 14303      55736167 
 14303      6541435A 
 14303      6F6F6D00 
 14304              	.LASF1149:
 14305 18bc 70737472 		.ascii	"pstrUsageBlitReport\000"
 14305      55736167 
 14305      65426C69 
 14305      74526570 
 14305      6F727400 
 14306              	.LASF173:
 14307 18d0 56494450 		.ascii	"VIDPIDOK\000"
 14307      49444F4B 
 14307      00
 14308              	.LASF1114:
 14309 18d9 70737472 		.ascii	"pstrUsageRow\000"
 14309      55736167 
 14309      65526F77 
 14309      00
 14310              	.LASF1120:
 14311 18e6 70737472 		.ascii	"pstrUsageCursorEnable\000"
 14311      55736167 
 14311      65437572 
 14311      736F7245 
 14311      6E61626C 
 14312              	.LASF799:
 14313 18fc 70737472 		.ascii	"pstrUsageMPX\000"
 14313      55736167 
ARM GAS  C:\Users\jrdia\AppData\Local\Temp\ccYHzYw6.s 			page 295


 14313      654D5058 
 14313      00
 14314              	.LASF515:
 14315 1909 70737472 		.ascii	"pstrUsage6Iron\000"
 14315      55736167 
 14315      65364972 
 14315      6F6E00
 14316              	.LASF1116:
 14317 1918 70737472 		.ascii	"pstrUsageRows\000"
 14317      55736167 
 14317      65526F77 
 14317      7300
 14318              	.LASF134:
 14319 1926 5F5A4E33 		.ascii	"_ZN3USB10ctrlStatusEhbt\000"
 14319      55534231 
 14319      30637472 
 14319      6C537461 
 14319      74757345 
 14320              	.LASF684:
 14321 193e 70737472 		.ascii	"pstrUsageTonesOff\000"
 14321      55736167 
 14321      65546F6E 
 14321      65734F66 
 14321      6600
 14322              	.LASF924:
 14323 1950 70737472 		.ascii	"pstrUsageACProperties\000"
 14323      55736167 
 14323      65414350 
 14323      726F7065 
 14323      72746965 
 14324              	.LASF571:
 14325 1966 70737472 		.ascii	"pstrUsageDoNotDisturb\000"
 14325      55736167 
 14325      65446F4E 
 14325      6F744469 
 14325      73747572 
 14326              	.LASF596:
 14327 197c 70737472 		.ascii	"pstrUsageMicrophone\000"
 14327      55736167 
 14327      654D6963 
 14327      726F7068 
 14327      6F6E6500 
 14328              	.LASF1140:
 14329 1990 70737472 		.ascii	"pstrUsageCharAttributeBlink\000"
 14329      55736167 
 14329      65436861 
 14329      72417474 
 14329      72696275 
 14330              	.LASF1121:
 14331 19ac 70737472 		.ascii	"pstrUsageCursorBlink\000"
 14331      55736167 
 14331      65437572 
 14331      736F7242 
 14331      6C696E6B 
 14332              	.LASF848:
 14333 19c1 70737472 		.ascii	"pstrUsageALWordProcessor\000"
 14333      55736167 
ARM GAS  C:\Users\jrdia\AppData\Local\Temp\ccYHzYw6.s 			page 296


 14333      65414C57 
 14333      6F726450 
 14333      726F6365 
 14334              	.LASF355:
 14335 19da 70737472 		.ascii	"pstrUsagePageBarCodeScanner\000"
 14335      55736167 
 14335      65506167 
 14335      65426172 
 14335      436F6465 
 14336              	.LASF3:
 14337 19f6 756E7369 		.ascii	"unsigned char\000"
 14337      676E6564 
 14337      20636861 
 14337      7200
 14338              	.LASF962:
 14339 1a04 70737472 		.ascii	"pstrUsageACItalics\000"
 14339      55736167 
 14339      65414349 
 14339      74616C69 
 14339      637300
 14340              	.LASF489:
 14341 1a17 70737472 		.ascii	"pstrUsageHandTracker\000"
 14341      55736167 
 14341      6548616E 
 14341      64547261 
 14341      636B6572 
 14342              	.LASF639:
 14343 1a2c 70737472 		.ascii	"pstrUsageSystemSuspend\000"
 14343      55736167 
 14343      65537973 
 14343      74656D53 
 14343      75737065 
 14344              	.LASF192:
 14345 1a43 636F6E74 		.ascii	"control_scid\000"
 14345      726F6C5F 
 14345      73636964 
 14345      00
 14346              	.LASF747:
 14347 1a50 70737472 		.ascii	"pstrUsageMediaSelectGames\000"
 14347      55736167 
 14347      654D6564 
 14347      69615365 
 14347      6C656374 
 14348              	.LASF629:
 14349 1a6a 70737472 		.ascii	"pstrUsageFlashOnTime\000"
 14349      55736167 
 14349      65466C61 
 14349      73684F6E 
 14349      54696D65 
 14350              	.LASF474:
 14351 1a7f 70737472 		.ascii	"pstrUsageSteering\000"
 14351      55736167 
 14351      65537465 
 14351      6572696E 
 14351      6700
 14352              	.LASF896:
 14353 1a91 70737472 		.ascii	"pstrUsageALFileBrowser\000"
ARM GAS  C:\Users\jrdia\AppData\Local\Temp\ccYHzYw6.s 			page 297


 14353      55736167 
 14353      65414C46 
 14353      696C6542 
 14353      726F7773 
 14354              	.LASF1109:
 14355 1aa8 70737472 		.ascii	"pstrUsageStatusNotReady\000"
 14355      55736167 
 14355      65537461 
 14355      7475734E 
 14355      6F745265 
 14356              	.LASF543:
 14357 1ac0 70737472 		.ascii	"pstrUsageSecondaryFlipper\000"
 14357      55736167 
 14357      65536563 
 14357      6F6E6461 
 14357      7279466C 
 14358              	.LASF395:
 14359 1ada 70737472 		.ascii	"pstrUsageSystemControl\000"
 14359      55736167 
 14359      65537973 
 14359      74656D43 
 14359      6F6E7472 
 14360              	.LASF1186:
 14361 1af1 70737472 		.ascii	"pstrUsage2DModeAdjust\000"
 14361      55736167 
 14361      6532444D 
 14361      6F646541 
 14361      646A7573 
 14362              	.LASF275:
 14363 1b07 5F5A4E33 		.ascii	"_ZN3BTD28l2cap_disconnection_responseEthPhS0_\000"
 14363      42544432 
 14363      386C3263 
 14363      61705F64 
 14363      6973636F 
 14364              	.LASF151:
 14365 1b35 5F5A4E33 		.ascii	"_ZN3USB10SetAddressEhhPP6EpInfoPt\000"
 14365      55534231 
 14365      30536574 
 14365      41646472 
 14365      65737345 
 14366              	.LASF878:
 14367 1b57 70737472 		.ascii	"pstrUsageALSelectTaskApplication\000"
 14367      55736167 
 14367      65414C53 
 14367      656C6563 
 14367      74546173 
 14368              	.LASF20:
 14369 1b78 666C6F61 		.ascii	"float\000"
 14369      7400
 14370              	.LASF780:
 14371 1b7e 70737472 		.ascii	"pstrUsageClearMark\000"
 14371      55736167 
 14371      65436C65 
 14371      61724D61 
 14371      726B00
 14372              	.LASF570:
 14373 1b91 70737472 		.ascii	"pstrUsageShift\000"
ARM GAS  C:\Users\jrdia\AppData\Local\Temp\ccYHzYw6.s 			page 298


 14373      55736167 
 14373      65536869 
 14373      667400
 14374              	.LASF614:
 14375 1ba0 70737472 		.ascii	"pstrUsageStop\000"
 14375      55736167 
 14375      6553746F 
 14375      7000
 14376              	.LASF196:
 14377 1bae 61637469 		.ascii	"activeConnection\000"
 14377      7665436F 
 14377      6E6E6563 
 14377      74696F6E 
 14377      00
 14378              	.LASF1111:
 14379 1bbf 70737472 		.ascii	"pstrUsageErrorNotALoadableCharacter\000"
 14379      55736167 
 14379      65457272 
 14379      6F724E6F 
 14379      74414C6F 
 14380              	.LASF718:
 14381 1be3 70737472 		.ascii	"pstrUsageMenuUp\000"
 14381      55736167 
 14381      654D656E 
 14381      75557000 
 14382              	.LASF560:
 14383 1bf3 70737472 		.ascii	"pstrUsageDiscoverWirelessControl\000"
 14383      55736167 
 14383      65446973 
 14383      636F7665 
 14383      72576972 
 14384              	.LASF118:
 14385 1c14 73657445 		.ascii	"setEpInfoEntry\000"
 14385      70496E66 
 14385      6F456E74 
 14385      727900
 14386              	.LASF1029:
 14387 1c23 70737472 		.ascii	"pstrUsageACSetAlarm\000"
 14387      55736167 
 14387      65414353 
 14387      6574416C 
 14387      61726D00 
 14388              	.LASF685:
 14389 1c37 70737472 		.ascii	"pstrUsageOutsideRingback\000"
 14389      55736167 
 14389      654F7574 
 14389      73696465 
 14389      52696E67 
 14390              	.LASF121:
 14391 1c50 5F5A4E33 		.ascii	"_ZN3USB11getDevDescrEhhtPh\000"
 14391      55534231 
 14391      31676574 
 14391      44657644 
 14391      65736372 
 14392              	.LASF486:
 14393 1c6b 70737472 		.ascii	"pstrUsageGlove\000"
 14393      55736167 
ARM GAS  C:\Users\jrdia\AppData\Local\Temp\ccYHzYw6.s 			page 299


 14393      65476C6F 
 14393      766500
 14394              	.LASF886:
 14395 1c7a 70737472 		.ascii	"pstrUsageALDesktop\000"
 14395      55736167 
 14395      65414C44 
 14395      65736B74 
 14395      6F7000
 14396              	.LASF1046:
 14397 1c8d 70737472 		.ascii	"pstrUsageACInsertFile\000"
 14397      55736167 
 14397      65414349 
 14397      6E736572 
 14397      7446696C 
 14398              	.LASF1168:
 14399 1ca3 70737472 		.ascii	"pstrUsagePrint\000"
 14399      55736167 
 14399      65507269 
 14399      6E7400
 14400              	.LASF903:
 14401 1cb2 70737472 		.ascii	"pstrUsageALInstantMessaging\000"
 14401      55736167 
 14401      65414C49 
 14401      6E737461 
 14401      6E744D65 
 14402              	.LASF955:
 14403 1cce 70737472 		.ascii	"pstrUsageACPan\000"
 14403      55736167 
 14403      65414350 
 14403      616E00
 14404              	.LASF438:
 14405 1cdd 70737472 		.ascii	"pstrUsageMotocicleSimulationDevice\000"
 14405      55736167 
 14405      654D6F74 
 14405      6F636963 
 14405      6C655369 
 14406              	.LASF651:
 14407 1d00 70737472 		.ascii	"pstrUsageRedial\000"
 14407      55736167 
 14407      65526564 
 14407      69616C00 
 14408              	.LASF762:
 14409 1d10 70737472 		.ascii	"pstrUsageMediaSelectSAP\000"
 14409      55736167 
 14409      654D6564 
 14409      69615365 
 14409      6C656374 
 14410              	.LASF1084:
 14411 1d28 70737472 		.ascii	"pstrUsageXTilt\000"
 14411      55736167 
 14411      65585469 
 14411      6C7400
 14412              	.LASF658:
 14413 1d37 70737472 		.ascii	"pstrUsageSpeakerPhone\000"
 14413      55736167 
 14413      65537065 
 14413      616B6572 
ARM GAS  C:\Users\jrdia\AppData\Local\Temp\ccYHzYw6.s 			page 300


 14413      50686F6E 
 14414              	.LASF539:
 14415 1d4d 70737472 		.ascii	"pstrUsageLeanRightLeft\000"
 14415      55736167 
 14415      654C6561 
 14415      6E526967 
 14415      68744C65 
 14416              	.LASF721:
 14417 1d64 70737472 		.ascii	"pstrUsageMenuRight\000"
 14417      55736167 
 14417      654D656E 
 14417      75526967 
 14417      687400
 14418              	.LASF503:
 14419 1d77 70737472 		.ascii	"pstrUsageStickFaceAngle\000"
 14419      55736167 
 14419      65537469 
 14419      636B4661 
 14419      6365416E 
 14420              	.LASF638:
 14421 1d8f 70737472 		.ascii	"pstrUsageGenericIndicator\000"
 14421      55736167 
 14421      6547656E 
 14421      65726963 
 14421      496E6469 
 14422              	.LASF671:
 14423 1da9 70737472 		.ascii	"pstrUsageAnswerOnOff\000"
 14423      55736167 
 14423      65416E73 
 14423      7765724F 
 14423      6E4F6666 
 14424              	.LASF159:
 14425 1dbe 5F5A4E33 		.ascii	"_ZN3USB13AttemptConfigEhhhb\000"
 14425      55534231 
 14425      33417474 
 14425      656D7074 
 14425      436F6E66 
 14426              	.LASF765:
 14427 1dda 70737472 		.ascii	"pstrUsageDaily\000"
 14427      55736167 
 14427      65446169 
 14427      6C7900
 14428              	.LASF311:
 14429 1de9 5F767074 		.ascii	"_vptr.UsbConfigXtracter\000"
 14429      722E5573 
 14429      62436F6E 
 14429      66696758 
 14429      74726163 
 14430              	.LASF625:
 14431 1e01 70737472 		.ascii	"pstrUsageIndicatorFlash\000"
 14431      55736167 
 14431      65496E64 
 14431      69636174 
 14431      6F72466C 
 14432              	.LASF733:
 14433 1e19 70737472 		.ascii	"pstrUsageAssignSelection\000"
 14433      55736167 
ARM GAS  C:\Users\jrdia\AppData\Local\Temp\ccYHzYw6.s 			page 301


 14433      65417373 
 14433      69676E53 
 14433      656C6563 
 14434              	.LASF1169:
 14435 1e32 70737472 		.ascii	"pstrUsageMicrophoneEnable\000"
 14435      55736167 
 14435      654D6963 
 14435      726F7068 
 14435      6F6E6545 
 14436              	.LASF1006:
 14437 1e4c 70737472 		.ascii	"pstrUsageACLock\000"
 14437      55736167 
 14437      6541434C 
 14437      6F636B00 
 14438              	.LASF1040:
 14439 1e5c 70737472 		.ascii	"pstrUsageACAttachFile\000"
 14439      55736167 
 14439      65414341 
 14439      74746163 
 14439      6846696C 
 14440              	.LASF794:
 14441 1e72 70737472 		.ascii	"pstrUsageBass\000"
 14441      55736167 
 14441      65426173 
 14441      7300
 14442              	.LASF709:
 14443 1e80 70737472 		.ascii	"pstrUsageAMPM\000"
 14443      55736167 
 14443      65414D50 
 14443      4D00
 14444              	.LASF156:
 14445 1e8e 696E6974 		.ascii	"init\000"
 14445      00
 14446              	.LASF290:
 14447 1e93 5F5A4E36 		.ascii	"_ZN6USBHIDC4EP3USB\000"
 14447      55534248 
 14447      49444334 
 14447      45503355 
 14447      534200
 14448              	.LASF785:
 14449 1ea6 70737472 		.ascii	"pstrUsageCounterReset\000"
 14449      55736167 
 14449      65436F75 
 14449      6E746572 
 14449      52657365 
 14450              	.LASF752:
 14451 1ebc 70737472 		.ascii	"pstrUsageQuit\000"
 14451      55736167 
 14451      65517569 
 14451      7400
 14452              	.LASF968:
 14453 1eca 70737472 		.ascii	"pstrUsageACRotate\000"
 14453      55736167 
 14453      65414352 
 14453      6F746174 
 14453      6500
 14454              	.LASF301:
ARM GAS  C:\Users\jrdia\AppData\Local\Temp\ccYHzYw6.s 			page 302


 14455 1edc 5F5A4E36 		.ascii	"_ZN6USBHID7SetIdleEhhh\000"
 14455      55534248 
 14455      49443753 
 14455      65744964 
 14455      6C654568 
 14456              	.LASF993:
 14457 1ef3 70737472 		.ascii	"pstrUsageACNo\000"
 14457      55736167 
 14457      6541434E 
 14457      6F00
 14458              	.LASF351:
 14459 1f01 70737472 		.ascii	"pstrUsagePageAlphaNumericDisplay\000"
 14459      55736167 
 14459      65506167 
 14459      65416C70 
 14459      68614E75 
 14460              	.LASF911:
 14461 1f22 70737472 		.ascii	"pstrUsageALCustomCorpNewsBrowser\000"
 14461      55736167 
 14461      65414C43 
 14461      7573746F 
 14461      6D436F72 
 14462              	.LASF840:
 14463 1f43 70737472 		.ascii	"pstrUsageSubChannelIncrement\000"
 14463      55736167 
 14463      65537562 
 14463      4368616E 
 14463      6E656C49 
 14464              	.LASF512:
 14465 1f60 70737472 		.ascii	"pstrUsage3Iron\000"
 14465      55736167 
 14465      65334972 
 14465      6F6E00
 14466              	.LASF450:
 14467 1f6f 70737472 		.ascii	"pstrUsageAileron\000"
 14467      55736167 
 14467      6541696C 
 14467      65726F6E 
 14467      00
 14468              	.LASF76:
 14469 1f80 5F5A4E38 		.ascii	"_ZN8MAX3421eI4TPinI5PortbLh2EES0_IS1_Lh1EEE6gpioRdE"
 14469      4D415833 
 14469      34323165 
 14469      49345450 
 14469      696E4935 
 14470 1fb3 7600     		.ascii	"v\000"
 14471              	.LASF496:
 14472 1fb5 70737472 		.ascii	"pstrUsageGolfClub\000"
 14472      55736167 
 14472      65476F6C 
 14472      66436C75 
 14472      6200
 14473              	.LASF479:
 14474 1fc7 70737472 		.ascii	"pstrUsageBicycleCrank\000"
 14474      55736167 
 14474      65426963 
 14474      79636C65 
ARM GAS  C:\Users\jrdia\AppData\Local\Temp\ccYHzYw6.s 			page 303


 14474      4372616E 
 14475              	.LASF368:
 14476 1fdd 70737472 		.ascii	"pstrUsageKeypad\000"
 14476      55736167 
 14476      654B6579 
 14476      70616400 
 14477              	.LASF51:
 14478 1fed 774D6178 		.ascii	"wMaxPacketSize\000"
 14478      5061636B 
 14478      65745369 
 14478      7A6500
 14479              	.LASF984:
 14480 1ffc 70737472 		.ascii	"pstrUsageACJustifyBlockV\000"
 14480      55736167 
 14480      6541434A 
 14480      75737469 
 14480      6679426C 
 14481              	.LASF122:
 14482 2015 67657443 		.ascii	"getConfDescr\000"
 14482      6F6E6644 
 14482      65736372 
 14482      00
 14483              	.LASF295:
 14484 2022 5F5A4E36 		.ascii	"_ZN6USBHID11SetProtocolEhh\000"
 14484      55534248 
 14484      49443131 
 14484      53657450 
 14484      726F746F 
 14485              	.LASF910:
 14486 203d 70737472 		.ascii	"pstrUsageALMarketMonitorFinBrowser\000"
 14486      55736167 
 14486      65414C4D 
 14486      61726B65 
 14486      744D6F6E 
 14487              	.LASF854:
 14488 2060 70737472 		.ascii	"pstrUsageALEmailReader\000"
 14488      55736167 
 14488      65414C45 
 14488      6D61696C 
 14488      52656164 
 14489              	.LASF49:
 14490 2077 62456E64 		.ascii	"bEndpointAddress\000"
 14490      706F696E 
 14490      74416464 
 14490      72657373 
 14490      00
 14491              	.LASF1194:
 14492 2088 5F5A4E33 		.ascii	"_ZN3USBC4Ev\000"
 14492      55534243 
 14492      34457600 
 14493              	.LASF472:
 14494 2094 70737472 		.ascii	"pstrUsageClutch\000"
 14494      55736167 
 14494      65436C75 
 14494      74636800 
 14495              	.LASF995:
 14496 20a4 70737472 		.ascii	"pstrUsageACCatalog\000"
ARM GAS  C:\Users\jrdia\AppData\Local\Temp\ccYHzYw6.s 			page 304


 14496      55736167 
 14496      65414343 
 14496      6174616C 
 14496      6F6700
 14497              	.LASF958:
 14498 20b7 70737472 		.ascii	"pstrUsageACTileVert\000"
 14498      55736167 
 14498      65414354 
 14498      696C6556 
 14498      65727400 
 14499              	.LASF1053:
 14500 20cb 70737472 		.ascii	"pstrUsageACSplit\000"
 14500      55736167 
 14500      65414353 
 14500      706C6974 
 14500      00
 14501              	.LASF532:
 14502 20dc 70737472 		.ascii	"pstrUsagePointOfView\000"
 14502      55736167 
 14502      65506F69 
 14502      6E744F66 
 14502      56696577 
 14503              	.LASF980:
 14504 20f1 70737472 		.ascii	"pstrUsageACJustifyBlockH\000"
 14504      55736167 
 14504      6541434A 
 14504      75737469 
 14504      6679426C 
 14505              	.LASF1068:
 14506 210a 70737472 		.ascii	"pstrUsageFreeSpaceWand\000"
 14506      55736167 
 14506      65467265 
 14506      65537061 
 14506      63655761 
 14507              	.LASF630:
 14508 2121 70737472 		.ascii	"pstrUsageSlowBlinkOnTime\000"
 14508      55736167 
 14508      65536C6F 
 14508      77426C69 
 14508      6E6B4F6E 
 14509              	.LASF287:
 14510 213a 5072696E 		.ascii	"PrintHidDescriptor\000"
 14510      74486964 
 14510      44657363 
 14510      72697074 
 14510      6F7200
 14511              	.LASF1103:
 14512 214d 70737472 		.ascii	"pstrUsageScreenSaverEnable\000"
 14512      55736167 
 14512      65536372 
 14512      65656E53 
 14512      61766572 
 14513              	.LASF299:
 14514 2168 5F5A4E36 		.ascii	"_ZN6USBHID7GetIdleEhhPh\000"
 14514      55534248 
 14514      49443747 
 14514      65744964 
ARM GAS  C:\Users\jrdia\AppData\Local\Temp\ccYHzYw6.s 			page 305


 14514      6C654568 
 14515              	.LASF371:
 14516 2180 70737472 		.ascii	"pstrUsageX\000"
 14516      55736167 
 14516      655800
 14517              	.LASF372:
 14518 218b 70737472 		.ascii	"pstrUsageY\000"
 14518      55736167 
 14518      655900
 14519              	.LASF373:
 14520 2196 70737472 		.ascii	"pstrUsageZ\000"
 14520      55736167 
 14520      655A00
 14521              	.LASF1176:
 14522 21a1 70737472 		.ascii	"pstrUsageDepthGainCompensation\000"
 14522      55736167 
 14522      65446570 
 14522      74684761 
 14522      696E436F 
 14523              	.LASF867:
 14524 21c0 70737472 		.ascii	"pstrUsageALRemoteNetISPConnect\000"
 14524      55736167 
 14524      65414C52 
 14524      656D6F74 
 14524      654E6574 
 14525              	.LASF601:
 14526 21df 70737472 		.ascii	"pstrUsageConference\000"
 14526      55736167 
 14526      65436F6E 
 14526      66657265 
 14526      6E636500 
 14527              	.LASF1034:
 14528 21f3 70737472 		.ascii	"pstrUsageACSendReceive\000"
 14528      55736167 
 14528      65414353 
 14528      656E6452 
 14528      65636569 
 14529              	.LASF413:
 14530 220a 70737472 		.ascii	"pstrUsageDPadRight\000"
 14530      55736167 
 14530      65445061 
 14530      64526967 
 14530      687400
 14531              	.LASF456:
 14532 221d 70737472 		.ascii	"pstrUsageDiveBrake\000"
 14532      55736167 
 14532      65446976 
 14532      65427261 
 14532      6B6500
 14533              	.LASF304:
 14534 2230 47657448 		.ascii	"GetHidDescr\000"
 14534      69644465 
 14534      73637200 
 14535              	.LASF1071:
 14536 223c 70737472 		.ascii	"pstrUsageFinger\000"
 14536      55736167 
 14536      6546696E 
ARM GAS  C:\Users\jrdia\AppData\Local\Temp\ccYHzYw6.s 			page 306


 14536      67657200 
 14537              	.LASF1166:
 14538 224c 70737472 		.ascii	"pstrUsageNext\000"
 14538      55736167 
 14538      654E6578 
 14538      7400
 14539              	.LASF1184:
 14540 225a 70737472 		.ascii	"pstrUsageMotionModeAdjust\000"
 14540      55736167 
 14540      654D6F74 
 14540      696F6E4D 
 14540      6F646541 
 14541              	.LASF849:
 14542 2274 70737472 		.ascii	"pstrUsageALTextEditor\000"
 14542      55736167 
 14542      65414C54 
 14542      65787445 
 14542      6469746F 
 14543              	.LASF1019:
 14544 228a 70737472 		.ascii	"pstrUsageACSelectObject\000"
 14544      55736167 
 14544      65414353 
 14544      656C6563 
 14544      744F626A 
 14545              	.LASF652:
 14546 22a2 70737472 		.ascii	"pstrUsageTransfer\000"
 14546      55736167 
 14546      65547261 
 14546      6E736665 
 14546      7200
 14547              	.LASF1129:
 14548 22b4 70737472 		.ascii	"pstrUsageFont7Segment\000"
 14548      55736167 
 14548      65466F6E 
 14548      74375365 
 14548      676D656E 
 14549              	.LASF605:
 14550 22ca 70737472 		.ascii	"pstrUsageOnLine\000"
 14550      55736167 
 14550      654F6E4C 
 14550      696E6500 
 14551              	.LASF400:
 14552 22da 70737472 		.ascii	"pstrUsageSystemMainMenu\000"
 14552      55736167 
 14552      65537973 
 14552      74656D4D 
 14552      61696E4D 
 14553              	.LASF484:
 14554 22f2 70737472 		.ascii	"pstrUsageBodySuit\000"
 14554      55736167 
 14554      65426F64 
 14554      79537569 
 14554      7400
 14555              	.LASF1119:
 14556 2304 70737472 		.ascii	"pstrUsageCursorMode\000"
 14556      55736167 
 14556      65437572 
ARM GAS  C:\Users\jrdia\AppData\Local\Temp\ccYHzYw6.s 			page 307


 14556      736F724D 
 14556      6F646500 
 14557              	.LASF1010:
 14558 2318 70737472 		.ascii	"pstrUsageACAttachComment\000"
 14558      55736167 
 14558      65414341 
 14558      74746163 
 14558      68436F6D 
 14559              	.LASF545:
 14560 2331 70737472 		.ascii	"pstrUsageNewGame\000"
 14560      55736167 
 14560      654E6577 
 14560      47616D65 
 14560      00
 14561              	.LASF669:
 14562 2342 70737472 		.ascii	"pstrUsageScreenCalls\000"
 14562      55736167 
 14562      65536372 
 14562      65656E43 
 14562      616C6C73 
 14563              	.LASF865:
 14564 2357 70737472 		.ascii	"pstrUsageALLANWANBrow\000"
 14564      55736167 
 14564      65414C4C 
 14564      414E5741 
 14564      4E42726F 
 14565              	.LASF937:
 14566 236d 70737472 		.ascii	"pstrUsageACStop\000"
 14566      55736167 
 14566      65414353 
 14566      746F7000 
 14567              	.LASF927:
 14568 237d 70737472 		.ascii	"pstrUsageACCut\000"
 14568      55736167 
 14568      65414343 
 14568      757400
 14569              	.LASF687:
 14570 238c 70737472 		.ascii	"pstrUsagePhoneKey0\000"
 14570      55736167 
 14570      6550686F 
 14570      6E654B65 
 14570      793000
 14571              	.LASF688:
 14572 239f 70737472 		.ascii	"pstrUsagePhoneKey1\000"
 14572      55736167 
 14572      6550686F 
 14572      6E654B65 
 14572      793100
 14573              	.LASF689:
 14574 23b2 70737472 		.ascii	"pstrUsagePhoneKey2\000"
 14574      55736167 
 14574      6550686F 
 14574      6E654B65 
 14574      793200
 14575              	.LASF690:
 14576 23c5 70737472 		.ascii	"pstrUsagePhoneKey3\000"
 14576      55736167 
ARM GAS  C:\Users\jrdia\AppData\Local\Temp\ccYHzYw6.s 			page 308


 14576      6550686F 
 14576      6E654B65 
 14576      793300
 14577              	.LASF207:
 14578 23d8 5F5A4E35 		.ascii	"_ZN5BTHID15SetReportParserEhP15HIDReportParser\000"
 14578      42544849 
 14578      44313553 
 14578      65745265 
 14578      706F7274 
 14579              	.LASF692:
 14580 2407 70737472 		.ascii	"pstrUsagePhoneKey5\000"
 14580      55736167 
 14580      6550686F 
 14580      6E654B65 
 14580      793500
 14581              	.LASF285:
 14582 241a 5072696E 		.ascii	"PrintEndpointDescriptor\000"
 14582      74456E64 
 14582      706F696E 
 14582      74446573 
 14582      63726970 
 14583              	.LASF694:
 14584 2432 70737472 		.ascii	"pstrUsagePhoneKey7\000"
 14584      55736167 
 14584      6550686F 
 14584      6E654B65 
 14584      793700
 14585              	.LASF695:
 14586 2445 70737472 		.ascii	"pstrUsagePhoneKey8\000"
 14586      55736167 
 14586      6550686F 
 14586      6E654B65 
 14586      793800
 14587              	.LASF599:
 14588 2458 70737472 		.ascii	"pstrUsageSendCalls\000"
 14588      55736167 
 14588      6553656E 
 14588      6443616C 
 14588      6C7300
 14589              	.LASF444:
 14590 246b 70737472 		.ascii	"pstrUsageFlightControlStick\000"
 14590      55736167 
 14590      65466C69 
 14590      67687443 
 14590      6F6E7472 
 14591              	.LASF412:
 14592 2487 70737472 		.ascii	"pstrUsageDPadDown\000"
 14592      55736167 
 14592      65445061 
 14592      64446F77 
 14592      6E00
 14593              	.LASF699:
 14594 2499 70737472 		.ascii	"pstrUsagePhoneKeyA\000"
 14594      55736167 
 14594      6550686F 
 14594      6E654B65 
 14594      794100
ARM GAS  C:\Users\jrdia\AppData\Local\Temp\ccYHzYw6.s 			page 309


 14595              	.LASF327:
 14596 24ac 504F5254 		.ascii	"PORTB\000"
 14596      4200
 14597              	.LASF701:
 14598 24b2 70737472 		.ascii	"pstrUsagePhoneKeyC\000"
 14598      55736167 
 14598      6550686F 
 14598      6E654B65 
 14598      794300
 14599              	.LASF702:
 14600 24c5 70737472 		.ascii	"pstrUsagePhoneKeyD\000"
 14600      55736167 
 14600      6550686F 
 14600      6E654B65 
 14600      794400
 14601              	.LASF1188:
 14602 24d8 70737472 		.ascii	"pstrUsageSoftControlAdjust\000"
 14602      55736167 
 14602      65536F66 
 14602      74436F6E 
 14602      74726F6C 
 14603              	.LASF423:
 14604 24f3 70737472 		.ascii	"pstrUsageSystemHibernate\000"
 14604      55736167 
 14604      65537973 
 14604      74656D48 
 14604      69626572 
 14605              	.LASF1134:
 14606 250c 70737472 		.ascii	"pstrUsageDisplayContrast\000"
 14606      55736167 
 14606      65446973 
 14606      706C6179 
 14606      436F6E74 
 14607              	.LASF932:
 14608 2525 70737472 		.ascii	"pstrUsageACSearch\000"
 14608      55736167 
 14608      65414353 
 14608      65617263 
 14608      6800
 14609              	.LASF65:
 14610 2537 4D415833 		.ascii	"MAX3421e\000"
 14610      34323165 
 14610      00
 14611              	.LASF168:
 14612 2540 5F5A4E31 		.ascii	"_ZN15USBDeviceConfig7ReleaseEv\000"
 14612      35555342 
 14612      44657669 
 14612      6365436F 
 14612      6E666967 
 14613              	.LASF631:
 14614 255f 70737472 		.ascii	"pstrUsageSlowBlinkOffTime\000"
 14614      55736167 
 14614      65536C6F 
 14614      77426C69 
 14614      6E6B4F66 
 14615              	.LASF401:
 14616 2579 70737472 		.ascii	"pstrUsageSystemAppMenu\000"
ARM GAS  C:\Users\jrdia\AppData\Local\Temp\ccYHzYw6.s 			page 310


 14616      55736167 
 14616      65537973 
 14616      74656D41 
 14616      70704D65 
 14617              	.LASF235:
 14618 2590 6964656E 		.ascii	"identifier\000"
 14618      74696669 
 14618      657200
 14619              	.LASF14:
 14620 259b 75696E74 		.ascii	"uint8_t\000"
 14620      385F7400 
 14621              	.LASF979:
 14622 25a3 70737472 		.ascii	"pstrUsageACJustifyRight\000"
 14622      55736167 
 14622      6541434A 
 14622      75737469 
 14622      66795269 
 14623              	.LASF529:
 14624 25bb 70737472 		.ascii	"pstrUsage3DGameController\000"
 14624      55736167 
 14624      65334447 
 14624      616D6543 
 14624      6F6E7472 
 14625              	.LASF108:
 14626 25d5 52656769 		.ascii	"RegisterDeviceClass\000"
 14626      73746572 
 14626      44657669 
 14626      6365436C 
 14626      61737300 
 14627              	.LASF38:
 14628 25e9 64657641 		.ascii	"devAddress\000"
 14628      64647265 
 14628      737300
 14629              	.LASF1097:
 14630 25f4 70737472 		.ascii	"pstrUsageASCIICharacterSet\000"
 14630      55736167 
 14630      65415343 
 14630      49494368 
 14630      61726163 
 14631              	.LASF803:
 14632 260f 70737472 		.ascii	"pstrUsagePlaybackSpeed\000"
 14632      55736167 
 14632      65506C61 
 14632      79626163 
 14632      6B537065 
 14633              	.LASF225:
 14634 2626 52657365 		.ascii	"ResetBTHID\000"
 14634      74425448 
 14634      494400
 14635              	.LASF863:
 14636 2631 70737472 		.ascii	"pstrUsageALAVCapturePlayback\000"
 14636      55736167 
 14636      65414C41 
 14636      56436170 
 14636      74757265 
 14637              	.LASF802:
 14638 264e 70737472 		.ascii	"pstrUsageSpeedSelect\000"
ARM GAS  C:\Users\jrdia\AppData\Local\Temp\ccYHzYw6.s 			page 311


 14638      55736167 
 14638      65537065 
 14638      65645365 
 14638      6C656374 
 14639              	.LASF1092:
 14640 2663 70737472 		.ascii	"pstrUsageEraser\000"
 14640      55736167 
 14640      65457261 
 14640      73657200 
 14641              	.LASF771:
 14642 2673 70737472 		.ascii	"pstrUsageRandomPlay\000"
 14642      55736167 
 14642      6552616E 
 14642      646F6D50 
 14642      6C617900 
 14643              	.LASF610:
 14644 2687 70737472 		.ascii	"pstrUsagePaperJam\000"
 14644      55736167 
 14644      65506170 
 14644      65724A61 
 14644      6D00
 14645              	.LASF223:
 14646 2699 4F6E496E 		.ascii	"OnInitBTHID\000"
 14646      69744254 
 14646      48494400 
 14647              	.LASF57:
 14648 26a5 62436F75 		.ascii	"bCountryCode\000"
 14648      6E747279 
 14648      436F6465 
 14648      00
 14649              	.LASF169:
 14650 26b2 506F6C6C 		.ascii	"Poll\000"
 14650      00
 14651              	.LASF928:
 14652 26b7 70737472 		.ascii	"pstrUsageACPaste\000"
 14652      55736167 
 14652      65414350 
 14652      61737465 
 14652      00
 14653              	.LASF352:
 14654 26c8 70737472 		.ascii	"pstrUsagePageMedicalInstruments\000"
 14654      55736167 
 14654      65506167 
 14654      654D6564 
 14654      6963616C 
 14655              	.LASF580:
 14656 26e8 70737472 		.ascii	"pstrUsageStereo\000"
 14656      55736167 
 14656      65537465 
 14656      72656F00 
 14657              	.LASF338:
 14658 26f8 70737472 		.ascii	"pstrUsagePageVRControls\000"
 14658      55736167 
 14658      65506167 
 14658      65565243 
 14658      6F6E7472 
 14659              	.LASF1022:
ARM GAS  C:\Users\jrdia\AppData\Local\Temp\ccYHzYw6.s 			page 312


 14660 2710 70737472 		.ascii	"pstrUsageACSortAscending\000"
 14660      55736167 
 14660      65414353 
 14660      6F727441 
 14660      7363656E 
 14661              	.LASF899:
 14662 2729 70737472 		.ascii	"pstrUsageALAudioBrowser\000"
 14662      55736167 
 14662      65414C41 
 14662      7564696F 
 14662      42726F77 
 14663              	.LASF175:
 14664 2741 44455643 		.ascii	"DEVCLASSOK\000"
 14664      4C415353 
 14664      4F4B00
 14665              	.LASF459:
 14666 274c 70737472 		.ascii	"pstrUsageElevatorTrim\000"
 14666      55736167 
 14666      65456C65 
 14666      7661746F 
 14666      72547269 
 14667              	.LASF526:
 14668 2762 70737472 		.ascii	"pstrUsage5Wood\000"
 14668      55736167 
 14668      6535576F 
 14668      6F6400
 14669              	.LASF778:
 14670 2771 70737472 		.ascii	"pstrUsageFrameBackwards\000"
 14670      55736167 
 14670      65467261 
 14670      6D654261 
 14670      636B7761 
 14671              	.LASF815:
 14672 2789 70737472 		.ascii	"pstrUsageFireAlarm\000"
 14672      55736167 
 14672      65466972 
 14672      65416C61 
 14672      726D00
 14673              	.LASF132:
 14674 279c 5F5A4E33 		.ascii	"_ZN3USB8ctrlDataEhhtPhb\000"
 14674      55534238 
 14674      6374726C 
 14674      44617461 
 14674      45686874 
 14675              	.LASF827:
 14676 27b4 70737472 		.ascii	"pstrUsageTrebleDecrement\000"
 14676      55736167 
 14676      65547265 
 14676      626C6544 
 14676      65637265 
 14677              	.LASF307:
 14678 27cd 5F5A4E36 		.ascii	"_ZN6USBHID9GetReportEhhhhtPh\000"
 14678      55534248 
 14678      49443947 
 14678      65745265 
 14678      706F7274 
 14679              	.LASF857:
ARM GAS  C:\Users\jrdia\AppData\Local\Temp\ccYHzYw6.s 			page 313


 14680 27ea 70737472 		.ascii	"pstrUsageALContactsAddressBook\000"
 14680      55736167 
 14680      65414C43 
 14680      6F6E7461 
 14680      63747341 
 14681              	.LASF322:
 14682 2809 636F6D6D 		.ascii	"command\000"
 14682      616E6400 
 14683              	.LASF221:
 14684 2811 50617273 		.ascii	"ParseBTHIDData\000"
 14684      65425448 
 14684      49444461 
 14684      746100
 14685              	.LASF1026:
 14686 2820 70737472 		.ascii	"pstrUsageACViewClock\000"
 14686      55736167 
 14686      65414356 
 14686      69657743 
 14686      6C6F636B 
 14687              	.LASF426:
 14688 2835 70737472 		.ascii	"pstrUsageSystemDisplayExternal\000"
 14688      55736167 
 14688      65537973 
 14688      74656D44 
 14688      6973706C 
 14689              	.LASF337:
 14690 2854 70737472 		.ascii	"pstrUsagePageSimulationControls\000"
 14690      55736167 
 14690      65506167 
 14690      6553696D 
 14690      756C6174 
 14691              	.LASF236:
 14692 2874 7E426C75 		.ascii	"~BluetoothService\000"
 14692      65746F6F 
 14692      74685365 
 14692      72766963 
 14692      6500
 14693              	.LASF836:
 14694 2886 70737472 		.ascii	"pstrUsageChannelLowFreqEnhancement\000"
 14694      55736167 
 14694      65436861 
 14694      6E6E656C 
 14694      4C6F7746 
 14695              	.LASF876:
 14696 28a9 70737472 		.ascii	"pstrUsageALCommandLineProcessorRun\000"
 14696      55736167 
 14696      65414C43 
 14696      6F6D6D61 
 14696      6E644C69 
 14697              	.LASF770:
 14698 28cc 70737472 		.ascii	"pstrUsageEject\000"
 14698      55736167 
 14698      65456A65 
 14698      637400
 14699              	.LASF1037:
 14700 28db 70737472 		.ascii	"pstrUsageACReplyAll\000"
 14700      55736167 
ARM GAS  C:\Users\jrdia\AppData\Local\Temp\ccYHzYw6.s 			page 314


 14700      65414352 
 14700      65706C79 
 14700      416C6C00 
 14701              	.LASF278:
 14702 28ef 70557362 		.ascii	"pUsb\000"
 14702      00
 14703              	.LASF461:
 14704 28f4 70737472 		.ascii	"pstrUsageThrottle\000"
 14704      55736167 
 14704      65546872 
 14704      6F74746C 
 14704      6500
 14705              	.LASF213:
 14706 2906 70616972 		.ascii	"pair\000"
 14706      00
 14707              	.LASF897:
 14708 290b 70737472 		.ascii	"pstrUsageALPowerStatus\000"
 14708      55736167 
 14708      65414C50 
 14708      6F776572 
 14708      53746174 
 14709              	.LASF814:
 14710 2922 70737472 		.ascii	"pstrUsageSecurityEnable\000"
 14710      55736167 
 14710      65536563 
 14710      75726974 
 14710      79456E61 
 14711              	.LASF97:
 14712 293a 494E5452 		.ascii	"INTR\000"
 14712      00
 14713              	.LASF704:
 14714 293f 70737472 		.ascii	"pstrUsageNumericKeyPad\000"
 14714      55736167 
 14714      654E756D 
 14714      65726963 
 14714      4B657950 
 14715              	.LASF737:
 14716 2956 70737472 		.ascii	"pstrUsageOrderMovie\000"
 14716      55736167 
 14716      654F7264 
 14716      65724D6F 
 14716      76696500 
 14717              	.LASF1198:
 14718 296a 5F5F7674 		.ascii	"__vtbl_ptr_type\000"
 14718      626C5F70 
 14718      74725F74 
 14718      79706500 
 14719              	.LASF983:
 14720 297a 70737472 		.ascii	"pstrUsageACJustifyBottom\000"
 14720      55736167 
 14720      6541434A 
 14720      75737469 
 14720      6679426F 
 14721              	.LASF248:
 14722 2993 63686563 		.ascii	"checkHciHandle\000"
 14722      6B486369 
 14722      48616E64 
ARM GAS  C:\Users\jrdia\AppData\Local\Temp\ccYHzYw6.s 			page 315


 14722      6C6500
 14723              	.LASF206:
 14724 29a2 53657452 		.ascii	"SetReportParser\000"
 14724      65706F72 
 14724      74506172 
 14724      73657200 
 14725              	.LASF32:
 14726 29b2 55736244 		.ascii	"UsbDeviceAddress\000"
 14726      65766963 
 14726      65416464 
 14726      72657373 
 14726      00
 14727              	.LASF606:
 14728 29c3 70737472 		.ascii	"pstrUsageOffLine\000"
 14728      55736167 
 14728      654F6666 
 14728      4C696E65 
 14728      00
 14729              	.LASF595:
 14730 29d4 70737472 		.ascii	"pstrUsageHold\000"
 14730      55736167 
 14730      65486F6C 
 14730      6400
 14731              	.LASF180:
 14732 29e2 5F5A4E31 		.ascii	"_ZN15USBDeviceConfig13DEVSUBCLASSOKEh\000"
 14732      35555342 
 14732      44657669 
 14732      6365436F 
 14732      6E666967 
 14733              	.LASF905:
 14734 2a08 70737472 		.ascii	"pstrUsageALOEMHelp\000"
 14734      55736167 
 14734      65414C4F 
 14734      454D4865 
 14734      6C7000
 14735              	.LASF519:
 14736 2a1b 70737472 		.ascii	"pstrUsage10Iron\000"
 14736      55736167 
 14736      65313049 
 14736      726F6E00 
 14737              	.LASF788:
 14738 2a2b 70737472 		.ascii	"pstrUsageTrackingDecrement\000"
 14738      55736167 
 14738      65547261 
 14738      636B696E 
 14738      67446563 
 14739              	.LASF1007:
 14740 2a46 70737472 		.ascii	"pstrUsageACUnlock\000"
 14740      55736167 
 14740      65414355 
 14740      6E6C6F63 
 14740      6B00
 14741              	.LASF465:
 14742 2a58 70737472 		.ascii	"pstrUsageToeBrake\000"
 14742      55736167 
 14742      65546F65 
 14742      4272616B 
ARM GAS  C:\Users\jrdia\AppData\Local\Temp\ccYHzYw6.s 			page 316


 14742      6500
 14743              	.LASF821:
 14744 2a6a 70737472 		.ascii	"pstrUsageMedicalAlarm\000"
 14744      55736167 
 14744      654D6564 
 14744      6963616C 
 14744      416C6172 
 14745              	.LASF1195:
 14746 2a80 4D41585F 		.ascii	"MAX_DEVICES_ALLOWED\000"
 14746      44455649 
 14746      4345535F 
 14746      414C4C4F 
 14746      57454400 
 14747              	.LASF309:
 14748 2a94 5F5A4E36 		.ascii	"_ZN6USBHID9SetReportEhhhhtPh\000"
 14748      55534248 
 14748      49443953 
 14748      65745265 
 14748      706F7274 
 14749              	.LASF707:
 14750 2ab1 70737472 		.ascii	"pstrUsagePlus10\000"
 14750      55736167 
 14750      65506C75 
 14750      73313000 
 14751              	.LASF1091:
 14752 2ac1 70737472 		.ascii	"pstrUsageBarrelSwitch\000"
 14752      55736167 
 14752      65426172 
 14752      72656C53 
 14752      77697463 
 14753              	.LASF441:
 14754 2ad7 70737472 		.ascii	"pstrUsageHelicopterSimulationDevice\000"
 14754      55736167 
 14754      6548656C 
 14754      69636F70 
 14754      74657253 
 14755              	.LASF361:
 14756 2afb 70737472 		.ascii	"pstrUsagePageReserved\000"
 14756      55736167 
 14756      65506167 
 14756      65526573 
 14756      65727665 
 14757              	.LASF1128:
 14758 2b11 70737472 		.ascii	"pstrUsageUnicodeCharset\000"
 14758      55736167 
 14758      65556E69 
 14758      636F6465 
 14758      43686172 
 14759              	.LASF1059:
 14760 2b29 70737472 		.ascii	"pstrUsageTouchScreen\000"
 14760      55736167 
 14760      65546F75 
 14760      63685363 
 14760      7265656E 
 14761              	.LASF1082:
 14762 2b3e 70737472 		.ascii	"pstrUsageProgramChangeKeys\000"
 14762      55736167 
ARM GAS  C:\Users\jrdia\AppData\Local\Temp\ccYHzYw6.s 			page 317


 14762      6550726F 
 14762      6772616D 
 14762      4368616E 
 14763              	.LASF812:
 14764 2b59 70737472 		.ascii	"pstrUsageClimateControlEnable\000"
 14764      55736167 
 14764      65436C69 
 14764      6D617465 
 14764      436F6E74 
 14765              	.LASF229:
 14766 2b77 426C7565 		.ascii	"BluetoothService\000"
 14766      746F6F74 
 14766      68536572 
 14766      76696365 
 14766      00
 14767              	.LASF63:
 14768 2b88 76627573 		.ascii	"vbus_off\000"
 14768      5F6F6666 
 14768      00
 14769              	.LASF554:
 14770 2b91 70737472 		.ascii	"pstrUsageGunSafety\000"
 14770      55736167 
 14770      6547756E 
 14770      53616665 
 14770      747900
 14771              	.LASF460:
 14772 2ba4 70737472 		.ascii	"pstrUsageRudder\000"
 14772      55736167 
 14772      65527564 
 14772      64657200 
 14773              	.LASF508:
 14774 2bb4 70737472 		.ascii	"pstrUsageStickHeight\000"
 14774      55736167 
 14774      65537469 
 14774      636B4865 
 14774      69676874 
 14775              	.LASF871:
 14776 2bc9 70737472 		.ascii	"pstrUsageALLogon\000"
 14776      55736167 
 14776      65414C4C 
 14776      6F676F6E 
 14776      00
 14777              	.LASF59:
 14778 2bda 62446573 		.ascii	"bDescrType\000"
 14778      63725479 
 14778      706500
 14779              	.LASF844:
 14780 2be5 70737472 		.ascii	"pstrUsageApplicationLaunchButtons\000"
 14780      55736167 
 14780      65417070 
 14780      6C696361 
 14780      74696F6E 
 14781              	.LASF870:
 14782 2c07 70737472 		.ascii	"pstrUsageALTelephonyDialer\000"
 14782      55736167 
 14782      65414C54 
 14782      656C6570 
ARM GAS  C:\Users\jrdia\AppData\Local\Temp\ccYHzYw6.s 			page 318


 14782      686F6E79 
 14783              	.LASF174:
 14784 2c22 5F5A4E31 		.ascii	"_ZN15USBDeviceConfig8VIDPIDOKEtt\000"
 14784      35555342 
 14784      44657669 
 14784      6365436F 
 14784      6E666967 
 14785              	.LASF943:
 14786 2c43 70737472 		.ascii	"pstrUsageACSubscriptions\000"
 14786      55736167 
 14786      65414353 
 14786      75627363 
 14786      72697074 
 14787              	.LASF342:
 14788 2c5c 70737472 		.ascii	"pstrUsagePageKeyboardKeypad\000"
 14788      55736167 
 14788      65506167 
 14788      654B6579 
 14788      626F6172 
 14789              	.LASF41:
 14790 2c78 61646472 		.ascii	"address\000"
 14790      65737300 
 14791              	.LASF730:
 14792 2c80 70737472 		.ascii	"pstrUsageSnapshot\000"
 14792      55736167 
 14792      65536E61 
 14792      7073686F 
 14792      7400
 14793              	.LASF31:
 14794 2c92 4570496E 		.ascii	"EpInfo\000"
 14794      666F00
 14795              	.LASF862:
 14796 2c99 70737472 		.ascii	"pstrUsageALCalculator\000"
 14796      55736167 
 14796      65414C43 
 14796      616C6375 
 14796      6C61746F 
 14797              	.LASF726:
 14798 2caf 70737472 		.ascii	"pstrUsageClosedCaption\000"
 14798      55736167 
 14798      65436C6F 
 14798      73656443 
 14798      61707469 
 14799              	.LASF377:
 14800 2cc6 70737472 		.ascii	"pstrUsageSlider\000"
 14800      55736167 
 14800      65536C69 
 14800      64657200 
 14801              	.LASF837:
 14802 2cd6 70737472 		.ascii	"pstrUsageChannelTop\000"
 14802      55736167 
 14802      65436861 
 14802      6E6E656C 
 14802      546F7000 
 14803              	.LASF710:
 14804 2cea 70737472 		.ascii	"pstrUsageReset\000"
 14804      55736167 
ARM GAS  C:\Users\jrdia\AppData\Local\Temp\ccYHzYw6.s 			page 319


 14804      65526573 
 14804      657400
 14805              	.LASF360:
 14806 2cf9 70737472 		.ascii	"pstrUsagePageArcade\000"
 14806      55736167 
 14806      65506167 
 14806      65417263 
 14806      61646500 
 14807              	.LASF882:
 14808 2d0d 70737472 		.ascii	"pstrUsageALIntegratedHelpCenter\000"
 14808      55736167 
 14808      65414C49 
 14808      6E746567 
 14808      72617465 
 14809              	.LASF318:
 14810 2d2d 74686973 		.ascii	"this\000"
 14810      00
 14811              	.LASF753:
 14812 2d32 70737472 		.ascii	"pstrUsageHelp\000"
 14812      55736167 
 14812      6548656C 
 14812      7000
 14813              	.LASF609:
 14814 2d40 70737472 		.ascii	"pstrUsagePaperOut\000"
 14814      55736167 
 14814      65506170 
 14814      65724F75 
 14814      7400
 14815              	.LASF622:
 14816 2d52 70737472 		.ascii	"pstrUsageInUseIndicator\000"
 14816      55736167 
 14816      65496E55 
 14816      7365496E 
 14816      64696361 
 14817              	.LASF90:
 14818 2d6a 47707848 		.ascii	"GpxHandler\000"
 14818      616E646C 
 14818      657200
 14819              	.LASF247:
 14820 2d75 5F5A4E31 		.ascii	"_ZN16BluetoothService6onInitEv\000"
 14820      36426C75 
 14820      65746F6F 
 14820      74685365 
 14820      72766963 
 14821              	.LASF187:
 14822 2d94 626D436F 		.ascii	"bmCompose\000"
 14822      6D706F73 
 14822      6500
 14823              	.LASF1179:
 14824 2d9e 70737472 		.ascii	"pstrUsageSpectralDopplerModeSelect\000"
 14824      55736167 
 14824      65537065 
 14824      63747261 
 14824      6C446F70 
 14825              	.LASF904:
 14826 2dc1 70737472 		.ascii	"pstrUsageALOEMFeaturesBrowser\000"
 14826      55736167 
ARM GAS  C:\Users\jrdia\AppData\Local\Temp\ccYHzYw6.s 			page 320


 14826      65414C4F 
 14826      454D4665 
 14826      61747572 
 14827              	.LASF182:
 14828 2ddf 55534252 		.ascii	"USBReadParser\000"
 14828      65616450 
 14828      61727365 
 14828      7200
 14829              	.LASF292:
 14830 2ded 5F5A4E36 		.ascii	"_ZN6USBHID6GetUsbEv\000"
 14830      55534248 
 14830      49443647 
 14830      65745573 
 14830      62457600 
 14831              	.LASF1163:
 14832 2e01 70737472 		.ascii	"pstrUsageFreezeThaw\000"
 14832      55736167 
 14832      65467265 
 14832      657A6554 
 14832      68617700 
 14833              	.LASF949:
 14834 2e15 70737472 		.ascii	"pstrUsageACViewToggle\000"
 14834      55736167 
 14834      65414356 
 14834      69657754 
 14834      6F67676C 
 14835              	.LASF820:
 14836 2e2b 70737472 		.ascii	"pstrUsageHoldupAlarm\000"
 14836      55736167 
 14836      65486F6C 
 14836      64757041 
 14836      6C61726D 
 14837              	.LASF971:
 14838 2e40 70737472 		.ascii	"pstrUsageACFlipVertical\000"
 14838      55736167 
 14838      65414346 
 14838      6C697056 
 14838      65727469 
 14839              	.LASF1043:
 14840 2e58 70737472 		.ascii	"pstrUsageACSetBorders\000"
 14840      55736167 
 14840      65414353 
 14840      6574426F 
 14840      72646572 
 14841              	.LASF784:
 14842 2e6e 70737472 		.ascii	"pstrUsageSearchMarkBackwards\000"
 14842      55736167 
 14842      65536561 
 14842      7263684D 
 14842      61726B42 
 14843              	.LASF672:
 14844 2e8b 70737472 		.ascii	"pstrUsageInsideDialTone\000"
 14844      55736167 
 14844      65496E73 
 14844      69646544 
 14844      69616C54 
 14845              	.LASF430:
ARM GAS  C:\Users\jrdia\AppData\Local\Temp\ccYHzYw6.s 			page 321


 14846 2ea3 70737472 		.ascii	"pstrUsageSystemDisplaySwapPriSec\000"
 14846      55736167 
 14846      65537973 
 14846      74656D44 
 14846      6973706C 
 14847              	.LASF424:
 14848 2ec4 70737472 		.ascii	"pstrUsageSystemDisplayInvert\000"
 14848      55736167 
 14848      65537973 
 14848      74656D44 
 14848      6973706C 
 14849              	.LASF774:
 14850 2ee1 70737472 		.ascii	"pstrUsageTracking\000"
 14850      55736167 
 14850      65547261 
 14850      636B696E 
 14850      6700
 14851              	.LASF1000:
 14852 2ef3 70737472 		.ascii	"pstrUsageACCollapse\000"
 14852      55736167 
 14852      65414343 
 14852      6F6C6C61 
 14852      70736500 
 14853              	.LASF384:
 14854 2f07 70737472 		.ascii	"pstrUsageStart\000"
 14854      55736167 
 14854      65537461 
 14854      727400
 14855              	.LASF254:
 14856 2f16 41646472 		.ascii	"AddressPoolImpl<16u>\000"
 14856      65737350 
 14856      6F6F6C49 
 14856      6D706C3C 
 14856      3136753E 
 14857              	.LASF478:
 14858 2f2b 70737472 		.ascii	"pstrUsageBallast\000"
 14858      55736167 
 14858      6542616C 
 14858      6C617374 
 14858      00
 14859              	.LASF117:
 14860 2f3c 5F5A4E33 		.ascii	"_ZN3USB14getEpInfoEntryEhh\000"
 14860      55534231 
 14860      34676574 
 14860      4570496E 
 14860      666F456E 
 14861              	.LASF300:
 14862 2f57 53657449 		.ascii	"SetIdle\000"
 14862      646C6500 
 14863              	.LASF999:
 14864 2f5f 70737472 		.ascii	"pstrUsageACExpandAll\000"
 14864      55736167 
 14864      65414345 
 14864      7870616E 
 14864      64416C6C 
 14865              	.LASF1105:
 14866 2f74 70737472 		.ascii	"pstrUsageHorizontalScroll\000"
ARM GAS  C:\Users\jrdia\AppData\Local\Temp\ccYHzYw6.s 			page 322


 14866      55736167 
 14866      65486F72 
 14866      697A6F6E 
 14866      74616C53 
 14867              	.LASF288:
 14868 2f8e 5F5A4E36 		.ascii	"_ZN6USBHID18PrintHidDescriptorEPK18USB_HID_DESCRIPT"
 14868      55534248 
 14868      49443138 
 14868      5072696E 
 14868      74486964 
 14869 2fc1 4F5200   		.ascii	"OR\000"
 14870              	.LASF55:
 14871 2fc4 31385553 		.ascii	"18USB_HID_DESCRIPTOR\000"
 14871      425F4849 
 14871      445F4445 
 14871      53435249 
 14871      50544F52 
 14872              	.LASF706:
 14873 2fd9 70737472 		.ascii	"pstrUsageGraphicEqualizer\000"
 14873      55736167 
 14873      65477261 
 14873      70686963 
 14873      45717561 
 14874              	.LASF233:
 14875 2ff3 6863695F 		.ascii	"hci_handle\000"
 14875      68616E64 
 14875      6C6500
 14876              	.LASF298:
 14877 2ffe 47657449 		.ascii	"GetIdle\000"
 14877      646C6500 
 14878              	.LASF436:
 14879 3006 70737472 		.ascii	"pstrUsageSubmarineSimulationDevice\000"
 14879      55736167 
 14879      65537562 
 14879      6D617269 
 14879      6E655369 
 14880              	.LASF346:
 14881 3029 70737472 		.ascii	"pstrUsagePageTelephone\000"
 14881      55736167 
 14881      65506167 
 14881      6554656C 
 14881      6570686F 
 14882              	.LASF708:
 14883 3040 70737472 		.ascii	"pstrUsagePlus100\000"
 14883      55736167 
 14883      65506C75 
 14883      73313030 
 14883      00
 14884              	.LASF553:
 14885 3051 70737472 		.ascii	"pstrUsageGunAutomatic\000"
 14885      55736167 
 14885      6547756E 
 14885      4175746F 
 14885      6D617469 
 14886              	.LASF575:
 14887 3067 70737472 		.ascii	"pstrUsageLowCutFilter\000"
 14887      55736167 
ARM GAS  C:\Users\jrdia\AppData\Local\Temp\ccYHzYw6.s 			page 323


 14887      654C6F77 
 14887      43757446 
 14887      696C7465 
 14888              	.LASF761:
 14889 307d 70737472 		.ascii	"pstrUsageChannelDecrement\000"
 14889      55736167 
 14889      65436861 
 14889      6E6E656C 
 14889      44656372 
 14890              	.LASF643:
 14891 3097 70737472 		.ascii	"pstrUsageMessageControls\000"
 14891      55736167 
 14891      654D6573 
 14891      73616765 
 14891      436F6E74 
 14892              	.LASF306:
 14893 30b0 47657452 		.ascii	"GetReport\000"
 14893      65706F72 
 14893      7400
 14894              	.LASF861:
 14895 30ba 70737472 		.ascii	"pstrUsageALCheckbookFinance\000"
 14895      55736167 
 14895      65414C43 
 14895      6865636B 
 14895      626F6F6B 
 14896              	.LASF482:
 14897 30d6 70737472 		.ascii	"pstrUsageRearBrake\000"
 14897      55736167 
 14897      65526561 
 14897      72427261 
 14897      6B6500
 14898              	.LASF662:
 14899 30e9 70737472 		.ascii	"pstrUsageCallerID\000"
 14899      55736167 
 14899      6543616C 
 14899      6C657249 
 14899      4400
 14900              	.LASF1161:
 14901 30fb 70737472 		.ascii	"pstrUsageMedicalUltrasound\000"
 14901      55736167 
 14901      654D6564 
 14901      6963616C 
 14901      556C7472 
 14902              	.LASF141:
 14903 3116 5F5A4E33 		.ascii	"_ZN3USB4TaskEv\000"
 14903      55534234 
 14903      5461736B 
 14903      457600
 14904              	.LASF1083:
 14905 3125 70737472 		.ascii	"pstrUsageInvert\000"
 14905      55736167 
 14905      65496E76 
 14905      65727400 
 14906              	.LASF557:
 14907 3135 70737472 		.ascii	"pstrUsageBatteryStrength\000"
 14907      55736167 
 14907      65426174 
ARM GAS  C:\Users\jrdia\AppData\Local\Temp\ccYHzYw6.s 			page 324


 14907      74657279 
 14907      53747265 
 14908              	.LASF1138:
 14909 314e 70737472 		.ascii	"pstrUsageCharAttributeEnhance\000"
 14909      55736167 
 14909      65436861 
 14909      72417474 
 14909      72696275 
 14910              	.LASF1189:
 14911 316c 474E5520 		.ascii	"GNU C++ 5.4.1 20160609 (release) [ARM/embedded-5-br"
 14911      432B2B20 
 14911      352E342E 
 14911      31203230 
 14911      31363036 
 14912 319f 616E6368 		.ascii	"anch revision 237715] -mcpu=cortex-m0 -mthumb -g -O"
 14912      20726576 
 14912      6973696F 
 14912      6E203233 
 14912      37373135 
 14913 31d2 32202D66 		.ascii	"2 -ffunction-sections -ffat-lto-objects\000"
 14913      66756E63 
 14913      74696F6E 
 14913      2D736563 
 14913      74696F6E 
 14914              	.LASF194:
 14915 31fa 70527074 		.ascii	"pRptParser\000"
 14915      50617273 
 14915      657200
 14916              	.LASF757:
 14917 3205 70737472 		.ascii	"pstrUsageMediaSelectSecurity\000"
 14917      55736167 
 14917      654D6564 
 14917      69615365 
 14917      6C656374 
 14918              	.LASF1055:
 14919 3222 70737472 		.ascii	"pstrUsageACDistributeVerticaly\000"
 14919      55736167 
 14919      65414344 
 14919      69737472 
 14919      69627574 
 14920              	.LASF218:
 14921 3241 5F5A4E35 		.ascii	"_ZN5BTHID5ResetEv\000"
 14921      42544849 
 14921      44355265 
 14921      73657445 
 14921      7600
 14922              	.LASF912:
 14923 3253 70737472 		.ascii	"pstrUsageALOnlineActivityBrowser\000"
 14923      55736167 
 14923      65414C4F 
 14923      6E6C696E 
 14923      65416374 
 14924              	.LASF29:
 14925 3274 65704164 		.ascii	"epAddr\000"
 14925      647200
 14926              	.LASF884:
 14927 327b 70737472 		.ascii	"pstrUsageALThesaurus\000"
ARM GAS  C:\Users\jrdia\AppData\Local\Temp\ccYHzYw6.s 			page 325


 14927      55736167 
 14927      65414C54 
 14927      68657361 
 14927      75727573 
 14928              	.LASF291:
 14929 3290 47657455 		.ascii	"GetUsb\000"
 14929      736200
 14930              	.LASF102:
 14931 3297 53657448 		.ascii	"SetHubPreMask\000"
 14931      75625072 
 14931      654D6173 
 14931      6B00
 14932              	.LASF636:
 14933 32a5 70737472 		.ascii	"pstrUsageIndicatorGreen\000"
 14933      55736167 
 14933      65496E64 
 14933      69636174 
 14933      6F724772 
 14934              	.LASF623:
 14935 32bd 70737472 		.ascii	"pstrUsageMultiModeIndicator\000"
 14935      55736167 
 14935      654D756C 
 14935      74694D6F 
 14935      6465496E 
 14936              	.LASF504:
 14937 32d9 70737472 		.ascii	"pstrUsageStickHeelToe\000"
 14937      55736167 
 14937      65537469 
 14937      636B4865 
 14937      656C546F 
 14938              	.LASF357:
 14939 32ef 70737472 		.ascii	"pstrUsagePageMSRDevices\000"
 14939      55736167 
 14939      65506167 
 14939      654D5352 
 14939      44657669 
 14940              	.LASF611:
 14941 3307 70737472 		.ascii	"pstrUsageRemote\000"
 14941      55736167 
 14941      6552656D 
 14941      6F746500 
 14942              	.LASF113:
 14943 3317 5F5A4E33 		.ascii	"_ZN3USB15getUsbTaskStateEv\000"
 14943      55534231 
 14943      35676574 
 14943      55736254 
 14943      61736B53 
 14944              	.LASF1016:
 14945 3332 70737472 		.ascii	"pstrUsageACSelectColumn\000"
 14945      55736167 
 14945      65414353 
 14945      656C6563 
 14945      74436F6C 
 14946              	.LASF418:
 14947 334a 70737472 		.ascii	"pstrUsageSystemBreak\000"
 14947      55736167 
 14947      65537973 
ARM GAS  C:\Users\jrdia\AppData\Local\Temp\ccYHzYw6.s 			page 326


 14947      74656D42 
 14947      7265616B 
 14948              	.LASF265:
 14949 335f 5F5A4E33 		.ascii	"_ZN3BTD20l2cap_config_requestEthPh\000"
 14949      42544432 
 14949      306C3263 
 14949      61705F63 
 14949      6F6E6669 
 14950              	.LASF890:
 14951 3382 70737472 		.ascii	"pstrUsageALKeyboardLayout\000"
 14951      55736167 
 14951      65414C4B 
 14951      6579626F 
 14951      6172644C 
 14952              	.LASF13:
 14953 339c 696E7438 		.ascii	"int8_t\000"
 14953      5F7400
 14954              	.LASF44:
 14955 33a3 55736244 		.ascii	"UsbDeviceHandleFunc\000"
 14955      65766963 
 14955      6548616E 
 14955      646C6546 
 14955      756E6300 
 14956              	.LASF530:
 14957 33b7 70737472 		.ascii	"pstrUsagePinballDevice\000"
 14957      55736167 
 14957      6550696E 
 14957      62616C6C 
 14957      44657669 
 14958              	.LASF832:
 14959 33ce 70737472 		.ascii	"pstrUsageChannelFront\000"
 14959      55736167 
 14959      65436861 
 14959      6E6E656C 
 14959      46726F6E 
 14960              	.LASF227:
 14961 33e4 73657450 		.ascii	"setProtocol\000"
 14961      726F746F 
 14961      636F6C00 
 14962              	.LASF1014:
 14963 33f0 70737472 		.ascii	"pstrUsageACSelectSentence\000"
 14963      55736167 
 14963      65414353 
 14963      656C6563 
 14963      7453656E 
 14964              	.LASF53:
 14965 340a 5553425F 		.ascii	"USB_ENDPOINT_DESCRIPTOR\000"
 14965      454E4450 
 14965      4F494E54 
 14965      5F444553 
 14965      43524950 
 14966              	.LASF284:
 14967 3422 746F7461 		.ascii	"totalEndpoints\000"
 14967      6C456E64 
 14967      706F696E 
 14967      747300
 14968              	.LASF476:
ARM GAS  C:\Users\jrdia\AppData\Local\Temp\ccYHzYw6.s 			page 327


 14969 3431 70737472 		.ascii	"pstrUsageBarrelElevation\000"
 14969      55736167 
 14969      65426172 
 14969      72656C45 
 14969      6C657661 
 14970              	.LASF768:
 14971 344a 70737472 		.ascii	"pstrUsageScanNextTrack\000"
 14971      55736167 
 14971      65536361 
 14971      6E4E6578 
 14971      74547261 
 14972              	.LASF39:
 14973 3461 55736244 		.ascii	"UsbDevice\000"
 14973      65766963 
 14973      6500
 14974              	.LASF417:
 14975 346b 70737472 		.ascii	"pstrUsageSystemSetup\000"
 14975      55736167 
 14975      65537973 
 14975      74656D53 
 14975      65747570 
 14976              	.LASF934:
 14977 3480 70737472 		.ascii	"pstrUsageACHome\000"
 14977      55736167 
 14977      65414348 
 14977      6F6D6500 
 14978              	.LASF1095:
 14979 3490 70737472 		.ascii	"pstrUsageBitmappedDisplay\000"
 14979      55736167 
 14979      65426974 
 14979      6D617070 
 14979      65644469 
 14980              	.LASF200:
 14981 34aa 5F5A4E35 		.ascii	"_ZN5BTHIDC4ERKS_\000"
 14981      42544849 
 14981      44433445 
 14981      524B535F 
 14981      00
 14982              	.LASF335:
 14983 34bb 70737472 		.ascii	"pstrUsagePageUndefined\000"
 14983      55736167 
 14983      65506167 
 14983      65556E64 
 14983      6566696E 
 14984              	.LASF887:
 14985 34d2 70737472 		.ascii	"pstrUsageALSpellCheck\000"
 14985      55736167 
 14985      65414C53 
 14985      70656C6C 
 14985      43686563 
 14986              	.LASF249:
 14987 34e8 5F5A4E31 		.ascii	"_ZN16BluetoothService14checkHciHandleEPht\000"
 14987      36426C75 
 14987      65746F6F 
 14987      74685365 
 14987      72766963 
 14988              	.LASF998:
ARM GAS  C:\Users\jrdia\AppData\Local\Temp\ccYHzYw6.s 			page 328


 14989 3512 70737472 		.ascii	"pstrUsageACExpand\000"
 14989      55736167 
 14989      65414345 
 14989      7870616E 
 14989      6400
 14990              	.LASF75:
 14991 3524 6770696F 		.ascii	"gpioRd\000"
 14991      526400
 14992              	.LASF359:
 14993 352b 70737472 		.ascii	"pstrUsagePageCameraControl\000"
 14993      55736167 
 14993      65506167 
 14993      6543616D 
 14993      65726143 
 14994              	.LASF742:
 14995 3546 70737472 		.ascii	"pstrUsageMediaSelectWWW\000"
 14995      55736167 
 14995      654D6564 
 14995      69615365 
 14995      6C656374 
 14996              	.LASF302:
 14997 355e 47657452 		.ascii	"GetReportDescr\000"
 14997      65706F72 
 14997      74446573 
 14997      637200
 14998              	.LASF133:
 14999 356d 6374726C 		.ascii	"ctrlStatus\000"
 14999      53746174 
 14999      757300
 15000              	.LASF938:
 15001 3578 70737472 		.ascii	"pstrUsageACRefresh\000"
 15001      55736167 
 15001      65414352 
 15001      65667265 
 15001      736800
 15002              	.LASF992:
 15003 358b 70737472 		.ascii	"pstrUsageACYes\000"
 15003      55736167 
 15003      65414359 
 15003      657300
 15004              	.LASF86:
 15005 359a 5F5A4E38 		.ascii	"_ZN8MAX3421eI4TPinI5PortbLh2EES0_IS1_Lh1EEE12getVbu"
 15005      4D415833 
 15005      34323165 
 15005      49345450 
 15005      696E4935 
 15006 35cd 73537461 		.ascii	"sStateEv\000"
 15006      74654576 
 15006      00
 15007              	.LASF366:
 15008 35d6 70737472 		.ascii	"pstrUsageGamePad\000"
 15008      55736167 
 15008      6547616D 
 15008      65506164 
 15008      00
 15009              	.LASF77:
 15010 35e7 72657365 		.ascii	"reset\000"
ARM GAS  C:\Users\jrdia\AppData\Local\Temp\ccYHzYw6.s 			page 329


 15010      7400
 15011              	.LASF152:
 15012 35ed 4F757454 		.ascii	"OutTransfer\000"
 15012      72616E73 
 15012      66657200 
 15013              	.LASF756:
 15014 35f9 70737472 		.ascii	"pstrUsageMediaSelectSatellite\000"
 15014      55736167 
 15014      654D6564 
 15014      69615365 
 15014      6C656374 
 15015              	.LASF258:
 15016 3617 4254445F 		.ascii	"BTD_EVENT_PIPE\000"
 15016      4556454E 
 15016      545F5049 
 15016      504500
 15017              	.LASF1164:
 15018 3626 70737472 		.ascii	"pstrUsageClipStore\000"
 15018      55736167 
 15018      65436C69 
 15018      7053746F 
 15018      726500
 15019              	.LASF316:
 15020 3639 5F5A4E31 		.ascii	"_ZN15HIDReportParser5ParseEP6USBHIDbhPh\000"
 15020      35484944 
 15020      5265706F 
 15020      72745061 
 15020      72736572 
 15021              	.LASF1167:
 15022 3661 70737472 		.ascii	"pstrUsageSave\000"
 15022      55736167 
 15022      65536176 
 15022      6500
 15023              	.LASF810:
 15024 366f 70737472 		.ascii	"pstrUsageLightEnable\000"
 15024      55736167 
 15024      654C6967 
 15024      6874456E 
 15024      61626C65 
 15025              	.LASF419:
 15026 3684 70737472 		.ascii	"pstrUsageSystemDebuggerBreak\000"
 15026      55736167 
 15026      65537973 
 15026      74656D44 
 15026      65627567 
 15027              	.LASF17:
 15028 36a1 73697A65 		.ascii	"sizetype\000"
 15028      74797065 
 15028      00
 15029              	.LASF47:
 15030 36aa 624C656E 		.ascii	"bLength\000"
 15030      67746800 
 15031              	.LASF703:
 15032 36b2 70737472 		.ascii	"pstrUsageConsumerControl\000"
 15032      55736167 
 15032      65436F6E 
 15032      73756D65 
ARM GAS  C:\Users\jrdia\AppData\Local\Temp\ccYHzYw6.s 			page 330


 15032      72436F6E 
 15033              	.LASF944:
 15034 36cb 70737472 		.ascii	"pstrUsageACZoomIn\000"
 15034      55736167 
 15034      6541435A 
 15034      6F6F6D49 
 15034      6E00
 15035              	.LASF276:
 15036 36dd 6C326361 		.ascii	"l2cap_disconnection_response\000"
 15036      705F6469 
 15036      73636F6E 
 15036      6E656374 
 15036      696F6E5F 
 15037              	.LASF908:
 15038 36fa 70737472 		.ascii	"pstrUsageALOnlineShoppingBrowser\000"
 15038      55736167 
 15038      65414C4F 
 15038      6E6C696E 
 15038      6553686F 
 15039              	.LASF893:
 15040 371b 70737472 		.ascii	"pstrUsageALScreenSaver\000"
 15040      55736167 
 15040      65414C53 
 15040      63726565 
 15040      6E536176 
 15041              	.LASF163:
 15042 3732 5F5A4E31 		.ascii	"_ZN15USBDeviceConfigC4Ev\000"
 15042      35555342 
 15042      44657669 
 15042      6365436F 
 15042      6E666967 
 15043              	.LASF572:
 15044 374b 70737472 		.ascii	"pstrUsageMute\000"
 15044      55736167 
 15044      654D7574 
 15044      6500
 15045              	.LASF568:
 15046 3759 70737472 		.ascii	"pstrUsageKana\000"
 15046      55736167 
 15046      654B616E 
 15046      6100
 15047              	.LASF203:
 15048 3767 5F5A4E35 		.ascii	"_ZN5BTHID10disconnectEv\000"
 15048      42544849 
 15048      44313064 
 15048      6973636F 
 15048      6E6E6563 
 15049              	.LASF6:
 15050 377f 73686F72 		.ascii	"short unsigned int\000"
 15050      7420756E 
 15050      7369676E 
 15050      65642069 
 15050      6E7400
 15051              	.LASF62:
 15052 3792 76627573 		.ascii	"vbus_on\000"
 15052      5F6F6E00 
 15053              	.LASF2:
ARM GAS  C:\Users\jrdia\AppData\Local\Temp\ccYHzYw6.s 			page 331


 15054 379a 7369676E 		.ascii	"signed char\000"
 15054      65642063 
 15054      68617200 
 15055              	.LASF856:
 15056 37a6 70737472 		.ascii	"pstrUsageALVoicemail\000"
 15056      55736167 
 15056      65414C56 
 15056      6F696365 
 15056      6D61696C 
 15057              	.LASF522:
 15058 37bb 70737472 		.ascii	"pstrUsageLoftWedge\000"
 15058      55736167 
 15058      654C6F66 
 15058      74576564 
 15058      676500
 15059              	.LASF1001:
 15060 37ce 70737472 		.ascii	"pstrUsageACCollapseAll\000"
 15060      55736167 
 15060      65414343 
 15060      6F6C6C61 
 15060      70736541 
 15061              	.LASF925:
 15062 37e5 70737472 		.ascii	"pstrUsageACUndo\000"
 15062      55736167 
 15062      65414355 
 15062      6E646F00 
 15063              	.LASF546:
 15064 37f5 70737472 		.ascii	"pstrUsageShootBall\000"
 15064      55736167 
 15064      6553686F 
 15064      6F744261 
 15064      6C6C00
 15065              	.LASF282:
 15066 3808 6D617848 		.ascii	"maxHidInterfaces\000"
 15066      6964496E 
 15066      74657266 
 15066      61636573 
 15066      00
 15067              	.LASF868:
 15068 3819 70737472 		.ascii	"pstrUsageALNetworkConference\000"
 15068      55736167 
 15068      65414C4E 
 15068      6574776F 
 15068      726B436F 
 15069              	.LASF764:
 15070 3836 70737472 		.ascii	"pstrUsageOnce\000"
 15070      55736167 
 15070      654F6E63 
 15070      6500
 15071              	.LASF649:
 15072 3844 70737472 		.ascii	"pstrUsageFlash\000"
 15072      55736167 
 15072      65466C61 
 15072      736800
 15073              	.LASF818:
 15074 3853 70737472 		.ascii	"pstrUsageMotion\000"
 15074      55736167 
ARM GAS  C:\Users\jrdia\AppData\Local\Temp\ccYHzYw6.s 			page 332


 15074      654D6F74 
 15074      696F6E00 
 15075              	.LASF264:
 15076 3863 6C326361 		.ascii	"l2cap_connection_response\000"
 15076      705F636F 
 15076      6E6E6563 
 15076      74696F6E 
 15076      5F726573 
 15077              	.LASF516:
 15078 387d 70737472 		.ascii	"pstrUsage7Iron\000"
 15078      55736167 
 15078      65374972 
 15078      6F6E00
 15079              	.LASF1182:
 15080 388c 70737472 		.ascii	"pstrUsageColorDopplerModeAdjust\000"
 15080      55736167 
 15080      65436F6C 
 15080      6F72446F 
 15080      70706C65 
 15081              	.LASF170:
 15082 38ac 5F5A4E31 		.ascii	"_ZN15USBDeviceConfig4PollEv\000"
 15082      35555342 
 15082      44657669 
 15082      6365436F 
 15082      6E666967 
 15083              	.LASF627:
 15084 38c8 70737472 		.ascii	"pstrUsageIndicatorFastBlink\000"
 15084      55736167 
 15084      65496E64 
 15084      69636174 
 15084      6F724661 
 15085              	.LASF1106:
 15086 38e4 70737472 		.ascii	"pstrUsageCharacterReport\000"
 15086      55736167 
 15086      65436861 
 15086      72616374 
 15086      65725265 
 15087              	.LASF825:
 15088 38fd 70737472 		.ascii	"pstrUsageBassDecrement\000"
 15088      55736167 
 15088      65426173 
 15088      73446563 
 15088      72656D65 
 15089              	.LASF391:
 15090 3914 70737472 		.ascii	"pstrUsageVbrz\000"
 15090      55736167 
 15090      65566272 
 15090      7A00
 15091              	.LASF483:
 15092 3922 70737472 		.ascii	"pstrUsageBelt\000"
 15092      55736167 
 15092      6542656C 
 15092      7400
 15093              	.LASF1158:
 15094 3930 70737472 		.ascii	"pstrUsageSoftButtonOffset1\000"
 15094      55736167 
 15094      65536F66 
ARM GAS  C:\Users\jrdia\AppData\Local\Temp\ccYHzYw6.s 			page 333


 15094      74427574 
 15094      746F6E4F 
 15095              	.LASF116:
 15096 394b 67657445 		.ascii	"getEpInfoEntry\000"
 15096      70496E66 
 15096      6F456E74 
 15096      727900
 15097              	.LASF431:
 15098 395a 70737472 		.ascii	"pstrUsageSystemDisplayLCDAutoscale\000"
 15098      55736167 
 15098      65537973 
 15098      74656D44 
 15098      6973706C 
 15099              	.LASF333:
 15100 397d 70737472 		.ascii	"pstrDoubleTab\000"
 15100      446F7562 
 15100      6C655461 
 15100      6200
 15101              	.LASF212:
 15102 398b 5F5A4E35 		.ascii	"_ZN5BTHID7setLedsEh\000"
 15102      42544849 
 15102      44377365 
 15102      744C6564 
 15102      73456800 
 15103              	.LASF892:
 15104 399f 70737472 		.ascii	"pstrUsageALEncryption\000"
 15104      55736167 
 15104      65414C45 
 15104      6E637279 
 15104      7074696F 
 15105              	.LASF458:
 15106 39b5 70737472 		.ascii	"pstrUsageElevator\000"
 15106      55736167 
 15106      65456C65 
 15106      7661746F 
 15106      7200
 15107              	.LASF111:
 15108 39c7 5F5A4E33 		.ascii	"_ZN3USB16ForEachUsbDeviceEPFvP9UsbDeviceE\000"
 15108      55534231 
 15108      36466F72 
 15108      45616368 
 15108      55736244 
 15109              	.LASF172:
 15110 39f1 5F5A4E31 		.ascii	"_ZN15USBDeviceConfig10GetAddressEv\000"
 15110      35555342 
 15110      44657669 
 15110      6365436F 
 15110      6E666967 
 15111              	.LASF725:
 15112 3a14 70737472 		.ascii	"pstrUsageDataOnScreen\000"
 15112      55736167 
 15112      65446174 
 15112      614F6E53 
 15112      63726565 
 15113              	.LASF1141:
 15114 3a2a 70737472 		.ascii	"pstrUsageBitmapSizeX\000"
 15114      55736167 
ARM GAS  C:\Users\jrdia\AppData\Local\Temp\ccYHzYw6.s 			page 334


 15114      65426974 
 15114      6D617053 
 15114      697A6558 
 15115              	.LASF1142:
 15116 3a3f 70737472 		.ascii	"pstrUsageBitmapSizeY\000"
 15116      55736167 
 15116      65426974 
 15116      6D617053 
 15116      697A6559 
 15117              	.LASF406:
 15118 3a54 70737472 		.ascii	"pstrUsageSystemMenuLeft\000"
 15118      55736167 
 15118      65537973 
 15118      74656D4D 
 15118      656E754C 
 15119              	.LASF534:
 15120 3a6c 70737472 		.ascii	"pstrUsagePitchForwardBackward\000"
 15120      55736167 
 15120      65506974 
 15120      6368466F 
 15120      72776172 
 15121              	.LASF324:
 15122 3a8a 6C326361 		.ascii	"l2capinbuf\000"
 15122      70696E62 
 15122      756600
 15123              	.LASF779:
 15124 3a95 70737472 		.ascii	"pstrUsageMark\000"
 15124      55736167 
 15124      654D6172 
 15124      6B00
 15125              	.LASF1157:
 15126 3aa3 70737472 		.ascii	"pstrUsageSoftButtonSide\000"
 15126      55736167 
 15126      65536F66 
 15126      74427574 
 15126      746F6E53 
 15127              	.LASF948:
 15128 3abb 70737472 		.ascii	"pstrUsageACNormalView\000"
 15128      55736167 
 15128      6541434E 
 15128      6F726D61 
 15128      6C566965 
 15129              	.LASF1024:
 15130 3ad1 70737472 		.ascii	"pstrUsageACFilter\000"
 15130      55736167 
 15130      65414346 
 15130      696C7465 
 15130      7200
 15131              	.LASF210:
 15132 3ae3 7365744C 		.ascii	"setLeds\000"
 15132      65647300 
 15133              	.LASF42:
 15134 3aeb 6570636F 		.ascii	"epcount\000"
 15134      756E7400 
 15135              	.LASF321:
 15136 3af3 5F5A4E35 		.ascii	"_ZN5BTHIDC2EP3BTDbPKc\000"
 15136      42544849 
ARM GAS  C:\Users\jrdia\AppData\Local\Temp\ccYHzYw6.s 			page 335


 15136      44433245 
 15136      50334254 
 15136      4462504B 
 15137              	.LASF714:
 15138 3b09 70737472 		.ascii	"pstrUsageIllumination\000"
 15138      55736167 
 15138      65496C6C 
 15138      756D696E 
 15138      6174696F 
 15139              	.LASF667:
 15140 3b1f 70737472 		.ascii	"pstrUsagePhoneDirectory\000"
 15140      55736167 
 15140      6550686F 
 15140      6E654469 
 15140      72656374 
 15141              	.LASF565:
 15142 3b37 70737472 		.ascii	"pstrUsageCapsLock\000"
 15142      55736167 
 15142      65436170 
 15142      734C6F63 
 15142      6B00
 15143              	.LASF994:
 15144 3b49 70737472 		.ascii	"pstrUsageACCancel\000"
 15144      55736167 
 15144      65414343 
 15144      616E6365 
 15144      6C00
 15145              	.LASF817:
 15146 3b5b 70737472 		.ascii	"pstrUsageProximity\000"
 15146      55736167 
 15146      6550726F 
 15146      78696D69 
 15146      747900
 15147              	.LASF1104:
 15148 3b6e 70737472 		.ascii	"pstrUsageVerticalScroll\000"
 15148      55736167 
 15148      65566572 
 15148      74696361 
 15148      6C536372 
 15149              	.LASF232:
 15150 3b86 70427464 		.ascii	"pBtd\000"
 15150      00
 15151              	.LASF374:
 15152 3b8b 70737472 		.ascii	"pstrUsageRx\000"
 15152      55736167 
 15152      65527800 
 15153              	.LASF375:
 15154 3b97 70737472 		.ascii	"pstrUsageRy\000"
 15154      55736167 
 15154      65527900 
 15155              	.LASF376:
 15156 3ba3 70737472 		.ascii	"pstrUsageRz\000"
 15156      55736167 
 15156      65527A00 
 15157              	.LASF208:
 15158 3baf 73657450 		.ascii	"setProtocolMode\000"
 15158      726F746F 
ARM GAS  C:\Users\jrdia\AppData\Local\Temp\ccYHzYw6.s 			page 336


 15158      636F6C4D 
 15158      6F646500 
 15159              	.LASF411:
 15160 3bbf 70737472 		.ascii	"pstrUsageDPadUp\000"
 15160      55736167 
 15160      65445061 
 15160      64557000 
 15161              	.LASF139:
 15162 3bcf 64697370 		.ascii	"dispatchPkt\000"
 15162      61746368 
 15162      506B7400 
 15163              	.LASF1085:
 15164 3bdb 70737472 		.ascii	"pstrUsageYTilt\000"
 15164      55736167 
 15164      65595469 
 15164      6C7400
 15165              	.LASF198:
 15166 3bea 696E7465 		.ascii	"interrupt_dcid\000"
 15166      72727570 
 15166      745F6463 
 15166      696400
 15167              	.LASF242:
 15168 3bf9 5F5A4E31 		.ascii	"_ZN16BluetoothService7ACLDataEPh\000"
 15168      36426C75 
 15168      65746F6F 
 15168      74685365 
 15168      72766963 
 15169              	.LASF589:
 15170 3c1a 70737472 		.ascii	"pstrUsageDataMode\000"
 15170      55736167 
 15170      65446174 
 15170      614D6F64 
 15170      6500
 15171              	.LASF991:
 15172 3c2c 70737472 		.ascii	"pstrUsageACDemote\000"
 15172      55736167 
 15172      65414344 
 15172      656D6F74 
 15172      6500
 15173              	.LASF270:
 15174 3c3e 4C324341 		.ascii	"L2CAP_Command\000"
 15174      505F436F 
 15174      6D6D616E 
 15174      6400
 15175              	.LASF537:
 15176 3c4c 70737472 		.ascii	"pstrUsageMoveForwardBackward\000"
 15176      55736167 
 15176      654D6F76 
 15176      65466F72 
 15176      77617264 
 15177              	.LASF879:
 15178 3c69 70737472 		.ascii	"pstrUsageALNextTaskApplication\000"
 15178      55736167 
 15178      65414C4E 
 15178      65787454 
 15178      61736B41 
 15179              	.LASF1009:
ARM GAS  C:\Users\jrdia\AppData\Local\Temp\ccYHzYw6.s 			page 337


 15180 3c88 70737472 		.ascii	"pstrUsageACUnprotect\000"
 15180      55736167 
 15180      65414355 
 15180      6E70726F 
 15180      74656374 
 15181              	.LASF734:
 15182 3c9d 70737472 		.ascii	"pstrUsageModeStep\000"
 15182      55736167 
 15182      654D6F64 
 15182      65537465 
 15182      7000
 15183              	.LASF272:
 15184 3caf 6863695F 		.ascii	"hci_disconnect\000"
 15184      64697363 
 15184      6F6E6E65 
 15184      637400
 15185              	.LASF498:
 15186 3cbe 70737472 		.ascii	"pstrUsageTreadmill\000"
 15186      55736167 
 15186      65547265 
 15186      61646D69 
 15186      6C6C00
 15187              	.LASF792:
 15188 3cd1 70737472 		.ascii	"pstrUsageVolume\000"
 15188      55736167 
 15188      65566F6C 
 15188      756D6500 
 15189              	.LASF1122:
 15190 3ce1 70737472 		.ascii	"pstrUsageFontReport\000"
 15190      55736167 
 15190      65466F6E 
 15190      74526570 
 15190      6F727400 
 15191              	.LASF185:
 15192 3cf5 626D4361 		.ascii	"bmCapsLock\000"
 15192      70734C6F 
 15192      636B00
 15193              	.LASF43:
 15194 3d00 6C6F7773 		.ascii	"lowspeed\000"
 15194      70656564 
 15194      00
 15195              	.LASF982:
 15196 3d09 70737472 		.ascii	"pstrUsageACJustifyCenterV\000"
 15196      55736167 
 15196      6541434A 
 15196      75737469 
 15196      66794365 
 15197              	.LASF297:
 15198 3d23 5F5A4E36 		.ascii	"_ZN6USBHID11GetProtocolEhPh\000"
 15198      55534248 
 15198      49443131 
 15198      47657450 
 15198      726F746F 
 15199              	.LASF349:
 15200 3d3f 70737472 		.ascii	"pstrUsagePagePID\000"
 15200      55736167 
 15200      65506167 
ARM GAS  C:\Users\jrdia\AppData\Local\Temp\ccYHzYw6.s 			page 338


 15200      65504944 
 15200      00
 15201              	.LASF800:
 15202 3d50 70737472 		.ascii	"pstrUsageVolumeIncrement\000"
 15202      55736167 
 15202      65566F6C 
 15202      756D6549 
 15202      6E637265 
 15203              	.LASF497:
 15204 3d69 70737472 		.ascii	"pstrUsageRowingMachine\000"
 15204      55736167 
 15204      65526F77 
 15204      696E674D 
 15204      61636869 
 15205              	.LASF468:
 15206 3d80 70737472 		.ascii	"pstrUsageWeaponsSelect\000"
 15206      55736167 
 15206      65576561 
 15206      706F6E73 
 15206      53656C65 
 15207              	.LASF440:
 15208 3d97 70737472 		.ascii	"pstrUsageAirplaneSimulationDevice\000"
 15208      55736167 
 15208      65416972 
 15208      706C616E 
 15208      6553696D 
 15209              	.LASF392:
 15210 3db9 70737472 		.ascii	"pstrUsageVno\000"
 15210      55736167 
 15210      65566E6F 
 15210      00
 15211              	.LASF959:
 15212 3dc6 70737472 		.ascii	"pstrUsageACFormat\000"
 15212      55736167 
 15212      65414346 
 15212      6F726D61 
 15212      7400
 15213              	.LASF961:
 15214 3dd8 70737472 		.ascii	"pstrUsageACBold\000"
 15214      55736167 
 15214      65414342 
 15214      6F6C6400 
 15215              	.LASF70:
 15216 3de8 6770696F 		.ascii	"gpioWr\000"
 15216      577200
 15217              	.LASF985:
 15218 3def 70737472 		.ascii	"pstrUsageACIndentDecrease\000"
 15218      55736167 
 15218      65414349 
 15218      6E64656E 
 15218      74446563 
 15219              	.LASF748:
 15220 3e09 70737472 		.ascii	"pstrUsageMediaSelectMessages\000"
 15220      55736167 
 15220      654D6564 
 15220      69615365 
 15220      6C656374 
ARM GAS  C:\Users\jrdia\AppData\Local\Temp\ccYHzYw6.s 			page 339


 15221              	.LASF513:
 15222 3e26 70737472 		.ascii	"pstrUsage4Iron\000"
 15222      55736167 
 15222      65344972 
 15222      6F6E00
 15223              	.LASF1177:
 15224 3e35 70737472 		.ascii	"pstrUsageZoomSelect\000"
 15224      55736167 
 15224      655A6F6F 
 15224      6D53656C 
 15224      65637400 
 15225              	.LASF1065:
 15226 3e49 70737472 		.ascii	"pstrUsageArticulatedArm\000"
 15226      55736167 
 15226      65417274 
 15226      6963756C 
 15226      61746564 
 15227              	.LASF7:
 15228 3e61 6C6F6E67 		.ascii	"long int\000"
 15228      20696E74 
 15228      00
 15229              	.LASF135:
 15230 3e6a 696E5472 		.ascii	"inTransfer\000"
 15230      616E7366 
 15230      657200
 15231              	.LASF922:
 15232 3e75 70737472 		.ascii	"pstrUsageACSave\000"
 15232      55736167 
 15232      65414353 
 15232      61766500 
 15233              	.LASF1066:
 15234 3e85 70737472 		.ascii	"pstrUsageArmature\000"
 15234      55736167 
 15234      6541726D 
 15234      61747572 
 15234      6500
 15235              	.LASF74:
 15236 3e97 5F5A4E38 		.ascii	"_ZN8MAX3421eI4TPinI5PortbLh2EES0_IS1_Lh1EEE7bytesRd"
 15236      4D415833 
 15236      34323165 
 15236      49345450 
 15236      696E4935 
 15237 3eca 45686850 		.ascii	"EhhPh\000"
 15237      6800
 15238              	.LASF1054:
 15239 3ed0 70737472 		.ascii	"pstrUsageACDistributeHorizontaly\000"
 15239      55736167 
 15239      65414344 
 15239      69737472 
 15239      69627574 
 15240              	.LASF81:
 15241 3ef1 5F5A4E38 		.ascii	"_ZN8MAX3421eI4TPinI5PortbLh2EES0_IS1_Lh1EEE4InitEi\000"
 15241      4D415833 
 15241      34323165 
 15241      49345450 
 15241      696E4935 
 15242              	.LASF33:
ARM GAS  C:\Users\jrdia\AppData\Local\Temp\ccYHzYw6.s 			page 340


 15243 3f24 626D4164 		.ascii	"bmAddress\000"
 15243      64726573 
 15243      7300
 15244              	.LASF267:
 15245 3f2e 5F5A4E33 		.ascii	"_ZN3BTD24l2cap_connection_requestEthPht\000"
 15245      42544432 
 15245      346C3263 
 15245      61705F63 
 15245      6F6E6E65 
 15246              	.LASF822:
 15247 3f56 70737472 		.ascii	"pstrUsageBalanceRight\000"
 15247      55736167 
 15247      6542616C 
 15247      616E6365 
 15247      52696768 
 15248              	.LASF202:
 15249 3f6c 64697363 		.ascii	"disconnect\000"
 15249      6F6E6E65 
 15249      637400
 15250              	.LASF80:
 15251 3f77 5F5A4E38 		.ascii	"_ZN8MAX3421eI4TPinI5PortbLh2EES0_IS1_Lh1EEE4InitEv\000"
 15251      4D415833 
 15251      34323165 
 15251      49345450 
 15251      696E4935 
 15252              	.LASF1175:
 15253 3faa 70737472 		.ascii	"pstrUsageSoftStepSecondary\000"
 15253      55736167 
 15253      65536F66 
 15253      74537465 
 15253      70536563 
 15254              	.LASF1058:
 15255 3fc5 70737472 		.ascii	"pstrUsageLightPen\000"
 15255      55736167 
 15255      654C6967 
 15255      68745065 
 15255      6E00
 15256              	.LASF266:
 15257 3fd7 6C326361 		.ascii	"l2cap_config_request\000"
 15257      705F636F 
 15257      6E666967 
 15257      5F726571 
 15257      75657374 
 15258              	.LASF901:
 15259 3fec 70737472 		.ascii	"pstrUsageALDigitalRightsManager\000"
 15259      55736167 
 15259      65414C44 
 15259      69676974 
 15259      616C5269 
 15260              	.LASF965:
 15261 400c 70737472 		.ascii	"pstrUsageACSubscript\000"
 15261      55736167 
 15261      65414353 
 15261      75627363 
 15261      72697074 
 15262              	.LASF1160:
 15263 4021 70737472 		.ascii	"pstrUsageSoftButtonReport\000"
ARM GAS  C:\Users\jrdia\AppData\Local\Temp\ccYHzYw6.s 			page 341


 15263      55736167 
 15263      65536F66 
 15263      74427574 
 15263      746F6E52 
 15264              	.LASF160:
 15265 403b 5F767074 		.ascii	"_vptr.USBDeviceConfig\000"
 15265      722E5553 
 15265      42446576 
 15265      69636543 
 15265      6F6E6669 
 15266              	.LASF1076:
 15267 4051 70737472 		.ascii	"pstrUsageUntouch\000"
 15267      55736167 
 15267      65556E74 
 15267      6F756368 
 15267      00
 15268              	.LASF119:
 15269 4062 5F5A4E33 		.ascii	"_ZN3USB14setEpInfoEntryEhhP6EpInfo\000"
 15269      55534231 
 15269      34736574 
 15269      4570496E 
 15269      666F456E 
 15270              	.LASF852:
 15271 4085 70737472 		.ascii	"pstrUsageALPresentationApp\000"
 15271      55736167 
 15271      65414C50 
 15271      72657365 
 15271      6E746174 
 15272              	.LASF449:
 15273 40a0 70737472 		.ascii	"pstrUsageTrackControl\000"
 15273      55736167 
 15273      65547261 
 15273      636B436F 
 15273      6E74726F 
 15274              	.LASF528:
 15275 40b6 70737472 		.ascii	"pstrUsage9Wood\000"
 15275      55736167 
 15275      6539576F 
 15275      6F6400
 15276              	.LASF1033:
 15277 40c5 70737472 		.ascii	"pstrUsageACSyncronize\000"
 15277      55736167 
 15277      65414353 
 15277      796E6372 
 15277      6F6E697A 
 15278              	.LASF475:
 15279 40db 70737472 		.ascii	"pstrUsageTurretDirection\000"
 15279      55736167 
 15279      65547572 
 15279      72657444 
 15279      69726563 
 15280              	.LASF314:
 15281 40f4 50617273 		.ascii	"Parse\000"
 15281      6500
 15282              	.LASF398:
 15283 40fa 70737472 		.ascii	"pstrUsageSystemWakeup\000"
 15283      55736167 
ARM GAS  C:\Users\jrdia\AppData\Local\Temp\ccYHzYw6.s 			page 342


 15283      65537973 
 15283      74656D57 
 15283      616B6575 
 15284              	.LASF809:
 15285 4110 70737472 		.ascii	"pstrUsageFanSpeed\000"
 15285      55736167 
 15285      6546616E 
 15285      53706565 
 15285      6400
 15286              	.LASF16:
 15287 4122 75696E74 		.ascii	"uint32_t\000"
 15287      33325F74 
 15287      00
 15288              	.LASF841:
 15289 412b 70737472 		.ascii	"pstrUsageSubChannelDecrement\000"
 15289      55736167 
 15289      65537562 
 15289      4368616E 
 15289      6E656C44 
 15290              	.LASF838:
 15291 4148 70737472 		.ascii	"pstrUsageChannelUnknown\000"
 15291      55736167 
 15291      65436861 
 15291      6E6E656C 
 15291      556E6B6E 
 15292              	.LASF674:
 15293 4160 70737472 		.ascii	"pstrUsageInsideRingTone\000"
 15293      55736167 
 15293      65496E73 
 15293      69646552 
 15293      696E6754 
 15294              	.LASF1117:
 15295 4178 70737472 		.ascii	"pstrUsageColumns\000"
 15295      55736167 
 15295      65436F6C 
 15295      756D6E73 
 15295      00
 15296              	.LASF507:
 15297 4189 70737472 		.ascii	"pstrUsageStickType\000"
 15297      55736167 
 15297      65537469 
 15297      636B5479 
 15297      706500
 15298              	.LASF615:
 15299 419c 70737472 		.ascii	"pstrUsageRewind\000"
 15299      55736167 
 15299      65526577 
 15299      696E6400 
 15300              	.LASF619:
 15301 41ac 70737472 		.ascii	"pstrUsageRecord\000"
 15301      55736167 
 15301      65526563 
 15301      6F726400 
 15302              	.LASF386:
 15303 41bc 70737472 		.ascii	"pstrUsageVx\000"
 15303      55736167 
 15303      65567800 
ARM GAS  C:\Users\jrdia\AppData\Local\Temp\ccYHzYw6.s 			page 343


 15304              	.LASF387:
 15305 41c8 70737472 		.ascii	"pstrUsageVy\000"
 15305      55736167 
 15305      65567900 
 15306              	.LASF388:
 15307 41d4 70737472 		.ascii	"pstrUsageVz\000"
 15307      55736167 
 15307      65567A00 
 15308              	.LASF241:
 15309 41e0 5F5A4E31 		.ascii	"_ZN16BluetoothService3RunEv\000"
 15309      36426C75 
 15309      65746F6F 
 15309      74685365 
 15309      72766963 
 15310              	.LASF796:
 15311 41fc 70737472 		.ascii	"pstrUsageBassBoost\000"
 15311      55736167 
 15311      65426173 
 15311      73426F6F 
 15311      737400
 15312              	.LASF1031:
 15313 420f 70737472 		.ascii	"pstrUsageACSnoozeAlarm\000"
 15313      55736167 
 15313      65414353 
 15313      6E6F6F7A 
 15313      65416C61 
 15314              	.LASF447:
 15315 4226 70737472 		.ascii	"pstrUsageCyclicTrim\000"
 15315      55736167 
 15315      65437963 
 15315      6C696354 
 15315      72696D00 
 15316              	.LASF1115:
 15317 423a 70737472 		.ascii	"pstrUsageColumn\000"
 15317      55736167 
 15317      65436F6C 
 15317      756D6E00 
 15318              	.LASF445:
 15319 424a 70737472 		.ascii	"pstrUsageFlightStick\000"
 15319      55736167 
 15319      65466C69 
 15319      67687453 
 15319      7469636B 
 15320              	.LASF1183:
 15321 425f 70737472 		.ascii	"pstrUsageMotionModeSelect\000"
 15321      55736167 
 15321      654D6F74 
 15321      696F6E4D 
 15321      6F646553 
 15322              	.LASF1107:
 15323 4279 70737472 		.ascii	"pstrUsageDisplayData\000"
 15323      55736167 
 15323      65446973 
 15323      706C6179 
 15323      44617461 
 15324              	.LASF209:
 15325 428e 5F5A4E35 		.ascii	"_ZN5BTHID15setProtocolModeEh\000"
ARM GAS  C:\Users\jrdia\AppData\Local\Temp\ccYHzYw6.s 			page 344


 15325      42544849 
 15325      44313573 
 15325      65745072 
 15325      6F746F63 
 15326              	.LASF21:
 15327 42ab 6C6F6E67 		.ascii	"long double\000"
 15327      20646F75 
 15327      626C6500 
 15328              	.LASF759:
 15329 42b7 70737472 		.ascii	"pstrUsageMediaSelectCall\000"
 15329      55736167 
 15329      654D6564 
 15329      69615365 
 15329      6C656374 
 15330              	.LASF95:
 15331 42d0 5F5A4E38 		.ascii	"_ZN8MAX3421eI4TPinI5PortbLh2EES0_IS1_Lh1EEE4TaskEv\000"
 15331      4D415833 
 15331      34323165 
 15331      49345450 
 15331      696E4935 
 15332              	.LASF775:
 15333 4303 70737472 		.ascii	"pstrUsageTrackNormal\000"
 15333      55736167 
 15333      65547261 
 15333      636B4E6F 
 15333      726D616C 
 15334              	.LASF1052:
 15335 4318 70737472 		.ascii	"pstrUsageACMerge\000"
 15335      55736167 
 15335      6541434D 
 15335      65726765 
 15335      00
 15336              	.LASF1080:
 15337 4329 70737472 		.ascii	"pstrUsageTransducerIndex\000"
 15337      55736167 
 15337      65547261 
 15337      6E736475 
 15337      63657249 
 15338              	.LASF457:
 15339 4342 70737472 		.ascii	"pstrUsageElectronicCountermeasures\000"
 15339      55736167 
 15339      65456C65 
 15339      6374726F 
 15339      6E696343 
 15340              	.LASF1131:
 15341 4365 70737472 		.ascii	"pstrUsageFont14Segment\000"
 15341      55736167 
 15341      65466F6E 
 15341      74313453 
 15341      65676D65 
 15342              	.LASF647:
 15343 437c 70737472 		.ascii	"pstrUsageProgrammableButton\000"
 15343      55736167 
 15343      6550726F 
 15343      6772616D 
 15343      6D61626C 
 15344              	.LASF717:
ARM GAS  C:\Users\jrdia\AppData\Local\Temp\ccYHzYw6.s 			page 345


 15345 4398 70737472 		.ascii	"pstrUsageMenuPick\000"
 15345      55736167 
 15345      654D656E 
 15345      75506963 
 15345      6B00
 15346              	.LASF166:
 15347 43aa 5F5A4E31 		.ascii	"_ZN15USBDeviceConfig15ConfigureDeviceEhhb\000"
 15347      35555342 
 15347      44657669 
 15347      6365436F 
 15347      6E666967 
 15348              	.LASF334:
 15349 43d4 70737472 		.ascii	"pstrTripleTab\000"
 15349      54726970 
 15349      6C655461 
 15349      6200
 15350              	.LASF9:
 15351 43e2 6C6F6E67 		.ascii	"long unsigned int\000"
 15351      20756E73 
 15351      69676E65 
 15351      6420696E 
 15351      7400
 15352              	.LASF45:
 15353 43f4 5450696E 		.ascii	"TPin<Portb, 1u>\000"
 15353      3C506F72 
 15353      74622C20 
 15353      31753E00 
 15354              	.LASF582:
 15355 4404 70737472 		.ascii	"pstrUsageSpinning\000"
 15355      55736167 
 15355      65537069 
 15355      6E6E696E 
 15355      6700
 15356              	.LASF831:
 15357 4416 70737472 		.ascii	"pstrUsageChannelCenter\000"
 15357      55736167 
 15357      65436861 
 15357      6E6E656C 
 15357      43656E74 
 15358              	.LASF131:
 15359 442d 6374726C 		.ascii	"ctrlData\000"
 15359      44617461 
 15359      00
 15360              	.LASF635:
 15361 4436 70737472 		.ascii	"pstrUsageIndicatorRed\000"
 15361      55736167 
 15361      65496E64 
 15361      69636174 
 15361      6F725265 
 15362              	.LASF533:
 15363 444c 70737472 		.ascii	"pstrUsageTurnRightLeft\000"
 15363      55736167 
 15363      65547572 
 15363      6E526967 
 15363      68744C65 
 15364              	.LASF510:
 15365 4463 70737472 		.ascii	"pstrUsage1Iron\000"
ARM GAS  C:\Users\jrdia\AppData\Local\Temp\ccYHzYw6.s 			page 346


 15365      55736167 
 15365      65314972 
 15365      6F6E00
 15366              	.LASF176:
 15367 4472 5F5A4E31 		.ascii	"_ZN15USBDeviceConfig10DEVCLASSOKEh\000"
 15367      35555342 
 15367      44657669 
 15367      6365436F 
 15367      6E666967 
 15368              	.LASF481:
 15369 4495 70737472 		.ascii	"pstrUsageFrontBrake\000"
 15369      55736167 
 15369      6546726F 
 15369      6E744272 
 15369      616B6500 
 15370              	.LASF303:
 15371 44a9 5F5A4E36 		.ascii	"_ZN6USBHID14GetReportDescrEtP13USBReadParser\000"
 15371      55534248 
 15371      49443134 
 15371      47657452 
 15371      65706F72 
 15372              	.LASF1027:
 15373 44d6 70737472 		.ascii	"pstrUsageACSelectTimeZone\000"
 15373      55736167 
 15373      65414353 
 15373      656C6563 
 15373      7454696D 
 15374              	.LASF594:
 15375 44f0 70737472 		.ascii	"pstrUsageHeadSet\000"
 15375      55736167 
 15375      65486561 
 15375      64536574 
 15375      00
 15376              	.LASF1061:
 15377 4501 70737472 		.ascii	"pstrUsageWhiteBoard\000"
 15377      55736167 
 15377      65576869 
 15377      7465426F 
 15377      61726400 
 15378              	.LASF579:
 15379 4515 70737472 		.ascii	"pstrUsageRepeat\000"
 15379      55736167 
 15379      65526570 
 15379      65617400 
 15380              	.LASF367:
 15381 4525 70737472 		.ascii	"pstrUsageKeyboard\000"
 15381      55736167 
 15381      654B6579 
 15381      626F6172 
 15381      6400
 15382              	.LASF144:
 15383 4537 436F6E66 		.ascii	"Configuring\000"
 15383      69677572 
 15383      696E6700 
 15384              	.LASF659:
 15385 4543 70737472 		.ascii	"pstrUsageRingEnable\000"
 15385      55736167 
ARM GAS  C:\Users\jrdia\AppData\Local\Temp\ccYHzYw6.s 			page 347


 15385      6552696E 
 15385      67456E61 
 15385      626C6500 
 15386              	.LASF1150:
 15387 4557 70737472 		.ascii	"pstrUsageBlitRectangleX1\000"
 15387      55736167 
 15387      65426C69 
 15387      74526563 
 15387      74616E67 
 15388              	.LASF1152:
 15389 4570 70737472 		.ascii	"pstrUsageBlitRectangleX2\000"
 15389      55736167 
 15389      65426C69 
 15389      74526563 
 15389      74616E67 
 15390              	.LASF960:
 15391 4589 70737472 		.ascii	"pstrUsageACEdit\000"
 15391      55736167 
 15391      65414345 
 15391      64697400 
 15392              	.LASF466:
 15393 4599 70737472 		.ascii	"pstrUsageTrigger\000"
 15393      55736167 
 15393      65547269 
 15393      67676572 
 15393      00
 15394              	.LASF128:
 15395 45aa 5F5A4E33 		.ascii	"_ZN3USB7setAddrEhhh\000"
 15395      55534237 
 15395      73657441 
 15395      64647245 
 15395      68686800 
 15396              	.LASF18:
 15397 45be 63686172 		.ascii	"char\000"
 15397      00
 15398              	.LASF148:
 15399 45c3 6374726C 		.ascii	"ctrlReq\000"
 15399      52657100 
 15400              	.LASF164:
 15401 45cb 436F6E66 		.ascii	"ConfigureDevice\000"
 15401      69677572 
 15401      65446576 
 15401      69636500 
 15402              	.LASF231:
 15403 45db 7046756E 		.ascii	"pFuncOnInit\000"
 15403      634F6E49 
 15403      6E697400 
 15404              	.LASF27:
 15405 45e7 626D5263 		.ascii	"bmRcvToggle\000"
 15405      76546F67 
 15405      676C6500 
 15406              	.LASF963:
 15407 45f3 70737472 		.ascii	"pstrUsageACUnderline\000"
 15407      55736167 
 15407      65414355 
 15407      6E646572 
 15407      6C696E65 
ARM GAS  C:\Users\jrdia\AppData\Local\Temp\ccYHzYw6.s 			page 348


 15408              	.LASF1196:
 15409 4608 4C324341 		.ascii	"L2CAP_task\000"
 15409      505F7461 
 15409      736B00
 15410              	.LASF429:
 15411 4613 70737472 		.ascii	"pstrUsageSystemDisplayToggleIntExt\000"
 15411      55736167 
 15411      65537973 
 15411      74656D44 
 15411      6973706C 
 15412              	.LASF101:
 15413 4636 626D4875 		.ascii	"bmHubPre\000"
 15413      62507265 
 15413      00
 15414              	.LASF91:
 15415 463f 5F5A4E38 		.ascii	"_ZN8MAX3421eI4TPinI5PortbLh2EES0_IS1_Lh1EEE10GpxHan"
 15415      4D415833 
 15415      34323165 
 15415      49345450 
 15415      696E4935 
 15416 4672 646C6572 		.ascii	"dlerEv\000"
 15416      457600
 15417              	.LASF953:
 15418 4679 70737472 		.ascii	"pstrUsageACPanLeft\000"
 15418      55736167 
 15418      65414350 
 15418      616E4C65 
 15418      667400
 15419              	.LASF823:
 15420 468c 70737472 		.ascii	"pstrUsageBalanceLeft\000"
 15420      55736167 
 15420      6542616C 
 15420      616E6365 
 15420      4C656674 
 15421              	.LASF608:
 15422 46a1 70737472 		.ascii	"pstrUsageReady\000"
 15422      55736167 
 15422      65526561 
 15422      647900
 15423              	.LASF646:
 15424 46b0 70737472 		.ascii	"pstrUsageTelephonyKeyPad\000"
 15424      55736167 
 15424      6554656C 
 15424      6570686F 
 15424      6E794B65 
 15425              	.LASF740:
 15426 46c9 70737472 		.ascii	"pstrUsageMediaSelectComputer\000"
 15426      55736167 
 15426      654D6564 
 15426      69615365 
 15426      6C656374 
 15427              	.LASF587:
 15428 46e6 70737472 		.ascii	"pstrUsageRing\000"
 15428      55736167 
 15428      6552696E 
 15428      6700
 15429              	.LASF829:
ARM GAS  C:\Users\jrdia\AppData\Local\Temp\ccYHzYw6.s 			page 349


 15430 46f4 70737472 		.ascii	"pstrUsageChannelLeft\000"
 15430      55736167 
 15430      65436861 
 15430      6E6E656C 
 15430      4C656674 
 15431              	.LASF1089:
 15432 4709 70737472 		.ascii	"pstrUsageTipSwitch\000"
 15432      55736167 
 15432      65546970 
 15432      53776974 
 15432      636800
 15433              	.LASF1170:
 15434 471c 70737472 		.ascii	"pstrUsageCine\000"
 15434      55736167 
 15434      6543696E 
 15434      6500
 15435              	.LASF1151:
 15436 472a 70737472 		.ascii	"pstrUsageBlitRectangleY1\000"
 15436      55736167 
 15436      65426C69 
 15436      74526563 
 15436      74616E67 
 15437              	.LASF1153:
 15438 4743 70737472 		.ascii	"pstrUsageBlitRectangleY2\000"
 15438      55736167 
 15438      65426C69 
 15438      74526563 
 15438      74616E67 
 15439              	.LASF555:
 15440 475c 70737472 		.ascii	"pstrUsageGamepadFireJump\000"
 15440      55736167 
 15440      6547616D 
 15440      65706164 
 15440      46697265 
 15441              	.LASF1011:
 15442 4775 70737472 		.ascii	"pstrUsageACDeleteComment\000"
 15442      55736167 
 15442      65414344 
 15442      656C6574 
 15442      65436F6D 
 15443              	.LASF150:
 15444 478e 53657441 		.ascii	"SetAddress\000"
 15444      64647265 
 15444      737300
 15445              	.LASF104:
 15446 4799 52657365 		.ascii	"ResetHubPreMask\000"
 15446      74487562 
 15446      5072654D 
 15446      61736B00 
 15447              	.LASF859:
 15448 47a9 70737472 		.ascii	"pstrUsageALTaskProjectManager\000"
 15448      55736167 
 15448      65414C54 
 15448      61736B50 
 15448      726F6A65 
 15449              	.LASF502:
 15450 47c7 70737472 		.ascii	"pstrUsageStickSpeed\000"
ARM GAS  C:\Users\jrdia\AppData\Local\Temp\ccYHzYw6.s 			page 350


 15450      55736167 
 15450      65537469 
 15450      636B5370 
 15450      65656400 
 15451              	.LASF723:
 15452 47db 70737472 		.ascii	"pstrUsageMenuValueIncrease\000"
 15452      55736167 
 15452      654D656E 
 15452      7556616C 
 15452      7565496E 
 15453              	.LASF894:
 15454 47f6 70737472 		.ascii	"pstrUsageALAlarms\000"
 15454      55736167 
 15454      65414C41 
 15454      6C61726D 
 15454      7300
 15455              	.LASF1069:
 15456 4808 70737472 		.ascii	"pstrUsageStylus\000"
 15456      55736167 
 15456      65537479 
 15456      6C757300 
 15457              	.LASF906:
 15458 4818 70737472 		.ascii	"pstrUsageALOnlineCommunity\000"
 15458      55736167 
 15458      65414C4F 
 15458      6E6C696E 
 15458      65436F6D 
 15459              	.LASF36:
 15460 4833 626D5265 		.ascii	"bmReserved\000"
 15460      73657276 
 15460      656400
 15461              	.LASF808:
 15462 483e 70737472 		.ascii	"pstrUsageFanEnable\000"
 15462      55736167 
 15462      6546616E 
 15462      456E6162 
 15462      6C6500
 15463              	.LASF1070:
 15464 4851 70737472 		.ascii	"pstrUsagePuck\000"
 15464      55736167 
 15464      65507563 
 15464      6B00
 15465              	.LASF620:
 15466 485f 70737472 		.ascii	"pstrUsageError\000"
 15466      55736167 
 15466      65457272 
 15466      6F7200
 15467              	.LASF464:
 15468 486e 70737472 		.ascii	"pstrUsageLandingGear\000"
 15468      55736167 
 15468      654C616E 
 15468      64696E67 
 15468      47656172 
 15469              	.LASF82:
 15470 4883 76627573 		.ascii	"vbusPower\000"
 15470      506F7765 
 15470      7200
ARM GAS  C:\Users\jrdia\AppData\Local\Temp\ccYHzYw6.s 			page 351


 15471              	.LASF1108:
 15472 488d 70737472 		.ascii	"pstrUsageDisplayStatus\000"
 15472      55736167 
 15472      65446973 
 15472      706C6179 
 15472      53746174 
 15473              	.LASF339:
 15474 48a4 70737472 		.ascii	"pstrUsagePageSportControls\000"
 15474      55736167 
 15474      65506167 
 15474      6553706F 
 15474      7274436F 
 15475              	.LASF155:
 15476 48bf 5F5A4E33 		.ascii	"_ZN3USB10InTransferEP6EpInfotPtPhh\000"
 15476      55534231 
 15476      30496E54 
 15476      72616E73 
 15476      66657245 
 15477              	.LASF499:
 15478 48e2 70737472 		.ascii	"pstrUsageOar\000"
 15478      55736167 
 15478      654F6172 
 15478      00
 15479              	.LASF872:
 15480 48ef 70737472 		.ascii	"pstrUsageALLogoff\000"
 15480      55736167 
 15480      65414C4C 
 15480      6F676F66 
 15480      6600
 15481              	.LASF1049:
 15482 4901 70737472 		.ascii	"pstrUsageACInsertSymbol\000"
 15482      55736167 
 15482      65414349 
 15482      6E736572 
 15482      7453796D 
 15483              	.LASF83:
 15484 4919 5F5A4E38 		.ascii	"_ZN8MAX3421eI4TPinI5PortbLh2EES0_IS1_Lh1EEE5regWrEh"
 15484      4D415833 
 15484      34323165 
 15484      49345450 
 15484      696E4935 
 15485 494c 6800     		.ascii	"h\000"
 15486              	.LASF92:
 15487 494e 496E7448 		.ascii	"IntHandler\000"
 15487      616E646C 
 15487      657200
 15488              	.LASF1193:
 15489 4959 36564255 		.ascii	"6VBUS_t\000"
 15489      535F7400 
 15490              	.LASF153:
 15491 4961 5F5A4E33 		.ascii	"_ZN3USB11OutTransferEP6EpInfottPh\000"
 15491      55534231 
 15491      314F7574 
 15491      5472616E 
 15491      73666572 
 15492              	.LASF782:
 15493 4983 70737472 		.ascii	"pstrUsageReturnToMark\000"
ARM GAS  C:\Users\jrdia\AppData\Local\Temp\ccYHzYw6.s 			page 352


 15493      55736167 
 15493      65526574 
 15493      75726E54 
 15493      6F4D6172 
 15494              	.LASF340:
 15495 4999 70737472 		.ascii	"pstrUsagePageGameControls\000"
 15495      55736167 
 15495      65506167 
 15495      6547616D 
 15495      65436F6E 
 15496              	.LASF744:
 15497 49b3 70737472 		.ascii	"pstrUsageMediaSelectTelephone\000"
 15497      55736167 
 15497      654D6564 
 15497      69615365 
 15497      6C656374 
 15498              	.LASF969:
 15499 49d1 70737472 		.ascii	"pstrUsageACResize\000"
 15499      55736167 
 15499      65414352 
 15499      6573697A 
 15499      6500
 15500              	.LASF165:
 15501 49e3 5F5A4E31 		.ascii	"_ZN15USBDeviceConfig4InitEhhb\000"
 15501      35555342 
 15501      44657669 
 15501      6365436F 
 15501      6E666967 
 15502              	.LASF509:
 15503 4a01 70737472 		.ascii	"pstrUsagePutter\000"
 15503      55736167 
 15503      65507574 
 15503      74657200 
 15504              	.LASF851:
 15505 4a11 70737472 		.ascii	"pstrUsageALGraphicsEditor\000"
 15505      55736167 
 15505      65414C47 
 15505      72617068 
 15505      69637345 
 15506              	.LASF1064:
 15507 4a2b 70737472 		.ascii	"pstrUsageStereoPlotter\000"
 15507      55736167 
 15507      65537465 
 15507      72656F50 
 15507      6C6F7474 
 15508              	.LASF1130:
 15509 4a42 70737472 		.ascii	"pstrUsage7SegmentDirectMap\000"
 15509      55736167 
 15509      65375365 
 15509      676D656E 
 15509      74446972 
 15510              	.LASF154:
 15511 4a5d 496E5472 		.ascii	"InTransfer\000"
 15511      616E7366 
 15511      657200
 15512              	.LASF73:
 15513 4a68 5F5A4E38 		.ascii	"_ZN8MAX3421eI4TPinI5PortbLh2EES0_IS1_Lh1EEE5regRdEh"
ARM GAS  C:\Users\jrdia\AppData\Local\Temp\ccYHzYw6.s 			page 353


 15513      4D415833 
 15513      34323165 
 15513      49345450 
 15513      696E4935 
 15514 4a9b 00       		.ascii	"\000"
 15515              	.LASF378:
 15516 4a9c 70737472 		.ascii	"pstrUsageDial\000"
 15516      55736167 
 15516      65446961 
 15516      6C00
 15517              	.LASF494:
 15518 4aaa 70737472 		.ascii	"pstrUsageDisplayEnable\000"
 15518      55736167 
 15518      65446973 
 15518      706C6179 
 15518      456E6162 
 15519              	.LASF1118:
 15520 4ac1 70737472 		.ascii	"pstrUsageCursorPixelPosition\000"
 15520      55736167 
 15520      65437572 
 15520      736F7250 
 15520      6978656C 
 15521              	.LASF260:
 15522 4ade 4254445F 		.ascii	"BTD_DATAOUT_PIPE\000"
 15522      44415441 
 15522      4F55545F 
 15522      50495045 
 15522      00
 15523              	.LASF520:
 15524 4aef 70737472 		.ascii	"pstrUsage11Iron\000"
 15524      55736167 
 15524      65313149 
 15524      726F6E00 
 15525              	.LASF1090:
 15526 4aff 70737472 		.ascii	"pstrUsageSecondaryTipSwitch\000"
 15526      55736167 
 15526      65536563 
 15526      6F6E6461 
 15526      72795469 
 15527              	.LASF1028:
 15528 4b1b 70737472 		.ascii	"pstrUsageACEditTimeZone\000"
 15528      55736167 
 15528      65414345 
 15528      64697454 
 15528      696D655A 
 15529              	.LASF722:
 15530 4b33 70737472 		.ascii	"pstrUsageMenuEscape\000"
 15530      55736167 
 15530      654D656E 
 15530      75457363 
 15530      61706500 
 15531              	.LASF777:
 15532 4b47 70737472 		.ascii	"pstrUsageFrameForward\000"
 15532      55736167 
 15532      65467261 
 15532      6D65466F 
 15532      72776172 
ARM GAS  C:\Users\jrdia\AppData\Local\Temp\ccYHzYw6.s 			page 354


 15533              	.LASF668:
 15534 4b5d 70737472 		.ascii	"pstrUsageVoiceMail\000"
 15534      55736167 
 15534      65566F69 
 15534      63654D61 
 15534      696C00
 15535              	.LASF1162:
 15536 4b70 70737472 		.ascii	"pstrUsageVCRAcquisition\000"
 15536      55736167 
 15536      65564352 
 15536      41637175 
 15536      69736974 
 15537              	.LASF929:
 15538 4b88 70737472 		.ascii	"pstrUsageACSelectAll\000"
 15538      55736167 
 15538      65414353 
 15538      656C6563 
 15538      74416C6C 
 15539              	.LASF593:
 15540 4b9d 70737472 		.ascii	"pstrUsageSpeaker\000"
 15540      55736167 
 15540      65537065 
 15540      616B6572 
 15540      00
 15541              	.LASF405:
 15542 4bae 70737472 		.ascii	"pstrUsageSystemMenuRight\000"
 15542      55736167 
 15542      65537973 
 15542      74656D4D 
 15542      656E7552 
 15543              	.LASF795:
 15544 4bc7 70737472 		.ascii	"pstrUsageTreble\000"
 15544      55736167 
 15544      65547265 
 15544      626C6500 
 15545              	.LASF842:
 15546 4bd7 70737472 		.ascii	"pstrUsageAlternateAudioIncrement\000"
 15546      55736167 
 15546      65416C74 
 15546      65726E61 
 15546      74654175 
 15547              	.LASF402:
 15548 4bf8 70737472 		.ascii	"pstrUsageSystemMenuHelp\000"
 15548      55736167 
 15548      65537973 
 15548      74656D4D 
 15548      656E7548 
 15549              	.LASF214:
 15550 4c10 5F5A4E35 		.ascii	"_ZN5BTHID4pairEv\000"
 15550      42544849 
 15550      44347061 
 15550      69724576 
 15550      00
 15551              	.LASF941:
 15552 4c21 70737472 		.ascii	"pstrUsageACBookmarks\000"
 15552      55736167 
 15552      65414342 
ARM GAS  C:\Users\jrdia\AppData\Local\Temp\ccYHzYw6.s 			page 355


 15552      6F6F6B6D 
 15552      61726B73 
 15553              	.LASF900:
 15554 4c36 70737472 		.ascii	"pstrUsageALMovieBrowser\000"
 15554      55736167 
 15554      65414C4D 
 15554      6F766965 
 15554      42726F77 
 15555              	.LASF895:
 15556 4c4e 70737472 		.ascii	"pstrUsageALClock\000"
 15556      55736167 
 15556      65414C43 
 15556      6C6F636B 
 15556      00
 15557              	.LASF56:
 15558 4c5f 62636448 		.ascii	"bcdHID\000"
 15558      494400
 15559              	.LASF776:
 15560 4c66 70737472 		.ascii	"pstrUsageSlowTracking\000"
 15560      55736167 
 15560      65536C6F 
 15560      77547261 
 15560      636B696E 
 15561              	.LASF839:
 15562 4c7c 70737472 		.ascii	"pstrUsageSubChannel\000"
 15562      55736167 
 15562      65537562 
 15562      4368616E 
 15562      6E656C00 
 15563              	.LASF705:
 15564 4c90 70737472 		.ascii	"pstrUsageHeadphone\000"
 15564      55736167 
 15564      65486561 
 15564      6470686F 
 15564      6E6500
 15565              	.LASF451:
 15566 4ca3 70737472 		.ascii	"pstrUsageAileronTrim\000"
 15566      55736167 
 15566      6541696C 
 15566      65726F6E 
 15566      5472696D 
 15567              	.LASF110:
 15568 4cb8 466F7245 		.ascii	"ForEachUsbDevice\000"
 15568      61636855 
 15568      73624465 
 15568      76696365 
 15568      00
 15569              	.LASF525:
 15570 4cc9 70737472 		.ascii	"pstrUsage3Wood\000"
 15570      55736167 
 15570      6533576F 
 15570      6F6400
 15571              	.LASF269:
 15572 4cd8 5F5A4E33 		.ascii	"_ZN3BTD13L2CAP_CommandEtPhhhh\000"
 15572      42544431 
 15572      334C3243 
 15572      41505F43 
ARM GAS  C:\Users\jrdia\AppData\Local\Temp\ccYHzYw6.s 			page 356


 15572      6F6D6D61 
 15573              	.LASF211:
 15574 4cf6 5F5A4E35 		.ascii	"_ZN5BTHID7setLedsE7KBDLEDS\000"
 15574      42544849 
 15574      44377365 
 15574      744C6564 
 15574      7345374B 
 15575              	.LASF1073:
 15576 4d11 70737472 		.ascii	"pstrUsageBarrelPressure\000"
 15576      55736167 
 15576      65426172 
 15576      72656C50 
 15576      72657373 
 15577              	.LASF46:
 15578 4d29 5450696E 		.ascii	"TPin<Portb, 2u>\000"
 15578      3C506F72 
 15578      74622C20 
 15578      32753E00 
 15579              	.LASF24:
 15580 4d39 534B4950 		.ascii	"SKIP_NONE\000"
 15580      5F4E4F4E 
 15580      4500
 15581              	.LASF385:
 15582 4d43 70737472 		.ascii	"pstrUsageSelect\000"
 15582      55736167 
 15582      6553656C 
 15582      65637400 
 15583              	.LASF564:
 15584 4d53 70737472 		.ascii	"pstrUsageNumLock\000"
 15584      55736167 
 15584      654E756D 
 15584      4C6F636B 
 15584      00
 15585              	.LASF942:
 15586 4d64 70737472 		.ascii	"pstrUsageACHistory\000"
 15586      55736167 
 15586      65414348 
 15586      6973746F 
 15586      727900
 15587              	.LASF889:
 15588 4d77 70737472 		.ascii	"pstrUsageALWirelessStatus\000"
 15588      55736167 
 15588      65414C57 
 15588      6972656C 
 15588      65737353 
 15589              	.LASF500:
 15590 4d91 70737472 		.ascii	"pstrUsageSlope\000"
 15590      55736167 
 15590      65536C6F 
 15590      706500
 15591              	.LASF435:
 15592 4da0 70737472 		.ascii	"pstrUsageSpaceshipSimulationDevice\000"
 15592      55736167 
 15592      65537061 
 15592      63657368 
 15592      69705369 
 15593              	.LASF470:
ARM GAS  C:\Users\jrdia\AppData\Local\Temp\ccYHzYw6.s 			page 357


 15594 4dc3 70737472 		.ascii	"pstrUsageAccelerator\000"
 15594      55736167 
 15594      65416363 
 15594      656C6572 
 15594      61746F72 
 15595              	.LASF358:
 15596 4dd8 70737472 		.ascii	"pstrUsagePagePointOfSale\000"
 15596      55736167 
 15596      65506167 
 15596      65506F69 
 15596      6E744F66 
 15597              	.LASF37:
 15598 4df1 65704174 		.ascii	"epAttribs\000"
 15598      74726962 
 15598      7300
 15599              	.LASF645:
 15600 4dfb 70737472 		.ascii	"pstrUsageHeadset\000"
 15600      55736167 
 15600      65486561 
 15600      64736574 
 15600      00
 15601              	.LASF19:
 15602 4e0c 646F7562 		.ascii	"double\000"
 15602      6C6500
 15603              	.LASF353:
 15604 4e13 70737472 		.ascii	"pstrUsagePageMonitor\000"
 15604      55736167 
 15604      65506167 
 15604      654D6F6E 
 15604      69746F72 
 15605              	.LASF1110:
 15606 4e28 70737472 		.ascii	"pstrUsageStatusReady\000"
 15606      55736167 
 15606      65537461 
 15606      74757352 
 15606      65616479 
 15607              	.LASF277:
 15608 4e3d 55534248 		.ascii	"USBHID\000"
 15608      494400
 15609              	.LASF183:
 15610 4e44 4B42444C 		.ascii	"KBDLEDS\000"
 15610      45445300 
 15611              	.LASF940:
 15612 4e4c 70737472 		.ascii	"pstrUsageACNextLink\000"
 15612      55736167 
 15612      6541434E 
 15612      6578744C 
 15612      696E6B00 
 15613              	.LASF215:
 15614 4e60 41434C44 		.ascii	"ACLData\000"
 15614      61746100 
 15615              	.LASF1015:
 15616 4e68 70737472 		.ascii	"pstrUsageACSelectParagraph\000"
 15616      55736167 
 15616      65414353 
 15616      656C6563 
 15616      74506172 
ARM GAS  C:\Users\jrdia\AppData\Local\Temp\ccYHzYw6.s 			page 358


 15617              	.LASF453:
 15618 4e83 70737472 		.ascii	"pstrUsageAutopilotEnable\000"
 15618      55736167 
 15618      65417574 
 15618      6F70696C 
 15618      6F74456E 
 15619              	.LASF493:
 15620 4e9c 70737472 		.ascii	"pstrUsageStereoEnable\000"
 15620      55736167 
 15620      65537465 
 15620      72656F45 
 15620      6E61626C 
 15621              	.LASF87:
 15622 4eb2 62757370 		.ascii	"busprobe\000"
 15622      726F6265 
 15622      00
 15623              	.LASF952:
 15624 4ebb 70737472 		.ascii	"pstrUsageACScroll\000"
 15624      55736167 
 15624      65414353 
 15624      63726F6C 
 15624      6C00
 15625              	.LASF711:
 15626 4ecd 70737472 		.ascii	"pstrUsageSleep\000"
 15626      55736167 
 15626      65536C65 
 15626      657000
 15627              	.LASF720:
 15628 4edc 70737472 		.ascii	"pstrUsageMenuLeft\000"
 15628      55736167 
 15628      654D656E 
 15628      754C6566 
 15628      7400
 15629              	.LASF1078:
 15630 4eee 70737472 		.ascii	"pstrUsageQuality\000"
 15630      55736167 
 15630      65517561 
 15630      6C697479 
 15630      00
 15631              	.LASF240:
 15632 4eff 5F5A4E35 		.ascii	"_ZN5BTHID3RunEv\000"
 15632      42544849 
 15632      44335275 
 15632      6E457600 
 15633              	.LASF1048:
 15634 4f0f 70737472 		.ascii	"pstrUsageACInsertObject\000"
 15634      55736167 
 15634      65414349 
 15634      6E736572 
 15634      744F626A 
 15635              	.LASF758:
 15636 4f27 70737472 		.ascii	"pstrUsageMediaSelectHome\000"
 15636      55736167 
 15636      654D6564 
 15636      69615365 
 15636      6C656374 
 15637              	.LASF719:
ARM GAS  C:\Users\jrdia\AppData\Local\Temp\ccYHzYw6.s 			page 359


 15638 4f40 70737472 		.ascii	"pstrUsageMenuDown\000"
 15638      55736167 
 15638      654D656E 
 15638      75446F77 
 15638      6E00
 15639              	.LASF656:
 15640 4f52 70737472 		.ascii	"pstrUsageAlternateFunction\000"
 15640      55736167 
 15640      65416C74 
 15640      65726E61 
 15640      74654675 
 15641              	.LASF455:
 15642 4f6d 70737472 		.ascii	"pstrUsageCollectiveControl\000"
 15642      55736167 
 15642      65436F6C 
 15642      6C656374 
 15642      69766543 
 15643              	.LASF40:
 15644 4f88 6570696E 		.ascii	"epinfo\000"
 15644      666F00
 15645              	.LASF661:
 15646 4f8f 70737472 		.ascii	"pstrUsagePhoneMute\000"
 15646      55736167 
 15646      6550686F 
 15646      6E654D75 
 15646      746500
 15647              	.LASF262:
 15648 4fa2 5F5A4E33 		.ascii	"_ZN3BTD25l2cap_connection_responseEthPhS0_h\000"
 15648      42544432 
 15648      356C3263 
 15648      61705F63 
 15648      6F6E6E65 
 15649              	.LASF858:
 15650 4fce 70737472 		.ascii	"pstrUsageALCalendarSchedule\000"
 15650      55736167 
 15650      65414C43 
 15650      616C656E 
 15650      64617253 
 15651              	.LASF634:
 15652 4fea 70737472 		.ascii	"pstrUsageIndicatorColor\000"
 15652      55736167 
 15652      65496E64 
 15652      69636174 
 15652      6F72436F 
 15653              	.LASF981:
 15654 5002 70737472 		.ascii	"pstrUsageACJustifyTop\000"
 15654      55736167 
 15654      6541434A 
 15654      75737469 
 15654      6679546F 
 15655              	.LASF8:
 15656 5018 5F5F7569 		.ascii	"__uint32_t\000"
 15656      6E743332 
 15656      5F7400
 15657              	.LASF1113:
 15658 5023 70737472 		.ascii	"pstrUsageCursorPositionReport\000"
 15658      55736167 
ARM GAS  C:\Users\jrdia\AppData\Local\Temp\ccYHzYw6.s 			page 360


 15658      65437572 
 15658      736F7250 
 15658      6F736974 
 15659              	.LASF680:
 15660 5041 70737472 		.ascii	"pstrUsageReorderTone\000"
 15660      55736167 
 15660      6552656F 
 15660      72646572 
 15660      546F6E65 
 15661              	.LASF394:
 15662 5056 70737472 		.ascii	"pstrUsageResolutionMultiplier\000"
 15662      55736167 
 15662      65526573 
 15662      6F6C7574 
 15662      696F6E4D 
 15663              	.LASF325:
 15664 5074 64617461 		.ascii	"data\000"
 15664      00
 15665              	.LASF581:
 15666 5079 70737472 		.ascii	"pstrUsageSamplingRateDetect\000"
 15666      55736167 
 15666      6553616D 
 15666      706C696E 
 15666      67526174 
 15667              	.LASF750:
 15668 5095 70737472 		.ascii	"pstrUsageMediaSelectVCR\000"
 15668      55736167 
 15668      654D6564 
 15668      69615365 
 15668      6C656374 
 15669              	.LASF657:
 15670 50ad 70737472 		.ascii	"pstrUsageLine\000"
 15670      55736167 
 15670      654C696E 
 15670      6500
 15671              	.LASF381:
 15672 50bb 70737472 		.ascii	"pstrUsageCountedBuffer\000"
 15672      55736167 
 15672      65436F75 
 15672      6E746564 
 15672      42756666 
 15673              	.LASF604:
 15674 50d2 70737472 		.ascii	"pstrUsageCameraOff\000"
 15674      55736167 
 15674      6543616D 
 15674      6572614F 
 15674      666600
 15675              	.LASF576:
 15676 50e5 70737472 		.ascii	"pstrUsageEqualizerEnable\000"
 15676      55736167 
 15676      65457175 
 15676      616C697A 
 15676      6572456E 
 15677              	.LASF350:
 15678 50fe 70737472 		.ascii	"pstrUsagePageUnicode\000"
 15678      55736167 
 15678      65506167 
ARM GAS  C:\Users\jrdia\AppData\Local\Temp\ccYHzYw6.s 			page 361


 15678      65556E69 
 15678      636F6465 
 15679              	.LASF975:
 15680 5113 70737472 		.ascii	"pstrUsageACFontColor\000"
 15680      55736167 
 15680      65414346 
 15680      6F6E7443 
 15680      6F6C6F72 
 15681              	.LASF1146:
 15682 5128 70737472 		.ascii	"pstrUsagePaletteDataSize\000"
 15682      55736167 
 15682      6550616C 
 15682      65747465 
 15682      44617461 
 15683              	.LASF268:
 15684 5141 6C326361 		.ascii	"l2cap_connection_request\000"
 15684      705F636F 
 15684      6E6E6563 
 15684      74696F6E 
 15684      5F726571 
 15685              	.LASF712:
 15686 515a 70737472 		.ascii	"pstrUsageSleepAfter\000"
 15686      55736167 
 15686      65536C65 
 15686      65704166 
 15686      74657200 
 15687              	.LASF48:
 15688 516e 62446573 		.ascii	"bDescriptorType\000"
 15688      63726970 
 15688      746F7254 
 15688      79706500 
 15689              	.LASF617:
 15690 517e 70737472 		.ascii	"pstrUsagePlay\000"
 15690      55736167 
 15690      65506C61 
 15690      7900
 15691              	.LASF749:
 15692 518c 70737472 		.ascii	"pstrUsageMediaSelectCD\000"
 15692      55736167 
 15692      654D6564 
 15692      69615365 
 15692      6C656374 
 15693              	.LASF230:
 15694 51a3 5F767074 		.ascii	"_vptr.BluetoothService\000"
 15694      722E426C 
 15694      7565746F 
 15694      6F746853 
 15694      65727669 
 15695              	.LASF1137:
 15696 51ba 70737472 		.ascii	"pstrUsageAttributeData\000"
 15696      55736167 
 15696      65417474 
 15696      72696275 
 15696      74654461 
 15697              	.LASF1087:
 15698 51d1 70737472 		.ascii	"pstrUsageAltitude\000"
 15698      55736167 
ARM GAS  C:\Users\jrdia\AppData\Local\Temp\ccYHzYw6.s 			page 362


 15698      65416C74 
 15698      69747564 
 15698      6500
 15699              	.LASF626:
 15700 51e3 70737472 		.ascii	"pstrUsageIndicatorSlowBlink\000"
 15700      55736167 
 15700      65496E64 
 15700      69636174 
 15700      6F72536C 
 15701              	.LASF120:
 15702 51ff 67657444 		.ascii	"getDevDescr\000"
 15702      65764465 
 15702      73637200 
 15703              	.LASF1067:
 15704 520b 70737472 		.ascii	"pstrUsageMultiplePointDigitizer\000"
 15704      55736167 
 15704      654D756C 
 15704      7469706C 
 15704      65506F69 
 15705              	.LASF1101:
 15706 522b 70737472 		.ascii	"pstrUsageClearDisplay\000"
 15706      55736167 
 15706      65436C65 
 15706      61724469 
 15706      73706C61 
 15707              	.LASF1030:
 15708 5241 70737472 		.ascii	"pstrUsageACClearAlarm\000"
 15708      55736167 
 15708      65414343 
 15708      6C656172 
 15708      416C6172 
 15709              	.LASF697:
 15710 5257 70737472 		.ascii	"pstrUsagePhoneKeyStar\000"
 15710      55736167 
 15710      6550686F 
 15710      6E654B65 
 15710      79537461 
 15711              	.LASF972:
 15712 526d 70737472 		.ascii	"pstrUsageACMirrorHorizontal\000"
 15712      55736167 
 15712      6541434D 
 15712      6972726F 
 15712      72486F72 
 15713              	.LASF567:
 15714 5289 70737472 		.ascii	"pstrUsageCompose\000"
 15714      55736167 
 15714      65436F6D 
 15714      706F7365 
 15714      00
 15715              	.LASF907:
 15716 529a 70737472 		.ascii	"pstrUsageALEntertainmentContentBrow\000"
 15716      55736167 
 15716      65414C45 
 15716      6E746572 
 15716      7461696E 
 15717              	.LASF970:
 15718 52be 70737472 		.ascii	"pstrUsageACFlipHorizontal\000"
ARM GAS  C:\Users\jrdia\AppData\Local\Temp\ccYHzYw6.s 			page 363


 15718      55736167 
 15718      65414346 
 15718      6C697048 
 15718      6F72697A 
 15719              	.LASF193:
 15720 52d8 696E7465 		.ascii	"interrupt_scid\000"
 15720      72727570 
 15720      745F7363 
 15720      696400
 15721              	.LASF728:
 15722 52e7 70737472 		.ascii	"pstrUsageVCRTV\000"
 15722      55736167 
 15722      65564352 
 15722      545600
 15723              	.LASF918:
 15724 52f6 70737472 		.ascii	"pstrUsageACClose\000"
 15724      55736167 
 15724      65414343 
 15724      6C6F7365 
 15724      00
 15725              	.LASF239:
 15726 5307 5F5A4E31 		.ascii	"_ZN16BluetoothServiceC4EP3BTD\000"
 15726      36426C75 
 15726      65746F6F 
 15726      74685365 
 15726      72766963 
 15727              	.LASF140:
 15728 5325 5F5A4E33 		.ascii	"_ZN3USB11dispatchPktEhht\000"
 15728      55534231 
 15728      31646973 
 15728      70617463 
 15728      68506B74 
 15729              	.LASF256:
 15730 533e 5F5A4E33 		.ascii	"_ZN3BTD24registerBluetoothServiceEP16BluetoothServi"
 15730      42544432 
 15730      34726567 
 15730      69737465 
 15730      72426C75 
 15731 5371 636500   		.ascii	"ce\000"
 15732              	.LASF1012:
 15733 5374 70737472 		.ascii	"pstrUsageACViewComment\000"
 15733      55736167 
 15733      65414356 
 15733      69657743 
 15733      6F6D6D65 
 15734              	.LASF653:
 15735 538b 70737472 		.ascii	"pstrUsageDrop\000"
 15735      55736167 
 15735      6544726F 
 15735      7000
 15736              	.LASF909:
 15737 5399 70737472 		.ascii	"pstrUsageALSmartCardInfoHelp\000"
 15737      55736167 
 15737      65414C53 
 15737      6D617274 
 15737      43617264 
 15738              	.LASF326:
ARM GAS  C:\Users\jrdia\AppData\Local\Temp\ccYHzYw6.s 			page 364


 15739 53b6 55736244 		.ascii	"UsbDEBUGlvl\000"
 15739      45425547 
 15739      6C766C00 
 15740              	.LASF550:
 15741 53c2 70737472 		.ascii	"pstrUsageGunSelector\000"
 15741      55736167 
 15741      6547756E 
 15741      53656C65 
 15741      63746F72 
 15742              	.LASF585:
 15743 53d7 70737472 		.ascii	"pstrUsageRecordingFormatDetect\000"
 15743      55736167 
 15743      65526563 
 15743      6F726469 
 15743      6E67466F 
 15744              	.LASF1094:
 15745 53f6 70737472 		.ascii	"pstrUsageAlphanumericDisplay\000"
 15745      55736167 
 15745      65416C70 
 15745      68616E75 
 15745      6D657269 
 15746              	.LASF696:
 15747 5413 70737472 		.ascii	"pstrUsagePhoneKey9\000"
 15747      55736167 
 15747      6550686F 
 15747      6E654B65 
 15747      793900
 15748              	.LASF1165:
 15749 5426 70737472 		.ascii	"pstrUsageUpdate\000"
 15749      55736167 
 15749      65557064 
 15749      61746500 
 15750              	.LASF562:
 15751 5436 70737472 		.ascii	"pstrUsageSecurityCodeCharErased\000"
 15751      55736167 
 15751      65536563 
 15751      75726974 
 15751      79436F64 
 15752              	.LASF691:
 15753 5456 70737472 		.ascii	"pstrUsagePhoneKey4\000"
 15753      55736167 
 15753      6550686F 
 15753      6E654B65 
 15753      793400
 15754              	.LASF931:
 15755 5469 70737472 		.ascii	"pstrUsageACFindAndReplace\000"
 15755      55736167 
 15755      65414346 
 15755      696E6441 
 15755      6E645265 
 15756              	.LASF693:
 15757 5483 70737472 		.ascii	"pstrUsagePhoneKey6\000"
 15757      55736167 
 15757      6550686F 
 15757      6E654B65 
 15757      793600
 15758              	.LASF11:
ARM GAS  C:\Users\jrdia\AppData\Local\Temp\ccYHzYw6.s 			page 365


 15759 5496 6C6F6E67 		.ascii	"long long unsigned int\000"
 15759      206C6F6E 
 15759      6720756E 
 15759      7369676E 
 15759      65642069 
 15760              	.LASF561:
 15761 54ad 70737472 		.ascii	"pstrUsageSecurityCodeCharEntered\000"
 15761      55736167 
 15761      65536563 
 15761      75726974 
 15761      79436F64 
 15762              	.LASF767:
 15763 54ce 70737472 		.ascii	"pstrUsageMonthly\000"
 15763      55736167 
 15763      654D6F6E 
 15763      74686C79 
 15763      00
 15764              	.LASF125:
 15765 54df 67657453 		.ascii	"getStrDescr\000"
 15765      74724465 
 15765      73637200 
 15766              	.LASF1096:
 15767 54eb 70737472 		.ascii	"pstrUsageDisplayAttributesReport\000"
 15767      55736167 
 15767      65446973 
 15767      706C6179 
 15767      41747472 
 15768              	.LASF834:
 15769 550c 70737472 		.ascii	"pstrUsageChannelSide\000"
 15769      55736167 
 15769      65436861 
 15769      6E6E656C 
 15769      53696465 
 15770              	.LASF700:
 15771 5521 70737472 		.ascii	"pstrUsagePhoneKeyB\000"
 15771      55736167 
 15771      6550686F 
 15771      6E654B65 
 15771      794200
 15772              	.LASF789:
 15773 5534 70737472 		.ascii	"pstrUsageStopEject\000"
 15773      55736167 
 15773      6553746F 
 15773      70456A65 
 15773      637400
 15774              	.LASF898:
 15775 5547 70737472 		.ascii	"pstrUsageALImageBrowser\000"
 15775      55736167 
 15775      65414C49 
 15775      6D616765 
 15775      42726F77 
 15776              	.LASF237:
 15777 555f 5F5A4E31 		.ascii	"_ZN16BluetoothServiceD4Ev\000"
 15777      36426C75 
 15777      65746F6F 
 15777      74685365 
 15777      72766963 
ARM GAS  C:\Users\jrdia\AppData\Local\Temp\ccYHzYw6.s 			page 366


 15778              	.LASF732:
 15779 5579 70737472 		.ascii	"pstrUsageSelection\000"
 15779      55736167 
 15779      6553656C 
 15779      65637469 
 15779      6F6E00
 15780              	.LASF559:
 15781 558c 70737472 		.ascii	"pstrUsageWirelessID\000"
 15781      55736167 
 15781      65576972 
 15781      656C6573 
 15781      73494400 
 15782              	.LASF362:
 15783 55a0 70737472 		.ascii	"pstrUsagePageVendorDefined\000"
 15783      55736167 
 15783      65506167 
 15783      6556656E 
 15783      646F7244 
 15784              	.LASF954:
 15785 55bb 70737472 		.ascii	"pstrUsageACPanRight\000"
 15785      55736167 
 15785      65414350 
 15785      616E5269 
 15785      67687400 
 15786              	.LASF523:
 15787 55cf 70737472 		.ascii	"pstrUsagePowerWedge\000"
 15787      55736167 
 15787      65506F77 
 15787      65725765 
 15787      64676500 
 15788              	.LASF188:
 15789 55e3 626D4B61 		.ascii	"bmKana\000"
 15789      6E6100
 15790              	.LASF252:
 15791 55ea 5F5A4E31 		.ascii	"_ZN15HIDReportParserC4ERKS_\000"
 15791      35484944 
 15791      5265706F 
 15791      72745061 
 15791      72736572 
 15792              	.LASF676:
 15793 5606 70737472 		.ascii	"pstrUsagePriorityRingTone\000"
 15793      55736167 
 15793      65507269 
 15793      6F726974 
 15793      7952696E 
 15794              	.LASF79:
 15795 5620 496E6974 		.ascii	"Init\000"
 15795      00
 15796              	.LASF1100:
 15797 5625 70737472 		.ascii	"pstrUsageDisplayControlReport\000"
 15797      55736167 
 15797      65446973 
 15797      706C6179 
 15797      436F6E74 
 15798              	.LASF660:
 15799 5643 70737472 		.ascii	"pstrUsageRingSelect\000"
 15799      55736167 
ARM GAS  C:\Users\jrdia\AppData\Local\Temp\ccYHzYw6.s 			page 367


 15799      6552696E 
 15799      6753656C 
 15799      65637400 
 15800              	.LASF319:
 15801 5657 70536572 		.ascii	"pService\000"
 15801      76696365 
 15801      00
 15802              	.LASF804:
 15803 5660 70737472 		.ascii	"pstrUsageStandardPlay\000"
 15803      55736167 
 15803      65537461 
 15803      6E646172 
 15803      64506C61 
 15804              	.LASF261:
 15805 5676 5F5A4E33 		.ascii	"_ZN3BTD27l2cap_disconnection_requestEthPhS0_\000"
 15805      42544432 
 15805      376C3263 
 15805      61705F64 
 15805      6973636F 
 15806              	.LASF828:
 15807 56a3 70737472 		.ascii	"pstrUsageSpeakerSystem\000"
 15807      55736167 
 15807      65537065 
 15807      616B6572 
 15807      53797374 
 15808              	.LASF624:
 15809 56ba 70737472 		.ascii	"pstrUsageIndicatorOn\000"
 15809      55736167 
 15809      65496E64 
 15809      69636174 
 15809      6F724F6E 
 15810              	.LASF950:
 15811 56cf 70737472 		.ascii	"pstrUsageACScrollUp\000"
 15811      55736167 
 15811      65414353 
 15811      63726F6C 
 15811      6C557000 
 15812              	.LASF477:
 15813 56e3 70737472 		.ascii	"pstrUsageDivePlane\000"
 15813      55736167 
 15813      65446976 
 15813      65506C61 
 15813      6E6500
 15814              	.LASF517:
 15815 56f6 70737472 		.ascii	"pstrUsage8Iron\000"
 15815      55736167 
 15815      65384972 
 15815      6F6E00
 15816              	.LASF677:
 15817 5705 70737472 		.ascii	"pstrUsageInsideRingback\000"
 15817      55736167 
 15817      65496E73 
 15817      69646552 
 15817      696E6762 
 15818              	.LASF112:
 15819 571d 67657455 		.ascii	"getUsbTaskState\000"
 15819      73625461 
ARM GAS  C:\Users\jrdia\AppData\Local\Temp\ccYHzYw6.s 			page 368


 15819      736B5374 
 15819      61746500 
 15820              	.LASF781:
 15821 572d 70737472 		.ascii	"pstrUsageRepeatFromMark\000"
 15821      55736167 
 15821      65526570 
 15821      65617446 
 15821      726F6D4D 
 15822              	.LASF34:
 15823 5745 626D5061 		.ascii	"bmParent\000"
 15823      72656E74 
 15823      00
 15824              	.LASF1039:
 15825 574e 70737472 		.ascii	"pstrUsageACSend\000"
 15825      55736167 
 15825      65414353 
 15825      656E6400 
 15826              	.LASF681:
 15827 575e 70737472 		.ascii	"pstrUsageCallWaitingTone\000"
 15827      55736167 
 15827      6543616C 
 15827      6C576169 
 15827      74696E67 
 15828              	.LASF679:
 15829 5777 70737472 		.ascii	"pstrUsageLineBusyTone\000"
 15829      55736167 
 15829      654C696E 
 15829      65427573 
 15829      79546F6E 
 15830              	.LASF205:
 15831 578d 5F5A4E35 		.ascii	"_ZN5BTHID15GetReportParserEh\000"
 15831      42544849 
 15831      44313547 
 15831      65745265 
 15831      706F7274 
 15832              	.LASF1057:
 15833 57aa 70737472 		.ascii	"pstrUsagePen\000"
 15833      55736167 
 15833      6550656E 
 15833      00
 15834              	.LASF331:
 15835 57b7 70737472 		.ascii	"pstrCRLF\000"
 15835      43524C46 
 15835      00
 15836              	.LASF420:
 15837 57c0 70737472 		.ascii	"pstrUsageApplicationBreak\000"
 15837      55736167 
 15837      65417070 
 15837      6C696361 
 15837      74696F6E 
 15838              	.LASF917:
 15839 57da 70737472 		.ascii	"pstrUsageACOpen\000"
 15839      55736167 
 15839      6541434F 
 15839      70656E00 
 15840              	.LASF919:
 15841 57ea 70737472 		.ascii	"pstrUsageACExit\000"
ARM GAS  C:\Users\jrdia\AppData\Local\Temp\ccYHzYw6.s 			page 369


 15841      55736167 
 15841      65414345 
 15841      78697400 
 15842              	.LASF864:
 15843 57fa 70737472 		.ascii	"pstrUsageALLocalMachineBrowser\000"
 15843      55736167 
 15843      65414C4C 
 15843      6F63616C 
 15843      4D616368 
 15844              	.LASF370:
 15845 5819 70737472 		.ascii	"pstrUsageTabletPCSystemControls\000"
 15845      55736167 
 15845      65546162 
 15845      6C657450 
 15845      43537973 
 15846              	.LASF1086:
 15847 5839 70737472 		.ascii	"pstrUsageAzimuth\000"
 15847      55736167 
 15847      65417A69 
 15847      6D757468 
 15847      00
 15848              	.LASF274:
 15849 584a 6C326361 		.ascii	"l2cap_config_response\000"
 15849      705F636F 
 15849      6E666967 
 15849      5F726573 
 15849      706F6E73 
 15850              	.LASF186:
 15851 5860 626D5363 		.ascii	"bmScrollLock\000"
 15851      726F6C6C 
 15851      4C6F636B 
 15851      00
 15852              	.LASF312:
 15853 586d 5F5A4E31 		.ascii	"_ZN17UsbConfigXtracterC4ERKS_\000"
 15853      37557362 
 15853      436F6E66 
 15853      69675874 
 15853      72616374 
 15854              	.LASF902:
 15855 588b 70737472 		.ascii	"pstrUsageALDigitalWallet\000"
 15855      55736167 
 15855      65414C44 
 15855      69676974 
 15855      616C5761 
 15856              	.LASF492:
 15857 58a4 70737472 		.ascii	"pstrUsageAnimatronicDevice\000"
 15857      55736167 
 15857      65416E69 
 15857      6D617472 
 15857      6F6E6963 
 15858              	.LASF178:
 15859 58bf 44455653 		.ascii	"DEVSUBCLASSOK\000"
 15859      5542434C 
 15859      4153534F 
 15859      4B00
 15860              	.LASF393:
 15861 58cd 70737472 		.ascii	"pstrUsageFeatureNotification\000"
ARM GAS  C:\Users\jrdia\AppData\Local\Temp\ccYHzYw6.s 			page 370


 15861      55736167 
 15861      65466561 
 15861      74757265 
 15861      4E6F7469 
 15862              	.LASF313:
 15863 58ea 5F5A4E31 		.ascii	"_ZN17UsbConfigXtracterC4Ev\000"
 15863      37557362 
 15863      436F6E66 
 15863      69675874 
 15863      72616374 
 15864              	.LASF973:
 15865 5905 70737472 		.ascii	"pstrUsageACMirrorVertical\000"
 15865      55736167 
 15865      6541434D 
 15865      6972726F 
 15865      72566572 
 15866              	.LASF257:
 15867 591f 4254445F 		.ascii	"BTD_CONTROL_PIPE\000"
 15867      434F4E54 
 15867      524F4C5F 
 15867      50495045 
 15867      00
 15868              	.LASF877:
 15869 5930 70737472 		.ascii	"pstrUsageALProcessTaskManager\000"
 15869      55736167 
 15869      65414C50 
 15869      726F6365 
 15869      73735461 
 15870              	.LASF1018:
 15871 594e 70737472 		.ascii	"pstrUsageACSelectTable\000"
 15871      55736167 
 15871      65414353 
 15871      656C6563 
 15871      74546162 
 15872              	.LASF106:
 15873 5965 47657441 		.ascii	"GetAddressPool\000"
 15873      64647265 
 15873      7373506F 
 15873      6F6C00
 15874              	.LASF380:
 15875 5974 70737472 		.ascii	"pstrUsageHatSwitch\000"
 15875      55736167 
 15875      65486174 
 15875      53776974 
 15875      636800
 15876              	.LASF716:
 15877 5987 70737472 		.ascii	"pstrUsageMenu\000"
 15877      55736167 
 15877      654D656E 
 15877      7500
 15878              	.LASF1099:
 15879 5995 70737472 		.ascii	"pstrUsageFontReadBack\000"
 15879      55736167 
 15879      65466F6E 
 15879      74526561 
 15879      64426163 
 15880              	.LASF1038:
ARM GAS  C:\Users\jrdia\AppData\Local\Temp\ccYHzYw6.s 			page 371


 15881 59ab 70737472 		.ascii	"pstrUsageACForwardMessage\000"
 15881      55736167 
 15881      65414346 
 15881      6F727761 
 15881      72644D65 
 15882              	.LASF201:
 15883 59c5 5F5A4E35 		.ascii	"_ZN5BTHIDC4EP3BTDbPKc\000"
 15883      42544849 
 15883      44433445 
 15883      50334254 
 15883      4462504B 
 15884              	.LASF25:
 15885 59db 534B4950 		.ascii	"SKIP_WHITESPACE\000"
 15885      5F574849 
 15885      54455350 
 15885      41434500 
 15886              	.LASF1154:
 15887 59eb 70737472 		.ascii	"pstrUsageBlitData\000"
 15887      55736167 
 15887      65426C69 
 15887      74446174 
 15887      6100
 15888              	.LASF427:
 15889 59fd 70737472 		.ascii	"pstrUsageSystemDisplayBoth\000"
 15889      55736167 
 15889      65537973 
 15889      74656D44 
 15889      6973706C 
 15890              	.LASF936:
 15891 5a18 70737472 		.ascii	"pstrUsageACForward\000"
 15891      55736167 
 15891      65414346 
 15891      6F727761 
 15891      726400
 15892              	.LASF603:
 15893 5a2b 70737472 		.ascii	"pstrUsageCameraOn\000"
 15893      55736167 
 15893      6543616D 
 15893      6572614F 
 15893      6E00
 15894              	.LASF332:
 15895 5a3d 70737472 		.ascii	"pstrSingleTab\000"
 15895      53696E67 
 15895      6C655461 
 15895      6200
 15896              	.LASF996:
 15897 5a4b 70737472 		.ascii	"pstrUsageACBuyChkout\000"
 15897      55736167 
 15897      65414342 
 15897      75794368 
 15897      6B6F7574 
 15898              	.LASF10:
 15899 5a60 6C6F6E67 		.ascii	"long long int\000"
 15899      206C6F6E 
 15899      6720696E 
 15899      7400
 15900              	.LASF1159:
ARM GAS  C:\Users\jrdia\AppData\Local\Temp\ccYHzYw6.s 			page 372


 15901 5a6e 70737472 		.ascii	"pstrUsageSoftButtonOffset2\000"
 15901      55736167 
 15901      65536F66 
 15901      74427574 
 15901      746F6E4F 
 15902              	.LASF1021:
 15903 5a89 70737472 		.ascii	"pstrUsageACSort\000"
 15903      55736167 
 15903      65414353 
 15903      6F727400 
 15904              	.LASF874:
 15905 5a99 70737472 		.ascii	"pstrUsageALTermLockScrSav\000"
 15905      55736167 
 15905      65414C54 
 15905      65726D4C 
 15905      6F636B53 
 15906              	.LASF939:
 15907 5ab3 70737472 		.ascii	"pstrUsageACPreviousLink\000"
 15907      55736167 
 15907      65414350 
 15907      72657669 
 15907      6F75734C 
 15908              	.LASF228:
 15909 5acb 5F5A4E35 		.ascii	"_ZN5BTHID11setProtocolEv\000"
 15909      42544849 
 15909      44313173 
 15909      65745072 
 15909      6F746F63 
 15910              	.LASF433:
 15911 5ae4 70737472 		.ascii	"pstrUsageAutomobileSimulationDevice\000"
 15911      55736167 
 15911      65417574 
 15911      6F6D6F62 
 15911      696C6553 
 15912              	.LASF885:
 15913 5b08 70737472 		.ascii	"pstrUsageALDictionary\000"
 15913      55736167 
 15913      65414C44 
 15913      69637469 
 15913      6F6E6172 
 15914              	.LASF743:
 15915 5b1e 70737472 		.ascii	"pstrUsageMediaSelectDVD\000"
 15915      55736167 
 15915      654D6564 
 15915      69615365 
 15915      6C656374 
 15916              	.LASF577:
 15917 5b36 70737472 		.ascii	"pstrUsageSoundFieldOn\000"
 15917      55736167 
 15917      65536F75 
 15917      6E644669 
 15917      656C644F 
 15918              	.LASF548:
 15919 5b4c 70737472 		.ascii	"pstrUsageGunBolt\000"
 15919      55736167 
 15919      6547756E 
 15919      426F6C74 
ARM GAS  C:\Users\jrdia\AppData\Local\Temp\ccYHzYw6.s 			page 373


 15919      00
 15920              	.LASF130:
 15921 5b5d 5F5A4E33 		.ascii	"_ZN3USB7setConfEhhh\000"
 15921      55534237 
 15921      73657443 
 15921      6F6E6645 
 15921      68686800 
 15922              	.LASF446:
 15923 5b71 70737472 		.ascii	"pstrUsageCyclicControl\000"
 15923      55736167 
 15923      65437963 
 15923      6C696343 
 15923      6F6E7472 
 15924              	.LASF425:
 15925 5b88 70737472 		.ascii	"pstrUsageSystemDisplayInternal\000"
 15925      55736167 
 15925      65537973 
 15925      74656D44 
 15925      6973706C 
 15926              	.LASF558:
 15927 5ba7 70737472 		.ascii	"pstrUsageWirelessChannel\000"
 15927      55736167 
 15927      65576972 
 15927      656C6573 
 15927      73436861 
 15928              	.LASF1013:
 15929 5bc0 70737472 		.ascii	"pstrUsageACSelectWord\000"
 15929      55736167 
 15929      65414353 
 15929      656C6563 
 15929      74576F72 
 15930              	.LASF1135:
 15931 5bd6 70737472 		.ascii	"pstrUsageCharacterAttribute\000"
 15931      55736167 
 15931      65436861 
 15931      72616374 
 15931      65724174 
 15932              	.LASF957:
 15933 5bf2 70737472 		.ascii	"pstrUsageACTileHoriz\000"
 15933      55736167 
 15933      65414354 
 15933      696C6548 
 15933      6F72697A 
 15934              	.LASF199:
 15935 5c07 6C326361 		.ascii	"l2cap_state\000"
 15935      705F7374 
 15935      61746500 
 15936              	.LASF158:
 15937 5c13 5F5A4E33 		.ascii	"_ZN3USB4initEv\000"
 15937      55534234 
 15937      696E6974 
 15937      457600
 15938              	.LASF514:
 15939 5c22 70737472 		.ascii	"pstrUsage5Iron\000"
 15939      55736167 
 15939      65354972 
 15939      6F6E00
ARM GAS  C:\Users\jrdia\AppData\Local\Temp\ccYHzYw6.s 			page 374


 15940              	.LASF58:
 15941 5c31 624E756D 		.ascii	"bNumDescriptors\000"
 15941      44657363 
 15941      72697074 
 15941      6F727300 
 15942              	.LASF618:
 15943 5c41 70737472 		.ascii	"pstrUsagePause\000"
 15943      55736167 
 15943      65506175 
 15943      736500
 15944              	.LASF947:
 15945 5c50 70737472 		.ascii	"pstrUsageACFullScreenView\000"
 15945      55736167 
 15945      65414346 
 15945      756C6C53 
 15945      63726565 
 15946              	.LASF243:
 15947 5c6a 5F5A4E31 		.ascii	"_ZN16BluetoothService5ResetEv\000"
 15947      36426C75 
 15947      65746F6F 
 15947      74685365 
 15947      72766963 
 15948              	.LASF348:
 15949 5c88 70737472 		.ascii	"pstrUsagePageDigitizer\000"
 15949      55736167 
 15949      65506167 
 15949      65446967 
 15949      6974697A 
 15950              	.LASF978:
 15951 5c9f 70737472 		.ascii	"pstrUsageACJustifyCenterH\000"
 15951      55736167 
 15951      6541434A 
 15951      75737469 
 15951      66794365 
 15952              	.LASF487:
 15953 5cb9 70737472 		.ascii	"pstrUsageHeadTracker\000"
 15953      55736167 
 15953      65486561 
 15953      64547261 
 15953      636B6572 
 15954              	.LASF404:
 15955 5cce 70737472 		.ascii	"pstrUsageSystemMenuSelect\000"
 15955      55736167 
 15955      65537973 
 15955      74656D4D 
 15955      656E7553 
 15956              	.LASF1127:
 15957 5ce8 70737472 		.ascii	"pstrUsageCharacterSpacingVertical\000"
 15957      55736167 
 15957      65436861 
 15957      72616374 
 15957      65725370 
 15958              	.LASF860:
 15959 5d0a 70737472 		.ascii	"pstrUsageALLogJournalTimecard\000"
 15959      55736167 
 15959      65414C4C 
 15959      6F674A6F 
ARM GAS  C:\Users\jrdia\AppData\Local\Temp\ccYHzYw6.s 			page 375


 15959      75726E61 
 15960              	.LASF766:
 15961 5d28 70737472 		.ascii	"pstrUsageWeekly\000"
 15961      55736167 
 15961      65576565 
 15961      6B6C7900 
 15962              	.LASF147:
 15963 5d38 5F5A4E33 		.ascii	"_ZN3USB13ReleaseDeviceEh\000"
 15963      55534231 
 15963      3352656C 
 15963      65617365 
 15963      44657669 
 15964              	.LASF913:
 15965 5d51 70737472 		.ascii	"pstrUsageALResearchSearchBrowser\000"
 15965      55736167 
 15965      65414C52 
 15965      65736561 
 15965      72636853 
 15966              	.LASF177:
 15967 5d72 52657365 		.ascii	"ResetHubPort\000"
 15967      74487562 
 15967      506F7274 
 15967      00
 15968              	.LASF746:
 15969 5d7f 70737472 		.ascii	"pstrUsageMediaSelectVideoPhone\000"
 15969      55736167 
 15969      654D6564 
 15969      69615365 
 15969      6C656374 
 15970              	.LASF739:
 15971 5d9e 70737472 		.ascii	"pstrUsageMediaSelection\000"
 15971      55736167 
 15971      654D6564 
 15971      69615365 
 15971      6C656374 
 15972              	.LASF967:
 15973 5db6 70737472 		.ascii	"pstrUsageACAllCaps\000"
 15973      55736167 
 15973      65414341 
 15973      6C6C4361 
 15973      707300
 15974              	.LASF1044:
 15975 5dc9 70737472 		.ascii	"pstrUsageACInsertRow\000"
 15975      55736167 
 15975      65414349 
 15975      6E736572 
 15975      74526F77 
 15976              	.LASF415:
 15977 5dde 70737472 		.ascii	"pstrUsageSystemDock\000"
 15977      55736167 
 15977      65537973 
 15977      74656D44 
 15977      6F636B00 
 15978              	.LASF552:
 15979 5df2 70737472 		.ascii	"pstrUsageGunBurst\000"
 15979      55736167 
 15979      6547756E 
ARM GAS  C:\Users\jrdia\AppData\Local\Temp\ccYHzYw6.s 			page 376


 15979      42757273 
 15979      7400
 15980              	.LASF797:
 15981 5e04 70737472 		.ascii	"pstrUsageSurroundMode\000"
 15981      55736167 
 15981      65537572 
 15981      726F756E 
 15981      644D6F64 
 15982              	.LASF336:
 15983 5e1a 70737472 		.ascii	"pstrUsagePageGenericDesktopControls\000"
 15983      55736167 
 15983      65506167 
 15983      6547656E 
 15983      65726963 
 15984              	.LASF966:
 15985 5e3e 70737472 		.ascii	"pstrUsageACSuperscript\000"
 15985      55736167 
 15985      65414353 
 15985      75706572 
 15985      73637269 
 15986              	.LASF219:
 15987 5e55 6F6E496E 		.ascii	"onInit\000"
 15987      697400
 15988              	.LASF769:
 15989 5e5c 70737472 		.ascii	"pstrUsageScanPreviousTrack\000"
 15989      55736167 
 15989      65536361 
 15989      6E507265 
 15989      76696F75 
 15990              	.LASF347:
 15991 5e77 70737472 		.ascii	"pstrUsagePageConsumer\000"
 15991      55736167 
 15991      65506167 
 15991      65436F6E 
 15991      73756D65 
 15992              	.LASF220:
 15993 5e8d 5F5A4E35 		.ascii	"_ZN5BTHID6onInitEv\000"
 15993      42544849 
 15993      44366F6E 
 15993      496E6974 
 15993      457600
 15994              	.LASF1181:
 15995 5ea0 70737472 		.ascii	"pstrUsageColorDopplerModeSelect\000"
 15995      55736167 
 15995      65436F6C 
 15995      6F72446F 
 15995      70706C65 
 15996              	.LASF875:
 15997 5ec0 70737472 		.ascii	"pstrUsageALControlPannel\000"
 15997      55736167 
 15997      65414C43 
 15997      6F6E7472 
 15997      6F6C5061 
 15998              	.LASF801:
 15999 5ed9 70737472 		.ascii	"pstrUsageVolumeDecrement\000"
 15999      55736167 
 15999      65566F6C 
ARM GAS  C:\Users\jrdia\AppData\Local\Temp\ccYHzYw6.s 			page 377


 15999      756D6544 
 15999      65637265 
 16000              	.LASF244:
 16001 5ef2 5F5A4E31 		.ascii	"_ZN16BluetoothService10disconnectEv\000"
 16001      36426C75 
 16001      65746F6F 
 16001      74685365 
 16001      72766963 
 16002              	.LASF1147:
 16003 5f16 70737472 		.ascii	"pstrUsagePaletteDataOffset\000"
 16003      55736167 
 16003      6550616C 
 16003      65747465 
 16003      44617461 
 16004              	.LASF437:
 16005 5f31 70737472 		.ascii	"pstrUsageSailingSimulationDevice\000"
 16005      55736167 
 16005      65536169 
 16005      6C696E67 
 16005      53696D75 
 16006              	.LASF1045:
 16007 5f52 70737472 		.ascii	"pstrUsageACInsertColumn\000"
 16007      55736167 
 16007      65414349 
 16007      6E736572 
 16007      74436F6C 
 16008              	.LASF296:
 16009 5f6a 47657450 		.ascii	"GetProtocol\000"
 16009      726F746F 
 16009      636F6C00 
 16010              	.LASF0:
 16011 5f76 5F5F696E 		.ascii	"__int8_t\000"
 16011      74385F74 
 16011      00
 16012              	.LASF408:
 16013 5f7f 70737472 		.ascii	"pstrUsageSystemMenuDown\000"
 16013      55736167 
 16013      65537973 
 16013      74656D4D 
 16013      656E7544 
 16014              	.LASF541:
 16015 5f97 70737472 		.ascii	"pstrUsageHeightOfPOV\000"
 16015      55736167 
 16015      65486569 
 16015      6768744F 
 16015      66504F56 
 16016              	.LASF819:
 16017 5fac 70737472 		.ascii	"pstrUsageDuresAlarm\000"
 16017      55736167 
 16017      65447572 
 16017      6573416C 
 16017      61726D00 
 16018              	.LASF1056:
 16019 5fc0 70737472 		.ascii	"pstrUsageDigitizer\000"
 16019      55736167 
 16019      65446967 
 16019      6974697A 
ARM GAS  C:\Users\jrdia\AppData\Local\Temp\ccYHzYw6.s 			page 378


 16019      657200
 16020              	.LASF414:
 16021 5fd3 70737472 		.ascii	"pstrUsageDPadLeft\000"
 16021      55736167 
 16021      65445061 
 16021      644C6566 
 16021      7400
 16022              	.LASF184:
 16023 5fe5 626D4E75 		.ascii	"bmNumLock\000"
 16023      6D4C6F63 
 16023      6B00
 16024              	.LASF1199:
 16025 5fef 64656C61 		.ascii	"delay\000"
 16025      7900
 16026              	.LASF873:
 16027 5ff5 70737472 		.ascii	"pstrUsageALLogonLogoff\000"
 16027      55736167 
 16027      65414C4C 
 16027      6F676F6E 
 16027      4C6F676F 
 16028              	.LASF72:
 16029 600c 62797465 		.ascii	"bytesRd\000"
 16029      73526400 
 16030              	.LASF1081:
 16031 6014 70737472 		.ascii	"pstrUsageTabletFunctionKeys\000"
 16031      55736167 
 16031      65546162 
 16031      6C657446 
 16031      756E6374 
 16032              	.LASF454:
 16033 6030 70737472 		.ascii	"pstrUsageChaffRelease\000"
 16033      55736167 
 16033      65436861 
 16033      66665265 
 16033      6C656173 
 16034              	.LASF673:
 16035 6046 70737472 		.ascii	"pstrUsageOutsideDialTone\000"
 16035      55736167 
 16035      654F7574 
 16035      73696465 
 16035      4469616C 
 16036              	.LASF786:
 16037 605f 70737472 		.ascii	"pstrUsageShowCounter\000"
 16037      55736167 
 16037      6553686F 
 16037      77436F75 
 16037      6E746572 
 16038              	.LASF12:
 16039 6074 756E7369 		.ascii	"unsigned int\000"
 16039      676E6564 
 16039      20696E74 
 16039      00
 16040              	.LASF806:
 16041 6081 70737472 		.ascii	"pstrUsageExtendedPlay\000"
 16041      55736167 
 16041      65457874 
 16041      656E6465 
ARM GAS  C:\Users\jrdia\AppData\Local\Temp\ccYHzYw6.s 			page 379


 16041      64506C61 
 16042              	.LASF115:
 16043 6097 5F5A4E33 		.ascii	"_ZN3USB15setUsbTaskStateEh\000"
 16043      55534231 
 16043      35736574 
 16043      55736254 
 16043      61736B53 
 16044              	.LASF462:
 16045 60b2 70737472 		.ascii	"pstrUsageFlightCommunications\000"
 16045      55736167 
 16045      65466C69 
 16045      67687443 
 16045      6F6D6D75 
 16046              	.LASF791:
 16047 60d0 70737472 		.ascii	"pstrUsagePlaySkip\000"
 16047      55736167 
 16047      65506C61 
 16047      79536B69 
 16047      7000
 16048              	.LASF1126:
 16049 60e2 70737472 		.ascii	"pstrUsageCharacterSpacingHorizontal\000"
 16049      55736167 
 16049      65436861 
 16049      72616374 
 16049      65725370 
 16050              	.LASF280:
 16051 6106 6570496E 		.ascii	"epInterruptInIndex\000"
 16051      74657272 
 16051      75707449 
 16051      6E496E64 
 16051      657800
 16052              	.LASF171:
 16053 6119 47657441 		.ascii	"GetAddress\000"
 16053      64647265 
 16053      737300
 16054              	.LASF556:
 16055 6124 70737472 		.ascii	"pstrUsageGamepadTrigger\000"
 16055      55736167 
 16055      6547616D 
 16055      65706164 
 16055      54726967 
 16056              	.LASF531:
 16057 613c 70737472 		.ascii	"pstrUsageGunDevice\000"
 16057      55736167 
 16057      6547756E 
 16057      44657669 
 16057      636500
 16058              	.LASF977:
 16059 614f 70737472 		.ascii	"pstrUsageACJustifyLeft\000"
 16059      55736167 
 16059      6541434A 
 16059      75737469 
 16059      66794C65 
 16060              	.LASF633:
 16061 6166 70737472 		.ascii	"pstrUsageFastBlinkOffTime\000"
 16061      55736167 
 16061      65466173 
ARM GAS  C:\Users\jrdia\AppData\Local\Temp\ccYHzYw6.s 			page 380


 16061      74426C69 
 16061      6E6B4F66 
 16062              	.LASF664:
 16063 6180 70737472 		.ascii	"pstrUsageSpeedDial\000"
 16063      55736167 
 16063      65537065 
 16063      65644469 
 16063      616C00
 16064              	.LASF60:
 16065 6193 77446573 		.ascii	"wDescriptorLength\000"
 16065      63726970 
 16065      746F724C 
 16065      656E6774 
 16065      6800
 16066              	.LASF279:
 16067 61a5 62416464 		.ascii	"bAddress\000"
 16067      72657373 
 16067      00
 16068              	.LASF448:
 16069 61ae 70737472 		.ascii	"pstrUsageFlightYoke\000"
 16069      55736167 
 16069      65466C69 
 16069      67687459 
 16069      6F6B6500 
 16070              	.LASF736:
 16071 61c2 70737472 		.ascii	"pstrUsageEnterChannel\000"
 16071      55736167 
 16071      65456E74 
 16071      65724368 
 16071      616E6E65 
 16072              	.LASF382:
 16073 61d8 70737472 		.ascii	"pstrUsageByteCount\000"
 16073      55736167 
 16073      65427974 
 16073      65436F75 
 16073      6E7400
 16074              	.LASF126:
 16075 61eb 5F5A4E33 		.ascii	"_ZN3USB11getStrDescrEhhthtPh\000"
 16075      55534231 
 16075      31676574 
 16075      53747244 
 16075      65736372 
 16076              	.LASF255:
 16077 6208 72656769 		.ascii	"registerBluetoothService\000"
 16077      73746572 
 16077      426C7565 
 16077      746F6F74 
 16077      68536572 
 16078              	.LASF145:
 16079 6221 5F5A4E33 		.ascii	"_ZN3USB11ConfiguringEhhb\000"
 16079      55534231 
 16079      31436F6E 
 16079      66696775 
 16079      72696E67 
 16080              	.LASF4:
 16081 623a 73686F72 		.ascii	"short int\000"
 16081      7420696E 
ARM GAS  C:\Users\jrdia\AppData\Local\Temp\ccYHzYw6.s 			page 381


 16081      7400
 16082              	.LASF467:
 16083 6244 70737472 		.ascii	"pstrUsageWeaponsArm\000"
 16083      55736167 
 16083      65576561 
 16083      706F6E73 
 16083      41726D00 
 16084              	.LASF600:
 16085 6258 70737472 		.ascii	"pstrUsageCallPickup\000"
 16085      55736167 
 16085      6543616C 
 16085      6C506963 
 16085      6B757000 
 16086              	.LASF30:
 16087 626c 6D617850 		.ascii	"maxPktSize\000"
 16087      6B745369 
 16087      7A6500
 16088              	.LASF511:
 16089 6277 70737472 		.ascii	"pstrUsage2Iron\000"
 16089      55736167 
 16089      65324972 
 16089      6F6E00
 16090              	.LASF754:
 16091 6286 70737472 		.ascii	"pstrUsageMediaSelectTape\000"
 16091      55736167 
 16091      654D6564 
 16091      69615365 
 16091      6C656374 
 16092              	.LASF974:
 16093 629f 70737472 		.ascii	"pstrUsageACFontSelect\000"
 16093      55736167 
 16093      65414346 
 16093      6F6E7453 
 16093      656C6563 
 16094              	.LASF930:
 16095 62b5 70737472 		.ascii	"pstrUsageACFind\000"
 16095      55736167 
 16095      65414346 
 16095      696E6400 
 16096              	.LASF67:
 16097 62c5 5F5A4E38 		.ascii	"_ZN8MAX3421eI4TPinI5PortbLh2EES0_IS1_Lh1EEEC4Ev\000"
 16097      4D415833 
 16097      34323165 
 16097      49345450 
 16097      696E4935 
 16098              	.LASF328:
 16099 62f5 44445242 		.ascii	"DDRB\000"
 16099      00
 16100              	.LASF1124:
 16101 62fa 70737472 		.ascii	"pstrUsageCharacterWidth\000"
 16101      55736167 
 16101      65436861 
 16101      72616374 
 16101      65725769 
 16102              	.LASF98:
 16103 6312 4D415833 		.ascii	"MAX3421e<TPin<Portb, 2u>, TPin<Portb, 1u> >\000"
 16103      34323165 
ARM GAS  C:\Users\jrdia\AppData\Local\Temp\ccYHzYw6.s 			page 382


 16103      3C545069 
 16103      6E3C506F 
 16103      7274622C 
 16104              	.LASF107:
 16105 633e 5F5A4E33 		.ascii	"_ZN3USB14GetAddressPoolEv\000"
 16105      55534231 
 16105      34476574 
 16105      41646472 
 16105      65737350 
 16106              	.LASF162:
 16107 6358 5F5A4E31 		.ascii	"_ZN15USBDeviceConfigC4ERKS_\000"
 16107      35555342 
 16107      44657669 
 16107      6365436F 
 16107      6E666967 
 16108              	.LASF976:
 16109 6374 70737472 		.ascii	"pstrUsageACFontSize\000"
 16109      55736167 
 16109      65414346 
 16109      6F6E7453 
 16109      697A6500 
 16110              	.LASF142:
 16111 6388 44656661 		.ascii	"DefaultAddressing\000"
 16111      756C7441 
 16111      64647265 
 16111      7373696E 
 16111      6700
 16112              	.LASF259:
 16113 639a 4254445F 		.ascii	"BTD_DATAIN_PIPE\000"
 16113      44415441 
 16113      494E5F50 
 16113      49504500 
 16114              	.LASF621:
 16115 63aa 70737472 		.ascii	"pstrUsageSelectedIndicator\000"
 16115      55736167 
 16115      6553656C 
 16115      65637465 
 16115      64496E64 
 16116              	.LASF670:
 16117 63c5 70737472 		.ascii	"pstrUsageMessage\000"
 16117      55736167 
 16117      654D6573 
 16117      73616765 
 16117      00
 16118              	.LASF1025:
 16119 63d6 70737472 		.ascii	"pstrUsageACSetClock\000"
 16119      55736167 
 16119      65414353 
 16119      6574436C 
 16119      6F636B00 
 16120              	.LASF293:
 16121 63ea 5F5A4E36 		.ascii	"_ZN6USBHID15SetReportParserEhP15HIDReportParser\000"
 16121      55534248 
 16121      49443135 
 16121      53657452 
 16121      65706F72 
 16122              	.LASF253:
ARM GAS  C:\Users\jrdia\AppData\Local\Temp\ccYHzYw6.s 			page 383


 16123 641a 5F5A4E31 		.ascii	"_ZN15HIDReportParserC4Ev\000"
 16123      35484944 
 16123      5265706F 
 16123      72745061 
 16123      72736572 
 16124              	.LASF663:
 16125 6433 70737472 		.ascii	"pstrUsageSend\000"
 16125      55736167 
 16125      6553656E 
 16125      6400
 16126              	.LASF535:
 16127 6441 70737472 		.ascii	"pstrUsageRollRightLeft\000"
 16127      55736167 
 16127      65526F6C 
 16127      6C526967 
 16127      68744C65 
 16128              	.LASF738:
 16129 6458 70737472 		.ascii	"pstrUsageChannel\000"
 16129      55736167 
 16129      65436861 
 16129      6E6E656C 
 16129      00
 16130              	.LASF124:
 16131 6469 5F5A4E33 		.ascii	"_ZN3USB12getConfDescrEhhhP13USBReadParser\000"
 16131      55534231 
 16131      32676574 
 16131      436F6E66 
 16131      44657363 
 16132              	.LASF798:
 16133 6493 70737472 		.ascii	"pstrUsageLoudness\000"
 16133      55736167 
 16133      654C6F75 
 16133      646E6573 
 16133      7300
 16134              	.LASF745:
 16135 64a5 70737472 		.ascii	"pstrUsageMediaSelectProgramGuide\000"
 16135      55736167 
 16135      654D6564 
 16135      69615365 
 16135      6C656374 
 16136              	.LASF597:
 16137 64c6 70737472 		.ascii	"pstrUsageCoverage\000"
 16137      55736167 
 16137      65436F76 
 16137      65726167 
 16137      6500
 16138              	.LASF396:
 16139 64d8 70737472 		.ascii	"pstrUsageSystemPowerDown\000"
 16139      55736167 
 16139      65537973 
 16139      74656D50 
 16139      6F776572 
 16140              		.ident	"GCC: (GNU Tools for ARM Embedded Processors) 5.4.1 20160609 (release) [ARM/embedded-5-bran
