ARM GAS  C:\Users\jrdia\AppData\Local\Temp\ccYHzYw6.s 			page 1


   1              		.syntax unified
   2              		.cpu cortex-m0
   3              		.fpu softvfp
   4              		.eabi_attribute 20, 1
   5              		.eabi_attribute 21, 1
   6              		.eabi_attribute 23, 3
   7              		.eabi_attribute 24, 1
   8              		.eabi_attribute 25, 1
   9              		.eabi_attribute 26, 1
  10              		.eabi_attribute 30, 2
  11              		.eabi_attribute 34, 0
  12              		.eabi_attribute 18, 4
  13              		.thumb
  14              		.syntax unified
  15              		.file	"BTHID.c"
  16              		.text
  17              	.Ltext0:
  18              		.cfi_sections	.debug_frame
  19              		.section	.text._ZN5BTHID14ParseBTHIDDataEhPh,"axG",%progbits,_ZN5BTHID14ParseBTHIDDataEhPh,comdat
  20              		.align	2
  21              		.weak	_ZN5BTHID14ParseBTHIDDataEhPh
  22              		.code	16
  23              		.thumb_func
  24              		.type	_ZN5BTHID14ParseBTHIDDataEhPh, %function
  25              	_ZN5BTHID14ParseBTHIDDataEhPh:
  26              		.fnstart
  27              	.LFB277:
  28              		.file 1 "BTHID.h"
   1:BTHID.h       **** /* Copyright (C) 2013 Kristian Lauszus, TKJ Electronics. All rights reserved.
   2:BTHID.h       **** 
   3:BTHID.h       ****  This software may be distributed and modified under the terms of the GNU
   4:BTHID.h       ****  General Public License version 2 (GPL2) as published by the Free Software
   5:BTHID.h       ****  Foundation and appearing in the file GPL2.TXT included in the packaging of
   6:BTHID.h       ****  this file. Please note that GPL2 Section 2[b] requires that all works based
   7:BTHID.h       ****  on this software must also be made publicly available under the terms of
   8:BTHID.h       ****  the GPL2 ("Copyleft").
   9:BTHID.h       **** 
  10:BTHID.h       ****  Contact information
  11:BTHID.h       ****  -------------------
  12:BTHID.h       **** 
  13:BTHID.h       ****  Kristian Lauszus, TKJ Electronics
  14:BTHID.h       ****  Web      :  http://www.tkjelectronics.com
  15:BTHID.h       ****  e-mail   :  kristianl@tkjelectronics.com
  16:BTHID.h       ****  */
  17:BTHID.h       **** 
  18:BTHID.h       **** #ifndef _bthid_h_
  19:BTHID.h       **** #define _bthid_h_
  20:BTHID.h       **** 
  21:BTHID.h       **** #include "BTD.h"
  22:BTHID.h       **** #include "hidboot.h"
  23:BTHID.h       **** 
  24:BTHID.h       **** #define KEYBOARD_PARSER_ID      0
  25:BTHID.h       **** #define MOUSE_PARSER_ID         1
  26:BTHID.h       **** #define NUM_PARSERS             2
  27:BTHID.h       **** 
  28:BTHID.h       **** /** This BluetoothService class implements support for Bluetooth HID devices. */
  29:BTHID.h       **** class BTHID : public BluetoothService {
ARM GAS  C:\Users\jrdia\AppData\Local\Temp\ccYHzYw6.s 			page 2


  30:BTHID.h       **** public:
  31:BTHID.h       ****         /**
  32:BTHID.h       ****          * Constructor for the BTHID class.
  33:BTHID.h       ****          * @param  p   Pointer to the BTD class instance.
  34:BTHID.h       ****          * @param  pair   Set this to true in order to pair with the device. If the argument is omi
  35:BTHID.h       ****          * @param  pin   Write the pin to BTD#btdPin. If argument is omitted, then "0000" will be u
  36:BTHID.h       ****          */
  37:BTHID.h       ****         BTHID(BTD *p, bool pair = false, const char *pin = "0000");
  38:BTHID.h       **** 
  39:BTHID.h       ****         /** @name BluetoothService implementation */
  40:BTHID.h       ****         /** Used this to disconnect the devices. */
  41:BTHID.h       ****         void disconnect();
  42:BTHID.h       ****         /**@}*/
  43:BTHID.h       **** 
  44:BTHID.h       ****         /**
  45:BTHID.h       ****          * Get HIDReportParser.
  46:BTHID.h       ****          * @param  id ID of parser.
  47:BTHID.h       ****          * @return    Returns the corresponding HIDReportParser. Returns NULL if id is not valid.
  48:BTHID.h       ****          */
  49:BTHID.h       ****         HIDReportParser *GetReportParser(uint8_t id) {
  50:BTHID.h       ****                 if (id >= NUM_PARSERS)
  51:BTHID.h       ****                         return NULL;
  52:BTHID.h       ****                 return pRptParser[id];
  53:BTHID.h       ****         };
  54:BTHID.h       **** 
  55:BTHID.h       ****         /**
  56:BTHID.h       ****          * Set HIDReportParser to be used.
  57:BTHID.h       ****          * @param  id  Id of parser.
  58:BTHID.h       ****          * @param  prs Pointer to HIDReportParser.
  59:BTHID.h       ****          * @return     Returns true if the HIDReportParser is set. False otherwise.
  60:BTHID.h       ****          */
  61:BTHID.h       ****         bool SetReportParser(uint8_t id, HIDReportParser *prs) {
  62:BTHID.h       ****                 if (id >= NUM_PARSERS)
  63:BTHID.h       ****                         return false;
  64:BTHID.h       ****                 pRptParser[id] = prs;
  65:BTHID.h       ****                 return true;
  66:BTHID.h       ****         };
  67:BTHID.h       **** 
  68:BTHID.h       ****         /**
  69:BTHID.h       ****          * Set HID protocol mode.
  70:BTHID.h       ****          * @param mode HID protocol to use. Either USB_HID_BOOT_PROTOCOL or HID_RPT_PROTOCOL.
  71:BTHID.h       ****          */
  72:BTHID.h       ****         void setProtocolMode(uint8_t mode) {
  73:BTHID.h       ****                 protocolMode = mode;
  74:BTHID.h       ****         };
  75:BTHID.h       **** 
  76:BTHID.h       ****         /**@{*/
  77:BTHID.h       ****         /**
  78:BTHID.h       ****          * Used to set the leds on a keyboard.
  79:BTHID.h       ****          * @param data See ::KBDLEDS in hidboot.h
  80:BTHID.h       ****          */
  81:BTHID.h       ****         void setLeds(struct KBDLEDS data) {
  82:BTHID.h       ****                 setLeds(*((uint8_t*)&data));
  83:BTHID.h       ****         };
  84:BTHID.h       ****         void setLeds(uint8_t data);
  85:BTHID.h       ****         /**@}*/
  86:BTHID.h       **** 
ARM GAS  C:\Users\jrdia\AppData\Local\Temp\ccYHzYw6.s 			page 3


  87:BTHID.h       ****         /** True if a device is connected */
  88:BTHID.h       ****         bool connected;
  89:BTHID.h       **** 
  90:BTHID.h       ****         /** Call this to start the pairing sequence with a device */
  91:BTHID.h       ****         void pair(void) {
  92:BTHID.h       ****                 if(pBtd)
  93:BTHID.h       ****                         pBtd->pairWithHID();
  94:BTHID.h       ****         };
  95:BTHID.h       **** 
  96:BTHID.h       **** protected:
  97:BTHID.h       ****         /** @name BluetoothService implementation */
  98:BTHID.h       ****         /**
  99:BTHID.h       ****          * Used to pass acldata to the services.
 100:BTHID.h       ****          * @param ACLData Incoming acldata.
 101:BTHID.h       ****          */
 102:BTHID.h       ****         void ACLData(uint8_t* ACLData);
 103:BTHID.h       ****         /** Used to run part of the state machine. */
 104:BTHID.h       ****         void Run();
 105:BTHID.h       ****         /** Use this to reset the service. */
 106:BTHID.h       ****         void Reset();
 107:BTHID.h       ****         /**
 108:BTHID.h       ****          * Called when a device is successfully initialized.
 109:BTHID.h       ****          * Use attachOnInit(void (*funcOnInit)(void)) to call your own function.
 110:BTHID.h       ****          * This is useful for instance if you want to set the LEDs in a specific way.
 111:BTHID.h       ****          */
 112:BTHID.h       ****         void onInit() {
 113:BTHID.h       ****                 if(pFuncOnInit)
 114:BTHID.h       ****                         pFuncOnInit(); // Call the user function
 115:BTHID.h       ****                 OnInitBTHID();
 116:BTHID.h       ****         };
 117:BTHID.h       ****         /**@}*/
 118:BTHID.h       **** 
 119:BTHID.h       ****         /** @name Overridable functions */
 120:BTHID.h       ****         /**
 121:BTHID.h       ****          * Used to parse Bluetooth HID data to any class that inherits this class.
 122:BTHID.h       ****          * @param len The length of the incoming data.
 123:BTHID.h       ****          * @param buf Pointer to the data buffer.
 124:BTHID.h       ****          */
 125:BTHID.h       ****         virtual void ParseBTHIDData(uint8_t len, uint8_t *buf) {
  29              		.loc 1 125 0
  30              		.cfi_startproc
  31              		@ args = 0, pretend = 0, frame = 0
  32              		@ frame_needed = 0, uses_anonymous_args = 0
  33              		@ link register save eliminated.
  34              	.LVL0:
 126:BTHID.h       ****                 return;
 127:BTHID.h       ****         };
  35              		.loc 1 127 0
  36              		@ sp needed
  37 0000 7047     		bx	lr
  38              		.cfi_endproc
  39              	.LFE277:
  40              		.cantunwind
  41              		.fnend
  42              		.size	_ZN5BTHID14ParseBTHIDDataEhPh, .-_ZN5BTHID14ParseBTHIDDataEhPh
  43 0002 C046     		.section	.text._ZN5BTHID11OnInitBTHIDEv,"axG",%progbits,_ZN5BTHID11OnInitBTHIDEv,comdat
  44              		.align	2
ARM GAS  C:\Users\jrdia\AppData\Local\Temp\ccYHzYw6.s 			page 4


  45              		.weak	_ZN5BTHID11OnInitBTHIDEv
  46              		.code	16
  47              		.thumb_func
  48              		.type	_ZN5BTHID11OnInitBTHIDEv, %function
  49              	_ZN5BTHID11OnInitBTHIDEv:
  50              		.fnstart
  51              	.LFB278:
 128:BTHID.h       ****         /** Called when a device is connected */
 129:BTHID.h       ****         virtual void OnInitBTHID() {
  52              		.loc 1 129 0
  53              		.cfi_startproc
  54              		@ args = 0, pretend = 0, frame = 0
  55              		@ frame_needed = 0, uses_anonymous_args = 0
  56              		@ link register save eliminated.
  57              	.LVL1:
 130:BTHID.h       ****                 return;
 131:BTHID.h       ****         };
  58              		.loc 1 131 0
  59              		@ sp needed
  60 0000 7047     		bx	lr
  61              		.cfi_endproc
  62              	.LFE278:
  63              		.cantunwind
  64              		.fnend
  65              		.size	_ZN5BTHID11OnInitBTHIDEv, .-_ZN5BTHID11OnInitBTHIDEv
  66 0002 C046     		.section	.text._ZN5BTHID10ResetBTHIDEv,"axG",%progbits,_ZN5BTHID10ResetBTHIDEv,comdat
  67              		.align	2
  68              		.weak	_ZN5BTHID10ResetBTHIDEv
  69              		.code	16
  70              		.thumb_func
  71              		.type	_ZN5BTHID10ResetBTHIDEv, %function
  72              	_ZN5BTHID10ResetBTHIDEv:
  73              		.fnstart
  74              	.LFB279:
 132:BTHID.h       ****         /** Used to reset any buffers in the class that inherits this */
 133:BTHID.h       ****         virtual void ResetBTHID() {
  75              		.loc 1 133 0
  76              		.cfi_startproc
  77              		@ args = 0, pretend = 0, frame = 0
  78              		@ frame_needed = 0, uses_anonymous_args = 0
  79              		@ link register save eliminated.
  80              	.LVL2:
 134:BTHID.h       ****                 return;
 135:BTHID.h       ****         }
  81              		.loc 1 135 0
  82              		@ sp needed
  83 0000 7047     		bx	lr
  84              		.cfi_endproc
  85              	.LFE279:
  86              		.cantunwind
  87              		.fnend
  88              		.size	_ZN5BTHID10ResetBTHIDEv, .-_ZN5BTHID10ResetBTHIDEv
  89 0002 C046     		.section	.text._ZN5BTHID10disconnectEv,"ax",%progbits
  90              		.align	2
  91              		.global	_ZN5BTHID10disconnectEv
  92              		.code	16
  93              		.thumb_func
ARM GAS  C:\Users\jrdia\AppData\Local\Temp\ccYHzYw6.s 			page 5


  94              		.type	_ZN5BTHID10disconnectEv, %function
  95              	_ZN5BTHID10disconnectEv:
  96              		.fnstart
  97              	.LFB284:
  98              		.file 2 "BTHID.c"
   1:BTHID.c       **** /* Copyright (C) 2013 Kristian Lauszus, TKJ Electronics. All rights reserved.
   2:BTHID.c       **** 
   3:BTHID.c       ****  This software may be distributed and modified under the terms of the GNU
   4:BTHID.c       ****  General Public License version 2 (GPL2) as published by the Free Software
   5:BTHID.c       ****  Foundation and appearing in the file GPL2.TXT included in the packaging of
   6:BTHID.c       ****  this file. Please note that GPL2 Section 2[b] requires that all works based
   7:BTHID.c       ****  on this software must also be made publicly available under the terms of
   8:BTHID.c       ****  the GPL2 ("Copyleft").
   9:BTHID.c       **** 
  10:BTHID.c       ****  Contact information
  11:BTHID.c       ****  -------------------
  12:BTHID.c       **** 
  13:BTHID.c       ****  Kristian Lauszus, TKJ Electronics
  14:BTHID.c       ****  Web      :  http://www.tkjelectronics.com
  15:BTHID.c       ****  e-mail   :  kristianl@tkjelectronics.com
  16:BTHID.c       ****  */
  17:BTHID.c       **** 
  18:BTHID.c       **** #include "BTHID.h"
  19:BTHID.c       **** // To enable serial debugging see "settings.h"
  20:BTHID.c       **** //#define EXTRADEBUG // Uncomment to get even more debugging data
  21:BTHID.c       **** //#define PRINTREPORT // Uncomment to print the report send by the HID device
  22:BTHID.c       **** 
  23:BTHID.c       **** BTHID::BTHID(BTD *p, bool pair, const char *pin) :
  24:BTHID.c       **** BluetoothService(p), // Pointer to USB class instance - mandatory
  25:BTHID.c       **** protocolMode(USB_HID_BOOT_PROTOCOL) {
  26:BTHID.c       ****         for(uint8_t i = 0; i < NUM_PARSERS; i++)
  27:BTHID.c       ****                 pRptParser[i] = NULL;
  28:BTHID.c       **** 
  29:BTHID.c       ****         pBtd->pairWithHIDDevice = pair;
  30:BTHID.c       ****         pBtd->btdPin = pin;
  31:BTHID.c       **** 
  32:BTHID.c       ****         /* Set device cid for the control and intterrupt channelse - LSB */
  33:BTHID.c       ****         control_dcid[0] = 0x70; // 0x0070
  34:BTHID.c       ****         control_dcid[1] = 0x00;
  35:BTHID.c       ****         interrupt_dcid[0] = 0x71; // 0x0071
  36:BTHID.c       ****         interrupt_dcid[1] = 0x00;
  37:BTHID.c       **** 
  38:BTHID.c       ****         Reset();
  39:BTHID.c       **** }
  40:BTHID.c       **** 
  41:BTHID.c       **** void BTHID::Reset() {
  42:BTHID.c       ****         connected = false;
  43:BTHID.c       ****         activeConnection = false;
  44:BTHID.c       ****         l2cap_event_flag = 0; // Reset flags
  45:BTHID.c       ****         l2cap_state = L2CAP_WAIT;
  46:BTHID.c       ****         ResetBTHID();
  47:BTHID.c       **** }
  48:BTHID.c       **** 
  49:BTHID.c       **** void BTHID::disconnect() { // Use this void to disconnect the device
  99              		.loc 2 49 0
 100              		.cfi_startproc
 101              		@ args = 0, pretend = 0, frame = 0
ARM GAS  C:\Users\jrdia\AppData\Local\Temp\ccYHzYw6.s 			page 6


 102              		@ frame_needed = 0, uses_anonymous_args = 0
 103              	.LVL3:
 104 0000 10B5     		push	{r4, lr}
 105              		.save {r4, lr}
 106              		.cfi_def_cfa_offset 8
 107              		.cfi_offset 4, -8
 108              		.cfi_offset 14, -4
  50:BTHID.c       ****         // First the HID interrupt channel has to be disconnected, then the HID control channel and
  51:BTHID.c       ****         pBtd->l2cap_disconnection_request(hci_handle, ++identifier, interrupt_scid, interrupt_dcid)
 109              		.loc 2 51 0
 110 0002 0300     		movs	r3, r0
  49:BTHID.c       ****         // First the HID interrupt channel has to be disconnected, then the HID control channel and
 111              		.loc 2 49 0
 112 0004 0400     		movs	r4, r0
 113              		.loc 2 51 0
 114 0006 027D     		ldrb	r2, [r0, #20]
  49:BTHID.c       ****         // First the HID interrupt channel has to be disconnected, then the HID control channel and
 115              		.loc 2 49 0
 116              		.pad #8
 117 0008 82B0     		sub	sp, sp, #8
 118              		.cfi_def_cfa_offset 16
 119              		.loc 2 51 0
 120 000a 0132     		adds	r2, r2, #1
 121 000c D2B2     		uxtb	r2, r2
 122 000e 0275     		strb	r2, [r0, #20]
 123 0010 8189     		ldrh	r1, [r0, #12]
 124 0012 2830     		adds	r0, r0, #40
 125              	.LVL4:
 126 0014 0090     		str	r0, [sp]
 127 0016 1833     		adds	r3, r3, #24
 128              	.LVL5:
 129 0018 A068     		ldr	r0, [r4, #8]
 130 001a FFF7FEFF 		bl	_ZN3BTD27l2cap_disconnection_requestEthPhS0_
 131              	.LVL6:
  52:BTHID.c       ****         Reset();
 132              		.loc 2 52 0
 133 001e 2368     		ldr	r3, [r4]
 134 0020 2000     		movs	r0, r4
 135 0022 9B68     		ldr	r3, [r3, #8]
 136 0024 9847     		blx	r3
 137              	.LVL7:
  53:BTHID.c       ****         l2cap_state = L2CAP_INTERRUPT_DISCONNECT;
 138              		.loc 2 53 0
 139 0026 0922     		movs	r2, #9
 140 0028 2A23     		movs	r3, #42
 141 002a E254     		strb	r2, [r4, r3]
  54:BTHID.c       **** }
 142              		.loc 2 54 0
 143 002c 02B0     		add	sp, sp, #8
 144              		@ sp needed
 145              	.LVL8:
 146 002e 10BD     		pop	{r4, pc}
 147              		.cfi_endproc
 148              	.LFE284:
 149              		.fnend
 150              		.size	_ZN5BTHID10disconnectEv, .-_ZN5BTHID10disconnectEv
 151              		.section	.text._ZN5BTHID3RunEv,"ax",%progbits
ARM GAS  C:\Users\jrdia\AppData\Local\Temp\ccYHzYw6.s 			page 7


 152              		.align	2
 153              		.global	_ZN5BTHID3RunEv
 154              		.code	16
 155              		.thumb_func
 156              		.type	_ZN5BTHID3RunEv, %function
 157              	_ZN5BTHID3RunEv:
 158              		.fnstart
 159              	.LFB287:
  55:BTHID.c       **** 
  56:BTHID.c       **** void BTHID::ACLData(uint8_t* l2capinbuf) {
  57:BTHID.c       ****         if(!pBtd->l2capConnectionClaimed && pBtd->incomingHIDDevice && !connected && !activeConnect
  58:BTHID.c       ****                 if(l2capinbuf[8] == L2CAP_CMD_CONNECTION_REQUEST) {
  59:BTHID.c       ****                         if((l2capinbuf[12] | (l2capinbuf[13] << 8)) == HID_CTRL_PSM) {
  60:BTHID.c       ****                                 pBtd->incomingHIDDevice = false;
  61:BTHID.c       ****                                 pBtd->l2capConnectionClaimed = true; // Claim that the incoming con
  62:BTHID.c       ****                                 activeConnection = true;
  63:BTHID.c       ****                                 hci_handle = pBtd->hci_handle; // Store the HCI Handle for the conn
  64:BTHID.c       ****                                 l2cap_state = L2CAP_WAIT;
  65:BTHID.c       ****                         }
  66:BTHID.c       ****                 }
  67:BTHID.c       ****         }
  68:BTHID.c       **** 
  69:BTHID.c       ****         if(checkHciHandle(l2capinbuf, hci_handle)) { // acl_handle_ok
  70:BTHID.c       ****                 if((l2capinbuf[6] | (l2capinbuf[7] << 8)) == 0x0001U) { // l2cap_control - Channel 
  71:BTHID.c       ****                         if(l2capinbuf[8] == L2CAP_CMD_COMMAND_REJECT) {
  72:BTHID.c       **** #ifdef DEBUG_USB_HOST
  73:BTHID.c       ****                                 Notify(PSTR("\r\nL2CAP Command Rejected - Reason: "), 0x80);
  74:BTHID.c       ****                                 D_PrintHex<uint8_t > (l2capinbuf[13], 0x80);
  75:BTHID.c       ****                                 Notify(PSTR(" "), 0x80);
  76:BTHID.c       ****                                 D_PrintHex<uint8_t > (l2capinbuf[12], 0x80);
  77:BTHID.c       ****                                 Notify(PSTR(" "), 0x80);
  78:BTHID.c       ****                                 D_PrintHex<uint8_t > (l2capinbuf[17], 0x80);
  79:BTHID.c       ****                                 Notify(PSTR(" "), 0x80);
  80:BTHID.c       ****                                 D_PrintHex<uint8_t > (l2capinbuf[16], 0x80);
  81:BTHID.c       ****                                 Notify(PSTR(" "), 0x80);
  82:BTHID.c       ****                                 D_PrintHex<uint8_t > (l2capinbuf[15], 0x80);
  83:BTHID.c       ****                                 Notify(PSTR(" "), 0x80);
  84:BTHID.c       ****                                 D_PrintHex<uint8_t > (l2capinbuf[14], 0x80);
  85:BTHID.c       **** #endif
  86:BTHID.c       ****                         } else if(l2capinbuf[8] == L2CAP_CMD_CONNECTION_RESPONSE) {
  87:BTHID.c       ****                                 if(((l2capinbuf[16] | (l2capinbuf[17] << 8)) == 0x0000) && ((l2capi
  88:BTHID.c       ****                                         if(l2capinbuf[14] == control_dcid[0] && l2capinbuf[15] == c
  89:BTHID.c       ****                                                 //Notify(PSTR("\r\nHID Control Connection Complete"
  90:BTHID.c       ****                                                 identifier = l2capinbuf[9];
  91:BTHID.c       ****                                                 control_scid[0] = l2capinbuf[12];
  92:BTHID.c       ****                                                 control_scid[1] = l2capinbuf[13];
  93:BTHID.c       ****                                                 l2cap_set_flag(L2CAP_FLAG_CONTROL_CONNECTED);
  94:BTHID.c       ****                                         } else if(l2capinbuf[14] == interrupt_dcid[0] && l2capinbuf
  95:BTHID.c       ****                                                 //Notify(PSTR("\r\nHID Interrupt Connection Complet
  96:BTHID.c       ****                                                 identifier = l2capinbuf[9];
  97:BTHID.c       ****                                                 interrupt_scid[0] = l2capinbuf[12];
  98:BTHID.c       ****                                                 interrupt_scid[1] = l2capinbuf[13];
  99:BTHID.c       ****                                                 l2cap_set_flag(L2CAP_FLAG_INTERRUPT_CONNECTED);
 100:BTHID.c       ****                                         }
 101:BTHID.c       ****                                 }
 102:BTHID.c       ****                         } else if(l2capinbuf[8] == L2CAP_CMD_CONNECTION_REQUEST) {
 103:BTHID.c       **** #ifdef EXTRADEBUG
ARM GAS  C:\Users\jrdia\AppData\Local\Temp\ccYHzYw6.s 			page 8


 104:BTHID.c       ****                                 Notify(PSTR("\r\nL2CAP Connection Request - PSM: "), 0x80);
 105:BTHID.c       ****                                 D_PrintHex<uint8_t > (l2capinbuf[13], 0x80);
 106:BTHID.c       ****                                 Notify(PSTR(" "), 0x80);
 107:BTHID.c       ****                                 D_PrintHex<uint8_t > (l2capinbuf[12], 0x80);
 108:BTHID.c       ****                                 Notify(PSTR(" SCID: "), 0x80);
 109:BTHID.c       ****                                 D_PrintHex<uint8_t > (l2capinbuf[15], 0x80);
 110:BTHID.c       ****                                 Notify(PSTR(" "), 0x80);
 111:BTHID.c       ****                                 D_PrintHex<uint8_t > (l2capinbuf[14], 0x80);
 112:BTHID.c       ****                                 Notify(PSTR(" Identifier: "), 0x80);
 113:BTHID.c       ****                                 D_PrintHex<uint8_t > (l2capinbuf[9], 0x80);
 114:BTHID.c       **** #endif
 115:BTHID.c       ****                                 if((l2capinbuf[12] | (l2capinbuf[13] << 8)) == HID_CTRL_PSM) {
 116:BTHID.c       ****                                         identifier = l2capinbuf[9];
 117:BTHID.c       ****                                         control_scid[0] = l2capinbuf[14];
 118:BTHID.c       ****                                         control_scid[1] = l2capinbuf[15];
 119:BTHID.c       ****                                         l2cap_set_flag(L2CAP_FLAG_CONNECTION_CONTROL_REQUEST);
 120:BTHID.c       ****                                 } else if((l2capinbuf[12] | (l2capinbuf[13] << 8)) == HID_INTR_PSM)
 121:BTHID.c       ****                                         identifier = l2capinbuf[9];
 122:BTHID.c       ****                                         interrupt_scid[0] = l2capinbuf[14];
 123:BTHID.c       ****                                         interrupt_scid[1] = l2capinbuf[15];
 124:BTHID.c       ****                                         l2cap_set_flag(L2CAP_FLAG_CONNECTION_INTERRUPT_REQUEST);
 125:BTHID.c       ****                                 }
 126:BTHID.c       ****                         } else if(l2capinbuf[8] == L2CAP_CMD_CONFIG_RESPONSE) {
 127:BTHID.c       ****                                 if((l2capinbuf[16] | (l2capinbuf[17] << 8)) == 0x0000) { // Success
 128:BTHID.c       ****                                         if(l2capinbuf[12] == control_dcid[0] && l2capinbuf[13] == c
 129:BTHID.c       ****                                                 //Notify(PSTR("\r\nHID Control Configuration Comple
 130:BTHID.c       ****                                                 identifier = l2capinbuf[9];
 131:BTHID.c       ****                                                 l2cap_set_flag(L2CAP_FLAG_CONFIG_CONTROL_SUCCESS);
 132:BTHID.c       ****                                         } else if(l2capinbuf[12] == interrupt_dcid[0] && l2capinbuf
 133:BTHID.c       ****                                                 //Notify(PSTR("\r\nHID Interrupt Configuration Comp
 134:BTHID.c       ****                                                 identifier = l2capinbuf[9];
 135:BTHID.c       ****                                                 l2cap_set_flag(L2CAP_FLAG_CONFIG_INTERRUPT_SUCCESS)
 136:BTHID.c       ****                                         }
 137:BTHID.c       ****                                 }
 138:BTHID.c       ****                         } else if(l2capinbuf[8] == L2CAP_CMD_CONFIG_REQUEST) {
 139:BTHID.c       ****                                 if(l2capinbuf[12] == control_dcid[0] && l2capinbuf[13] == control_d
 140:BTHID.c       ****                                         //Notify(PSTR("\r\nHID Control Configuration Request"), 0x8
 141:BTHID.c       ****                                         pBtd->l2cap_config_response(hci_handle, l2capinbuf[9], cont
 142:BTHID.c       ****                                 } else if(l2capinbuf[12] == interrupt_dcid[0] && l2capinbuf[13] == 
 143:BTHID.c       ****                                         //Notify(PSTR("\r\nHID Interrupt Configuration Request"), 0
 144:BTHID.c       ****                                         pBtd->l2cap_config_response(hci_handle, l2capinbuf[9], inte
 145:BTHID.c       ****                                 }
 146:BTHID.c       ****                         } else if(l2capinbuf[8] == L2CAP_CMD_DISCONNECT_REQUEST) {
 147:BTHID.c       ****                                 if(l2capinbuf[12] == control_dcid[0] && l2capinbuf[13] == control_d
 148:BTHID.c       **** #ifdef DEBUG_USB_HOST
 149:BTHID.c       ****                                         Notify(PSTR("\r\nDisconnect Request: Control Channel"), 0x8
 150:BTHID.c       **** #endif
 151:BTHID.c       ****                                         identifier = l2capinbuf[9];
 152:BTHID.c       ****                                         pBtd->l2cap_disconnection_response(hci_handle, identifier, 
 153:BTHID.c       ****                                         Reset();
 154:BTHID.c       ****                                 } else if(l2capinbuf[12] == interrupt_dcid[0] && l2capinbuf[13] == 
 155:BTHID.c       **** #ifdef DEBUG_USB_HOST
 156:BTHID.c       ****                                         Notify(PSTR("\r\nDisconnect Request: Interrupt Channel"), 0
 157:BTHID.c       **** #endif
 158:BTHID.c       ****                                         identifier = l2capinbuf[9];
 159:BTHID.c       ****                                         pBtd->l2cap_disconnection_response(hci_handle, identifier, 
 160:BTHID.c       ****                                         Reset();
ARM GAS  C:\Users\jrdia\AppData\Local\Temp\ccYHzYw6.s 			page 9


 161:BTHID.c       ****                                 }
 162:BTHID.c       ****                         } else if(l2capinbuf[8] == L2CAP_CMD_DISCONNECT_RESPONSE) {
 163:BTHID.c       ****                                 if(l2capinbuf[12] == control_scid[0] && l2capinbuf[13] == control_s
 164:BTHID.c       ****                                         //Notify(PSTR("\r\nDisconnect Response: Control Channel"), 
 165:BTHID.c       ****                                         identifier = l2capinbuf[9];
 166:BTHID.c       ****                                         l2cap_set_flag(L2CAP_FLAG_DISCONNECT_CONTROL_RESPONSE);
 167:BTHID.c       ****                                 } else if(l2capinbuf[12] == interrupt_scid[0] && l2capinbuf[13] == 
 168:BTHID.c       ****                                         //Notify(PSTR("\r\nDisconnect Response: Interrupt Channel")
 169:BTHID.c       ****                                         identifier = l2capinbuf[9];
 170:BTHID.c       ****                                         l2cap_set_flag(L2CAP_FLAG_DISCONNECT_INTERRUPT_RESPONSE);
 171:BTHID.c       ****                                 }
 172:BTHID.c       ****                         }
 173:BTHID.c       **** #ifdef EXTRADEBUG
 174:BTHID.c       ****                         else {
 175:BTHID.c       ****                                 identifier = l2capinbuf[9];
 176:BTHID.c       ****                                 Notify(PSTR("\r\nL2CAP Unknown Signaling Command: "), 0x80);
 177:BTHID.c       ****                                 D_PrintHex<uint8_t > (l2capinbuf[8], 0x80);
 178:BTHID.c       ****                         }
 179:BTHID.c       **** #endif
 180:BTHID.c       ****                 } else if(l2capinbuf[6] == interrupt_dcid[0] && l2capinbuf[7] == interrupt_dcid[1])
 181:BTHID.c       **** #ifdef PRINTREPORT
 182:BTHID.c       ****                         Notify(PSTR("\r\nL2CAP Interrupt: "), 0x80);
 183:BTHID.c       ****                         for(uint16_t i = 0; i < ((uint16_t)l2capinbuf[5] << 8 | l2capinbuf[4]); i++
 184:BTHID.c       ****                                 D_PrintHex<uint8_t > (l2capinbuf[i + 8], 0x80);
 185:BTHID.c       ****                                 Notify(PSTR(" "), 0x80);
 186:BTHID.c       ****                         }
 187:BTHID.c       **** #endif
 188:BTHID.c       ****                         if(l2capinbuf[8] == 0xA1) { // HID_THDR_DATA_INPUT
 189:BTHID.c       ****                                 uint16_t length = ((uint16_t)l2capinbuf[5] << 8 | l2capinbuf[4]);
 190:BTHID.c       ****                                 ParseBTHIDData((uint8_t)(length - 1), &l2capinbuf[9]);
 191:BTHID.c       **** 
 192:BTHID.c       ****                                 switch(l2capinbuf[9]) {
 193:BTHID.c       ****                                         case 0x01: // Keyboard or Joystick events
 194:BTHID.c       ****                                                 if(pRptParser[KEYBOARD_PARSER_ID])
 195:BTHID.c       ****                                                         pRptParser[KEYBOARD_PARSER_ID]->Parse(reint
 196:BTHID.c       ****                                                 break;
 197:BTHID.c       **** 
 198:BTHID.c       ****                                         case 0x02: // Mouse events
 199:BTHID.c       ****                                                 if(pRptParser[MOUSE_PARSER_ID])
 200:BTHID.c       ****                                                         pRptParser[MOUSE_PARSER_ID]->Parse(reinterp
 201:BTHID.c       ****                                                 break;
 202:BTHID.c       **** #ifdef EXTRADEBUG
 203:BTHID.c       ****                                         default:
 204:BTHID.c       ****                                                 Notify(PSTR("\r\nUnknown Report type: "), 0x80);
 205:BTHID.c       ****                                                 D_PrintHex<uint8_t > (l2capinbuf[9], 0x80);
 206:BTHID.c       ****                                                 break;
 207:BTHID.c       **** #endif
 208:BTHID.c       ****                                 }
 209:BTHID.c       ****                         }
 210:BTHID.c       ****                 } else if(l2capinbuf[6] == control_dcid[0] && l2capinbuf[7] == control_dcid[1]) { /
 211:BTHID.c       **** #ifdef PRINTREPORT
 212:BTHID.c       ****                         Notify(PSTR("\r\nL2CAP Control: "), 0x80);
 213:BTHID.c       ****                         for(uint16_t i = 0; i < ((uint16_t)l2capinbuf[5] << 8 | l2capinbuf[4]); i++
 214:BTHID.c       ****                                 D_PrintHex<uint8_t > (l2capinbuf[i + 8], 0x80);
 215:BTHID.c       ****                                 Notify(PSTR(" "), 0x80);
 216:BTHID.c       ****                         }
 217:BTHID.c       **** #endif
ARM GAS  C:\Users\jrdia\AppData\Local\Temp\ccYHzYw6.s 			page 10


 218:BTHID.c       ****                 }
 219:BTHID.c       **** #ifdef EXTRADEBUG
 220:BTHID.c       ****                 else {
 221:BTHID.c       ****                         Notify(PSTR("\r\nUnsupported L2CAP Data - Channel ID: "), 0x80);
 222:BTHID.c       ****                         D_PrintHex<uint8_t > (l2capinbuf[7], 0x80);
 223:BTHID.c       ****                         Notify(PSTR(" "), 0x80);
 224:BTHID.c       ****                         D_PrintHex<uint8_t > (l2capinbuf[6], 0x80);
 225:BTHID.c       **** 
 226:BTHID.c       ****                         Notify(PSTR("\r\nData: "), 0x80);
 227:BTHID.c       ****                         Notify(PSTR("\r\n"), 0x80);
 228:BTHID.c       ****                         for(uint16_t i = 0; i < ((uint16_t)l2capinbuf[5] << 8 | l2capinbuf[4]); i++
 229:BTHID.c       ****                                 D_PrintHex<uint8_t > (l2capinbuf[i + 8], 0x80);
 230:BTHID.c       ****                                 Notify(PSTR(" "), 0x80);
 231:BTHID.c       ****                         }
 232:BTHID.c       ****                 }
 233:BTHID.c       **** #endif
 234:BTHID.c       ****                 L2CAP_task();
 235:BTHID.c       ****         }
 236:BTHID.c       **** }
 237:BTHID.c       **** 
 238:BTHID.c       **** void BTHID::L2CAP_task() {
 239:BTHID.c       ****         switch(l2cap_state) {
 240:BTHID.c       ****                         /* These states are used if the HID device is the host */
 241:BTHID.c       ****                 case L2CAP_CONTROL_SUCCESS:
 242:BTHID.c       ****                         if(l2cap_check_flag(L2CAP_FLAG_CONFIG_CONTROL_SUCCESS)) {
 243:BTHID.c       **** #ifdef DEBUG_USB_HOST
 244:BTHID.c       ****                                 Notify(PSTR("\r\nHID Control Successfully Configured"), 0x80);
 245:BTHID.c       **** #endif
 246:BTHID.c       ****                                 setProtocol(); // Set protocol before establishing HID interrupt ch
 247:BTHID.c       ****                                 l2cap_state = L2CAP_INTERRUPT_SETUP;
 248:BTHID.c       ****                         }
 249:BTHID.c       ****                         break;
 250:BTHID.c       **** 
 251:BTHID.c       ****                 case L2CAP_INTERRUPT_SETUP:
 252:BTHID.c       ****                         if(l2cap_check_flag(L2CAP_FLAG_CONNECTION_INTERRUPT_REQUEST)) {
 253:BTHID.c       **** #ifdef DEBUG_USB_HOST
 254:BTHID.c       ****                                 Notify(PSTR("\r\nHID Interrupt Incoming Connection Request"), 0x80)
 255:BTHID.c       **** #endif
 256:BTHID.c       ****                                 pBtd->l2cap_connection_response(hci_handle, identifier, interrupt_d
 257:BTHID.c       ****                                 delay(1);
 258:BTHID.c       ****                                 pBtd->l2cap_connection_response(hci_handle, identifier, interrupt_d
 259:BTHID.c       ****                                 identifier++;
 260:BTHID.c       ****                                 delay(1);
 261:BTHID.c       ****                                 pBtd->l2cap_config_request(hci_handle, identifier, interrupt_scid);
 262:BTHID.c       **** 
 263:BTHID.c       ****                                 l2cap_state = L2CAP_INTERRUPT_CONFIG_REQUEST;
 264:BTHID.c       ****                         }
 265:BTHID.c       ****                         break;
 266:BTHID.c       **** 
 267:BTHID.c       ****                         /* These states are used if the Arduino is the host */
 268:BTHID.c       ****                 case L2CAP_CONTROL_CONNECT_REQUEST:
 269:BTHID.c       ****                         if(l2cap_check_flag(L2CAP_FLAG_CONTROL_CONNECTED)) {
 270:BTHID.c       **** #ifdef DEBUG_USB_HOST
 271:BTHID.c       ****                                 Notify(PSTR("\r\nSend HID Control Config Request"), 0x80);
 272:BTHID.c       **** #endif
 273:BTHID.c       ****                                 identifier++;
 274:BTHID.c       ****                                 pBtd->l2cap_config_request(hci_handle, identifier, control_scid);
ARM GAS  C:\Users\jrdia\AppData\Local\Temp\ccYHzYw6.s 			page 11


 275:BTHID.c       ****                                 l2cap_state = L2CAP_CONTROL_CONFIG_REQUEST;
 276:BTHID.c       ****                         }
 277:BTHID.c       ****                         break;
 278:BTHID.c       **** 
 279:BTHID.c       ****                 case L2CAP_CONTROL_CONFIG_REQUEST:
 280:BTHID.c       ****                         if(l2cap_check_flag(L2CAP_FLAG_CONFIG_CONTROL_SUCCESS)) {
 281:BTHID.c       ****                                 setProtocol(); // Set protocol before establishing HID interrupt ch
 282:BTHID.c       ****                                 delay(1); // Short delay between commands - just to be sure
 283:BTHID.c       **** #ifdef DEBUG_USB_HOST
 284:BTHID.c       ****                                 Notify(PSTR("\r\nSend HID Interrupt Connection Request"), 0x80);
 285:BTHID.c       **** #endif
 286:BTHID.c       ****                                 identifier++;
 287:BTHID.c       ****                                 pBtd->l2cap_connection_request(hci_handle, identifier, interrupt_dc
 288:BTHID.c       ****                                 l2cap_state = L2CAP_INTERRUPT_CONNECT_REQUEST;
 289:BTHID.c       ****                         }
 290:BTHID.c       ****                         break;
 291:BTHID.c       **** 
 292:BTHID.c       ****                 case L2CAP_INTERRUPT_CONNECT_REQUEST:
 293:BTHID.c       ****                         if(l2cap_check_flag(L2CAP_FLAG_INTERRUPT_CONNECTED)) {
 294:BTHID.c       **** #ifdef DEBUG_USB_HOST
 295:BTHID.c       ****                                 Notify(PSTR("\r\nSend HID Interrupt Config Request"), 0x80);
 296:BTHID.c       **** #endif
 297:BTHID.c       ****                                 identifier++;
 298:BTHID.c       ****                                 pBtd->l2cap_config_request(hci_handle, identifier, interrupt_scid);
 299:BTHID.c       ****                                 l2cap_state = L2CAP_INTERRUPT_CONFIG_REQUEST;
 300:BTHID.c       ****                         }
 301:BTHID.c       ****                         break;
 302:BTHID.c       **** 
 303:BTHID.c       ****                 case L2CAP_INTERRUPT_CONFIG_REQUEST:
 304:BTHID.c       ****                         if(l2cap_check_flag(L2CAP_FLAG_CONFIG_INTERRUPT_SUCCESS)) { // Now the HID 
 305:BTHID.c       **** #ifdef DEBUG_USB_HOST
 306:BTHID.c       ****                                 Notify(PSTR("\r\nHID Channels Established"), 0x80);
 307:BTHID.c       **** #endif
 308:BTHID.c       ****                                 pBtd->connectToHIDDevice = false;
 309:BTHID.c       ****                                 pBtd->pairWithHIDDevice = false;
 310:BTHID.c       ****                                 connected = true;
 311:BTHID.c       ****                                 onInit();
 312:BTHID.c       ****                                 l2cap_state = L2CAP_DONE;
 313:BTHID.c       ****                         }
 314:BTHID.c       ****                         break;
 315:BTHID.c       **** 
 316:BTHID.c       ****                 case L2CAP_DONE:
 317:BTHID.c       ****                         break;
 318:BTHID.c       **** 
 319:BTHID.c       ****                 case L2CAP_INTERRUPT_DISCONNECT:
 320:BTHID.c       ****                         if(l2cap_check_flag(L2CAP_FLAG_DISCONNECT_INTERRUPT_RESPONSE)) {
 321:BTHID.c       **** #ifdef DEBUG_USB_HOST
 322:BTHID.c       ****                                 Notify(PSTR("\r\nDisconnected Interrupt Channel"), 0x80);
 323:BTHID.c       **** #endif
 324:BTHID.c       ****                                 identifier++;
 325:BTHID.c       ****                                 pBtd->l2cap_disconnection_request(hci_handle, identifier, control_s
 326:BTHID.c       ****                                 l2cap_state = L2CAP_CONTROL_DISCONNECT;
 327:BTHID.c       ****                         }
 328:BTHID.c       ****                         break;
 329:BTHID.c       **** 
 330:BTHID.c       ****                 case L2CAP_CONTROL_DISCONNECT:
 331:BTHID.c       ****                         if(l2cap_check_flag(L2CAP_FLAG_DISCONNECT_CONTROL_RESPONSE)) {
ARM GAS  C:\Users\jrdia\AppData\Local\Temp\ccYHzYw6.s 			page 12


 332:BTHID.c       **** #ifdef DEBUG_USB_HOST
 333:BTHID.c       ****                                 Notify(PSTR("\r\nDisconnected Control Channel"), 0x80);
 334:BTHID.c       **** #endif
 335:BTHID.c       ****                                 pBtd->hci_disconnect(hci_handle);
 336:BTHID.c       ****                                 hci_handle = -1; // Reset handle
 337:BTHID.c       ****                                 l2cap_event_flag = 0; // Reset flags
 338:BTHID.c       ****                                 l2cap_state = L2CAP_WAIT;
 339:BTHID.c       ****                         }
 340:BTHID.c       ****                         break;
 341:BTHID.c       ****         }
 342:BTHID.c       **** }
 343:BTHID.c       **** 
 344:BTHID.c       **** void BTHID::Run() {
 160              		.loc 2 344 0
 161              		.cfi_startproc
 162              		@ args = 0, pretend = 0, frame = 0
 163              		@ frame_needed = 0, uses_anonymous_args = 0
 164              	.LVL9:
 165 0000 70B5     		push	{r4, r5, r6, lr}
 166              		.save {r4, r5, r6, lr}
 167              		.cfi_def_cfa_offset 16
 168              		.cfi_offset 4, -16
 169              		.cfi_offset 5, -12
 170              		.cfi_offset 6, -8
 171              		.cfi_offset 14, -4
 345:BTHID.c       ****         switch(l2cap_state) {
 172              		.loc 2 345 0
 173 0002 2A25     		movs	r5, #42
 174 0004 435D     		ldrb	r3, [r0, r5]
 344:BTHID.c       ****         switch(l2cap_state) {
 175              		.loc 2 344 0
 176              		.pad #8
 177 0006 82B0     		sub	sp, sp, #8
 178              		.cfi_def_cfa_offset 24
 344:BTHID.c       ****         switch(l2cap_state) {
 179              		.loc 2 344 0
 180 0008 0400     		movs	r4, r0
 181              		.loc 2 345 0
 182 000a 002B     		cmp	r3, #0
 183 000c 12D1     		bne	.L5
 184              	.LVL10:
 185              	.LBB26:
 186              	.LBB27:
 346:BTHID.c       ****                 case L2CAP_WAIT:
 347:BTHID.c       ****                         if(pBtd->connectToHIDDevice && !pBtd->l2capConnectionClaimed && !connected 
 187              		.loc 2 347 0
 188 000e 8068     		ldr	r0, [r0, #8]
 189              	.LVL11:
 190 0010 4633     		adds	r3, r3, #70
 191 0012 C35C     		ldrb	r3, [r0, r3]
 192 0014 002B     		cmp	r3, #0
 193 0016 09D0     		beq	.L8
 194 0018 437A     		ldrb	r3, [r0, #9]
 195 001a 002B     		cmp	r3, #0
 196 001c 06D1     		bne	.L8
 197 001e 637D     		ldrb	r3, [r4, #21]
 198 0020 002B     		cmp	r3, #0
ARM GAS  C:\Users\jrdia\AppData\Local\Temp\ccYHzYw6.s 			page 13


 199 0022 03D1     		bne	.L8
 200 0024 2522     		movs	r2, #37
 201 0026 A35C     		ldrb	r3, [r4, r2]
 202 0028 002B     		cmp	r3, #0
 203 002a 2CD0     		beq	.L16
 204              	.L8:
 348:BTHID.c       ****                                 pBtd->l2capConnectionClaimed = true;
 349:BTHID.c       ****                                 activeConnection = true;
 350:BTHID.c       **** #ifdef DEBUG_USB_HOST
 351:BTHID.c       ****                                 Notify(PSTR("\r\nSend HID Control Connection Request"), 0x80);
 352:BTHID.c       **** #endif
 353:BTHID.c       ****                                 hci_handle = pBtd->hci_handle; // Store the HCI Handle for the conn
 354:BTHID.c       ****                                 l2cap_event_flag = 0; // Reset flags
 355:BTHID.c       ****                                 identifier = 0;
 356:BTHID.c       ****                                 pBtd->l2cap_connection_request(hci_handle, identifier, control_dcid
 357:BTHID.c       ****                                 l2cap_state = L2CAP_CONTROL_CONNECT_REQUEST;
 358:BTHID.c       ****                         } else if(l2cap_check_flag(L2CAP_FLAG_CONNECTION_CONTROL_REQUEST)) {
 205              		.loc 2 358 0
 206 002c 0123     		movs	r3, #1
 207 002e 2269     		ldr	r2, [r4, #16]
 208 0030 1A42     		tst	r2, r3
 209 0032 01D1     		bne	.L17
 210              	.LVL12:
 211              	.L5:
 212              	.LBE27:
 213              	.LBE26:
 359:BTHID.c       **** #ifdef DEBUG_USB_HOST
 360:BTHID.c       ****                                 Notify(PSTR("\r\nHID Control Incoming Connection Request"), 0x80);
 361:BTHID.c       **** #endif
 362:BTHID.c       ****                                 pBtd->l2cap_connection_response(hci_handle, identifier, control_dci
 363:BTHID.c       ****                                 delay(1);
 364:BTHID.c       ****                                 pBtd->l2cap_connection_response(hci_handle, identifier, control_dci
 365:BTHID.c       ****                                 identifier++;
 366:BTHID.c       ****                                 delay(1);
 367:BTHID.c       ****                                 pBtd->l2cap_config_request(hci_handle, identifier, control_scid);
 368:BTHID.c       ****                                 l2cap_state = L2CAP_CONTROL_SUCCESS;
 369:BTHID.c       ****                         }
 370:BTHID.c       ****                         break;
 371:BTHID.c       ****         }
 372:BTHID.c       **** }
 214              		.loc 2 372 0
 215 0034 02B0     		add	sp, sp, #8
 216              		@ sp needed
 217              	.LVL13:
 218 0036 70BD     		pop	{r4, r5, r6, pc}
 219              	.LVL14:
 220              	.L17:
 221              	.LBB30:
 222              	.LBB28:
 362:BTHID.c       ****                                 delay(1);
 223              		.loc 2 362 0
 224 0038 2600     		movs	r6, r4
 225 003a 2500     		movs	r5, r4
 226 003c 2636     		adds	r6, r6, #38
 227 003e 1635     		adds	r5, r5, #22
 228 0040 227D     		ldrb	r2, [r4, #20]
 229 0042 A189     		ldrh	r1, [r4, #12]
ARM GAS  C:\Users\jrdia\AppData\Local\Temp\ccYHzYw6.s 			page 14


 230 0044 0193     		str	r3, [sp, #4]
 231 0046 0095     		str	r5, [sp]
 232 0048 3300     		movs	r3, r6
 233 004a FFF7FEFF 		bl	_ZN3BTD25l2cap_connection_responseEthPhS0_h
 234              	.LVL15:
 363:BTHID.c       ****                                 pBtd->l2cap_connection_response(hci_handle, identifier, control_dci
 235              		.loc 2 363 0
 236 004e 0120     		movs	r0, #1
 237 0050 FFF7FEFF 		bl	delay
 238              	.LVL16:
 364:BTHID.c       ****                                 identifier++;
 239              		.loc 2 364 0
 240 0054 0023     		movs	r3, #0
 241 0056 227D     		ldrb	r2, [r4, #20]
 242 0058 A189     		ldrh	r1, [r4, #12]
 243 005a 0193     		str	r3, [sp, #4]
 244 005c A068     		ldr	r0, [r4, #8]
 245 005e 3300     		movs	r3, r6
 246 0060 0095     		str	r5, [sp]
 247 0062 FFF7FEFF 		bl	_ZN3BTD25l2cap_connection_responseEthPhS0_h
 248              	.LVL17:
 365:BTHID.c       ****                                 delay(1);
 249              		.loc 2 365 0
 250 0066 237D     		ldrb	r3, [r4, #20]
 366:BTHID.c       ****                                 pBtd->l2cap_config_request(hci_handle, identifier, control_scid);
 251              		.loc 2 366 0
 252 0068 0120     		movs	r0, #1
 365:BTHID.c       ****                                 delay(1);
 253              		.loc 2 365 0
 254 006a 0133     		adds	r3, r3, #1
 255 006c 2375     		strb	r3, [r4, #20]
 366:BTHID.c       ****                                 pBtd->l2cap_config_request(hci_handle, identifier, control_scid);
 256              		.loc 2 366 0
 257 006e FFF7FEFF 		bl	delay
 258              	.LVL18:
 367:BTHID.c       ****                                 l2cap_state = L2CAP_CONTROL_SUCCESS;
 259              		.loc 2 367 0
 260 0072 227D     		ldrb	r2, [r4, #20]
 261 0074 2B00     		movs	r3, r5
 262 0076 A189     		ldrh	r1, [r4, #12]
 263 0078 A068     		ldr	r0, [r4, #8]
 264 007a FFF7FEFF 		bl	_ZN3BTD20l2cap_config_requestEthPh
 265              	.LVL19:
 368:BTHID.c       ****                         }
 266              		.loc 2 368 0
 267 007e 0422     		movs	r2, #4
 268 0080 2A23     		movs	r3, #42
 269 0082 E254     		strb	r2, [r4, r3]
 270              	.LBE28:
 271              	.LBE30:
 272              		.loc 2 372 0
 273 0084 D6E7     		b	.L5
 274              	.L16:
 275              	.LBB31:
 276              	.LBB29:
 348:BTHID.c       ****                                 activeConnection = true;
 277              		.loc 2 348 0
ARM GAS  C:\Users\jrdia\AppData\Local\Temp\ccYHzYw6.s 			page 15


 278 0086 0121     		movs	r1, #1
 279 0088 4172     		strb	r1, [r0, #9]
 349:BTHID.c       **** #ifdef DEBUG_USB_HOST
 280              		.loc 2 349 0
 281 008a A154     		strb	r1, [r4, r2]
 353:BTHID.c       ****                                 l2cap_event_flag = 0; // Reset flags
 282              		.loc 2 353 0
 283 008c 418B     		ldrh	r1, [r0, #26]
 354:BTHID.c       ****                                 identifier = 0;
 284              		.loc 2 354 0
 285 008e 2361     		str	r3, [r4, #16]
 355:BTHID.c       ****                                 pBtd->l2cap_connection_request(hci_handle, identifier, control_dcid
 286              		.loc 2 355 0
 287 0090 2375     		strb	r3, [r4, #20]
 356:BTHID.c       ****                                 l2cap_state = L2CAP_CONTROL_CONNECT_REQUEST;
 288              		.loc 2 356 0
 289 0092 2300     		movs	r3, r4
 290 0094 143A     		subs	r2, r2, #20
 291 0096 2633     		adds	r3, r3, #38
 292 0098 0092     		str	r2, [sp]
 353:BTHID.c       ****                                 l2cap_event_flag = 0; // Reset flags
 293              		.loc 2 353 0
 294 009a A181     		strh	r1, [r4, #12]
 356:BTHID.c       ****                                 l2cap_state = L2CAP_CONTROL_CONNECT_REQUEST;
 295              		.loc 2 356 0
 296 009c 0022     		movs	r2, #0
 297 009e FFF7FEFF 		bl	_ZN3BTD24l2cap_connection_requestEthPht
 298              	.LVL20:
 357:BTHID.c       ****                         } else if(l2cap_check_flag(L2CAP_FLAG_CONNECTION_CONTROL_REQUEST)) {
 299              		.loc 2 357 0
 300 00a2 0223     		movs	r3, #2
 301 00a4 6355     		strb	r3, [r4, r5]
 302 00a6 C5E7     		b	.L5
 303              	.LBE29:
 304              	.LBE31:
 305              		.cfi_endproc
 306              	.LFE287:
 307              		.fnend
 308              		.size	_ZN5BTHID3RunEv, .-_ZN5BTHID3RunEv
 309              		.section	.text._ZN5BTHID6onInitEv,"axG",%progbits,_ZN5BTHID6onInitEv,comdat
 310              		.align	2
 311              		.weak	_ZN5BTHID6onInitEv
 312              		.code	16
 313              		.thumb_func
 314              		.type	_ZN5BTHID6onInitEv, %function
 315              	_ZN5BTHID6onInitEv:
 316              		.fnstart
 317              	.LFB276:
 112:BTHID.h       ****                 if(pFuncOnInit)
 318              		.loc 1 112 0
 319              		.cfi_startproc
 320              		@ args = 0, pretend = 0, frame = 0
 321              		@ frame_needed = 0, uses_anonymous_args = 0
 322              	.LVL21:
 113:BTHID.h       ****                         pFuncOnInit(); // Call the user function
 323              		.loc 1 113 0
 324 0000 4368     		ldr	r3, [r0, #4]
ARM GAS  C:\Users\jrdia\AppData\Local\Temp\ccYHzYw6.s 			page 16


 112:BTHID.h       ****                 if(pFuncOnInit)
 325              		.loc 1 112 0
 326 0002 10B5     		push	{r4, lr}
 327              		.save {r4, lr}
 328              		.cfi_def_cfa_offset 8
 329              		.cfi_offset 4, -8
 330              		.cfi_offset 14, -4
 112:BTHID.h       ****                 if(pFuncOnInit)
 331              		.loc 1 112 0
 332 0004 0400     		movs	r4, r0
 113:BTHID.h       ****                         pFuncOnInit(); // Call the user function
 333              		.loc 1 113 0
 334 0006 002B     		cmp	r3, #0
 335 0008 00D0     		beq	.L19
 114:BTHID.h       ****                 OnInitBTHID();
 336              		.loc 1 114 0
 337 000a 9847     		blx	r3
 338              	.LVL22:
 339              	.L19:
 115:BTHID.h       ****         };
 340              		.loc 1 115 0
 341 000c 2368     		ldr	r3, [r4]
 342 000e 044A     		ldr	r2, .L25
 343 0010 9B69     		ldr	r3, [r3, #24]
 344 0012 9342     		cmp	r3, r2
 345 0014 00D1     		bne	.L24
 346              	.L18:
 116:BTHID.h       ****         /**@}*/
 347              		.loc 1 116 0
 348              		@ sp needed
 349              	.LVL23:
 350 0016 10BD     		pop	{r4, pc}
 351              	.LVL24:
 352              	.L24:
 115:BTHID.h       ****         };
 353              		.loc 1 115 0
 354 0018 2000     		movs	r0, r4
 355 001a 9847     		blx	r3
 356              	.LVL25:
 116:BTHID.h       ****         /**@}*/
 357              		.loc 1 116 0
 358 001c FBE7     		b	.L18
 359              	.L26:
 360 001e C046     		.align	2
 361              	.L25:
 362 0020 00000000 		.word	_ZN5BTHID11OnInitBTHIDEv
 363              		.cfi_endproc
 364              	.LFE276:
 365              		.fnend
 366              		.size	_ZN5BTHID6onInitEv, .-_ZN5BTHID6onInitEv
 367              		.section	.text._ZN5BTHID5ResetEv,"ax",%progbits
 368              		.align	2
 369              		.global	_ZN5BTHID5ResetEv
 370              		.code	16
 371              		.thumb_func
 372              		.type	_ZN5BTHID5ResetEv, %function
 373              	_ZN5BTHID5ResetEv:
ARM GAS  C:\Users\jrdia\AppData\Local\Temp\ccYHzYw6.s 			page 17


 374              		.fnstart
 375              	.LFB283:
  41:BTHID.c       ****         connected = false;
 376              		.loc 2 41 0
 377              		.cfi_startproc
 378              		@ args = 0, pretend = 0, frame = 0
 379              		@ frame_needed = 0, uses_anonymous_args = 0
 380              	.LVL26:
  42:BTHID.c       ****         activeConnection = false;
 381              		.loc 2 42 0
 382 0000 0023     		movs	r3, #0
  43:BTHID.c       ****         l2cap_event_flag = 0; // Reset flags
 383              		.loc 2 43 0
 384 0002 2522     		movs	r2, #37
  42:BTHID.c       ****         activeConnection = false;
 385              		.loc 2 42 0
 386 0004 4375     		strb	r3, [r0, #21]
  43:BTHID.c       ****         l2cap_event_flag = 0; // Reset flags
 387              		.loc 2 43 0
 388 0006 8354     		strb	r3, [r0, r2]
  45:BTHID.c       ****         ResetBTHID();
 389              		.loc 2 45 0
 390 0008 0532     		adds	r2, r2, #5
  44:BTHID.c       ****         l2cap_state = L2CAP_WAIT;
 391              		.loc 2 44 0
 392 000a 0361     		str	r3, [r0, #16]
  45:BTHID.c       ****         ResetBTHID();
 393              		.loc 2 45 0
 394 000c 8354     		strb	r3, [r0, r2]
  46:BTHID.c       **** }
 395              		.loc 2 46 0
 396 000e 0368     		ldr	r3, [r0]
 397 0010 034A     		ldr	r2, .L30
 398 0012 DB69     		ldr	r3, [r3, #28]
  41:BTHID.c       ****         connected = false;
 399              		.loc 2 41 0
 400 0014 10B5     		push	{r4, lr}
 401              		.save {r4, lr}
 402              		.cfi_def_cfa_offset 8
 403              		.cfi_offset 4, -8
 404              		.cfi_offset 14, -4
 405 0016 9342     		cmp	r3, r2
 406 0018 00D1     		bne	.L29
 407              	.LVL27:
 408              	.L27:
  47:BTHID.c       **** 
 409              		.loc 2 47 0
 410              		@ sp needed
 411 001a 10BD     		pop	{r4, pc}
 412              	.LVL28:
 413              	.L29:
  46:BTHID.c       **** }
 414              		.loc 2 46 0
 415 001c 9847     		blx	r3
 416              	.LVL29:
  47:BTHID.c       **** 
 417              		.loc 2 47 0
ARM GAS  C:\Users\jrdia\AppData\Local\Temp\ccYHzYw6.s 			page 18


 418 001e FCE7     		b	.L27
 419              	.L31:
 420              		.align	2
 421              	.L30:
 422 0020 00000000 		.word	_ZN5BTHID10ResetBTHIDEv
 423              		.cfi_endproc
 424              	.LFE283:
 425              		.fnend
 426              		.size	_ZN5BTHID5ResetEv, .-_ZN5BTHID5ResetEv
 427              		.section	.text._ZN5BTHIDC2EP3BTDbPKc,"ax",%progbits
 428              		.align	2
 429              		.global	_ZN5BTHIDC2EP3BTDbPKc
 430              		.code	16
 431              		.thumb_func
 432              		.type	_ZN5BTHIDC2EP3BTDbPKc, %function
 433              	_ZN5BTHIDC2EP3BTDbPKc:
 434              		.fnstart
 435              	.LFB281:
  23:BTHID.c       **** BluetoothService(p), // Pointer to USB class instance - mandatory
 436              		.loc 2 23 0
 437              		.cfi_startproc
 438              		@ args = 0, pretend = 0, frame = 0
 439              		@ frame_needed = 0, uses_anonymous_args = 0
 440              	.LVL30:
 441 0000 70B5     		push	{r4, r5, r6, lr}
 442              		.cfi_def_cfa_offset 16
 443              		.cfi_offset 4, -16
 444              		.cfi_offset 5, -12
 445              		.cfi_offset 6, -8
 446              		.cfi_offset 14, -4
 447              	.LBB36:
 448              	.LBB37:
 449              	.LBB38:
 450              		.file 3 "BTD.h"
   1:BTD.h         **** /* Copyright (C) 2012 Kristian Lauszus, TKJ Electronics. All rights reserved.
   2:BTD.h         **** 
   3:BTD.h         ****  This software may be distributed and modified under the terms of the GNU
   4:BTD.h         ****  General Public License version 2 (GPL2) as published by the Free Software
   5:BTD.h         ****  Foundation and appearing in the file GPL2.TXT included in the packaging of
   6:BTD.h         ****  this file. Please note that GPL2 Section 2[b] requires that all works based
   7:BTD.h         ****  on this software must also be made publicly available under the terms of
   8:BTD.h         ****  the GPL2 ("Copyleft").
   9:BTD.h         **** 
  10:BTD.h         ****  Contact information
  11:BTD.h         ****  -------------------
  12:BTD.h         **** 
  13:BTD.h         ****  Kristian Lauszus, TKJ Electronics
  14:BTD.h         ****  Web      :  http://www.tkjelectronics.com
  15:BTD.h         ****  e-mail   :  kristianl@tkjelectronics.com
  16:BTD.h         ****  */
  17:BTD.h         **** 
  18:BTD.h         **** #ifndef _btd_h_
  19:BTD.h         **** #define _btd_h_
  20:BTD.h         **** 
  21:BTD.h         **** #include "Usb.h"
  22:BTD.h         **** #include "usbhid.h"
  23:BTD.h         **** 
ARM GAS  C:\Users\jrdia\AppData\Local\Temp\ccYHzYw6.s 			page 19


  24:BTD.h         **** //PID and VID of the Sony PS3 devices
  25:BTD.h         **** #define PS3_VID                 0x054C  // Sony Corporation
  26:BTD.h         **** #define PS3_PID                 0x0268  // PS3 Controller DualShock 3
  27:BTD.h         **** #define PS3NAVIGATION_PID       0x042F  // Navigation controller
  28:BTD.h         **** #define PS3MOVE_PID             0x03D5  // Motion controller
  29:BTD.h         **** 
  30:BTD.h         **** #define IOGEAR_GBU521_VID       0x0A5C // The IOGEAR GBU521 dongle does not presents itself correct
  31:BTD.h         **** #define IOGEAR_GBU521_PID       0x21E8
  32:BTD.h         **** 
  33:BTD.h         **** /* Bluetooth dongle data taken from descriptors */
  34:BTD.h         **** #define BULK_MAXPKTSIZE         64 // Max size for ACL data
  35:BTD.h         **** 
  36:BTD.h         **** // Used in control endpoint header for HCI Commands
  37:BTD.h         **** #define bmREQ_HCI_OUT USB_SETUP_HOST_TO_DEVICE|USB_SETUP_TYPE_CLASS|USB_SETUP_RECIPIENT_DEVICE
  38:BTD.h         **** 
  39:BTD.h         **** /* Bluetooth HCI states for hci_task() */
  40:BTD.h         **** #define HCI_INIT_STATE                  0
  41:BTD.h         **** #define HCI_RESET_STATE                 1
  42:BTD.h         **** #define HCI_CLASS_STATE                 2
  43:BTD.h         **** #define HCI_BDADDR_STATE                3
  44:BTD.h         **** #define HCI_LOCAL_VERSION_STATE         4
  45:BTD.h         **** #define HCI_SET_NAME_STATE              5
  46:BTD.h         **** #define HCI_CHECK_DEVICE_SERVICE        6
  47:BTD.h         **** 
  48:BTD.h         **** #define HCI_INQUIRY_STATE               7 // These three states are only used if it should pair and
  49:BTD.h         **** #define HCI_CONNECT_DEVICE_STATE        8
  50:BTD.h         **** #define HCI_CONNECTED_DEVICE_STATE      9
  51:BTD.h         **** 
  52:BTD.h         **** #define HCI_SCANNING_STATE              10
  53:BTD.h         **** #define HCI_CONNECT_IN_STATE            11
  54:BTD.h         **** #define HCI_REMOTE_NAME_STATE           12
  55:BTD.h         **** #define HCI_CONNECTED_STATE             13
  56:BTD.h         **** #define HCI_DISABLE_SCAN_STATE          14
  57:BTD.h         **** #define HCI_DONE_STATE                  15
  58:BTD.h         **** #define HCI_DISCONNECT_STATE            16
  59:BTD.h         **** 
  60:BTD.h         **** /* HCI event flags*/
  61:BTD.h         **** #define HCI_FLAG_CMD_COMPLETE           (1UL << 0)
  62:BTD.h         **** #define HCI_FLAG_CONNECT_COMPLETE       (1UL << 1)
  63:BTD.h         **** #define HCI_FLAG_DISCONNECT_COMPLETE    (1UL << 2)
  64:BTD.h         **** #define HCI_FLAG_REMOTE_NAME_COMPLETE   (1UL << 3)
  65:BTD.h         **** #define HCI_FLAG_INCOMING_REQUEST       (1UL << 4)
  66:BTD.h         **** #define HCI_FLAG_READ_BDADDR            (1UL << 5)
  67:BTD.h         **** #define HCI_FLAG_READ_VERSION           (1UL << 6)
  68:BTD.h         **** #define HCI_FLAG_DEVICE_FOUND           (1UL << 7)
  69:BTD.h         **** #define HCI_FLAG_CONNECT_EVENT          (1UL << 8)
  70:BTD.h         **** 
  71:BTD.h         **** /* Macros for HCI event flag tests */
  72:BTD.h         **** #define hci_check_flag(flag) (hci_event_flag & (flag))
  73:BTD.h         **** #define hci_set_flag(flag) (hci_event_flag |= (flag))
  74:BTD.h         **** #define hci_clear_flag(flag) (hci_event_flag &= ~(flag))
  75:BTD.h         **** 
  76:BTD.h         **** /* HCI Events managed */
  77:BTD.h         **** #define EV_INQUIRY_COMPLETE                             0x01
  78:BTD.h         **** #define EV_INQUIRY_RESULT                               0x02
  79:BTD.h         **** #define EV_CONNECT_COMPLETE                             0x03
  80:BTD.h         **** #define EV_INCOMING_CONNECT                             0x04
ARM GAS  C:\Users\jrdia\AppData\Local\Temp\ccYHzYw6.s 			page 20


  81:BTD.h         **** #define EV_DISCONNECT_COMPLETE                          0x05
  82:BTD.h         **** #define EV_AUTHENTICATION_COMPLETE                      0x06
  83:BTD.h         **** #define EV_REMOTE_NAME_COMPLETE                         0x07
  84:BTD.h         **** #define EV_ENCRYPTION_CHANGE                            0x08
  85:BTD.h         **** #define EV_CHANGE_CONNECTION_LINK                       0x09
  86:BTD.h         **** #define EV_ROLE_CHANGED                                 0x12
  87:BTD.h         **** #define EV_NUM_COMPLETE_PKT                             0x13
  88:BTD.h         **** #define EV_PIN_CODE_REQUEST                             0x16
  89:BTD.h         **** #define EV_LINK_KEY_REQUEST                             0x17
  90:BTD.h         **** #define EV_LINK_KEY_NOTIFICATION                        0x18
  91:BTD.h         **** #define EV_DATA_BUFFER_OVERFLOW                         0x1A
  92:BTD.h         **** #define EV_MAX_SLOTS_CHANGE                             0x1B
  93:BTD.h         **** #define EV_READ_REMOTE_VERSION_INFORMATION_COMPLETE     0x0C
  94:BTD.h         **** #define EV_QOS_SETUP_COMPLETE                           0x0D
  95:BTD.h         **** #define EV_COMMAND_COMPLETE                             0x0E
  96:BTD.h         **** #define EV_COMMAND_STATUS                               0x0F
  97:BTD.h         **** #define EV_LOOPBACK_COMMAND                             0x19
  98:BTD.h         **** #define EV_PAGE_SCAN_REP_MODE                           0x20
  99:BTD.h         **** 
 100:BTD.h         **** /* Bluetooth states for the different Bluetooth drivers */
 101:BTD.h         **** #define L2CAP_WAIT                      0
 102:BTD.h         **** #define L2CAP_DONE                      1
 103:BTD.h         **** 
 104:BTD.h         **** /* Used for HID Control channel */
 105:BTD.h         **** #define L2CAP_CONTROL_CONNECT_REQUEST   2
 106:BTD.h         **** #define L2CAP_CONTROL_CONFIG_REQUEST    3
 107:BTD.h         **** #define L2CAP_CONTROL_SUCCESS           4
 108:BTD.h         **** #define L2CAP_CONTROL_DISCONNECT        5
 109:BTD.h         **** 
 110:BTD.h         **** /* Used for HID Interrupt channel */
 111:BTD.h         **** #define L2CAP_INTERRUPT_SETUP           6
 112:BTD.h         **** #define L2CAP_INTERRUPT_CONNECT_REQUEST 7
 113:BTD.h         **** #define L2CAP_INTERRUPT_CONFIG_REQUEST  8
 114:BTD.h         **** #define L2CAP_INTERRUPT_DISCONNECT      9
 115:BTD.h         **** 
 116:BTD.h         **** /* Used for SDP channel */
 117:BTD.h         **** #define L2CAP_SDP_WAIT                  10
 118:BTD.h         **** #define L2CAP_SDP_SUCCESS               11
 119:BTD.h         **** 
 120:BTD.h         **** /* Used for RFCOMM channel */
 121:BTD.h         **** #define L2CAP_RFCOMM_WAIT               12
 122:BTD.h         **** #define L2CAP_RFCOMM_SUCCESS            13
 123:BTD.h         **** 
 124:BTD.h         **** #define L2CAP_DISCONNECT_RESPONSE       14 // Used for both SDP and RFCOMM channel
 125:BTD.h         **** 
 126:BTD.h         **** /* Bluetooth states used by some drivers */
 127:BTD.h         **** #define TURN_ON_LED                     17
 128:BTD.h         **** #define PS3_ENABLE_SIXAXIS              18
 129:BTD.h         **** #define WII_CHECK_MOTION_PLUS_STATE     19
 130:BTD.h         **** #define WII_CHECK_EXTENSION_STATE       20
 131:BTD.h         **** #define WII_INIT_MOTION_PLUS_STATE      21
 132:BTD.h         **** 
 133:BTD.h         **** /* L2CAP event flags for HID Control channel */
 134:BTD.h         **** #define L2CAP_FLAG_CONNECTION_CONTROL_REQUEST           (1UL << 0)
 135:BTD.h         **** #define L2CAP_FLAG_CONFIG_CONTROL_SUCCESS               (1UL << 1)
 136:BTD.h         **** #define L2CAP_FLAG_CONTROL_CONNECTED                    (1UL << 2)
 137:BTD.h         **** #define L2CAP_FLAG_DISCONNECT_CONTROL_RESPONSE          (1UL << 3)
ARM GAS  C:\Users\jrdia\AppData\Local\Temp\ccYHzYw6.s 			page 21


 138:BTD.h         **** 
 139:BTD.h         **** /* L2CAP event flags for HID Interrupt channel */
 140:BTD.h         **** #define L2CAP_FLAG_CONNECTION_INTERRUPT_REQUEST         (1UL << 4)
 141:BTD.h         **** #define L2CAP_FLAG_CONFIG_INTERRUPT_SUCCESS             (1UL << 5)
 142:BTD.h         **** #define L2CAP_FLAG_INTERRUPT_CONNECTED                  (1UL << 6)
 143:BTD.h         **** #define L2CAP_FLAG_DISCONNECT_INTERRUPT_RESPONSE        (1UL << 7)
 144:BTD.h         **** 
 145:BTD.h         **** /* L2CAP event flags for SDP channel */
 146:BTD.h         **** #define L2CAP_FLAG_CONNECTION_SDP_REQUEST               (1UL << 8)
 147:BTD.h         **** #define L2CAP_FLAG_CONFIG_SDP_SUCCESS                   (1UL << 9)
 148:BTD.h         **** #define L2CAP_FLAG_DISCONNECT_SDP_REQUEST               (1UL << 10)
 149:BTD.h         **** 
 150:BTD.h         **** /* L2CAP event flags for RFCOMM channel */
 151:BTD.h         **** #define L2CAP_FLAG_CONNECTION_RFCOMM_REQUEST            (1UL << 11)
 152:BTD.h         **** #define L2CAP_FLAG_CONFIG_RFCOMM_SUCCESS                (1UL << 12)
 153:BTD.h         **** #define L2CAP_FLAG_DISCONNECT_RFCOMM_REQUEST            (1UL << 13)
 154:BTD.h         **** 
 155:BTD.h         **** #define L2CAP_FLAG_DISCONNECT_RESPONSE                  (1UL << 14)
 156:BTD.h         **** 
 157:BTD.h         **** /* Macros for L2CAP event flag tests */
 158:BTD.h         **** #define l2cap_check_flag(flag) (l2cap_event_flag & (flag))
 159:BTD.h         **** #define l2cap_set_flag(flag) (l2cap_event_flag |= (flag))
 160:BTD.h         **** #define l2cap_clear_flag(flag) (l2cap_event_flag &= ~(flag))
 161:BTD.h         **** 
 162:BTD.h         **** /* L2CAP signaling commands */
 163:BTD.h         **** #define L2CAP_CMD_COMMAND_REJECT        0x01
 164:BTD.h         **** #define L2CAP_CMD_CONNECTION_REQUEST    0x02
 165:BTD.h         **** #define L2CAP_CMD_CONNECTION_RESPONSE   0x03
 166:BTD.h         **** #define L2CAP_CMD_CONFIG_REQUEST        0x04
 167:BTD.h         **** #define L2CAP_CMD_CONFIG_RESPONSE       0x05
 168:BTD.h         **** #define L2CAP_CMD_DISCONNECT_REQUEST    0x06
 169:BTD.h         **** #define L2CAP_CMD_DISCONNECT_RESPONSE   0x07
 170:BTD.h         **** #define L2CAP_CMD_INFORMATION_REQUEST   0x0A
 171:BTD.h         **** #define L2CAP_CMD_INFORMATION_RESPONSE  0x0B
 172:BTD.h         **** 
 173:BTD.h         **** // Used For Connection Response - Remember to Include High Byte
 174:BTD.h         **** #define PENDING     0x01
 175:BTD.h         **** #define SUCCESSFUL  0x00
 176:BTD.h         **** 
 177:BTD.h         **** /* Bluetooth L2CAP PSM - see http://www.bluetooth.org/Technical/AssignedNumbers/logical_link.htm */
 178:BTD.h         **** #define SDP_PSM         0x01 // Service Discovery Protocol PSM Value
 179:BTD.h         **** #define RFCOMM_PSM      0x03 // RFCOMM PSM Value
 180:BTD.h         **** #define HID_CTRL_PSM    0x11 // HID_Control PSM Value
 181:BTD.h         **** #define HID_INTR_PSM    0x13 // HID_Interrupt PSM Value
 182:BTD.h         **** 
 183:BTD.h         **** // Used to determine if it is a Bluetooth dongle
 184:BTD.h         **** #define WI_SUBCLASS_RF      0x01 // RF Controller
 185:BTD.h         **** #define WI_PROTOCOL_BT      0x01 // Bluetooth Programming Interface
 186:BTD.h         **** 
 187:BTD.h         **** #define BTD_MAX_ENDPOINTS   4
 188:BTD.h         **** #define BTD_NUM_SERVICES    4 // Max number of Bluetooth services - if you need more than 4 simply 
 189:BTD.h         **** 
 190:BTD.h         **** #define PAIR    1
 191:BTD.h         **** 
 192:BTD.h         **** class BluetoothService;
 193:BTD.h         **** 
 194:BTD.h         **** /**
ARM GAS  C:\Users\jrdia\AppData\Local\Temp\ccYHzYw6.s 			page 22


 195:BTD.h         ****  * The Bluetooth Dongle class will take care of all the USB communication
 196:BTD.h         ****  * and then pass the data to the BluetoothService classes.
 197:BTD.h         ****  */
 198:BTD.h         **** class BTD : public USBDeviceConfig, public UsbConfigXtracter {
 199:BTD.h         **** public:
 200:BTD.h         ****         /**
 201:BTD.h         ****          * Constructor for the BTD class.
 202:BTD.h         ****          * @param  p   Pointer to USB class instance.
 203:BTD.h         ****          */
 204:BTD.h         ****         BTD(USB *p);
 205:BTD.h         **** 
 206:BTD.h         ****         /** @name USBDeviceConfig implementation */
 207:BTD.h         ****         /**
 208:BTD.h         ****          * Address assignment and basic initialization is done here.
 209:BTD.h         ****          * @param  parent   Hub number.
 210:BTD.h         ****          * @param  port     Port number on the hub.
 211:BTD.h         ****          * @param  lowspeed Speed of the device.
 212:BTD.h         ****          * @return          0 on success.
 213:BTD.h         ****          */
 214:BTD.h         ****         uint8_t ConfigureDevice(uint8_t parent, uint8_t port, bool lowspeed);
 215:BTD.h         ****         /**
 216:BTD.h         ****          * Initialize the Bluetooth dongle.
 217:BTD.h         ****          * @param  parent   Hub number.
 218:BTD.h         ****          * @param  port     Port number on the hub.
 219:BTD.h         ****          * @param  lowspeed Speed of the device.
 220:BTD.h         ****          * @return          0 on success.
 221:BTD.h         ****          */
 222:BTD.h         ****         uint8_t Init(uint8_t parent, uint8_t port, bool lowspeed);
 223:BTD.h         ****         /**
 224:BTD.h         ****          * Release the USB device.
 225:BTD.h         ****          * @return 0 on success.
 226:BTD.h         ****          */
 227:BTD.h         ****         uint8_t Release();
 228:BTD.h         ****         /**
 229:BTD.h         ****          * Poll the USB Input endpoints and run the state machines.
 230:BTD.h         ****          * @return 0 on success.
 231:BTD.h         ****          */
 232:BTD.h         ****         uint8_t Poll();
 233:BTD.h         **** 
 234:BTD.h         ****         /**
 235:BTD.h         ****          * Get the device address.
 236:BTD.h         ****          * @return The device address.
 237:BTD.h         ****          */
 238:BTD.h         ****         virtual uint8_t GetAddress() {
 239:BTD.h         ****                 return bAddress;
 240:BTD.h         ****         };
 241:BTD.h         **** 
 242:BTD.h         ****         /**
 243:BTD.h         ****          * Used to check if the dongle has been initialized.
 244:BTD.h         ****          * @return True if it's ready.
 245:BTD.h         ****          */
 246:BTD.h         ****         virtual bool isReady() {
 247:BTD.h         ****                 return bPollEnable;
 248:BTD.h         ****         };
 249:BTD.h         **** 
 250:BTD.h         ****         /**
 251:BTD.h         ****          * Used by the USB core to check what this driver support.
ARM GAS  C:\Users\jrdia\AppData\Local\Temp\ccYHzYw6.s 			page 23


 252:BTD.h         ****          * @param  klass The device's USB class.
 253:BTD.h         ****          * @return       Returns true if the device's USB class matches this driver.
 254:BTD.h         ****          */
 255:BTD.h         ****         virtual bool DEVCLASSOK(uint8_t klass) {
 256:BTD.h         ****                 return (klass == USB_CLASS_WIRELESS_CTRL);
 257:BTD.h         ****         };
 258:BTD.h         **** 
 259:BTD.h         ****         /**
 260:BTD.h         ****          * Used by the USB core to check what this driver support.
 261:BTD.h         ****          * Used to set the Bluetooth address into the PS3 controllers.
 262:BTD.h         ****          * @param  vid The device's VID.
 263:BTD.h         ****          * @param  pid The device's PID.
 264:BTD.h         ****          * @return     Returns true if the device's VID and PID matches this driver.
 265:BTD.h         ****          */
 266:BTD.h         ****         virtual bool VIDPIDOK(uint16_t vid, uint16_t pid) {
 267:BTD.h         ****                 if(vid == IOGEAR_GBU521_VID && pid == IOGEAR_GBU521_PID)
 268:BTD.h         ****                         return true;
 269:BTD.h         ****                 if(my_bdaddr[0] != 0x00 || my_bdaddr[1] != 0x00 || my_bdaddr[2] != 0x00 || my_bdadd
 270:BTD.h         ****                         if(vid == PS3_VID && (pid == PS3_PID || pid == PS3NAVIGATION_PID || pid == 
 271:BTD.h         ****                                 return true;
 272:BTD.h         ****                 }
 273:BTD.h         ****                 return false;
 274:BTD.h         ****         };
 275:BTD.h         ****         /**@}*/
 276:BTD.h         **** 
 277:BTD.h         ****         /** @name UsbConfigXtracter implementation */
 278:BTD.h         ****         /**
 279:BTD.h         ****          * UsbConfigXtracter implementation, used to extract endpoint information.
 280:BTD.h         ****          * @param conf  Configuration value.
 281:BTD.h         ****          * @param iface Interface number.
 282:BTD.h         ****          * @param alt   Alternate setting.
 283:BTD.h         ****          * @param proto Interface Protocol.
 284:BTD.h         ****          * @param ep    Endpoint Descriptor.
 285:BTD.h         ****          */
 286:BTD.h         ****         void EndpointXtract(uint8_t conf, uint8_t iface, uint8_t alt, uint8_t proto, const USB_ENDP
 287:BTD.h         ****         /**@}*/
 288:BTD.h         **** 
 289:BTD.h         ****         /** Disconnects both the L2CAP Channel and the HCI Connection for all Bluetooth services. *
 290:BTD.h         ****         void disconnect();
 291:BTD.h         **** 
 292:BTD.h         ****         /**
 293:BTD.h         ****          * Register Bluetooth dongle members/services.
 294:BTD.h         ****          * @param  pService Pointer to BluetoothService class instance.
 295:BTD.h         ****          * @return          The service ID on success or -1 on fail.
 296:BTD.h         ****          */
 297:BTD.h         ****         int8_t registerBluetoothService(BluetoothService *pService) {
 298:BTD.h         ****                 for(uint8_t i = 0; i < BTD_NUM_SERVICES; i++) {
 299:BTD.h         ****                         if(!btService[i]) {
 300:BTD.h         ****                                 btService[i] = pService;
 301:BTD.h         ****                                 return i; // Return ID
 302:BTD.h         ****                         }
 303:BTD.h         ****                 }
 304:BTD.h         ****                 return -1; // Error registering BluetoothService
 305:BTD.h         ****         };
 306:BTD.h         **** 
 307:BTD.h         ****         /** @name HCI Commands */
 308:BTD.h         ****         /**
ARM GAS  C:\Users\jrdia\AppData\Local\Temp\ccYHzYw6.s 			page 24


 309:BTD.h         ****          * Used to send a HCI Command.
 310:BTD.h         ****          * @param data   Data to send.
 311:BTD.h         ****          * @param nbytes Number of bytes to send.
 312:BTD.h         ****          */
 313:BTD.h         ****         void HCI_Command(uint8_t* data, uint16_t nbytes);
 314:BTD.h         ****         /** Reset the Bluetooth dongle. */
 315:BTD.h         ****         void hci_reset();
 316:BTD.h         ****         /** Read the Bluetooth address of the dongle. */
 317:BTD.h         ****         void hci_read_bdaddr();
 318:BTD.h         ****         /** Read the HCI Version of the Bluetooth dongle. */
 319:BTD.h         ****         void hci_read_local_version_information();
 320:BTD.h         ****         /**
 321:BTD.h         ****          * Set the local name of the Bluetooth dongle.
 322:BTD.h         ****          * @param name Desired name.
 323:BTD.h         ****          */
 324:BTD.h         ****         void hci_set_local_name(const char* name);
 325:BTD.h         ****         /** Enable visibility to other Bluetooth devices. */
 326:BTD.h         ****         void hci_write_scan_enable();
 327:BTD.h         ****         /** Disable visibility to other Bluetooth devices. */
 328:BTD.h         ****         void hci_write_scan_disable();
 329:BTD.h         ****         /** Read the remote devices name. */
 330:BTD.h         ****         void hci_remote_name();
 331:BTD.h         ****         /** Accept the connection with the Bluetooth device. */
 332:BTD.h         ****         void hci_accept_connection();
 333:BTD.h         ****         /**
 334:BTD.h         ****          * Disconnect the HCI connection.
 335:BTD.h         ****          * @param handle The HCI Handle for the connection.
 336:BTD.h         ****          */
 337:BTD.h         ****         void hci_disconnect(uint16_t handle);
 338:BTD.h         ****         /**
 339:BTD.h         ****          * Respond with the pin for the connection.
 340:BTD.h         ****          * The pin is automatically set for the Wii library,
 341:BTD.h         ****          * but can be customized for the SPP library.
 342:BTD.h         ****          */
 343:BTD.h         ****         void hci_pin_code_request_reply();
 344:BTD.h         ****         /** Respons when no pin was set. */
 345:BTD.h         ****         void hci_pin_code_negative_request_reply();
 346:BTD.h         ****         /**
 347:BTD.h         ****          * Command is used to reply to a Link Key Request event from the BR/EDR Controller
 348:BTD.h         ****          * if the Host does not have a stored Link Key for the connection.
 349:BTD.h         ****          */
 350:BTD.h         ****         void hci_link_key_request_negative_reply();
 351:BTD.h         ****         /** Used to try to authenticate with the remote device. */
 352:BTD.h         ****         void hci_authentication_request();
 353:BTD.h         ****         /** Start a HCI inquiry. */
 354:BTD.h         ****         void hci_inquiry();
 355:BTD.h         ****         /** Cancel a HCI inquiry. */
 356:BTD.h         ****         void hci_inquiry_cancel();
 357:BTD.h         ****         /** Connect to last device communicated with. */
 358:BTD.h         ****         void hci_connect();
 359:BTD.h         ****         /**
 360:BTD.h         ****          * Connect to device.
 361:BTD.h         ****          * @param bdaddr Bluetooth address of the device.
 362:BTD.h         ****          */
 363:BTD.h         ****         void hci_connect(uint8_t *bdaddr);
 364:BTD.h         ****         /** Used to a set the class of the device. */
 365:BTD.h         ****         void hci_write_class_of_device();
ARM GAS  C:\Users\jrdia\AppData\Local\Temp\ccYHzYw6.s 			page 25


 366:BTD.h         ****         /**@}*/
 367:BTD.h         **** 
 368:BTD.h         ****         /** @name L2CAP Commands */
 369:BTD.h         ****         /**
 370:BTD.h         ****          * Used to send L2CAP Commands.
 371:BTD.h         ****          * @param handle      HCI Handle.
 372:BTD.h         ****          * @param data        Data to send.
 373:BTD.h         ****          * @param nbytes      Number of bytes to send.
 374:BTD.h         ****          * @param channelLow,channelHigh  Low and high byte of channel to send to.
 375:BTD.h         ****          * If argument is omitted then the Standard L2CAP header: Channel ID (0x01) for ACL-U will 
 376:BTD.h         ****          */
 377:BTD.h         ****         void L2CAP_Command(uint16_t handle, uint8_t* data, uint8_t nbytes, uint8_t channelLow = 0x0
 378:BTD.h         ****         /**
 379:BTD.h         ****          * L2CAP Connection Request.
 380:BTD.h         ****          * @param handle HCI handle.
 381:BTD.h         ****          * @param rxid   Identifier.
 382:BTD.h         ****          * @param scid   Source Channel Identifier.
 383:BTD.h         ****          * @param psm    Protocol/Service Multiplexer - see: https://www.bluetooth.org/Technical/As
 384:BTD.h         ****          */
 385:BTD.h         ****         void l2cap_connection_request(uint16_t handle, uint8_t rxid, uint8_t* scid, uint16_t psm);
 386:BTD.h         ****         /**
 387:BTD.h         ****          * L2CAP Connection Response.
 388:BTD.h         ****          * @param handle HCI handle.
 389:BTD.h         ****          * @param rxid   Identifier.
 390:BTD.h         ****          * @param dcid   Destination Channel Identifier.
 391:BTD.h         ****          * @param scid   Source Channel Identifier.
 392:BTD.h         ****          * @param result Result - First send ::PENDING and then ::SUCCESSFUL.
 393:BTD.h         ****          */
 394:BTD.h         ****         void l2cap_connection_response(uint16_t handle, uint8_t rxid, uint8_t* dcid, uint8_t* scid,
 395:BTD.h         ****         /**
 396:BTD.h         ****          * L2CAP Config Request.
 397:BTD.h         ****          * @param handle HCI Handle.
 398:BTD.h         ****          * @param rxid   Identifier.
 399:BTD.h         ****          * @param dcid   Destination Channel Identifier.
 400:BTD.h         ****          */
 401:BTD.h         ****         void l2cap_config_request(uint16_t handle, uint8_t rxid, uint8_t* dcid);
 402:BTD.h         ****         /**
 403:BTD.h         ****          * L2CAP Config Response.
 404:BTD.h         ****          * @param handle HCI Handle.
 405:BTD.h         ****          * @param rxid   Identifier.
 406:BTD.h         ****          * @param scid   Source Channel Identifier.
 407:BTD.h         ****          */
 408:BTD.h         ****         void l2cap_config_response(uint16_t handle, uint8_t rxid, uint8_t* scid);
 409:BTD.h         ****         /**
 410:BTD.h         ****          * L2CAP Disconnection Request.
 411:BTD.h         ****          * @param handle HCI Handle.
 412:BTD.h         ****          * @param rxid   Identifier.
 413:BTD.h         ****          * @param dcid   Device Channel Identifier.
 414:BTD.h         ****          * @param scid   Source Channel Identifier.
 415:BTD.h         ****          */
 416:BTD.h         ****         void l2cap_disconnection_request(uint16_t handle, uint8_t rxid, uint8_t* dcid, uint8_t* sci
 417:BTD.h         ****         /**
 418:BTD.h         ****          * L2CAP Disconnection Response.
 419:BTD.h         ****          * @param handle HCI Handle.
 420:BTD.h         ****          * @param rxid   Identifier.
 421:BTD.h         ****          * @param dcid   Device Channel Identifier.
 422:BTD.h         ****          * @param scid   Source Channel Identifier.
ARM GAS  C:\Users\jrdia\AppData\Local\Temp\ccYHzYw6.s 			page 26


 423:BTD.h         ****          */
 424:BTD.h         ****         void l2cap_disconnection_response(uint16_t handle, uint8_t rxid, uint8_t* dcid, uint8_t* sc
 425:BTD.h         ****         /**
 426:BTD.h         ****          * L2CAP Information Response.
 427:BTD.h         ****          * @param handle       HCI Handle.
 428:BTD.h         ****          * @param rxid         Identifier.
 429:BTD.h         ****          * @param infoTypeLow,infoTypeHigh  Infotype.
 430:BTD.h         ****          */
 431:BTD.h         ****         void l2cap_information_response(uint16_t handle, uint8_t rxid, uint8_t infoTypeLow, uint8_t
 432:BTD.h         ****         /**@}*/
 433:BTD.h         **** 
 434:BTD.h         ****         /** Use this to see if it is waiting for a incoming connection. */
 435:BTD.h         ****         bool waitingForConnection;
 436:BTD.h         ****         /** This is used by the service to know when to store the device information. */
 437:BTD.h         ****         bool l2capConnectionClaimed;
 438:BTD.h         ****         /** This is used by the SPP library to claim the current SDP incoming request. */
 439:BTD.h         ****         bool sdpConnectionClaimed;
 440:BTD.h         ****         /** This is used by the SPP library to claim the current RFCOMM incoming request. */
 441:BTD.h         ****         bool rfcommConnectionClaimed;
 442:BTD.h         **** 
 443:BTD.h         ****         /** The name you wish to make the dongle show up as. It is set automatically by the SPP lib
 444:BTD.h         ****         const char* btdName;
 445:BTD.h         ****         /** The pin you wish to make the dongle use for authentication. It is set automatically by 
 446:BTD.h         ****         const char* btdPin;
 447:BTD.h         **** 
 448:BTD.h         ****         /** The bluetooth dongles Bluetooth address. */
 449:BTD.h         ****         uint8_t my_bdaddr[6];
 450:BTD.h         ****         /** HCI handle for the last connection. */
 451:BTD.h         ****         uint16_t hci_handle;
 452:BTD.h         ****         /** Last incoming devices Bluetooth address. */
 453:BTD.h         ****         uint8_t disc_bdaddr[6];
 454:BTD.h         ****         /** First 30 chars of last remote name. */
 455:BTD.h         ****         char remote_name[30];
 456:BTD.h         ****         /**
 457:BTD.h         ****          * The supported HCI Version read from the Bluetooth dongle.
 458:BTD.h         ****          * Used by the PS3BT library to check the HCI Version of the Bluetooth dongle,
 459:BTD.h         ****          * it should be at least 3 to work properly with the library.
 460:BTD.h         ****          */
 461:BTD.h         ****         uint8_t hci_version;
 462:BTD.h         **** 
 463:BTD.h         ****         /** Call this function to pair with a Wiimote */
 464:BTD.h         ****         void pairWithWiimote() {
 465:BTD.h         ****                 pairWithWii = true;
 466:BTD.h         ****                 hci_state = HCI_CHECK_DEVICE_SERVICE;
 467:BTD.h         ****         };
 468:BTD.h         ****         /** Used to only send the ACL data to the Wiimote. */
 469:BTD.h         ****         bool connectToWii;
 470:BTD.h         ****         /** True if a Wiimote is connecting. */
 471:BTD.h         ****         bool incomingWii;
 472:BTD.h         ****         /** True when it should pair with a Wiimote. */
 473:BTD.h         ****         bool pairWithWii;
 474:BTD.h         ****         /** True if it's the new Wiimote with the Motion Plus Inside or a Wii U Pro Controller. */
 475:BTD.h         ****         bool motionPlusInside;
 476:BTD.h         ****         /** True if it's a Wii U Pro Controller. */
 477:BTD.h         ****         bool wiiUProController;
 478:BTD.h         **** 
 479:BTD.h         ****         /** Call this function to pair with a HID device */
ARM GAS  C:\Users\jrdia\AppData\Local\Temp\ccYHzYw6.s 			page 27


 480:BTD.h         ****         void pairWithHID() {
 481:BTD.h         ****                 waitingForConnection = false;
 482:BTD.h         ****                 pairWithHIDDevice = true;
 483:BTD.h         ****                 hci_state = HCI_CHECK_DEVICE_SERVICE;
 484:BTD.h         ****         };
 485:BTD.h         ****         /** Used to only send the ACL data to the HID device. */
 486:BTD.h         ****         bool connectToHIDDevice;
 487:BTD.h         ****         /** True if a HID device is connecting. */
 488:BTD.h         ****         bool incomingHIDDevice;
 489:BTD.h         ****         /** True when it should pair with a device like a mouse or keyboard. */
 490:BTD.h         ****         bool pairWithHIDDevice;
 491:BTD.h         **** 
 492:BTD.h         ****         /**
 493:BTD.h         ****          * Read the poll interval taken from the endpoint descriptors.
 494:BTD.h         ****          * @return The poll interval in ms.
 495:BTD.h         ****          */
 496:BTD.h         ****         uint8_t readPollInterval() {
 497:BTD.h         ****                 return pollInterval;
 498:BTD.h         ****         };
 499:BTD.h         **** 
 500:BTD.h         **** protected:
 501:BTD.h         ****         /** Pointer to USB class instance. */
 502:BTD.h         ****         USB *pUsb;
 503:BTD.h         ****         /** Device address. */
 504:BTD.h         ****         uint8_t bAddress;
 505:BTD.h         ****         /** Endpoint info structure. */
 506:BTD.h         ****         EpInfo epInfo[BTD_MAX_ENDPOINTS];
 507:BTD.h         **** 
 508:BTD.h         ****         /** Configuration number. */
 509:BTD.h         ****         uint8_t bConfNum;
 510:BTD.h         ****         /** Total number of endpoints in the configuration. */
 511:BTD.h         ****         uint8_t bNumEP;
 512:BTD.h         ****         /** Next poll time based on poll interval taken from the USB descriptor. */
 513:BTD.h         ****         uint32_t qNextPollTime;
 514:BTD.h         **** 
 515:BTD.h         ****         /** Bluetooth dongle control endpoint. */
 516:BTD.h         ****         static const uint8_t BTD_CONTROL_PIPE;
 517:BTD.h         ****         /** HCI event endpoint index. */
 518:BTD.h         ****         static const uint8_t BTD_EVENT_PIPE;
 519:BTD.h         ****         /** ACL In endpoint index. */
 520:BTD.h         ****         static const uint8_t BTD_DATAIN_PIPE;
 521:BTD.h         ****         /** ACL Out endpoint index. */
 522:BTD.h         ****         static const uint8_t BTD_DATAOUT_PIPE;
 523:BTD.h         **** 
 524:BTD.h         ****         /**
 525:BTD.h         ****          * Used to print the USB Endpoint Descriptor.
 526:BTD.h         ****          * @param ep_ptr Pointer to USB Endpoint Descriptor.
 527:BTD.h         ****          */
 528:BTD.h         ****         void PrintEndpointDescriptor(const USB_ENDPOINT_DESCRIPTOR* ep_ptr);
 529:BTD.h         **** 
 530:BTD.h         **** private:
 531:BTD.h         ****         void Initialize(); // Set all variables, endpoint structs etc. to default values
 532:BTD.h         ****         BluetoothService *btService[BTD_NUM_SERVICES];
 533:BTD.h         **** 
 534:BTD.h         ****         uint16_t PID, VID; // PID and VID of device connected
 535:BTD.h         **** 
 536:BTD.h         ****         uint8_t pollInterval;
ARM GAS  C:\Users\jrdia\AppData\Local\Temp\ccYHzYw6.s 			page 28


 537:BTD.h         ****         bool bPollEnable;
 538:BTD.h         **** 
 539:BTD.h         ****         bool pairWiiUsingSync; // True if pairing was done using the Wii SYNC button.
 540:BTD.h         ****         bool checkRemoteName; // Used to check remote device's name before connecting.
 541:BTD.h         ****         bool incomingPS4; // True if a PS4 controller is connecting
 542:BTD.h         ****         uint8_t classOfDevice[3]; // Class of device of last device
 543:BTD.h         **** 
 544:BTD.h         ****         /* Variables used by high level HCI task */
 545:BTD.h         ****         uint8_t hci_state; // Current state of Bluetooth HCI connection
 546:BTD.h         ****         uint16_t hci_counter; // Counter used for Bluetooth HCI reset loops
 547:BTD.h         ****         uint16_t hci_num_reset_loops; // This value indicate how many times it should read before t
 548:BTD.h         ****         uint16_t hci_event_flag; // HCI flags of received Bluetooth events
 549:BTD.h         ****         uint8_t inquiry_counter;
 550:BTD.h         **** 
 551:BTD.h         ****         uint8_t hcibuf[BULK_MAXPKTSIZE]; // General purpose buffer for HCI data
 552:BTD.h         ****         uint8_t l2capinbuf[BULK_MAXPKTSIZE]; // General purpose buffer for L2CAP in data
 553:BTD.h         ****         uint8_t l2capoutbuf[14]; // General purpose buffer for L2CAP out data
 554:BTD.h         **** 
 555:BTD.h         ****         /* State machines */
 556:BTD.h         ****         void HCI_event_task(); // Poll the HCI event pipe
 557:BTD.h         ****         void HCI_task(); // HCI state machine
 558:BTD.h         ****         void ACL_event_task(); // ACL input pipe
 559:BTD.h         **** 
 560:BTD.h         ****         /* Used to set the Bluetooth Address internally to the PS3 Controllers */
 561:BTD.h         ****         void setBdaddr(uint8_t* BDADDR);
 562:BTD.h         ****         void setMoveBdaddr(uint8_t* BDADDR);
 563:BTD.h         **** };
 564:BTD.h         **** 
 565:BTD.h         **** /** All Bluetooth services should inherit this class. */
 566:BTD.h         **** class BluetoothService {
 567:BTD.h         **** public:
 568:BTD.h         ****         BluetoothService(BTD *p) : pBtd(p) {
 451              		.loc 3 568 0
 452 0002 184C     		ldr	r4, .L41
 453 0004 8160     		str	r1, [r0, #8]
 454 0006 0460     		str	r4, [r0]
 569:BTD.h         ****                 if(pBtd)
 455              		.loc 3 569 0
 456 0008 0029     		cmp	r1, #0
 457 000a 09D0     		beq	.L33
 458 000c 0D00     		movs	r5, r1
 459 000e 0024     		movs	r4, #0
 460 0010 6435     		adds	r5, r5, #100
 461              	.L35:
 462              	.LVL31:
 463              	.LBB39:
 464              	.LBB40:
 299:BTD.h         ****                                 btService[i] = pService;
 465              		.loc 3 299 0
 466 0012 2E68     		ldr	r6, [r5]
 467 0014 002E     		cmp	r6, #0
 468 0016 1FD0     		beq	.L40
 469              	.LVL32:
 470 0018 0134     		adds	r4, r4, #1
 471              	.LVL33:
 472 001a 0435     		adds	r5, r5, #4
 298:BTD.h         ****                         if(!btService[i]) {
ARM GAS  C:\Users\jrdia\AppData\Local\Temp\ccYHzYw6.s 			page 29


 473              		.loc 3 298 0
 474 001c 042C     		cmp	r4, #4
 475 001e F8D1     		bne	.L35
 476              	.L33:
 477              	.LVL34:
 478              	.LBE40:
 479              	.LBE39:
 480              	.LBE38:
 481              	.LBE37:
  25:BTHID.c       ****         for(uint8_t i = 0; i < NUM_PARSERS; i++)
 482              		.loc 2 25 0
 483 0020 114C     		ldr	r4, .L41+4
 484 0022 2425     		movs	r5, #36
 485 0024 0834     		adds	r4, r4, #8
 486 0026 0460     		str	r4, [r0]
 487 0028 0024     		movs	r4, #0
 488 002a 4455     		strb	r4, [r0, r5]
 489              	.LVL35:
 490              	.LBB44:
  29:BTHID.c       ****         pBtd->btdPin = pin;
 491              		.loc 2 29 0
 492 002c 2435     		adds	r5, r5, #36
 493              	.LBB45:
  27:BTHID.c       **** 
 494              		.loc 2 27 0
 495 002e C461     		str	r4, [r0, #28]
 496              	.LVL36:
 497 0030 0462     		str	r4, [r0, #32]
 498              	.LVL37:
 499              	.LBE45:
  29:BTHID.c       ****         pBtd->btdPin = pin;
 500              		.loc 2 29 0
 501 0032 4A55     		strb	r2, [r1, r5]
  30:BTHID.c       **** 
 502              		.loc 2 30 0
 503 0034 0B61     		str	r3, [r1, #16]
  33:BTHID.c       ****         control_dcid[1] = 0x00;
 504              		.loc 2 33 0
 505 0036 7022     		movs	r2, #112
 506              	.LVL38:
 507 0038 2623     		movs	r3, #38
 508              	.LVL39:
 509 003a C254     		strb	r2, [r0, r3]
 510              	.LVL40:
  34:BTHID.c       ****         interrupt_dcid[0] = 0x71; // 0x0071
 511              		.loc 2 34 0
 512 003c 0133     		adds	r3, r3, #1
 513 003e C454     		strb	r4, [r0, r3]
  35:BTHID.c       ****         interrupt_dcid[1] = 0x00;
 514              		.loc 2 35 0
 515 0040 0132     		adds	r2, r2, #1
 516 0042 0133     		adds	r3, r3, #1
 517 0044 C254     		strb	r2, [r0, r3]
  36:BTHID.c       **** 
 518              		.loc 2 36 0
 519 0046 0133     		adds	r3, r3, #1
 520 0048 C454     		strb	r4, [r0, r3]
ARM GAS  C:\Users\jrdia\AppData\Local\Temp\ccYHzYw6.s 			page 30


 521              	.LVL41:
 522              	.LBB46:
 523              	.LBB47:
  43:BTHID.c       ****         l2cap_event_flag = 0; // Reset flags
 524              		.loc 2 43 0
 525 004a 043B     		subs	r3, r3, #4
  42:BTHID.c       ****         activeConnection = false;
 526              		.loc 2 42 0
 527 004c 4475     		strb	r4, [r0, #21]
  43:BTHID.c       ****         l2cap_event_flag = 0; // Reset flags
 528              		.loc 2 43 0
 529 004e C454     		strb	r4, [r0, r3]
  45:BTHID.c       ****         ResetBTHID();
 530              		.loc 2 45 0
 531 0050 0533     		adds	r3, r3, #5
  44:BTHID.c       ****         l2cap_state = L2CAP_WAIT;
 532              		.loc 2 44 0
 533 0052 0461     		str	r4, [r0, #16]
 534              	.LBE47:
 535              	.LBE46:
 536              	.LBE44:
 537              	.LBE36:
  39:BTHID.c       **** 
 538              		.loc 2 39 0
 539              		@ sp needed
 540              	.LBB52:
 541              	.LBB50:
 542              	.LBB49:
 543              	.LBB48:
  45:BTHID.c       ****         ResetBTHID();
 544              		.loc 2 45 0
 545 0054 C454     		strb	r4, [r0, r3]
 546              	.LVL42:
 547              	.LBE48:
 548              	.LBE49:
 549              	.LBE50:
 550              	.LBE52:
  39:BTHID.c       **** 
 551              		.loc 2 39 0
 552 0056 70BD     		pop	{r4, r5, r6, pc}
 553              	.LVL43:
 554              	.L40:
 555              	.LBB53:
 556              	.LBB51:
 557              	.LBB43:
 558              	.LBB42:
 559              	.LBB41:
 300:BTD.h         ****                                 return i; // Return ID
 560              		.loc 3 300 0
 561 0058 1834     		adds	r4, r4, #24
 562              	.LVL44:
 563 005a A400     		lsls	r4, r4, #2
 564 005c 0C19     		adds	r4, r1, r4
 565 005e 6060     		str	r0, [r4, #4]
 566 0060 DEE7     		b	.L33
 567              	.L42:
 568 0062 C046     		.align	2
ARM GAS  C:\Users\jrdia\AppData\Local\Temp\ccYHzYw6.s 			page 31


 569              	.L41:
 570 0064 08000000 		.word	_ZTV16BluetoothService+8
 571 0068 28000000 		.word	.LANCHOR0
 572              	.LBE41:
 573              	.LBE42:
 574              	.LBE43:
 575              	.LBE51:
 576              	.LBE53:
 577              		.cfi_endproc
 578              	.LFE281:
 579              		.cantunwind
 580              		.fnend
 581              		.size	_ZN5BTHIDC2EP3BTDbPKc, .-_ZN5BTHIDC2EP3BTDbPKc
 582              		.global	_ZN5BTHIDC1EP3BTDbPKc
 583              		.thumb_set _ZN5BTHIDC1EP3BTDbPKc,_ZN5BTHIDC2EP3BTDbPKc
 584              		.section	.text._ZN5BTHID11setProtocolEv,"ax",%progbits
 585              		.align	2
 586              		.global	_ZN5BTHID11setProtocolEv
 587              		.code	16
 588              		.thumb_func
 589              		.type	_ZN5BTHID11setProtocolEv, %function
 590              	_ZN5BTHID11setProtocolEv:
 591              		.fnstart
 592              	.LFB288:
 373:BTHID.c       **** 
 374:BTHID.c       **** /************************************************************/
 375:BTHID.c       **** /*                    HID Commands                          */
 376:BTHID.c       **** 
 377:BTHID.c       **** /************************************************************/
 378:BTHID.c       **** void BTHID::setProtocol() {
 593              		.loc 2 378 0
 594              		.cfi_startproc
 595              		@ args = 0, pretend = 0, frame = 8
 596              		@ frame_needed = 0, uses_anonymous_args = 0
 597              	.LVL45:
 379:BTHID.c       **** #ifdef DEBUG_USB_HOST
 380:BTHID.c       ****         Notify(PSTR("\r\nSet protocol mode: "), 0x80);
 381:BTHID.c       ****         D_PrintHex<uint8_t > (protocolMode, 0x80);
 382:BTHID.c       **** #endif
 383:BTHID.c       ****         if (protocolMode != USB_HID_BOOT_PROTOCOL && protocolMode != HID_RPT_PROTOCOL) {
 598              		.loc 2 383 0
 599 0000 2422     		movs	r2, #36
 378:BTHID.c       **** #ifdef DEBUG_USB_HOST
 600              		.loc 2 378 0
 601 0002 10B5     		push	{r4, lr}
 602              		.save {r4, lr}
 603              		.cfi_def_cfa_offset 8
 604              		.cfi_offset 4, -8
 605              		.cfi_offset 14, -4
 606              		.loc 2 383 0
 607 0004 815C     		ldrb	r1, [r0, r2]
 378:BTHID.c       **** #ifdef DEBUG_USB_HOST
 608              		.loc 2 378 0
 609              		.pad #16
 610 0006 84B0     		sub	sp, sp, #16
 611              		.cfi_def_cfa_offset 24
 378:BTHID.c       **** #ifdef DEBUG_USB_HOST
ARM GAS  C:\Users\jrdia\AppData\Local\Temp\ccYHzYw6.s 			page 32


 612              		.loc 2 378 0
 613 0008 0300     		movs	r3, r0
 614              		.loc 2 383 0
 615 000a 0129     		cmp	r1, #1
 616 000c 10D9     		bls	.L46
 384:BTHID.c       **** #ifdef DEBUG_USB_HOST
 385:BTHID.c       ****                 Notify(PSTR("\r\nNot a valid protocol mode. Using Boot protocol instead."), 0x80);
 386:BTHID.c       **** #endif
 387:BTHID.c       ****                 protocolMode = USB_HID_BOOT_PROTOCOL; // Use Boot Protocol by default
 617              		.loc 2 387 0
 618 000e 0021     		movs	r1, #0
 619 0010 8154     		strb	r1, [r0, r2]
 620 0012 7031     		adds	r1, r1, #112
 621              	.L45:
 388:BTHID.c       ****         }
 389:BTHID.c       ****         uint8_t command = 0x70 | protocolMode; // Set Protocol, see Bluetooth HID specs page 33
 622              		.loc 2 389 0
 623 0014 0F22     		movs	r2, #15
 624 0016 6A44     		add	r2, r2, sp
 625 0018 1170     		strb	r1, [r2]
 390:BTHID.c       ****         pBtd->L2CAP_Command(hci_handle, &command, 1, control_scid[0], control_scid[1]);
 626              		.loc 2 390 0
 627 001a DC7D     		ldrb	r4, [r3, #23]
 628 001c 9989     		ldrh	r1, [r3, #12]
 629 001e 9868     		ldr	r0, [r3, #8]
 630              	.LVL46:
 631 0020 0194     		str	r4, [sp, #4]
 632 0022 9B7D     		ldrb	r3, [r3, #22]
 633              	.LVL47:
 634 0024 0093     		str	r3, [sp]
 635 0026 0123     		movs	r3, #1
 636 0028 FFF7FEFF 		bl	_ZN3BTD13L2CAP_CommandEtPhhhh
 637              	.LVL48:
 391:BTHID.c       **** }
 638              		.loc 2 391 0
 639 002c 04B0     		add	sp, sp, #16
 640              		@ sp needed
 641 002e 10BD     		pop	{r4, pc}
 642              	.LVL49:
 643              	.L46:
 644 0030 4C32     		adds	r2, r2, #76
 645 0032 1143     		orrs	r1, r2
 646 0034 EEE7     		b	.L45
 647              		.cfi_endproc
 648              	.LFE288:
 649              		.fnend
 650              		.size	_ZN5BTHID11setProtocolEv, .-_ZN5BTHID11setProtocolEv
 651 0036 C046     		.section	.text._ZN5BTHID10L2CAP_taskEv,"ax",%progbits
 652              		.align	2
 653              		.global	_ZN5BTHID10L2CAP_taskEv
 654              		.code	16
 655              		.thumb_func
 656              		.type	_ZN5BTHID10L2CAP_taskEv, %function
 657              	_ZN5BTHID10L2CAP_taskEv:
 658              		.fnstart
 659              	.LFB286:
 238:BTHID.c       ****         switch(l2cap_state) {
ARM GAS  C:\Users\jrdia\AppData\Local\Temp\ccYHzYw6.s 			page 33


 660              		.loc 2 238 0
 661              		.cfi_startproc
 662              		@ args = 0, pretend = 0, frame = 0
 663              		@ frame_needed = 0, uses_anonymous_args = 0
 664              	.LVL50:
 239:BTHID.c       ****                         /* These states are used if the HID device is the host */
 665              		.loc 2 239 0
 666 0000 2A23     		movs	r3, #42
 238:BTHID.c       ****         switch(l2cap_state) {
 667              		.loc 2 238 0
 668 0002 70B5     		push	{r4, r5, r6, lr}
 669              		.save {r4, r5, r6, lr}
 670              		.cfi_def_cfa_offset 16
 671              		.cfi_offset 4, -16
 672              		.cfi_offset 5, -12
 673              		.cfi_offset 6, -8
 674              		.cfi_offset 14, -4
 239:BTHID.c       ****                         /* These states are used if the HID device is the host */
 675              		.loc 2 239 0
 676 0004 C35C     		ldrb	r3, [r0, r3]
 238:BTHID.c       ****         switch(l2cap_state) {
 677              		.loc 2 238 0
 678              		.pad #8
 679 0006 82B0     		sub	sp, sp, #8
 680              		.cfi_def_cfa_offset 24
 238:BTHID.c       ****         switch(l2cap_state) {
 681              		.loc 2 238 0
 682 0008 0400     		movs	r4, r0
 239:BTHID.c       ****                         /* These states are used if the HID device is the host */
 683              		.loc 2 239 0
 684 000a 092B     		cmp	r3, #9
 685 000c 21D8     		bhi	.L47
 686 000e 5A4A     		ldr	r2, .L90
 687 0010 9B00     		lsls	r3, r3, #2
 688 0012 D358     		ldr	r3, [r2, r3]
 689 0014 9F46     		mov	pc, r3
 690              		.section	.rodata
 691              		.align	2
 692              	.L50:
 693 0000 52000000 		.word	.L47
 694 0004 52000000 		.word	.L47
 695 0008 7C000000 		.word	.L49
 696 000c 9E000000 		.word	.L51
 697 0010 CE000000 		.word	.L52
 698 0014 E0000000 		.word	.L53
 699 0018 FE000000 		.word	.L54
 700 001c 4A010000 		.word	.L55
 701 0020 16000000 		.word	.L56
 702 0024 56000000 		.word	.L57
 703              		.section	.text._ZN5BTHID10L2CAP_taskEv
 704              	.L56:
 304:BTHID.c       **** #ifdef DEBUG_USB_HOST
 705              		.loc 2 304 0
 706 0016 0369     		ldr	r3, [r0, #16]
 707 0018 9B06     		lsls	r3, r3, #26
 708 001a 1AD5     		bpl	.L47
 308:BTHID.c       ****                                 pBtd->pairWithHIDDevice = false;
ARM GAS  C:\Users\jrdia\AppData\Local\Temp\ccYHzYw6.s 			page 34


 709              		.loc 2 308 0
 710 001c 0022     		movs	r2, #0
 711 001e 4621     		movs	r1, #70
 712 0020 8368     		ldr	r3, [r0, #8]
 713 0022 5A54     		strb	r2, [r3, r1]
 309:BTHID.c       ****                                 connected = true;
 714              		.loc 2 309 0
 715 0024 0231     		adds	r1, r1, #2
 716 0026 5A54     		strb	r2, [r3, r1]
 310:BTHID.c       ****                                 onInit();
 717              		.loc 2 310 0
 718 0028 0123     		movs	r3, #1
 719 002a 4375     		strb	r3, [r0, #21]
 311:BTHID.c       ****                                 l2cap_state = L2CAP_DONE;
 720              		.loc 2 311 0
 721 002c 0368     		ldr	r3, [r0]
 722 002e 5349     		ldr	r1, .L90+4
 723 0030 1A69     		ldr	r2, [r3, #16]
 724 0032 8A42     		cmp	r2, r1
 725 0034 00D0     		beq	.LCB549
 726 0036 9AE0     		b	.L58	@long jump
 727              	.LCB549:
 728              	.LVL51:
 729              	.LBB58:
 730              	.LBB59:
 113:BTHID.h       ****                         pFuncOnInit(); // Call the user function
 731              		.loc 1 113 0
 732 0038 4268     		ldr	r2, [r0, #4]
 733 003a 002A     		cmp	r2, #0
 734 003c 01D0     		beq	.L59
 114:BTHID.h       ****                 OnInitBTHID();
 735              		.loc 1 114 0
 736 003e 9047     		blx	r2
 737              	.LVL52:
 738 0040 2368     		ldr	r3, [r4]
 739              	.L59:
 115:BTHID.h       ****         };
 740              		.loc 1 115 0
 741 0042 9B69     		ldr	r3, [r3, #24]
 742 0044 4E4A     		ldr	r2, .L90+8
 743 0046 9342     		cmp	r3, r2
 744 0048 00D0     		beq	.LCB568
 745 004a 92E0     		b	.L89	@long jump
 746              	.LCB568:
 747              	.LVL53:
 748              	.L60:
 749              	.LBE59:
 750              	.LBE58:
 312:BTHID.c       ****                         }
 751              		.loc 2 312 0
 752 004c 0122     		movs	r2, #1
 753 004e 2A23     		movs	r3, #42
 754 0050 E254     		strb	r2, [r4, r3]
 755              	.L47:
 342:BTHID.c       **** 
 756              		.loc 2 342 0
 757 0052 02B0     		add	sp, sp, #8
ARM GAS  C:\Users\jrdia\AppData\Local\Temp\ccYHzYw6.s 			page 35


 758              		@ sp needed
 759              	.LVL54:
 760 0054 70BD     		pop	{r4, r5, r6, pc}
 761              	.LVL55:
 762              	.L57:
 320:BTHID.c       **** #ifdef DEBUG_USB_HOST
 763              		.loc 2 320 0
 764 0056 0369     		ldr	r3, [r0, #16]
 765 0058 1B06     		lsls	r3, r3, #24
 766 005a FAD5     		bpl	.L47
 325:BTHID.c       ****                                 l2cap_state = L2CAP_CONTROL_DISCONNECT;
 767              		.loc 2 325 0
 768 005c 0300     		movs	r3, r0
 324:BTHID.c       ****                                 pBtd->l2cap_disconnection_request(hci_handle, identifier, control_s
 769              		.loc 2 324 0
 770 005e 027D     		ldrb	r2, [r0, #20]
 325:BTHID.c       ****                                 l2cap_state = L2CAP_CONTROL_DISCONNECT;
 771              		.loc 2 325 0
 772 0060 8189     		ldrh	r1, [r0, #12]
 324:BTHID.c       ****                                 pBtd->l2cap_disconnection_request(hci_handle, identifier, control_s
 773              		.loc 2 324 0
 774 0062 0132     		adds	r2, r2, #1
 775 0064 D2B2     		uxtb	r2, r2
 776 0066 0275     		strb	r2, [r0, #20]
 325:BTHID.c       ****                                 l2cap_state = L2CAP_CONTROL_DISCONNECT;
 777              		.loc 2 325 0
 778 0068 2630     		adds	r0, r0, #38
 779              	.LVL56:
 780 006a 1633     		adds	r3, r3, #22
 781 006c 0090     		str	r0, [sp]
 782 006e A068     		ldr	r0, [r4, #8]
 783 0070 FFF7FEFF 		bl	_ZN3BTD27l2cap_disconnection_requestEthPhS0_
 784              	.LVL57:
 326:BTHID.c       ****                         }
 785              		.loc 2 326 0
 786 0074 0522     		movs	r2, #5
 787 0076 2A23     		movs	r3, #42
 788 0078 E254     		strb	r2, [r4, r3]
 789 007a EAE7     		b	.L47
 790              	.LVL58:
 791              	.L49:
 269:BTHID.c       **** #ifdef DEBUG_USB_HOST
 792              		.loc 2 269 0
 793 007c 0369     		ldr	r3, [r0, #16]
 794 007e 5B07     		lsls	r3, r3, #29
 795 0080 E7D5     		bpl	.L47
 274:BTHID.c       ****                                 l2cap_state = L2CAP_CONTROL_CONFIG_REQUEST;
 796              		.loc 2 274 0
 797 0082 0300     		movs	r3, r0
 273:BTHID.c       ****                                 pBtd->l2cap_config_request(hci_handle, identifier, control_scid);
 798              		.loc 2 273 0
 799 0084 027D     		ldrb	r2, [r0, #20]
 274:BTHID.c       ****                                 l2cap_state = L2CAP_CONTROL_CONFIG_REQUEST;
 800              		.loc 2 274 0
 801 0086 1633     		adds	r3, r3, #22
 273:BTHID.c       ****                                 pBtd->l2cap_config_request(hci_handle, identifier, control_scid);
 802              		.loc 2 273 0
ARM GAS  C:\Users\jrdia\AppData\Local\Temp\ccYHzYw6.s 			page 36


 803 0088 0132     		adds	r2, r2, #1
 804 008a D2B2     		uxtb	r2, r2
 805 008c 0275     		strb	r2, [r0, #20]
 274:BTHID.c       ****                                 l2cap_state = L2CAP_CONTROL_CONFIG_REQUEST;
 806              		.loc 2 274 0
 807 008e 8189     		ldrh	r1, [r0, #12]
 808 0090 8068     		ldr	r0, [r0, #8]
 809              	.LVL59:
 810 0092 FFF7FEFF 		bl	_ZN3BTD20l2cap_config_requestEthPh
 811              	.LVL60:
 275:BTHID.c       ****                         }
 812              		.loc 2 275 0
 813 0096 0322     		movs	r2, #3
 814 0098 2A23     		movs	r3, #42
 815 009a E254     		strb	r2, [r4, r3]
 816 009c D9E7     		b	.L47
 817              	.LVL61:
 818              	.L51:
 280:BTHID.c       ****                                 setProtocol(); // Set protocol before establishing HID interrupt ch
 819              		.loc 2 280 0
 820 009e 0369     		ldr	r3, [r0, #16]
 821 00a0 9B07     		lsls	r3, r3, #30
 822 00a2 D6D5     		bpl	.L47
 281:BTHID.c       ****                                 delay(1); // Short delay between commands - just to be sure
 823              		.loc 2 281 0
 824 00a4 FFF7FEFF 		bl	_ZN5BTHID11setProtocolEv
 825              	.LVL62:
 282:BTHID.c       **** #ifdef DEBUG_USB_HOST
 826              		.loc 2 282 0
 827 00a8 0120     		movs	r0, #1
 828 00aa FFF7FEFF 		bl	delay
 829              	.LVL63:
 287:BTHID.c       ****                                 l2cap_state = L2CAP_INTERRUPT_CONNECT_REQUEST;
 830              		.loc 2 287 0
 831 00ae 1320     		movs	r0, #19
 832 00b0 2300     		movs	r3, r4
 286:BTHID.c       ****                                 pBtd->l2cap_connection_request(hci_handle, identifier, interrupt_dc
 833              		.loc 2 286 0
 834 00b2 227D     		ldrb	r2, [r4, #20]
 287:BTHID.c       ****                                 l2cap_state = L2CAP_INTERRUPT_CONNECT_REQUEST;
 835              		.loc 2 287 0
 836 00b4 2833     		adds	r3, r3, #40
 286:BTHID.c       ****                                 pBtd->l2cap_connection_request(hci_handle, identifier, interrupt_dc
 837              		.loc 2 286 0
 838 00b6 0132     		adds	r2, r2, #1
 839 00b8 D2B2     		uxtb	r2, r2
 840 00ba 2275     		strb	r2, [r4, #20]
 287:BTHID.c       ****                                 l2cap_state = L2CAP_INTERRUPT_CONNECT_REQUEST;
 841              		.loc 2 287 0
 842 00bc 0090     		str	r0, [sp]
 843 00be A189     		ldrh	r1, [r4, #12]
 844 00c0 A068     		ldr	r0, [r4, #8]
 845 00c2 FFF7FEFF 		bl	_ZN3BTD24l2cap_connection_requestEthPht
 846              	.LVL64:
 288:BTHID.c       ****                         }
 847              		.loc 2 288 0
 848 00c6 0722     		movs	r2, #7
ARM GAS  C:\Users\jrdia\AppData\Local\Temp\ccYHzYw6.s 			page 37


 849 00c8 2A23     		movs	r3, #42
 850 00ca E254     		strb	r2, [r4, r3]
 851 00cc C1E7     		b	.L47
 852              	.LVL65:
 853              	.L52:
 242:BTHID.c       **** #ifdef DEBUG_USB_HOST
 854              		.loc 2 242 0
 855 00ce 0369     		ldr	r3, [r0, #16]
 856 00d0 9B07     		lsls	r3, r3, #30
 857 00d2 BED5     		bpl	.L47
 246:BTHID.c       ****                                 l2cap_state = L2CAP_INTERRUPT_SETUP;
 858              		.loc 2 246 0
 859 00d4 FFF7FEFF 		bl	_ZN5BTHID11setProtocolEv
 860              	.LVL66:
 247:BTHID.c       ****                         }
 861              		.loc 2 247 0
 862 00d8 0622     		movs	r2, #6
 863 00da 2A23     		movs	r3, #42
 864 00dc E254     		strb	r2, [r4, r3]
 865 00de B8E7     		b	.L47
 866              	.LVL67:
 867              	.L53:
 331:BTHID.c       **** #ifdef DEBUG_USB_HOST
 868              		.loc 2 331 0
 869 00e0 0369     		ldr	r3, [r0, #16]
 870 00e2 1B07     		lsls	r3, r3, #28
 871 00e4 B5D5     		bpl	.L47
 335:BTHID.c       ****                                 hci_handle = -1; // Reset handle
 872              		.loc 2 335 0
 873 00e6 8189     		ldrh	r1, [r0, #12]
 874 00e8 8068     		ldr	r0, [r0, #8]
 875              	.LVL68:
 876 00ea FFF7FEFF 		bl	_ZN3BTD14hci_disconnectEt
 877              	.LVL69:
 336:BTHID.c       ****                                 l2cap_event_flag = 0; // Reset flags
 878              		.loc 2 336 0
 879 00ee 0123     		movs	r3, #1
 880 00f0 5B42     		rsbs	r3, r3, #0
 881 00f2 A381     		strh	r3, [r4, #12]
 338:BTHID.c       ****                         }
 882              		.loc 2 338 0
 883 00f4 2A22     		movs	r2, #42
 337:BTHID.c       ****                                 l2cap_state = L2CAP_WAIT;
 884              		.loc 2 337 0
 885 00f6 0023     		movs	r3, #0
 886 00f8 2361     		str	r3, [r4, #16]
 338:BTHID.c       ****                         }
 887              		.loc 2 338 0
 888 00fa A354     		strb	r3, [r4, r2]
 342:BTHID.c       **** 
 889              		.loc 2 342 0
 890 00fc A9E7     		b	.L47
 891              	.LVL70:
 892              	.L54:
 252:BTHID.c       **** #ifdef DEBUG_USB_HOST
 893              		.loc 2 252 0
 894 00fe 0369     		ldr	r3, [r0, #16]
ARM GAS  C:\Users\jrdia\AppData\Local\Temp\ccYHzYw6.s 			page 38


 895 0100 DB06     		lsls	r3, r3, #27
 896 0102 A6D5     		bpl	.L47
 256:BTHID.c       ****                                 delay(1);
 897              		.loc 2 256 0
 898 0104 0500     		movs	r5, r0
 899 0106 0600     		movs	r6, r0
 900 0108 0123     		movs	r3, #1
 901 010a 1835     		adds	r5, r5, #24
 902 010c 027D     		ldrb	r2, [r0, #20]
 903 010e 8189     		ldrh	r1, [r0, #12]
 904 0110 2836     		adds	r6, r6, #40
 905 0112 0193     		str	r3, [sp, #4]
 906 0114 0095     		str	r5, [sp]
 907 0116 3300     		movs	r3, r6
 908 0118 8068     		ldr	r0, [r0, #8]
 909              	.LVL71:
 910 011a FFF7FEFF 		bl	_ZN3BTD25l2cap_connection_responseEthPhS0_h
 911              	.LVL72:
 257:BTHID.c       ****                                 pBtd->l2cap_connection_response(hci_handle, identifier, interrupt_d
 912              		.loc 2 257 0
 913 011e 0120     		movs	r0, #1
 914 0120 FFF7FEFF 		bl	delay
 915              	.LVL73:
 258:BTHID.c       ****                                 identifier++;
 916              		.loc 2 258 0
 917 0124 0023     		movs	r3, #0
 918 0126 227D     		ldrb	r2, [r4, #20]
 919 0128 A189     		ldrh	r1, [r4, #12]
 920 012a 0193     		str	r3, [sp, #4]
 921 012c A068     		ldr	r0, [r4, #8]
 922 012e 3300     		movs	r3, r6
 923 0130 0095     		str	r5, [sp]
 924 0132 FFF7FEFF 		bl	_ZN3BTD25l2cap_connection_responseEthPhS0_h
 925              	.LVL74:
 259:BTHID.c       ****                                 delay(1);
 926              		.loc 2 259 0
 927 0136 237D     		ldrb	r3, [r4, #20]
 260:BTHID.c       ****                                 pBtd->l2cap_config_request(hci_handle, identifier, interrupt_scid);
 928              		.loc 2 260 0
 929 0138 0120     		movs	r0, #1
 259:BTHID.c       ****                                 delay(1);
 930              		.loc 2 259 0
 931 013a 0133     		adds	r3, r3, #1
 932 013c 2375     		strb	r3, [r4, #20]
 260:BTHID.c       ****                                 pBtd->l2cap_config_request(hci_handle, identifier, interrupt_scid);
 933              		.loc 2 260 0
 934 013e FFF7FEFF 		bl	delay
 935              	.LVL75:
 261:BTHID.c       **** 
 936              		.loc 2 261 0
 937 0142 227D     		ldrb	r2, [r4, #20]
 938 0144 A189     		ldrh	r1, [r4, #12]
 939 0146 2B00     		movs	r3, r5
 940 0148 0AE0     		b	.L88
 941              	.LVL76:
 942              	.L55:
 293:BTHID.c       **** #ifdef DEBUG_USB_HOST
ARM GAS  C:\Users\jrdia\AppData\Local\Temp\ccYHzYw6.s 			page 39


 943              		.loc 2 293 0
 944 014a 0369     		ldr	r3, [r0, #16]
 945 014c 5B06     		lsls	r3, r3, #25
 946 014e 00D4     		bmi	.LCB774
 947 0150 7FE7     		b	.L47	@long jump
 948              	.LCB774:
 298:BTHID.c       ****                                 l2cap_state = L2CAP_INTERRUPT_CONFIG_REQUEST;
 949              		.loc 2 298 0
 950 0152 0300     		movs	r3, r0
 297:BTHID.c       ****                                 pBtd->l2cap_config_request(hci_handle, identifier, interrupt_scid);
 951              		.loc 2 297 0
 952 0154 027D     		ldrb	r2, [r0, #20]
 298:BTHID.c       ****                                 l2cap_state = L2CAP_INTERRUPT_CONFIG_REQUEST;
 953              		.loc 2 298 0
 954 0156 8189     		ldrh	r1, [r0, #12]
 297:BTHID.c       ****                                 pBtd->l2cap_config_request(hci_handle, identifier, interrupt_scid);
 955              		.loc 2 297 0
 956 0158 0132     		adds	r2, r2, #1
 957 015a D2B2     		uxtb	r2, r2
 958 015c 0275     		strb	r2, [r0, #20]
 298:BTHID.c       ****                                 l2cap_state = L2CAP_INTERRUPT_CONFIG_REQUEST;
 959              		.loc 2 298 0
 960 015e 1833     		adds	r3, r3, #24
 961              	.LVL77:
 962              	.L88:
 963 0160 A068     		ldr	r0, [r4, #8]
 964 0162 FFF7FEFF 		bl	_ZN3BTD20l2cap_config_requestEthPh
 965              	.LVL78:
 299:BTHID.c       ****                         }
 966              		.loc 2 299 0
 967 0166 0822     		movs	r2, #8
 968 0168 2A23     		movs	r3, #42
 969 016a E254     		strb	r2, [r4, r3]
 970 016c 71E7     		b	.L47
 971              	.LVL79:
 972              	.L58:
 311:BTHID.c       ****                                 l2cap_state = L2CAP_DONE;
 973              		.loc 2 311 0
 974 016e 9047     		blx	r2
 975              	.LVL80:
 976 0170 6CE7     		b	.L60
 977              	.LVL81:
 978              	.L89:
 979              	.LBB61:
 980              	.LBB60:
 115:BTHID.h       ****         };
 981              		.loc 1 115 0
 982 0172 2000     		movs	r0, r4
 983 0174 9847     		blx	r3
 984              	.LVL82:
 985 0176 69E7     		b	.L60
 986              	.L91:
 987              		.align	2
 988              	.L90:
 989 0178 00000000 		.word	.L50
 990 017c 00000000 		.word	_ZN5BTHID6onInitEv
 991 0180 00000000 		.word	_ZN5BTHID11OnInitBTHIDEv
ARM GAS  C:\Users\jrdia\AppData\Local\Temp\ccYHzYw6.s 			page 40


 992              	.LBE60:
 993              	.LBE61:
 994              		.cfi_endproc
 995              	.LFE286:
 996              		.fnend
 997              		.size	_ZN5BTHID10L2CAP_taskEv, .-_ZN5BTHID10L2CAP_taskEv
 998              		.section	.text._ZN5BTHID7ACLDataEPh,"ax",%progbits
 999              		.align	2
 1000              		.global	_ZN5BTHID7ACLDataEPh
 1001              		.code	16
 1002              		.thumb_func
 1003              		.type	_ZN5BTHID7ACLDataEPh, %function
 1004              	_ZN5BTHID7ACLDataEPh:
 1005              		.fnstart
 1006              	.LFB285:
  56:BTHID.c       ****         if(!pBtd->l2capConnectionClaimed && pBtd->incomingHIDDevice && !connected && !activeConnect
 1007              		.loc 2 56 0
 1008              		.cfi_startproc
 1009              		@ args = 0, pretend = 0, frame = 0
 1010              		@ frame_needed = 0, uses_anonymous_args = 0
 1011              	.LVL83:
 1012 0000 F0B5     		push	{r4, r5, r6, r7, lr}
 1013              		.save {r4, r5, r6, r7, lr}
 1014              		.cfi_def_cfa_offset 20
 1015              		.cfi_offset 4, -20
 1016              		.cfi_offset 5, -16
 1017              		.cfi_offset 6, -12
 1018              		.cfi_offset 7, -8
 1019              		.cfi_offset 14, -4
 1020 0002 0400     		movs	r4, r0
  57:BTHID.c       ****                 if(l2capinbuf[8] == L2CAP_CMD_CONNECTION_REQUEST) {
 1021              		.loc 2 57 0
 1022 0004 8068     		ldr	r0, [r0, #8]
 1023              	.LVL84:
  56:BTHID.c       ****         if(!pBtd->l2capConnectionClaimed && pBtd->incomingHIDDevice && !connected && !activeConnect
 1024              		.loc 2 56 0
 1025              		.pad #12
 1026 0006 83B0     		sub	sp, sp, #12
 1027              		.cfi_def_cfa_offset 32
  57:BTHID.c       ****                 if(l2capinbuf[8] == L2CAP_CMD_CONNECTION_REQUEST) {
 1028              		.loc 2 57 0
 1029 0008 437A     		ldrb	r3, [r0, #9]
  56:BTHID.c       ****         if(!pBtd->l2capConnectionClaimed && pBtd->incomingHIDDevice && !connected && !activeConnect
 1030              		.loc 2 56 0
 1031 000a 0D00     		movs	r5, r1
  57:BTHID.c       ****                 if(l2capinbuf[8] == L2CAP_CMD_CONNECTION_REQUEST) {
 1032              		.loc 2 57 0
 1033 000c 002B     		cmp	r3, #0
 1034 000e 03D1     		bne	.L95
  57:BTHID.c       ****                 if(l2capinbuf[8] == L2CAP_CMD_CONNECTION_REQUEST) {
 1035              		.loc 2 57 0 is_stmt 0 discriminator 1
 1036 0010 4723     		movs	r3, #71
 1037 0012 C25C     		ldrb	r2, [r0, r3]
 1038 0014 002A     		cmp	r2, #0
 1039 0016 06D1     		bne	.L131
 1040              	.LVL85:
 1041              	.L95:
ARM GAS  C:\Users\jrdia\AppData\Local\Temp\ccYHzYw6.s 			page 41


 1042 0018 A189     		ldrh	r1, [r4, #12]
 1043              	.L94:
 1044              	.LVL86:
 1045              	.LBB72:
 1046              	.LBB73:
 1047              	.LBB74:
 570:BTD.h         ****                         pBtd->registerBluetoothService(this); // Register it as a Bluetooth service
 571:BTD.h         ****         };
 572:BTD.h         ****         /**
 573:BTD.h         ****          * Used to pass acldata to the Bluetooth service.
 574:BTD.h         ****          * @param ACLData Pointer to the incoming acldata.
 575:BTD.h         ****          */
 576:BTD.h         ****         virtual void ACLData(uint8_t* ACLData) = 0;
 577:BTD.h         ****         /** Used to run the different state machines in the Bluetooth service. */
 578:BTD.h         ****         virtual void Run() = 0;
 579:BTD.h         ****         /** Used to reset the Bluetooth service. */
 580:BTD.h         ****         virtual void Reset() = 0;
 581:BTD.h         ****         /** Used to disconnect both the L2CAP Channel and the HCI Connection for the Bluetooth serv
 582:BTD.h         ****         virtual void disconnect() = 0;
 583:BTD.h         **** 
 584:BTD.h         ****         /**
 585:BTD.h         ****          * Used to call your own function when the device is successfully initialized.
 586:BTD.h         ****          * @param funcOnInit Function to call.
 587:BTD.h         ****          */
 588:BTD.h         ****         void attachOnInit(void (*funcOnInit)(void)) {
 589:BTD.h         ****                 pFuncOnInit = funcOnInit; // TODO: This really belong in a class of it's own as it 
 590:BTD.h         ****         };
 591:BTD.h         **** 
 592:BTD.h         **** protected:
 593:BTD.h         ****         /**
 594:BTD.h         ****          * Called when a device is successfully initialized.
 595:BTD.h         ****          * Use attachOnInit(void (*funcOnInit)(void)) to call your own function.
 596:BTD.h         ****          * This is useful for instance if you want to set the LEDs in a specific way.
 597:BTD.h         ****          */
 598:BTD.h         ****         virtual void onInit() = 0;
 599:BTD.h         **** 
 600:BTD.h         ****         /** Used to check if the incoming L2CAP data matches the HCI Handle */
 601:BTD.h         ****         bool checkHciHandle(uint8_t *buf, uint16_t handle) {
 602:BTD.h         ****                 return (buf[0] == (handle & 0xFF)) && (buf[1] == ((handle >> 8) | 0x20));
 1048              		.loc 3 602 0 is_stmt 1
 1049 001a 2B78     		ldrb	r3, [r5]
 1050 001c CAB2     		uxtb	r2, r1
 1051 001e 9A42     		cmp	r2, r3
 1052 0020 1AD0     		beq	.L132
 1053              	.LVL87:
 1054              	.L92:
 1055              	.LBE74:
 1056              	.LBE73:
 1057              	.LBE72:
 236:BTHID.c       **** 
 1058              		.loc 2 236 0
 1059 0022 03B0     		add	sp, sp, #12
 1060              		@ sp needed
 1061              	.LVL88:
 1062 0024 F0BD     		pop	{r4, r5, r6, r7, pc}
 1063              	.LVL89:
 1064              	.L131:
ARM GAS  C:\Users\jrdia\AppData\Local\Temp\ccYHzYw6.s 			page 42


  57:BTHID.c       ****                 if(l2capinbuf[8] == L2CAP_CMD_CONNECTION_REQUEST) {
 1065              		.loc 2 57 0 discriminator 2
 1066 0026 627D     		ldrb	r2, [r4, #21]
 1067 0028 002A     		cmp	r2, #0
 1068 002a F5D1     		bne	.L95
  57:BTHID.c       ****                 if(l2capinbuf[8] == L2CAP_CMD_CONNECTION_REQUEST) {
 1069              		.loc 2 57 0 is_stmt 0 discriminator 3
 1070 002c 2521     		movs	r1, #37
 1071              	.LVL90:
 1072 002e 625C     		ldrb	r2, [r4, r1]
 1073 0030 002A     		cmp	r2, #0
 1074 0032 F1D1     		bne	.L95
  58:BTHID.c       ****                         if((l2capinbuf[12] | (l2capinbuf[13] << 8)) == HID_CTRL_PSM) {
 1075              		.loc 2 58 0 is_stmt 1
 1076 0034 2E7A     		ldrb	r6, [r5, #8]
 1077 0036 022E     		cmp	r6, #2
 1078 0038 EED1     		bne	.L95
 1079 003a 6E7B     		ldrb	r6, [r5, #13]
 1080 003c 2F7B     		ldrb	r7, [r5, #12]
 1081 003e 3602     		lsls	r6, r6, #8
  59:BTHID.c       ****                                 pBtd->incomingHIDDevice = false;
 1082              		.loc 2 59 0
 1083 0040 3E43     		orrs	r6, r7
 1084 0042 112E     		cmp	r6, #17
 1085 0044 E8D1     		bne	.L95
  60:BTHID.c       ****                                 pBtd->l2capConnectionClaimed = true; // Claim that the incoming con
 1086              		.loc 2 60 0
 1087 0046 C254     		strb	r2, [r0, r3]
  61:BTHID.c       ****                                 activeConnection = true;
 1088              		.loc 2 61 0
 1089 0048 463B     		subs	r3, r3, #70
 1090 004a 4372     		strb	r3, [r0, #9]
  62:BTHID.c       ****                                 hci_handle = pBtd->hci_handle; // Store the HCI Handle for the conn
 1091              		.loc 2 62 0
 1092 004c 6354     		strb	r3, [r4, r1]
  63:BTHID.c       ****                                 l2cap_state = L2CAP_WAIT;
 1093              		.loc 2 63 0
 1094 004e 418B     		ldrh	r1, [r0, #26]
  64:BTHID.c       ****                         }
 1095              		.loc 2 64 0
 1096 0050 2933     		adds	r3, r3, #41
  63:BTHID.c       ****                                 l2cap_state = L2CAP_WAIT;
 1097              		.loc 2 63 0
 1098 0052 A181     		strh	r1, [r4, #12]
  64:BTHID.c       ****                         }
 1099              		.loc 2 64 0
 1100 0054 E254     		strb	r2, [r4, r3]
 1101 0056 E0E7     		b	.L94
 1102              	.LVL91:
 1103              	.L132:
 1104              	.LBB88:
 1105              	.LBB76:
 1106              	.LBB75:
 1107              		.loc 3 602 0
 1108 0058 2023     		movs	r3, #32
 1109 005a 6A78     		ldrb	r2, [r5, #1]
 1110 005c 0E12     		asrs	r6, r1, #8
ARM GAS  C:\Users\jrdia\AppData\Local\Temp\ccYHzYw6.s 			page 43


 1111 005e 3343     		orrs	r3, r6
 1112 0060 9A42     		cmp	r2, r3
 1113 0062 DED1     		bne	.L92
 1114              	.LVL92:
 1115              	.LBE75:
 1116              	.LBE76:
 1117              	.LBB77:
 1118              	.LBB78:
  70:BTHID.c       ****                         if(l2capinbuf[8] == L2CAP_CMD_COMMAND_REJECT) {
 1119              		.loc 2 70 0
 1120 0064 EE79     		ldrb	r6, [r5, #7]
 1121 0066 AA79     		ldrb	r2, [r5, #6]
 1122 0068 3302     		lsls	r3, r6, #8
 1123 006a 1343     		orrs	r3, r2
 1124 006c 012B     		cmp	r3, #1
 1125 006e 07D0     		beq	.L133
 1126              	.LBB79:
 180:BTHID.c       **** #ifdef PRINTREPORT
 1127              		.loc 2 180 0
 1128 0070 2823     		movs	r3, #40
 1129 0072 E35C     		ldrb	r3, [r4, r3]
 1130 0074 9342     		cmp	r3, r2
 1131 0076 28D0     		beq	.L134
 1132              	.LVL93:
 1133              	.L99:
 1134              	.LBE79:
 1135              	.LBE78:
 234:BTHID.c       ****         }
 1136              		.loc 2 234 0
 1137 0078 2000     		movs	r0, r4
 1138 007a FFF7FEFF 		bl	_ZN5BTHID10L2CAP_taskEv
 1139              	.LVL94:
 1140              	.LBE77:
 1141              	.LBE88:
 236:BTHID.c       **** 
 1142              		.loc 2 236 0
 1143 007e D0E7     		b	.L92
 1144              	.LVL95:
 1145              	.L133:
 1146              	.LBB89:
 1147              	.LBB87:
 1148              	.LBB86:
  71:BTHID.c       **** #ifdef DEBUG_USB_HOST
 1149              		.loc 2 71 0
 1150 0080 2A7A     		ldrb	r2, [r5, #8]
 1151 0082 012A     		cmp	r2, #1
 1152 0084 F8D0     		beq	.L99
  86:BTHID.c       ****                                 if(((l2capinbuf[16] | (l2capinbuf[17] << 8)) == 0x0000) && ((l2capi
 1153              		.loc 2 86 0
 1154 0086 032A     		cmp	r2, #3
 1155 0088 5BD0     		beq	.L135
 102:BTHID.c       **** #ifdef EXTRADEBUG
 1156              		.loc 2 102 0
 1157 008a 022A     		cmp	r2, #2
 1158 008c 00D1     		bne	.LCB981
 1159 008e 7DE0     		b	.L136	@long jump
 1160              	.LCB981:
ARM GAS  C:\Users\jrdia\AppData\Local\Temp\ccYHzYw6.s 			page 44


 126:BTHID.c       ****                                 if((l2capinbuf[16] | (l2capinbuf[17] << 8)) == 0x0000) { // Success
 1161              		.loc 2 126 0
 1162 0090 052A     		cmp	r2, #5
 1163 0092 3BD0     		beq	.L137
 138:BTHID.c       ****                                 if(l2capinbuf[12] == control_dcid[0] && l2capinbuf[13] == control_d
 1164              		.loc 2 138 0
 1165 0094 042A     		cmp	r2, #4
 1166 0096 00D1     		bne	.LCB985
 1167 0098 8CE0     		b	.L138	@long jump
 1168              	.LCB985:
 146:BTHID.c       ****                                 if(l2capinbuf[12] == control_dcid[0] && l2capinbuf[13] == control_d
 1169              		.loc 2 146 0
 1170 009a 062A     		cmp	r2, #6
 1171 009c 00D1     		bne	.LCB987
 1172 009e 9FE0     		b	.L139	@long jump
 1173              	.LCB987:
 162:BTHID.c       ****                                 if(l2capinbuf[12] == control_scid[0] && l2capinbuf[13] == control_s
 1174              		.loc 2 162 0
 1175 00a0 072A     		cmp	r2, #7
 1176 00a2 E9D1     		bne	.L99
 163:BTHID.c       ****                                         //Notify(PSTR("\r\nDisconnect Response: Control Channel"), 
 1177              		.loc 2 163 0
 1178 00a4 2B7B     		ldrb	r3, [r5, #12]
 1179 00a6 A27D     		ldrb	r2, [r4, #22]
 1180 00a8 9A42     		cmp	r2, r3
 1181 00aa 00D1     		bne	.LCB993
 1182 00ac F2E0     		b	.L140	@long jump
 1183              	.LCB993:
 1184              	.L111:
 167:BTHID.c       ****                                         //Notify(PSTR("\r\nDisconnect Response: Interrupt Channel")
 1185              		.loc 2 167 0
 1186 00ae 227E     		ldrb	r2, [r4, #24]
 1187 00b0 9A42     		cmp	r2, r3
 1188 00b2 E1D1     		bne	.L99
 167:BTHID.c       ****                                         //Notify(PSTR("\r\nDisconnect Response: Interrupt Channel")
 1189              		.loc 2 167 0 is_stmt 0 discriminator 1
 1190 00b4 6A7B     		ldrb	r2, [r5, #13]
 1191 00b6 637E     		ldrb	r3, [r4, #25]
 1192 00b8 9A42     		cmp	r2, r3
 1193 00ba DDD1     		bne	.L99
 169:BTHID.c       ****                                         l2cap_set_flag(L2CAP_FLAG_DISCONNECT_INTERRUPT_RESPONSE);
 1194              		.loc 2 169 0 is_stmt 1
 1195 00bc 6B7A     		ldrb	r3, [r5, #9]
 170:BTHID.c       ****                                 }
 1196              		.loc 2 170 0
 1197 00be 2269     		ldr	r2, [r4, #16]
 169:BTHID.c       ****                                         l2cap_set_flag(L2CAP_FLAG_DISCONNECT_INTERRUPT_RESPONSE);
 1198              		.loc 2 169 0
 1199 00c0 2375     		strb	r3, [r4, #20]
 170:BTHID.c       ****                                 }
 1200              		.loc 2 170 0
 1201 00c2 8023     		movs	r3, #128
 1202 00c4 1343     		orrs	r3, r2
 1203 00c6 2361     		str	r3, [r4, #16]
 1204 00c8 D6E7     		b	.L99
 1205              	.L134:
 1206              	.LBB84:
ARM GAS  C:\Users\jrdia\AppData\Local\Temp\ccYHzYw6.s 			page 45


 180:BTHID.c       **** #ifdef PRINTREPORT
 1207              		.loc 2 180 0 discriminator 1
 1208 00ca 2923     		movs	r3, #41
 1209 00cc E35C     		ldrb	r3, [r4, r3]
 1210 00ce B342     		cmp	r3, r6
 1211 00d0 D2D1     		bne	.L99
 1212              	.LBB80:
 188:BTHID.c       ****                                 uint16_t length = ((uint16_t)l2capinbuf[5] << 8 | l2capinbuf[4]);
 1213              		.loc 2 188 0
 1214 00d2 2B7A     		ldrb	r3, [r5, #8]
 1215 00d4 A12B     		cmp	r3, #161
 1216 00d6 CFD1     		bne	.L99
 1217              	.LVL96:
 1218              	.LBB81:
 190:BTHID.c       **** 
 1219              		.loc 2 190 0
 1220 00d8 2368     		ldr	r3, [r4]
 1221 00da 7A4A     		ldr	r2, .L147
 1222 00dc 5B69     		ldr	r3, [r3, #20]
 1223 00de 2E79     		ldrb	r6, [r5, #4]
 1224 00e0 9342     		cmp	r3, r2
 1225 00e2 00D0     		beq	.LCB1037
 1226 00e4 E7E0     		b	.L141	@long jump
 1227              	.LCB1037:
 1228              	.LVL97:
 1229              	.L112:
 192:BTHID.c       ****                                         case 0x01: // Keyboard or Joystick events
 1230              		.loc 2 192 0
 1231 00e6 6B7A     		ldrb	r3, [r5, #9]
 1232 00e8 012B     		cmp	r3, #1
 1233 00ea 00D1     		bne	.LCB1044
 1234 00ec DEE0     		b	.L113	@long jump
 1235              	.LCB1044:
 1236 00ee 022B     		cmp	r3, #2
 1237 00f0 C2D1     		bne	.L99
 199:BTHID.c       ****                                                         pRptParser[MOUSE_PARSER_ID]->Parse(reinterp
 1238              		.loc 2 199 0
 1239 00f2 206A     		ldr	r0, [r4, #32]
 1240 00f4 0028     		cmp	r0, #0
 1241 00f6 BFD0     		beq	.L99
 1242              	.L128:
 200:BTHID.c       ****                                                 break;
 1243              		.loc 2 200 0
 1244 00f8 0268     		ldr	r2, [r0]
 1245 00fa 0A35     		adds	r5, r5, #10
 1246              	.LVL98:
 1247 00fc B31E     		subs	r3, r6, #2
 1248 00fe 0095     		str	r5, [sp]
 1249 0100 1568     		ldr	r5, [r2]
 1250              	.LVL99:
 1251 0102 DBB2     		uxtb	r3, r3
 1252 0104 0022     		movs	r2, #0
 1253 0106 2100     		movs	r1, r4
 1254 0108 A847     		blx	r5
 1255              	.LVL100:
 1256 010a B5E7     		b	.L99
 1257              	.LVL101:
ARM GAS  C:\Users\jrdia\AppData\Local\Temp\ccYHzYw6.s 			page 46


 1258              	.L137:
 1259 010c 6B7C     		ldrb	r3, [r5, #17]
 1260 010e 2A7C     		ldrb	r2, [r5, #16]
 1261 0110 1B02     		lsls	r3, r3, #8
 1262              	.LBE81:
 1263              	.LBE80:
 1264              	.LBE84:
 127:BTHID.c       ****                                         if(l2capinbuf[12] == control_dcid[0] && l2capinbuf[13] == c
 1265              		.loc 2 127 0
 1266 0112 1343     		orrs	r3, r2
 1267 0114 B0D1     		bne	.L99
 128:BTHID.c       ****                                                 //Notify(PSTR("\r\nHID Control Configuration Comple
 1268              		.loc 2 128 0
 1269 0116 2622     		movs	r2, #38
 1270 0118 2B7B     		ldrb	r3, [r5, #12]
 1271 011a A25C     		ldrb	r2, [r4, r2]
 1272 011c 9A42     		cmp	r2, r3
 1273 011e 00D1     		bne	.LCB1088
 1274 0120 9AE0     		b	.L142	@long jump
 1275              	.LCB1088:
 1276              	.L106:
 132:BTHID.c       ****                                                 //Notify(PSTR("\r\nHID Interrupt Configuration Comp
 1277              		.loc 2 132 0
 1278 0122 2822     		movs	r2, #40
 1279 0124 A25C     		ldrb	r2, [r4, r2]
 1280 0126 9A42     		cmp	r2, r3
 1281 0128 A6D1     		bne	.L99
 132:BTHID.c       ****                                                 //Notify(PSTR("\r\nHID Interrupt Configuration Comp
 1282              		.loc 2 132 0 is_stmt 0 discriminator 1
 1283 012a 2923     		movs	r3, #41
 1284 012c 6A7B     		ldrb	r2, [r5, #13]
 1285 012e E35C     		ldrb	r3, [r4, r3]
 1286 0130 9A42     		cmp	r2, r3
 1287 0132 A1D1     		bne	.L99
 134:BTHID.c       ****                                                 l2cap_set_flag(L2CAP_FLAG_CONFIG_INTERRUPT_SUCCESS)
 1288              		.loc 2 134 0 is_stmt 1
 1289 0134 6B7A     		ldrb	r3, [r5, #9]
 135:BTHID.c       ****                                         }
 1290              		.loc 2 135 0
 1291 0136 2269     		ldr	r2, [r4, #16]
 134:BTHID.c       ****                                                 l2cap_set_flag(L2CAP_FLAG_CONFIG_INTERRUPT_SUCCESS)
 1292              		.loc 2 134 0
 1293 0138 2375     		strb	r3, [r4, #20]
 135:BTHID.c       ****                                         }
 1294              		.loc 2 135 0
 1295 013a 2023     		movs	r3, #32
 1296 013c 1343     		orrs	r3, r2
 1297 013e 2361     		str	r3, [r4, #16]
 1298 0140 9AE7     		b	.L99
 1299              	.L135:
 1300 0142 6B7C     		ldrb	r3, [r5, #17]
 1301 0144 2A7C     		ldrb	r2, [r5, #16]
 1302 0146 1B02     		lsls	r3, r3, #8
  87:BTHID.c       ****                                         if(l2capinbuf[14] == control_dcid[0] && l2capinbuf[15] == c
 1303              		.loc 2 87 0
 1304 0148 1343     		orrs	r3, r2
 1305 014a 95D1     		bne	.L99
ARM GAS  C:\Users\jrdia\AppData\Local\Temp\ccYHzYw6.s 			page 47


 1306 014c EB7C     		ldrb	r3, [r5, #19]
 1307 014e AA7C     		ldrb	r2, [r5, #18]
 1308 0150 1B02     		lsls	r3, r3, #8
  87:BTHID.c       ****                                         if(l2capinbuf[14] == control_dcid[0] && l2capinbuf[15] == c
 1309              		.loc 2 87 0 is_stmt 0 discriminator 1
 1310 0152 1343     		orrs	r3, r2
 1311 0154 90D1     		bne	.L99
  88:BTHID.c       ****                                                 //Notify(PSTR("\r\nHID Control Connection Complete"
 1312              		.loc 2 88 0 is_stmt 1
 1313 0156 2622     		movs	r2, #38
 1314 0158 AB7B     		ldrb	r3, [r5, #14]
 1315 015a A25C     		ldrb	r2, [r4, r2]
 1316 015c 9A42     		cmp	r2, r3
 1317 015e 00D1     		bne	.LCB1132
 1318 0160 87E0     		b	.L143	@long jump
 1319              	.LCB1132:
 1320              	.L102:
  94:BTHID.c       ****                                                 //Notify(PSTR("\r\nHID Interrupt Connection Complet
 1321              		.loc 2 94 0
 1322 0162 2822     		movs	r2, #40
 1323 0164 A25C     		ldrb	r2, [r4, r2]
 1324 0166 9A42     		cmp	r2, r3
 1325 0168 86D1     		bne	.L99
  94:BTHID.c       ****                                                 //Notify(PSTR("\r\nHID Interrupt Connection Complet
 1326              		.loc 2 94 0 is_stmt 0 discriminator 1
 1327 016a 2923     		movs	r3, #41
 1328 016c EA7B     		ldrb	r2, [r5, #15]
 1329 016e E35C     		ldrb	r3, [r4, r3]
 1330 0170 9A42     		cmp	r2, r3
 1331 0172 00D0     		beq	.LCB1143
 1332 0174 80E7     		b	.L99	@long jump
 1333              	.LCB1143:
  96:BTHID.c       ****                                                 interrupt_scid[0] = l2capinbuf[12];
 1334              		.loc 2 96 0 is_stmt 1
 1335 0176 6B7A     		ldrb	r3, [r5, #9]
  99:BTHID.c       ****                                         }
 1336              		.loc 2 99 0
 1337 0178 2269     		ldr	r2, [r4, #16]
  96:BTHID.c       ****                                                 interrupt_scid[0] = l2capinbuf[12];
 1338              		.loc 2 96 0
 1339 017a 2375     		strb	r3, [r4, #20]
  97:BTHID.c       ****                                                 interrupt_scid[1] = l2capinbuf[13];
 1340              		.loc 2 97 0
 1341 017c 2B7B     		ldrb	r3, [r5, #12]
 1342 017e 2376     		strb	r3, [r4, #24]
  98:BTHID.c       ****                                                 l2cap_set_flag(L2CAP_FLAG_INTERRUPT_CONNECTED);
 1343              		.loc 2 98 0
 1344 0180 6B7B     		ldrb	r3, [r5, #13]
 1345 0182 6376     		strb	r3, [r4, #25]
  99:BTHID.c       ****                                         }
 1346              		.loc 2 99 0
 1347 0184 4023     		movs	r3, #64
 1348 0186 1343     		orrs	r3, r2
 1349 0188 2361     		str	r3, [r4, #16]
 1350 018a 75E7     		b	.L99
 1351              	.L136:
 1352 018c 6A7B     		ldrb	r2, [r5, #13]
ARM GAS  C:\Users\jrdia\AppData\Local\Temp\ccYHzYw6.s 			page 48


 1353 018e 297B     		ldrb	r1, [r5, #12]
 1354 0190 1202     		lsls	r2, r2, #8
 115:BTHID.c       ****                                         identifier = l2capinbuf[9];
 1355              		.loc 2 115 0
 1356 0192 0A43     		orrs	r2, r1
 1357 0194 112A     		cmp	r2, #17
 1358 0196 40D0     		beq	.L144
 120:BTHID.c       ****                                         identifier = l2capinbuf[9];
 1359              		.loc 2 120 0
 1360 0198 132A     		cmp	r2, #19
 1361 019a 00D0     		beq	.LCB1170
 1362 019c 6CE7     		b	.L99	@long jump
 1363              	.LCB1170:
 121:BTHID.c       ****                                         interrupt_scid[0] = l2capinbuf[14];
 1364              		.loc 2 121 0
 1365 019e 6B7A     		ldrb	r3, [r5, #9]
 124:BTHID.c       ****                                 }
 1366              		.loc 2 124 0
 1367 01a0 2269     		ldr	r2, [r4, #16]
 121:BTHID.c       ****                                         interrupt_scid[0] = l2capinbuf[14];
 1368              		.loc 2 121 0
 1369 01a2 2375     		strb	r3, [r4, #20]
 122:BTHID.c       ****                                         interrupt_scid[1] = l2capinbuf[15];
 1370              		.loc 2 122 0
 1371 01a4 AB7B     		ldrb	r3, [r5, #14]
 1372 01a6 2376     		strb	r3, [r4, #24]
 123:BTHID.c       ****                                         l2cap_set_flag(L2CAP_FLAG_CONNECTION_INTERRUPT_REQUEST);
 1373              		.loc 2 123 0
 1374 01a8 EB7B     		ldrb	r3, [r5, #15]
 1375 01aa 6376     		strb	r3, [r4, #25]
 124:BTHID.c       ****                                 }
 1376              		.loc 2 124 0
 1377 01ac 1023     		movs	r3, #16
 1378 01ae 1343     		orrs	r3, r2
 1379 01b0 2361     		str	r3, [r4, #16]
 1380 01b2 61E7     		b	.L99
 1381              	.L138:
 139:BTHID.c       ****                                         //Notify(PSTR("\r\nHID Control Configuration Request"), 0x8
 1382              		.loc 2 139 0
 1383 01b4 2232     		adds	r2, r2, #34
 1384 01b6 2B7B     		ldrb	r3, [r5, #12]
 1385 01b8 A25C     		ldrb	r2, [r4, r2]
 1386 01ba 9A42     		cmp	r2, r3
 1387 01bc 37D0     		beq	.L145
 1388              	.L108:
 142:BTHID.c       ****                                         //Notify(PSTR("\r\nHID Interrupt Configuration Request"), 0
 1389              		.loc 2 142 0
 1390 01be 2822     		movs	r2, #40
 1391 01c0 A25C     		ldrb	r2, [r4, r2]
 1392 01c2 9A42     		cmp	r2, r3
 1393 01c4 00D0     		beq	.LCB1199
 1394 01c6 57E7     		b	.L99	@long jump
 1395              	.LCB1199:
 142:BTHID.c       ****                                         //Notify(PSTR("\r\nHID Interrupt Configuration Request"), 0
 1396              		.loc 2 142 0 is_stmt 0 discriminator 1
 1397 01c8 2923     		movs	r3, #41
 1398 01ca 6A7B     		ldrb	r2, [r5, #13]
ARM GAS  C:\Users\jrdia\AppData\Local\Temp\ccYHzYw6.s 			page 49


 1399 01cc E35C     		ldrb	r3, [r4, r3]
 1400 01ce 9A42     		cmp	r2, r3
 1401 01d0 00D0     		beq	.LCB1204
 1402 01d2 51E7     		b	.L99	@long jump
 1403              	.LCB1204:
 144:BTHID.c       ****                                 }
 1404              		.loc 2 144 0 is_stmt 1
 1405 01d4 2300     		movs	r3, r4
 1406 01d6 6A7A     		ldrb	r2, [r5, #9]
 1407 01d8 1833     		adds	r3, r3, #24
 1408 01da FFF7FEFF 		bl	_ZN3BTD21l2cap_config_responseEthPh
 1409              	.LVL102:
 1410 01de 4BE7     		b	.L99
 1411              	.L139:
 147:BTHID.c       **** #ifdef DEBUG_USB_HOST
 1412              		.loc 2 147 0
 1413 01e0 2032     		adds	r2, r2, #32
 1414 01e2 2B7B     		ldrb	r3, [r5, #12]
 1415 01e4 A25C     		ldrb	r2, [r4, r2]
 1416 01e6 9A42     		cmp	r2, r3
 1417 01e8 2CD0     		beq	.L146
 1418              	.L110:
 154:BTHID.c       **** #ifdef DEBUG_USB_HOST
 1419              		.loc 2 154 0
 1420 01ea 2822     		movs	r2, #40
 1421 01ec A25C     		ldrb	r2, [r4, r2]
 1422 01ee 9A42     		cmp	r2, r3
 1423 01f0 00D0     		beq	.LCB1227
 1424 01f2 41E7     		b	.L99	@long jump
 1425              	.LCB1227:
 154:BTHID.c       **** #ifdef DEBUG_USB_HOST
 1426              		.loc 2 154 0 is_stmt 0 discriminator 1
 1427 01f4 2923     		movs	r3, #41
 1428 01f6 6A7B     		ldrb	r2, [r5, #13]
 1429 01f8 E35C     		ldrb	r3, [r4, r3]
 1430 01fa 9A42     		cmp	r2, r3
 1431 01fc 00D0     		beq	.LCB1232
 1432 01fe 3BE7     		b	.L99	@long jump
 1433              	.LCB1232:
 159:BTHID.c       ****                                         Reset();
 1434              		.loc 2 159 0 is_stmt 1
 1435 0200 2300     		movs	r3, r4
 158:BTHID.c       ****                                         pBtd->l2cap_disconnection_response(hci_handle, identifier, 
 1436              		.loc 2 158 0
 1437 0202 6A7A     		ldrb	r2, [r5, #9]
 159:BTHID.c       ****                                         Reset();
 1438              		.loc 2 159 0
 1439 0204 1833     		adds	r3, r3, #24
 158:BTHID.c       ****                                         pBtd->l2cap_disconnection_response(hci_handle, identifier, 
 1440              		.loc 2 158 0
 1441 0206 2275     		strb	r2, [r4, #20]
 1442              	.L127:
 159:BTHID.c       ****                                         Reset();
 1443              		.loc 2 159 0
 1444 0208 0093     		str	r3, [sp]
 1445 020a 1033     		adds	r3, r3, #16
 1446 020c FFF7FEFF 		bl	_ZN3BTD28l2cap_disconnection_responseEthPhS0_
ARM GAS  C:\Users\jrdia\AppData\Local\Temp\ccYHzYw6.s 			page 50


 1447              	.LVL103:
 160:BTHID.c       ****                                 }
 1448              		.loc 2 160 0
 1449 0210 2368     		ldr	r3, [r4]
 1450 0212 2000     		movs	r0, r4
 1451 0214 9B68     		ldr	r3, [r3, #8]
 1452 0216 9847     		blx	r3
 1453              	.LVL104:
 1454 0218 2EE7     		b	.L99
 1455              	.L144:
 116:BTHID.c       ****                                         control_scid[0] = l2capinbuf[14];
 1456              		.loc 2 116 0
 1457 021a 6A7A     		ldrb	r2, [r5, #9]
 1458 021c 2275     		strb	r2, [r4, #20]
 117:BTHID.c       ****                                         control_scid[1] = l2capinbuf[15];
 1459              		.loc 2 117 0
 1460 021e AA7B     		ldrb	r2, [r5, #14]
 1461 0220 A275     		strb	r2, [r4, #22]
 118:BTHID.c       ****                                         l2cap_set_flag(L2CAP_FLAG_CONNECTION_CONTROL_REQUEST);
 1462              		.loc 2 118 0
 1463 0222 EA7B     		ldrb	r2, [r5, #15]
 1464 0224 E275     		strb	r2, [r4, #23]
 119:BTHID.c       ****                                 } else if((l2capinbuf[12] | (l2capinbuf[13] << 8)) == HID_INTR_PSM)
 1465              		.loc 2 119 0
 1466 0226 2269     		ldr	r2, [r4, #16]
 1467 0228 1343     		orrs	r3, r2
 1468 022a 2361     		str	r3, [r4, #16]
 1469 022c 24E7     		b	.L99
 1470              	.L145:
 139:BTHID.c       ****                                         //Notify(PSTR("\r\nHID Control Configuration Request"), 0x8
 1471              		.loc 2 139 0 discriminator 1
 1472 022e 2722     		movs	r2, #39
 1473 0230 6E7B     		ldrb	r6, [r5, #13]
 1474 0232 A25C     		ldrb	r2, [r4, r2]
 1475 0234 9642     		cmp	r6, r2
 1476 0236 C2D1     		bne	.L108
 141:BTHID.c       ****                                 } else if(l2capinbuf[12] == interrupt_dcid[0] && l2capinbuf[13] == 
 1477              		.loc 2 141 0
 1478 0238 2300     		movs	r3, r4
 1479 023a 6A7A     		ldrb	r2, [r5, #9]
 1480 023c 1633     		adds	r3, r3, #22
 1481 023e FFF7FEFF 		bl	_ZN3BTD21l2cap_config_responseEthPh
 1482              	.LVL105:
 1483 0242 19E7     		b	.L99
 1484              	.L146:
 147:BTHID.c       **** #ifdef DEBUG_USB_HOST
 1485              		.loc 2 147 0 discriminator 1
 1486 0244 2722     		movs	r2, #39
 1487 0246 6E7B     		ldrb	r6, [r5, #13]
 1488 0248 A25C     		ldrb	r2, [r4, r2]
 1489 024a 9642     		cmp	r6, r2
 1490 024c CDD1     		bne	.L110
 152:BTHID.c       ****                                         Reset();
 1491              		.loc 2 152 0
 1492 024e 2300     		movs	r3, r4
 151:BTHID.c       ****                                         pBtd->l2cap_disconnection_response(hci_handle, identifier, 
 1493              		.loc 2 151 0
ARM GAS  C:\Users\jrdia\AppData\Local\Temp\ccYHzYw6.s 			page 51


 1494 0250 6A7A     		ldrb	r2, [r5, #9]
 152:BTHID.c       ****                                         Reset();
 1495              		.loc 2 152 0
 1496 0252 1633     		adds	r3, r3, #22
 151:BTHID.c       ****                                         pBtd->l2cap_disconnection_response(hci_handle, identifier, 
 1497              		.loc 2 151 0
 1498 0254 2275     		strb	r2, [r4, #20]
 1499 0256 D7E7     		b	.L127
 1500              	.L142:
 128:BTHID.c       ****                                                 //Notify(PSTR("\r\nHID Control Configuration Comple
 1501              		.loc 2 128 0 discriminator 1
 1502 0258 2722     		movs	r2, #39
 1503 025a 697B     		ldrb	r1, [r5, #13]
 1504 025c A25C     		ldrb	r2, [r4, r2]
 1505 025e 9142     		cmp	r1, r2
 1506 0260 00D0     		beq	.LCB1312
 1507 0262 5EE7     		b	.L106	@long jump
 1508              	.LCB1312:
 130:BTHID.c       ****                                                 l2cap_set_flag(L2CAP_FLAG_CONFIG_CONTROL_SUCCESS);
 1509              		.loc 2 130 0
 1510 0264 6B7A     		ldrb	r3, [r5, #9]
 131:BTHID.c       ****                                         } else if(l2capinbuf[12] == interrupt_dcid[0] && l2capinbuf
 1511              		.loc 2 131 0
 1512 0266 2269     		ldr	r2, [r4, #16]
 130:BTHID.c       ****                                                 l2cap_set_flag(L2CAP_FLAG_CONFIG_CONTROL_SUCCESS);
 1513              		.loc 2 130 0
 1514 0268 2375     		strb	r3, [r4, #20]
 131:BTHID.c       ****                                         } else if(l2capinbuf[12] == interrupt_dcid[0] && l2capinbuf
 1515              		.loc 2 131 0
 1516 026a 0223     		movs	r3, #2
 1517 026c 1343     		orrs	r3, r2
 1518 026e 2361     		str	r3, [r4, #16]
 1519 0270 02E7     		b	.L99
 1520              	.L143:
  88:BTHID.c       ****                                                 //Notify(PSTR("\r\nHID Control Connection Complete"
 1521              		.loc 2 88 0 discriminator 1
 1522 0272 2722     		movs	r2, #39
 1523 0274 E97B     		ldrb	r1, [r5, #15]
 1524 0276 A25C     		ldrb	r2, [r4, r2]
 1525 0278 9142     		cmp	r1, r2
 1526 027a 00D0     		beq	.LCB1331
 1527 027c 71E7     		b	.L102	@long jump
 1528              	.LCB1331:
  90:BTHID.c       ****                                                 control_scid[0] = l2capinbuf[12];
 1529              		.loc 2 90 0
 1530 027e 6B7A     		ldrb	r3, [r5, #9]
  93:BTHID.c       ****                                         } else if(l2capinbuf[14] == interrupt_dcid[0] && l2capinbuf
 1531              		.loc 2 93 0
 1532 0280 2269     		ldr	r2, [r4, #16]
  90:BTHID.c       ****                                                 control_scid[0] = l2capinbuf[12];
 1533              		.loc 2 90 0
 1534 0282 2375     		strb	r3, [r4, #20]
  91:BTHID.c       ****                                                 control_scid[1] = l2capinbuf[13];
 1535              		.loc 2 91 0
 1536 0284 2B7B     		ldrb	r3, [r5, #12]
 1537 0286 A375     		strb	r3, [r4, #22]
  92:BTHID.c       ****                                                 l2cap_set_flag(L2CAP_FLAG_CONTROL_CONNECTED);
ARM GAS  C:\Users\jrdia\AppData\Local\Temp\ccYHzYw6.s 			page 52


 1538              		.loc 2 92 0
 1539 0288 6B7B     		ldrb	r3, [r5, #13]
 1540 028a E375     		strb	r3, [r4, #23]
  93:BTHID.c       ****                                         } else if(l2capinbuf[14] == interrupt_dcid[0] && l2capinbuf
 1541              		.loc 2 93 0
 1542 028c 0423     		movs	r3, #4
 1543 028e 1343     		orrs	r3, r2
 1544 0290 2361     		str	r3, [r4, #16]
 1545 0292 F1E6     		b	.L99
 1546              	.L140:
 163:BTHID.c       ****                                         //Notify(PSTR("\r\nDisconnect Response: Control Channel"), 
 1547              		.loc 2 163 0 discriminator 1
 1548 0294 697B     		ldrb	r1, [r5, #13]
 1549 0296 E27D     		ldrb	r2, [r4, #23]
 1550 0298 9142     		cmp	r1, r2
 1551 029a 00D0     		beq	.LCB1353
 1552 029c 07E7     		b	.L111	@long jump
 1553              	.LCB1353:
 165:BTHID.c       ****                                         l2cap_set_flag(L2CAP_FLAG_DISCONNECT_CONTROL_RESPONSE);
 1554              		.loc 2 165 0
 1555 029e 6B7A     		ldrb	r3, [r5, #9]
 166:BTHID.c       ****                                 } else if(l2capinbuf[12] == interrupt_scid[0] && l2capinbuf[13] == 
 1556              		.loc 2 166 0
 1557 02a0 2269     		ldr	r2, [r4, #16]
 165:BTHID.c       ****                                         l2cap_set_flag(L2CAP_FLAG_DISCONNECT_CONTROL_RESPONSE);
 1558              		.loc 2 165 0
 1559 02a2 2375     		strb	r3, [r4, #20]
 166:BTHID.c       ****                                 } else if(l2capinbuf[12] == interrupt_scid[0] && l2capinbuf[13] == 
 1560              		.loc 2 166 0
 1561 02a4 0823     		movs	r3, #8
 1562 02a6 1343     		orrs	r3, r2
 1563 02a8 2361     		str	r3, [r4, #16]
 1564 02aa E5E6     		b	.L99
 1565              	.L113:
 1566              	.LBB85:
 1567              	.LBB83:
 1568              	.LBB82:
 194:BTHID.c       ****                                                         pRptParser[KEYBOARD_PARSER_ID]->Parse(reint
 1569              		.loc 2 194 0
 1570 02ac E069     		ldr	r0, [r4, #28]
 1571 02ae 0028     		cmp	r0, #0
 1572 02b0 00D0     		beq	.LCB1374
 1573 02b2 21E7     		b	.L128	@long jump
 1574              	.LCB1374:
 1575 02b4 E0E6     		b	.L99
 1576              	.LVL106:
 1577              	.L141:
 190:BTHID.c       **** 
 1578              		.loc 2 190 0
 1579 02b6 2A00     		movs	r2, r5
 1580 02b8 711E     		subs	r1, r6, #1
 1581 02ba C9B2     		uxtb	r1, r1
 1582 02bc 0932     		adds	r2, r2, #9
 1583 02be 2000     		movs	r0, r4
 1584 02c0 9847     		blx	r3
 1585              	.LVL107:
 1586 02c2 10E7     		b	.L112
ARM GAS  C:\Users\jrdia\AppData\Local\Temp\ccYHzYw6.s 			page 53


 1587              	.L148:
 1588              		.align	2
 1589              	.L147:
 1590 02c4 00000000 		.word	_ZN5BTHID14ParseBTHIDDataEhPh
 1591              	.LBE82:
 1592              	.LBE83:
 1593              	.LBE85:
 1594              	.LBE86:
 1595              	.LBE87:
 1596              	.LBE89:
 1597              		.cfi_endproc
 1598              	.LFE285:
 1599              		.fnend
 1600              		.size	_ZN5BTHID7ACLDataEPh, .-_ZN5BTHID7ACLDataEPh
 1601              		.section	.text._ZN5BTHID7setLedsEh,"ax",%progbits
 1602              		.align	2
 1603              		.global	_ZN5BTHID7setLedsEh
 1604              		.code	16
 1605              		.thumb_func
 1606              		.type	_ZN5BTHID7setLedsEh, %function
 1607              	_ZN5BTHID7setLedsEh:
 1608              		.fnstart
 1609              	.LFB289:
 392:BTHID.c       **** 
 393:BTHID.c       **** void BTHID::setLeds(uint8_t data) {
 1610              		.loc 2 393 0
 1611              		.cfi_startproc
 1612              		@ args = 0, pretend = 0, frame = 8
 1613              		@ frame_needed = 0, uses_anonymous_args = 0
 1614              	.LVL108:
 1615 0000 0300     		movs	r3, r0
 394:BTHID.c       ****         uint8_t buf[3];
 395:BTHID.c       ****         buf[0] = 0xA2; // HID BT DATA_request (0xA0) | Report Type (Output 0x02)
 1616              		.loc 2 395 0
 1617 0002 A220     		movs	r0, #162
 1618              	.LVL109:
 393:BTHID.c       ****         uint8_t buf[3];
 1619              		.loc 2 393 0
 1620 0004 10B5     		push	{r4, lr}
 1621              		.save {r4, lr}
 1622              		.cfi_def_cfa_offset 8
 1623              		.cfi_offset 4, -8
 1624              		.cfi_offset 14, -4
 1625              		.pad #16
 1626 0006 84B0     		sub	sp, sp, #16
 1627              		.cfi_def_cfa_offset 24
 1628              		.loc 2 395 0
 1629 0008 03AA     		add	r2, sp, #12
 1630 000a 1070     		strb	r0, [r2]
 396:BTHID.c       ****         buf[1] = 0x01; // Report ID
 1631              		.loc 2 396 0
 1632 000c A138     		subs	r0, r0, #161
 1633 000e 5070     		strb	r0, [r2, #1]
 397:BTHID.c       ****         buf[2] = data;
 1634              		.loc 2 397 0
 1635 0010 9170     		strb	r1, [r2, #2]
 398:BTHID.c       ****         pBtd->L2CAP_Command(hci_handle, buf, 3, interrupt_scid[0], interrupt_scid[1]);
ARM GAS  C:\Users\jrdia\AppData\Local\Temp\ccYHzYw6.s 			page 54


 1636              		.loc 2 398 0
 1637 0012 5C7E     		ldrb	r4, [r3, #25]
 1638 0014 9989     		ldrh	r1, [r3, #12]
 1639              	.LVL110:
 1640 0016 9868     		ldr	r0, [r3, #8]
 1641 0018 0194     		str	r4, [sp, #4]
 1642 001a 1B7E     		ldrb	r3, [r3, #24]
 1643              	.LVL111:
 1644 001c 0093     		str	r3, [sp]
 1645 001e 0323     		movs	r3, #3
 1646 0020 FFF7FEFF 		bl	_ZN3BTD13L2CAP_CommandEtPhhhh
 1647              	.LVL112:
 399:BTHID.c       **** }
 1648              		.loc 2 399 0
 1649 0024 04B0     		add	sp, sp, #16
 1650              		@ sp needed
 1651 0026 10BD     		pop	{r4, pc}
 1652              		.cfi_endproc
 1653              	.LFE289:
 1654              		.fnend
 1655              		.size	_ZN5BTHID7setLedsEh, .-_ZN5BTHID7setLedsEh
 1656              		.weak	_ZTS16BluetoothService
 1657              		.section	.rodata._ZTS16BluetoothService,"aG",%progbits,_ZTS16BluetoothService,comdat
 1658              		.align	2
 1659              		.type	_ZTS16BluetoothService, %object
 1660              		.size	_ZTS16BluetoothService, 19
 1661              	_ZTS16BluetoothService:
 1662 0000 3136426C 		.ascii	"16BluetoothService\000"
 1662      7565746F 
 1662      6F746853 
 1662      65727669 
 1662      636500
 1663              		.weak	_ZTI16BluetoothService
 1664              		.section	.rodata._ZTI16BluetoothService,"aG",%progbits,_ZTI16BluetoothService,comdat
 1665              		.align	2
 1666              		.type	_ZTI16BluetoothService, %object
 1667              		.size	_ZTI16BluetoothService, 8
 1668              	_ZTI16BluetoothService:
 1669 0000 08000000 		.word	_ZTVN10__cxxabiv117__class_type_infoE+8
 1670 0004 00000000 		.word	_ZTS16BluetoothService
 1671              		.global	_ZTS5BTHID
 1672              		.global	_ZTI5BTHID
 1673              		.weak	_ZTV16BluetoothService
 1674              		.section	.rodata._ZTV16BluetoothService,"aG",%progbits,_ZTV16BluetoothService,comdat
 1675              		.align	2
 1676              		.type	_ZTV16BluetoothService, %object
 1677              		.size	_ZTV16BluetoothService, 28
 1678              	_ZTV16BluetoothService:
 1679 0000 00000000 		.word	0
 1680 0004 00000000 		.word	_ZTI16BluetoothService
 1681 0008 00000000 		.word	__cxa_pure_virtual
 1682 000c 00000000 		.word	__cxa_pure_virtual
 1683 0010 00000000 		.word	__cxa_pure_virtual
 1684 0014 00000000 		.word	__cxa_pure_virtual
 1685 0018 00000000 		.word	__cxa_pure_virtual
 1686              		.global	_ZTV5BTHID
 1687              		.section	.rodata
ARM GAS  C:\Users\jrdia\AppData\Local\Temp\ccYHzYw6.s 			page 55


 1688              		.align	2
 1689              		.set	.LANCHOR0,. + 0
 1690              		.type	_ZTV5BTHID, %object
 1691              		.size	_ZTV5BTHID, 40
 1692              	_ZTV5BTHID:
 1693 0028 00000000 		.word	0
 1694 002c 00000000 		.word	_ZTI5BTHID
 1695 0030 00000000 		.word	_ZN5BTHID7ACLDataEPh
 1696 0034 00000000 		.word	_ZN5BTHID3RunEv
 1697 0038 00000000 		.word	_ZN5BTHID5ResetEv
 1698 003c 00000000 		.word	_ZN5BTHID10disconnectEv
 1699 0040 00000000 		.word	_ZN5BTHID6onInitEv
 1700 0044 00000000 		.word	_ZN5BTHID14ParseBTHIDDataEhPh
 1701 0048 00000000 		.word	_ZN5BTHID11OnInitBTHIDEv
 1702 004c 00000000 		.word	_ZN5BTHID10ResetBTHIDEv
 1703              		.align	2
 1704              		.type	_ZTS5BTHID, %object
 1705              		.size	_ZTS5BTHID, 7
 1706              	_ZTS5BTHID:
 1707 0050 35425448 		.ascii	"5BTHID\000"
 1707      494400
 1708 0057 00       		.space	1
 1709              		.type	_ZTI5BTHID, %object
 1710              		.size	_ZTI5BTHID, 12
 1711              	_ZTI5BTHID:
 1712 0058 08000000 		.word	_ZTVN10__cxxabiv120__si_class_type_infoE+8
 1713 005c 00000000 		.word	_ZTS5BTHID
 1714 0060 00000000 		.word	_ZTI16BluetoothService
 1715              		.text
 1716              	.Letext0:
 1717              		.file 4 "c:\\program files (x86)\\cypress\\psoc creator\\4.1\\psoc creator\\import\\gnu\\arm\\5.4.
 1718              		.file 5 "c:\\program files (x86)\\cypress\\psoc creator\\4.1\\psoc creator\\import\\gnu\\arm\\5.4.
 1719              		.file 6 "address.h"
 1720              		.file 7 "usb_ch9.h"
 1721              		.file 8 "usbhost.h"
 1722              		.file 9 "UsbCore.h"
 1723              		.file 10 "hidboot.h"
 1724              		.file 11 "usbhid.h"
 1725              		.file 12 "confdescparser.h"
 1726              		.file 13 "sink_parser.h"
 1727              		.file 14 "avrpins.h"
 1728              		.file 15 "hidusagestr.h"
 1729              		.file 16 "./Stream.h"
 1730              		.file 17 "./Arduino.h"