ARM GAS  C:\Users\jrdia\AppData\Local\Temp\ccYyoPsa.s 			page 1


   1              		.syntax unified
   2              		.cpu cortex-m0
   3              		.fpu softvfp
   4              		.eabi_attribute 20, 1
   5              		.eabi_attribute 21, 1
   6              		.eabi_attribute 23, 3
   7              		.eabi_attribute 24, 1
   8              		.eabi_attribute 25, 1
   9              		.eabi_attribute 26, 1
  10              		.eabi_attribute 30, 2
  11              		.eabi_attribute 34, 0
  12              		.eabi_attribute 18, 4
  13              		.thumb
  14              		.syntax unified
  15              		.file	"cyfitter_cfg.c"
  16              		.text
  17              	.Ltext0:
  18              		.cfi_sections	.debug_frame
  19              		.section	.psocinit,"ax",%progbits
  20              		.align	2
  21              		.global	cyfitter_cfg
  22              		.code	16
  23              		.thumb_func
  24              		.type	cyfitter_cfg, %function
  25              	cyfitter_cfg:
  26              	.LFB6:
  27              		.file 1 "Generated_Source\\PSoC4\\cyfitter_cfg.c"
   1:Generated_Source\PSoC4/cyfitter_cfg.c **** 
   2:Generated_Source\PSoC4/cyfitter_cfg.c **** /*******************************************************************************
   3:Generated_Source\PSoC4/cyfitter_cfg.c **** * File Name: cyfitter_cfg.c
   4:Generated_Source\PSoC4/cyfitter_cfg.c **** * 
   5:Generated_Source\PSoC4/cyfitter_cfg.c **** * PSoC Creator  4.1 Update 1
   6:Generated_Source\PSoC4/cyfitter_cfg.c **** *
   7:Generated_Source\PSoC4/cyfitter_cfg.c **** * Description:
   8:Generated_Source\PSoC4/cyfitter_cfg.c **** * This file contains device initialization code.
   9:Generated_Source\PSoC4/cyfitter_cfg.c **** * Except for the user defined sections in CyClockStartupError(), this file should not be modified.
  10:Generated_Source\PSoC4/cyfitter_cfg.c **** * This file is automatically generated by PSoC Creator.
  11:Generated_Source\PSoC4/cyfitter_cfg.c **** *
  12:Generated_Source\PSoC4/cyfitter_cfg.c **** ********************************************************************************
  13:Generated_Source\PSoC4/cyfitter_cfg.c **** * Copyright (c) 2007-2017 Cypress Semiconductor.  All rights reserved.
  14:Generated_Source\PSoC4/cyfitter_cfg.c **** * You may use this file only in accordance with the license, terms, conditions, 
  15:Generated_Source\PSoC4/cyfitter_cfg.c **** * disclaimers, and limitations in the end user license agreement accompanying 
  16:Generated_Source\PSoC4/cyfitter_cfg.c **** * the software package with which this file was provided.
  17:Generated_Source\PSoC4/cyfitter_cfg.c **** ********************************************************************************/
  18:Generated_Source\PSoC4/cyfitter_cfg.c **** 
  19:Generated_Source\PSoC4/cyfitter_cfg.c **** #include <string.h>
  20:Generated_Source\PSoC4/cyfitter_cfg.c **** #include "cytypes.h"
  21:Generated_Source\PSoC4/cyfitter_cfg.c **** #include "cydevice_trm.h"
  22:Generated_Source\PSoC4/cyfitter_cfg.c **** #include "cyfitter.h"
  23:Generated_Source\PSoC4/cyfitter_cfg.c **** #include "CyLib.h"
  24:Generated_Source\PSoC4/cyfitter_cfg.c **** #include "CyLFClk.h"
  25:Generated_Source\PSoC4/cyfitter_cfg.c **** #include "cyfitter_cfg.h"
  26:Generated_Source\PSoC4/cyfitter_cfg.c **** #include "cyapicallbacks.h"
  27:Generated_Source\PSoC4/cyfitter_cfg.c **** 
  28:Generated_Source\PSoC4/cyfitter_cfg.c **** 
  29:Generated_Source\PSoC4/cyfitter_cfg.c **** #if defined(__GNUC__) || defined(__ARMCC_VERSION)
  30:Generated_Source\PSoC4/cyfitter_cfg.c ****     #define CYPACKED 
ARM GAS  C:\Users\jrdia\AppData\Local\Temp\ccYyoPsa.s 			page 2


  31:Generated_Source\PSoC4/cyfitter_cfg.c ****     #define CYPACKED_ATTR __attribute__ ((packed))
  32:Generated_Source\PSoC4/cyfitter_cfg.c ****     #define CYALIGNED __attribute__ ((aligned))
  33:Generated_Source\PSoC4/cyfitter_cfg.c ****     #define CY_CFG_UNUSED __attribute__ ((unused))
  34:Generated_Source\PSoC4/cyfitter_cfg.c ****     #ifndef CY_CFG_SECTION
  35:Generated_Source\PSoC4/cyfitter_cfg.c ****         #define CY_CFG_SECTION __attribute__ ((section(".psocinit")))
  36:Generated_Source\PSoC4/cyfitter_cfg.c ****     #endif
  37:Generated_Source\PSoC4/cyfitter_cfg.c ****     
  38:Generated_Source\PSoC4/cyfitter_cfg.c ****     #if defined(__ARMCC_VERSION)
  39:Generated_Source\PSoC4/cyfitter_cfg.c ****         #define CY_CFG_MEMORY_BARRIER() __memory_changed()
  40:Generated_Source\PSoC4/cyfitter_cfg.c ****     #else
  41:Generated_Source\PSoC4/cyfitter_cfg.c ****         #define CY_CFG_MEMORY_BARRIER() __sync_synchronize()
  42:Generated_Source\PSoC4/cyfitter_cfg.c ****     #endif
  43:Generated_Source\PSoC4/cyfitter_cfg.c ****     
  44:Generated_Source\PSoC4/cyfitter_cfg.c **** #elif defined(__ICCARM__)
  45:Generated_Source\PSoC4/cyfitter_cfg.c ****     #include <intrinsics.h>
  46:Generated_Source\PSoC4/cyfitter_cfg.c **** 
  47:Generated_Source\PSoC4/cyfitter_cfg.c ****     #define CYPACKED __packed
  48:Generated_Source\PSoC4/cyfitter_cfg.c ****     #define CYPACKED_ATTR 
  49:Generated_Source\PSoC4/cyfitter_cfg.c ****     #define CYALIGNED _Pragma("data_alignment=4")
  50:Generated_Source\PSoC4/cyfitter_cfg.c ****     #define CY_CFG_UNUSED _Pragma("diag_suppress=Pe177")
  51:Generated_Source\PSoC4/cyfitter_cfg.c ****     #define CY_CFG_SECTION _Pragma("location=\".psocinit\"")
  52:Generated_Source\PSoC4/cyfitter_cfg.c ****     
  53:Generated_Source\PSoC4/cyfitter_cfg.c ****     #define CY_CFG_MEMORY_BARRIER() __DMB()
  54:Generated_Source\PSoC4/cyfitter_cfg.c ****     
  55:Generated_Source\PSoC4/cyfitter_cfg.c **** #else
  56:Generated_Source\PSoC4/cyfitter_cfg.c ****     #error Unsupported toolchain
  57:Generated_Source\PSoC4/cyfitter_cfg.c **** #endif
  58:Generated_Source\PSoC4/cyfitter_cfg.c **** 
  59:Generated_Source\PSoC4/cyfitter_cfg.c **** #ifndef CYCODE
  60:Generated_Source\PSoC4/cyfitter_cfg.c ****     #define CYCODE
  61:Generated_Source\PSoC4/cyfitter_cfg.c **** #endif
  62:Generated_Source\PSoC4/cyfitter_cfg.c **** #ifndef CYDATA
  63:Generated_Source\PSoC4/cyfitter_cfg.c ****     #define CYDATA
  64:Generated_Source\PSoC4/cyfitter_cfg.c **** #endif
  65:Generated_Source\PSoC4/cyfitter_cfg.c **** #ifndef CYFAR
  66:Generated_Source\PSoC4/cyfitter_cfg.c ****     #define CYFAR
  67:Generated_Source\PSoC4/cyfitter_cfg.c **** #endif
  68:Generated_Source\PSoC4/cyfitter_cfg.c **** #ifndef CYXDATA
  69:Generated_Source\PSoC4/cyfitter_cfg.c ****     #define CYXDATA
  70:Generated_Source\PSoC4/cyfitter_cfg.c **** #endif
  71:Generated_Source\PSoC4/cyfitter_cfg.c **** 
  72:Generated_Source\PSoC4/cyfitter_cfg.c **** 
  73:Generated_Source\PSoC4/cyfitter_cfg.c **** CY_CFG_UNUSED
  74:Generated_Source\PSoC4/cyfitter_cfg.c **** static void CYMEMZERO(void *s, size_t n);
  75:Generated_Source\PSoC4/cyfitter_cfg.c **** CY_CFG_UNUSED
  76:Generated_Source\PSoC4/cyfitter_cfg.c **** static void CYMEMZERO(void *s, size_t n)
  77:Generated_Source\PSoC4/cyfitter_cfg.c **** {
  78:Generated_Source\PSoC4/cyfitter_cfg.c **** 	(void)memset(s, 0, n);
  79:Generated_Source\PSoC4/cyfitter_cfg.c **** }
  80:Generated_Source\PSoC4/cyfitter_cfg.c **** CY_CFG_UNUSED
  81:Generated_Source\PSoC4/cyfitter_cfg.c **** static void CYCONFIGCPY(void *dest, const void *src, size_t n);
  82:Generated_Source\PSoC4/cyfitter_cfg.c **** CY_CFG_UNUSED
  83:Generated_Source\PSoC4/cyfitter_cfg.c **** static void CYCONFIGCPY(void *dest, const void *src, size_t n)
  84:Generated_Source\PSoC4/cyfitter_cfg.c **** {
  85:Generated_Source\PSoC4/cyfitter_cfg.c **** 	(void)memcpy(dest, src, n);
  86:Generated_Source\PSoC4/cyfitter_cfg.c **** }
  87:Generated_Source\PSoC4/cyfitter_cfg.c **** CY_CFG_UNUSED
ARM GAS  C:\Users\jrdia\AppData\Local\Temp\ccYyoPsa.s 			page 3


  88:Generated_Source\PSoC4/cyfitter_cfg.c **** static void CYCONFIGCPYCODE(void *dest, const void *src, size_t n);
  89:Generated_Source\PSoC4/cyfitter_cfg.c **** CY_CFG_UNUSED
  90:Generated_Source\PSoC4/cyfitter_cfg.c **** static void CYCONFIGCPYCODE(void *dest, const void *src, size_t n)
  91:Generated_Source\PSoC4/cyfitter_cfg.c **** {
  92:Generated_Source\PSoC4/cyfitter_cfg.c **** 	(void)memcpy(dest, src, n);
  93:Generated_Source\PSoC4/cyfitter_cfg.c **** }
  94:Generated_Source\PSoC4/cyfitter_cfg.c **** 
  95:Generated_Source\PSoC4/cyfitter_cfg.c **** 
  96:Generated_Source\PSoC4/cyfitter_cfg.c **** 
  97:Generated_Source\PSoC4/cyfitter_cfg.c **** 
  98:Generated_Source\PSoC4/cyfitter_cfg.c **** /* Clock startup error codes                                                   */
  99:Generated_Source\PSoC4/cyfitter_cfg.c **** #define CYCLOCKSTART_NO_ERROR    0u
 100:Generated_Source\PSoC4/cyfitter_cfg.c **** #define CYCLOCKSTART_XTAL_ERROR  1u
 101:Generated_Source\PSoC4/cyfitter_cfg.c **** #define CYCLOCKSTART_32KHZ_ERROR 2u
 102:Generated_Source\PSoC4/cyfitter_cfg.c **** #define CYCLOCKSTART_PLL_ERROR   3u
 103:Generated_Source\PSoC4/cyfitter_cfg.c **** #define CYCLOCKSTART_FLL_ERROR   4u
 104:Generated_Source\PSoC4/cyfitter_cfg.c **** 
 105:Generated_Source\PSoC4/cyfitter_cfg.c **** 
 106:Generated_Source\PSoC4/cyfitter_cfg.c **** #ifdef CY_NEED_CYCLOCKSTARTUPERROR
 107:Generated_Source\PSoC4/cyfitter_cfg.c **** /*******************************************************************************
 108:Generated_Source\PSoC4/cyfitter_cfg.c **** * Function Name: CyClockStartupError
 109:Generated_Source\PSoC4/cyfitter_cfg.c **** ********************************************************************************
 110:Generated_Source\PSoC4/cyfitter_cfg.c **** * Summary:
 111:Generated_Source\PSoC4/cyfitter_cfg.c **** *  If an error is encountered during clock configuration (crystal startup error,
 112:Generated_Source\PSoC4/cyfitter_cfg.c **** *  PLL lock error, etc.), the system will end up here.  Unless reimplemented by
 113:Generated_Source\PSoC4/cyfitter_cfg.c **** *  the customer, this function will stop in an infinite loop.
 114:Generated_Source\PSoC4/cyfitter_cfg.c **** *
 115:Generated_Source\PSoC4/cyfitter_cfg.c **** * Parameters:
 116:Generated_Source\PSoC4/cyfitter_cfg.c **** *   void
 117:Generated_Source\PSoC4/cyfitter_cfg.c **** *
 118:Generated_Source\PSoC4/cyfitter_cfg.c **** * Return:
 119:Generated_Source\PSoC4/cyfitter_cfg.c **** *   void
 120:Generated_Source\PSoC4/cyfitter_cfg.c **** *
 121:Generated_Source\PSoC4/cyfitter_cfg.c **** *******************************************************************************/
 122:Generated_Source\PSoC4/cyfitter_cfg.c **** CY_CFG_UNUSED
 123:Generated_Source\PSoC4/cyfitter_cfg.c **** static void CyClockStartupError(uint8 errorCode);
 124:Generated_Source\PSoC4/cyfitter_cfg.c **** CY_CFG_UNUSED
 125:Generated_Source\PSoC4/cyfitter_cfg.c **** static void CyClockStartupError(uint8 errorCode)
 126:Generated_Source\PSoC4/cyfitter_cfg.c **** {
 127:Generated_Source\PSoC4/cyfitter_cfg.c ****     /* To remove the compiler warning if errorCode not used. */
 128:Generated_Source\PSoC4/cyfitter_cfg.c **** #if defined(CY_PSOC3) && (CY_PSOC3)
 129:Generated_Source\PSoC4/cyfitter_cfg.c ****     errorCode = errorCode;
 130:Generated_Source\PSoC4/cyfitter_cfg.c **** #else
 131:Generated_Source\PSoC4/cyfitter_cfg.c ****     (void)errorCode;
 132:Generated_Source\PSoC4/cyfitter_cfg.c **** #endif /* CY_PSOC3 */
 133:Generated_Source\PSoC4/cyfitter_cfg.c **** 
 134:Generated_Source\PSoC4/cyfitter_cfg.c ****     /* If we have a clock startup error (bad MHz crystal, PLL lock, etc.),  */
 135:Generated_Source\PSoC4/cyfitter_cfg.c ****     /* we will end up here to allow the customer to implement something to  */
 136:Generated_Source\PSoC4/cyfitter_cfg.c ****     /* deal with the clock condition.                                       */
 137:Generated_Source\PSoC4/cyfitter_cfg.c **** 
 138:Generated_Source\PSoC4/cyfitter_cfg.c **** #ifdef CY_CFG_CLOCK_STARTUP_ERROR_CALLBACK
 139:Generated_Source\PSoC4/cyfitter_cfg.c ****     CY_CFG_Clock_Startup_ErrorCallback();
 140:Generated_Source\PSoC4/cyfitter_cfg.c **** #else
 141:Generated_Source\PSoC4/cyfitter_cfg.c ****     /*  If not using CY_CFG_CLOCK_STARTUP_ERROR_CALLBACK, place your clock startup code here. */
 142:Generated_Source\PSoC4/cyfitter_cfg.c ****     /* `#START CyClockStartupError` */
 143:Generated_Source\PSoC4/cyfitter_cfg.c **** 
 144:Generated_Source\PSoC4/cyfitter_cfg.c **** 
ARM GAS  C:\Users\jrdia\AppData\Local\Temp\ccYyoPsa.s 			page 4


 145:Generated_Source\PSoC4/cyfitter_cfg.c **** 
 146:Generated_Source\PSoC4/cyfitter_cfg.c ****     /* `#END` */
 147:Generated_Source\PSoC4/cyfitter_cfg.c **** 
 148:Generated_Source\PSoC4/cyfitter_cfg.c ****     while(1) {}
 149:Generated_Source\PSoC4/cyfitter_cfg.c **** #endif /* CY_CFG_CLOCK_STARTUP_ERROR_CALLBACK */
 150:Generated_Source\PSoC4/cyfitter_cfg.c **** }
 151:Generated_Source\PSoC4/cyfitter_cfg.c **** #endif
 152:Generated_Source\PSoC4/cyfitter_cfg.c **** 
 153:Generated_Source\PSoC4/cyfitter_cfg.c **** #define CY_CFG_BASE_ADDR_COUNT 9u
 154:Generated_Source\PSoC4/cyfitter_cfg.c **** CYPACKED typedef struct
 155:Generated_Source\PSoC4/cyfitter_cfg.c **** {
 156:Generated_Source\PSoC4/cyfitter_cfg.c **** 	uint8 offset;
 157:Generated_Source\PSoC4/cyfitter_cfg.c **** 	uint8 value;
 158:Generated_Source\PSoC4/cyfitter_cfg.c **** } CYPACKED_ATTR cy_cfg_addrvalue_t;
 159:Generated_Source\PSoC4/cyfitter_cfg.c **** 
 160:Generated_Source\PSoC4/cyfitter_cfg.c **** 
 161:Generated_Source\PSoC4/cyfitter_cfg.c **** 
 162:Generated_Source\PSoC4/cyfitter_cfg.c **** /*******************************************************************************
 163:Generated_Source\PSoC4/cyfitter_cfg.c **** * Function Name: cfg_write_bytes32
 164:Generated_Source\PSoC4/cyfitter_cfg.c **** ********************************************************************************
 165:Generated_Source\PSoC4/cyfitter_cfg.c **** * Summary:
 166:Generated_Source\PSoC4/cyfitter_cfg.c **** *  This function is used for setting up the chip configuration areas that
 167:Generated_Source\PSoC4/cyfitter_cfg.c **** *  contain relatively sparse data.
 168:Generated_Source\PSoC4/cyfitter_cfg.c **** *
 169:Generated_Source\PSoC4/cyfitter_cfg.c **** * Parameters:
 170:Generated_Source\PSoC4/cyfitter_cfg.c **** *   void
 171:Generated_Source\PSoC4/cyfitter_cfg.c **** *
 172:Generated_Source\PSoC4/cyfitter_cfg.c **** * Return:
 173:Generated_Source\PSoC4/cyfitter_cfg.c **** *   void
 174:Generated_Source\PSoC4/cyfitter_cfg.c **** *
 175:Generated_Source\PSoC4/cyfitter_cfg.c **** *******************************************************************************/
 176:Generated_Source\PSoC4/cyfitter_cfg.c **** static void cfg_write_bytes32(const uint32 addr_table[], const cy_cfg_addrvalue_t data_table[]);
 177:Generated_Source\PSoC4/cyfitter_cfg.c **** static void cfg_write_bytes32(const uint32 addr_table[], const cy_cfg_addrvalue_t data_table[])
 178:Generated_Source\PSoC4/cyfitter_cfg.c **** {
 179:Generated_Source\PSoC4/cyfitter_cfg.c **** 	/* For 32-bit little-endian architectures */
 180:Generated_Source\PSoC4/cyfitter_cfg.c **** 	uint32 i, j = 0u;
 181:Generated_Source\PSoC4/cyfitter_cfg.c **** 	for (i = 0u; i < CY_CFG_BASE_ADDR_COUNT; i++)
 182:Generated_Source\PSoC4/cyfitter_cfg.c **** 	{
 183:Generated_Source\PSoC4/cyfitter_cfg.c **** 		uint32 baseAddr = addr_table[i];
 184:Generated_Source\PSoC4/cyfitter_cfg.c **** 		uint8 count = (uint8)baseAddr;
 185:Generated_Source\PSoC4/cyfitter_cfg.c **** 		baseAddr &= 0xFFFFFF00u;
 186:Generated_Source\PSoC4/cyfitter_cfg.c **** 		while (count != 0u)
 187:Generated_Source\PSoC4/cyfitter_cfg.c **** 		{
 188:Generated_Source\PSoC4/cyfitter_cfg.c **** 			CY_SET_REG8((void *)(baseAddr + data_table[j].offset), data_table[j].value);
 189:Generated_Source\PSoC4/cyfitter_cfg.c **** 			j++;
 190:Generated_Source\PSoC4/cyfitter_cfg.c **** 			count--;
 191:Generated_Source\PSoC4/cyfitter_cfg.c **** 		}
 192:Generated_Source\PSoC4/cyfitter_cfg.c **** 	}
 193:Generated_Source\PSoC4/cyfitter_cfg.c **** }
 194:Generated_Source\PSoC4/cyfitter_cfg.c **** 
 195:Generated_Source\PSoC4/cyfitter_cfg.c **** 
 196:Generated_Source\PSoC4/cyfitter_cfg.c **** /*******************************************************************************
 197:Generated_Source\PSoC4/cyfitter_cfg.c **** * Function Name: ClockSetup
 198:Generated_Source\PSoC4/cyfitter_cfg.c **** ********************************************************************************
 199:Generated_Source\PSoC4/cyfitter_cfg.c **** *
 200:Generated_Source\PSoC4/cyfitter_cfg.c **** * Summary:
 201:Generated_Source\PSoC4/cyfitter_cfg.c **** *   Performs the initialization of all of the clocks in the device based on the
ARM GAS  C:\Users\jrdia\AppData\Local\Temp\ccYyoPsa.s 			page 5


 202:Generated_Source\PSoC4/cyfitter_cfg.c **** *   settings in the Clock tab of the DWR.  This includes enabling the requested
 203:Generated_Source\PSoC4/cyfitter_cfg.c **** *   clocks and setting the necessary dividers to produce the desired frequency. 
 204:Generated_Source\PSoC4/cyfitter_cfg.c **** *
 205:Generated_Source\PSoC4/cyfitter_cfg.c **** * Parameters:
 206:Generated_Source\PSoC4/cyfitter_cfg.c **** *   void
 207:Generated_Source\PSoC4/cyfitter_cfg.c **** *
 208:Generated_Source\PSoC4/cyfitter_cfg.c **** * Return:
 209:Generated_Source\PSoC4/cyfitter_cfg.c **** *   void
 210:Generated_Source\PSoC4/cyfitter_cfg.c **** *
 211:Generated_Source\PSoC4/cyfitter_cfg.c **** *******************************************************************************/
 212:Generated_Source\PSoC4/cyfitter_cfg.c **** static void ClockSetup(void);
 213:Generated_Source\PSoC4/cyfitter_cfg.c **** CY_CFG_SECTION
 214:Generated_Source\PSoC4/cyfitter_cfg.c **** static void ClockSetup(void)
 215:Generated_Source\PSoC4/cyfitter_cfg.c **** {
 216:Generated_Source\PSoC4/cyfitter_cfg.c **** 	/* Enable HALF_EN before trimming for the flash accelerator. */
 217:Generated_Source\PSoC4/cyfitter_cfg.c **** 	CY_SET_REG32((void CYXDATA *)(CYREG_CLK_SELECT), (CY_GET_REG32((void *)CYREG_CLK_SELECT) | 0x00040
 218:Generated_Source\PSoC4/cyfitter_cfg.c **** 
 219:Generated_Source\PSoC4/cyfitter_cfg.c **** 	/* Setup and trim IMO based on desired frequency. */
 220:Generated_Source\PSoC4/cyfitter_cfg.c **** 	CySysClkWriteImoFreq(24u);
 221:Generated_Source\PSoC4/cyfitter_cfg.c **** 
 222:Generated_Source\PSoC4/cyfitter_cfg.c **** 	/* Disable HALF_EN since it is not required at this IMO frequency. */
 223:Generated_Source\PSoC4/cyfitter_cfg.c **** 	CY_SET_REG32((void CYXDATA *)(CYREG_CLK_SELECT), (CY_GET_REG32((void *)CYREG_CLK_SELECT) & 0xFFFBF
 224:Generated_Source\PSoC4/cyfitter_cfg.c **** 	/* CYDEV_CLK_ILO_CONFIG Starting address: CYDEV_CLK_ILO_CONFIG */
 225:Generated_Source\PSoC4/cyfitter_cfg.c **** 	CY_SET_REG32((void *)(CYREG_CLK_ILO_CONFIG), 0x80000006u);
 226:Generated_Source\PSoC4/cyfitter_cfg.c **** 
 227:Generated_Source\PSoC4/cyfitter_cfg.c **** 
 228:Generated_Source\PSoC4/cyfitter_cfg.c **** 	/* CYDEV_CLK_SELECT00 Starting address: CYDEV_CLK_SELECT00 */
 229:Generated_Source\PSoC4/cyfitter_cfg.c **** 	CY_SET_REG32((void *)(CYREG_CLK_SELECT03), 0x00000020u);
 230:Generated_Source\PSoC4/cyfitter_cfg.c **** 	CY_SET_REG32((void *)(CYREG_CLK_SELECT08), 0x00000030u);
 231:Generated_Source\PSoC4/cyfitter_cfg.c **** 	CY_SET_REG32((void *)(CYREG_CLK_SELECT12), 0x00000010u);
 232:Generated_Source\PSoC4/cyfitter_cfg.c **** 
 233:Generated_Source\PSoC4/cyfitter_cfg.c **** 	/* CYDEV_CLK_IMO_CONFIG Starting address: CYDEV_CLK_IMO_CONFIG */
 234:Generated_Source\PSoC4/cyfitter_cfg.c **** 	CY_SET_REG32((void *)(CYREG_CLK_IMO_CONFIG), 0x80000000u);
 235:Generated_Source\PSoC4/cyfitter_cfg.c **** 
 236:Generated_Source\PSoC4/cyfitter_cfg.c **** 	/* CYDEV_CLK_SELECT Starting address: CYDEV_CLK_SELECT */
 237:Generated_Source\PSoC4/cyfitter_cfg.c **** 	CY_SET_REG32((void *)(CYREG_CLK_SELECT), 0x00000000u);
 238:Generated_Source\PSoC4/cyfitter_cfg.c **** 
 239:Generated_Source\PSoC4/cyfitter_cfg.c **** 	/* CYDEV_CLK_DIVIDER_A00 Starting address: CYDEV_CLK_DIVIDER_A00 */
 240:Generated_Source\PSoC4/cyfitter_cfg.c **** 	CY_SET_REG32((void *)(CYREG_CLK_DIVIDER_A00), 0x80000001u);
 241:Generated_Source\PSoC4/cyfitter_cfg.c **** 
 242:Generated_Source\PSoC4/cyfitter_cfg.c **** 	/* CYDEV_CLK_DIVIDER_B00 Starting address: CYDEV_CLK_DIVIDER_B00 */
 243:Generated_Source\PSoC4/cyfitter_cfg.c **** 	CY_SET_REG32((void *)(CYREG_CLK_DIVIDER_B00), 0x80000010u);
 244:Generated_Source\PSoC4/cyfitter_cfg.c **** 
 245:Generated_Source\PSoC4/cyfitter_cfg.c **** 	/* CYDEV_CLK_DIVIDER_C00 Starting address: CYDEV_CLK_DIVIDER_C00 */
 246:Generated_Source\PSoC4/cyfitter_cfg.c **** 	CY_SET_REG32((void *)(CYREG_CLK_DIVIDER_C00), 0x80005DBFu);
 247:Generated_Source\PSoC4/cyfitter_cfg.c **** 
 248:Generated_Source\PSoC4/cyfitter_cfg.c **** 	(void)CyIntSetVector(9u, &CySysWdtIsr);
 249:Generated_Source\PSoC4/cyfitter_cfg.c **** 	CyIntEnable(9u);
 250:Generated_Source\PSoC4/cyfitter_cfg.c **** 	CY_SET_REG32((void *)(CYREG_WDT_CONFIG), 0x00000000u);
 251:Generated_Source\PSoC4/cyfitter_cfg.c **** }
 252:Generated_Source\PSoC4/cyfitter_cfg.c **** 
 253:Generated_Source\PSoC4/cyfitter_cfg.c **** 
 254:Generated_Source\PSoC4/cyfitter_cfg.c **** /* Analog API Functions */
 255:Generated_Source\PSoC4/cyfitter_cfg.c **** 
 256:Generated_Source\PSoC4/cyfitter_cfg.c **** 
 257:Generated_Source\PSoC4/cyfitter_cfg.c **** /*******************************************************************************
 258:Generated_Source\PSoC4/cyfitter_cfg.c **** * Function Name: AnalogSetDefault
ARM GAS  C:\Users\jrdia\AppData\Local\Temp\ccYyoPsa.s 			page 6


 259:Generated_Source\PSoC4/cyfitter_cfg.c **** ********************************************************************************
 260:Generated_Source\PSoC4/cyfitter_cfg.c **** *
 261:Generated_Source\PSoC4/cyfitter_cfg.c **** * Summary:
 262:Generated_Source\PSoC4/cyfitter_cfg.c **** *  Sets up the analog portions of the chip to default values based on chip
 263:Generated_Source\PSoC4/cyfitter_cfg.c **** *  configuration options from the project.
 264:Generated_Source\PSoC4/cyfitter_cfg.c **** *
 265:Generated_Source\PSoC4/cyfitter_cfg.c **** * Parameters:
 266:Generated_Source\PSoC4/cyfitter_cfg.c **** *  void
 267:Generated_Source\PSoC4/cyfitter_cfg.c **** *
 268:Generated_Source\PSoC4/cyfitter_cfg.c **** * Return:
 269:Generated_Source\PSoC4/cyfitter_cfg.c **** *  void
 270:Generated_Source\PSoC4/cyfitter_cfg.c **** *
 271:Generated_Source\PSoC4/cyfitter_cfg.c **** *******************************************************************************/
 272:Generated_Source\PSoC4/cyfitter_cfg.c **** static void AnalogSetDefault(void);
 273:Generated_Source\PSoC4/cyfitter_cfg.c **** static void AnalogSetDefault(void)
 274:Generated_Source\PSoC4/cyfitter_cfg.c **** {
 275:Generated_Source\PSoC4/cyfitter_cfg.c **** }
 276:Generated_Source\PSoC4/cyfitter_cfg.c **** 
 277:Generated_Source\PSoC4/cyfitter_cfg.c **** 
 278:Generated_Source\PSoC4/cyfitter_cfg.c **** 
 279:Generated_Source\PSoC4/cyfitter_cfg.c **** 
 280:Generated_Source\PSoC4/cyfitter_cfg.c **** /*******************************************************************************
 281:Generated_Source\PSoC4/cyfitter_cfg.c **** * Function Name: cyfitter_cfg
 282:Generated_Source\PSoC4/cyfitter_cfg.c **** ********************************************************************************
 283:Generated_Source\PSoC4/cyfitter_cfg.c **** * Summary:
 284:Generated_Source\PSoC4/cyfitter_cfg.c **** *  This function is called by the start-up code for the selected device. It
 285:Generated_Source\PSoC4/cyfitter_cfg.c **** *  performs all of the necessary device configuration based on the design
 286:Generated_Source\PSoC4/cyfitter_cfg.c **** *  settings.  This includes settings from the Design Wide Resources (DWR) such
 287:Generated_Source\PSoC4/cyfitter_cfg.c **** *  as Clocks and Pins as well as any component configuration that is necessary.
 288:Generated_Source\PSoC4/cyfitter_cfg.c **** *
 289:Generated_Source\PSoC4/cyfitter_cfg.c **** * Parameters:
 290:Generated_Source\PSoC4/cyfitter_cfg.c **** *   void
 291:Generated_Source\PSoC4/cyfitter_cfg.c **** *
 292:Generated_Source\PSoC4/cyfitter_cfg.c **** * Return:
 293:Generated_Source\PSoC4/cyfitter_cfg.c **** *   void
 294:Generated_Source\PSoC4/cyfitter_cfg.c **** *
 295:Generated_Source\PSoC4/cyfitter_cfg.c **** *******************************************************************************/
 296:Generated_Source\PSoC4/cyfitter_cfg.c **** CY_CFG_SECTION
 297:Generated_Source\PSoC4/cyfitter_cfg.c **** void cyfitter_cfg(void)
 298:Generated_Source\PSoC4/cyfitter_cfg.c **** {
  28              		.loc 1 298 0
  29              		.cfi_startproc
  30              		@ args = 0, pretend = 0, frame = 0
  31              		@ frame_needed = 0, uses_anonymous_args = 0
  32 0000 F0B5     		push	{r4, r5, r6, r7, lr}
  33              		.cfi_def_cfa_offset 20
  34              		.cfi_offset 4, -20
  35              		.cfi_offset 5, -16
  36              		.cfi_offset 6, -12
  37              		.cfi_offset 7, -8
  38              		.cfi_offset 14, -4
  39 0002 4746     		mov	r7, r8
  40 0004 80B4     		push	{r7}
  41              		.cfi_def_cfa_offset 24
  42              		.cfi_offset 8, -24
 299:Generated_Source\PSoC4/cyfitter_cfg.c **** 	/* Disable interrupts by default. Let user enable if/when they want. */
 300:Generated_Source\PSoC4/cyfitter_cfg.c **** 	CyGlobalIntDisable;
ARM GAS  C:\Users\jrdia\AppData\Local\Temp\ccYyoPsa.s 			page 7


  43              		.loc 1 300 0
  44              		.syntax divided
  45              	@ 300 "Generated_Source\PSoC4\cyfitter_cfg.c" 1
  46 0006 72B6     		CPSID   i
  47              	@ 0 "" 2
  48              	.LVL0:
  49              		.thumb
  50              		.syntax unified
  51 0008 564C     		ldr	r4, .L14
  52 000a 0025     		movs	r5, #0
  53 000c A022     		movs	r2, #160
  54 000e 2600     		movs	r6, r4
  55 0010 9200     		lsls	r2, r2, #2
  56 0012 5548     		ldr	r0, .L14+4
  57              	.LVL1:
  58              	.LBB26:
  59              	.LBB27:
  60              	.LBB28:
  61              	.LBB29:
  78:Generated_Source\PSoC4/cyfitter_cfg.c **** }
  62              		.loc 1 78 0
  63 0014 0021     		movs	r1, #0
  64 0016 0135     		adds	r5, r5, #1
  65              	.LVL2:
  66 0018 FFF7FEFF 		bl	memset
  67              	.LVL3:
  68 001c 0636     		adds	r6, r6, #6
  69              	.LBE29:
  70              	.LBE28:
  71              	.LBE27:
 301:Generated_Source\PSoC4/cyfitter_cfg.c **** 
 302:Generated_Source\PSoC4/cyfitter_cfg.c **** 	{
 303:Generated_Source\PSoC4/cyfitter_cfg.c **** 		static const uint32 CYCODE cy_cfg_addr_table[] = {
 304:Generated_Source\PSoC4/cyfitter_cfg.c **** 			0x400F0001u, /* Base address: 0x400F0000 Count: 1 */
 305:Generated_Source\PSoC4/cyfitter_cfg.c **** 			0x400F3031u, /* Base address: 0x400F3000 Count: 49 */
 306:Generated_Source\PSoC4/cyfitter_cfg.c **** 			0x400F311Cu, /* Base address: 0x400F3100 Count: 28 */
 307:Generated_Source\PSoC4/cyfitter_cfg.c **** 			0x400F3203u, /* Base address: 0x400F3200 Count: 3 */
 308:Generated_Source\PSoC4/cyfitter_cfg.c **** 			0x400F3343u, /* Base address: 0x400F3300 Count: 67 */
 309:Generated_Source\PSoC4/cyfitter_cfg.c **** 			0x400F4002u, /* Base address: 0x400F4000 Count: 2 */
 310:Generated_Source\PSoC4/cyfitter_cfg.c **** 			0x400F4102u, /* Base address: 0x400F4100 Count: 2 */
 311:Generated_Source\PSoC4/cyfitter_cfg.c **** 			0x400F4308u, /* Base address: 0x400F4300 Count: 8 */
 312:Generated_Source\PSoC4/cyfitter_cfg.c **** 			0x400F6002u, /* Base address: 0x400F6000 Count: 2 */
 313:Generated_Source\PSoC4/cyfitter_cfg.c **** 		};
 314:Generated_Source\PSoC4/cyfitter_cfg.c **** 
 315:Generated_Source\PSoC4/cyfitter_cfg.c **** 		static const cy_cfg_addrvalue_t CYCODE cy_cfg_data_table[] = {
 316:Generated_Source\PSoC4/cyfitter_cfg.c **** 			{0x83u, 0x0Fu},
 317:Generated_Source\PSoC4/cyfitter_cfg.c **** 			{0x01u, 0x94u},
 318:Generated_Source\PSoC4/cyfitter_cfg.c **** 			{0x02u, 0x80u},
 319:Generated_Source\PSoC4/cyfitter_cfg.c **** 			{0x03u, 0x69u},
 320:Generated_Source\PSoC4/cyfitter_cfg.c **** 			{0x04u, 0x10u},
 321:Generated_Source\PSoC4/cyfitter_cfg.c **** 			{0x05u, 0x0Eu},
 322:Generated_Source\PSoC4/cyfitter_cfg.c **** 			{0x06u, 0x60u},
 323:Generated_Source\PSoC4/cyfitter_cfg.c **** 			{0x0Cu, 0x02u},
 324:Generated_Source\PSoC4/cyfitter_cfg.c **** 			{0x0Eu, 0x0Du},
 325:Generated_Source\PSoC4/cyfitter_cfg.c **** 			{0x10u, 0x01u},
 326:Generated_Source\PSoC4/cyfitter_cfg.c **** 			{0x12u, 0x32u},
 327:Generated_Source\PSoC4/cyfitter_cfg.c **** 			{0x14u, 0x8Du},
ARM GAS  C:\Users\jrdia\AppData\Local\Temp\ccYyoPsa.s 			page 8


 328:Generated_Source\PSoC4/cyfitter_cfg.c **** 			{0x15u, 0x55u},
 329:Generated_Source\PSoC4/cyfitter_cfg.c **** 			{0x16u, 0x40u},
 330:Generated_Source\PSoC4/cyfitter_cfg.c **** 			{0x17u, 0xAAu},
 331:Generated_Source\PSoC4/cyfitter_cfg.c **** 			{0x18u, 0xCDu},
 332:Generated_Source\PSoC4/cyfitter_cfg.c **** 			{0x19u, 0x20u},
 333:Generated_Source\PSoC4/cyfitter_cfg.c **** 			{0x1Bu, 0xD0u},
 334:Generated_Source\PSoC4/cyfitter_cfg.c **** 			{0x1Cu, 0xCDu},
 335:Generated_Source\PSoC4/cyfitter_cfg.c **** 			{0x1Du, 0x33u},
 336:Generated_Source\PSoC4/cyfitter_cfg.c **** 			{0x1Fu, 0xC4u},
 337:Generated_Source\PSoC4/cyfitter_cfg.c **** 			{0x20u, 0xCDu},
 338:Generated_Source\PSoC4/cyfitter_cfg.c **** 			{0x24u, 0x4Du},
 339:Generated_Source\PSoC4/cyfitter_cfg.c **** 			{0x26u, 0x80u},
 340:Generated_Source\PSoC4/cyfitter_cfg.c **** 			{0x28u, 0x12u},
 341:Generated_Source\PSoC4/cyfitter_cfg.c **** 			{0x2Au, 0x64u},
 342:Generated_Source\PSoC4/cyfitter_cfg.c **** 			{0x2Cu, 0x72u},
 343:Generated_Source\PSoC4/cyfitter_cfg.c **** 			{0x2Eu, 0x08u},
 344:Generated_Source\PSoC4/cyfitter_cfg.c **** 			{0x30u, 0x0Fu},
 345:Generated_Source\PSoC4/cyfitter_cfg.c **** 			{0x32u, 0x80u},
 346:Generated_Source\PSoC4/cyfitter_cfg.c **** 			{0x33u, 0x0Fu},
 347:Generated_Source\PSoC4/cyfitter_cfg.c **** 			{0x34u, 0x70u},
 348:Generated_Source\PSoC4/cyfitter_cfg.c **** 			{0x35u, 0xF0u},
 349:Generated_Source\PSoC4/cyfitter_cfg.c **** 			{0x39u, 0x08u},
 350:Generated_Source\PSoC4/cyfitter_cfg.c **** 			{0x3Au, 0x22u},
 351:Generated_Source\PSoC4/cyfitter_cfg.c **** 			{0x3Bu, 0x20u},
 352:Generated_Source\PSoC4/cyfitter_cfg.c **** 			{0x3Eu, 0x04u},
 353:Generated_Source\PSoC4/cyfitter_cfg.c **** 			{0x54u, 0x40u},
 354:Generated_Source\PSoC4/cyfitter_cfg.c **** 			{0x58u, 0x04u},
 355:Generated_Source\PSoC4/cyfitter_cfg.c **** 			{0x59u, 0x04u},
 356:Generated_Source\PSoC4/cyfitter_cfg.c **** 			{0x5Bu, 0x04u},
 357:Generated_Source\PSoC4/cyfitter_cfg.c **** 			{0x5Fu, 0x01u},
 358:Generated_Source\PSoC4/cyfitter_cfg.c **** 			{0x92u, 0x02u},
 359:Generated_Source\PSoC4/cyfitter_cfg.c **** 			{0xA2u, 0x03u},
 360:Generated_Source\PSoC4/cyfitter_cfg.c **** 			{0xAAu, 0x03u},
 361:Generated_Source\PSoC4/cyfitter_cfg.c **** 			{0xACu, 0x01u},
 362:Generated_Source\PSoC4/cyfitter_cfg.c **** 			{0xB0u, 0x03u},
 363:Generated_Source\PSoC4/cyfitter_cfg.c **** 			{0xB6u, 0x03u},
 364:Generated_Source\PSoC4/cyfitter_cfg.c **** 			{0xD8u, 0x04u},
 365:Generated_Source\PSoC4/cyfitter_cfg.c **** 			{0xDFu, 0x01u},
 366:Generated_Source\PSoC4/cyfitter_cfg.c **** 			{0x00u, 0x40u},
 367:Generated_Source\PSoC4/cyfitter_cfg.c **** 			{0x01u, 0x02u},
 368:Generated_Source\PSoC4/cyfitter_cfg.c **** 			{0x02u, 0x40u},
 369:Generated_Source\PSoC4/cyfitter_cfg.c **** 			{0x03u, 0x20u},
 370:Generated_Source\PSoC4/cyfitter_cfg.c **** 			{0x0Au, 0xA4u},
 371:Generated_Source\PSoC4/cyfitter_cfg.c **** 			{0x0Bu, 0x01u},
 372:Generated_Source\PSoC4/cyfitter_cfg.c **** 			{0x0Eu, 0x80u},
 373:Generated_Source\PSoC4/cyfitter_cfg.c **** 			{0x11u, 0x09u},
 374:Generated_Source\PSoC4/cyfitter_cfg.c **** 			{0x12u, 0x08u},
 375:Generated_Source\PSoC4/cyfitter_cfg.c **** 			{0x13u, 0x40u},
 376:Generated_Source\PSoC4/cyfitter_cfg.c **** 			{0x15u, 0x82u},
 377:Generated_Source\PSoC4/cyfitter_cfg.c **** 			{0x17u, 0x20u},
 378:Generated_Source\PSoC4/cyfitter_cfg.c **** 			{0x18u, 0x50u},
 379:Generated_Source\PSoC4/cyfitter_cfg.c **** 			{0x1Bu, 0x20u},
 380:Generated_Source\PSoC4/cyfitter_cfg.c **** 			{0x1Eu, 0x80u},
 381:Generated_Source\PSoC4/cyfitter_cfg.c **** 			{0x1Fu, 0x80u},
 382:Generated_Source\PSoC4/cyfitter_cfg.c **** 			{0x21u, 0x04u},
 383:Generated_Source\PSoC4/cyfitter_cfg.c **** 			{0x22u, 0x20u},
 384:Generated_Source\PSoC4/cyfitter_cfg.c **** 			{0x32u, 0x68u},
ARM GAS  C:\Users\jrdia\AppData\Local\Temp\ccYyoPsa.s 			page 9


 385:Generated_Source\PSoC4/cyfitter_cfg.c **** 			{0x39u, 0x0Au},
 386:Generated_Source\PSoC4/cyfitter_cfg.c **** 			{0x60u, 0x10u},
 387:Generated_Source\PSoC4/cyfitter_cfg.c **** 			{0x62u, 0x50u},
 388:Generated_Source\PSoC4/cyfitter_cfg.c **** 			{0xC0u, 0x0Du},
 389:Generated_Source\PSoC4/cyfitter_cfg.c **** 			{0xC2u, 0x1Fu},
 390:Generated_Source\PSoC4/cyfitter_cfg.c **** 			{0xC4u, 0xDFu},
 391:Generated_Source\PSoC4/cyfitter_cfg.c **** 			{0xCCu, 0x0Eu},
 392:Generated_Source\PSoC4/cyfitter_cfg.c **** 			{0xCEu, 0x03u},
 393:Generated_Source\PSoC4/cyfitter_cfg.c **** 			{0xD8u, 0x0Eu},
 394:Generated_Source\PSoC4/cyfitter_cfg.c **** 			{0x54u, 0x09u},
 395:Generated_Source\PSoC4/cyfitter_cfg.c **** 			{0x5Bu, 0x04u},
 396:Generated_Source\PSoC4/cyfitter_cfg.c **** 			{0x5Fu, 0x01u},
 397:Generated_Source\PSoC4/cyfitter_cfg.c **** 			{0x00u, 0x02u},
 398:Generated_Source\PSoC4/cyfitter_cfg.c **** 			{0x01u, 0x40u},
 399:Generated_Source\PSoC4/cyfitter_cfg.c **** 			{0x03u, 0x28u},
 400:Generated_Source\PSoC4/cyfitter_cfg.c **** 			{0x0Au, 0x24u},
 401:Generated_Source\PSoC4/cyfitter_cfg.c **** 			{0x0Bu, 0x41u},
 402:Generated_Source\PSoC4/cyfitter_cfg.c **** 			{0x11u, 0x01u},
 403:Generated_Source\PSoC4/cyfitter_cfg.c **** 			{0x12u, 0x09u},
 404:Generated_Source\PSoC4/cyfitter_cfg.c **** 			{0x18u, 0x40u},
 405:Generated_Source\PSoC4/cyfitter_cfg.c **** 			{0x19u, 0x10u},
 406:Generated_Source\PSoC4/cyfitter_cfg.c **** 			{0x1Au, 0x01u},
 407:Generated_Source\PSoC4/cyfitter_cfg.c **** 			{0x1Bu, 0x88u},
 408:Generated_Source\PSoC4/cyfitter_cfg.c **** 			{0x20u, 0x02u},
 409:Generated_Source\PSoC4/cyfitter_cfg.c **** 			{0x21u, 0x41u},
 410:Generated_Source\PSoC4/cyfitter_cfg.c **** 			{0x22u, 0x48u},
 411:Generated_Source\PSoC4/cyfitter_cfg.c **** 			{0x23u, 0x60u},
 412:Generated_Source\PSoC4/cyfitter_cfg.c **** 			{0x2Au, 0x42u},
 413:Generated_Source\PSoC4/cyfitter_cfg.c **** 			{0x2Bu, 0x20u},
 414:Generated_Source\PSoC4/cyfitter_cfg.c **** 			{0x30u, 0x02u},
 415:Generated_Source\PSoC4/cyfitter_cfg.c **** 			{0x32u, 0x48u},
 416:Generated_Source\PSoC4/cyfitter_cfg.c **** 			{0x39u, 0x15u},
 417:Generated_Source\PSoC4/cyfitter_cfg.c **** 			{0x3Bu, 0x40u},
 418:Generated_Source\PSoC4/cyfitter_cfg.c **** 			{0x40u, 0x08u},
 419:Generated_Source\PSoC4/cyfitter_cfg.c **** 			{0x41u, 0x01u},
 420:Generated_Source\PSoC4/cyfitter_cfg.c **** 			{0x43u, 0x80u},
 421:Generated_Source\PSoC4/cyfitter_cfg.c **** 			{0x48u, 0x01u},
 422:Generated_Source\PSoC4/cyfitter_cfg.c **** 			{0x49u, 0x0Au},
 423:Generated_Source\PSoC4/cyfitter_cfg.c **** 			{0x4Au, 0x08u},
 424:Generated_Source\PSoC4/cyfitter_cfg.c **** 			{0x52u, 0x51u},
 425:Generated_Source\PSoC4/cyfitter_cfg.c **** 			{0x5Cu, 0x40u},
 426:Generated_Source\PSoC4/cyfitter_cfg.c **** 			{0x5Du, 0x08u},
 427:Generated_Source\PSoC4/cyfitter_cfg.c **** 			{0x5Eu, 0x01u},
 428:Generated_Source\PSoC4/cyfitter_cfg.c **** 			{0x5Fu, 0x10u},
 429:Generated_Source\PSoC4/cyfitter_cfg.c **** 			{0x62u, 0x20u},
 430:Generated_Source\PSoC4/cyfitter_cfg.c **** 			{0x67u, 0x02u},
 431:Generated_Source\PSoC4/cyfitter_cfg.c **** 			{0x68u, 0x02u},
 432:Generated_Source\PSoC4/cyfitter_cfg.c **** 			{0x69u, 0x55u},
 433:Generated_Source\PSoC4/cyfitter_cfg.c **** 			{0x6Au, 0x24u},
 434:Generated_Source\PSoC4/cyfitter_cfg.c **** 			{0x72u, 0x02u},
 435:Generated_Source\PSoC4/cyfitter_cfg.c **** 			{0x73u, 0x01u},
 436:Generated_Source\PSoC4/cyfitter_cfg.c **** 			{0x80u, 0x02u},
 437:Generated_Source\PSoC4/cyfitter_cfg.c **** 			{0x81u, 0x04u},
 438:Generated_Source\PSoC4/cyfitter_cfg.c **** 			{0x88u, 0x08u},
 439:Generated_Source\PSoC4/cyfitter_cfg.c **** 			{0x8Au, 0x40u},
 440:Generated_Source\PSoC4/cyfitter_cfg.c **** 			{0x8Bu, 0x18u},
 441:Generated_Source\PSoC4/cyfitter_cfg.c **** 			{0x8Du, 0x10u},
ARM GAS  C:\Users\jrdia\AppData\Local\Temp\ccYyoPsa.s 			page 10


 442:Generated_Source\PSoC4/cyfitter_cfg.c **** 			{0x8Fu, 0x01u},
 443:Generated_Source\PSoC4/cyfitter_cfg.c **** 			{0x95u, 0x83u},
 444:Generated_Source\PSoC4/cyfitter_cfg.c **** 			{0x96u, 0xA4u},
 445:Generated_Source\PSoC4/cyfitter_cfg.c **** 			{0x97u, 0x41u},
 446:Generated_Source\PSoC4/cyfitter_cfg.c **** 			{0x9Du, 0x02u},
 447:Generated_Source\PSoC4/cyfitter_cfg.c **** 			{0x9Eu, 0x10u},
 448:Generated_Source\PSoC4/cyfitter_cfg.c **** 			{0x9Fu, 0x20u},
 449:Generated_Source\PSoC4/cyfitter_cfg.c **** 			{0xA2u, 0x20u},
 450:Generated_Source\PSoC4/cyfitter_cfg.c **** 			{0xA3u, 0x20u},
 451:Generated_Source\PSoC4/cyfitter_cfg.c **** 			{0xA5u, 0x04u},
 452:Generated_Source\PSoC4/cyfitter_cfg.c **** 			{0xA6u, 0x08u},
 453:Generated_Source\PSoC4/cyfitter_cfg.c **** 			{0xAFu, 0x80u},
 454:Generated_Source\PSoC4/cyfitter_cfg.c **** 			{0xC0u, 0x0Fu},
 455:Generated_Source\PSoC4/cyfitter_cfg.c **** 			{0xC2u, 0x0Fu},
 456:Generated_Source\PSoC4/cyfitter_cfg.c **** 			{0xC4u, 0x0Bu},
 457:Generated_Source\PSoC4/cyfitter_cfg.c **** 			{0xCAu, 0x0Bu},
 458:Generated_Source\PSoC4/cyfitter_cfg.c **** 			{0xCCu, 0x0Bu},
 459:Generated_Source\PSoC4/cyfitter_cfg.c **** 			{0xCEu, 0x0Fu},
 460:Generated_Source\PSoC4/cyfitter_cfg.c **** 			{0xD0u, 0x0Du},
 461:Generated_Source\PSoC4/cyfitter_cfg.c **** 			{0xD2u, 0x0Cu},
 462:Generated_Source\PSoC4/cyfitter_cfg.c **** 			{0xD6u, 0xF0u},
 463:Generated_Source\PSoC4/cyfitter_cfg.c **** 			{0xD8u, 0x14u},
 464:Generated_Source\PSoC4/cyfitter_cfg.c **** 			{0x63u, 0x02u},
 465:Generated_Source\PSoC4/cyfitter_cfg.c **** 			{0xD6u, 0x40u},
 466:Generated_Source\PSoC4/cyfitter_cfg.c **** 			{0xAFu, 0x01u},
 467:Generated_Source\PSoC4/cyfitter_cfg.c **** 			{0xEEu, 0x10u},
 468:Generated_Source\PSoC4/cyfitter_cfg.c **** 			{0x05u, 0x08u},
 469:Generated_Source\PSoC4/cyfitter_cfg.c **** 			{0x5Cu, 0x80u},
 470:Generated_Source\PSoC4/cyfitter_cfg.c **** 			{0x88u, 0x80u},
 471:Generated_Source\PSoC4/cyfitter_cfg.c **** 			{0x89u, 0x08u},
 472:Generated_Source\PSoC4/cyfitter_cfg.c **** 			{0xC0u, 0x04u},
 473:Generated_Source\PSoC4/cyfitter_cfg.c **** 			{0xD6u, 0x04u},
 474:Generated_Source\PSoC4/cyfitter_cfg.c **** 			{0xE0u, 0x04u},
 475:Generated_Source\PSoC4/cyfitter_cfg.c **** 			{0xE2u, 0x01u},
 476:Generated_Source\PSoC4/cyfitter_cfg.c **** 			{0x10u, 0x01u},
 477:Generated_Source\PSoC4/cyfitter_cfg.c **** 			{0x11u, 0x01u},
 478:Generated_Source\PSoC4/cyfitter_cfg.c **** 		};
 479:Generated_Source\PSoC4/cyfitter_cfg.c **** 
 480:Generated_Source\PSoC4/cyfitter_cfg.c **** 
 481:Generated_Source\PSoC4/cyfitter_cfg.c **** 
 482:Generated_Source\PSoC4/cyfitter_cfg.c **** 		CYPACKED typedef struct {
 483:Generated_Source\PSoC4/cyfitter_cfg.c **** 			void CYFAR *address;
 484:Generated_Source\PSoC4/cyfitter_cfg.c **** 			uint16 size;
 485:Generated_Source\PSoC4/cyfitter_cfg.c **** 		} CYPACKED_ATTR cfg_memset_t;
 486:Generated_Source\PSoC4/cyfitter_cfg.c **** 
 487:Generated_Source\PSoC4/cyfitter_cfg.c **** 
 488:Generated_Source\PSoC4/cyfitter_cfg.c **** 		CYPACKED typedef struct {
 489:Generated_Source\PSoC4/cyfitter_cfg.c **** 			void CYFAR *dest;
 490:Generated_Source\PSoC4/cyfitter_cfg.c **** 			const void CYCODE *src;
 491:Generated_Source\PSoC4/cyfitter_cfg.c **** 			uint16 size;
 492:Generated_Source\PSoC4/cyfitter_cfg.c **** 		} CYPACKED_ATTR cfg_memcpy_t;
 493:Generated_Source\PSoC4/cyfitter_cfg.c **** 
 494:Generated_Source\PSoC4/cyfitter_cfg.c **** 		static const cfg_memset_t CYCODE cfg_memset_list[] = {
 495:Generated_Source\PSoC4/cyfitter_cfg.c **** 			/* address, size */
 496:Generated_Source\PSoC4/cyfitter_cfg.c **** 			{(void CYFAR *)(CYDEV_UDB_P0_U0_BASE), 640u},
 497:Generated_Source\PSoC4/cyfitter_cfg.c **** 			{(void CYFAR *)(CYDEV_UDB_P1_ROUTE_BASE), 256u},
 498:Generated_Source\PSoC4/cyfitter_cfg.c **** 			{(void CYFAR *)(CYDEV_UDB_DSI0_BASE), 1024u},
ARM GAS  C:\Users\jrdia\AppData\Local\Temp\ccYyoPsa.s 			page 11


 499:Generated_Source\PSoC4/cyfitter_cfg.c **** 		};
 500:Generated_Source\PSoC4/cyfitter_cfg.c **** 
 501:Generated_Source\PSoC4/cyfitter_cfg.c **** 		/* UDB_0_0_0_CONFIG Address: CYDEV_UDB_P1_U1_BASE Size (bytes): 128 */
 502:Generated_Source\PSoC4/cyfitter_cfg.c **** 		static const uint8 CYCODE BS_UDB_0_0_0_CONFIG_VAL[] = {
 503:Generated_Source\PSoC4/cyfitter_cfg.c **** 			0x07u, 0x1Au, 0x38u, 0x00u, 0x04u, 0x18u, 0x00u, 0x02u, 0x01u, 0x02u, 0x00u, 0x18u, 0x04u, 0x9Cu
 504:Generated_Source\PSoC4/cyfitter_cfg.c **** 			0x56u, 0x18u, 0x09u, 0x02u, 0x80u, 0xC1u, 0x04u, 0x38u, 0x84u, 0x00u, 0x00u, 0x00u, 0x84u, 0x33u
 505:Generated_Source\PSoC4/cyfitter_cfg.c **** 			0x84u, 0x1Au, 0x00u, 0x00u, 0x00u, 0x18u, 0x00u, 0x00u, 0x0Au, 0x00u, 0x10u, 0x00u, 0x60u, 0x82u
 506:Generated_Source\PSoC4/cyfitter_cfg.c **** 			0x08u, 0xE0u, 0x7Fu, 0x0Fu, 0x02u, 0x00u, 0x80u, 0x13u, 0x08u, 0x00u, 0x00u, 0x0Au, 0x00u, 0x00u
 507:Generated_Source\PSoC4/cyfitter_cfg.c **** 			0x64u, 0x05u, 0x10u, 0x00u, 0x02u, 0xDEu, 0xFCu, 0xB0u, 0x2Fu, 0xFFu, 0xFFu, 0xFFu, 0x22u, 0x00u
 508:Generated_Source\PSoC4/cyfitter_cfg.c **** 			0x04u, 0x00u, 0x00u, 0x00u, 0x00u, 0x00u, 0x02u, 0x24u, 0x04u, 0x04u, 0x04u, 0x04u, 0x00u, 0x00u
 509:Generated_Source\PSoC4/cyfitter_cfg.c **** 			0x00u, 0x00u, 0xC0u, 0x00u, 0x40u, 0x01u, 0x10u, 0x11u, 0xC0u, 0x01u, 0x00u, 0x11u, 0x40u, 0x01u
 510:Generated_Source\PSoC4/cyfitter_cfg.c **** 			0x00u, 0x00u, 0x00u, 0x00u, 0x00u, 0x00u, 0x00u, 0x00u, 0x00u, 0x00u, 0x00u, 0x00u, 0x00u, 0x00u
 511:Generated_Source\PSoC4/cyfitter_cfg.c **** 
 512:Generated_Source\PSoC4/cyfitter_cfg.c **** 		static const cfg_memcpy_t CYCODE cfg_memcpy_list [] = {
 513:Generated_Source\PSoC4/cyfitter_cfg.c **** 			/* dest, src, size */
 514:Generated_Source\PSoC4/cyfitter_cfg.c **** 			{(void CYFAR *)(CYDEV_UDB_P1_U1_BASE), BS_UDB_0_0_0_CONFIG_VAL, 128u},
 515:Generated_Source\PSoC4/cyfitter_cfg.c **** 		};
 516:Generated_Source\PSoC4/cyfitter_cfg.c **** 
 517:Generated_Source\PSoC4/cyfitter_cfg.c **** 		uint8 CYDATA i;
 518:Generated_Source\PSoC4/cyfitter_cfg.c **** 
 519:Generated_Source\PSoC4/cyfitter_cfg.c **** 		/* Zero out critical memory blocks before beginning configuration */
 520:Generated_Source\PSoC4/cyfitter_cfg.c **** 		for (i = 0u; i < (sizeof(cfg_memset_list)/sizeof(cfg_memset_list[0])); i++)
  72              		.loc 1 520 0
  73 001e 032D     		cmp	r5, #3
  74 0020 0FD0     		beq	.L2
  75              	.LVL4:
  76              	.L13:
  77 0022 6B00     		lsls	r3, r5, #1
  78 0024 5B19     		adds	r3, r3, r5
  79 0026 5B00     		lsls	r3, r3, #1
  80 0028 E25A     		ldrh	r2, [r4, r3]
  81 002a E318     		adds	r3, r4, r3
  82 002c 5888     		ldrh	r0, [r3, #2]
  83              	.LBB32:
  84              	.LBB31:
  85              	.LBB30:
  78:Generated_Source\PSoC4/cyfitter_cfg.c **** }
  86              		.loc 1 78 0
  87 002e 0021     		movs	r1, #0
  88 0030 0004     		lsls	r0, r0, #16
  89 0032 1043     		orrs	r0, r2
  90 0034 0135     		adds	r5, r5, #1
  91              	.LVL5:
  92 0036 B288     		ldrh	r2, [r6, #4]
  93              	.LVL6:
  94 0038 FFF7FEFF 		bl	memset
  95              	.LVL7:
  96 003c 0636     		adds	r6, r6, #6
  97              	.LBE30:
  98              	.LBE31:
  99              	.LBE32:
 100              		.loc 1 520 0
 101 003e 032D     		cmp	r5, #3
 102 0040 EFD1     		bne	.L13
 103              	.L2:
 104              	.LVL8:
 105              	.LBB33:
ARM GAS  C:\Users\jrdia\AppData\Local\Temp\ccYyoPsa.s 			page 12


 106              	.LBB34:
 107              	.LBB35:
  92:Generated_Source\PSoC4/cyfitter_cfg.c **** }
 108              		.loc 1 92 0 discriminator 3
 109 0042 2100     		movs	r1, r4
 110 0044 8022     		movs	r2, #128
 111 0046 1431     		adds	r1, r1, #20
 112 0048 4848     		ldr	r0, .L14+8
 113 004a FFF7FEFF 		bl	memcpy
 114              	.LVL9:
 115              	.LBE35:
 116              	.LBE34:
 117              	.LBE33:
 118              	.LBB40:
 119              	.LBB41:
 120              	.LBB42:
 185:Generated_Source\PSoC4/cyfitter_cfg.c **** 		while (count != 0u)
 121              		.loc 1 185 0 discriminator 3
 122 004e FF23     		movs	r3, #255
 123 0050 474D     		ldr	r5, .L14+12
 124              	.LBE42:
 125              	.LBE41:
 126              	.LBE40:
 127              	.LBB47:
 128              	.LBB38:
 129              	.LBB36:
  92:Generated_Source\PSoC4/cyfitter_cfg.c **** }
 130              		.loc 1 92 0 discriminator 3
 131 0052 0026     		movs	r6, #0
 132 0054 2F00     		movs	r7, r5
 133 0056 3835     		adds	r5, r5, #56
 134              	.LBE36:
 135              	.LBE38:
 136              	.LBE47:
 137              	.LBB48:
 138              	.LBB45:
 139              	.LBB43:
 185:Generated_Source\PSoC4/cyfitter_cfg.c **** 		while (count != 0u)
 140              		.loc 1 185 0 discriminator 3
 141 0058 9846     		mov	r8, r3
 142 005a AC46     		mov	ip, r5
 143              	.LBE43:
 144              	.LBE45:
 145              	.LBE48:
 146              	.LBB49:
 147              	.LBB39:
 148              	.LBB37:
  92:Generated_Source\PSoC4/cyfitter_cfg.c **** }
 149              		.loc 1 92 0 discriminator 3
 150 005c 4548     		ldr	r0, .L14+16
 151 005e 1837     		adds	r7, r7, #24
 152              	.LVL10:
 153              	.L7:
 154              	.LBE37:
 155              	.LBE39:
 156              	.LBE49:
 157              	.LBB50:
ARM GAS  C:\Users\jrdia\AppData\Local\Temp\ccYyoPsa.s 			page 13


 158              	.LBB46:
 159              	.LBB44:
 185:Generated_Source\PSoC4/cyfitter_cfg.c **** 		while (count != 0u)
 160              		.loc 1 185 0
 161 0060 4346     		mov	r3, r8
 184:Generated_Source\PSoC4/cyfitter_cfg.c **** 		baseAddr &= 0xFFFFFF00u;
 162              		.loc 1 184 0
 163 0062 C2B2     		uxtb	r2, r0
 164              	.LVL11:
 185:Generated_Source\PSoC4/cyfitter_cfg.c **** 		while (count != 0u)
 165              		.loc 1 185 0
 166 0064 9843     		bics	r0, r3
 167              	.LVL12:
 186:Generated_Source\PSoC4/cyfitter_cfg.c **** 		{
 168              		.loc 1 186 0
 169 0066 002A     		cmp	r2, #0
 170 0068 0ED0     		beq	.L4
 171 006a 013A     		subs	r2, r2, #1
 172              	.LVL13:
 173 006c 7300     		lsls	r3, r6, #1
 174 006e D2B2     		uxtb	r2, r2
 175              	.LVL14:
 176 0070 0136     		adds	r6, r6, #1
 177              	.LVL15:
 178 0072 9619     		adds	r6, r2, r6
 179              	.LVL16:
 180 0074 7400     		lsls	r4, r6, #1
 181 0076 6344     		add	r3, r3, ip
 182 0078 6444     		add	r4, r4, ip
 183              	.L5:
 188:Generated_Source\PSoC4/cyfitter_cfg.c **** 			j++;
 184              		.loc 1 188 0
 185 007a 1A78     		ldrb	r2, [r3]
 186 007c 5978     		ldrb	r1, [r3, #1]
 187 007e 1218     		adds	r2, r2, r0
 188 0080 0233     		adds	r3, r3, #2
 189 0082 1170     		strb	r1, [r2]
 186:Generated_Source\PSoC4/cyfitter_cfg.c **** 		{
 190              		.loc 1 186 0
 191 0084 9C42     		cmp	r4, r3
 192 0086 F8D1     		bne	.L5
 193              	.L4:
 194              	.LVL17:
 195              	.LBE44:
 181:Generated_Source\PSoC4/cyfitter_cfg.c **** 	{
 196              		.loc 1 181 0
 197 0088 BD42     		cmp	r5, r7
 198 008a 01D0     		beq	.L6
 199 008c 01CF     		ldmia	r7!, {r0}
 200              	.LVL18:
 201 008e E7E7     		b	.L7
 202              	.LVL19:
 203              	.L6:
 204              	.LBE46:
 205              	.LBE50:
 521:Generated_Source\PSoC4/cyfitter_cfg.c **** 		{
 522:Generated_Source\PSoC4/cyfitter_cfg.c **** 			const cfg_memset_t CYCODE * CYDATA ms = &cfg_memset_list[i];
ARM GAS  C:\Users\jrdia\AppData\Local\Temp\ccYyoPsa.s 			page 14


 523:Generated_Source\PSoC4/cyfitter_cfg.c **** 			CYMEMZERO(ms->address, (size_t)(uint32)(ms->size));
 524:Generated_Source\PSoC4/cyfitter_cfg.c **** 		}
 525:Generated_Source\PSoC4/cyfitter_cfg.c **** 
 526:Generated_Source\PSoC4/cyfitter_cfg.c **** 		/* Copy device configuration data into registers */
 527:Generated_Source\PSoC4/cyfitter_cfg.c **** 		for (i = 0u; i < (sizeof(cfg_memcpy_list)/sizeof(cfg_memcpy_list[0])); i++)
 528:Generated_Source\PSoC4/cyfitter_cfg.c **** 		{
 529:Generated_Source\PSoC4/cyfitter_cfg.c **** 			const cfg_memcpy_t CYCODE * CYDATA mc = &cfg_memcpy_list[i];
 530:Generated_Source\PSoC4/cyfitter_cfg.c **** 			void * CYDATA destPtr = mc->dest;
 531:Generated_Source\PSoC4/cyfitter_cfg.c **** 			const void CYCODE * CYDATA srcPtr = mc->src;
 532:Generated_Source\PSoC4/cyfitter_cfg.c **** 			uint16 CYDATA numBytes = mc->size;
 533:Generated_Source\PSoC4/cyfitter_cfg.c **** 			CYCONFIGCPYCODE(destPtr, srcPtr, numBytes);
 534:Generated_Source\PSoC4/cyfitter_cfg.c **** 		}
 535:Generated_Source\PSoC4/cyfitter_cfg.c **** 
 536:Generated_Source\PSoC4/cyfitter_cfg.c **** 		cfg_write_bytes32(cy_cfg_addr_table, cy_cfg_data_table);
 537:Generated_Source\PSoC4/cyfitter_cfg.c **** 
 538:Generated_Source\PSoC4/cyfitter_cfg.c **** 		/* Perform normal device configuration. Order is not critical for these items. */
 539:Generated_Source\PSoC4/cyfitter_cfg.c **** 		CY_SET_REG16((void *)(CYREG_UDB_BCTL0_DRV), 0x0100u);
 206              		.loc 1 539 0
 207 0090 8022     		movs	r2, #128
 208 0092 394B     		ldr	r3, .L14+20
 209 0094 5200     		lsls	r2, r2, #1
 210 0096 1A80     		strh	r2, [r3]
 540:Generated_Source\PSoC4/cyfitter_cfg.c **** 		CY_SET_REG8((void *)(CYREG_UDB_BCTL0_DRV + 0x2u), 0x01u);
 211              		.loc 1 540 0
 212 0098 384B     		ldr	r3, .L14+24
 213 009a FF3A     		subs	r2, r2, #255
 214 009c 1A70     		strb	r2, [r3]
 541:Generated_Source\PSoC4/cyfitter_cfg.c **** 
 542:Generated_Source\PSoC4/cyfitter_cfg.c **** 		/* HSIOM Starting address: CYDEV_HSIOM_BASE */
 543:Generated_Source\PSoC4/cyfitter_cfg.c **** 		CY_SET_REG32((void *)(CYDEV_HSIOM_BASE), 0x03990000u);
 215              		.loc 1 543 0
 216 009e 384A     		ldr	r2, .L14+28
 217 00a0 384B     		ldr	r3, .L14+32
 544:Generated_Source\PSoC4/cyfitter_cfg.c **** 		CY_SET_REG32((void *)(CYREG_HSIOM_PORT_SEL3), 0x0000EE03u);
 545:Generated_Source\PSoC4/cyfitter_cfg.c **** 
 546:Generated_Source\PSoC4/cyfitter_cfg.c **** 		/* UDB_PA_0 Starting address: CYDEV_UDB_PA0_BASE */
 547:Generated_Source\PSoC4/cyfitter_cfg.c **** 		CY_SET_REG32((void *)(CYDEV_UDB_PA0_BASE), 0x00990000u);
 548:Generated_Source\PSoC4/cyfitter_cfg.c **** 		CY_SET_REG32((void *)(CYREG_UDB_PA0_CFG8), 0x45000000u);
 218              		.loc 1 548 0
 219 00a2 8A21     		movs	r1, #138
 543:Generated_Source\PSoC4/cyfitter_cfg.c **** 		CY_SET_REG32((void *)(CYREG_HSIOM_PORT_SEL3), 0x0000EE03u);
 220              		.loc 1 543 0
 221 00a4 1A60     		str	r2, [r3]
 544:Generated_Source\PSoC4/cyfitter_cfg.c **** 		CY_SET_REG32((void *)(CYREG_HSIOM_PORT_SEL3), 0x0000EE03u);
 222              		.loc 1 544 0
 223 00a6 384A     		ldr	r2, .L14+36
 224 00a8 384B     		ldr	r3, .L14+40
 225              		.loc 1 548 0
 226 00aa C905     		lsls	r1, r1, #23
 544:Generated_Source\PSoC4/cyfitter_cfg.c **** 		CY_SET_REG32((void *)(CYREG_HSIOM_PORT_SEL3), 0x0000EE03u);
 227              		.loc 1 544 0
 228 00ac 1A60     		str	r2, [r3]
 547:Generated_Source\PSoC4/cyfitter_cfg.c **** 		CY_SET_REG32((void *)(CYREG_UDB_PA0_CFG8), 0x45000000u);
 229              		.loc 1 547 0
 230 00ae 9923     		movs	r3, #153
 231 00b0 374A     		ldr	r2, .L14+44
 232 00b2 1B04     		lsls	r3, r3, #16
ARM GAS  C:\Users\jrdia\AppData\Local\Temp\ccYyoPsa.s 			page 15


 233 00b4 1360     		str	r3, [r2]
 234              		.loc 1 548 0
 235 00b6 374A     		ldr	r2, .L14+48
 236              	.LBE26:
 549:Generated_Source\PSoC4/cyfitter_cfg.c **** 
 550:Generated_Source\PSoC4/cyfitter_cfg.c **** 		/* UDB_PA_3 Starting address: CYDEV_UDB_PA3_BASE */
 551:Generated_Source\PSoC4/cyfitter_cfg.c **** 		CY_SET_REG32((void *)(CYDEV_UDB_PA3_BASE), 0x00990000u);
 552:Generated_Source\PSoC4/cyfitter_cfg.c **** 		CY_SET_REG32((void *)(CYREG_UDB_PA3_CFG8), 0x00030000u);
 553:Generated_Source\PSoC4/cyfitter_cfg.c **** 
 554:Generated_Source\PSoC4/cyfitter_cfg.c **** 		/* Enable UDB array and digital routing */
 555:Generated_Source\PSoC4/cyfitter_cfg.c **** 		CY_SET_XTND_REG8((void *)CYREG_UDB_UDBIF_WAIT_CFG, (uint8)((CY_GET_XTND_REG8((void *)CYREG_UDB_UD
 556:Generated_Source\PSoC4/cyfitter_cfg.c **** 		CY_SET_XTND_REG8((void *)CYREG_UDB_UDBIF_BANK_CTL, (uint8)(CY_GET_XTND_REG8((void *)CYREG_UDB_UDB
 557:Generated_Source\PSoC4/cyfitter_cfg.c **** 	}
 558:Generated_Source\PSoC4/cyfitter_cfg.c **** 
 559:Generated_Source\PSoC4/cyfitter_cfg.c **** 	/* Perform second pass device configuration. These items must be configured in specific order afte
 560:Generated_Source\PSoC4/cyfitter_cfg.c **** 	/* IOPINS0_0 Starting address: CYDEV_PRT0_BASE */
 561:Generated_Source\PSoC4/cyfitter_cfg.c **** 	CY_SET_REG32((void *)(CYDEV_PRT0_BASE), 0x00000060u);
 562:Generated_Source\PSoC4/cyfitter_cfg.c **** 	CY_SET_REG32((void *)(CYREG_PRT0_PC), 0x001B1000u);
 563:Generated_Source\PSoC4/cyfitter_cfg.c **** 	CY_SET_REG32((void *)(CYREG_PRT0_PC2), 0x00000020u);
 237              		.loc 1 563 0
 238 00b8 2025     		movs	r5, #32
 239              	.LBB51:
 548:Generated_Source\PSoC4/cyfitter_cfg.c **** 
 240              		.loc 1 548 0
 241 00ba 1160     		str	r1, [r2]
 551:Generated_Source\PSoC4/cyfitter_cfg.c **** 		CY_SET_REG32((void *)(CYREG_UDB_PA3_CFG8), 0x00030000u);
 242              		.loc 1 551 0
 243 00bc 364A     		ldr	r2, .L14+52
 555:Generated_Source\PSoC4/cyfitter_cfg.c **** 		CY_SET_XTND_REG8((void *)CYREG_UDB_UDBIF_BANK_CTL, (uint8)(CY_GET_XTND_REG8((void *)CYREG_UDB_UDB
 244              		.loc 1 555 0
 245 00be 3749     		ldr	r1, .L14+56
 551:Generated_Source\PSoC4/cyfitter_cfg.c **** 		CY_SET_REG32((void *)(CYREG_UDB_PA3_CFG8), 0x00030000u);
 246              		.loc 1 551 0
 247 00c0 1360     		str	r3, [r2]
 552:Generated_Source\PSoC4/cyfitter_cfg.c **** 
 248              		.loc 1 552 0
 249 00c2 C022     		movs	r2, #192
 250 00c4 364B     		ldr	r3, .L14+60
 251 00c6 9202     		lsls	r2, r2, #10
 252 00c8 1A60     		str	r2, [r3]
 555:Generated_Source\PSoC4/cyfitter_cfg.c **** 		CY_SET_XTND_REG8((void *)CYREG_UDB_UDBIF_BANK_CTL, (uint8)(CY_GET_XTND_REG8((void *)CYREG_UDB_UDB
 253              		.loc 1 555 0
 254 00ca 3C22     		movs	r2, #60
 255 00cc 0B78     		ldrb	r3, [r1]
 256              	.LBE51:
 257              	.LBB52:
 258              	.LBB53:
 217:Generated_Source\PSoC4/cyfitter_cfg.c **** 
 259              		.loc 1 217 0
 260 00ce 354C     		ldr	r4, .L14+64
 261              	.LBE53:
 262              	.LBE52:
 263              	.LBB56:
 555:Generated_Source\PSoC4/cyfitter_cfg.c **** 		CY_SET_XTND_REG8((void *)CYREG_UDB_UDBIF_BANK_CTL, (uint8)(CY_GET_XTND_REG8((void *)CYREG_UDB_UDB
 264              		.loc 1 555 0
 265 00d0 9343     		bics	r3, r2
 266 00d2 283A     		subs	r2, r2, #40
ARM GAS  C:\Users\jrdia\AppData\Local\Temp\ccYyoPsa.s 			page 16


 267 00d4 1343     		orrs	r3, r2
 268 00d6 0B70     		strb	r3, [r1]
 556:Generated_Source\PSoC4/cyfitter_cfg.c **** 	}
 269              		.loc 1 556 0
 270 00d8 1623     		movs	r3, #22
 271 00da 334A     		ldr	r2, .L14+68
 272              	.LBE56:
 273              	.LBB57:
 274              	.LBB54:
 220:Generated_Source\PSoC4/cyfitter_cfg.c **** 
 275              		.loc 1 220 0
 276 00dc 1820     		movs	r0, #24
 277              	.LBE54:
 278              	.LBE57:
 279              	.LBB58:
 556:Generated_Source\PSoC4/cyfitter_cfg.c **** 	}
 280              		.loc 1 556 0
 281 00de 1178     		ldrb	r1, [r2]
 282              	.LBE58:
 564:Generated_Source\PSoC4/cyfitter_cfg.c **** 
 565:Generated_Source\PSoC4/cyfitter_cfg.c **** 	/* IOPINS0_3 Starting address: CYDEV_PRT3_BASE */
 566:Generated_Source\PSoC4/cyfitter_cfg.c **** 	CY_SET_REG32((void *)(CYDEV_PRT3_BASE), 0x00000043u);
 567:Generated_Source\PSoC4/cyfitter_cfg.c **** 	CY_SET_REG32((void *)(CYREG_PRT3_PC), 0x00086D96u);
 568:Generated_Source\PSoC4/cyfitter_cfg.c **** 
 569:Generated_Source\PSoC4/cyfitter_cfg.c **** 
 570:Generated_Source\PSoC4/cyfitter_cfg.c **** 	/* Setup clocks based on selections from Clock DWR */
 571:Generated_Source\PSoC4/cyfitter_cfg.c **** 	ClockSetup();
 572:Generated_Source\PSoC4/cyfitter_cfg.c **** 
 573:Generated_Source\PSoC4/cyfitter_cfg.c **** 	/* Perform basic analog initialization to defaults */
 574:Generated_Source\PSoC4/cyfitter_cfg.c **** 	AnalogSetDefault();
 575:Generated_Source\PSoC4/cyfitter_cfg.c **** 
 576:Generated_Source\PSoC4/cyfitter_cfg.c **** }
 283              		.loc 1 576 0
 284              		@ sp needed
 285              	.LBB59:
 556:Generated_Source\PSoC4/cyfitter_cfg.c **** 	}
 286              		.loc 1 556 0
 287 00e0 0B43     		orrs	r3, r1
 288 00e2 1370     		strb	r3, [r2]
 289              	.LBE59:
 561:Generated_Source\PSoC4/cyfitter_cfg.c **** 	CY_SET_REG32((void *)(CYREG_PRT0_PC), 0x001B1000u);
 290              		.loc 1 561 0
 291 00e4 6022     		movs	r2, #96
 292 00e6 314B     		ldr	r3, .L14+72
 293 00e8 1A60     		str	r2, [r3]
 562:Generated_Source\PSoC4/cyfitter_cfg.c **** 	CY_SET_REG32((void *)(CYREG_PRT0_PC2), 0x00000020u);
 294              		.loc 1 562 0
 295 00ea 314A     		ldr	r2, .L14+76
 296 00ec 314B     		ldr	r3, .L14+80
 297 00ee 1A60     		str	r2, [r3]
 566:Generated_Source\PSoC4/cyfitter_cfg.c **** 	CY_SET_REG32((void *)(CYREG_PRT3_PC), 0x00086D96u);
 298              		.loc 1 566 0
 299 00f0 4322     		movs	r2, #67
 563:Generated_Source\PSoC4/cyfitter_cfg.c **** 
 300              		.loc 1 563 0
 301 00f2 314B     		ldr	r3, .L14+84
 302 00f4 1D60     		str	r5, [r3]
ARM GAS  C:\Users\jrdia\AppData\Local\Temp\ccYyoPsa.s 			page 17


 566:Generated_Source\PSoC4/cyfitter_cfg.c **** 	CY_SET_REG32((void *)(CYREG_PRT3_PC), 0x00086D96u);
 303              		.loc 1 566 0
 304 00f6 314B     		ldr	r3, .L14+88
 305 00f8 1A60     		str	r2, [r3]
 567:Generated_Source\PSoC4/cyfitter_cfg.c **** 
 306              		.loc 1 567 0
 307 00fa 314A     		ldr	r2, .L14+92
 308 00fc 314B     		ldr	r3, .L14+96
 309 00fe 1A60     		str	r2, [r3]
 310              	.LBB60:
 311              	.LBB55:
 217:Generated_Source\PSoC4/cyfitter_cfg.c **** 
 312              		.loc 1 217 0
 313 0100 8022     		movs	r2, #128
 314 0102 2368     		ldr	r3, [r4]
 315 0104 D202     		lsls	r2, r2, #11
 316 0106 1343     		orrs	r3, r2
 317 0108 2360     		str	r3, [r4]
 220:Generated_Source\PSoC4/cyfitter_cfg.c **** 
 318              		.loc 1 220 0
 319 010a FFF7FEFF 		bl	CySysClkWriteImoFreq
 320              	.LVL20:
 223:Generated_Source\PSoC4/cyfitter_cfg.c **** 	/* CYDEV_CLK_ILO_CONFIG Starting address: CYDEV_CLK_ILO_CONFIG */
 321              		.loc 1 223 0
 322 010e 2268     		ldr	r2, [r4]
 323 0110 2D4B     		ldr	r3, .L14+100
 248:Generated_Source\PSoC4/cyfitter_cfg.c **** 	CyIntEnable(9u);
 324              		.loc 1 248 0
 325 0112 2E49     		ldr	r1, .L14+104
 223:Generated_Source\PSoC4/cyfitter_cfg.c **** 	/* CYDEV_CLK_ILO_CONFIG Starting address: CYDEV_CLK_ILO_CONFIG */
 326              		.loc 1 223 0
 327 0114 1340     		ands	r3, r2
 328 0116 2360     		str	r3, [r4]
 225:Generated_Source\PSoC4/cyfitter_cfg.c **** 
 329              		.loc 1 225 0
 330 0118 2D4A     		ldr	r2, .L14+108
 331 011a 2E4B     		ldr	r3, .L14+112
 248:Generated_Source\PSoC4/cyfitter_cfg.c **** 	CyIntEnable(9u);
 332              		.loc 1 248 0
 333 011c 0920     		movs	r0, #9
 225:Generated_Source\PSoC4/cyfitter_cfg.c **** 
 334              		.loc 1 225 0
 335 011e 1A60     		str	r2, [r3]
 230:Generated_Source\PSoC4/cyfitter_cfg.c **** 	CY_SET_REG32((void *)(CYREG_CLK_SELECT12), 0x00000010u);
 336              		.loc 1 230 0
 337 0120 3022     		movs	r2, #48
 229:Generated_Source\PSoC4/cyfitter_cfg.c **** 	CY_SET_REG32((void *)(CYREG_CLK_SELECT08), 0x00000030u);
 338              		.loc 1 229 0
 339 0122 2D4B     		ldr	r3, .L14+116
 340 0124 1D60     		str	r5, [r3]
 230:Generated_Source\PSoC4/cyfitter_cfg.c **** 	CY_SET_REG32((void *)(CYREG_CLK_SELECT12), 0x00000010u);
 341              		.loc 1 230 0
 342 0126 2D4B     		ldr	r3, .L14+120
 237:Generated_Source\PSoC4/cyfitter_cfg.c **** 
 343              		.loc 1 237 0
 344 0128 0025     		movs	r5, #0
 230:Generated_Source\PSoC4/cyfitter_cfg.c **** 	CY_SET_REG32((void *)(CYREG_CLK_SELECT12), 0x00000010u);
ARM GAS  C:\Users\jrdia\AppData\Local\Temp\ccYyoPsa.s 			page 18


 345              		.loc 1 230 0
 346 012a 1A60     		str	r2, [r3]
 231:Generated_Source\PSoC4/cyfitter_cfg.c **** 
 347              		.loc 1 231 0
 348 012c 2C4B     		ldr	r3, .L14+124
 349 012e 203A     		subs	r2, r2, #32
 350 0130 1A60     		str	r2, [r3]
 234:Generated_Source\PSoC4/cyfitter_cfg.c **** 
 351              		.loc 1 234 0
 352 0132 8022     		movs	r2, #128
 353 0134 2B4B     		ldr	r3, .L14+128
 354 0136 1206     		lsls	r2, r2, #24
 355 0138 1A60     		str	r2, [r3]
 240:Generated_Source\PSoC4/cyfitter_cfg.c **** 
 356              		.loc 1 240 0
 357 013a 2B4A     		ldr	r2, .L14+132
 358 013c 2B4B     		ldr	r3, .L14+136
 237:Generated_Source\PSoC4/cyfitter_cfg.c **** 
 359              		.loc 1 237 0
 360 013e 2560     		str	r5, [r4]
 240:Generated_Source\PSoC4/cyfitter_cfg.c **** 
 361              		.loc 1 240 0
 362 0140 1A60     		str	r2, [r3]
 243:Generated_Source\PSoC4/cyfitter_cfg.c **** 
 363              		.loc 1 243 0
 364 0142 2B4A     		ldr	r2, .L14+140
 365 0144 2B4B     		ldr	r3, .L14+144
 366 0146 1A60     		str	r2, [r3]
 246:Generated_Source\PSoC4/cyfitter_cfg.c **** 
 367              		.loc 1 246 0
 368 0148 2B4A     		ldr	r2, .L14+148
 369 014a 2C4B     		ldr	r3, .L14+152
 370 014c 1A60     		str	r2, [r3]
 248:Generated_Source\PSoC4/cyfitter_cfg.c **** 	CyIntEnable(9u);
 371              		.loc 1 248 0
 372 014e FFF7FEFF 		bl	CyIntSetVector
 373              	.LVL21:
 249:Generated_Source\PSoC4/cyfitter_cfg.c **** 	CY_SET_REG32((void *)(CYREG_WDT_CONFIG), 0x00000000u);
 374              		.loc 1 249 0
 375 0152 0920     		movs	r0, #9
 376 0154 FFF7FEFF 		bl	CyIntEnable
 377              	.LVL22:
 250:Generated_Source\PSoC4/cyfitter_cfg.c **** }
 378              		.loc 1 250 0
 379 0158 294B     		ldr	r3, .L14+156
 380 015a 1D60     		str	r5, [r3]
 381              	.LBE55:
 382              	.LBE60:
 383              		.loc 1 576 0
 384 015c 04BC     		pop	{r2}
 385 015e 9046     		mov	r8, r2
 386 0160 F0BD     		pop	{r4, r5, r6, r7, pc}
 387              	.L15:
 388 0162 C046     		.align	2
 389              	.L14:
 390 0164 00000000 		.word	.LANCHOR0
 391 0168 00300F40 		.word	1074737152
ARM GAS  C:\Users\jrdia\AppData\Local\Temp\ccYyoPsa.s 			page 19


 392 016c 80320F40 		.word	1074737792
 393 0170 80000000 		.word	.LANCHOR1
 394 0174 01000F40 		.word	1074724865
 395 0178 00600F40 		.word	1074749440
 396 017c 02600F40 		.word	1074749442
 397 0180 00009903 		.word	60358656
 398 0184 00000140 		.word	1073807360
 399 0188 03EE0000 		.word	60931
 400 018c 0C000140 		.word	1073807372
 401 0190 00500F40 		.word	1074745344
 402 0194 08500F40 		.word	1074745352
 403 0198 30500F40 		.word	1074745392
 404 019c 01700F40 		.word	1074753537
 405 01a0 38500F40 		.word	1074745400
 406 01a4 00010B40 		.word	1074462976
 407 01a8 00700F40 		.word	1074753536
 408 01ac 00000440 		.word	1074003968
 409 01b0 00101B00 		.word	1773568
 410 01b4 08000440 		.word	1074003976
 411 01b8 18000440 		.word	1074003992
 412 01bc 00030440 		.word	1074004736
 413 01c0 966D0800 		.word	552342
 414 01c4 08030440 		.word	1074004744
 415 01c8 FFFFFBFF 		.word	-262145
 416 01cc 00000000 		.word	CySysWdtIsr
 417 01d0 06000080 		.word	-2147483642
 418 01d4 04010B40 		.word	1074462980
 419 01d8 0C020240 		.word	1073873420
 420 01dc 20020240 		.word	1073873440
 421 01e0 30020240 		.word	1073873456
 422 01e4 08010B40 		.word	1074462984
 423 01e8 01000080 		.word	-2147483647
 424 01ec 00000240 		.word	1073872896
 425 01f0 10000080 		.word	-2147483632
 426 01f4 40000240 		.word	1073872960
 427 01f8 BF5D0080 		.word	-2147459649
 428 01fc 80000240 		.word	1073873024
 429 0200 0C020B40 		.word	1074463244
 430              		.cfi_endproc
 431              	.LFE6:
 432              		.size	cyfitter_cfg, .-cyfitter_cfg
 433              		.section	.rodata
 434              		.align	2
 435              		.set	.LANCHOR0,. + 0
 436              		.set	.LANCHOR1,. + 128
 437              		.type	cfg_memset_list.4875, %object
 438              		.size	cfg_memset_list.4875, 18
 439              	cfg_memset_list.4875:
 440 0000 00300F40 		.word	1074737152
 441 0004 8002     		.short	640
 442 0006 00330F40 		.4byte	1074737920
 443 000a 0001     		.short	256
 444 000c 00400F40 		.word	1074741248
 445 0010 0004     		.short	1024
 446 0012 0000     		.space	2
 447              		.type	BS_UDB_0_0_0_CONFIG_VAL.4876, %object
 448              		.size	BS_UDB_0_0_0_CONFIG_VAL.4876, 128
ARM GAS  C:\Users\jrdia\AppData\Local\Temp\ccYyoPsa.s 			page 20


 449              	BS_UDB_0_0_0_CONFIG_VAL.4876:
 450 0014 07       		.byte	7
 451 0015 1A       		.byte	26
 452 0016 38       		.byte	56
 453 0017 00       		.byte	0
 454 0018 04       		.byte	4
 455 0019 18       		.byte	24
 456 001a 00       		.byte	0
 457 001b 02       		.byte	2
 458 001c 01       		.byte	1
 459 001d 02       		.byte	2
 460 001e 00       		.byte	0
 461 001f 18       		.byte	24
 462 0020 04       		.byte	4
 463 0021 9C       		.byte	-100
 464 0022 80       		.byte	-128
 465 0023 03       		.byte	3
 466 0024 56       		.byte	86
 467 0025 18       		.byte	24
 468 0026 09       		.byte	9
 469 0027 02       		.byte	2
 470 0028 80       		.byte	-128
 471 0029 C1       		.byte	-63
 472 002a 04       		.byte	4
 473 002b 38       		.byte	56
 474 002c 84       		.byte	-124
 475 002d 00       		.byte	0
 476 002e 00       		.byte	0
 477 002f 00       		.byte	0
 478 0030 84       		.byte	-124
 479 0031 33       		.byte	51
 480 0032 00       		.byte	0
 481 0033 44       		.byte	68
 482 0034 84       		.byte	-124
 483 0035 1A       		.byte	26
 484 0036 00       		.byte	0
 485 0037 00       		.byte	0
 486 0038 00       		.byte	0
 487 0039 18       		.byte	24
 488 003a 00       		.byte	0
 489 003b 00       		.byte	0
 490 003c 0A       		.byte	10
 491 003d 00       		.byte	0
 492 003e 10       		.byte	16
 493 003f 00       		.byte	0
 494 0040 60       		.byte	96
 495 0041 82       		.byte	-126
 496 0042 00       		.byte	0
 497 0043 00       		.byte	0
 498 0044 08       		.byte	8
 499 0045 E0       		.byte	-32
 500 0046 7F       		.byte	127
 501 0047 0F       		.byte	15
 502 0048 02       		.byte	2
 503 0049 00       		.byte	0
 504 004a 80       		.byte	-128
 505 004b 13       		.byte	19
ARM GAS  C:\Users\jrdia\AppData\Local\Temp\ccYyoPsa.s 			page 21


 506 004c 08       		.byte	8
 507 004d 00       		.byte	0
 508 004e 00       		.byte	0
 509 004f 0A       		.byte	10
 510 0050 00       		.byte	0
 511 0051 00       		.byte	0
 512 0052 51       		.byte	81
 513 0053 00       		.byte	0
 514 0054 64       		.byte	100
 515 0055 05       		.byte	5
 516 0056 10       		.byte	16
 517 0057 00       		.byte	0
 518 0058 02       		.byte	2
 519 0059 DE       		.byte	-34
 520 005a FC       		.byte	-4
 521 005b B0       		.byte	-80
 522 005c 2F       		.byte	47
 523 005d FF       		.byte	-1
 524 005e FF       		.byte	-1
 525 005f FF       		.byte	-1
 526 0060 22       		.byte	34
 527 0061 00       		.byte	0
 528 0062 F0       		.byte	-16
 529 0063 08       		.byte	8
 530 0064 04       		.byte	4
 531 0065 00       		.byte	0
 532 0066 00       		.byte	0
 533 0067 00       		.byte	0
 534 0068 00       		.byte	0
 535 0069 00       		.byte	0
 536 006a 02       		.byte	2
 537 006b 24       		.byte	36
 538 006c 04       		.byte	4
 539 006d 04       		.byte	4
 540 006e 04       		.byte	4
 541 006f 04       		.byte	4
 542 0070 00       		.byte	0
 543 0071 00       		.byte	0
 544 0072 00       		.byte	0
 545 0073 01       		.byte	1
 546 0074 00       		.byte	0
 547 0075 00       		.byte	0
 548 0076 C0       		.byte	-64
 549 0077 00       		.byte	0
 550 0078 40       		.byte	64
 551 0079 01       		.byte	1
 552 007a 10       		.byte	16
 553 007b 11       		.byte	17
 554 007c C0       		.byte	-64
 555 007d 01       		.byte	1
 556 007e 00       		.byte	0
 557 007f 11       		.byte	17
 558 0080 40       		.byte	64
 559 0081 01       		.byte	1
 560 0082 40       		.byte	64
 561 0083 01       		.byte	1
 562 0084 00       		.byte	0
ARM GAS  C:\Users\jrdia\AppData\Local\Temp\ccYyoPsa.s 			page 22


 563 0085 00       		.byte	0
 564 0086 00       		.byte	0
 565 0087 00       		.byte	0
 566 0088 00       		.byte	0
 567 0089 00       		.byte	0
 568 008a 00       		.byte	0
 569 008b 00       		.byte	0
 570 008c 00       		.byte	0
 571 008d 00       		.byte	0
 572 008e 00       		.byte	0
 573 008f 00       		.byte	0
 574 0090 00       		.byte	0
 575 0091 00       		.byte	0
 576 0092 00       		.byte	0
 577 0093 00       		.byte	0
 578              		.type	cy_cfg_addr_table.4864, %object
 579              		.size	cy_cfg_addr_table.4864, 36
 580              	cy_cfg_addr_table.4864:
 581 0094 01000F40 		.word	1074724865
 582 0098 31300F40 		.word	1074737201
 583 009c 1C310F40 		.word	1074737436
 584 00a0 03320F40 		.word	1074737667
 585 00a4 43330F40 		.word	1074737987
 586 00a8 02400F40 		.word	1074741250
 587 00ac 02410F40 		.word	1074741506
 588 00b0 08430F40 		.word	1074742024
 589 00b4 02600F40 		.word	1074749442
 590              		.type	cy_cfg_data_table.4865, %object
 591              		.size	cy_cfg_data_table.4865, 324
 592              	cy_cfg_data_table.4865:
 593 00b8 83       		.byte	-125
 594 00b9 0F       		.byte	15
 595 00ba 01       		.byte	1
 596 00bb 94       		.byte	-108
 597 00bc 02       		.byte	2
 598 00bd 80       		.byte	-128
 599 00be 03       		.byte	3
 600 00bf 69       		.byte	105
 601 00c0 04       		.byte	4
 602 00c1 10       		.byte	16
 603 00c2 05       		.byte	5
 604 00c3 0E       		.byte	14
 605 00c4 06       		.byte	6
 606 00c5 60       		.byte	96
 607 00c6 0C       		.byte	12
 608 00c7 02       		.byte	2
 609 00c8 0E       		.byte	14
 610 00c9 0D       		.byte	13
 611 00ca 10       		.byte	16
 612 00cb 01       		.byte	1
 613 00cc 12       		.byte	18
 614 00cd 32       		.byte	50
 615 00ce 14       		.byte	20
 616 00cf 8D       		.byte	-115
 617 00d0 15       		.byte	21
 618 00d1 55       		.byte	85
 619 00d2 16       		.byte	22
ARM GAS  C:\Users\jrdia\AppData\Local\Temp\ccYyoPsa.s 			page 23


 620 00d3 40       		.byte	64
 621 00d4 17       		.byte	23
 622 00d5 AA       		.byte	-86
 623 00d6 18       		.byte	24
 624 00d7 CD       		.byte	-51
 625 00d8 19       		.byte	25
 626 00d9 20       		.byte	32
 627 00da 1B       		.byte	27
 628 00db D0       		.byte	-48
 629 00dc 1C       		.byte	28
 630 00dd CD       		.byte	-51
 631 00de 1D       		.byte	29
 632 00df 33       		.byte	51
 633 00e0 1F       		.byte	31
 634 00e1 C4       		.byte	-60
 635 00e2 20       		.byte	32
 636 00e3 CD       		.byte	-51
 637 00e4 24       		.byte	36
 638 00e5 4D       		.byte	77
 639 00e6 26       		.byte	38
 640 00e7 80       		.byte	-128
 641 00e8 28       		.byte	40
 642 00e9 12       		.byte	18
 643 00ea 2A       		.byte	42
 644 00eb 64       		.byte	100
 645 00ec 2C       		.byte	44
 646 00ed 72       		.byte	114
 647 00ee 2E       		.byte	46
 648 00ef 08       		.byte	8
 649 00f0 30       		.byte	48
 650 00f1 0F       		.byte	15
 651 00f2 32       		.byte	50
 652 00f3 80       		.byte	-128
 653 00f4 33       		.byte	51
 654 00f5 0F       		.byte	15
 655 00f6 34       		.byte	52
 656 00f7 70       		.byte	112
 657 00f8 35       		.byte	53
 658 00f9 F0       		.byte	-16
 659 00fa 39       		.byte	57
 660 00fb 08       		.byte	8
 661 00fc 3A       		.byte	58
 662 00fd 22       		.byte	34
 663 00fe 3B       		.byte	59
 664 00ff 20       		.byte	32
 665 0100 3E       		.byte	62
 666 0101 04       		.byte	4
 667 0102 54       		.byte	84
 668 0103 40       		.byte	64
 669 0104 58       		.byte	88
 670 0105 04       		.byte	4
 671 0106 59       		.byte	89
 672 0107 04       		.byte	4
 673 0108 5B       		.byte	91
 674 0109 04       		.byte	4
 675 010a 5F       		.byte	95
 676 010b 01       		.byte	1
ARM GAS  C:\Users\jrdia\AppData\Local\Temp\ccYyoPsa.s 			page 24


 677 010c 92       		.byte	-110
 678 010d 02       		.byte	2
 679 010e A2       		.byte	-94
 680 010f 03       		.byte	3
 681 0110 AA       		.byte	-86
 682 0111 03       		.byte	3
 683 0112 AC       		.byte	-84
 684 0113 01       		.byte	1
 685 0114 B0       		.byte	-80
 686 0115 03       		.byte	3
 687 0116 B6       		.byte	-74
 688 0117 03       		.byte	3
 689 0118 D8       		.byte	-40
 690 0119 04       		.byte	4
 691 011a DF       		.byte	-33
 692 011b 01       		.byte	1
 693 011c 00       		.byte	0
 694 011d 40       		.byte	64
 695 011e 01       		.byte	1
 696 011f 02       		.byte	2
 697 0120 02       		.byte	2
 698 0121 40       		.byte	64
 699 0122 03       		.byte	3
 700 0123 20       		.byte	32
 701 0124 0A       		.byte	10
 702 0125 A4       		.byte	-92
 703 0126 0B       		.byte	11
 704 0127 01       		.byte	1
 705 0128 0E       		.byte	14
 706 0129 80       		.byte	-128
 707 012a 11       		.byte	17
 708 012b 09       		.byte	9
 709 012c 12       		.byte	18
 710 012d 08       		.byte	8
 711 012e 13       		.byte	19
 712 012f 40       		.byte	64
 713 0130 15       		.byte	21
 714 0131 82       		.byte	-126
 715 0132 17       		.byte	23
 716 0133 20       		.byte	32
 717 0134 18       		.byte	24
 718 0135 50       		.byte	80
 719 0136 1B       		.byte	27
 720 0137 20       		.byte	32
 721 0138 1E       		.byte	30
 722 0139 80       		.byte	-128
 723 013a 1F       		.byte	31
 724 013b 80       		.byte	-128
 725 013c 21       		.byte	33
 726 013d 04       		.byte	4
 727 013e 22       		.byte	34
 728 013f 20       		.byte	32
 729 0140 32       		.byte	50
 730 0141 68       		.byte	104
 731 0142 39       		.byte	57
 732 0143 0A       		.byte	10
 733 0144 60       		.byte	96
ARM GAS  C:\Users\jrdia\AppData\Local\Temp\ccYyoPsa.s 			page 25


 734 0145 10       		.byte	16
 735 0146 62       		.byte	98
 736 0147 50       		.byte	80
 737 0148 C0       		.byte	-64
 738 0149 0D       		.byte	13
 739 014a C2       		.byte	-62
 740 014b 1F       		.byte	31
 741 014c C4       		.byte	-60
 742 014d DF       		.byte	-33
 743 014e CC       		.byte	-52
 744 014f 0E       		.byte	14
 745 0150 CE       		.byte	-50
 746 0151 03       		.byte	3
 747 0152 D8       		.byte	-40
 748 0153 0E       		.byte	14
 749 0154 54       		.byte	84
 750 0155 09       		.byte	9
 751 0156 5B       		.byte	91
 752 0157 04       		.byte	4
 753 0158 5F       		.byte	95
 754 0159 01       		.byte	1
 755 015a 00       		.byte	0
 756 015b 02       		.byte	2
 757 015c 01       		.byte	1
 758 015d 40       		.byte	64
 759 015e 03       		.byte	3
 760 015f 28       		.byte	40
 761 0160 0A       		.byte	10
 762 0161 24       		.byte	36
 763 0162 0B       		.byte	11
 764 0163 41       		.byte	65
 765 0164 11       		.byte	17
 766 0165 01       		.byte	1
 767 0166 12       		.byte	18
 768 0167 09       		.byte	9
 769 0168 18       		.byte	24
 770 0169 40       		.byte	64
 771 016a 19       		.byte	25
 772 016b 10       		.byte	16
 773 016c 1A       		.byte	26
 774 016d 01       		.byte	1
 775 016e 1B       		.byte	27
 776 016f 88       		.byte	-120
 777 0170 20       		.byte	32
 778 0171 02       		.byte	2
 779 0172 21       		.byte	33
 780 0173 41       		.byte	65
 781 0174 22       		.byte	34
 782 0175 48       		.byte	72
 783 0176 23       		.byte	35
 784 0177 60       		.byte	96
 785 0178 2A       		.byte	42
 786 0179 42       		.byte	66
 787 017a 2B       		.byte	43
 788 017b 20       		.byte	32
 789 017c 30       		.byte	48
 790 017d 02       		.byte	2
ARM GAS  C:\Users\jrdia\AppData\Local\Temp\ccYyoPsa.s 			page 26


 791 017e 32       		.byte	50
 792 017f 48       		.byte	72
 793 0180 39       		.byte	57
 794 0181 15       		.byte	21
 795 0182 3B       		.byte	59
 796 0183 40       		.byte	64
 797 0184 40       		.byte	64
 798 0185 08       		.byte	8
 799 0186 41       		.byte	65
 800 0187 01       		.byte	1
 801 0188 43       		.byte	67
 802 0189 80       		.byte	-128
 803 018a 48       		.byte	72
 804 018b 01       		.byte	1
 805 018c 49       		.byte	73
 806 018d 0A       		.byte	10
 807 018e 4A       		.byte	74
 808 018f 08       		.byte	8
 809 0190 52       		.byte	82
 810 0191 51       		.byte	81
 811 0192 5C       		.byte	92
 812 0193 40       		.byte	64
 813 0194 5D       		.byte	93
 814 0195 08       		.byte	8
 815 0196 5E       		.byte	94
 816 0197 01       		.byte	1
 817 0198 5F       		.byte	95
 818 0199 10       		.byte	16
 819 019a 62       		.byte	98
 820 019b 20       		.byte	32
 821 019c 67       		.byte	103
 822 019d 02       		.byte	2
 823 019e 68       		.byte	104
 824 019f 02       		.byte	2
 825 01a0 69       		.byte	105
 826 01a1 55       		.byte	85
 827 01a2 6A       		.byte	106
 828 01a3 24       		.byte	36
 829 01a4 72       		.byte	114
 830 01a5 02       		.byte	2
 831 01a6 73       		.byte	115
 832 01a7 01       		.byte	1
 833 01a8 80       		.byte	-128
 834 01a9 02       		.byte	2
 835 01aa 81       		.byte	-127
 836 01ab 04       		.byte	4
 837 01ac 88       		.byte	-120
 838 01ad 08       		.byte	8
 839 01ae 8A       		.byte	-118
 840 01af 40       		.byte	64
 841 01b0 8B       		.byte	-117
 842 01b1 18       		.byte	24
 843 01b2 8D       		.byte	-115
 844 01b3 10       		.byte	16
 845 01b4 8F       		.byte	-113
 846 01b5 01       		.byte	1
 847 01b6 95       		.byte	-107
ARM GAS  C:\Users\jrdia\AppData\Local\Temp\ccYyoPsa.s 			page 27


 848 01b7 83       		.byte	-125
 849 01b8 96       		.byte	-106
 850 01b9 A4       		.byte	-92
 851 01ba 97       		.byte	-105
 852 01bb 41       		.byte	65
 853 01bc 9D       		.byte	-99
 854 01bd 02       		.byte	2
 855 01be 9E       		.byte	-98
 856 01bf 10       		.byte	16
 857 01c0 9F       		.byte	-97
 858 01c1 20       		.byte	32
 859 01c2 A2       		.byte	-94
 860 01c3 20       		.byte	32
 861 01c4 A3       		.byte	-93
 862 01c5 20       		.byte	32
 863 01c6 A5       		.byte	-91
 864 01c7 04       		.byte	4
 865 01c8 A6       		.byte	-90
 866 01c9 08       		.byte	8
 867 01ca AF       		.byte	-81
 868 01cb 80       		.byte	-128
 869 01cc C0       		.byte	-64
 870 01cd 0F       		.byte	15
 871 01ce C2       		.byte	-62
 872 01cf 0F       		.byte	15
 873 01d0 C4       		.byte	-60
 874 01d1 0B       		.byte	11
 875 01d2 CA       		.byte	-54
 876 01d3 0B       		.byte	11
 877 01d4 CC       		.byte	-52
 878 01d5 0B       		.byte	11
 879 01d6 CE       		.byte	-50
 880 01d7 0F       		.byte	15
 881 01d8 D0       		.byte	-48
 882 01d9 0D       		.byte	13
 883 01da D2       		.byte	-46
 884 01db 0C       		.byte	12
 885 01dc D6       		.byte	-42
 886 01dd F0       		.byte	-16
 887 01de D8       		.byte	-40
 888 01df 14       		.byte	20
 889 01e0 63       		.byte	99
 890 01e1 02       		.byte	2
 891 01e2 D6       		.byte	-42
 892 01e3 40       		.byte	64
 893 01e4 AF       		.byte	-81
 894 01e5 01       		.byte	1
 895 01e6 EE       		.byte	-18
 896 01e7 10       		.byte	16
 897 01e8 05       		.byte	5
 898 01e9 08       		.byte	8
 899 01ea 5C       		.byte	92
 900 01eb 80       		.byte	-128
 901 01ec 88       		.byte	-120
 902 01ed 80       		.byte	-128
 903 01ee 89       		.byte	-119
 904 01ef 08       		.byte	8
ARM GAS  C:\Users\jrdia\AppData\Local\Temp\ccYyoPsa.s 			page 28


 905 01f0 C0       		.byte	-64
 906 01f1 04       		.byte	4
 907 01f2 D6       		.byte	-42
 908 01f3 04       		.byte	4
 909 01f4 E0       		.byte	-32
 910 01f5 04       		.byte	4
 911 01f6 E2       		.byte	-30
 912 01f7 01       		.byte	1
 913 01f8 10       		.byte	16
 914 01f9 01       		.byte	1
 915 01fa 11       		.byte	17
 916 01fb 01       		.byte	1
 917              		.text
 918              	.Letext0:
 919              		.file 2 "c:\\program files (x86)\\cypress\\psoc creator\\4.1\\psoc creator\\import\\gnu\\arm\\5.4.
 920              		.file 3 "Generated_Source\\PSoC4\\cytypes.h"
 921              		.file 4 "Generated_Source\\PSoC4\\CyLib.h"