ARM GAS  C:\Users\jrdia\AppData\Local\Temp\ccItZmGG.s 			page 1


   1              		.syntax unified
   2              		.cpu cortex-m0
   3              		.fpu softvfp
   4              		.eabi_attribute 20, 1
   5              		.eabi_attribute 21, 1
   6              		.eabi_attribute 23, 3
   7              		.eabi_attribute 24, 1
   8              		.eabi_attribute 25, 1
   9              		.eabi_attribute 26, 1
  10              		.eabi_attribute 30, 2
  11              		.eabi_attribute 34, 0
  12              		.eabi_attribute 18, 4
  13              		.thumb
  14              		.syntax unified
  15              		.file	"hidboot.c"
  16              		.text
  17              	.Ltext0:
  18              		.cfi_sections	.debug_frame
  19              		.section	.text._ZN17MouseReportParser11OnMouseMoveEP9MOUSEINFO,"axG",%progbits,_ZN17MouseReportPar
  20              		.align	2
  21              		.weak	_ZN17MouseReportParser11OnMouseMoveEP9MOUSEINFO
  22              		.code	16
  23              		.thumb_func
  24              		.type	_ZN17MouseReportParser11OnMouseMoveEP9MOUSEINFO, %function
  25              	_ZN17MouseReportParser11OnMouseMoveEP9MOUSEINFO:
  26              		.fnstart
  27              	.LFB225:
  28              		.file 1 "hidboot.h"
   1:hidboot.h     **** /* Copyright (C) 2011 Circuits At Home, LTD. All rights reserved.
   2:hidboot.h     **** 
   3:hidboot.h     **** This software may be distributed and modified under the terms of the GNU
   4:hidboot.h     **** General Public License version 2 (GPL2) as published by the Free Software
   5:hidboot.h     **** Foundation and appearing in the file GPL2.TXT included in the packaging of
   6:hidboot.h     **** this file. Please note that GPL2 Section 2[b] requires that all works based
   7:hidboot.h     **** on this software must also be made publicly available under the terms of
   8:hidboot.h     **** the GPL2 ("Copyleft").
   9:hidboot.h     **** 
  10:hidboot.h     **** Contact information
  11:hidboot.h     **** -------------------
  12:hidboot.h     **** 
  13:hidboot.h     **** Circuits At Home, LTD
  14:hidboot.h     **** Web      :  http://www.circuitsathome.com
  15:hidboot.h     **** e-mail   :  support@circuitsathome.com
  16:hidboot.h     ****  */
  17:hidboot.h     **** #if !defined(__HIDBOOT_H__)
  18:hidboot.h     **** #define __HIDBOOT_H__
  19:hidboot.h     **** 
  20:hidboot.h     **** #include "usbhid.h"
  21:hidboot.h     **** 
  22:hidboot.h     **** #define UHS_HID_BOOT_KEY_ZERO           0x27
  23:hidboot.h     **** #define UHS_HID_BOOT_KEY_ENTER          0x28
  24:hidboot.h     **** #define UHS_HID_BOOT_KEY_SPACE          0x2c
  25:hidboot.h     **** #define UHS_HID_BOOT_KEY_CAPS_LOCK      0x39
  26:hidboot.h     **** #define UHS_HID_BOOT_KEY_SCROLL_LOCK    0x47
  27:hidboot.h     **** #define UHS_HID_BOOT_KEY_NUM_LOCK       0x53
  28:hidboot.h     **** #define UHS_HID_BOOT_KEY_ZERO2          0x62
  29:hidboot.h     **** #define UHS_HID_BOOT_KEY_PERIOD         0x63
ARM GAS  C:\Users\jrdia\AppData\Local\Temp\ccItZmGG.s 			page 2


  30:hidboot.h     **** 
  31:hidboot.h     **** // Don't worry, GCC will optimize the result to a final value.
  32:hidboot.h     **** #define bitsEndpoints(p) ((((p) & USB_HID_PROTOCOL_KEYBOARD)? 2 : 0) | (((p) & USB_HID_PROTOCOL_MOU
  33:hidboot.h     **** #define totalEndpoints(p) ((bitsEndpoints(p) == 3) ? 3 : 2)
  34:hidboot.h     **** #define epMUL(p) ((((p) & USB_HID_PROTOCOL_KEYBOARD)? 1 : 0) + (((p) & USB_HID_PROTOCOL_MOUSE)? 1 :
  35:hidboot.h     **** 
  36:hidboot.h     **** // Already defined in hid.h
  37:hidboot.h     **** // #define HID_MAX_HID_CLASS_DESCRIPTORS 5
  38:hidboot.h     **** 
  39:hidboot.h     **** struct MOUSEINFO {
  40:hidboot.h     **** 
  41:hidboot.h     ****         struct {
  42:hidboot.h     ****                 uint8_t bmLeftButton : 1;
  43:hidboot.h     ****                 uint8_t bmRightButton : 1;
  44:hidboot.h     ****                 uint8_t bmMiddleButton : 1;
  45:hidboot.h     ****                 uint8_t bmDummy : 5;
  46:hidboot.h     ****         };
  47:hidboot.h     ****         int8_t dX;
  48:hidboot.h     ****         int8_t dY;
  49:hidboot.h     **** };
  50:hidboot.h     **** 
  51:hidboot.h     **** class MouseReportParser : public HIDReportParser {
  52:hidboot.h     **** 
  53:hidboot.h     ****         union {
  54:hidboot.h     ****                 MOUSEINFO mouseInfo;
  55:hidboot.h     ****                 uint8_t bInfo[sizeof (MOUSEINFO)];
  56:hidboot.h     ****         } prevState;
  57:hidboot.h     **** 
  58:hidboot.h     **** public:
  59:hidboot.h     ****         void Parse(USBHID *hid, bool is_rpt_id, uint8_t len, uint8_t *buf);
  60:hidboot.h     **** 
  61:hidboot.h     **** protected:
  62:hidboot.h     **** 
  63:hidboot.h     ****         virtual void OnMouseMove(MOUSEINFO *mi) {
  29              		.loc 1 63 0
  30              		.cfi_startproc
  31              		@ args = 0, pretend = 0, frame = 0
  32              		@ frame_needed = 0, uses_anonymous_args = 0
  33              		@ link register save eliminated.
  34              	.LVL0:
  64:hidboot.h     ****         };
  35              		.loc 1 64 0
  36              		@ sp needed
  37 0000 7047     		bx	lr
  38              		.cfi_endproc
  39              	.LFE225:
  40              		.cantunwind
  41              		.fnend
  42              		.size	_ZN17MouseReportParser11OnMouseMoveEP9MOUSEINFO, .-_ZN17MouseReportParser11OnMouseMoveEP9MOU
  43 0002 C046     		.section	.text._ZN17MouseReportParser14OnLeftButtonUpEP9MOUSEINFO,"axG",%progbits,_ZN17MouseReport
  44              		.align	2
  45              		.weak	_ZN17MouseReportParser14OnLeftButtonUpEP9MOUSEINFO
  46              		.code	16
  47              		.thumb_func
  48              		.type	_ZN17MouseReportParser14OnLeftButtonUpEP9MOUSEINFO, %function
  49              	_ZN17MouseReportParser14OnLeftButtonUpEP9MOUSEINFO:
  50              		.fnstart
ARM GAS  C:\Users\jrdia\AppData\Local\Temp\ccItZmGG.s 			page 3


  51              	.LFB226:
  65:hidboot.h     **** 
  66:hidboot.h     ****         virtual void OnLeftButtonUp(MOUSEINFO *mi) {
  52              		.loc 1 66 0
  53              		.cfi_startproc
  54              		@ args = 0, pretend = 0, frame = 0
  55              		@ frame_needed = 0, uses_anonymous_args = 0
  56              		@ link register save eliminated.
  57              	.LVL1:
  67:hidboot.h     ****         };
  58              		.loc 1 67 0
  59              		@ sp needed
  60 0000 7047     		bx	lr
  61              		.cfi_endproc
  62              	.LFE226:
  63              		.cantunwind
  64              		.fnend
  65              		.size	_ZN17MouseReportParser14OnLeftButtonUpEP9MOUSEINFO, .-_ZN17MouseReportParser14OnLeftButtonUp
  66 0002 C046     		.section	.text._ZN17MouseReportParser16OnLeftButtonDownEP9MOUSEINFO,"axG",%progbits,_ZN17MouseRepo
  67              		.align	2
  68              		.weak	_ZN17MouseReportParser16OnLeftButtonDownEP9MOUSEINFO
  69              		.code	16
  70              		.thumb_func
  71              		.type	_ZN17MouseReportParser16OnLeftButtonDownEP9MOUSEINFO, %function
  72              	_ZN17MouseReportParser16OnLeftButtonDownEP9MOUSEINFO:
  73              		.fnstart
  74              	.LFB227:
  68:hidboot.h     **** 
  69:hidboot.h     ****         virtual void OnLeftButtonDown(MOUSEINFO *mi) {
  75              		.loc 1 69 0
  76              		.cfi_startproc
  77              		@ args = 0, pretend = 0, frame = 0
  78              		@ frame_needed = 0, uses_anonymous_args = 0
  79              		@ link register save eliminated.
  80              	.LVL2:
  70:hidboot.h     ****         };
  81              		.loc 1 70 0
  82              		@ sp needed
  83 0000 7047     		bx	lr
  84              		.cfi_endproc
  85              	.LFE227:
  86              		.cantunwind
  87              		.fnend
  88              		.size	_ZN17MouseReportParser16OnLeftButtonDownEP9MOUSEINFO, .-_ZN17MouseReportParser16OnLeftButton
  89 0002 C046     		.section	.text._ZN17MouseReportParser15OnRightButtonUpEP9MOUSEINFO,"axG",%progbits,_ZN17MouseRepor
  90              		.align	2
  91              		.weak	_ZN17MouseReportParser15OnRightButtonUpEP9MOUSEINFO
  92              		.code	16
  93              		.thumb_func
  94              		.type	_ZN17MouseReportParser15OnRightButtonUpEP9MOUSEINFO, %function
  95              	_ZN17MouseReportParser15OnRightButtonUpEP9MOUSEINFO:
  96              		.fnstart
  97              	.LFB228:
  71:hidboot.h     **** 
  72:hidboot.h     ****         virtual void OnRightButtonUp(MOUSEINFO *mi) {
  98              		.loc 1 72 0
  99              		.cfi_startproc
ARM GAS  C:\Users\jrdia\AppData\Local\Temp\ccItZmGG.s 			page 4


 100              		@ args = 0, pretend = 0, frame = 0
 101              		@ frame_needed = 0, uses_anonymous_args = 0
 102              		@ link register save eliminated.
 103              	.LVL3:
  73:hidboot.h     ****         };
 104              		.loc 1 73 0
 105              		@ sp needed
 106 0000 7047     		bx	lr
 107              		.cfi_endproc
 108              	.LFE228:
 109              		.cantunwind
 110              		.fnend
 111              		.size	_ZN17MouseReportParser15OnRightButtonUpEP9MOUSEINFO, .-_ZN17MouseReportParser15OnRightButton
 112 0002 C046     		.section	.text._ZN17MouseReportParser17OnRightButtonDownEP9MOUSEINFO,"axG",%progbits,_ZN17MouseRep
 113              		.align	2
 114              		.weak	_ZN17MouseReportParser17OnRightButtonDownEP9MOUSEINFO
 115              		.code	16
 116              		.thumb_func
 117              		.type	_ZN17MouseReportParser17OnRightButtonDownEP9MOUSEINFO, %function
 118              	_ZN17MouseReportParser17OnRightButtonDownEP9MOUSEINFO:
 119              		.fnstart
 120              	.LFB229:
  74:hidboot.h     **** 
  75:hidboot.h     ****         virtual void OnRightButtonDown(MOUSEINFO *mi) {
 121              		.loc 1 75 0
 122              		.cfi_startproc
 123              		@ args = 0, pretend = 0, frame = 0
 124              		@ frame_needed = 0, uses_anonymous_args = 0
 125              		@ link register save eliminated.
 126              	.LVL4:
  76:hidboot.h     ****         };
 127              		.loc 1 76 0
 128              		@ sp needed
 129 0000 7047     		bx	lr
 130              		.cfi_endproc
 131              	.LFE229:
 132              		.cantunwind
 133              		.fnend
 134              		.size	_ZN17MouseReportParser17OnRightButtonDownEP9MOUSEINFO, .-_ZN17MouseReportParser17OnRightButt
 135 0002 C046     		.section	.text._ZN17MouseReportParser16OnMiddleButtonUpEP9MOUSEINFO,"axG",%progbits,_ZN17MouseRepo
 136              		.align	2
 137              		.weak	_ZN17MouseReportParser16OnMiddleButtonUpEP9MOUSEINFO
 138              		.code	16
 139              		.thumb_func
 140              		.type	_ZN17MouseReportParser16OnMiddleButtonUpEP9MOUSEINFO, %function
 141              	_ZN17MouseReportParser16OnMiddleButtonUpEP9MOUSEINFO:
 142              		.fnstart
 143              	.LFB230:
  77:hidboot.h     **** 
  78:hidboot.h     ****         virtual void OnMiddleButtonUp(MOUSEINFO *mi) {
 144              		.loc 1 78 0
 145              		.cfi_startproc
 146              		@ args = 0, pretend = 0, frame = 0
 147              		@ frame_needed = 0, uses_anonymous_args = 0
 148              		@ link register save eliminated.
 149              	.LVL5:
  79:hidboot.h     ****         };
ARM GAS  C:\Users\jrdia\AppData\Local\Temp\ccItZmGG.s 			page 5


 150              		.loc 1 79 0
 151              		@ sp needed
 152 0000 7047     		bx	lr
 153              		.cfi_endproc
 154              	.LFE230:
 155              		.cantunwind
 156              		.fnend
 157              		.size	_ZN17MouseReportParser16OnMiddleButtonUpEP9MOUSEINFO, .-_ZN17MouseReportParser16OnMiddleButt
 158 0002 C046     		.section	.text._ZN17MouseReportParser18OnMiddleButtonDownEP9MOUSEINFO,"axG",%progbits,_ZN17MouseRe
 159              		.align	2
 160              		.weak	_ZN17MouseReportParser18OnMiddleButtonDownEP9MOUSEINFO
 161              		.code	16
 162              		.thumb_func
 163              		.type	_ZN17MouseReportParser18OnMiddleButtonDownEP9MOUSEINFO, %function
 164              	_ZN17MouseReportParser18OnMiddleButtonDownEP9MOUSEINFO:
 165              		.fnstart
 166              	.LFB231:
  80:hidboot.h     **** 
  81:hidboot.h     ****         virtual void OnMiddleButtonDown(MOUSEINFO *mi) {
 167              		.loc 1 81 0
 168              		.cfi_startproc
 169              		@ args = 0, pretend = 0, frame = 0
 170              		@ frame_needed = 0, uses_anonymous_args = 0
 171              		@ link register save eliminated.
 172              	.LVL6:
  82:hidboot.h     ****         };
 173              		.loc 1 82 0
 174              		@ sp needed
 175 0000 7047     		bx	lr
 176              		.cfi_endproc
 177              	.LFE231:
 178              		.cantunwind
 179              		.fnend
 180              		.size	_ZN17MouseReportParser18OnMiddleButtonDownEP9MOUSEINFO, .-_ZN17MouseReportParser18OnMiddleBu
 181 0002 C046     		.section	.text._ZN20KeyboardReportParser20OnControlKeysChangedEhh,"axG",%progbits,_ZN20KeyboardRep
 182              		.align	2
 183              		.weak	_ZN20KeyboardReportParser20OnControlKeysChangedEhh
 184              		.code	16
 185              		.thumb_func
 186              		.type	_ZN20KeyboardReportParser20OnControlKeysChangedEhh, %function
 187              	_ZN20KeyboardReportParser20OnControlKeysChangedEhh:
 188              		.fnstart
 189              	.LFB239:
  83:hidboot.h     **** };
  84:hidboot.h     **** 
  85:hidboot.h     **** struct MODIFIERKEYS {
  86:hidboot.h     ****         uint8_t bmLeftCtrl : 1;
  87:hidboot.h     ****         uint8_t bmLeftShift : 1;
  88:hidboot.h     ****         uint8_t bmLeftAlt : 1;
  89:hidboot.h     ****         uint8_t bmLeftGUI : 1;
  90:hidboot.h     ****         uint8_t bmRightCtrl : 1;
  91:hidboot.h     ****         uint8_t bmRightShift : 1;
  92:hidboot.h     ****         uint8_t bmRightAlt : 1;
  93:hidboot.h     ****         uint8_t bmRightGUI : 1;
  94:hidboot.h     **** };
  95:hidboot.h     **** 
  96:hidboot.h     **** struct KBDINFO {
ARM GAS  C:\Users\jrdia\AppData\Local\Temp\ccItZmGG.s 			page 6


  97:hidboot.h     **** 
  98:hidboot.h     ****         struct {
  99:hidboot.h     ****                 uint8_t bmLeftCtrl : 1;
 100:hidboot.h     ****                 uint8_t bmLeftShift : 1;
 101:hidboot.h     ****                 uint8_t bmLeftAlt : 1;
 102:hidboot.h     ****                 uint8_t bmLeftGUI : 1;
 103:hidboot.h     ****                 uint8_t bmRightCtrl : 1;
 104:hidboot.h     ****                 uint8_t bmRightShift : 1;
 105:hidboot.h     ****                 uint8_t bmRightAlt : 1;
 106:hidboot.h     ****                 uint8_t bmRightGUI : 1;
 107:hidboot.h     ****         };
 108:hidboot.h     ****         uint8_t bReserved;
 109:hidboot.h     ****         uint8_t Keys[6];
 110:hidboot.h     **** };
 111:hidboot.h     **** 
 112:hidboot.h     **** struct KBDLEDS {
 113:hidboot.h     ****         uint8_t bmNumLock : 1;
 114:hidboot.h     ****         uint8_t bmCapsLock : 1;
 115:hidboot.h     ****         uint8_t bmScrollLock : 1;
 116:hidboot.h     ****         uint8_t bmCompose : 1;
 117:hidboot.h     ****         uint8_t bmKana : 1;
 118:hidboot.h     ****         uint8_t bmReserved : 3;
 119:hidboot.h     **** };
 120:hidboot.h     **** 
 121:hidboot.h     **** class KeyboardReportParser : public HIDReportParser {
 122:hidboot.h     ****         static const uint8_t numKeys[10];
 123:hidboot.h     ****         static const uint8_t symKeysUp[12];
 124:hidboot.h     ****         static const uint8_t symKeysLo[12];
 125:hidboot.h     ****         static const uint8_t padKeys[5];
 126:hidboot.h     **** 
 127:hidboot.h     **** protected:
 128:hidboot.h     **** 
 129:hidboot.h     ****         union {
 130:hidboot.h     ****                 KBDINFO kbdInfo;
 131:hidboot.h     ****                 uint8_t bInfo[sizeof (KBDINFO)];
 132:hidboot.h     ****         } prevState;
 133:hidboot.h     **** 
 134:hidboot.h     ****         union {
 135:hidboot.h     ****                 KBDLEDS kbdLeds;
 136:hidboot.h     ****                 uint8_t bLeds;
 137:hidboot.h     ****         } kbdLockingKeys;
 138:hidboot.h     **** 
 139:hidboot.h     ****         uint8_t OemToAscii(uint8_t mod, uint8_t key);
 140:hidboot.h     **** 
 141:hidboot.h     **** public:
 142:hidboot.h     **** 
 143:hidboot.h     ****         KeyboardReportParser() {
 144:hidboot.h     ****                 kbdLockingKeys.bLeds = 0;
 145:hidboot.h     ****         };
 146:hidboot.h     **** 
 147:hidboot.h     ****         void Parse(USBHID *hid, bool is_rpt_id, uint8_t len, uint8_t *buf);
 148:hidboot.h     **** 
 149:hidboot.h     **** protected:
 150:hidboot.h     **** 
 151:hidboot.h     ****         virtual uint8_t HandleLockingKeys(USBHID* hid, uint8_t key) {
 152:hidboot.h     ****                 uint8_t old_keys = kbdLockingKeys.bLeds;
 153:hidboot.h     **** 
ARM GAS  C:\Users\jrdia\AppData\Local\Temp\ccItZmGG.s 			page 7


 154:hidboot.h     ****                 switch(key) {
 155:hidboot.h     ****                         case UHS_HID_BOOT_KEY_NUM_LOCK:
 156:hidboot.h     ****                                 kbdLockingKeys.kbdLeds.bmNumLock = ~kbdLockingKeys.kbdLeds.bmNumLoc
 157:hidboot.h     ****                                 break;
 158:hidboot.h     ****                         case UHS_HID_BOOT_KEY_CAPS_LOCK:
 159:hidboot.h     ****                                 kbdLockingKeys.kbdLeds.bmCapsLock = ~kbdLockingKeys.kbdLeds.bmCapsL
 160:hidboot.h     ****                                 break;
 161:hidboot.h     ****                         case UHS_HID_BOOT_KEY_SCROLL_LOCK:
 162:hidboot.h     ****                                 kbdLockingKeys.kbdLeds.bmScrollLock = ~kbdLockingKeys.kbdLeds.bmScr
 163:hidboot.h     ****                                 break;
 164:hidboot.h     ****                 }
 165:hidboot.h     **** 
 166:hidboot.h     ****                 if(old_keys != kbdLockingKeys.bLeds && hid) {
 167:hidboot.h     ****                         uint8_t lockLeds = kbdLockingKeys.bLeds;
 168:hidboot.h     ****                         return (hid->SetReport(0, 0/*hid->GetIface()*/, 2, 0, 1, &lockLeds));
 169:hidboot.h     ****                 }
 170:hidboot.h     **** 
 171:hidboot.h     ****                 return 0;
 172:hidboot.h     ****         };
 173:hidboot.h     **** 
 174:hidboot.h     ****         virtual void OnControlKeysChanged(uint8_t before, uint8_t after) {
 190              		.loc 1 174 0
 191              		.cfi_startproc
 192              		@ args = 0, pretend = 0, frame = 0
 193              		@ frame_needed = 0, uses_anonymous_args = 0
 194              		@ link register save eliminated.
 195              	.LVL7:
 175:hidboot.h     ****         };
 196              		.loc 1 175 0
 197              		@ sp needed
 198 0000 7047     		bx	lr
 199              		.cfi_endproc
 200              	.LFE239:
 201              		.cantunwind
 202              		.fnend
 203              		.size	_ZN20KeyboardReportParser20OnControlKeysChangedEhh, .-_ZN20KeyboardReportParser20OnControlKe
 204 0002 C046     		.section	.text._ZN20KeyboardReportParser9OnKeyDownEhh,"axG",%progbits,_ZN20KeyboardReportParser9On
 205              		.align	2
 206              		.weak	_ZN20KeyboardReportParser9OnKeyDownEhh
 207              		.code	16
 208              		.thumb_func
 209              		.type	_ZN20KeyboardReportParser9OnKeyDownEhh, %function
 210              	_ZN20KeyboardReportParser9OnKeyDownEhh:
 211              		.fnstart
 212              	.LFB240:
 176:hidboot.h     **** 
 177:hidboot.h     ****         virtual void OnKeyDown(uint8_t mod, uint8_t key) {
 213              		.loc 1 177 0
 214              		.cfi_startproc
 215              		@ args = 0, pretend = 0, frame = 0
 216              		@ frame_needed = 0, uses_anonymous_args = 0
 217              		@ link register save eliminated.
 218              	.LVL8:
 178:hidboot.h     ****         };
 219              		.loc 1 178 0
 220              		@ sp needed
 221 0000 7047     		bx	lr
ARM GAS  C:\Users\jrdia\AppData\Local\Temp\ccItZmGG.s 			page 8


 222              		.cfi_endproc
 223              	.LFE240:
 224              		.cantunwind
 225              		.fnend
 226              		.size	_ZN20KeyboardReportParser9OnKeyDownEhh, .-_ZN20KeyboardReportParser9OnKeyDownEhh
 227 0002 C046     		.section	.text._ZN20KeyboardReportParser7OnKeyUpEhh,"axG",%progbits,_ZN20KeyboardReportParser7OnKe
 228              		.align	2
 229              		.weak	_ZN20KeyboardReportParser7OnKeyUpEhh
 230              		.code	16
 231              		.thumb_func
 232              		.type	_ZN20KeyboardReportParser7OnKeyUpEhh, %function
 233              	_ZN20KeyboardReportParser7OnKeyUpEhh:
 234              		.fnstart
 235              	.LFB241:
 179:hidboot.h     **** 
 180:hidboot.h     ****         virtual void OnKeyUp(uint8_t mod, uint8_t key) {
 236              		.loc 1 180 0
 237              		.cfi_startproc
 238              		@ args = 0, pretend = 0, frame = 0
 239              		@ frame_needed = 0, uses_anonymous_args = 0
 240              		@ link register save eliminated.
 241              	.LVL9:
 181:hidboot.h     ****         };
 242              		.loc 1 181 0
 243              		@ sp needed
 244 0000 7047     		bx	lr
 245              		.cfi_endproc
 246              	.LFE241:
 247              		.cantunwind
 248              		.fnend
 249              		.size	_ZN20KeyboardReportParser7OnKeyUpEhh, .-_ZN20KeyboardReportParser7OnKeyUpEhh
 250 0002 C046     		.section	.text._ZN20KeyboardReportParser10getNumKeysEv,"axG",%progbits,_ZN20KeyboardReportParser10
 251              		.align	2
 252              		.weak	_ZN20KeyboardReportParser10getNumKeysEv
 253              		.code	16
 254              		.thumb_func
 255              		.type	_ZN20KeyboardReportParser10getNumKeysEv, %function
 256              	_ZN20KeyboardReportParser10getNumKeysEv:
 257              		.fnstart
 258              	.LFB242:
 182:hidboot.h     **** 
 183:hidboot.h     ****         virtual const uint8_t *getNumKeys() {
 259              		.loc 1 183 0
 260              		.cfi_startproc
 261              		@ args = 0, pretend = 0, frame = 0
 262              		@ frame_needed = 0, uses_anonymous_args = 0
 263              		@ link register save eliminated.
 264              	.LVL10:
 184:hidboot.h     ****                 return numKeys;
 185:hidboot.h     ****         };
 265              		.loc 1 185 0
 266 0000 0048     		ldr	r0, .L12
 267              	.LVL11:
 268              		@ sp needed
 269 0002 7047     		bx	lr
 270              	.L13:
 271              		.align	2
ARM GAS  C:\Users\jrdia\AppData\Local\Temp\ccItZmGG.s 			page 9


 272              	.L12:
 273 0004 00000000 		.word	.LANCHOR0
 274              		.cfi_endproc
 275              	.LFE242:
 276              		.cantunwind
 277              		.fnend
 278              		.size	_ZN20KeyboardReportParser10getNumKeysEv, .-_ZN20KeyboardReportParser10getNumKeysEv
 279              		.section	.text._ZN20KeyboardReportParser12getSymKeysUpEv,"axG",%progbits,_ZN20KeyboardReportParser
 280              		.align	2
 281              		.weak	_ZN20KeyboardReportParser12getSymKeysUpEv
 282              		.code	16
 283              		.thumb_func
 284              		.type	_ZN20KeyboardReportParser12getSymKeysUpEv, %function
 285              	_ZN20KeyboardReportParser12getSymKeysUpEv:
 286              		.fnstart
 287              	.LFB243:
 186:hidboot.h     **** 
 187:hidboot.h     ****         virtual const uint8_t *getSymKeysUp() {
 288              		.loc 1 187 0
 289              		.cfi_startproc
 290              		@ args = 0, pretend = 0, frame = 0
 291              		@ frame_needed = 0, uses_anonymous_args = 0
 292              		@ link register save eliminated.
 293              	.LVL12:
 188:hidboot.h     ****                 return symKeysUp;
 294              		.loc 1 188 0
 295 0000 0148     		ldr	r0, .L15
 296              	.LVL13:
 189:hidboot.h     ****         };
 297              		.loc 1 189 0
 298              		@ sp needed
 299 0002 0C30     		adds	r0, r0, #12
 300 0004 7047     		bx	lr
 301              	.L16:
 302 0006 C046     		.align	2
 303              	.L15:
 304 0008 00000000 		.word	.LANCHOR0
 305              		.cfi_endproc
 306              	.LFE243:
 307              		.cantunwind
 308              		.fnend
 309              		.size	_ZN20KeyboardReportParser12getSymKeysUpEv, .-_ZN20KeyboardReportParser12getSymKeysUpEv
 310              		.section	.text._ZN20KeyboardReportParser12getSymKeysLoEv,"axG",%progbits,_ZN20KeyboardReportParser
 311              		.align	2
 312              		.weak	_ZN20KeyboardReportParser12getSymKeysLoEv
 313              		.code	16
 314              		.thumb_func
 315              		.type	_ZN20KeyboardReportParser12getSymKeysLoEv, %function
 316              	_ZN20KeyboardReportParser12getSymKeysLoEv:
 317              		.fnstart
 318              	.LFB244:
 190:hidboot.h     **** 
 191:hidboot.h     ****         virtual const uint8_t *getSymKeysLo() {
 319              		.loc 1 191 0
 320              		.cfi_startproc
 321              		@ args = 0, pretend = 0, frame = 0
 322              		@ frame_needed = 0, uses_anonymous_args = 0
ARM GAS  C:\Users\jrdia\AppData\Local\Temp\ccItZmGG.s 			page 10


 323              		@ link register save eliminated.
 324              	.LVL14:
 192:hidboot.h     ****                 return symKeysLo;
 325              		.loc 1 192 0
 326 0000 0148     		ldr	r0, .L18
 327              	.LVL15:
 193:hidboot.h     ****         };
 328              		.loc 1 193 0
 329              		@ sp needed
 330 0002 1830     		adds	r0, r0, #24
 331 0004 7047     		bx	lr
 332              	.L19:
 333 0006 C046     		.align	2
 334              	.L18:
 335 0008 00000000 		.word	.LANCHOR0
 336              		.cfi_endproc
 337              	.LFE244:
 338              		.cantunwind
 339              		.fnend
 340              		.size	_ZN20KeyboardReportParser12getSymKeysLoEv, .-_ZN20KeyboardReportParser12getSymKeysLoEv
 341              		.section	.text._ZN20KeyboardReportParser10getPadKeysEv,"axG",%progbits,_ZN20KeyboardReportParser10
 342              		.align	2
 343              		.weak	_ZN20KeyboardReportParser10getPadKeysEv
 344              		.code	16
 345              		.thumb_func
 346              		.type	_ZN20KeyboardReportParser10getPadKeysEv, %function
 347              	_ZN20KeyboardReportParser10getPadKeysEv:
 348              		.fnstart
 349              	.LFB245:
 194:hidboot.h     **** 
 195:hidboot.h     ****         virtual const uint8_t *getPadKeys() {
 350              		.loc 1 195 0
 351              		.cfi_startproc
 352              		@ args = 0, pretend = 0, frame = 0
 353              		@ frame_needed = 0, uses_anonymous_args = 0
 354              		@ link register save eliminated.
 355              	.LVL16:
 196:hidboot.h     ****                 return padKeys;
 356              		.loc 1 196 0
 357 0000 0148     		ldr	r0, .L21
 358              	.LVL17:
 197:hidboot.h     ****         };
 359              		.loc 1 197 0
 360              		@ sp needed
 361 0002 2430     		adds	r0, r0, #36
 362 0004 7047     		bx	lr
 363              	.L22:
 364 0006 C046     		.align	2
 365              	.L21:
 366 0008 00000000 		.word	.LANCHOR0
 367              		.cfi_endproc
 368              	.LFE245:
 369              		.cantunwind
 370              		.fnend
 371              		.size	_ZN20KeyboardReportParser10getPadKeysEv, .-_ZN20KeyboardReportParser10getPadKeysEv
 372              		.section	.text._ZN20KeyboardReportParser17HandleLockingKeysEP6USBHIDh,"axG",%progbits,_ZN20Keyboar
 373              		.align	2
ARM GAS  C:\Users\jrdia\AppData\Local\Temp\ccItZmGG.s 			page 11


 374              		.weak	_ZN20KeyboardReportParser17HandleLockingKeysEP6USBHIDh
 375              		.code	16
 376              		.thumb_func
 377              		.type	_ZN20KeyboardReportParser17HandleLockingKeysEP6USBHIDh, %function
 378              	_ZN20KeyboardReportParser17HandleLockingKeysEP6USBHIDh:
 379              		.fnstart
 380              	.LFB238:
 151:hidboot.h     ****                 uint8_t old_keys = kbdLockingKeys.bLeds;
 381              		.loc 1 151 0
 382              		.cfi_startproc
 383              		@ args = 0, pretend = 0, frame = 8
 384              		@ frame_needed = 0, uses_anonymous_args = 0
 385              	.LVL18:
 386 0000 30B5     		push	{r4, r5, lr}
 387              		.save {r4, r5, lr}
 388              		.cfi_def_cfa_offset 12
 389              		.cfi_offset 4, -12
 390              		.cfi_offset 5, -8
 391              		.cfi_offset 14, -4
 392 0002 0C00     		movs	r4, r1
 393              		.pad #28
 394 0004 87B0     		sub	sp, sp, #28
 395              		.cfi_def_cfa_offset 40
 152:hidboot.h     **** 
 396              		.loc 1 152 0
 397 0006 017B     		ldrb	r1, [r0, #12]
 398              	.LVL19:
 154:hidboot.h     ****                         case UHS_HID_BOOT_KEY_NUM_LOCK:
 399              		.loc 1 154 0
 400 0008 472A     		cmp	r2, #71
 401 000a 2AD0     		beq	.L25
 402 000c 532A     		cmp	r2, #83
 403 000e 21D0     		beq	.L26
 404 0010 392A     		cmp	r2, #57
 405 0012 02D0     		beq	.L36
 171:hidboot.h     ****         };
 406              		.loc 1 171 0
 407 0014 0020     		movs	r0, #0
 408              	.LVL20:
 409              	.L24:
 172:hidboot.h     **** 
 410              		.loc 1 172 0 discriminator 1
 411 0016 07B0     		add	sp, sp, #28
 412              		@ sp needed
 413              	.LVL21:
 414 0018 30BD     		pop	{r4, r5, pc}
 415              	.LVL22:
 416              	.L36:
 159:hidboot.h     ****                                 break;
 417              		.loc 1 159 0
 418 001a 0123     		movs	r3, #1
 419 001c 8A07     		lsls	r2, r1, #30
 420              	.LVL23:
 421 001e D20F     		lsrs	r2, r2, #31
 422 0020 9343     		bics	r3, r2
 423 0022 0222     		movs	r2, #2
 424 0024 5B00     		lsls	r3, r3, #1
ARM GAS  C:\Users\jrdia\AppData\Local\Temp\ccItZmGG.s 			page 12


 425              	.L33:
 162:hidboot.h     ****                                 break;
 426              		.loc 1 162 0
 427 0026 0D00     		movs	r5, r1
 428 0028 9543     		bics	r5, r2
 429 002a 2B43     		orrs	r3, r5
 430 002c 0373     		strb	r3, [r0, #12]
 171:hidboot.h     ****         };
 431              		.loc 1 171 0
 432 002e 0020     		movs	r0, #0
 433              	.LVL24:
 434              	.LBB4:
 166:hidboot.h     ****                         uint8_t lockLeds = kbdLockingKeys.bLeds;
 435              		.loc 1 166 0
 436 0030 9942     		cmp	r1, r3
 437 0032 F0D0     		beq	.L24
 166:hidboot.h     ****                         uint8_t lockLeds = kbdLockingKeys.bLeds;
 438              		.loc 1 166 0 is_stmt 0 discriminator 1
 439 0034 002C     		cmp	r4, #0
 440 0036 EED0     		beq	.L24
 441              	.LBB5:
 167:hidboot.h     ****                         return (hid->SetReport(0, 0/*hid->GetIface()*/, 2, 0, 1, &lockLeds));
 442              		.loc 1 167 0 is_stmt 1
 443 0038 1722     		movs	r2, #23
 444 003a 6A44     		add	r2, r2, sp
 445 003c 1370     		strb	r3, [r2]
 168:hidboot.h     ****                 }
 446              		.loc 1 168 0
 447 003e 0123     		movs	r3, #1
 448 0040 0292     		str	r2, [sp, #8]
 449 0042 0193     		str	r3, [sp, #4]
 450 0044 0090     		str	r0, [sp]
 451 0046 0133     		adds	r3, r3, #1
 452 0048 0022     		movs	r2, #0
 453 004a 0021     		movs	r1, #0
 454              	.LVL25:
 455 004c 2000     		movs	r0, r4
 456 004e FFF7FEFF 		bl	_ZN6USBHID9SetReportEhhhhtPh
 457              	.LVL26:
 458 0052 E0E7     		b	.L24
 459              	.LVL27:
 460              	.L26:
 461              	.LBE5:
 462              	.LBE4:
 156:hidboot.h     ****                                 break;
 463              		.loc 1 156 0
 464 0054 0122     		movs	r2, #1
 465              	.LVL28:
 466 0056 1500     		movs	r5, r2
 467 0058 CB07     		lsls	r3, r1, #31
 468 005a DB0F     		lsrs	r3, r3, #31
 469 005c 9D43     		bics	r5, r3
 470 005e 2B00     		movs	r3, r5
 471 0060 E1E7     		b	.L33
 472              	.LVL29:
 473              	.L25:
 162:hidboot.h     ****                                 break;
ARM GAS  C:\Users\jrdia\AppData\Local\Temp\ccItZmGG.s 			page 13


 474              		.loc 1 162 0
 475 0062 0123     		movs	r3, #1
 476 0064 4A07     		lsls	r2, r1, #29
 477              	.LVL30:
 478 0066 D20F     		lsrs	r2, r2, #31
 479 0068 9343     		bics	r3, r2
 480 006a 9B00     		lsls	r3, r3, #2
 481 006c 0422     		movs	r2, #4
 482 006e DAE7     		b	.L33
 483              		.cfi_endproc
 484              	.LFE238:
 485              		.fnend
 486              		.size	_ZN20KeyboardReportParser17HandleLockingKeysEP6USBHIDh, .-_ZN20KeyboardReportParser17HandleL
 487              		.section	.text._ZN17MouseReportParser5ParseEP6USBHIDbhPh,"ax",%progbits
 488              		.align	2
 489              		.global	_ZN17MouseReportParser5ParseEP6USBHIDbhPh
 490              		.code	16
 491              		.thumb_func
 492              		.type	_ZN17MouseReportParser5ParseEP6USBHIDbhPh, %function
 493              	_ZN17MouseReportParser5ParseEP6USBHIDbhPh:
 494              		.fnstart
 495              	.LFB258:
 496              		.file 2 "hidboot.c"
   1:hidboot.c     **** /* Copyright (C) 2011 Circuits At Home, LTD. All rights reserved.
   2:hidboot.c     **** 
   3:hidboot.c     **** This software may be distributed and modified under the terms of the GNU
   4:hidboot.c     **** General Public License version 2 (GPL2) as published by the Free Software
   5:hidboot.c     **** Foundation and appearing in the file GPL2.TXT included in the packaging of
   6:hidboot.c     **** this file. Please note that GPL2 Section 2[b] requires that all works based
   7:hidboot.c     **** on this software must also be made publicly available under the terms of
   8:hidboot.c     **** the GPL2 ("Copyleft").
   9:hidboot.c     **** 
  10:hidboot.c     **** Contact information
  11:hidboot.c     **** -------------------
  12:hidboot.c     **** 
  13:hidboot.c     **** Circuits At Home, LTD
  14:hidboot.c     **** Web      :  http://www.circuitsathome.com
  15:hidboot.c     **** e-mail   :  support@circuitsathome.com
  16:hidboot.c     ****  */
  17:hidboot.c     **** #include "hidboot.h"
  18:hidboot.c     **** 
  19:hidboot.c     **** void MouseReportParser::Parse(USBHID *hid, bool is_rpt_id, uint8_t len, uint8_t *buf) {
 497              		.loc 2 19 0
 498              		.cfi_startproc
 499              		@ args = 4, pretend = 0, frame = 0
 500              		@ frame_needed = 0, uses_anonymous_args = 0
 501              	.LVL31:
 502 0000 70B5     		push	{r4, r5, r6, lr}
 503              		.save {r4, r5, r6, lr}
 504              		.cfi_def_cfa_offset 16
 505              		.cfi_offset 4, -16
 506              		.cfi_offset 5, -12
 507              		.cfi_offset 6, -8
 508              		.cfi_offset 14, -4
 509              		.loc 2 19 0
 510 0002 049C     		ldr	r4, [sp, #16]
 511              	.LVL32:
ARM GAS  C:\Users\jrdia\AppData\Local\Temp\ccItZmGG.s 			page 14


  20:hidboot.c     ****         MOUSEINFO *pmi = (MOUSEINFO*)buf;
  21:hidboot.c     ****         // Future:
  22:hidboot.c     ****         // bool event;
  23:hidboot.c     **** 
  24:hidboot.c     **** #if 0
  25:hidboot.c     ****         if (prevState.mouseInfo.bmLeftButton == 0 && pmi->bmLeftButton == 1)
  26:hidboot.c     ****                 OnLeftButtonDown(pmi);
  27:hidboot.c     **** 
  28:hidboot.c     ****         if (prevState.mouseInfo.bmLeftButton == 1 && pmi->bmLeftButton == 0)
  29:hidboot.c     ****                 OnLeftButtonUp(pmi);
  30:hidboot.c     **** 
  31:hidboot.c     ****         if (prevState.mouseInfo.bmRightButton == 0 && pmi->bmRightButton == 1)
  32:hidboot.c     ****                 OnRightButtonDown(pmi);
  33:hidboot.c     **** 
  34:hidboot.c     ****         if (prevState.mouseInfo.bmRightButton == 1 && pmi->bmRightButton == 0)
  35:hidboot.c     ****                 OnRightButtonUp(pmi);
  36:hidboot.c     **** 
  37:hidboot.c     ****         if (prevState.mouseInfo.bmMiddleButton == 0 && pmi->bmMiddleButton == 1)
  38:hidboot.c     ****                 OnMiddleButtonDown(pmi);
  39:hidboot.c     **** 
  40:hidboot.c     ****         if (prevState.mouseInfo.bmMiddleButton == 1 && pmi->bmMiddleButton == 0)
  41:hidboot.c     ****                 OnMiddleButtonUp(pmi);
  42:hidboot.c     **** 
  43:hidboot.c     ****         if (prevState.mouseInfo.dX != pmi->dX || prevState.mouseInfo.dY != pmi->dY)
  44:hidboot.c     ****                 OnMouseMove(pmi);
  45:hidboot.c     **** 
  46:hidboot.c     ****         if (len > sizeof (MOUSEINFO))
  47:hidboot.c     ****                 for (uint8_t i = 0; i<sizeof (MOUSEINFO); i++)
  48:hidboot.c     ****                         prevState.bInfo[i] = buf[i];
  49:hidboot.c     **** #else
  50:hidboot.c     ****         //
  51:hidboot.c     ****         // Optimization idea:
  52:hidboot.c     ****         //
  53:hidboot.c     ****         // 1: Don't pass the structure on every event. Buttons would not need it.
  54:hidboot.c     ****         // 2: Only pass x/y values in the movement routine.
  55:hidboot.c     ****         //
  56:hidboot.c     ****         // These two changes (with the ones I have made) will save extra flash.
  57:hidboot.c     ****         // The only "bad" thing is that it could break old code.
  58:hidboot.c     ****         //
  59:hidboot.c     ****         // Future thoughts:
  60:hidboot.c     ****         //
  61:hidboot.c     ****         // The extra space gained can be used for a generic mouse event that can be called
  62:hidboot.c     ****         // when there are _ANY_ changes. This one you _MAY_ want to pass everything, however the
  63:hidboot.c     ****         // sketch could already have noted these facts to support drag/drop scroll wheel stuff, etc
  64:hidboot.c     ****         //
  65:hidboot.c     **** 
  66:hidboot.c     ****         // Why do we need to pass the structure for buttons?
  67:hidboot.c     ****         // The function call not enough of a hint for what is happening?
  68:hidboot.c     ****         if(prevState.mouseInfo.bmLeftButton != pmi->bmLeftButton ) {
 512              		.loc 2 68 0
 513 0004 0379     		ldrb	r3, [r0, #4]
 514              	.LVL33:
 515 0006 2278     		ldrb	r2, [r4]
 516              	.LVL34:
  19:hidboot.c     ****         MOUSEINFO *pmi = (MOUSEINFO*)buf;
 517              		.loc 2 19 0
 518 0008 0500     		movs	r5, r0
ARM GAS  C:\Users\jrdia\AppData\Local\Temp\ccItZmGG.s 			page 15


 519              		.loc 2 68 0
 520 000a D107     		lsls	r1, r2, #31
 521              	.LVL35:
 522 000c D807     		lsls	r0, r3, #31
 523              	.LVL36:
 524 000e C00F     		lsrs	r0, r0, #31
 525 0010 C90F     		lsrs	r1, r1, #31
 526 0012 C0B2     		uxtb	r0, r0
 527 0014 C9B2     		uxtb	r1, r1
 528 0016 8842     		cmp	r0, r1
 529 0018 06D0     		beq	.L38
  69:hidboot.c     ****                 if(pmi->bmLeftButton) {
 530              		.loc 2 69 0
 531 001a D107     		lsls	r1, r2, #31
 532 001c 42D5     		bpl	.L39
  70:hidboot.c     ****                         OnLeftButtonDown(pmi);
 533              		.loc 2 70 0
 534 001e 2968     		ldr	r1, [r5]
 535 0020 CE68     		ldr	r6, [r1, #12]
 536 0022 2849     		ldr	r1, .L53
 537 0024 8E42     		cmp	r6, r1
 538 0026 42D1     		bne	.L49
 539              	.L38:
  71:hidboot.c     ****                 } else {
  72:hidboot.c     ****                         OnLeftButtonUp(pmi);
  73:hidboot.c     ****                 }
  74:hidboot.c     ****                 // Future:
  75:hidboot.c     ****                 // event = true;
  76:hidboot.c     ****         }
  77:hidboot.c     **** 
  78:hidboot.c     ****         if(prevState.mouseInfo.bmRightButton != pmi->bmRightButton) {
 540              		.loc 2 78 0
 541 0028 9807     		lsls	r0, r3, #30
 542 002a 9107     		lsls	r1, r2, #30
 543 002c C00F     		lsrs	r0, r0, #31
 544 002e C90F     		lsrs	r1, r1, #31
 545 0030 8842     		cmp	r0, r1
 546 0032 06D0     		beq	.L40
  79:hidboot.c     ****                 if(pmi->bmRightButton) {
 547              		.loc 2 79 0
 548 0034 9107     		lsls	r1, r2, #30
 549 0036 2AD5     		bpl	.L41
  80:hidboot.c     ****                         OnRightButtonDown(pmi);
 550              		.loc 2 80 0
 551 0038 2968     		ldr	r1, [r5]
 552 003a 4E69     		ldr	r6, [r1, #20]
 553 003c 2249     		ldr	r1, .L53+4
 554 003e 8E42     		cmp	r6, r1
 555 0040 2AD1     		bne	.L50
 556              	.L40:
  81:hidboot.c     ****                 } else {
  82:hidboot.c     ****                         OnRightButtonUp(pmi);
  83:hidboot.c     ****                 }
  84:hidboot.c     ****                 // Future:
  85:hidboot.c     ****                 // event = true;
  86:hidboot.c     ****         }
  87:hidboot.c     **** 
ARM GAS  C:\Users\jrdia\AppData\Local\Temp\ccItZmGG.s 			page 16


  88:hidboot.c     ****         if(prevState.mouseInfo.bmMiddleButton != pmi->bmMiddleButton) {
 557              		.loc 2 88 0
 558 0042 5B07     		lsls	r3, r3, #29
 559 0044 5107     		lsls	r1, r2, #29
 560 0046 DB0F     		lsrs	r3, r3, #31
 561 0048 C90F     		lsrs	r1, r1, #31
 562 004a 8B42     		cmp	r3, r1
 563 004c 06D0     		beq	.L42
  89:hidboot.c     ****                 if(pmi->bmMiddleButton) {
 564              		.loc 2 89 0
 565 004e 5307     		lsls	r3, r2, #29
 566 0050 14D5     		bpl	.L43
  90:hidboot.c     ****                         OnMiddleButtonDown(pmi);
 567              		.loc 2 90 0
 568 0052 2B68     		ldr	r3, [r5]
 569 0054 1D4A     		ldr	r2, .L53+8
 570 0056 DB69     		ldr	r3, [r3, #28]
 571 0058 9342     		cmp	r3, r2
 572 005a 14D1     		bne	.L51
 573              	.L42:
  91:hidboot.c     ****                 } else {
  92:hidboot.c     ****                         OnMiddleButtonUp(pmi);
  93:hidboot.c     ****                 }
  94:hidboot.c     ****                 // Future:
  95:hidboot.c     ****                 // event = true;
  96:hidboot.c     ****         }
  97:hidboot.c     **** 
  98:hidboot.c     ****         //
  99:hidboot.c     ****         // Scroll wheel(s), are not part of the spec, but we could support it.
 100:hidboot.c     ****         // Logitech wireless keyboard and mouse combo reports scroll wheel in byte 4
 101:hidboot.c     ****         // We wouldn't even need to save this information.
 102:hidboot.c     ****         //if(len > 3) {
 103:hidboot.c     ****         //}
 104:hidboot.c     ****         //
 105:hidboot.c     **** 
 106:hidboot.c     ****         // Mice only report motion when they actually move!
 107:hidboot.c     ****         // Why not just pass the x/y values to simplify things??
 108:hidboot.c     ****         if(pmi->dX || pmi->dY) {
 574              		.loc 2 108 0
 575 005c 0123     		movs	r3, #1
 576 005e E356     		ldrsb	r3, [r4, r3]
 577 0060 002B     		cmp	r3, #0
 578 0062 03D1     		bne	.L44
 579              		.loc 2 108 0 is_stmt 0 discriminator 1
 580 0064 0223     		movs	r3, #2
 581 0066 E356     		ldrsb	r3, [r4, r3]
 582 0068 002B     		cmp	r3, #0
 583 006a 04D0     		beq	.L45
 584              	.L44:
 109:hidboot.c     ****                 OnMouseMove(pmi);
 585              		.loc 2 109 0 is_stmt 1
 586 006c 2B68     		ldr	r3, [r5]
 587 006e 184A     		ldr	r2, .L53+12
 588 0070 5B68     		ldr	r3, [r3, #4]
 589 0072 9342     		cmp	r3, r2
 590 0074 21D1     		bne	.L52
 591              	.L45:
ARM GAS  C:\Users\jrdia\AppData\Local\Temp\ccItZmGG.s 			page 17


 110:hidboot.c     ****                 // Future:
 111:hidboot.c     ****                 // event = true;
 112:hidboot.c     ****         }
 113:hidboot.c     **** 
 114:hidboot.c     ****         //
 115:hidboot.c     ****         // Future:
 116:hidboot.c     ****         // Provide a callback that operates on the gathered events from above.
 117:hidboot.c     ****         //
 118:hidboot.c     ****         // if(event) OnMouse();
 119:hidboot.c     ****         //
 120:hidboot.c     **** 
 121:hidboot.c     ****         // Only the first byte matters (buttons). We do NOT need to save position info.
 122:hidboot.c     ****         prevState.bInfo[0] = buf[0];
 592              		.loc 2 122 0
 593 0076 2378     		ldrb	r3, [r4]
 123:hidboot.c     **** #endif
 124:hidboot.c     **** 
 125:hidboot.c     **** };
 594              		.loc 2 125 0
 595              		@ sp needed
 122:hidboot.c     **** #endif
 596              		.loc 2 122 0
 597 0078 2B71     		strb	r3, [r5, #4]
 598              	.LVL37:
 599              	.LVL38:
 600              		.loc 2 125 0
 601 007a 70BD     		pop	{r4, r5, r6, pc}
 602              	.LVL39:
 603              	.L43:
  92:hidboot.c     ****                 }
 604              		.loc 2 92 0
 605 007c 2B68     		ldr	r3, [r5]
 606 007e 154A     		ldr	r2, .L53+16
 607 0080 9B69     		ldr	r3, [r3, #24]
 608 0082 9342     		cmp	r3, r2
 609 0084 EAD0     		beq	.L42
 610              	.L51:
 611 0086 2100     		movs	r1, r4
 612 0088 2800     		movs	r0, r5
 613 008a 9847     		blx	r3
 614              	.LVL40:
 615 008c E6E7     		b	.L42
 616              	.L41:
  82:hidboot.c     ****                 }
 617              		.loc 2 82 0
 618 008e 2968     		ldr	r1, [r5]
 619 0090 0E69     		ldr	r6, [r1, #16]
 620 0092 1149     		ldr	r1, .L53+20
 621 0094 8E42     		cmp	r6, r1
 622 0096 D4D0     		beq	.L40
 623              	.L50:
 624 0098 2100     		movs	r1, r4
 625 009a 2800     		movs	r0, r5
 626 009c B047     		blx	r6
 627              	.LVL41:
 628 009e 2B79     		ldrb	r3, [r5, #4]
 629 00a0 2278     		ldrb	r2, [r4]
ARM GAS  C:\Users\jrdia\AppData\Local\Temp\ccItZmGG.s 			page 18


 630 00a2 CEE7     		b	.L40
 631              	.L39:
  72:hidboot.c     ****                 }
 632              		.loc 2 72 0
 633 00a4 2968     		ldr	r1, [r5]
 634 00a6 8E68     		ldr	r6, [r1, #8]
 635 00a8 0C49     		ldr	r1, .L53+24
 636 00aa 8E42     		cmp	r6, r1
 637 00ac BCD0     		beq	.L38
 638              	.L49:
 639 00ae 2100     		movs	r1, r4
 640 00b0 2800     		movs	r0, r5
 641 00b2 B047     		blx	r6
 642              	.LVL42:
 643 00b4 2B79     		ldrb	r3, [r5, #4]
 644 00b6 2278     		ldrb	r2, [r4]
 645 00b8 B6E7     		b	.L38
 646              	.L52:
 109:hidboot.c     ****                 // Future:
 647              		.loc 2 109 0
 648 00ba 2100     		movs	r1, r4
 649 00bc 2800     		movs	r0, r5
 650 00be 9847     		blx	r3
 651              	.LVL43:
 652 00c0 D9E7     		b	.L45
 653              	.L54:
 654 00c2 C046     		.align	2
 655              	.L53:
 656 00c4 00000000 		.word	_ZN17MouseReportParser16OnLeftButtonDownEP9MOUSEINFO
 657 00c8 00000000 		.word	_ZN17MouseReportParser17OnRightButtonDownEP9MOUSEINFO
 658 00cc 00000000 		.word	_ZN17MouseReportParser18OnMiddleButtonDownEP9MOUSEINFO
 659 00d0 00000000 		.word	_ZN17MouseReportParser11OnMouseMoveEP9MOUSEINFO
 660 00d4 00000000 		.word	_ZN17MouseReportParser16OnMiddleButtonUpEP9MOUSEINFO
 661 00d8 00000000 		.word	_ZN17MouseReportParser15OnRightButtonUpEP9MOUSEINFO
 662 00dc 00000000 		.word	_ZN17MouseReportParser14OnLeftButtonUpEP9MOUSEINFO
 663              		.cfi_endproc
 664              	.LFE258:
 665              		.fnend
 666              		.size	_ZN17MouseReportParser5ParseEP6USBHIDbhPh, .-_ZN17MouseReportParser5ParseEP6USBHIDbhPh
 667              		.section	.text._ZN20KeyboardReportParser5ParseEP6USBHIDbhPh,"ax",%progbits
 668              		.align	2
 669              		.global	_ZN20KeyboardReportParser5ParseEP6USBHIDbhPh
 670              		.code	16
 671              		.thumb_func
 672              		.type	_ZN20KeyboardReportParser5ParseEP6USBHIDbhPh, %function
 673              	_ZN20KeyboardReportParser5ParseEP6USBHIDbhPh:
 674              		.fnstart
 675              	.LFB259:
 126:hidboot.c     **** 
 127:hidboot.c     **** void KeyboardReportParser::Parse(USBHID *hid, bool is_rpt_id, uint8_t len, uint8_t *buf) {
 676              		.loc 2 127 0
 677              		.cfi_startproc
 678              		@ args = 4, pretend = 0, frame = 16
 679              		@ frame_needed = 0, uses_anonymous_args = 0
 680              	.LVL44:
 681 0000 F0B5     		push	{r4, r5, r6, r7, lr}
 682              		.save {r4, r5, r6, r7, lr}
ARM GAS  C:\Users\jrdia\AppData\Local\Temp\ccItZmGG.s 			page 19


 683              		.cfi_def_cfa_offset 20
 684              		.cfi_offset 4, -20
 685              		.cfi_offset 5, -16
 686              		.cfi_offset 6, -12
 687              		.cfi_offset 7, -8
 688              		.cfi_offset 14, -4
 689 0002 4D46     		mov	r5, r9
 690 0004 5F46     		mov	r7, fp
 691 0006 5646     		mov	r6, r10
 692 0008 4446     		mov	r4, r8
 693 000a F0B4     		push	{r4, r5, r6, r7}
 694              		.save {r8, r9, r10, fp}
 695              		.cfi_def_cfa_offset 36
 696              		.cfi_offset 8, -36
 697              		.cfi_offset 9, -32
 698              		.cfi_offset 10, -28
 699              		.cfi_offset 11, -24
 700              		.pad #36
 701 000c 89B0     		sub	sp, sp, #36
 702              		.cfi_def_cfa_offset 72
 128:hidboot.c     ****         // On error - return
 129:hidboot.c     ****         if (buf[2] == 1)
 703              		.loc 2 129 0
 704 000e 129B     		ldr	r3, [sp, #72]
 705              	.LVL45:
 127:hidboot.c     ****         // On error - return
 706              		.loc 2 127 0
 707 0010 0500     		movs	r5, r0
 708              		.loc 2 129 0
 709 0012 9B78     		ldrb	r3, [r3, #2]
 127:hidboot.c     ****         // On error - return
 710              		.loc 2 127 0
 711 0014 0591     		str	r1, [sp, #20]
 712              		.loc 2 129 0
 713 0016 012B     		cmp	r3, #1
 714 0018 4CD0     		beq	.L55
 130:hidboot.c     ****                 return;
 131:hidboot.c     **** 
 132:hidboot.c     ****         //KBDINFO       *pki = (KBDINFO*)buf;
 133:hidboot.c     **** 
 134:hidboot.c     ****         // provide event for changed control key state
 135:hidboot.c     ****         if (prevState.bInfo[0x00] != buf[0x00]) {
 715              		.loc 2 135 0
 716 001a 129B     		ldr	r3, [sp, #72]
 717 001c 0179     		ldrb	r1, [r0, #4]
 718              	.LVL46:
 719 001e 1A78     		ldrb	r2, [r3]
 720              	.LVL47:
 721 0020 9142     		cmp	r1, r2
 722 0022 05D0     		beq	.L57
 136:hidboot.c     ****                 OnControlKeysChanged(prevState.bInfo[0x00], buf[0x00]);
 723              		.loc 2 136 0
 724 0024 0368     		ldr	r3, [r0]
 725 0026 5B48     		ldr	r0, .L92
 726              	.LVL48:
 727 0028 9B68     		ldr	r3, [r3, #8]
 728 002a 8342     		cmp	r3, r0
ARM GAS  C:\Users\jrdia\AppData\Local\Temp\ccItZmGG.s 			page 20


 729 002c 00D0     		beq	.LCB561
 730 002e ADE0     		b	.L85	@long jump
 731              	.LCB561:
 732              	.L57:
 733              	.LVL49:
 734 0030 129B     		ldr	r3, [sp, #72]
 735 0032 2C00     		movs	r4, r5
 736 0034 0233     		adds	r3, r3, #2
 737 0036 9946     		mov	r9, r3
 738 0038 AB1D     		adds	r3, r5, #6
 739 003a 9A46     		mov	r10, r3
 127:hidboot.c     ****         // On error - return
 740              		.loc 2 127 0 discriminator 1
 741 003c 1E00     		movs	r6, r3
 742 003e 4B46     		mov	r3, r9
 743 0040 A846     		mov	r8, r5
 744 0042 0C34     		adds	r4, r4, #12
 745 0044 0493     		str	r3, [sp, #16]
 746              	.LVL50:
 747              	.L71:
 127:hidboot.c     ****         // On error - return
 748              		.loc 2 127 0 is_stmt 0
 749 0046 0020     		movs	r0, #0
 750 0048 049B     		ldr	r3, [sp, #16]
 751 004a 3578     		ldrb	r5, [r6]
 752 004c 1A78     		ldrb	r2, [r3]
 753 004e 4946     		mov	r1, r9
 754 0050 5346     		mov	r3, r10
 755 0052 0027     		movs	r7, #0
 756 0054 8346     		mov	fp, r0
 757 0056 06E0     		b	.L60
 758              	.LVL51:
 759              	.L58:
 760              	.LBB34:
 761              	.LBB35:
 762              	.LBB36:
 137:hidboot.c     ****         }
 138:hidboot.c     **** 
 139:hidboot.c     ****         for (uint8_t i = 2; i < 8; i++) {
 140:hidboot.c     ****                 bool down = false;
 141:hidboot.c     ****                 bool up = false;
 142:hidboot.c     **** 
 143:hidboot.c     ****                 for (uint8_t j = 2; j < 8; j++) {
 144:hidboot.c     ****                         if (buf[i] == prevState.bInfo[j] && buf[i] != 1)
 145:hidboot.c     ****                                 down = true;
 146:hidboot.c     ****                         if (buf[j] == prevState.bInfo[i] && prevState.bInfo[i] != 1)
 763              		.loc 2 146 0 is_stmt 1
 764 0058 0878     		ldrb	r0, [r1]
 765 005a A842     		cmp	r0, r5
 766 005c 0DD0     		beq	.L86
 767              	.L59:
 768              	.LVL52:
 769 005e 0133     		adds	r3, r3, #1
 770              	.LVL53:
 771 0060 0131     		adds	r1, r1, #1
 143:hidboot.c     ****                         if (buf[i] == prevState.bInfo[j] && buf[i] != 1)
 772              		.loc 2 143 0 discriminator 2
ARM GAS  C:\Users\jrdia\AppData\Local\Temp\ccItZmGG.s 			page 21


 773 0062 A342     		cmp	r3, r4
 774 0064 10D0     		beq	.L87
 775              	.LVL54:
 776              	.L60:
 144:hidboot.c     ****                                 down = true;
 777              		.loc 2 144 0
 778 0066 1878     		ldrb	r0, [r3]
 779 0068 9042     		cmp	r0, r2
 780 006a F5D1     		bne	.L58
 144:hidboot.c     ****                                 down = true;
 781              		.loc 2 144 0 is_stmt 0 discriminator 1
 782 006c 012A     		cmp	r2, #1
 783 006e F3D0     		beq	.L58
 145:hidboot.c     ****                         if (buf[j] == prevState.bInfo[i] && prevState.bInfo[i] != 1)
 784              		.loc 2 145 0 is_stmt 1
 785 0070 0120     		movs	r0, #1
 786 0072 8346     		mov	fp, r0
 787              	.LVL55:
 788              		.loc 2 146 0
 789 0074 0878     		ldrb	r0, [r1]
 790 0076 A842     		cmp	r0, r5
 791 0078 F1D1     		bne	.L59
 792              	.L86:
 793              		.loc 2 146 0 is_stmt 0 discriminator 1
 794 007a 012D     		cmp	r5, #1
 795 007c EFD0     		beq	.L59
 796 007e 0133     		adds	r3, r3, #1
 797              	.LVL56:
 147:hidboot.c     ****                                 up = true;
 798              		.loc 2 147 0 is_stmt 1
 799 0080 0127     		movs	r7, #1
 800              	.LVL57:
 801 0082 0131     		adds	r1, r1, #1
 143:hidboot.c     ****                         if (buf[i] == prevState.bInfo[j] && buf[i] != 1)
 802              		.loc 2 143 0
 803 0084 A342     		cmp	r3, r4
 804 0086 EED1     		bne	.L60
 805              	.L87:
 806              	.LBE36:
 148:hidboot.c     ****                 }
 149:hidboot.c     ****                 if (!down) {
 807              		.loc 2 149 0
 808 0088 5B46     		mov	r3, fp
 809 008a 002B     		cmp	r3, #0
 810 008c 19D0     		beq	.L88
 811              	.L62:
 150:hidboot.c     ****                         HandleLockingKeys(hid, buf[i]);
 151:hidboot.c     ****                         OnKeyDown(*buf, buf[i]);
 152:hidboot.c     ****                 }
 153:hidboot.c     ****                 if (!up)
 812              		.loc 2 153 0
 813 008e 002F     		cmp	r7, #0
 814 0090 31D0     		beq	.L89
 815              	.L70:
 816 0092 049B     		ldr	r3, [sp, #16]
 817 0094 0136     		adds	r6, r6, #1
 818 0096 0133     		adds	r3, r3, #1
ARM GAS  C:\Users\jrdia\AppData\Local\Temp\ccItZmGG.s 			page 22


 819 0098 0493     		str	r3, [sp, #16]
 820              	.LBE35:
 139:hidboot.c     ****                 bool down = false;
 821              		.loc 2 139 0 discriminator 2
 822 009a A642     		cmp	r6, r4
 823 009c D3D1     		bne	.L71
 824 009e 129B     		ldr	r3, [sp, #72]
 825 00a0 4546     		mov	r5, r8
 826 00a2 1900     		movs	r1, r3
 827 00a4 0435     		adds	r5, r5, #4
 828 00a6 0831     		adds	r1, r1, #8
 829              	.L73:
 830              	.LVL58:
 831              	.LBE34:
 832              	.LBB46:
 154:hidboot.c     ****                         OnKeyUp(prevState.bInfo[0], prevState.bInfo[i]);
 155:hidboot.c     ****         }
 156:hidboot.c     ****         for (uint8_t i = 0; i < 8; i++)
 157:hidboot.c     ****                 prevState.bInfo[i] = buf[i];
 833              		.loc 2 157 0 discriminator 2
 834 00a8 1A78     		ldrb	r2, [r3]
 835 00aa 0133     		adds	r3, r3, #1
 836 00ac 2A70     		strb	r2, [r5]
 837 00ae 0135     		adds	r5, r5, #1
 156:hidboot.c     ****                 prevState.bInfo[i] = buf[i];
 838              		.loc 2 156 0 discriminator 2
 839 00b0 8B42     		cmp	r3, r1
 840 00b2 F9D1     		bne	.L73
 841              	.LVL59:
 842              	.L55:
 843              	.LBE46:
 158:hidboot.c     **** };
 844              		.loc 2 158 0
 845 00b4 09B0     		add	sp, sp, #36
 846              		@ sp needed
 847 00b6 3CBC     		pop	{r2, r3, r4, r5}
 848 00b8 9046     		mov	r8, r2
 849 00ba 9946     		mov	r9, r3
 850 00bc A246     		mov	r10, r4
 851 00be AB46     		mov	fp, r5
 852 00c0 F0BD     		pop	{r4, r5, r6, r7, pc}
 853              	.LVL60:
 854              	.L88:
 855              	.LBB47:
 856              	.LBB45:
 150:hidboot.c     ****                         OnKeyDown(*buf, buf[i]);
 857              		.loc 2 150 0
 858 00c2 4346     		mov	r3, r8
 859 00c4 1968     		ldr	r1, [r3]
 860 00c6 3448     		ldr	r0, .L92+4
 861 00c8 4B68     		ldr	r3, [r1, #4]
 862 00ca 8342     		cmp	r3, r0
 863 00cc 53D1     		bne	.L63
 864              	.LVL61:
 865              	.LBB37:
 866              	.LBB38:
 152:hidboot.h     **** 
ARM GAS  C:\Users\jrdia\AppData\Local\Temp\ccItZmGG.s 			page 23


 867              		.loc 1 152 0
 868 00ce 4346     		mov	r3, r8
 869 00d0 187B     		ldrb	r0, [r3, #12]
 870              	.LVL62:
 154:hidboot.h     ****                         case UHS_HID_BOOT_KEY_NUM_LOCK:
 871              		.loc 1 154 0
 872 00d2 472A     		cmp	r2, #71
 873 00d4 48D0     		beq	.L65
 874              	.LVL63:
 875 00d6 532A     		cmp	r2, #83
 876 00d8 3FD0     		beq	.L66
 877 00da 392A     		cmp	r2, #57
 878 00dc 17D0     		beq	.L90
 879              	.LVL64:
 880              	.L64:
 881              	.LBE38:
 882              	.LBE37:
 151:hidboot.c     ****                 }
 883              		.loc 2 151 0
 884 00de CB68     		ldr	r3, [r1, #12]
 885 00e0 2E4A     		ldr	r2, .L92+8
 886 00e2 9342     		cmp	r3, r2
 887 00e4 D3D0     		beq	.L62
 888              	.LVL65:
 889              	.L91:
 890 00e6 049A     		ldr	r2, [sp, #16]
 891 00e8 1299     		ldr	r1, [sp, #72]
 892 00ea 1278     		ldrb	r2, [r2]
 893 00ec 0978     		ldrb	r1, [r1]
 894 00ee 4046     		mov	r0, r8
 895 00f0 9847     		blx	r3
 896              	.LVL66:
 153:hidboot.c     ****                         OnKeyUp(prevState.bInfo[0], prevState.bInfo[i]);
 897              		.loc 2 153 0
 898 00f2 002F     		cmp	r7, #0
 899 00f4 CDD1     		bne	.L70
 900              	.L89:
 154:hidboot.c     ****         }
 901              		.loc 2 154 0
 902 00f6 4346     		mov	r3, r8
 903 00f8 1B68     		ldr	r3, [r3]
 904 00fa 294A     		ldr	r2, .L92+12
 905 00fc 1B69     		ldr	r3, [r3, #16]
 906 00fe 9342     		cmp	r3, r2
 907 0100 C7D0     		beq	.L70
 908 0102 4146     		mov	r1, r8
 909 0104 3278     		ldrb	r2, [r6]
 910 0106 0979     		ldrb	r1, [r1, #4]
 911 0108 4046     		mov	r0, r8
 912 010a 9847     		blx	r3
 913              	.LVL67:
 914 010c C1E7     		b	.L70
 915              	.LVL68:
 916              	.L90:
 917              	.LBB43:
 918              	.LBB41:
 159:hidboot.h     ****                                 break;
ARM GAS  C:\Users\jrdia\AppData\Local\Temp\ccItZmGG.s 			page 24


 919              		.loc 1 159 0
 920 010e 0123     		movs	r3, #1
 921              	.LVL69:
 922 0110 8207     		lsls	r2, r0, #30
 923 0112 D20F     		lsrs	r2, r2, #31
 924 0114 9343     		bics	r3, r2
 925 0116 0222     		movs	r2, #2
 926 0118 5B00     		lsls	r3, r3, #1
 927              	.L83:
 162:hidboot.h     ****                                 break;
 928              		.loc 1 162 0
 929 011a 0500     		movs	r5, r0
 930 011c 9543     		bics	r5, r2
 931 011e 4246     		mov	r2, r8
 932 0120 2B43     		orrs	r3, r5
 933 0122 1373     		strb	r3, [r2, #12]
 934              	.LVL70:
 935              	.LBB39:
 166:hidboot.h     ****                         uint8_t lockLeds = kbdLockingKeys.bLeds;
 936              		.loc 1 166 0
 937 0124 9842     		cmp	r0, r3
 938 0126 DAD0     		beq	.L64
 939              	.LVL71:
 940 0128 0598     		ldr	r0, [sp, #20]
 941              	.LVL72:
 942 012a 0028     		cmp	r0, #0
 943 012c D7D0     		beq	.L64
 944              	.LBB40:
 167:hidboot.h     ****                         return (hid->SetReport(0, 0/*hid->GetIface()*/, 2, 0, 1, &lockLeds));
 945              		.loc 1 167 0
 946 012e 02A9     		add	r1, sp, #8
 947 0130 8C46     		mov	ip, r1
 948 0132 1722     		movs	r2, #23
 949              	.LVL73:
 950 0134 6244     		add	r2, r2, ip
 951 0136 1370     		strb	r3, [r2]
 168:hidboot.h     ****                 }
 952              		.loc 1 168 0
 953 0138 0123     		movs	r3, #1
 954 013a 0193     		str	r3, [sp, #4]
 955 013c 0023     		movs	r3, #0
 956 013e 0292     		str	r2, [sp, #8]
 957 0140 0093     		str	r3, [sp]
 958 0142 0022     		movs	r2, #0
 959 0144 0233     		adds	r3, r3, #2
 960 0146 0021     		movs	r1, #0
 961 0148 FFF7FEFF 		bl	_ZN6USBHID9SetReportEhhhhtPh
 962              	.LVL74:
 963 014c 4346     		mov	r3, r8
 964 014e 1968     		ldr	r1, [r3]
 965 0150 124A     		ldr	r2, .L92+8
 966              	.LBE40:
 967              	.LBE39:
 968              	.LBE41:
 969              	.LBE43:
 151:hidboot.c     ****                 }
 970              		.loc 2 151 0
ARM GAS  C:\Users\jrdia\AppData\Local\Temp\ccItZmGG.s 			page 25


 971 0152 CB68     		ldr	r3, [r1, #12]
 972 0154 9342     		cmp	r3, r2
 973 0156 9AD0     		beq	.L62
 974 0158 C5E7     		b	.L91
 975              	.LVL75:
 976              	.L66:
 977              	.LBB44:
 978              	.LBB42:
 156:hidboot.h     ****                                 break;
 979              		.loc 1 156 0
 980 015a 0122     		movs	r2, #1
 981 015c 1500     		movs	r5, r2
 982 015e C307     		lsls	r3, r0, #31
 983              	.LVL76:
 984 0160 DB0F     		lsrs	r3, r3, #31
 985 0162 9D43     		bics	r5, r3
 986 0164 2B00     		movs	r3, r5
 987 0166 D8E7     		b	.L83
 988              	.LVL77:
 989              	.L65:
 162:hidboot.h     ****                                 break;
 990              		.loc 1 162 0
 991 0168 0123     		movs	r3, #1
 992              	.LVL78:
 993 016a 4207     		lsls	r2, r0, #29
 994 016c D20F     		lsrs	r2, r2, #31
 995 016e 9343     		bics	r3, r2
 996 0170 9B00     		lsls	r3, r3, #2
 997 0172 0422     		movs	r2, #4
 998 0174 D1E7     		b	.L83
 999              	.LVL79:
 1000              	.L63:
 1001              	.LBE42:
 1002              	.LBE44:
 150:hidboot.c     ****                         OnKeyDown(*buf, buf[i]);
 1003              		.loc 2 150 0
 1004 0176 0599     		ldr	r1, [sp, #20]
 1005 0178 4046     		mov	r0, r8
 1006 017a 9847     		blx	r3
 1007              	.LVL80:
 1008 017c 4346     		mov	r3, r8
 1009 017e 1968     		ldr	r1, [r3]
 1010 0180 064A     		ldr	r2, .L92+8
 151:hidboot.c     ****                 }
 1011              		.loc 2 151 0
 1012 0182 CB68     		ldr	r3, [r1, #12]
 1013 0184 9342     		cmp	r3, r2
 1014 0186 00D1     		bne	.LCB911
 1015 0188 81E7     		b	.L62	@long jump
 1016              	.LCB911:
 1017 018a ACE7     		b	.L91
 1018              	.LVL81:
 1019              	.L85:
 1020              	.LBE45:
 1021              	.LBE47:
 136:hidboot.c     ****         }
 1022              		.loc 2 136 0
ARM GAS  C:\Users\jrdia\AppData\Local\Temp\ccItZmGG.s 			page 26


 1023 018c 2800     		movs	r0, r5
 1024 018e 9847     		blx	r3
 1025              	.LVL82:
 1026 0190 4EE7     		b	.L57
 1027              	.L93:
 1028 0192 C046     		.align	2
 1029              	.L92:
 1030 0194 00000000 		.word	_ZN20KeyboardReportParser20OnControlKeysChangedEhh
 1031 0198 00000000 		.word	_ZN20KeyboardReportParser17HandleLockingKeysEP6USBHIDh
 1032 019c 00000000 		.word	_ZN20KeyboardReportParser9OnKeyDownEhh
 1033 01a0 00000000 		.word	_ZN20KeyboardReportParser7OnKeyUpEhh
 1034              		.cfi_endproc
 1035              	.LFE259:
 1036              		.fnend
 1037              		.size	_ZN20KeyboardReportParser5ParseEP6USBHIDbhPh, .-_ZN20KeyboardReportParser5ParseEP6USBHIDbhPh
 1038              		.section	.text._ZN20KeyboardReportParser10OemToAsciiEhh,"ax",%progbits
 1039              		.align	2
 1040              		.global	_ZN20KeyboardReportParser10OemToAsciiEhh
 1041              		.code	16
 1042              		.thumb_func
 1043              		.type	_ZN20KeyboardReportParser10OemToAsciiEhh, %function
 1044              	_ZN20KeyboardReportParser10OemToAsciiEhh:
 1045              		.fnstart
 1046              	.LFB260:
 159:hidboot.c     **** 
 160:hidboot.c     **** const uint8_t KeyboardReportParser::numKeys[10] PROGMEM = {'!', '@', '#', '$', '%', '^', '&', '*', 
 161:hidboot.c     **** const uint8_t KeyboardReportParser::symKeysUp[12] PROGMEM = {'_', '+', '{', '}', '|', '~', ':', '"'
 162:hidboot.c     **** const uint8_t KeyboardReportParser::symKeysLo[12] PROGMEM = {'-', '=', '[', ']', '\\', ' ', ';', '\
 163:hidboot.c     **** const uint8_t KeyboardReportParser::padKeys[5] PROGMEM = {'/', '*', '-', '+', 0x13};
 164:hidboot.c     **** 
 165:hidboot.c     **** uint8_t KeyboardReportParser::OemToAscii(uint8_t mod, uint8_t key) {
 1047              		.loc 2 165 0
 1048              		.cfi_startproc
 1049              		@ args = 0, pretend = 0, frame = 0
 1050              		@ frame_needed = 0, uses_anonymous_args = 0
 1051              	.LVL83:
 166:hidboot.c     ****         uint8_t shift = (mod & 0x22);
 1052              		.loc 2 166 0
 1053 0000 2223     		movs	r3, #34
 1054 0002 1940     		ands	r1, r3
 1055              	.LVL84:
 167:hidboot.c     **** 
 168:hidboot.c     ****         // [a-z]
 169:hidboot.c     ****         if (VALUE_WITHIN(key, 0x04, 0x1d)) {
 1056              		.loc 2 169 0
 1057 0004 131F     		subs	r3, r2, #4
 165:hidboot.c     ****         uint8_t shift = (mod & 0x22);
 1058              		.loc 2 165 0
 1059 0006 10B5     		push	{r4, lr}
 1060              		.save {r4, lr}
 1061              		.cfi_def_cfa_offset 8
 1062              		.cfi_offset 4, -8
 1063              		.cfi_offset 14, -4
 165:hidboot.c     ****         uint8_t shift = (mod & 0x22);
 1064              		.loc 2 165 0
 1065 0008 1400     		movs	r4, r2
 1066              		.loc 2 169 0
ARM GAS  C:\Users\jrdia\AppData\Local\Temp\ccItZmGG.s 			page 27


 1067 000a 192B     		cmp	r3, #25
 1068 000c 07D8     		bhi	.L95
 170:hidboot.c     ****                 // Upper case letters
 171:hidboot.c     ****                 if ((kbdLockingKeys.kbdLeds.bmCapsLock == 0 && shift) ||
 1069              		.loc 2 171 0
 1070 000e 037B     		ldrb	r3, [r0, #12]
 1071 0010 9B07     		lsls	r3, r3, #30
 1072 0012 25D4     		bmi	.L96
 1073              		.loc 2 171 0 is_stmt 0 discriminator 1
 1074 0014 0029     		cmp	r1, #0
 1075 0016 25D1     		bne	.L97
 1076              	.L98:
 172:hidboot.c     ****                         (kbdLockingKeys.kbdLeds.bmCapsLock == 1 && shift == 0))
 173:hidboot.c     ****                         return (key - 4 + 'A');
 174:hidboot.c     **** 
 175:hidboot.c     ****                         // Lower case letters
 176:hidboot.c     ****                 else
 177:hidboot.c     ****                         return (key - 4 + 'a');
 1077              		.loc 2 177 0 is_stmt 1
 1078 0018 5D34     		adds	r4, r4, #93
 1079 001a E0B2     		uxtb	r0, r4
 1080              	.LVL85:
 1081              	.L99:
 178:hidboot.c     ****         }// Numbers
 179:hidboot.c     ****         else if (VALUE_WITHIN(key, 0x1e, 0x27)) {
 180:hidboot.c     ****                 if (shift)
 181:hidboot.c     ****                         return ((uint8_t)pgm_read_byte(&getNumKeys()[key - 0x1e]));
 182:hidboot.c     ****                 else
 183:hidboot.c     ****                         return ((key == UHS_HID_BOOT_KEY_ZERO) ? '0' : key - 0x1e + '1');
 184:hidboot.c     ****         }// Keypad Numbers
 185:hidboot.c     ****         else if(VALUE_WITHIN(key, 0x59, 0x61)) {
 186:hidboot.c     ****                 if(kbdLockingKeys.kbdLeds.bmNumLock == 1)
 187:hidboot.c     ****                         return (key - 0x59 + '1');
 188:hidboot.c     ****         } else if(VALUE_WITHIN(key, 0x2d, 0x38))
 189:hidboot.c     ****                 return ((shift) ? (uint8_t)pgm_read_byte(&getSymKeysUp()[key - 0x2d]) : (uint8_t)pg
 190:hidboot.c     ****         else if(VALUE_WITHIN(key, 0x54, 0x58))
 191:hidboot.c     ****                 return (uint8_t)pgm_read_byte(&getPadKeys()[key - 0x54]);
 192:hidboot.c     ****         else {
 193:hidboot.c     ****                 switch(key) {
 194:hidboot.c     ****                         case UHS_HID_BOOT_KEY_SPACE: return (0x20);
 195:hidboot.c     ****                         case UHS_HID_BOOT_KEY_ENTER: return (0x13);
 196:hidboot.c     ****                         case UHS_HID_BOOT_KEY_ZERO2: return ((kbdLockingKeys.kbdLeds.bmNumLock == 1
 197:hidboot.c     ****                         case UHS_HID_BOOT_KEY_PERIOD: return ((kbdLockingKeys.kbdLeds.bmNumLock == 
 198:hidboot.c     ****                 }
 199:hidboot.c     ****         }
 200:hidboot.c     ****         return ( 0);
 201:hidboot.c     **** }
 1082              		.loc 2 201 0
 1083              		@ sp needed
 1084 001c 10BD     		pop	{r4, pc}
 1085              	.LVL86:
 1086              	.L95:
 179:hidboot.c     ****                 if (shift)
 1087              		.loc 2 179 0
 1088 001e 1300     		movs	r3, r2
 1089 0020 1E3B     		subs	r3, r3, #30
 1090 0022 092B     		cmp	r3, #9
ARM GAS  C:\Users\jrdia\AppData\Local\Temp\ccItZmGG.s 			page 28


 1091 0024 07D8     		bhi	.L100
 180:hidboot.c     ****                         return ((uint8_t)pgm_read_byte(&getNumKeys()[key - 0x1e]));
 1092              		.loc 2 180 0
 1093 0026 0029     		cmp	r1, #0
 1094 0028 26D1     		bne	.L133
 183:hidboot.c     ****         }// Keypad Numbers
 1095              		.loc 2 183 0
 1096 002a 3020     		movs	r0, #48
 1097              	.LVL87:
 1098 002c 272A     		cmp	r2, #39
 1099 002e F5D0     		beq	.L99
 183:hidboot.c     ****         }// Keypad Numbers
 1100              		.loc 2 183 0 is_stmt 0 discriminator 1
 1101 0030 1334     		adds	r4, r4, #19
 1102 0032 E0B2     		uxtb	r0, r4
 1103 0034 F2E7     		b	.L99
 1104              	.LVL88:
 1105              	.L100:
 185:hidboot.c     ****                 if(kbdLockingKeys.kbdLeds.bmNumLock == 1)
 1106              		.loc 2 185 0 is_stmt 1
 1107 0036 1300     		movs	r3, r2
 1108 0038 593B     		subs	r3, r3, #89
 1109 003a 082B     		cmp	r3, #8
 1110 003c 15D9     		bls	.L134
 188:hidboot.c     ****                 return ((shift) ? (uint8_t)pgm_read_byte(&getSymKeysUp()[key - 0x2d]) : (uint8_t)pg
 1111              		.loc 2 188 0
 1112 003e 1300     		movs	r3, r2
 1113 0040 2D3B     		subs	r3, r3, #45
 1114 0042 0B2B     		cmp	r3, #11
 1115 0044 22D8     		bhi	.L104
 189:hidboot.c     ****         else if(VALUE_WITHIN(key, 0x54, 0x58))
 1116              		.loc 2 189 0
 1117 0046 0368     		ldr	r3, [r0]
 1118 0048 0029     		cmp	r1, #0
 1119 004a 30D1     		bne	.L135
 189:hidboot.c     ****         else if(VALUE_WITHIN(key, 0x54, 0x58))
 1120              		.loc 2 189 0 is_stmt 0 discriminator 2
 1121 004c DB69     		ldr	r3, [r3, #28]
 1122 004e 2B4A     		ldr	r2, .L140
 1123              	.LVL89:
 1124 0050 9342     		cmp	r3, r2
 1125 0052 45D1     		bne	.L132
 189:hidboot.c     ****         else if(VALUE_WITHIN(key, 0x54, 0x58))
 1126              		.loc 2 189 0
 1127 0054 2A48     		ldr	r0, .L140+4
 1128              	.LVL90:
 1129 0056 1830     		adds	r0, r0, #24
 1130              	.LVL91:
 1131              	.L107:
 189:hidboot.c     ****         else if(VALUE_WITHIN(key, 0x54, 0x58))
 1132              		.loc 2 189 0 discriminator 2
 1133 0058 0419     		adds	r4, r0, r4
 1134 005a 2D3C     		subs	r4, r4, #45
 1135 005c 2078     		ldrb	r0, [r4]
 1136 005e DDE7     		b	.L99
 1137              	.LVL92:
 1138              	.L96:
ARM GAS  C:\Users\jrdia\AppData\Local\Temp\ccItZmGG.s 			page 29


 172:hidboot.c     ****                         return (key - 4 + 'A');
 1139              		.loc 2 172 0 is_stmt 1
 1140 0060 0029     		cmp	r1, #0
 1141 0062 D9D1     		bne	.L98
 1142              	.L97:
 173:hidboot.c     **** 
 1143              		.loc 2 173 0
 1144 0064 3D34     		adds	r4, r4, #61
 1145 0066 E0B2     		uxtb	r0, r4
 1146              	.LVL93:
 1147 0068 D8E7     		b	.L99
 1148              	.LVL94:
 1149              	.L134:
 186:hidboot.c     ****                         return (key - 0x59 + '1');
 1150              		.loc 2 186 0
 1151 006a 037B     		ldrb	r3, [r0, #12]
 1152 006c 0120     		movs	r0, #1
 1153              	.LVL95:
 1154 006e 1840     		ands	r0, r3
 1155 0070 D4D0     		beq	.L99
 187:hidboot.c     ****         } else if(VALUE_WITHIN(key, 0x2d, 0x38))
 1156              		.loc 2 187 0
 1157 0072 283C     		subs	r4, r4, #40
 1158 0074 E0B2     		uxtb	r0, r4
 1159 0076 D1E7     		b	.L99
 1160              	.LVL96:
 1161              	.L133:
 181:hidboot.c     ****                 else
 1162              		.loc 2 181 0
 1163 0078 0368     		ldr	r3, [r0]
 1164 007a 224A     		ldr	r2, .L140+8
 1165              	.LVL97:
 1166 007c 5B69     		ldr	r3, [r3, #20]
 1167 007e 9342     		cmp	r3, r2
 1168 0080 27D1     		bne	.L136
 1169 0082 1F48     		ldr	r0, .L140+4
 1170              	.LVL98:
 1171              	.L102:
 1172 0084 0419     		adds	r4, r0, r4
 1173 0086 1E3C     		subs	r4, r4, #30
 1174 0088 2078     		ldrb	r0, [r4]
 1175 008a C7E7     		b	.L99
 1176              	.LVL99:
 1177              	.L104:
 190:hidboot.c     ****                 return (uint8_t)pgm_read_byte(&getPadKeys()[key - 0x54]);
 1178              		.loc 2 190 0
 1179 008c 1300     		movs	r3, r2
 1180 008e 543B     		subs	r3, r3, #84
 1181 0090 042B     		cmp	r3, #4
 1182 0092 13D9     		bls	.L137
 193:hidboot.c     ****                         case UHS_HID_BOOT_KEY_SPACE: return (0x20);
 1183              		.loc 2 193 0
 1184 0094 2C2A     		cmp	r2, #44
 1185 0096 25D0     		beq	.L120
 1186 0098 1DD9     		bls	.L138
 1187 009a 622A     		cmp	r2, #98
 1188 009c 24D0     		beq	.L113
ARM GAS  C:\Users\jrdia\AppData\Local\Temp\ccItZmGG.s 			page 30


 1189 009e 632A     		cmp	r2, #99
 1190 00a0 1CD1     		bne	.L110
 197:hidboot.c     ****                 }
 1191              		.loc 2 197 0
 1192 00a2 037B     		ldrb	r3, [r0, #12]
 1193 00a4 0120     		movs	r0, #1
 1194              	.LVL100:
 1195 00a6 1840     		ands	r0, r3
 1196 00a8 B8D0     		beq	.L99
 1197 00aa 2E20     		movs	r0, #46
 1198 00ac B6E7     		b	.L99
 1199              	.LVL101:
 1200              	.L135:
 189:hidboot.c     ****         else if(VALUE_WITHIN(key, 0x54, 0x58))
 1201              		.loc 2 189 0 discriminator 1
 1202 00ae 9B69     		ldr	r3, [r3, #24]
 1203 00b0 154A     		ldr	r2, .L140+12
 1204              	.LVL102:
 1205 00b2 9342     		cmp	r3, r2
 1206 00b4 14D1     		bne	.L132
 189:hidboot.c     ****         else if(VALUE_WITHIN(key, 0x54, 0x58))
 1207              		.loc 2 189 0 is_stmt 0
 1208 00b6 1248     		ldr	r0, .L140+4
 1209              	.LVL103:
 1210 00b8 0C30     		adds	r0, r0, #12
 1211 00ba CDE7     		b	.L107
 1212              	.LVL104:
 1213              	.L137:
 191:hidboot.c     ****         else {
 1214              		.loc 2 191 0 is_stmt 1
 1215 00bc 0368     		ldr	r3, [r0]
 1216 00be 134A     		ldr	r2, .L140+16
 1217              	.LVL105:
 1218 00c0 1B6A     		ldr	r3, [r3, #32]
 1219 00c2 9342     		cmp	r3, r2
 1220 00c4 17D1     		bne	.L139
 1221 00c6 0E48     		ldr	r0, .L140+4
 1222              	.LVL106:
 1223 00c8 2430     		adds	r0, r0, #36
 1224              	.LVL107:
 1225              	.L109:
 1226 00ca 0419     		adds	r4, r0, r4
 1227 00cc 543C     		subs	r4, r4, #84
 1228 00ce 2078     		ldrb	r0, [r4]
 1229 00d0 A4E7     		b	.L99
 1230              	.LVL108:
 1231              	.L136:
 181:hidboot.c     ****                 else
 1232              		.loc 2 181 0
 1233 00d2 9847     		blx	r3
 1234              	.LVL109:
 1235 00d4 D6E7     		b	.L102
 1236              	.LVL110:
 1237              	.L138:
 195:hidboot.c     ****                         case UHS_HID_BOOT_KEY_ZERO2: return ((kbdLockingKeys.kbdLeds.bmNumLock == 1
 1238              		.loc 2 195 0
 1239 00d6 1320     		movs	r0, #19
ARM GAS  C:\Users\jrdia\AppData\Local\Temp\ccItZmGG.s 			page 31


 1240              	.LVL111:
 193:hidboot.c     ****                         case UHS_HID_BOOT_KEY_SPACE: return (0x20);
 1241              		.loc 2 193 0
 1242 00d8 282A     		cmp	r2, #40
 1243 00da 9FD0     		beq	.L99
 1244              	.L110:
 200:hidboot.c     **** }
 1245              		.loc 2 200 0
 1246 00dc 0020     		movs	r0, #0
 1247 00de 9DE7     		b	.L99
 1248              	.LVL112:
 1249              	.L132:
 189:hidboot.c     ****         else if(VALUE_WITHIN(key, 0x54, 0x58))
 1250              		.loc 2 189 0 discriminator 2
 1251 00e0 9847     		blx	r3
 1252              	.LVL113:
 1253 00e2 B9E7     		b	.L107
 1254              	.LVL114:
 1255              	.L120:
 194:hidboot.c     ****                         case UHS_HID_BOOT_KEY_ENTER: return (0x13);
 1256              		.loc 2 194 0
 1257 00e4 2020     		movs	r0, #32
 1258              	.LVL115:
 1259 00e6 99E7     		b	.L99
 1260              	.LVL116:
 1261              	.L113:
 196:hidboot.c     ****                         case UHS_HID_BOOT_KEY_PERIOD: return ((kbdLockingKeys.kbdLeds.bmNumLock == 
 1262              		.loc 2 196 0
 1263 00e8 037B     		ldrb	r3, [r0, #12]
 1264 00ea 0120     		movs	r0, #1
 1265              	.LVL117:
 1266 00ec 1840     		ands	r0, r3
 1267 00ee 00D1     		bne	.LCB1194
 1268 00f0 94E7     		b	.L99	@long jump
 1269              	.LCB1194:
 183:hidboot.c     ****         }// Keypad Numbers
 1270              		.loc 2 183 0
 1271 00f2 3020     		movs	r0, #48
 1272 00f4 92E7     		b	.L99
 1273              	.LVL118:
 1274              	.L139:
 191:hidboot.c     ****         else {
 1275              		.loc 2 191 0
 1276 00f6 9847     		blx	r3
 1277              	.LVL119:
 1278 00f8 E7E7     		b	.L109
 1279              	.L141:
 1280 00fa C046     		.align	2
 1281              	.L140:
 1282 00fc 00000000 		.word	_ZN20KeyboardReportParser12getSymKeysLoEv
 1283 0100 00000000 		.word	.LANCHOR0
 1284 0104 00000000 		.word	_ZN20KeyboardReportParser10getNumKeysEv
 1285 0108 00000000 		.word	_ZN20KeyboardReportParser12getSymKeysUpEv
 1286 010c 00000000 		.word	_ZN20KeyboardReportParser10getPadKeysEv
 1287              		.cfi_endproc
 1288              	.LFE260:
 1289              		.fnend
ARM GAS  C:\Users\jrdia\AppData\Local\Temp\ccItZmGG.s 			page 32


 1290              		.size	_ZN20KeyboardReportParser10OemToAsciiEhh, .-_ZN20KeyboardReportParser10OemToAsciiEhh
 1291              		.weak	_ZTS15HIDReportParser
 1292              		.section	.rodata._ZTS15HIDReportParser,"aG",%progbits,_ZTS15HIDReportParser,comdat
 1293              		.align	2
 1294              		.type	_ZTS15HIDReportParser, %object
 1295              		.size	_ZTS15HIDReportParser, 18
 1296              	_ZTS15HIDReportParser:
 1297 0000 31354849 		.ascii	"15HIDReportParser\000"
 1297      44526570 
 1297      6F727450 
 1297      61727365 
 1297      7200
 1298              		.weak	_ZTI15HIDReportParser
 1299              		.section	.rodata._ZTI15HIDReportParser,"aG",%progbits,_ZTI15HIDReportParser,comdat
 1300              		.align	2
 1301              		.type	_ZTI15HIDReportParser, %object
 1302              		.size	_ZTI15HIDReportParser, 8
 1303              	_ZTI15HIDReportParser:
 1304 0000 08000000 		.word	_ZTVN10__cxxabiv117__class_type_infoE+8
 1305 0004 00000000 		.word	_ZTS15HIDReportParser
 1306              		.global	_ZTS17MouseReportParser
 1307              		.global	_ZTI17MouseReportParser
 1308              		.global	_ZTS20KeyboardReportParser
 1309              		.global	_ZTI20KeyboardReportParser
 1310              		.global	_ZTV17MouseReportParser
 1311              		.global	_ZTV20KeyboardReportParser
 1312              		.global	_ZN20KeyboardReportParser7padKeysE
 1313              		.global	_ZN20KeyboardReportParser9symKeysLoE
 1314              		.global	_ZN20KeyboardReportParser9symKeysUpE
 1315              		.global	_ZN20KeyboardReportParser7numKeysE
 1316              		.section	.rodata
 1317              		.align	2
 1318              		.set	.LANCHOR0,. + 0
 1319              		.type	_ZN20KeyboardReportParser7numKeysE, %object
 1320              		.size	_ZN20KeyboardReportParser7numKeysE, 10
 1321              	_ZN20KeyboardReportParser7numKeysE:
 1322 0000 21       		.byte	33
 1323 0001 40       		.byte	64
 1324 0002 23       		.byte	35
 1325 0003 24       		.byte	36
 1326 0004 25       		.byte	37
 1327 0005 5E       		.byte	94
 1328 0006 26       		.byte	38
 1329 0007 2A       		.byte	42
 1330 0008 28       		.byte	40
 1331 0009 29       		.byte	41
 1332 000a 0000     		.space	2
 1333              		.type	_ZN20KeyboardReportParser9symKeysUpE, %object
 1334              		.size	_ZN20KeyboardReportParser9symKeysUpE, 12
 1335              	_ZN20KeyboardReportParser9symKeysUpE:
 1336 000c 5F       		.byte	95
 1337 000d 2B       		.byte	43
 1338 000e 7B       		.byte	123
 1339 000f 7D       		.byte	125
 1340 0010 7C       		.byte	124
 1341 0011 7E       		.byte	126
 1342 0012 3A       		.byte	58
ARM GAS  C:\Users\jrdia\AppData\Local\Temp\ccItZmGG.s 			page 33


 1343 0013 22       		.byte	34
 1344 0014 7E       		.byte	126
 1345 0015 3C       		.byte	60
 1346 0016 3E       		.byte	62
 1347 0017 3F       		.byte	63
 1348              		.type	_ZN20KeyboardReportParser9symKeysLoE, %object
 1349              		.size	_ZN20KeyboardReportParser9symKeysLoE, 12
 1350              	_ZN20KeyboardReportParser9symKeysLoE:
 1351 0018 2D       		.byte	45
 1352 0019 3D       		.byte	61
 1353 001a 5B       		.byte	91
 1354 001b 5D       		.byte	93
 1355 001c 5C       		.byte	92
 1356 001d 20       		.byte	32
 1357 001e 3B       		.byte	59
 1358 001f 27       		.byte	39
 1359 0020 60       		.byte	96
 1360 0021 2C       		.byte	44
 1361 0022 2E       		.byte	46
 1362 0023 2F       		.byte	47
 1363              		.type	_ZN20KeyboardReportParser7padKeysE, %object
 1364              		.size	_ZN20KeyboardReportParser7padKeysE, 5
 1365              	_ZN20KeyboardReportParser7padKeysE:
 1366 0024 2F       		.byte	47
 1367 0025 2A       		.byte	42
 1368 0026 2D       		.byte	45
 1369 0027 2B       		.byte	43
 1370 0028 13       		.byte	19
 1371 0029 000000   		.space	3
 1372              		.type	_ZTS17MouseReportParser, %object
 1373              		.size	_ZTS17MouseReportParser, 20
 1374              	_ZTS17MouseReportParser:
 1375 002c 31374D6F 		.ascii	"17MouseReportParser\000"
 1375      75736552 
 1375      65706F72 
 1375      74506172 
 1375      73657200 
 1376              		.type	_ZTI17MouseReportParser, %object
 1377              		.size	_ZTI17MouseReportParser, 12
 1378              	_ZTI17MouseReportParser:
 1379 0040 08000000 		.word	_ZTVN10__cxxabiv120__si_class_type_infoE+8
 1380 0044 00000000 		.word	_ZTS17MouseReportParser
 1381 0048 00000000 		.word	_ZTI15HIDReportParser
 1382              		.type	_ZTS20KeyboardReportParser, %object
 1383              		.size	_ZTS20KeyboardReportParser, 23
 1384              	_ZTS20KeyboardReportParser:
 1385 004c 32304B65 		.ascii	"20KeyboardReportParser\000"
 1385      79626F61 
 1385      72645265 
 1385      706F7274 
 1385      50617273 
 1386 0063 00       		.space	1
 1387              		.type	_ZTI20KeyboardReportParser, %object
 1388              		.size	_ZTI20KeyboardReportParser, 12
 1389              	_ZTI20KeyboardReportParser:
 1390 0064 08000000 		.word	_ZTVN10__cxxabiv120__si_class_type_infoE+8
 1391 0068 00000000 		.word	_ZTS20KeyboardReportParser
ARM GAS  C:\Users\jrdia\AppData\Local\Temp\ccItZmGG.s 			page 34


 1392 006c 00000000 		.word	_ZTI15HIDReportParser
 1393              		.type	_ZTV17MouseReportParser, %object
 1394              		.size	_ZTV17MouseReportParser, 40
 1395              	_ZTV17MouseReportParser:
 1396 0070 00000000 		.word	0
 1397 0074 00000000 		.word	_ZTI17MouseReportParser
 1398 0078 00000000 		.word	_ZN17MouseReportParser5ParseEP6USBHIDbhPh
 1399 007c 00000000 		.word	_ZN17MouseReportParser11OnMouseMoveEP9MOUSEINFO
 1400 0080 00000000 		.word	_ZN17MouseReportParser14OnLeftButtonUpEP9MOUSEINFO
 1401 0084 00000000 		.word	_ZN17MouseReportParser16OnLeftButtonDownEP9MOUSEINFO
 1402 0088 00000000 		.word	_ZN17MouseReportParser15OnRightButtonUpEP9MOUSEINFO
 1403 008c 00000000 		.word	_ZN17MouseReportParser17OnRightButtonDownEP9MOUSEINFO
 1404 0090 00000000 		.word	_ZN17MouseReportParser16OnMiddleButtonUpEP9MOUSEINFO
 1405 0094 00000000 		.word	_ZN17MouseReportParser18OnMiddleButtonDownEP9MOUSEINFO
 1406              		.type	_ZTV20KeyboardReportParser, %object
 1407              		.size	_ZTV20KeyboardReportParser, 44
 1408              	_ZTV20KeyboardReportParser:
 1409 0098 00000000 		.word	0
 1410 009c 00000000 		.word	_ZTI20KeyboardReportParser
 1411 00a0 00000000 		.word	_ZN20KeyboardReportParser5ParseEP6USBHIDbhPh
 1412 00a4 00000000 		.word	_ZN20KeyboardReportParser17HandleLockingKeysEP6USBHIDh
 1413 00a8 00000000 		.word	_ZN20KeyboardReportParser20OnControlKeysChangedEhh
 1414 00ac 00000000 		.word	_ZN20KeyboardReportParser9OnKeyDownEhh
 1415 00b0 00000000 		.word	_ZN20KeyboardReportParser7OnKeyUpEhh
 1416 00b4 00000000 		.word	_ZN20KeyboardReportParser10getNumKeysEv
 1417 00b8 00000000 		.word	_ZN20KeyboardReportParser12getSymKeysUpEv
 1418 00bc 00000000 		.word	_ZN20KeyboardReportParser12getSymKeysLoEv
 1419 00c0 00000000 		.word	_ZN20KeyboardReportParser10getPadKeysEv
 1420              		.text
 1421              	.Letext0:
 1422              		.file 3 "c:\\program files (x86)\\cypress\\psoc creator\\4.1\\psoc creator\\import\\gnu\\arm\\5.4.
 1423              		.file 4 "c:\\program files (x86)\\cypress\\psoc creator\\4.1\\psoc creator\\import\\gnu\\arm\\5.4.
 1424              		.file 5 "address.h"
 1425              		.file 6 "usb_ch9.h"
 1426              		.file 7 "usbhost.h"
 1427              		.file 8 "UsbCore.h"
 1428              		.file 9 "usbhid.h"
 1429              		.file 10 "confdescparser.h"
 1430              		.file 11 "sink_parser.h"
 1431              		.file 12 "avrpins.h"
 1432              		.file 13 "hidusagestr.h"
 1433              		.file 14 "./Stream.h"