ARM GAS  C:\Users\jrdia\AppData\Local\Temp\ccjOn683.s 			page 1


   1              		.syntax unified
   2              		.cpu cortex-m0
   3              		.fpu softvfp
   4              		.eabi_attribute 20, 1
   5              		.eabi_attribute 21, 1
   6              		.eabi_attribute 23, 3
   7              		.eabi_attribute 24, 1
   8              		.eabi_attribute 25, 1
   9              		.eabi_attribute 26, 1
  10              		.eabi_attribute 30, 2
  11              		.eabi_attribute 34, 0
  12              		.eabi_attribute 18, 4
  13              		.thumb
  14              		.syntax unified
  15              		.file	"iprintf.c"
  16              		.text
  17              	.Ltext0:
  18              		.cfi_sections	.debug_frame
  19              		.global	__aeabi_uidivmod
  20              		.global	__aeabi_uidiv
  21              		.section	.text.iprintf,"ax",%progbits
  22              		.align	2
  23              		.global	iprintf
  24              		.code	16
  25              		.thumb_func
  26              		.type	iprintf, %function
  27              	iprintf:
  28              	.LFB34:
  29              		.file 1 "iprintf.c"
   1:iprintf.c     **** /******************************************************************************
   2:iprintf.c     **** *This file is for iprintf()
   3:iprintf.c     **** *The iprintf() is a simple printf() and only can print string with %s,%d,%c,%x.
   4:iprintf.c     **** *******************************************************************************/
   5:iprintf.c     **** #include "iprintf.h"
   6:iprintf.c     **** 
   7:iprintf.c     **** static void iputc(char8 ch)
   8:iprintf.c     **** {
   9:iprintf.c     **** 	/*This function has to be replaced by user*/	
  10:iprintf.c     **** 	UART_UartPutChar(ch);
  11:iprintf.c     **** }
  12:iprintf.c     **** 
  13:iprintf.c     **** static uint8* change(uint32 Index)
  14:iprintf.c     **** {
  15:iprintf.c     ****     return (uint8*)("0123456789abcdef"+Index);
  16:iprintf.c     **** }
  17:iprintf.c     **** 
  18:iprintf.c     **** 
  19:iprintf.c     **** void iprintf(char8 *pszFmt,...)
  20:iprintf.c     **** {
  30              		.loc 1 20 0
  31              		.cfi_startproc
  32              		@ args = 4, pretend = 16, frame = 48
  33              		@ frame_needed = 0, uses_anonymous_args = 1
  34              	.LVL0:
  35 0000 0FB4     		push	{r0, r1, r2, r3}
  36              		.cfi_def_cfa_offset 16
  37 0002 F0B5     		push	{r4, r5, r6, r7, lr}
ARM GAS  C:\Users\jrdia\AppData\Local\Temp\ccjOn683.s 			page 2


  38              		.cfi_def_cfa_offset 36
  39              		.cfi_offset 4, -36
  40              		.cfi_offset 5, -32
  41              		.cfi_offset 6, -28
  42              		.cfi_offset 7, -24
  43              		.cfi_offset 14, -20
  44 0004 5646     		mov	r6, r10
  45 0006 4D46     		mov	r5, r9
  46 0008 4446     		mov	r4, r8
  47 000a 5F46     		mov	r7, fp
  48 000c 5C4B     		ldr	r3, .L36
  49 000e F0B4     		push	{r4, r5, r6, r7}
  50              		.cfi_def_cfa_offset 52
  51              		.cfi_offset 8, -52
  52              		.cfi_offset 9, -48
  53              		.cfi_offset 10, -44
  54              		.cfi_offset 11, -40
  55 0010 9A46     		mov	r10, r3
  21:iprintf.c     ****     uint8 *pszVal;
  22:iprintf.c     ****     uint32 iVal, xVal, i = 0, buffer[12], index = 1;
  56              		.loc 1 22 0
  57 0012 0124     		movs	r4, #1
  20:iprintf.c     ****     uint8 *pszVal;
  58              		.loc 1 20 0
  59 0014 8DB0     		sub	sp, sp, #52
  60              		.cfi_def_cfa_offset 104
  61              	.LVL1:
  62 0016 169D     		ldr	r5, [sp, #88]
  63 0018 2878     		ldrb	r0, [r5]
  64              	.LVL2:
  65              	.L2:
  23:iprintf.c     ****     uint8 cVal;
  24:iprintf.c     ****     uint32 *pArg;
  25:iprintf.c     ****     pArg =(uint32 *)&pszFmt;
  26:iprintf.c     **** 
  27:iprintf.c     ****     while(*pszFmt)
  66              		.loc 1 27 0
  67 001a 0028     		cmp	r0, #0
  68 001c 09D0     		beq	.L1
  69              	.L20:
  28:iprintf.c     ****     {
  29:iprintf.c     ****         if('%' != *pszFmt)
  70              		.loc 1 29 0
  71 001e 2528     		cmp	r0, #37
  72 0020 11D0     		beq	.L3
  73              	.LVL3:
  74              	.LBB16:
  75              	.LBB17:
  10:iprintf.c     **** }
  76              		.loc 1 10 0
  77 0022 FFF7FEFF 		bl	UART_SpiUartWriteTxData
  78              	.LVL4:
  79 0026 6878     		ldrb	r0, [r5, #1]
  80              	.LBE17:
  81              	.LBE16:
  30:iprintf.c     ****         {
  31:iprintf.c     ****             iputc(*pszFmt);
ARM GAS  C:\Users\jrdia\AppData\Local\Temp\ccjOn683.s 			page 3


  32:iprintf.c     ****             pszFmt++;
  82              		.loc 1 32 0
  83 0028 6B1C     		adds	r3, r5, #1
  84 002a 1693     		str	r3, [sp, #88]
  33:iprintf.c     ****             continue;
  85              		.loc 1 33 0
  86 002c 1D00     		movs	r5, r3
  27:iprintf.c     ****     {
  87              		.loc 1 27 0
  88 002e 0028     		cmp	r0, #0
  89 0030 F5D1     		bne	.L20
  90              	.L1:
  34:iprintf.c     ****         }
  35:iprintf.c     ****         pszFmt++;
  36:iprintf.c     **** 
  37:iprintf.c     ****         if(*pszFmt == 's')
  38:iprintf.c     ****         {
  39:iprintf.c     ****             pszVal = (uint8*)pArg[index++];
  40:iprintf.c     ****             for(; *pszVal != '\0'; pszVal++)
  41:iprintf.c     ****                 iputc(*pszVal);
  42:iprintf.c     ****             pszFmt++;
  43:iprintf.c     ****             continue;
  44:iprintf.c     ****         }
  45:iprintf.c     ****         if(*pszFmt == 'd')
  46:iprintf.c     ****         {
  47:iprintf.c     ****             iVal = pArg[index++];
  48:iprintf.c     ****             i = 0;
  49:iprintf.c     ****             do{
  50:iprintf.c     ****                 buffer[i++] = iVal % 10;
  51:iprintf.c     ****                 iVal /= 10;
  52:iprintf.c     ****             }while(iVal);
  53:iprintf.c     ****             while(i > 0)
  54:iprintf.c     ****             {
  55:iprintf.c     ****                 i--;
  56:iprintf.c     ****                 iputc(*change(buffer[i]));
  57:iprintf.c     ****             }
  58:iprintf.c     ****             pszFmt++;
  59:iprintf.c     ****             continue;
  60:iprintf.c     ****         }
  61:iprintf.c     ****         if(*pszFmt == 'c')
  62:iprintf.c     ****         {
  63:iprintf.c     ****             cVal = (uint8)pArg[index++];
  64:iprintf.c     ****             iputc(cVal);
  65:iprintf.c     ****             pszFmt++;
  66:iprintf.c     ****             continue;
  67:iprintf.c     ****         }
  68:iprintf.c     ****         if(*pszFmt == 'x')
  69:iprintf.c     ****         {
  70:iprintf.c     ****             xVal = pArg[index++];
  71:iprintf.c     ****             i = 0;
  72:iprintf.c     ****             do{
  73:iprintf.c     ****                 buffer[i++] = xVal % 16;
  74:iprintf.c     ****                 xVal /= 16;
  75:iprintf.c     ****             }while(xVal);
  76:iprintf.c     ****             if(i%2!=0)
  77:iprintf.c     ****                 buffer[i++]=0;
  78:iprintf.c     ****             if(i<2)
ARM GAS  C:\Users\jrdia\AppData\Local\Temp\ccjOn683.s 			page 4


  79:iprintf.c     ****                 buffer[i++]=0;
  80:iprintf.c     **** 
  81:iprintf.c     ****             while(i > 0)
  82:iprintf.c     ****             {
  83:iprintf.c     ****                 i--;
  84:iprintf.c     ****                 iputc(*change(buffer[i]));
  85:iprintf.c     ****             }
  86:iprintf.c     ****             pszFmt++;
  87:iprintf.c     ****             continue;
  88:iprintf.c     ****         }
  89:iprintf.c     ****         if(pszFmt == '\0')
  90:iprintf.c     ****         {
  91:iprintf.c     ****             break;
  92:iprintf.c     ****         }
  93:iprintf.c     **** 
  94:iprintf.c     ****     }
  95:iprintf.c     **** }...
  91              		.loc 1 95 0
  92 0032 0DB0     		add	sp, sp, #52
  93              		@ sp needed
  94              	.LVL5:
  95 0034 3CBC     		pop	{r2, r3, r4, r5}
  96 0036 9046     		mov	r8, r2
  97 0038 9946     		mov	r9, r3
  98 003a A246     		mov	r10, r4
  99 003c AB46     		mov	fp, r5
 100 003e F0BC     		pop	{r4, r5, r6, r7}
 101 0040 08BC     		pop	{r3}
 102 0042 04B0     		add	sp, sp, #16
 103 0044 1847     		bx	r3
 104              	.LVL6:
 105              	.L3:
  37:iprintf.c     ****         if(*pszFmt == 's')
 106              		.loc 1 37 0
 107 0046 6878     		ldrb	r0, [r5, #1]
  35:iprintf.c     ****         pszFmt++;
 108              		.loc 1 35 0
 109 0048 6B1C     		adds	r3, r5, #1
 110 004a 1693     		str	r3, [sp, #88]
  37:iprintf.c     ****         if(*pszFmt == 's')
 111              		.loc 1 37 0
 112 004c 7328     		cmp	r0, #115
 113 004e 09D0     		beq	.L30
  45:iprintf.c     ****         if(*pszFmt == 'd')
 114              		.loc 1 45 0
 115 0050 6428     		cmp	r0, #100
 116 0052 1CD0     		beq	.L31
  61:iprintf.c     ****         if(*pszFmt == 'c')
 117              		.loc 1 61 0
 118 0054 6328     		cmp	r0, #99
 119 0056 79D0     		beq	.L32
  68:iprintf.c     ****         if(*pszFmt == 'x')
 120              		.loc 1 68 0
 121 0058 7828     		cmp	r0, #120
 122 005a 44D0     		beq	.L33
  89:iprintf.c     ****         if(pszFmt == '\0')
 123              		.loc 1 89 0
ARM GAS  C:\Users\jrdia\AppData\Local\Temp\ccjOn683.s 			page 5


 124 005c 002B     		cmp	r3, #0
 125 005e E8D0     		beq	.L1
 126 0060 1D00     		movs	r5, r3
 127 0062 DAE7     		b	.L2
 128              	.L30:
  39:iprintf.c     ****             pszVal = (uint8*)pArg[index++];
 129              		.loc 1 39 0
 130 0064 16AB     		add	r3, sp, #88
 131              	.LVL7:
 132 0066 9C46     		mov	ip, r3
 133 0068 661C     		adds	r6, r4, #1
 134              	.LVL8:
 135 006a A400     		lsls	r4, r4, #2
 136 006c 6444     		add	r4, r4, ip
 137 006e 2468     		ldr	r4, [r4]
 138              	.LVL9:
  40:iprintf.c     ****             for(; *pszVal != '\0'; pszVal++)
 139              		.loc 1 40 0
 140 0070 2078     		ldrb	r0, [r4]
 141 0072 0028     		cmp	r0, #0
 142 0074 05D0     		beq	.L8
 143              	.LVL10:
 144              	.L25:
  40:iprintf.c     ****             for(; *pszVal != '\0'; pszVal++)
 145              		.loc 1 40 0 is_stmt 0 discriminator 2
 146 0076 0134     		adds	r4, r4, #1
 147              	.LVL11:
 148              	.LBB18:
 149              	.LBB19:
  10:iprintf.c     **** 	UART_UartPutChar(ch);
 150              		.loc 1 10 0 is_stmt 1 discriminator 2
 151 0078 FFF7FEFF 		bl	UART_SpiUartWriteTxData
 152              	.LVL12:
 153              	.LBE19:
 154              	.LBE18:
  40:iprintf.c     ****             for(; *pszVal != '\0'; pszVal++)
 155              		.loc 1 40 0 discriminator 2
 156 007c 2078     		ldrb	r0, [r4]
 157 007e 0028     		cmp	r0, #0
 158 0080 F9D1     		bne	.L25
 159              	.L8:
  42:iprintf.c     ****             pszFmt++;
 160              		.loc 1 42 0
 161 0082 AB1C     		adds	r3, r5, #2
 162 0084 A878     		ldrb	r0, [r5, #2]
 163 0086 1693     		str	r3, [sp, #88]
  43:iprintf.c     ****             continue;
 164              		.loc 1 43 0
 165 0088 1D00     		movs	r5, r3
  39:iprintf.c     ****             pszVal = (uint8*)pArg[index++];
 166              		.loc 1 39 0
 167 008a 3400     		movs	r4, r6
 168              	.LVL13:
  43:iprintf.c     ****             continue;
 169              		.loc 1 43 0
 170 008c C5E7     		b	.L2
 171              	.LVL14:
ARM GAS  C:\Users\jrdia\AppData\Local\Temp\ccjOn683.s 			page 6


 172              	.L31:
  47:iprintf.c     ****             iVal = pArg[index++];
 173              		.loc 1 47 0
 174 008e 631C     		adds	r3, r4, #1
 175 0090 9846     		mov	r8, r3
 176              	.LVL15:
 177 0092 16AB     		add	r3, sp, #88
 178              	.LVL16:
 179 0094 9C46     		mov	ip, r3
 180 0096 A400     		lsls	r4, r4, #2
 181 0098 6444     		add	r4, r4, ip
 182 009a 2668     		ldr	r6, [r4]
 183              	.LVL17:
 184 009c 6F46     		mov	r7, sp
  48:iprintf.c     ****             i = 0;
 185              		.loc 1 48 0
 186 009e 0024     		movs	r4, #0
 187 00a0 00E0     		b	.L10
 188              	.LVL18:
 189              	.L22:
  50:iprintf.c     ****                 buffer[i++] = iVal % 10;
 190              		.loc 1 50 0
 191 00a2 5C46     		mov	r4, fp
 192              	.LVL19:
 193              	.L10:
  50:iprintf.c     ****                 buffer[i++] = iVal % 10;
 194              		.loc 1 50 0 is_stmt 0 discriminator 1
 195 00a4 631C     		adds	r3, r4, #1
 196 00a6 3000     		movs	r0, r6
 197 00a8 0A21     		movs	r1, #10
 198 00aa 9B46     		mov	fp, r3
 199              	.LVL20:
 200 00ac FFF7FEFF 		bl	__aeabi_uidivmod
 201              	.LVL21:
  51:iprintf.c     ****                 iVal /= 10;
 202              		.loc 1 51 0 is_stmt 1 discriminator 1
 203 00b0 3000     		movs	r0, r6
  50:iprintf.c     ****                 buffer[i++] = iVal % 10;
 204              		.loc 1 50 0 discriminator 1
 205 00b2 02C7     		stmia	r7!, {r1}
  51:iprintf.c     ****                 iVal /= 10;
 206              		.loc 1 51 0 discriminator 1
 207 00b4 0A21     		movs	r1, #10
 208 00b6 FFF7FEFF 		bl	__aeabi_uidiv
 209              	.LVL22:
 210 00ba 061E     		subs	r6, r0, #0
 211              	.LVL23:
  52:iprintf.c     ****             }while(iVal);
 212              		.loc 1 52 0 discriminator 1
 213 00bc F1D1     		bne	.L22
 214 00be 0423     		movs	r3, #4
 215 00c0 5B42     		rsbs	r3, r3, #0
 216 00c2 6B44     		add	r3, r3, sp
 217 00c4 9946     		mov	r9, r3
 218 00c6 A400     		lsls	r4, r4, #2
 219 00c8 6C44     		add	r4, r4, sp
 220              	.LVL24:
ARM GAS  C:\Users\jrdia\AppData\Local\Temp\ccjOn683.s 			page 7


 221              	.L11:
 222              	.LBB20:
 223              	.LBB21:
  10:iprintf.c     **** 	UART_UartPutChar(ch);
 224              		.loc 1 10 0
 225 00ca 2268     		ldr	r2, [r4]
 226 00cc 2C4B     		ldr	r3, .L36
 227 00ce 043C     		subs	r4, r4, #4
 228              	.LVL25:
 229 00d0 985C     		ldrb	r0, [r3, r2]
 230 00d2 FFF7FEFF 		bl	UART_SpiUartWriteTxData
 231              	.LVL26:
 232              	.LBE21:
 233              	.LBE20:
  53:iprintf.c     ****             while(i > 0)
 234              		.loc 1 53 0
 235 00d6 A145     		cmp	r9, r4
 236 00d8 F7D1     		bne	.L11
  86:iprintf.c     ****             pszFmt++;
 237              		.loc 1 86 0
 238 00da AB1C     		adds	r3, r5, #2
 239 00dc A878     		ldrb	r0, [r5, #2]
 240 00de 1693     		str	r3, [sp, #88]
  87:iprintf.c     ****             continue;
 241              		.loc 1 87 0
 242 00e0 1D00     		movs	r5, r3
  70:iprintf.c     ****             xVal = pArg[index++];
 243              		.loc 1 70 0
 244 00e2 4446     		mov	r4, r8
  87:iprintf.c     ****             continue;
 245              		.loc 1 87 0
 246 00e4 99E7     		b	.L2
 247              	.LVL27:
 248              	.L33:
  70:iprintf.c     ****             xVal = pArg[index++];
 249              		.loc 1 70 0
 250 00e6 631C     		adds	r3, r4, #1
 251 00e8 9846     		mov	r8, r3
 252              	.LVL28:
 253 00ea 16AB     		add	r3, sp, #88
 254              	.LVL29:
 255 00ec 9C46     		mov	ip, r3
  73:iprintf.c     ****                 buffer[i++] = xVal % 16;
 256              		.loc 1 73 0
 257 00ee 0F21     		movs	r1, #15
  70:iprintf.c     ****             xVal = pArg[index++];
 258              		.loc 1 70 0
 259 00f0 A400     		lsls	r4, r4, #2
 260 00f2 6444     		add	r4, r4, ip
 261 00f4 2368     		ldr	r3, [r4]
 262              	.LVL30:
 263 00f6 6A46     		mov	r2, sp
  71:iprintf.c     ****             i = 0;
 264              		.loc 1 71 0
 265 00f8 0024     		movs	r4, #0
  73:iprintf.c     ****                 buffer[i++] = xVal % 16;
 266              		.loc 1 73 0
ARM GAS  C:\Users\jrdia\AppData\Local\Temp\ccjOn683.s 			page 8


 267 00fa 8C46     		mov	ip, r1
 268              	.LVL31:
 269 00fc 00E0     		b	.L14
 270              	.LVL32:
 271              	.L23:
 272 00fe 0C00     		movs	r4, r1
 273              	.LVL33:
 274              	.L14:
  73:iprintf.c     ****                 buffer[i++] = xVal % 16;
 275              		.loc 1 73 0 is_stmt 0 discriminator 1
 276 0100 6046     		mov	r0, ip
 277 0102 1840     		ands	r0, r3
 278 0104 611C     		adds	r1, r4, #1
 279              	.LVL34:
 280 0106 01C2     		stmia	r2!, {r0}
  74:iprintf.c     ****                 xVal /= 16;
 281              		.loc 1 74 0 is_stmt 1 discriminator 1
 282 0108 1B09     		lsrs	r3, r3, #4
 283              	.LVL35:
  75:iprintf.c     ****             }while(xVal);
 284              		.loc 1 75 0 discriminator 1
 285 010a F8D1     		bne	.L23
  76:iprintf.c     ****             if(i%2!=0)
 286              		.loc 1 76 0
 287 010c 0122     		movs	r2, #1
 288 010e 0A40     		ands	r2, r1
 289 0110 2BD0     		beq	.L15
  77:iprintf.c     ****                 buffer[i++]=0;
 290              		.loc 1 77 0
 291 0112 6A46     		mov	r2, sp
 292 0114 8900     		lsls	r1, r1, #2
 293              	.LVL36:
 294 0116 5350     		str	r3, [r2, r1]
 295 0118 0022     		movs	r2, #0
 296 011a 0234     		adds	r4, r4, #2
 297              	.LVL37:
 298              	.L16:
 299 011c 194B     		ldr	r3, .L36+4
 300 011e 9C46     		mov	ip, r3
 301 0120 0423     		movs	r3, #4
 302 0122 6444     		add	r4, r4, ip
 303              	.LVL38:
 304 0124 5B42     		rsbs	r3, r3, #0
 305 0126 A400     		lsls	r4, r4, #2
 306              	.LVL39:
 307 0128 6B44     		add	r3, r3, sp
 308 012a 6C44     		add	r4, r4, sp
 309 012c 9946     		mov	r9, r3
 310 012e 01E0     		b	.L19
 311              	.LVL40:
 312              	.L34:
 313 0130 2268     		ldr	r2, [r4]
 314 0132 043C     		subs	r4, r4, #4
 315              	.L19:
 316              	.LVL41:
 317              	.LBB22:
 318              	.LBB23:
ARM GAS  C:\Users\jrdia\AppData\Local\Temp\ccjOn683.s 			page 9


  10:iprintf.c     **** 	UART_UartPutChar(ch);
 319              		.loc 1 10 0
 320 0134 5346     		mov	r3, r10
 321 0136 985C     		ldrb	r0, [r3, r2]
 322 0138 FFF7FEFF 		bl	UART_SpiUartWriteTxData
 323              	.LVL42:
 324              	.LBE23:
 325              	.LBE22:
  81:iprintf.c     ****             while(i > 0)
 326              		.loc 1 81 0
 327 013c A145     		cmp	r9, r4
 328 013e F7D1     		bne	.L34
  86:iprintf.c     ****             pszFmt++;
 329              		.loc 1 86 0
 330 0140 AB1C     		adds	r3, r5, #2
 331 0142 A878     		ldrb	r0, [r5, #2]
 332 0144 1693     		str	r3, [sp, #88]
  87:iprintf.c     ****             continue;
 333              		.loc 1 87 0
 334 0146 1D00     		movs	r5, r3
  70:iprintf.c     ****             xVal = pArg[index++];
 335              		.loc 1 70 0
 336 0148 4446     		mov	r4, r8
 337 014a 66E7     		b	.L2
 338              	.LVL43:
 339              	.L32:
  63:iprintf.c     ****             cVal = (uint8)pArg[index++];
 340              		.loc 1 63 0
 341 014c 631C     		adds	r3, r4, #1
 342 014e 9846     		mov	r8, r3
 343              	.LVL44:
 344 0150 16AB     		add	r3, sp, #88
 345              	.LVL45:
 346 0152 9C46     		mov	ip, r3
 347 0154 A400     		lsls	r4, r4, #2
 348              	.LVL46:
 349 0156 6444     		add	r4, r4, ip
 350              	.LBB24:
 351              	.LBB25:
  10:iprintf.c     **** 	UART_UartPutChar(ch);
 352              		.loc 1 10 0
 353 0158 2078     		ldrb	r0, [r4]
 354 015a FFF7FEFF 		bl	UART_SpiUartWriteTxData
 355              	.LVL47:
 356              	.LBE25:
 357              	.LBE24:
  86:iprintf.c     ****             pszFmt++;
 358              		.loc 1 86 0
 359 015e AB1C     		adds	r3, r5, #2
 360 0160 A878     		ldrb	r0, [r5, #2]
 361 0162 1693     		str	r3, [sp, #88]
  87:iprintf.c     ****             continue;
 362              		.loc 1 87 0
 363 0164 1D00     		movs	r5, r3
  70:iprintf.c     ****             xVal = pArg[index++];
 364              		.loc 1 70 0
 365 0166 4446     		mov	r4, r8
ARM GAS  C:\Users\jrdia\AppData\Local\Temp\ccjOn683.s 			page 10


 366 0168 57E7     		b	.L2
 367              	.LVL48:
 368              	.L15:
  78:iprintf.c     ****             if(i<2)
 369              		.loc 1 78 0
 370 016a 0129     		cmp	r1, #1
 371 016c 02D1     		bne	.L35
 372              	.LVL49:
  79:iprintf.c     ****                 buffer[i++]=0;
 373              		.loc 1 79 0
 374 016e 0193     		str	r3, [sp, #4]
 375 0170 0224     		movs	r4, #2
 376 0172 D3E7     		b	.L16
 377              	.LVL50:
 378              	.L35:
 379 0174 6B46     		mov	r3, sp
 380              	.LVL51:
 381 0176 A400     		lsls	r4, r4, #2
 382 0178 1A59     		ldr	r2, [r3, r4]
  78:iprintf.c     ****             if(i<2)
 383              		.loc 1 78 0
 384 017a 0C00     		movs	r4, r1
 385 017c CEE7     		b	.L16
 386              	.L37:
 387 017e C046     		.align	2
 388              	.L36:
 389 0180 00000000 		.word	.LC3
 390 0184 FEFFFF3F 		.word	1073741822
 391              		.cfi_endproc
 392              	.LFE34:
 393              		.size	iprintf, .-iprintf
 394              		.section	.rodata.str1.4,"aMS",%progbits,1
 395              		.align	2
 396              	.LC3:
 397 0000 30313233 		.ascii	"0123456789abcdef\000"
 397      34353637 
 397      38396162 
 397      63646566 
 397      00
 398              		.text
 399              	.Letext0:
 400              		.file 2 "Generated_Source\\PSoC4/cytypes.h"
 401              		.file 3 "Generated_Source\\PSoC4/UART_SPI_UART.h"