ARM GAS  C:\Users\jrdia\AppData\Local\Temp\ccjjVmhT.s 			page 1


   1              		.syntax unified
   2              		.cpu cortex-m0
   3              		.fpu softvfp
   4              		.eabi_attribute 20, 1
   5              		.eabi_attribute 21, 1
   6              		.eabi_attribute 23, 3
   7              		.eabi_attribute 24, 1
   8              		.eabi_attribute 25, 1
   9              		.eabi_attribute 26, 1
  10              		.eabi_attribute 30, 2
  11              		.eabi_attribute 34, 0
  12              		.eabi_attribute 18, 4
  13              		.thumb
  14              		.syntax unified
  15              		.file	"isr_1.c"
  16              		.text
  17              	.Ltext0:
  18              		.cfi_sections	.debug_frame
  19              		.section	.text.isr_1_Interrupt,"ax",%progbits
  20              		.align	2
  21              		.global	isr_1_Interrupt
  22              		.code	16
  23              		.thumb_func
  24              		.type	isr_1_Interrupt, %function
  25              	isr_1_Interrupt:
  26              	.LFB3:
  27              		.file 1 "Generated_Source\\PSoC4\\isr_1.c"
   1:Generated_Source\PSoC4/isr_1.c **** /*******************************************************************************
   2:Generated_Source\PSoC4/isr_1.c **** * File Name: isr_1.c  
   3:Generated_Source\PSoC4/isr_1.c **** * Version 1.70
   4:Generated_Source\PSoC4/isr_1.c **** *
   5:Generated_Source\PSoC4/isr_1.c **** *  Description:
   6:Generated_Source\PSoC4/isr_1.c **** *   API for controlling the state of an interrupt.
   7:Generated_Source\PSoC4/isr_1.c **** *
   8:Generated_Source\PSoC4/isr_1.c **** *
   9:Generated_Source\PSoC4/isr_1.c **** *  Note:
  10:Generated_Source\PSoC4/isr_1.c **** *
  11:Generated_Source\PSoC4/isr_1.c **** ********************************************************************************
  12:Generated_Source\PSoC4/isr_1.c **** * Copyright 2008-2015, Cypress Semiconductor Corporation.  All rights reserved.
  13:Generated_Source\PSoC4/isr_1.c **** * You may use this file only in accordance with the license, terms, conditions, 
  14:Generated_Source\PSoC4/isr_1.c **** * disclaimers, and limitations in the end user license agreement accompanying 
  15:Generated_Source\PSoC4/isr_1.c **** * the software package with which this file was provided.
  16:Generated_Source\PSoC4/isr_1.c **** *******************************************************************************/
  17:Generated_Source\PSoC4/isr_1.c **** 
  18:Generated_Source\PSoC4/isr_1.c **** 
  19:Generated_Source\PSoC4/isr_1.c **** #include <cydevice_trm.h>
  20:Generated_Source\PSoC4/isr_1.c **** #include <CyLib.h>
  21:Generated_Source\PSoC4/isr_1.c **** #include <isr_1.h>
  22:Generated_Source\PSoC4/isr_1.c **** #include "cyapicallbacks.h"
  23:Generated_Source\PSoC4/isr_1.c **** 
  24:Generated_Source\PSoC4/isr_1.c **** #if !defined(isr_1__REMOVED) /* Check for removal by optimization */
  25:Generated_Source\PSoC4/isr_1.c **** 
  26:Generated_Source\PSoC4/isr_1.c **** /*******************************************************************************
  27:Generated_Source\PSoC4/isr_1.c **** *  Place your includes, defines and code here 
  28:Generated_Source\PSoC4/isr_1.c **** ********************************************************************************/
  29:Generated_Source\PSoC4/isr_1.c **** /* `#START isr_1_intc` */
  30:Generated_Source\PSoC4/isr_1.c **** 
ARM GAS  C:\Users\jrdia\AppData\Local\Temp\ccjjVmhT.s 			page 2


  31:Generated_Source\PSoC4/isr_1.c **** /* `#END` */
  32:Generated_Source\PSoC4/isr_1.c **** 
  33:Generated_Source\PSoC4/isr_1.c **** extern cyisraddress CyRamVectors[CYINT_IRQ_BASE + CY_NUM_INTERRUPTS];
  34:Generated_Source\PSoC4/isr_1.c **** 
  35:Generated_Source\PSoC4/isr_1.c **** /* Declared in startup, used to set unused interrupts to. */
  36:Generated_Source\PSoC4/isr_1.c **** CY_ISR_PROTO(IntDefaultHandler);
  37:Generated_Source\PSoC4/isr_1.c **** 
  38:Generated_Source\PSoC4/isr_1.c **** 
  39:Generated_Source\PSoC4/isr_1.c **** /*******************************************************************************
  40:Generated_Source\PSoC4/isr_1.c **** * Function Name: isr_1_Start
  41:Generated_Source\PSoC4/isr_1.c **** ********************************************************************************
  42:Generated_Source\PSoC4/isr_1.c **** *
  43:Generated_Source\PSoC4/isr_1.c **** * Summary:
  44:Generated_Source\PSoC4/isr_1.c **** *  Set up the interrupt and enable it. This function disables the interrupt, 
  45:Generated_Source\PSoC4/isr_1.c **** *  sets the default interrupt vector, sets the priority from the value in the
  46:Generated_Source\PSoC4/isr_1.c **** *  Design Wide Resources Interrupt Editor, then enables the interrupt to the 
  47:Generated_Source\PSoC4/isr_1.c **** *  interrupt controller.
  48:Generated_Source\PSoC4/isr_1.c **** *
  49:Generated_Source\PSoC4/isr_1.c **** * Parameters:  
  50:Generated_Source\PSoC4/isr_1.c **** *   None
  51:Generated_Source\PSoC4/isr_1.c **** *
  52:Generated_Source\PSoC4/isr_1.c **** * Return:
  53:Generated_Source\PSoC4/isr_1.c **** *   None
  54:Generated_Source\PSoC4/isr_1.c **** *
  55:Generated_Source\PSoC4/isr_1.c **** *******************************************************************************/
  56:Generated_Source\PSoC4/isr_1.c **** void isr_1_Start(void)
  57:Generated_Source\PSoC4/isr_1.c **** {
  58:Generated_Source\PSoC4/isr_1.c ****     /* For all we know the interrupt is active. */
  59:Generated_Source\PSoC4/isr_1.c ****     isr_1_Disable();
  60:Generated_Source\PSoC4/isr_1.c **** 
  61:Generated_Source\PSoC4/isr_1.c ****     /* Set the ISR to point to the isr_1 Interrupt. */
  62:Generated_Source\PSoC4/isr_1.c ****     isr_1_SetVector(&isr_1_Interrupt);
  63:Generated_Source\PSoC4/isr_1.c **** 
  64:Generated_Source\PSoC4/isr_1.c ****     /* Set the priority. */
  65:Generated_Source\PSoC4/isr_1.c ****     isr_1_SetPriority((uint8)isr_1_INTC_PRIOR_NUMBER);
  66:Generated_Source\PSoC4/isr_1.c **** 
  67:Generated_Source\PSoC4/isr_1.c ****     /* Enable it. */
  68:Generated_Source\PSoC4/isr_1.c ****     isr_1_Enable();
  69:Generated_Source\PSoC4/isr_1.c **** }
  70:Generated_Source\PSoC4/isr_1.c **** 
  71:Generated_Source\PSoC4/isr_1.c **** 
  72:Generated_Source\PSoC4/isr_1.c **** /*******************************************************************************
  73:Generated_Source\PSoC4/isr_1.c **** * Function Name: isr_1_StartEx
  74:Generated_Source\PSoC4/isr_1.c **** ********************************************************************************
  75:Generated_Source\PSoC4/isr_1.c **** *
  76:Generated_Source\PSoC4/isr_1.c **** * Summary:
  77:Generated_Source\PSoC4/isr_1.c **** *  Sets up the interrupt and enables it. This function disables the interrupt,
  78:Generated_Source\PSoC4/isr_1.c **** *  sets the interrupt vector based on the address passed in, sets the priority 
  79:Generated_Source\PSoC4/isr_1.c **** *  from the value in the Design Wide Resources Interrupt Editor, then enables 
  80:Generated_Source\PSoC4/isr_1.c **** *  the interrupt to the interrupt controller.
  81:Generated_Source\PSoC4/isr_1.c **** *  
  82:Generated_Source\PSoC4/isr_1.c **** *  When defining ISR functions, the CY_ISR and CY_ISR_PROTO macros should be 
  83:Generated_Source\PSoC4/isr_1.c **** *  used to provide consistent definition across compilers:
  84:Generated_Source\PSoC4/isr_1.c **** *  
  85:Generated_Source\PSoC4/isr_1.c **** *  Function definition example:
  86:Generated_Source\PSoC4/isr_1.c **** *   CY_ISR(MyISR)
  87:Generated_Source\PSoC4/isr_1.c **** *   {
ARM GAS  C:\Users\jrdia\AppData\Local\Temp\ccjjVmhT.s 			page 3


  88:Generated_Source\PSoC4/isr_1.c **** *   }
  89:Generated_Source\PSoC4/isr_1.c **** *   Function prototype example:
  90:Generated_Source\PSoC4/isr_1.c **** *   CY_ISR_PROTO(MyISR);
  91:Generated_Source\PSoC4/isr_1.c **** *
  92:Generated_Source\PSoC4/isr_1.c **** * Parameters:  
  93:Generated_Source\PSoC4/isr_1.c **** *   address: Address of the ISR to set in the interrupt vector table.
  94:Generated_Source\PSoC4/isr_1.c **** *
  95:Generated_Source\PSoC4/isr_1.c **** * Return:
  96:Generated_Source\PSoC4/isr_1.c **** *   None
  97:Generated_Source\PSoC4/isr_1.c **** *
  98:Generated_Source\PSoC4/isr_1.c **** *******************************************************************************/
  99:Generated_Source\PSoC4/isr_1.c **** void isr_1_StartEx(cyisraddress address)
 100:Generated_Source\PSoC4/isr_1.c **** {
 101:Generated_Source\PSoC4/isr_1.c ****     /* For all we know the interrupt is active. */
 102:Generated_Source\PSoC4/isr_1.c ****     isr_1_Disable();
 103:Generated_Source\PSoC4/isr_1.c **** 
 104:Generated_Source\PSoC4/isr_1.c ****     /* Set the ISR to point to the isr_1 Interrupt. */
 105:Generated_Source\PSoC4/isr_1.c ****     isr_1_SetVector(address);
 106:Generated_Source\PSoC4/isr_1.c **** 
 107:Generated_Source\PSoC4/isr_1.c ****     /* Set the priority. */
 108:Generated_Source\PSoC4/isr_1.c ****     isr_1_SetPriority((uint8)isr_1_INTC_PRIOR_NUMBER);
 109:Generated_Source\PSoC4/isr_1.c **** 
 110:Generated_Source\PSoC4/isr_1.c ****     /* Enable it. */
 111:Generated_Source\PSoC4/isr_1.c ****     isr_1_Enable();
 112:Generated_Source\PSoC4/isr_1.c **** }
 113:Generated_Source\PSoC4/isr_1.c **** 
 114:Generated_Source\PSoC4/isr_1.c **** 
 115:Generated_Source\PSoC4/isr_1.c **** /*******************************************************************************
 116:Generated_Source\PSoC4/isr_1.c **** * Function Name: isr_1_Stop
 117:Generated_Source\PSoC4/isr_1.c **** ********************************************************************************
 118:Generated_Source\PSoC4/isr_1.c **** *
 119:Generated_Source\PSoC4/isr_1.c **** * Summary:
 120:Generated_Source\PSoC4/isr_1.c **** *   Disables and removes the interrupt.
 121:Generated_Source\PSoC4/isr_1.c **** *
 122:Generated_Source\PSoC4/isr_1.c **** * Parameters:  
 123:Generated_Source\PSoC4/isr_1.c **** *   None
 124:Generated_Source\PSoC4/isr_1.c **** *
 125:Generated_Source\PSoC4/isr_1.c **** * Return:
 126:Generated_Source\PSoC4/isr_1.c **** *   None
 127:Generated_Source\PSoC4/isr_1.c **** *
 128:Generated_Source\PSoC4/isr_1.c **** *******************************************************************************/
 129:Generated_Source\PSoC4/isr_1.c **** void isr_1_Stop(void)
 130:Generated_Source\PSoC4/isr_1.c **** {
 131:Generated_Source\PSoC4/isr_1.c ****     /* Disable this interrupt. */
 132:Generated_Source\PSoC4/isr_1.c ****     isr_1_Disable();
 133:Generated_Source\PSoC4/isr_1.c **** 
 134:Generated_Source\PSoC4/isr_1.c ****     /* Set the ISR to point to the passive one. */
 135:Generated_Source\PSoC4/isr_1.c ****     isr_1_SetVector(&IntDefaultHandler);
 136:Generated_Source\PSoC4/isr_1.c **** }
 137:Generated_Source\PSoC4/isr_1.c **** 
 138:Generated_Source\PSoC4/isr_1.c **** 
 139:Generated_Source\PSoC4/isr_1.c **** /*******************************************************************************
 140:Generated_Source\PSoC4/isr_1.c **** * Function Name: isr_1_Interrupt
 141:Generated_Source\PSoC4/isr_1.c **** ********************************************************************************
 142:Generated_Source\PSoC4/isr_1.c **** *
 143:Generated_Source\PSoC4/isr_1.c **** * Summary:
 144:Generated_Source\PSoC4/isr_1.c **** *   The default Interrupt Service Routine for isr_1.
ARM GAS  C:\Users\jrdia\AppData\Local\Temp\ccjjVmhT.s 			page 4


 145:Generated_Source\PSoC4/isr_1.c **** *
 146:Generated_Source\PSoC4/isr_1.c **** *   Add custom code between the START and END comments to keep the next version
 147:Generated_Source\PSoC4/isr_1.c **** *   of this file from over-writing your code.
 148:Generated_Source\PSoC4/isr_1.c **** *
 149:Generated_Source\PSoC4/isr_1.c **** *   Note You may use either the default ISR by using this API, or you may define
 150:Generated_Source\PSoC4/isr_1.c **** *   your own separate ISR through ISR_StartEx().
 151:Generated_Source\PSoC4/isr_1.c **** *
 152:Generated_Source\PSoC4/isr_1.c **** * Parameters:  
 153:Generated_Source\PSoC4/isr_1.c **** *   None
 154:Generated_Source\PSoC4/isr_1.c **** *
 155:Generated_Source\PSoC4/isr_1.c **** * Return:
 156:Generated_Source\PSoC4/isr_1.c **** *   None
 157:Generated_Source\PSoC4/isr_1.c **** *
 158:Generated_Source\PSoC4/isr_1.c **** *******************************************************************************/
 159:Generated_Source\PSoC4/isr_1.c **** CY_ISR(isr_1_Interrupt)
 160:Generated_Source\PSoC4/isr_1.c **** {
  28              		.loc 1 160 0
  29              		.cfi_startproc
  30              		@ args = 0, pretend = 0, frame = 0
  31              		@ frame_needed = 0, uses_anonymous_args = 0
  32              		@ link register save eliminated.
 161:Generated_Source\PSoC4/isr_1.c ****     #ifdef isr_1_INTERRUPT_INTERRUPT_CALLBACK
 162:Generated_Source\PSoC4/isr_1.c ****         isr_1_Interrupt_InterruptCallback();
 163:Generated_Source\PSoC4/isr_1.c ****     #endif /* isr_1_INTERRUPT_INTERRUPT_CALLBACK */ 
 164:Generated_Source\PSoC4/isr_1.c **** 
 165:Generated_Source\PSoC4/isr_1.c ****     /*  Place your Interrupt code here. */
 166:Generated_Source\PSoC4/isr_1.c ****     /* `#START isr_1_Interrupt` */
 167:Generated_Source\PSoC4/isr_1.c **** 
 168:Generated_Source\PSoC4/isr_1.c ****     /* `#END` */
 169:Generated_Source\PSoC4/isr_1.c **** }
  33              		.loc 1 169 0
  34              		@ sp needed
  35 0000 7047     		bx	lr
  36              		.cfi_endproc
  37              	.LFE3:
  38              		.size	isr_1_Interrupt, .-isr_1_Interrupt
  39 0002 C046     		.section	.text.isr_1_Stop,"ax",%progbits
  40              		.align	2
  41              		.global	isr_1_Stop
  42              		.code	16
  43              		.thumb_func
  44              		.type	isr_1_Stop, %function
  45              	isr_1_Stop:
  46              	.LFB2:
 130:Generated_Source\PSoC4/isr_1.c ****     /* Disable this interrupt. */
  47              		.loc 1 130 0
  48              		.cfi_startproc
  49              		@ args = 0, pretend = 0, frame = 0
  50              		@ frame_needed = 0, uses_anonymous_args = 0
  51              		@ link register save eliminated.
  52              	.LBB18:
  53              	.LBB19:
 170:Generated_Source\PSoC4/isr_1.c **** 
 171:Generated_Source\PSoC4/isr_1.c **** 
 172:Generated_Source\PSoC4/isr_1.c **** /*******************************************************************************
 173:Generated_Source\PSoC4/isr_1.c **** * Function Name: isr_1_SetVector
 174:Generated_Source\PSoC4/isr_1.c **** ********************************************************************************
ARM GAS  C:\Users\jrdia\AppData\Local\Temp\ccjjVmhT.s 			page 5


 175:Generated_Source\PSoC4/isr_1.c **** *
 176:Generated_Source\PSoC4/isr_1.c **** * Summary:
 177:Generated_Source\PSoC4/isr_1.c **** *   Change the ISR vector for the Interrupt. Note calling isr_1_Start
 178:Generated_Source\PSoC4/isr_1.c **** *   will override any effect this method would have had. To set the vector 
 179:Generated_Source\PSoC4/isr_1.c **** *   before the component has been started use isr_1_StartEx instead.
 180:Generated_Source\PSoC4/isr_1.c **** * 
 181:Generated_Source\PSoC4/isr_1.c **** *   When defining ISR functions, the CY_ISR and CY_ISR_PROTO macros should be 
 182:Generated_Source\PSoC4/isr_1.c **** *   used to provide consistent definition across compilers:
 183:Generated_Source\PSoC4/isr_1.c **** *
 184:Generated_Source\PSoC4/isr_1.c **** *   Function definition example:
 185:Generated_Source\PSoC4/isr_1.c **** *   CY_ISR(MyISR)
 186:Generated_Source\PSoC4/isr_1.c **** *   {
 187:Generated_Source\PSoC4/isr_1.c **** *   }
 188:Generated_Source\PSoC4/isr_1.c **** *
 189:Generated_Source\PSoC4/isr_1.c **** *   Function prototype example:
 190:Generated_Source\PSoC4/isr_1.c **** *     CY_ISR_PROTO(MyISR);
 191:Generated_Source\PSoC4/isr_1.c **** *
 192:Generated_Source\PSoC4/isr_1.c **** * Parameters:
 193:Generated_Source\PSoC4/isr_1.c **** *   address: Address of the ISR to set in the interrupt vector table.
 194:Generated_Source\PSoC4/isr_1.c **** *
 195:Generated_Source\PSoC4/isr_1.c **** * Return:
 196:Generated_Source\PSoC4/isr_1.c **** *   None
 197:Generated_Source\PSoC4/isr_1.c **** *
 198:Generated_Source\PSoC4/isr_1.c **** *******************************************************************************/
 199:Generated_Source\PSoC4/isr_1.c **** void isr_1_SetVector(cyisraddress address)
 200:Generated_Source\PSoC4/isr_1.c **** {
 201:Generated_Source\PSoC4/isr_1.c ****     CyRamVectors[CYINT_IRQ_BASE + isr_1__INTC_NUMBER] = address;
 202:Generated_Source\PSoC4/isr_1.c **** }
 203:Generated_Source\PSoC4/isr_1.c **** 
 204:Generated_Source\PSoC4/isr_1.c **** 
 205:Generated_Source\PSoC4/isr_1.c **** /*******************************************************************************
 206:Generated_Source\PSoC4/isr_1.c **** * Function Name: isr_1_GetVector
 207:Generated_Source\PSoC4/isr_1.c **** ********************************************************************************
 208:Generated_Source\PSoC4/isr_1.c **** *
 209:Generated_Source\PSoC4/isr_1.c **** * Summary:
 210:Generated_Source\PSoC4/isr_1.c **** *   Gets the "address" of the current ISR vector for the Interrupt.
 211:Generated_Source\PSoC4/isr_1.c **** *
 212:Generated_Source\PSoC4/isr_1.c **** * Parameters:
 213:Generated_Source\PSoC4/isr_1.c **** *   None
 214:Generated_Source\PSoC4/isr_1.c **** *
 215:Generated_Source\PSoC4/isr_1.c **** * Return:
 216:Generated_Source\PSoC4/isr_1.c **** *   Address of the ISR in the interrupt vector table.
 217:Generated_Source\PSoC4/isr_1.c **** *
 218:Generated_Source\PSoC4/isr_1.c **** *******************************************************************************/
 219:Generated_Source\PSoC4/isr_1.c **** cyisraddress isr_1_GetVector(void)
 220:Generated_Source\PSoC4/isr_1.c **** {
 221:Generated_Source\PSoC4/isr_1.c ****     return CyRamVectors[CYINT_IRQ_BASE + isr_1__INTC_NUMBER];
 222:Generated_Source\PSoC4/isr_1.c **** }
 223:Generated_Source\PSoC4/isr_1.c **** 
 224:Generated_Source\PSoC4/isr_1.c **** 
 225:Generated_Source\PSoC4/isr_1.c **** /*******************************************************************************
 226:Generated_Source\PSoC4/isr_1.c **** * Function Name: isr_1_SetPriority
 227:Generated_Source\PSoC4/isr_1.c **** ********************************************************************************
 228:Generated_Source\PSoC4/isr_1.c **** *
 229:Generated_Source\PSoC4/isr_1.c **** * Summary:
 230:Generated_Source\PSoC4/isr_1.c **** *   Sets the Priority of the Interrupt. 
 231:Generated_Source\PSoC4/isr_1.c **** *
ARM GAS  C:\Users\jrdia\AppData\Local\Temp\ccjjVmhT.s 			page 6


 232:Generated_Source\PSoC4/isr_1.c **** *   Note calling isr_1_Start or isr_1_StartEx will 
 233:Generated_Source\PSoC4/isr_1.c **** *   override any effect this API would have had. This API should only be called
 234:Generated_Source\PSoC4/isr_1.c **** *   after isr_1_Start or isr_1_StartEx has been called. 
 235:Generated_Source\PSoC4/isr_1.c **** *   To set the initial priority for the component, use the Design-Wide Resources
 236:Generated_Source\PSoC4/isr_1.c **** *   Interrupt Editor.
 237:Generated_Source\PSoC4/isr_1.c **** *
 238:Generated_Source\PSoC4/isr_1.c **** *   Note This API has no effect on Non-maskable interrupt NMI).
 239:Generated_Source\PSoC4/isr_1.c **** *
 240:Generated_Source\PSoC4/isr_1.c **** * Parameters:
 241:Generated_Source\PSoC4/isr_1.c **** *   priority: Priority of the interrupt, 0 being the highest priority
 242:Generated_Source\PSoC4/isr_1.c **** *             PSoC 3 and PSoC 5LP: Priority is from 0 to 7.
 243:Generated_Source\PSoC4/isr_1.c **** *             PSoC 4: Priority is from 0 to 3.
 244:Generated_Source\PSoC4/isr_1.c **** *
 245:Generated_Source\PSoC4/isr_1.c **** * Return:
 246:Generated_Source\PSoC4/isr_1.c **** *   None
 247:Generated_Source\PSoC4/isr_1.c **** *
 248:Generated_Source\PSoC4/isr_1.c **** *******************************************************************************/
 249:Generated_Source\PSoC4/isr_1.c **** void isr_1_SetPriority(uint8 priority)
 250:Generated_Source\PSoC4/isr_1.c **** {
 251:Generated_Source\PSoC4/isr_1.c **** 	uint8 interruptState;
 252:Generated_Source\PSoC4/isr_1.c ****     uint32 priorityOffset = ((isr_1__INTC_NUMBER % 4u) * 8u) + 6u;
 253:Generated_Source\PSoC4/isr_1.c ****     
 254:Generated_Source\PSoC4/isr_1.c **** 	interruptState = CyEnterCriticalSection();
 255:Generated_Source\PSoC4/isr_1.c ****     *isr_1_INTC_PRIOR = (*isr_1_INTC_PRIOR & (uint32)(~isr_1__INTC_PRIOR_MASK)) |
 256:Generated_Source\PSoC4/isr_1.c ****                                     ((uint32)priority << priorityOffset);
 257:Generated_Source\PSoC4/isr_1.c **** 	CyExitCriticalSection(interruptState);
 258:Generated_Source\PSoC4/isr_1.c **** }
 259:Generated_Source\PSoC4/isr_1.c **** 
 260:Generated_Source\PSoC4/isr_1.c **** 
 261:Generated_Source\PSoC4/isr_1.c **** /*******************************************************************************
 262:Generated_Source\PSoC4/isr_1.c **** * Function Name: isr_1_GetPriority
 263:Generated_Source\PSoC4/isr_1.c **** ********************************************************************************
 264:Generated_Source\PSoC4/isr_1.c **** *
 265:Generated_Source\PSoC4/isr_1.c **** * Summary:
 266:Generated_Source\PSoC4/isr_1.c **** *   Gets the Priority of the Interrupt.
 267:Generated_Source\PSoC4/isr_1.c **** *
 268:Generated_Source\PSoC4/isr_1.c **** * Parameters:
 269:Generated_Source\PSoC4/isr_1.c **** *   None
 270:Generated_Source\PSoC4/isr_1.c **** *
 271:Generated_Source\PSoC4/isr_1.c **** * Return:
 272:Generated_Source\PSoC4/isr_1.c **** *   Priority of the interrupt, 0 being the highest priority
 273:Generated_Source\PSoC4/isr_1.c **** *    PSoC 3 and PSoC 5LP: Priority is from 0 to 7.
 274:Generated_Source\PSoC4/isr_1.c **** *    PSoC 4: Priority is from 0 to 3.
 275:Generated_Source\PSoC4/isr_1.c **** *
 276:Generated_Source\PSoC4/isr_1.c **** *******************************************************************************/
 277:Generated_Source\PSoC4/isr_1.c **** uint8 isr_1_GetPriority(void)
 278:Generated_Source\PSoC4/isr_1.c **** {
 279:Generated_Source\PSoC4/isr_1.c ****     uint32 priority;
 280:Generated_Source\PSoC4/isr_1.c **** 	uint32 priorityOffset = ((isr_1__INTC_NUMBER % 4u) * 8u) + 6u;
 281:Generated_Source\PSoC4/isr_1.c **** 
 282:Generated_Source\PSoC4/isr_1.c ****     priority = (*isr_1_INTC_PRIOR & isr_1__INTC_PRIOR_MASK) >> priorityOffset;
 283:Generated_Source\PSoC4/isr_1.c **** 
 284:Generated_Source\PSoC4/isr_1.c ****     return (uint8)priority;
 285:Generated_Source\PSoC4/isr_1.c **** }
 286:Generated_Source\PSoC4/isr_1.c **** 
 287:Generated_Source\PSoC4/isr_1.c **** 
 288:Generated_Source\PSoC4/isr_1.c **** /*******************************************************************************
ARM GAS  C:\Users\jrdia\AppData\Local\Temp\ccjjVmhT.s 			page 7


 289:Generated_Source\PSoC4/isr_1.c **** * Function Name: isr_1_Enable
 290:Generated_Source\PSoC4/isr_1.c **** ********************************************************************************
 291:Generated_Source\PSoC4/isr_1.c **** *
 292:Generated_Source\PSoC4/isr_1.c **** * Summary:
 293:Generated_Source\PSoC4/isr_1.c **** *   Enables the interrupt to the interrupt controller. Do not call this function
 294:Generated_Source\PSoC4/isr_1.c **** *   unless ISR_Start() has been called or the functionality of the ISR_Start() 
 295:Generated_Source\PSoC4/isr_1.c **** *   function, which sets the vector and the priority, has been called.
 296:Generated_Source\PSoC4/isr_1.c **** *
 297:Generated_Source\PSoC4/isr_1.c **** * Parameters:
 298:Generated_Source\PSoC4/isr_1.c **** *   None
 299:Generated_Source\PSoC4/isr_1.c **** *
 300:Generated_Source\PSoC4/isr_1.c **** * Return:
 301:Generated_Source\PSoC4/isr_1.c **** *   None
 302:Generated_Source\PSoC4/isr_1.c **** *
 303:Generated_Source\PSoC4/isr_1.c **** *******************************************************************************/
 304:Generated_Source\PSoC4/isr_1.c **** void isr_1_Enable(void)
 305:Generated_Source\PSoC4/isr_1.c **** {
 306:Generated_Source\PSoC4/isr_1.c ****     /* Enable the general interrupt. */
 307:Generated_Source\PSoC4/isr_1.c ****     *isr_1_INTC_SET_EN = isr_1__INTC_MASK;
 308:Generated_Source\PSoC4/isr_1.c **** }
 309:Generated_Source\PSoC4/isr_1.c **** 
 310:Generated_Source\PSoC4/isr_1.c **** 
 311:Generated_Source\PSoC4/isr_1.c **** /*******************************************************************************
 312:Generated_Source\PSoC4/isr_1.c **** * Function Name: isr_1_GetState
 313:Generated_Source\PSoC4/isr_1.c **** ********************************************************************************
 314:Generated_Source\PSoC4/isr_1.c **** *
 315:Generated_Source\PSoC4/isr_1.c **** * Summary:
 316:Generated_Source\PSoC4/isr_1.c **** *   Gets the state (enabled, disabled) of the Interrupt.
 317:Generated_Source\PSoC4/isr_1.c **** *
 318:Generated_Source\PSoC4/isr_1.c **** * Parameters:
 319:Generated_Source\PSoC4/isr_1.c **** *   None
 320:Generated_Source\PSoC4/isr_1.c **** *
 321:Generated_Source\PSoC4/isr_1.c **** * Return:
 322:Generated_Source\PSoC4/isr_1.c **** *   1 if enabled, 0 if disabled.
 323:Generated_Source\PSoC4/isr_1.c **** *
 324:Generated_Source\PSoC4/isr_1.c **** *******************************************************************************/
 325:Generated_Source\PSoC4/isr_1.c **** uint8 isr_1_GetState(void)
 326:Generated_Source\PSoC4/isr_1.c **** {
 327:Generated_Source\PSoC4/isr_1.c ****     /* Get the state of the general interrupt. */
 328:Generated_Source\PSoC4/isr_1.c ****     return ((*isr_1_INTC_SET_EN & (uint32)isr_1__INTC_MASK) != 0u) ? 1u:0u;
 329:Generated_Source\PSoC4/isr_1.c **** }
 330:Generated_Source\PSoC4/isr_1.c **** 
 331:Generated_Source\PSoC4/isr_1.c **** 
 332:Generated_Source\PSoC4/isr_1.c **** /*******************************************************************************
 333:Generated_Source\PSoC4/isr_1.c **** * Function Name: isr_1_Disable
 334:Generated_Source\PSoC4/isr_1.c **** ********************************************************************************
 335:Generated_Source\PSoC4/isr_1.c **** *
 336:Generated_Source\PSoC4/isr_1.c **** * Summary:
 337:Generated_Source\PSoC4/isr_1.c **** *   Disables the Interrupt in the interrupt controller.
 338:Generated_Source\PSoC4/isr_1.c **** *
 339:Generated_Source\PSoC4/isr_1.c **** * Parameters:
 340:Generated_Source\PSoC4/isr_1.c **** *   None
 341:Generated_Source\PSoC4/isr_1.c **** *
 342:Generated_Source\PSoC4/isr_1.c **** * Return:
 343:Generated_Source\PSoC4/isr_1.c **** *   None
 344:Generated_Source\PSoC4/isr_1.c **** *
 345:Generated_Source\PSoC4/isr_1.c **** *******************************************************************************/
ARM GAS  C:\Users\jrdia\AppData\Local\Temp\ccjjVmhT.s 			page 8


 346:Generated_Source\PSoC4/isr_1.c **** void isr_1_Disable(void)
 347:Generated_Source\PSoC4/isr_1.c **** {
 348:Generated_Source\PSoC4/isr_1.c ****     /* Disable the general interrupt. */
 349:Generated_Source\PSoC4/isr_1.c ****     *isr_1_INTC_CLR_EN = isr_1__INTC_MASK;
  54              		.loc 1 349 0
  55 0000 8022     		movs	r2, #128
  56 0002 044B     		ldr	r3, .L3
  57 0004 5202     		lsls	r2, r2, #9
  58 0006 1A60     		str	r2, [r3]
  59              	.LVL0:
  60              	.LBE19:
  61              	.LBE18:
  62              	.LBB20:
  63              	.LBB21:
 201:Generated_Source\PSoC4/isr_1.c **** }
  64              		.loc 1 201 0
  65 0008 8023     		movs	r3, #128
  66 000a 0349     		ldr	r1, .L3+4
  67 000c 034A     		ldr	r2, .L3+8
  68              	.LBE21:
  69              	.LBE20:
 136:Generated_Source\PSoC4/isr_1.c **** 
  70              		.loc 1 136 0
  71              		@ sp needed
  72              	.LBB23:
  73              	.LBB22:
 201:Generated_Source\PSoC4/isr_1.c **** }
  74              		.loc 1 201 0
  75 000e D150     		str	r1, [r2, r3]
  76              	.LVL1:
  77              	.LBE22:
  78              	.LBE23:
 136:Generated_Source\PSoC4/isr_1.c **** 
  79              		.loc 1 136 0
  80 0010 7047     		bx	lr
  81              	.L4:
  82 0012 C046     		.align	2
  83              	.L3:
  84 0014 80E100E0 		.word	-536813184
  85 0018 00000000 		.word	IntDefaultHandler
  86 001c 00000000 		.word	CyRamVectors
  87              		.cfi_endproc
  88              	.LFE2:
  89              		.size	isr_1_Stop, .-isr_1_Stop
  90              		.section	.text.isr_1_SetVector,"ax",%progbits
  91              		.align	2
  92              		.global	isr_1_SetVector
  93              		.code	16
  94              		.thumb_func
  95              		.type	isr_1_SetVector, %function
  96              	isr_1_SetVector:
  97              	.LFB4:
 200:Generated_Source\PSoC4/isr_1.c ****     CyRamVectors[CYINT_IRQ_BASE + isr_1__INTC_NUMBER] = address;
  98              		.loc 1 200 0
  99              		.cfi_startproc
 100              		@ args = 0, pretend = 0, frame = 0
 101              		@ frame_needed = 0, uses_anonymous_args = 0
ARM GAS  C:\Users\jrdia\AppData\Local\Temp\ccjjVmhT.s 			page 9


 102              		@ link register save eliminated.
 103              	.LVL2:
 201:Generated_Source\PSoC4/isr_1.c **** }
 104              		.loc 1 201 0
 105 0000 8023     		movs	r3, #128
 106 0002 014A     		ldr	r2, .L6
 202:Generated_Source\PSoC4/isr_1.c **** 
 107              		.loc 1 202 0
 108              		@ sp needed
 201:Generated_Source\PSoC4/isr_1.c **** }
 109              		.loc 1 201 0
 110 0004 D050     		str	r0, [r2, r3]
 202:Generated_Source\PSoC4/isr_1.c **** 
 111              		.loc 1 202 0
 112 0006 7047     		bx	lr
 113              	.L7:
 114              		.align	2
 115              	.L6:
 116 0008 00000000 		.word	CyRamVectors
 117              		.cfi_endproc
 118              	.LFE4:
 119              		.size	isr_1_SetVector, .-isr_1_SetVector
 120              		.section	.text.isr_1_GetVector,"ax",%progbits
 121              		.align	2
 122              		.global	isr_1_GetVector
 123              		.code	16
 124              		.thumb_func
 125              		.type	isr_1_GetVector, %function
 126              	isr_1_GetVector:
 127              	.LFB5:
 220:Generated_Source\PSoC4/isr_1.c ****     return CyRamVectors[CYINT_IRQ_BASE + isr_1__INTC_NUMBER];
 128              		.loc 1 220 0
 129              		.cfi_startproc
 130              		@ args = 0, pretend = 0, frame = 0
 131              		@ frame_needed = 0, uses_anonymous_args = 0
 132              		@ link register save eliminated.
 221:Generated_Source\PSoC4/isr_1.c **** }
 133              		.loc 1 221 0
 134 0000 8023     		movs	r3, #128
 135 0002 014A     		ldr	r2, .L9
 222:Generated_Source\PSoC4/isr_1.c **** 
 136              		.loc 1 222 0
 137              		@ sp needed
 221:Generated_Source\PSoC4/isr_1.c **** }
 138              		.loc 1 221 0
 139 0004 D058     		ldr	r0, [r2, r3]
 222:Generated_Source\PSoC4/isr_1.c **** 
 140              		.loc 1 222 0
 141 0006 7047     		bx	lr
 142              	.L10:
 143              		.align	2
 144              	.L9:
 145 0008 00000000 		.word	CyRamVectors
 146              		.cfi_endproc
 147              	.LFE5:
 148              		.size	isr_1_GetVector, .-isr_1_GetVector
 149              		.section	.text.isr_1_SetPriority,"ax",%progbits
ARM GAS  C:\Users\jrdia\AppData\Local\Temp\ccjjVmhT.s 			page 10


 150              		.align	2
 151              		.global	isr_1_SetPriority
 152              		.code	16
 153              		.thumb_func
 154              		.type	isr_1_SetPriority, %function
 155              	isr_1_SetPriority:
 156              	.LFB6:
 250:Generated_Source\PSoC4/isr_1.c **** 	uint8 interruptState;
 157              		.loc 1 250 0
 158              		.cfi_startproc
 159              		@ args = 0, pretend = 0, frame = 0
 160              		@ frame_needed = 0, uses_anonymous_args = 0
 161              	.LVL3:
 162 0000 10B5     		push	{r4, lr}
 163              		.cfi_def_cfa_offset 8
 164              		.cfi_offset 4, -8
 165              		.cfi_offset 14, -4
 250:Generated_Source\PSoC4/isr_1.c **** 	uint8 interruptState;
 166              		.loc 1 250 0
 167 0002 0400     		movs	r4, r0
 254:Generated_Source\PSoC4/isr_1.c ****     *isr_1_INTC_PRIOR = (*isr_1_INTC_PRIOR & (uint32)(~isr_1__INTC_PRIOR_MASK)) |
 168              		.loc 1 254 0
 169 0004 FFF7FEFF 		bl	CyEnterCriticalSection
 170              	.LVL4:
 255:Generated_Source\PSoC4/isr_1.c ****                                     ((uint32)priority << priorityOffset);
 171              		.loc 1 255 0
 172 0008 C021     		movs	r1, #192
 173 000a 044A     		ldr	r2, .L12
 174 000c A401     		lsls	r4, r4, #6
 175 000e 1368     		ldr	r3, [r2]
 258:Generated_Source\PSoC4/isr_1.c **** 
 176              		.loc 1 258 0
 177              		@ sp needed
 255:Generated_Source\PSoC4/isr_1.c ****                                     ((uint32)priority << priorityOffset);
 178              		.loc 1 255 0
 179 0010 8B43     		bics	r3, r1
 180 0012 1C43     		orrs	r4, r3
 181 0014 1460     		str	r4, [r2]
 257:Generated_Source\PSoC4/isr_1.c **** }
 182              		.loc 1 257 0
 183 0016 FFF7FEFF 		bl	CyExitCriticalSection
 184              	.LVL5:
 258:Generated_Source\PSoC4/isr_1.c **** 
 185              		.loc 1 258 0
 186 001a 10BD     		pop	{r4, pc}
 187              	.L13:
 188              		.align	2
 189              	.L12:
 190 001c 10E400E0 		.word	-536812528
 191              		.cfi_endproc
 192              	.LFE6:
 193              		.size	isr_1_SetPriority, .-isr_1_SetPriority
 194              		.section	.text.isr_1_Start,"ax",%progbits
 195              		.align	2
 196              		.global	isr_1_Start
 197              		.code	16
 198              		.thumb_func
ARM GAS  C:\Users\jrdia\AppData\Local\Temp\ccjjVmhT.s 			page 11


 199              		.type	isr_1_Start, %function
 200              	isr_1_Start:
 201              	.LFB0:
  57:Generated_Source\PSoC4/isr_1.c ****     /* For all we know the interrupt is active. */
 202              		.loc 1 57 0
 203              		.cfi_startproc
 204              		@ args = 0, pretend = 0, frame = 0
 205              		@ frame_needed = 0, uses_anonymous_args = 0
 206 0000 10B5     		push	{r4, lr}
 207              		.cfi_def_cfa_offset 8
 208              		.cfi_offset 4, -8
 209              		.cfi_offset 14, -4
 210              	.LBB24:
 211              	.LBB25:
 212              		.loc 1 349 0
 213 0002 8024     		movs	r4, #128
 214 0004 064B     		ldr	r3, .L15
 215 0006 6402     		lsls	r4, r4, #9
 216 0008 1C60     		str	r4, [r3]
 217              	.LVL6:
 218              	.LBE25:
 219              	.LBE24:
 220              	.LBB26:
 221              	.LBB27:
 201:Generated_Source\PSoC4/isr_1.c **** }
 222              		.loc 1 201 0
 223 000a 8023     		movs	r3, #128
 224 000c 0549     		ldr	r1, .L15+4
 225 000e 064A     		ldr	r2, .L15+8
 226              	.LBE27:
 227              	.LBE26:
  65:Generated_Source\PSoC4/isr_1.c **** 
 228              		.loc 1 65 0
 229 0010 0320     		movs	r0, #3
 230              	.LBB29:
 231              	.LBB28:
 201:Generated_Source\PSoC4/isr_1.c **** }
 232              		.loc 1 201 0
 233 0012 D150     		str	r1, [r2, r3]
 234              	.LVL7:
 235              	.LBE28:
 236              	.LBE29:
  65:Generated_Source\PSoC4/isr_1.c **** 
 237              		.loc 1 65 0
 238 0014 FFF7FEFF 		bl	isr_1_SetPriority
 239              	.LVL8:
 240              	.LBB30:
 241              	.LBB31:
 307:Generated_Source\PSoC4/isr_1.c **** }
 242              		.loc 1 307 0
 243 0018 044B     		ldr	r3, .L15+12
 244              	.LBE31:
 245              	.LBE30:
  69:Generated_Source\PSoC4/isr_1.c **** 
 246              		.loc 1 69 0
 247              		@ sp needed
 248              	.LBB33:
ARM GAS  C:\Users\jrdia\AppData\Local\Temp\ccjjVmhT.s 			page 12


 249              	.LBB32:
 307:Generated_Source\PSoC4/isr_1.c **** }
 250              		.loc 1 307 0
 251 001a 1C60     		str	r4, [r3]
 252              	.LBE32:
 253              	.LBE33:
  69:Generated_Source\PSoC4/isr_1.c **** 
 254              		.loc 1 69 0
 255 001c 10BD     		pop	{r4, pc}
 256              	.L16:
 257 001e C046     		.align	2
 258              	.L15:
 259 0020 80E100E0 		.word	-536813184
 260 0024 00000000 		.word	isr_1_Interrupt
 261 0028 00000000 		.word	CyRamVectors
 262 002c 00E100E0 		.word	-536813312
 263              		.cfi_endproc
 264              	.LFE0:
 265              		.size	isr_1_Start, .-isr_1_Start
 266              		.section	.text.isr_1_StartEx,"ax",%progbits
 267              		.align	2
 268              		.global	isr_1_StartEx
 269              		.code	16
 270              		.thumb_func
 271              		.type	isr_1_StartEx, %function
 272              	isr_1_StartEx:
 273              	.LFB1:
 100:Generated_Source\PSoC4/isr_1.c ****     /* For all we know the interrupt is active. */
 274              		.loc 1 100 0
 275              		.cfi_startproc
 276              		@ args = 0, pretend = 0, frame = 0
 277              		@ frame_needed = 0, uses_anonymous_args = 0
 278              	.LVL9:
 279 0000 10B5     		push	{r4, lr}
 280              		.cfi_def_cfa_offset 8
 281              		.cfi_offset 4, -8
 282              		.cfi_offset 14, -4
 283              	.LBB34:
 284              	.LBB35:
 285              		.loc 1 349 0
 286 0002 8024     		movs	r4, #128
 287 0004 054B     		ldr	r3, .L18
 288 0006 6402     		lsls	r4, r4, #9
 289 0008 1C60     		str	r4, [r3]
 290              	.LVL10:
 291              	.LBE35:
 292              	.LBE34:
 293              	.LBB36:
 294              	.LBB37:
 201:Generated_Source\PSoC4/isr_1.c **** }
 295              		.loc 1 201 0
 296 000a 8023     		movs	r3, #128
 297 000c 044A     		ldr	r2, .L18+4
 298              	.LBE37:
 299              	.LBE36:
 112:Generated_Source\PSoC4/isr_1.c **** 
 300              		.loc 1 112 0
ARM GAS  C:\Users\jrdia\AppData\Local\Temp\ccjjVmhT.s 			page 13


 301              		@ sp needed
 302              	.LBB39:
 303              	.LBB38:
 201:Generated_Source\PSoC4/isr_1.c **** }
 304              		.loc 1 201 0
 305 000e D050     		str	r0, [r2, r3]
 306              	.LVL11:
 307              	.LBE38:
 308              	.LBE39:
 108:Generated_Source\PSoC4/isr_1.c **** 
 309              		.loc 1 108 0
 310 0010 0320     		movs	r0, #3
 311              	.LVL12:
 312 0012 FFF7FEFF 		bl	isr_1_SetPriority
 313              	.LVL13:
 314              	.LBB40:
 315              	.LBB41:
 307:Generated_Source\PSoC4/isr_1.c **** }
 316              		.loc 1 307 0
 317 0016 034B     		ldr	r3, .L18+8
 318 0018 1C60     		str	r4, [r3]
 319              	.LBE41:
 320              	.LBE40:
 112:Generated_Source\PSoC4/isr_1.c **** 
 321              		.loc 1 112 0
 322 001a 10BD     		pop	{r4, pc}
 323              	.L19:
 324              		.align	2
 325              	.L18:
 326 001c 80E100E0 		.word	-536813184
 327 0020 00000000 		.word	CyRamVectors
 328 0024 00E100E0 		.word	-536813312
 329              		.cfi_endproc
 330              	.LFE1:
 331              		.size	isr_1_StartEx, .-isr_1_StartEx
 332              		.section	.text.isr_1_GetPriority,"ax",%progbits
 333              		.align	2
 334              		.global	isr_1_GetPriority
 335              		.code	16
 336              		.thumb_func
 337              		.type	isr_1_GetPriority, %function
 338              	isr_1_GetPriority:
 339              	.LFB7:
 278:Generated_Source\PSoC4/isr_1.c ****     uint32 priority;
 340              		.loc 1 278 0
 341              		.cfi_startproc
 342              		@ args = 0, pretend = 0, frame = 0
 343              		@ frame_needed = 0, uses_anonymous_args = 0
 344              		@ link register save eliminated.
 345              	.LVL14:
 282:Generated_Source\PSoC4/isr_1.c **** 
 346              		.loc 1 282 0
 347 0000 024B     		ldr	r3, .L21
 285:Generated_Source\PSoC4/isr_1.c **** 
 348              		.loc 1 285 0
 349              		@ sp needed
 282:Generated_Source\PSoC4/isr_1.c **** 
ARM GAS  C:\Users\jrdia\AppData\Local\Temp\ccjjVmhT.s 			page 14


 350              		.loc 1 282 0
 351 0002 1868     		ldr	r0, [r3]
 352              	.LVL15:
 284:Generated_Source\PSoC4/isr_1.c **** }
 353              		.loc 1 284 0
 354 0004 0006     		lsls	r0, r0, #24
 355              	.LVL16:
 356 0006 800F     		lsrs	r0, r0, #30
 285:Generated_Source\PSoC4/isr_1.c **** 
 357              		.loc 1 285 0
 358 0008 7047     		bx	lr
 359              	.L22:
 360 000a C046     		.align	2
 361              	.L21:
 362 000c 10E400E0 		.word	-536812528
 363              		.cfi_endproc
 364              	.LFE7:
 365              		.size	isr_1_GetPriority, .-isr_1_GetPriority
 366              		.section	.text.isr_1_Enable,"ax",%progbits
 367              		.align	2
 368              		.global	isr_1_Enable
 369              		.code	16
 370              		.thumb_func
 371              		.type	isr_1_Enable, %function
 372              	isr_1_Enable:
 373              	.LFB8:
 305:Generated_Source\PSoC4/isr_1.c ****     /* Enable the general interrupt. */
 374              		.loc 1 305 0
 375              		.cfi_startproc
 376              		@ args = 0, pretend = 0, frame = 0
 377              		@ frame_needed = 0, uses_anonymous_args = 0
 378              		@ link register save eliminated.
 307:Generated_Source\PSoC4/isr_1.c **** }
 379              		.loc 1 307 0
 380 0000 8022     		movs	r2, #128
 381 0002 024B     		ldr	r3, .L24
 382 0004 5202     		lsls	r2, r2, #9
 383 0006 1A60     		str	r2, [r3]
 308:Generated_Source\PSoC4/isr_1.c **** 
 384              		.loc 1 308 0
 385              		@ sp needed
 386 0008 7047     		bx	lr
 387              	.L25:
 388 000a C046     		.align	2
 389              	.L24:
 390 000c 00E100E0 		.word	-536813312
 391              		.cfi_endproc
 392              	.LFE8:
 393              		.size	isr_1_Enable, .-isr_1_Enable
 394              		.section	.text.isr_1_GetState,"ax",%progbits
 395              		.align	2
 396              		.global	isr_1_GetState
 397              		.code	16
 398              		.thumb_func
 399              		.type	isr_1_GetState, %function
 400              	isr_1_GetState:
 401              	.LFB9:
ARM GAS  C:\Users\jrdia\AppData\Local\Temp\ccjjVmhT.s 			page 15


 326:Generated_Source\PSoC4/isr_1.c ****     /* Get the state of the general interrupt. */
 402              		.loc 1 326 0
 403              		.cfi_startproc
 404              		@ args = 0, pretend = 0, frame = 0
 405              		@ frame_needed = 0, uses_anonymous_args = 0
 406              		@ link register save eliminated.
 328:Generated_Source\PSoC4/isr_1.c **** }
 407              		.loc 1 328 0
 408 0000 024B     		ldr	r3, .L27
 329:Generated_Source\PSoC4/isr_1.c **** 
 409              		.loc 1 329 0
 410              		@ sp needed
 328:Generated_Source\PSoC4/isr_1.c **** }
 411              		.loc 1 328 0
 412 0002 1868     		ldr	r0, [r3]
 413 0004 C003     		lsls	r0, r0, #15
 414 0006 C00F     		lsrs	r0, r0, #31
 329:Generated_Source\PSoC4/isr_1.c **** 
 415              		.loc 1 329 0
 416 0008 7047     		bx	lr
 417              	.L28:
 418 000a C046     		.align	2
 419              	.L27:
 420 000c 00E100E0 		.word	-536813312
 421              		.cfi_endproc
 422              	.LFE9:
 423              		.size	isr_1_GetState, .-isr_1_GetState
 424              		.section	.text.isr_1_Disable,"ax",%progbits
 425              		.align	2
 426              		.global	isr_1_Disable
 427              		.code	16
 428              		.thumb_func
 429              		.type	isr_1_Disable, %function
 430              	isr_1_Disable:
 431              	.LFB10:
 347:Generated_Source\PSoC4/isr_1.c ****     /* Disable the general interrupt. */
 432              		.loc 1 347 0
 433              		.cfi_startproc
 434              		@ args = 0, pretend = 0, frame = 0
 435              		@ frame_needed = 0, uses_anonymous_args = 0
 436              		@ link register save eliminated.
 437              		.loc 1 349 0
 438 0000 8022     		movs	r2, #128
 439 0002 024B     		ldr	r3, .L30
 440 0004 5202     		lsls	r2, r2, #9
 441 0006 1A60     		str	r2, [r3]
 350:Generated_Source\PSoC4/isr_1.c **** }
 442              		.loc 1 350 0
 443              		@ sp needed
 444 0008 7047     		bx	lr
 445              	.L31:
 446 000a C046     		.align	2
 447              	.L30:
 448 000c 80E100E0 		.word	-536813184
 449              		.cfi_endproc
 450              	.LFE10:
 451              		.size	isr_1_Disable, .-isr_1_Disable
ARM GAS  C:\Users\jrdia\AppData\Local\Temp\ccjjVmhT.s 			page 16


 452              		.section	.text.isr_1_SetPending,"ax",%progbits
 453              		.align	2
 454              		.global	isr_1_SetPending
 455              		.code	16
 456              		.thumb_func
 457              		.type	isr_1_SetPending, %function
 458              	isr_1_SetPending:
 459              	.LFB11:
 351:Generated_Source\PSoC4/isr_1.c **** 
 352:Generated_Source\PSoC4/isr_1.c **** 
 353:Generated_Source\PSoC4/isr_1.c **** /*******************************************************************************
 354:Generated_Source\PSoC4/isr_1.c **** * Function Name: isr_1_SetPending
 355:Generated_Source\PSoC4/isr_1.c **** ********************************************************************************
 356:Generated_Source\PSoC4/isr_1.c **** *
 357:Generated_Source\PSoC4/isr_1.c **** * Summary:
 358:Generated_Source\PSoC4/isr_1.c **** *   Causes the Interrupt to enter the pending state, a software method of
 359:Generated_Source\PSoC4/isr_1.c **** *   generating the interrupt.
 360:Generated_Source\PSoC4/isr_1.c **** *
 361:Generated_Source\PSoC4/isr_1.c **** * Parameters:
 362:Generated_Source\PSoC4/isr_1.c **** *   None
 363:Generated_Source\PSoC4/isr_1.c **** *
 364:Generated_Source\PSoC4/isr_1.c **** * Return:
 365:Generated_Source\PSoC4/isr_1.c **** *   None
 366:Generated_Source\PSoC4/isr_1.c **** *
 367:Generated_Source\PSoC4/isr_1.c **** * Side Effects:
 368:Generated_Source\PSoC4/isr_1.c **** *   If interrupts are enabled and the interrupt is set up properly, the ISR is
 369:Generated_Source\PSoC4/isr_1.c **** *   entered (depending on the priority of this interrupt and other pending 
 370:Generated_Source\PSoC4/isr_1.c **** *   interrupts).
 371:Generated_Source\PSoC4/isr_1.c **** *
 372:Generated_Source\PSoC4/isr_1.c **** *******************************************************************************/
 373:Generated_Source\PSoC4/isr_1.c **** void isr_1_SetPending(void)
 374:Generated_Source\PSoC4/isr_1.c **** {
 460              		.loc 1 374 0
 461              		.cfi_startproc
 462              		@ args = 0, pretend = 0, frame = 0
 463              		@ frame_needed = 0, uses_anonymous_args = 0
 464              		@ link register save eliminated.
 375:Generated_Source\PSoC4/isr_1.c ****     *isr_1_INTC_SET_PD = isr_1__INTC_MASK;
 465              		.loc 1 375 0
 466 0000 8022     		movs	r2, #128
 467 0002 024B     		ldr	r3, .L33
 468 0004 5202     		lsls	r2, r2, #9
 469 0006 1A60     		str	r2, [r3]
 376:Generated_Source\PSoC4/isr_1.c **** }
 470              		.loc 1 376 0
 471              		@ sp needed
 472 0008 7047     		bx	lr
 473              	.L34:
 474 000a C046     		.align	2
 475              	.L33:
 476 000c 00E200E0 		.word	-536813056
 477              		.cfi_endproc
 478              	.LFE11:
 479              		.size	isr_1_SetPending, .-isr_1_SetPending
 480              		.section	.text.isr_1_ClearPending,"ax",%progbits
 481              		.align	2
 482              		.global	isr_1_ClearPending
ARM GAS  C:\Users\jrdia\AppData\Local\Temp\ccjjVmhT.s 			page 17


 483              		.code	16
 484              		.thumb_func
 485              		.type	isr_1_ClearPending, %function
 486              	isr_1_ClearPending:
 487              	.LFB12:
 377:Generated_Source\PSoC4/isr_1.c **** 
 378:Generated_Source\PSoC4/isr_1.c **** 
 379:Generated_Source\PSoC4/isr_1.c **** /*******************************************************************************
 380:Generated_Source\PSoC4/isr_1.c **** * Function Name: isr_1_ClearPending
 381:Generated_Source\PSoC4/isr_1.c **** ********************************************************************************
 382:Generated_Source\PSoC4/isr_1.c **** *
 383:Generated_Source\PSoC4/isr_1.c **** * Summary:
 384:Generated_Source\PSoC4/isr_1.c **** *   Clears a pending interrupt in the interrupt controller.
 385:Generated_Source\PSoC4/isr_1.c **** *
 386:Generated_Source\PSoC4/isr_1.c **** *   Note Some interrupt sources are clear-on-read and require the block 
 387:Generated_Source\PSoC4/isr_1.c **** *   interrupt/status register to be read/cleared with the appropriate block API 
 388:Generated_Source\PSoC4/isr_1.c **** *   (GPIO, UART, and so on). Otherwise the ISR will continue to remain in 
 389:Generated_Source\PSoC4/isr_1.c **** *   pending state even though the interrupt itself is cleared using this API.
 390:Generated_Source\PSoC4/isr_1.c **** *
 391:Generated_Source\PSoC4/isr_1.c **** * Parameters:
 392:Generated_Source\PSoC4/isr_1.c **** *   None
 393:Generated_Source\PSoC4/isr_1.c **** *
 394:Generated_Source\PSoC4/isr_1.c **** * Return:
 395:Generated_Source\PSoC4/isr_1.c **** *   None
 396:Generated_Source\PSoC4/isr_1.c **** *
 397:Generated_Source\PSoC4/isr_1.c **** *******************************************************************************/
 398:Generated_Source\PSoC4/isr_1.c **** void isr_1_ClearPending(void)
 399:Generated_Source\PSoC4/isr_1.c **** {
 488              		.loc 1 399 0
 489              		.cfi_startproc
 490              		@ args = 0, pretend = 0, frame = 0
 491              		@ frame_needed = 0, uses_anonymous_args = 0
 492              		@ link register save eliminated.
 400:Generated_Source\PSoC4/isr_1.c ****     *isr_1_INTC_CLR_PD = isr_1__INTC_MASK;
 493              		.loc 1 400 0
 494 0000 8022     		movs	r2, #128
 495 0002 024B     		ldr	r3, .L36
 496 0004 5202     		lsls	r2, r2, #9
 497 0006 1A60     		str	r2, [r3]
 401:Generated_Source\PSoC4/isr_1.c **** }
 498              		.loc 1 401 0
 499              		@ sp needed
 500 0008 7047     		bx	lr
 501              	.L37:
 502 000a C046     		.align	2
 503              	.L36:
 504 000c 80E200E0 		.word	-536812928
 505              		.cfi_endproc
 506              	.LFE12:
 507              		.size	isr_1_ClearPending, .-isr_1_ClearPending
 508              		.text
 509              	.Letext0:
 510              		.file 2 "Generated_Source\\PSoC4/cytypes.h"
 511              		.file 3 "Generated_Source\\PSoC4/CyLib.h"