ARM GAS  C:\Users\jrdia\AppData\Local\Temp\ccFTvYyK.s 			page 1


   1              		.syntax unified
   2              		.cpu cortex-m0
   3              		.fpu softvfp
   4              		.eabi_attribute 20, 1
   5              		.eabi_attribute 21, 1
   6              		.eabi_attribute 23, 3
   7              		.eabi_attribute 24, 1
   8              		.eabi_attribute 25, 1
   9              		.eabi_attribute 26, 1
  10              		.eabi_attribute 30, 2
  11              		.eabi_attribute 34, 0
  12              		.eabi_attribute 18, 4
  13              		.thumb
  14              		.syntax unified
  15              		.file	"main.c"
  16              		.text
  17              	.Ltext0:
  18              		.cfi_sections	.debug_frame
  19              		.section	.text._ZN5BTHID6onInitEv,"axG",%progbits,_ZN5BTHID6onInitEv,comdat
  20              		.align	2
  21              		.weak	_ZN5BTHID6onInitEv
  22              		.code	16
  23              		.thumb_func
  24              		.type	_ZN5BTHID6onInitEv, %function
  25              	_ZN5BTHID6onInitEv:
  26              		.fnstart
  27              	.LFB276:
  28              		.file 1 "./BTHID.h"
   1:./BTHID.h     **** /* Copyright (C) 2013 Kristian Lauszus, TKJ Electronics. All rights reserved.
   2:./BTHID.h     **** 
   3:./BTHID.h     ****  This software may be distributed and modified under the terms of the GNU
   4:./BTHID.h     ****  General Public License version 2 (GPL2) as published by the Free Software
   5:./BTHID.h     ****  Foundation and appearing in the file GPL2.TXT included in the packaging of
   6:./BTHID.h     ****  this file. Please note that GPL2 Section 2[b] requires that all works based
   7:./BTHID.h     ****  on this software must also be made publicly available under the terms of
   8:./BTHID.h     ****  the GPL2 ("Copyleft").
   9:./BTHID.h     **** 
  10:./BTHID.h     ****  Contact information
  11:./BTHID.h     ****  -------------------
  12:./BTHID.h     **** 
  13:./BTHID.h     ****  Kristian Lauszus, TKJ Electronics
  14:./BTHID.h     ****  Web      :  http://www.tkjelectronics.com
  15:./BTHID.h     ****  e-mail   :  kristianl@tkjelectronics.com
  16:./BTHID.h     ****  */
  17:./BTHID.h     **** 
  18:./BTHID.h     **** #ifndef _bthid_h_
  19:./BTHID.h     **** #define _bthid_h_
  20:./BTHID.h     **** 
  21:./BTHID.h     **** #include "BTD.h"
  22:./BTHID.h     **** #include "hidboot.h"
  23:./BTHID.h     **** 
  24:./BTHID.h     **** #define KEYBOARD_PARSER_ID      0
  25:./BTHID.h     **** #define MOUSE_PARSER_ID         1
  26:./BTHID.h     **** #define NUM_PARSERS             2
  27:./BTHID.h     **** 
  28:./BTHID.h     **** /** This BluetoothService class implements support for Bluetooth HID devices. */
  29:./BTHID.h     **** class BTHID : public BluetoothService {
ARM GAS  C:\Users\jrdia\AppData\Local\Temp\ccFTvYyK.s 			page 2


  30:./BTHID.h     **** public:
  31:./BTHID.h     ****         /**
  32:./BTHID.h     ****          * Constructor for the BTHID class.
  33:./BTHID.h     ****          * @param  p   Pointer to the BTD class instance.
  34:./BTHID.h     ****          * @param  pair   Set this to true in order to pair with the device. If the argument is omi
  35:./BTHID.h     ****          * @param  pin   Write the pin to BTD#btdPin. If argument is omitted, then "0000" will be u
  36:./BTHID.h     ****          */
  37:./BTHID.h     ****         BTHID(BTD *p, bool pair = false, const char *pin = "0000");
  38:./BTHID.h     **** 
  39:./BTHID.h     ****         /** @name BluetoothService implementation */
  40:./BTHID.h     ****         /** Used this to disconnect the devices. */
  41:./BTHID.h     ****         void disconnect();
  42:./BTHID.h     ****         /**@}*/
  43:./BTHID.h     **** 
  44:./BTHID.h     ****         /**
  45:./BTHID.h     ****          * Get HIDReportParser.
  46:./BTHID.h     ****          * @param  id ID of parser.
  47:./BTHID.h     ****          * @return    Returns the corresponding HIDReportParser. Returns NULL if id is not valid.
  48:./BTHID.h     ****          */
  49:./BTHID.h     ****         HIDReportParser *GetReportParser(uint8_t id) {
  50:./BTHID.h     ****                 if (id >= NUM_PARSERS)
  51:./BTHID.h     ****                         return NULL;
  52:./BTHID.h     ****                 return pRptParser[id];
  53:./BTHID.h     ****         };
  54:./BTHID.h     **** 
  55:./BTHID.h     ****         /**
  56:./BTHID.h     ****          * Set HIDReportParser to be used.
  57:./BTHID.h     ****          * @param  id  Id of parser.
  58:./BTHID.h     ****          * @param  prs Pointer to HIDReportParser.
  59:./BTHID.h     ****          * @return     Returns true if the HIDReportParser is set. False otherwise.
  60:./BTHID.h     ****          */
  61:./BTHID.h     ****         bool SetReportParser(uint8_t id, HIDReportParser *prs) {
  62:./BTHID.h     ****                 if (id >= NUM_PARSERS)
  63:./BTHID.h     ****                         return false;
  64:./BTHID.h     ****                 pRptParser[id] = prs;
  65:./BTHID.h     ****                 return true;
  66:./BTHID.h     ****         };
  67:./BTHID.h     **** 
  68:./BTHID.h     ****         /**
  69:./BTHID.h     ****          * Set HID protocol mode.
  70:./BTHID.h     ****          * @param mode HID protocol to use. Either USB_HID_BOOT_PROTOCOL or HID_RPT_PROTOCOL.
  71:./BTHID.h     ****          */
  72:./BTHID.h     ****         void setProtocolMode(uint8_t mode) {
  73:./BTHID.h     ****                 protocolMode = mode;
  74:./BTHID.h     ****         };
  75:./BTHID.h     **** 
  76:./BTHID.h     ****         /**@{*/
  77:./BTHID.h     ****         /**
  78:./BTHID.h     ****          * Used to set the leds on a keyboard.
  79:./BTHID.h     ****          * @param data See ::KBDLEDS in hidboot.h
  80:./BTHID.h     ****          */
  81:./BTHID.h     ****         void setLeds(struct KBDLEDS data) {
  82:./BTHID.h     ****                 setLeds(*((uint8_t*)&data));
  83:./BTHID.h     ****         };
  84:./BTHID.h     ****         void setLeds(uint8_t data);
  85:./BTHID.h     ****         /**@}*/
  86:./BTHID.h     **** 
ARM GAS  C:\Users\jrdia\AppData\Local\Temp\ccFTvYyK.s 			page 3


  87:./BTHID.h     ****         /** True if a device is connected */
  88:./BTHID.h     ****         bool connected;
  89:./BTHID.h     **** 
  90:./BTHID.h     ****         /** Call this to start the pairing sequence with a device */
  91:./BTHID.h     ****         void pair(void) {
  92:./BTHID.h     ****                 if(pBtd)
  93:./BTHID.h     ****                         pBtd->pairWithHID();
  94:./BTHID.h     ****         };
  95:./BTHID.h     **** 
  96:./BTHID.h     **** protected:
  97:./BTHID.h     ****         /** @name BluetoothService implementation */
  98:./BTHID.h     ****         /**
  99:./BTHID.h     ****          * Used to pass acldata to the services.
 100:./BTHID.h     ****          * @param ACLData Incoming acldata.
 101:./BTHID.h     ****          */
 102:./BTHID.h     ****         void ACLData(uint8_t* ACLData);
 103:./BTHID.h     ****         /** Used to run part of the state machine. */
 104:./BTHID.h     ****         void Run();
 105:./BTHID.h     ****         /** Use this to reset the service. */
 106:./BTHID.h     ****         void Reset();
 107:./BTHID.h     ****         /**
 108:./BTHID.h     ****          * Called when a device is successfully initialized.
 109:./BTHID.h     ****          * Use attachOnInit(void (*funcOnInit)(void)) to call your own function.
 110:./BTHID.h     ****          * This is useful for instance if you want to set the LEDs in a specific way.
 111:./BTHID.h     ****          */
 112:./BTHID.h     ****         void onInit() {
  29              		.loc 1 112 0
  30              		.cfi_startproc
  31              		@ args = 0, pretend = 0, frame = 0
  32              		@ frame_needed = 0, uses_anonymous_args = 0
  33              	.LVL0:
 113:./BTHID.h     ****                 if(pFuncOnInit)
  34              		.loc 1 113 0
  35 0000 4368     		ldr	r3, [r0, #4]
 112:./BTHID.h     ****                 if(pFuncOnInit)
  36              		.loc 1 112 0
  37 0002 10B5     		push	{r4, lr}
  38              		.save {r4, lr}
  39              		.cfi_def_cfa_offset 8
  40              		.cfi_offset 4, -8
  41              		.cfi_offset 14, -4
 112:./BTHID.h     ****                 if(pFuncOnInit)
  42              		.loc 1 112 0
  43 0004 0400     		movs	r4, r0
  44              		.loc 1 113 0
  45 0006 002B     		cmp	r3, #0
  46 0008 00D0     		beq	.L2
 114:./BTHID.h     ****                         pFuncOnInit(); // Call the user function
  47              		.loc 1 114 0
  48 000a 9847     		blx	r3
  49              	.LVL1:
  50              	.L2:
 115:./BTHID.h     ****                 OnInitBTHID();
  51              		.loc 1 115 0
  52 000c 2368     		ldr	r3, [r4]
  53 000e 2000     		movs	r0, r4
  54 0010 9B69     		ldr	r3, [r3, #24]
ARM GAS  C:\Users\jrdia\AppData\Local\Temp\ccFTvYyK.s 			page 4


  55 0012 9847     		blx	r3
  56              	.LVL2:
 116:./BTHID.h     ****         };
  57              		.loc 1 116 0
  58              		@ sp needed
  59              	.LVL3:
  60 0014 10BD     		pop	{r4, pc}
  61              		.cfi_endproc
  62              	.LFE276:
  63              		.fnend
  64              		.size	_ZN5BTHID6onInitEv, .-_ZN5BTHID6onInitEv
  65 0016 C046     		.section	.text._ZN5PS4BT10ResetBTHIDEv,"axG",%progbits,_ZN5PS4BT10ResetBTHIDEv,comdat
  66              		.align	2
  67              		.weak	_ZN5PS4BT10ResetBTHIDEv
  68              		.code	16
  69              		.thumb_func
  70              		.type	_ZN5PS4BT10ResetBTHIDEv, %function
  71              	_ZN5PS4BT10ResetBTHIDEv:
  72              		.fnstart
  73              	.LFB307:
  74              		.file 2 "./PS4BT.h"
   1:./PS4BT.h     **** /* Copyright (C) 2014 Kristian Lauszus, TKJ Electronics. All rights reserved.
   2:./PS4BT.h     **** 
   3:./PS4BT.h     ****  This software may be distributed and modified under the terms of the GNU
   4:./PS4BT.h     ****  General Public License version 2 (GPL2) as published by the Free Software
   5:./PS4BT.h     ****  Foundation and appearing in the file GPL2.TXT included in the packaging of
   6:./PS4BT.h     ****  this file. Please note that GPL2 Section 2[b] requires that all works based
   7:./PS4BT.h     ****  on this software must also be made publicly available under the terms of
   8:./PS4BT.h     ****  the GPL2 ("Copyleft").
   9:./PS4BT.h     **** 
  10:./PS4BT.h     ****  Contact information
  11:./PS4BT.h     ****  -------------------
  12:./PS4BT.h     **** 
  13:./PS4BT.h     ****  Kristian Lauszus, TKJ Electronics
  14:./PS4BT.h     ****  Web      :  http://www.tkjelectronics.com
  15:./PS4BT.h     ****  e-mail   :  kristianl@tkjelectronics.com
  16:./PS4BT.h     ****  */
  17:./PS4BT.h     **** 
  18:./PS4BT.h     **** #ifndef _ps4bt_h_
  19:./PS4BT.h     **** #define _ps4bt_h_
  20:./PS4BT.h     **** 
  21:./PS4BT.h     **** #include "BTHID.h"
  22:./PS4BT.h     **** #include "PS4Parser.h"
  23:./PS4BT.h     **** 
  24:./PS4BT.h     **** /**
  25:./PS4BT.h     ****  * This class implements support for the PS4 controller via Bluetooth.
  26:./PS4BT.h     ****  * It uses the BTHID class for all the Bluetooth communication.
  27:./PS4BT.h     ****  */
  28:./PS4BT.h     **** class PS4BT : public BTHID, public PS4Parser {
  29:./PS4BT.h     **** public:
  30:./PS4BT.h     ****         /**
  31:./PS4BT.h     ****          * Constructor for the PS4BT class.
  32:./PS4BT.h     ****          * @param  p     Pointer to the BTD class instance.
  33:./PS4BT.h     ****          * @param  pair  Set this to true in order to pair with the device. If the argument is omit
  34:./PS4BT.h     ****          * @param  pin   Write the pin to BTD#btdPin. If argument is omitted, then "0000" will be u
  35:./PS4BT.h     ****          */
  36:./PS4BT.h     ****         PS4BT(BTD *p, bool pair = false, const char *pin = "0000") :
ARM GAS  C:\Users\jrdia\AppData\Local\Temp\ccFTvYyK.s 			page 5


  37:./PS4BT.h     ****         BTHID(p, pair, pin) {
  38:./PS4BT.h     ****                 PS4Parser::Reset();
  39:./PS4BT.h     ****         };
  40:./PS4BT.h     **** 
  41:./PS4BT.h     ****         /**
  42:./PS4BT.h     ****          * Used to check if a PS4 controller is connected.
  43:./PS4BT.h     ****          * @return Returns true if it is connected.
  44:./PS4BT.h     ****          */
  45:./PS4BT.h     ****         bool connected() {
  46:./PS4BT.h     ****                 return BTHID::connected;
  47:./PS4BT.h     ****         };
  48:./PS4BT.h     **** 
  49:./PS4BT.h     **** protected:
  50:./PS4BT.h     ****         /** @name BTHID implementation */
  51:./PS4BT.h     ****         /**
  52:./PS4BT.h     ****          * Used to parse Bluetooth HID data.
  53:./PS4BT.h     ****          * @param len The length of the incoming data.
  54:./PS4BT.h     ****          * @param buf Pointer to the data buffer.
  55:./PS4BT.h     ****          */
  56:./PS4BT.h     ****         virtual void ParseBTHIDData(uint8_t len, uint8_t *buf) {
  57:./PS4BT.h     ****                 PS4Parser::Parse(len, buf);
  58:./PS4BT.h     ****         };
  59:./PS4BT.h     **** 
  60:./PS4BT.h     ****         /**
  61:./PS4BT.h     ****          * Called when a device is successfully initialized.
  62:./PS4BT.h     ****          * Use attachOnInit(void (*funcOnInit)(void)) to call your own function.
  63:./PS4BT.h     ****          * This is useful for instance if you want to set the LEDs in a specific way.
  64:./PS4BT.h     ****          */
  65:./PS4BT.h     ****         virtual void OnInitBTHID() {
  66:./PS4BT.h     ****                 PS4Parser::Reset();
  67:./PS4BT.h     ****                 enable_sixaxis(); // Make the controller send out the entire output report
  68:./PS4BT.h     ****                 if (pFuncOnInit)
  69:./PS4BT.h     ****                         pFuncOnInit(); // Call the user function
  70:./PS4BT.h     ****                 else
  71:./PS4BT.h     ****                         setLed(Blue);
  72:./PS4BT.h     ****         };
  73:./PS4BT.h     **** 
  74:./PS4BT.h     ****         /** Used to reset the different buffers to there default values */
  75:./PS4BT.h     ****         virtual void ResetBTHID() {
  75              		.loc 2 75 0
  76              		.cfi_startproc
  77              		@ args = 0, pretend = 0, frame = 0
  78              		@ frame_needed = 0, uses_anonymous_args = 0
  79              	.LVL4:
  80 0000 10B5     		push	{r4, lr}
  81              		.save {r4, lr}
  82              		.cfi_def_cfa_offset 8
  83              		.cfi_offset 4, -8
  84              		.cfi_offset 14, -4
  76:./PS4BT.h     ****                 PS4Parser::Reset();
  85              		.loc 2 76 0
  86 0002 2C30     		adds	r0, r0, #44
  87              	.LVL5:
  88 0004 FFF7FEFF 		bl	_ZN9PS4Parser5ResetEv
  89              	.LVL6:
  77:./PS4BT.h     ****         };
  90              		.loc 2 77 0
ARM GAS  C:\Users\jrdia\AppData\Local\Temp\ccFTvYyK.s 			page 6


  91              		@ sp needed
  92 0008 10BD     		pop	{r4, pc}
  93              		.cfi_endproc
  94              	.LFE307:
  95              		.fnend
  96              		.size	_ZN5PS4BT10ResetBTHIDEv, .-_ZN5PS4BT10ResetBTHIDEv
  97 000a C046     		.section	.text._ZN5PS4BT16sendOutputReportEP9PS4Output,"axG",%progbits,_ZN5PS4BT16sendOutputReport
  98              		.align	2
  99              		.weak	_ZN5PS4BT16sendOutputReportEP9PS4Output
 100              		.code	16
 101              		.thumb_func
 102              		.type	_ZN5PS4BT16sendOutputReportEP9PS4Output, %function
 103              	_ZN5PS4BT16sendOutputReportEP9PS4Output:
 104              		.fnstart
 105              	.LFB308:
  78:./PS4BT.h     ****         /**@}*/
  79:./PS4BT.h     **** 
  80:./PS4BT.h     ****         /** @name PS4Parser implementation */
  81:./PS4BT.h     ****         virtual void sendOutputReport(PS4Output *output) { // Source: https://github.com/chrippa/ds
 106              		.loc 2 81 0
 107              		.cfi_startproc
 108              		@ args = 0, pretend = 0, frame = 80
 109              		@ frame_needed = 0, uses_anonymous_args = 0
 110              	.LVL7:
 111 0000 70B5     		push	{r4, r5, r6, lr}
 112              		.save {r4, r5, r6, lr}
 113              		.cfi_def_cfa_offset 16
 114              		.cfi_offset 4, -16
 115              		.cfi_offset 5, -12
 116              		.cfi_offset 6, -8
 117              		.cfi_offset 14, -4
 118              		.pad #88
 119 0002 96B0     		sub	sp, sp, #88
 120              		.cfi_def_cfa_offset 104
  82:./PS4BT.h     ****                 uint8_t buf[79];
  83:./PS4BT.h     ****                 memset(buf, 0, sizeof(buf));
 121              		.loc 2 83 0
 122 0004 02AC     		add	r4, sp, #8
  81:./PS4BT.h     ****                 uint8_t buf[79];
 123              		.loc 2 81 0
 124 0006 0D00     		movs	r5, r1
 125 0008 0600     		movs	r6, r0
 126              		.loc 2 83 0
 127 000a 4F22     		movs	r2, #79
 128 000c 0021     		movs	r1, #0
 129              	.LVL8:
 130 000e 2000     		movs	r0, r4
 131              	.LVL9:
 132 0010 FFF7FEFF 		bl	memset
 133              	.LVL10:
  84:./PS4BT.h     **** 
  85:./PS4BT.h     ****                 buf[0] = 0x52; // HID BT Set_report (0x50) | Report Type (Output 0x02)
 134              		.loc 2 85 0
 135 0014 5223     		movs	r3, #82
 136 0016 2370     		strb	r3, [r4]
  86:./PS4BT.h     ****                 buf[1] = 0x11; // Report ID
 137              		.loc 2 86 0
ARM GAS  C:\Users\jrdia\AppData\Local\Temp\ccFTvYyK.s 			page 7


 138 0018 413B     		subs	r3, r3, #65
 139 001a 6370     		strb	r3, [r4, #1]
  87:./PS4BT.h     ****                 buf[2] = 0x80;
 140              		.loc 2 87 0
 141 001c 6F33     		adds	r3, r3, #111
 142 001e A370     		strb	r3, [r4, #2]
  88:./PS4BT.h     ****                 buf[4]= 0xFF;
 143              		.loc 2 88 0
 144 0020 7F33     		adds	r3, r3, #127
 145 0022 2371     		strb	r3, [r4, #4]
  89:./PS4BT.h     **** 
  90:./PS4BT.h     ****                 buf[7] = output->smallRumble; // Small Rumble
 146              		.loc 2 90 0
 147 0024 6B78     		ldrb	r3, [r5, #1]
 148              	.LBB101:
 149              	.LBB102:
  91:./PS4BT.h     ****                 buf[8] = output->bigRumble; // Big rumble
  92:./PS4BT.h     **** 
  93:./PS4BT.h     ****                 buf[9] = output->r; // Red
  94:./PS4BT.h     ****                 buf[10] = output->g; // Green
  95:./PS4BT.h     ****                 buf[11] = output->b; // Blue
  96:./PS4BT.h     **** 
  97:./PS4BT.h     ****                 buf[12] = output->flashOn; // Time to flash bright (255 = 2.5 seconds)
  98:./PS4BT.h     ****                 buf[13] = output->flashOff; // Time to flash dark (255 = 2.5 seconds)
  99:./PS4BT.h     **** 
 100:./PS4BT.h     ****                 output->reportChanged = false;
 101:./PS4BT.h     **** 
 102:./PS4BT.h     ****                 // The PS4 console actually set the four last bytes to a CRC32 checksum, but it see
 103:./PS4BT.h     **** 
 104:./PS4BT.h     ****                 HID_Command(buf, sizeof(buf));
 105:./PS4BT.h     ****         };
 106:./PS4BT.h     ****         /**@}*/
 107:./PS4BT.h     **** 
 108:./PS4BT.h     **** private:
 109:./PS4BT.h     ****         void enable_sixaxis() { // Command used to make the PS4 controller send out the entire outp
 110:./PS4BT.h     ****                 uint8_t buf[2];
 111:./PS4BT.h     ****                 buf[0] = 0x43; // HID BT Get_report (0x40) | Report Type (Feature 0x03)
 112:./PS4BT.h     ****                 buf[1] = 0x02; // Report ID
 113:./PS4BT.h     **** 
 114:./PS4BT.h     ****                 HID_Command(buf, 2);
 115:./PS4BT.h     ****         };
 116:./PS4BT.h     **** 
 117:./PS4BT.h     ****         void HID_Command(uint8_t *data, uint8_t nbytes) {
 118:./PS4BT.h     ****                 pBtd->L2CAP_Command(hci_handle, data, nbytes, control_scid[0], control_scid[1]);
 150              		.loc 2 118 0
 151 0026 B189     		ldrh	r1, [r6, #12]
 152              	.LBE102:
 153              	.LBE101:
  90:./PS4BT.h     ****                 buf[8] = output->bigRumble; // Big rumble
 154              		.loc 2 90 0
 155 0028 E371     		strb	r3, [r4, #7]
  91:./PS4BT.h     ****                 buf[8] = output->bigRumble; // Big rumble
 156              		.loc 2 91 0
 157 002a 2B78     		ldrb	r3, [r5]
 158              	.LBB106:
 159              	.LBB103:
 160              		.loc 2 118 0
ARM GAS  C:\Users\jrdia\AppData\Local\Temp\ccFTvYyK.s 			page 8


 161 002c B068     		ldr	r0, [r6, #8]
 162              	.LBE103:
 163              	.LBE106:
  91:./PS4BT.h     ****                 buf[8] = output->bigRumble; // Big rumble
 164              		.loc 2 91 0
 165 002e 2372     		strb	r3, [r4, #8]
  93:./PS4BT.h     ****                 buf[10] = output->g; // Green
 166              		.loc 2 93 0
 167 0030 AB78     		ldrb	r3, [r5, #2]
 168              	.LBB107:
 169              	.LBB104:
 170              		.loc 2 118 0
 171 0032 2200     		movs	r2, r4
 172              	.LBE104:
 173              	.LBE107:
  93:./PS4BT.h     ****                 buf[10] = output->g; // Green
 174              		.loc 2 93 0
 175 0034 6372     		strb	r3, [r4, #9]
  94:./PS4BT.h     ****                 buf[11] = output->b; // Blue
 176              		.loc 2 94 0
 177 0036 EB78     		ldrb	r3, [r5, #3]
 178 0038 A372     		strb	r3, [r4, #10]
  95:./PS4BT.h     **** 
 179              		.loc 2 95 0
 180 003a 2B79     		ldrb	r3, [r5, #4]
 181 003c E372     		strb	r3, [r4, #11]
  97:./PS4BT.h     ****                 buf[13] = output->flashOff; // Time to flash dark (255 = 2.5 seconds)
 182              		.loc 2 97 0
 183 003e 6B79     		ldrb	r3, [r5, #5]
 184 0040 2373     		strb	r3, [r4, #12]
  98:./PS4BT.h     **** 
 185              		.loc 2 98 0
 186 0042 AB79     		ldrb	r3, [r5, #6]
 187 0044 6373     		strb	r3, [r4, #13]
 100:./PS4BT.h     **** 
 188              		.loc 2 100 0
 189 0046 0023     		movs	r3, #0
 190 0048 EB71     		strb	r3, [r5, #7]
 191              	.LVL11:
 192              	.LBB108:
 193              	.LBB105:
 194              		.loc 2 118 0
 195 004a F37D     		ldrb	r3, [r6, #23]
 196 004c 0193     		str	r3, [sp, #4]
 197 004e B37D     		ldrb	r3, [r6, #22]
 198 0050 0093     		str	r3, [sp]
 199 0052 4F23     		movs	r3, #79
 200 0054 FFF7FEFF 		bl	_ZN3BTD13L2CAP_CommandEtPhhhh
 201              	.LVL12:
 202              	.LBE105:
 203              	.LBE108:
 105:./PS4BT.h     ****         /**@}*/
 204              		.loc 2 105 0
 205 0058 16B0     		add	sp, sp, #88
 206              		@ sp needed
 207              	.LVL13:
 208              	.LVL14:
ARM GAS  C:\Users\jrdia\AppData\Local\Temp\ccFTvYyK.s 			page 9


 209 005a 70BD     		pop	{r4, r5, r6, pc}
 210              		.cfi_endproc
 211              	.LFE308:
 212              		.fnend
 213              		.size	_ZN5PS4BT16sendOutputReportEP9PS4Output, .-_ZN5PS4BT16sendOutputReportEP9PS4Output
 214              		.thumb_set .LTHUNK0,_ZN5PS4BT16sendOutputReportEP9PS4Output
 215              		.align	2
 216              		.weak	_ZThn44_N5PS4BT16sendOutputReportEP9PS4Output
 217              		.code	16
 218              		.thumb_func
 219              		.type	_ZThn44_N5PS4BT16sendOutputReportEP9PS4Output, %function
 220              	_ZThn44_N5PS4BT16sendOutputReportEP9PS4Output:
 221              		.fnstart
 222              	.LFB343:
  81:./PS4BT.h     ****                 uint8_t buf[79];
 223              		.loc 2 81 0
 224              		.cfi_startproc
 225              		@ args = 0, pretend = 0, frame = 0
 226              		@ frame_needed = 0, uses_anonymous_args = 0
 227 005c 08B4     		push {r3}
 228 005e 024B     		ldr	r3, .LTHUMBFUNC0
 229 0060 9C46     		mov r12, r3
 230 0062 2C38     		subs	r0, r0, #44
 231 0064 08BC     		pop	{r3}
 232 0066 6047     		bx	r12
 233              		.align	2
 234              	.LTHUMBFUNC0:
 235 0068 00000000 		.word	.LTHUNK0
 236              		.cfi_endproc
 237              	.LFE343:
 238              		.fnend
 239              		.size	_ZThn44_N5PS4BT16sendOutputReportEP9PS4Output, .-_ZThn44_N5PS4BT16sendOutputReportEP9PS4Outp
 240              		.section	.text._ZN5PS4BT11OnInitBTHIDEv,"axG",%progbits,_ZN5PS4BT11OnInitBTHIDEv,comdat
 241              		.align	2
 242              		.weak	_ZN5PS4BT11OnInitBTHIDEv
 243              		.code	16
 244              		.thumb_func
 245              		.type	_ZN5PS4BT11OnInitBTHIDEv, %function
 246              	_ZN5PS4BT11OnInitBTHIDEv:
 247              		.fnstart
 248              	.LFB306:
  65:./PS4BT.h     ****                 PS4Parser::Reset();
 249              		.loc 2 65 0
 250              		.cfi_startproc
 251              		@ args = 0, pretend = 0, frame = 8
 252              		@ frame_needed = 0, uses_anonymous_args = 0
 253              	.LVL15:
 254 0000 10B5     		push	{r4, lr}
 255              		.save {r4, lr}
 256              		.cfi_def_cfa_offset 8
 257              		.cfi_offset 4, -8
 258              		.cfi_offset 14, -4
 259 0002 0400     		movs	r4, r0
 260              		.pad #16
 261 0004 84B0     		sub	sp, sp, #16
 262              		.cfi_def_cfa_offset 24
  66:./PS4BT.h     ****                 enable_sixaxis(); // Make the controller send out the entire output report
ARM GAS  C:\Users\jrdia\AppData\Local\Temp\ccFTvYyK.s 			page 10


 263              		.loc 2 66 0
 264 0006 2C30     		adds	r0, r0, #44
 265              	.LVL16:
 266 0008 FFF7FEFF 		bl	_ZN9PS4Parser5ResetEv
 267              	.LVL17:
 268              	.LBB116:
 269              	.LBB117:
 111:./PS4BT.h     ****                 buf[1] = 0x02; // Report ID
 270              		.loc 2 111 0
 271 000c 4323     		movs	r3, #67
 272 000e 03AA     		add	r2, sp, #12
 273 0010 1370     		strb	r3, [r2]
 112:./PS4BT.h     **** 
 274              		.loc 2 112 0
 275 0012 413B     		subs	r3, r3, #65
 276 0014 5370     		strb	r3, [r2, #1]
 277              	.LVL18:
 278              	.LBB118:
 279              	.LBB119:
 280              		.loc 2 118 0
 281 0016 E37D     		ldrb	r3, [r4, #23]
 282 0018 A189     		ldrh	r1, [r4, #12]
 283 001a 0193     		str	r3, [sp, #4]
 284 001c A37D     		ldrb	r3, [r4, #22]
 285 001e 0093     		str	r3, [sp]
 286 0020 A068     		ldr	r0, [r4, #8]
 287 0022 0223     		movs	r3, #2
 288 0024 FFF7FEFF 		bl	_ZN3BTD13L2CAP_CommandEtPhhhh
 289              	.LVL19:
 290              	.LBE119:
 291              	.LBE118:
 292              	.LBE117:
 293              	.LBE116:
  68:./PS4BT.h     ****                         pFuncOnInit(); // Call the user function
 294              		.loc 2 68 0
 295 0028 6368     		ldr	r3, [r4, #4]
 296 002a 002B     		cmp	r3, #0
 297 002c 02D0     		beq	.L10
  69:./PS4BT.h     ****                 else
 298              		.loc 2 69 0
 299 002e 9847     		blx	r3
 300              	.LVL20:
 301              	.L9:
  72:./PS4BT.h     **** 
 302              		.loc 2 72 0
 303 0030 04B0     		add	sp, sp, #16
 304              		@ sp needed
 305 0032 10BD     		pop	{r4, pc}
 306              	.LVL21:
 307              	.L10:
 308              	.LBB120:
 309              	.LBB121:
 310              	.LBB122:
 311              		.file 3 "./PS4Parser.h"
   1:./PS4Parser.h **** /* Copyright (C) 2014 Kristian Lauszus, TKJ Electronics. All rights reserved.
   2:./PS4Parser.h **** 
   3:./PS4Parser.h ****  This software may be distributed and modified under the terms of the GNU
ARM GAS  C:\Users\jrdia\AppData\Local\Temp\ccFTvYyK.s 			page 11


   4:./PS4Parser.h ****  General Public License version 2 (GPL2) as published by the Free Software
   5:./PS4Parser.h ****  Foundation and appearing in the file GPL2.TXT included in the packaging of
   6:./PS4Parser.h ****  this file. Please note that GPL2 Section 2[b] requires that all works based
   7:./PS4Parser.h ****  on this software must also be made publicly available under the terms of
   8:./PS4Parser.h ****  the GPL2 ("Copyleft").
   9:./PS4Parser.h **** 
  10:./PS4Parser.h ****  Contact information
  11:./PS4Parser.h ****  -------------------
  12:./PS4Parser.h **** 
  13:./PS4Parser.h ****  Kristian Lauszus, TKJ Electronics
  14:./PS4Parser.h ****  Web      :  http://www.tkjelectronics.com
  15:./PS4Parser.h ****  e-mail   :  kristianl@tkjelectronics.com
  16:./PS4Parser.h ****  */
  17:./PS4Parser.h **** 
  18:./PS4Parser.h **** #ifndef _ps4parser_h_
  19:./PS4Parser.h **** #define _ps4parser_h_
  20:./PS4Parser.h **** 
  21:./PS4Parser.h **** #include "Usb.h"
  22:./PS4Parser.h **** #include "controllerEnums.h"
  23:./PS4Parser.h **** 
  24:./PS4Parser.h **** /** Buttons on the controller */
  25:./PS4Parser.h **** const uint8_t PS4_BUTTONS[] PROGMEM = {
  26:./PS4Parser.h ****         UP, // UP
  27:./PS4Parser.h ****         RIGHT, // RIGHT
  28:./PS4Parser.h ****         DOWN, // DOWN
  29:./PS4Parser.h ****         LEFT, // LEFT
  30:./PS4Parser.h **** 
  31:./PS4Parser.h ****         0x0C, // SHARE
  32:./PS4Parser.h ****         0x0D, // OPTIONS
  33:./PS4Parser.h ****         0x0E, // L3
  34:./PS4Parser.h ****         0x0F, // R3
  35:./PS4Parser.h **** 
  36:./PS4Parser.h ****         0x0A, // L2
  37:./PS4Parser.h ****         0x0B, // R2
  38:./PS4Parser.h ****         0x08, // L1
  39:./PS4Parser.h ****         0x09, // R1
  40:./PS4Parser.h **** 
  41:./PS4Parser.h ****         0x07, // TRIANGLE
  42:./PS4Parser.h ****         0x06, // CIRCLE
  43:./PS4Parser.h ****         0x05, // CROSS
  44:./PS4Parser.h ****         0x04, // SQUARE
  45:./PS4Parser.h **** 
  46:./PS4Parser.h ****         0x10, // PS
  47:./PS4Parser.h ****         0x11, // TOUCHPAD
  48:./PS4Parser.h **** };
  49:./PS4Parser.h **** 
  50:./PS4Parser.h **** union PS4Buttons {
  51:./PS4Parser.h ****         struct {
  52:./PS4Parser.h ****                 uint8_t dpad : 4;
  53:./PS4Parser.h ****                 uint8_t square : 1;
  54:./PS4Parser.h ****                 uint8_t cross : 1;
  55:./PS4Parser.h ****                 uint8_t circle : 1;
  56:./PS4Parser.h ****                 uint8_t triangle : 1;
  57:./PS4Parser.h **** 
  58:./PS4Parser.h ****                 uint8_t l1 : 1;
  59:./PS4Parser.h ****                 uint8_t r1 : 1;
  60:./PS4Parser.h ****                 uint8_t l2 : 1;
ARM GAS  C:\Users\jrdia\AppData\Local\Temp\ccFTvYyK.s 			page 12


  61:./PS4Parser.h ****                 uint8_t r2 : 1;
  62:./PS4Parser.h ****                 uint8_t share : 1;
  63:./PS4Parser.h ****                 uint8_t options : 1;
  64:./PS4Parser.h ****                 uint8_t l3 : 1;
  65:./PS4Parser.h ****                 uint8_t r3 : 1;
  66:./PS4Parser.h **** 
  67:./PS4Parser.h ****                 uint8_t ps : 1;
  68:./PS4Parser.h ****                 uint8_t touchpad : 1;
  69:./PS4Parser.h ****                 uint8_t reportCounter : 6;
  70:./PS4Parser.h ****         } __attribute__((packed));
  71:./PS4Parser.h ****         uint32_t val : 24;
  72:./PS4Parser.h **** } __attribute__((packed));
  73:./PS4Parser.h **** 
  74:./PS4Parser.h **** struct touchpadXY {
  75:./PS4Parser.h ****         uint8_t dummy; // I can not figure out what this data is for, it seems to change randomly, 
  76:./PS4Parser.h ****         struct {
  77:./PS4Parser.h ****                 uint8_t counter : 7; // Increments every time a finger is touching the touchpad
  78:./PS4Parser.h ****                 uint8_t touching : 1; // The top bit is cleared if the finger is touching the touch
  79:./PS4Parser.h ****                 uint16_t x : 12;
  80:./PS4Parser.h ****                 uint16_t y : 12;
  81:./PS4Parser.h ****         } __attribute__((packed)) finger[2]; // 0 = first finger, 1 = second finger
  82:./PS4Parser.h **** } __attribute__((packed));
  83:./PS4Parser.h **** 
  84:./PS4Parser.h **** struct PS4Status {
  85:./PS4Parser.h ****         uint8_t battery : 4;
  86:./PS4Parser.h ****         uint8_t usb : 1;
  87:./PS4Parser.h ****         uint8_t audio : 1;
  88:./PS4Parser.h ****         uint8_t mic : 1;
  89:./PS4Parser.h ****         uint8_t unknown : 1; // Extension port?
  90:./PS4Parser.h **** } __attribute__((packed));
  91:./PS4Parser.h **** 
  92:./PS4Parser.h **** struct PS4Data {
  93:./PS4Parser.h ****         /* Button and joystick values */
  94:./PS4Parser.h ****         uint8_t hatValue[4];
  95:./PS4Parser.h ****         PS4Buttons btn;
  96:./PS4Parser.h ****         uint8_t trigger[2];
  97:./PS4Parser.h **** 
  98:./PS4Parser.h ****         /* Gyro and accelerometer values */
  99:./PS4Parser.h ****         uint8_t dummy[3]; // First two looks random, while the third one might be some kind of stat
 100:./PS4Parser.h ****         int16_t gyroY, gyroZ, gyroX;
 101:./PS4Parser.h ****         int16_t accX, accZ, accY;
 102:./PS4Parser.h **** 
 103:./PS4Parser.h ****         uint8_t dummy2[5];
 104:./PS4Parser.h ****         PS4Status status;
 105:./PS4Parser.h ****         uint8_t dummy3[3];
 106:./PS4Parser.h **** 
 107:./PS4Parser.h ****         /* The rest is data for the touchpad */
 108:./PS4Parser.h ****         touchpadXY xy[3]; // It looks like it sends out three coordinates each time, this might be 
 109:./PS4Parser.h ****                           // The last data is read from the last position in the array while the ol
 110:./PS4Parser.h ****                           // The first position will also keep it's value after the finger is relea
 111:./PS4Parser.h ****                           // Note that if you read fast enough from the device, then only the first
 112:./PS4Parser.h **** 
 113:./PS4Parser.h ****         // The last three bytes are always: 0x00, 0x80, 0x00
 114:./PS4Parser.h **** } __attribute__((packed));
 115:./PS4Parser.h **** 
 116:./PS4Parser.h **** struct PS4Output {
 117:./PS4Parser.h ****         uint8_t bigRumble, smallRumble; // Rumble
ARM GAS  C:\Users\jrdia\AppData\Local\Temp\ccFTvYyK.s 			page 13


 118:./PS4Parser.h ****         uint8_t r, g, b; // RGB
 119:./PS4Parser.h ****         uint8_t flashOn, flashOff; // Time to flash bright/dark (255 = 2.5 seconds)
 120:./PS4Parser.h ****         bool reportChanged; // The data is send when data is received from the controller
 121:./PS4Parser.h **** } __attribute__((packed));
 122:./PS4Parser.h **** 
 123:./PS4Parser.h **** /** This class parses all the data sent by the PS4 controller */
 124:./PS4Parser.h **** class PS4Parser {
 125:./PS4Parser.h **** public:
 126:./PS4Parser.h ****         /** Constructor for the PS4Parser class. */
 127:./PS4Parser.h ****         PS4Parser() {
 128:./PS4Parser.h ****                 Reset();
 129:./PS4Parser.h ****         };
 130:./PS4Parser.h **** 
 131:./PS4Parser.h ****         /** @name PS4 Controller functions */
 132:./PS4Parser.h ****         /**
 133:./PS4Parser.h ****          * getButtonPress(ButtonEnum b) will return true as long as the button is held down.
 134:./PS4Parser.h ****          *
 135:./PS4Parser.h ****          * While getButtonClick(ButtonEnum b) will only return it once.
 136:./PS4Parser.h ****          *
 137:./PS4Parser.h ****          * So you instance if you need to increase a variable once you would use getButtonClick(But
 138:./PS4Parser.h ****          * but if you need to drive a robot forward you would use getButtonPress(ButtonEnum b).
 139:./PS4Parser.h ****          * @param  b          ::ButtonEnum to read.
 140:./PS4Parser.h ****          * @return            getButtonPress(ButtonEnum b) will return a true as long as a button i
 141:./PS4Parser.h ****          */
 142:./PS4Parser.h ****         bool getButtonPress(ButtonEnum b);
 143:./PS4Parser.h ****         bool getButtonClick(ButtonEnum b);
 144:./PS4Parser.h ****         /**@}*/
 145:./PS4Parser.h ****         /** @name PS4 Controller functions */
 146:./PS4Parser.h ****         /**
 147:./PS4Parser.h ****          * Used to get the analog value from button presses.
 148:./PS4Parser.h ****          * @param  b The ::ButtonEnum to read.
 149:./PS4Parser.h ****          * The supported buttons are:
 150:./PS4Parser.h ****          * ::UP, ::RIGHT, ::DOWN, ::LEFT, ::L1, ::L2, ::R1, ::R2,
 151:./PS4Parser.h ****          * ::TRIANGLE, ::CIRCLE, ::CROSS, ::SQUARE, and ::T.
 152:./PS4Parser.h ****          * @return   Analog value in the range of 0-255.
 153:./PS4Parser.h ****          */
 154:./PS4Parser.h ****         uint8_t getAnalogButton(ButtonEnum b);
 155:./PS4Parser.h **** 
 156:./PS4Parser.h ****         /**
 157:./PS4Parser.h ****          * Used to read the analog joystick.
 158:./PS4Parser.h ****          * @param  a ::LeftHatX, ::LeftHatY, ::RightHatX, and ::RightHatY.
 159:./PS4Parser.h ****          * @return   Return the analog value in the range of 0-255.
 160:./PS4Parser.h ****          */
 161:./PS4Parser.h ****         uint8_t getAnalogHat(AnalogHatEnum a);
 162:./PS4Parser.h **** 
 163:./PS4Parser.h ****         /**
 164:./PS4Parser.h ****          * Get the x-coordinate of the touchpad. Position 0 is in the top left.
 165:./PS4Parser.h ****          * @param  finger 0 = first finger, 1 = second finger. If omitted, then 0 will be used.
 166:./PS4Parser.h ****          * @param  xyId   The controller sends out three packets with the same structure.
 167:./PS4Parser.h ****          *                The third one will contain the last measure, but if you read from the con
 168:./PS4Parser.h ****          *                For that reason it will be set to 0 if the argument is omitted.
 169:./PS4Parser.h ****          * @return        Returns the x-coordinate of the finger.
 170:./PS4Parser.h ****          */
 171:./PS4Parser.h ****         uint16_t getX(uint8_t finger = 0, uint8_t xyId = 0) {
 172:./PS4Parser.h ****                 return ps4Data.xy[xyId].finger[finger].x;
 173:./PS4Parser.h ****         };
 174:./PS4Parser.h **** 
ARM GAS  C:\Users\jrdia\AppData\Local\Temp\ccFTvYyK.s 			page 14


 175:./PS4Parser.h ****         /**
 176:./PS4Parser.h ****          * Get the y-coordinate of the touchpad. Position 0 is in the top left.
 177:./PS4Parser.h ****          * @param  finger 0 = first finger, 1 = second finger. If omitted, then 0 will be used.
 178:./PS4Parser.h ****          * @param  xyId   The controller sends out three packets with the same structure.
 179:./PS4Parser.h ****          *                The third one will contain the last measure, but if you read from the con
 180:./PS4Parser.h ****          *                For that reason it will be set to 0 if the argument is omitted.
 181:./PS4Parser.h ****          * @return        Returns the y-coordinate of the finger.
 182:./PS4Parser.h ****          */
 183:./PS4Parser.h ****         uint16_t getY(uint8_t finger = 0, uint8_t xyId = 0) {
 184:./PS4Parser.h ****                 return ps4Data.xy[xyId].finger[finger].y;
 185:./PS4Parser.h ****         };
 186:./PS4Parser.h **** 
 187:./PS4Parser.h ****         /**
 188:./PS4Parser.h ****          * Returns whenever the user is toucing the touchpad.
 189:./PS4Parser.h ****          * @param  finger 0 = first finger, 1 = second finger. If omitted, then 0 will be used.
 190:./PS4Parser.h ****          * @param  xyId   The controller sends out three packets with the same structure.
 191:./PS4Parser.h ****          *                The third one will contain the last measure, but if you read from the con
 192:./PS4Parser.h ****          *                For that reason it will be set to 0 if the argument is omitted.
 193:./PS4Parser.h ****          * @return        Returns true if the specific finger is touching the touchpad.
 194:./PS4Parser.h ****          */
 195:./PS4Parser.h ****         bool isTouching(uint8_t finger = 0, uint8_t xyId = 0) {
 196:./PS4Parser.h ****                 return !(ps4Data.xy[xyId].finger[finger].touching); // The bit is cleared when a fi
 197:./PS4Parser.h ****         };
 198:./PS4Parser.h **** 
 199:./PS4Parser.h ****         /**
 200:./PS4Parser.h ****          * This counter increments every time a finger touches the touchpad.
 201:./PS4Parser.h ****          * @param  finger 0 = first finger, 1 = second finger. If omitted, then 0 will be used.
 202:./PS4Parser.h ****          * @param  xyId   The controller sends out three packets with the same structure.
 203:./PS4Parser.h ****          *                The third one will contain the last measure, but if you read from the con
 204:./PS4Parser.h ****          *                For that reason it will be set to 0 if the argument is omitted.
 205:./PS4Parser.h ****          * @return        Return the value of the counter, note that it is only a 7-bit value.
 206:./PS4Parser.h ****          */
 207:./PS4Parser.h ****         uint8_t getTouchCounter(uint8_t finger = 0, uint8_t xyId = 0) {
 208:./PS4Parser.h ****                 return ps4Data.xy[xyId].finger[finger].counter;
 209:./PS4Parser.h ****         };
 210:./PS4Parser.h **** 
 211:./PS4Parser.h ****         /**
 212:./PS4Parser.h ****          * Get the angle of the controller calculated using the accelerometer.
 213:./PS4Parser.h ****          * @param  a Either ::Pitch or ::Roll.
 214:./PS4Parser.h ****          * @return   Return the angle in the range of 0-360.
 215:./PS4Parser.h ****          */
 216:./PS4Parser.h ****         float getAngle(AngleEnum a) {
 217:./PS4Parser.h ****                 if (a == Pitch)
 218:./PS4Parser.h ****                         return (atan2f(ps4Data.accY, ps4Data.accZ) + PI) * RAD_TO_DEG;
 219:./PS4Parser.h ****                 else
 220:./PS4Parser.h ****                         return (atan2f(ps4Data.accX, ps4Data.accZ) + PI) * RAD_TO_DEG;
 221:./PS4Parser.h ****         };
 222:./PS4Parser.h **** 
 223:./PS4Parser.h ****         /**
 224:./PS4Parser.h ****          * Used to get the raw values from the 3-axis gyroscope and 3-axis accelerometer inside the
 225:./PS4Parser.h ****          * @param  s The sensor to read.
 226:./PS4Parser.h ****          * @return   Returns the raw sensor reading.
 227:./PS4Parser.h ****          */
 228:./PS4Parser.h ****         int16_t getSensor(SensorEnum s) {
 229:./PS4Parser.h ****                 switch(s) {
 230:./PS4Parser.h ****                         case gX:
 231:./PS4Parser.h ****                                 return ps4Data.gyroX;
ARM GAS  C:\Users\jrdia\AppData\Local\Temp\ccFTvYyK.s 			page 15


 232:./PS4Parser.h ****                         case gY:
 233:./PS4Parser.h ****                                 return ps4Data.gyroY;
 234:./PS4Parser.h ****                         case gZ:
 235:./PS4Parser.h ****                                 return ps4Data.gyroZ;
 236:./PS4Parser.h ****                         case aX:
 237:./PS4Parser.h ****                                 return ps4Data.accX;
 238:./PS4Parser.h ****                         case aY:
 239:./PS4Parser.h ****                                 return ps4Data.accY;
 240:./PS4Parser.h ****                         case aZ:
 241:./PS4Parser.h ****                                 return ps4Data.accZ;
 242:./PS4Parser.h ****                         default:
 243:./PS4Parser.h ****                                 return 0;
 244:./PS4Parser.h ****                 }
 245:./PS4Parser.h ****         };
 246:./PS4Parser.h **** 
 247:./PS4Parser.h ****         /**
 248:./PS4Parser.h ****          * Return the battery level of the PS4 controller.
 249:./PS4Parser.h ****          * @return The battery level in the range 0-15.
 250:./PS4Parser.h ****          */
 251:./PS4Parser.h ****         uint8_t getBatteryLevel() {
 252:./PS4Parser.h ****                 return ps4Data.status.battery;
 253:./PS4Parser.h ****         };
 254:./PS4Parser.h **** 
 255:./PS4Parser.h ****         /**
 256:./PS4Parser.h ****          * Use this to check if an USB cable is connected to the PS4 controller.
 257:./PS4Parser.h ****          * @return Returns true if an USB cable is connected.
 258:./PS4Parser.h ****          */
 259:./PS4Parser.h ****         bool getUsbStatus() {
 260:./PS4Parser.h ****                 return ps4Data.status.usb;
 261:./PS4Parser.h ****         };
 262:./PS4Parser.h **** 
 263:./PS4Parser.h ****         /**
 264:./PS4Parser.h ****          * Use this to check if an audio jack cable is connected to the PS4 controller.
 265:./PS4Parser.h ****          * @return Returns true if an audio jack cable is connected.
 266:./PS4Parser.h ****          */
 267:./PS4Parser.h ****         bool getAudioStatus() {
 268:./PS4Parser.h ****                 return ps4Data.status.audio;
 269:./PS4Parser.h ****         };
 270:./PS4Parser.h **** 
 271:./PS4Parser.h ****         /**
 272:./PS4Parser.h ****          * Use this to check if a microphone is connected to the PS4 controller.
 273:./PS4Parser.h ****          * @return Returns true if a microphone is connected.
 274:./PS4Parser.h ****          */
 275:./PS4Parser.h ****         bool getMicStatus() {
 276:./PS4Parser.h ****                 return ps4Data.status.mic;
 277:./PS4Parser.h ****         };
 278:./PS4Parser.h **** 
 279:./PS4Parser.h ****         /** Turn both rumble and the LEDs off. */
 280:./PS4Parser.h ****         void setAllOff() {
 281:./PS4Parser.h ****                 setRumbleOff();
 282:./PS4Parser.h ****                 setLedOff();
 283:./PS4Parser.h ****         };
 284:./PS4Parser.h **** 
 285:./PS4Parser.h ****         /** Set rumble off. */
 286:./PS4Parser.h ****         void setRumbleOff() {
 287:./PS4Parser.h ****                 setRumbleOn(0, 0);
 288:./PS4Parser.h ****         };
ARM GAS  C:\Users\jrdia\AppData\Local\Temp\ccFTvYyK.s 			page 16


 289:./PS4Parser.h **** 
 290:./PS4Parser.h ****         /**
 291:./PS4Parser.h ****          * Turn on rumble.
 292:./PS4Parser.h ****          * @param mode Either ::RumbleHigh or ::RumbleLow.
 293:./PS4Parser.h ****          */
 294:./PS4Parser.h ****         void setRumbleOn(RumbleEnum mode) {
 295:./PS4Parser.h ****                 if (mode == RumbleLow)
 296:./PS4Parser.h ****                         setRumbleOn(0x00, 0xFF);
 297:./PS4Parser.h ****                 else
 298:./PS4Parser.h ****                         setRumbleOn(0xFF, 0x00);
 299:./PS4Parser.h ****         };
 300:./PS4Parser.h **** 
 301:./PS4Parser.h ****         /**
 302:./PS4Parser.h ****          * Turn on rumble.
 303:./PS4Parser.h ****          * @param bigRumble   Value for big motor.
 304:./PS4Parser.h ****          * @param smallRumble Value for small motor.
 305:./PS4Parser.h ****          */
 306:./PS4Parser.h ****         void setRumbleOn(uint8_t bigRumble, uint8_t smallRumble) {
 307:./PS4Parser.h ****                 ps4Output.bigRumble = bigRumble;
 308:./PS4Parser.h ****                 ps4Output.smallRumble = smallRumble;
 309:./PS4Parser.h ****                 ps4Output.reportChanged = true;
 310:./PS4Parser.h ****         };
 311:./PS4Parser.h **** 
 312:./PS4Parser.h ****         /** Turn all LEDs off. */
 313:./PS4Parser.h ****         void setLedOff() {
 314:./PS4Parser.h ****                 setLed(0, 0, 0);
 315:./PS4Parser.h ****         };
 316:./PS4Parser.h **** 
 317:./PS4Parser.h ****         /**
 318:./PS4Parser.h ****          * Use this to set the color using RGB values.
 319:./PS4Parser.h ****          * @param r,g,b RGB value.
 320:./PS4Parser.h ****          */
 321:./PS4Parser.h ****         void setLed(uint8_t r, uint8_t g, uint8_t b) {
 322:./PS4Parser.h ****                 ps4Output.r = r;
 312              		.loc 3 322 0
 313 0034 2200     		movs	r2, r4
 314 0036 7432     		adds	r2, r2, #116
 315 0038 1370     		strb	r3, [r2]
 323:./PS4Parser.h ****                 ps4Output.g = g;
 316              		.loc 3 323 0
 317 003a 5370     		strb	r3, [r2, #1]
 324:./PS4Parser.h ****                 ps4Output.b = b;
 318              		.loc 3 324 0
 319 003c 2300     		movs	r3, r4
 320 003e FF22     		movs	r2, #255
 321 0040 7633     		adds	r3, r3, #118
 322 0042 1A70     		strb	r2, [r3]
 325:./PS4Parser.h ****                 ps4Output.reportChanged = true;
 323              		.loc 3 325 0
 324 0044 0123     		movs	r3, #1
 325 0046 7934     		adds	r4, r4, #121
 326              	.LVL22:
 327 0048 2370     		strb	r3, [r4]
 328              	.LVL23:
 329              	.LBE122:
 330              	.LBE121:
 331              	.LBE120:
ARM GAS  C:\Users\jrdia\AppData\Local\Temp\ccFTvYyK.s 			page 17


  72:./PS4BT.h     **** 
 332              		.loc 2 72 0
 333 004a F1E7     		b	.L9
 334              		.cfi_endproc
 335              	.LFE306:
 336              		.fnend
 337              		.size	_ZN5PS4BT11OnInitBTHIDEv, .-_ZN5PS4BT11OnInitBTHIDEv
 338              		.section	.text._ZN5PS4BT14ParseBTHIDDataEhPh,"axG",%progbits,_ZN5PS4BT14ParseBTHIDDataEhPh,comdat
 339              		.align	2
 340              		.weak	_ZN5PS4BT14ParseBTHIDDataEhPh
 341              		.code	16
 342              		.thumb_func
 343              		.type	_ZN5PS4BT14ParseBTHIDDataEhPh, %function
 344              	_ZN5PS4BT14ParseBTHIDDataEhPh:
 345              		.fnstart
 346              	.LFB305:
  56:./PS4BT.h     ****                 PS4Parser::Parse(len, buf);
 347              		.loc 2 56 0
 348              		.cfi_startproc
 349              		@ args = 0, pretend = 0, frame = 0
 350              		@ frame_needed = 0, uses_anonymous_args = 0
 351              	.LVL24:
 352 0000 10B5     		push	{r4, lr}
 353              		.save {r4, lr}
 354              		.cfi_def_cfa_offset 8
 355              		.cfi_offset 4, -8
 356              		.cfi_offset 14, -4
  57:./PS4BT.h     ****         };
 357              		.loc 2 57 0
 358 0002 2C30     		adds	r0, r0, #44
 359              	.LVL25:
 360 0004 FFF7FEFF 		bl	_ZN9PS4Parser5ParseEhPh
 361              	.LVL26:
  58:./PS4BT.h     **** 
 362              		.loc 2 58 0
 363              		@ sp needed
 364 0008 10BD     		pop	{r4, pc}
 365              		.cfi_endproc
 366              	.LFE305:
 367              		.fnend
 368              		.size	_ZN5PS4BT14ParseBTHIDDataEhPh, .-_ZN5PS4BT14ParseBTHIDDataEhPh
 369 000a C046     		.section	.text._ZN8MAX3421eI4TPinI5PortbLh2EES0_IS1_Lh1EEE5regWrEhh.isra.2,"ax",%progbits
 370              		.align	2
 371              		.code	16
 372              		.thumb_func
 373              		.type	_ZN8MAX3421eI4TPinI5PortbLh2EES0_IS1_Lh1EEE5regWrEhh.isra.2, %function
 374              	_ZN8MAX3421eI4TPinI5PortbLh2EES0_IS1_Lh1EEE5regWrEhh.isra.2:
 375              		.fnstart
 376              	.LFB337:
 377              		.file 4 "./usbhost.h"
   1:./usbhost.h   **** /* Copyright (C) 2011 Circuits At Home, LTD. All rights reserved.
   2:./usbhost.h   **** 
   3:./usbhost.h   **** This software may be distributed and modified under the terms of the GNU
   4:./usbhost.h   **** General Public License version 2 (GPL2) as published by the Free Software
   5:./usbhost.h   **** Foundation and appearing in the file GPL2.TXT included in the packaging of
   6:./usbhost.h   **** this file. Please note that GPL2 Section 2[b] requires that all works based
   7:./usbhost.h   **** on this software must also be made publicly available under the terms of
ARM GAS  C:\Users\jrdia\AppData\Local\Temp\ccFTvYyK.s 			page 18


   8:./usbhost.h   **** the GPL2 ("Copyleft").
   9:./usbhost.h   **** 
  10:./usbhost.h   **** Contact information
  11:./usbhost.h   **** -------------------
  12:./usbhost.h   **** 
  13:./usbhost.h   **** Circuits At Home, LTD
  14:./usbhost.h   **** Web      :  http://www.circuitsathome.com
  15:./usbhost.h   **** e-mail   :  support@circuitsathome.com
  16:./usbhost.h   ****  */
  17:./usbhost.h   **** /* MAX3421E-based USB Host Library header file */
  18:./usbhost.h   **** 
  19:./usbhost.h   **** 
  20:./usbhost.h   **** #if !defined(_usb_h_) || defined(_USBHOST_H_)
  21:./usbhost.h   **** #error "Never include usbhost.h directly; include Usb.h instead"
  22:./usbhost.h   **** #else
  23:./usbhost.h   **** #define _USBHOST_H_
  24:./usbhost.h   ****     #define SPI_DELAY 25
  25:./usbhost.h   ****     extern "C" {
  26:./usbhost.h   **** 
  27:./usbhost.h   **** 	// PSoC include, this has to be wrapped
  28:./usbhost.h   **** 	#include "project.h"
  29:./usbhost.h   **** }
  30:./usbhost.h   **** #warning "Need to clean up a lot of stuff in usbhost.h"
  31:./usbhost.h   **** #if USING_SPI4TEENSY3
  32:./usbhost.h   **** #include <spi4teensy3.h>
  33:./usbhost.h   **** #include <sys/types.h>
  34:./usbhost.h   **** #endif
  35:./usbhost.h   **** #include "project.h"
  36:./usbhost.h   **** /* SPI initialization */
  37:./usbhost.h   **** template< typename SPI_CLK, typename SPI_MOSI, typename SPI_MISO, typename SPI_SS > class SPi {
  38:./usbhost.h   **** public:
  39:./usbhost.h   **** #if USING_SPI4TEENSY3
  40:./usbhost.h   ****         static void init() {
  41:./usbhost.h   ****                 // spi4teensy3 inits everything for us, except /SS
  42:./usbhost.h   ****                 // CLK, MOSI and MISO are hard coded for now.
  43:./usbhost.h   ****                 // spi4teensy3::init(0,0,0); // full speed, cpol 0, cpha 0
  44:./usbhost.h   ****                 spi4teensy3::init(); // full speed, cpol 0, cpha 0
  45:./usbhost.h   ****                 SPI_SS::SetDirWrite();
  46:./usbhost.h   ****                 SPI_SS::Set();
  47:./usbhost.h   ****         }
  48:./usbhost.h   **** #elif defined(SPI_HAS_TRANSACTION)
  49:./usbhost.h   ****         static void init() {
  50:./usbhost.h   ****                 SPI.begin(); // The SPI library with transaction will take care of setting up the p
  51:./usbhost.h   ****                 SPI_SS::SetDirWrite();
  52:./usbhost.h   ****                 SPI_SS::Set();
  53:./usbhost.h   ****         }
  54:./usbhost.h   **** #elif defined(STM32F4)
  55:./usbhost.h   **** #warning "You need to initialize the SPI interface manually when using the STM32F4 platform"
  56:./usbhost.h   ****         static void init() {
  57:./usbhost.h   ****                 // Should be initialized by the user manually for now
  58:./usbhost.h   ****         }
  59:./usbhost.h   **** #elif !defined(SPDR)
  60:./usbhost.h   ****         static void init() {
  61:./usbhost.h   ****                 SPI_SS::SetDirWrite();
  62:./usbhost.h   ****                 SPI_SS::Set();
  63:./usbhost.h   ****                 //UNC SPI.begin();
  64:./usbhost.h   **** #if defined(__MIPSEL__)
ARM GAS  C:\Users\jrdia\AppData\Local\Temp\ccFTvYyK.s 			page 19


  65:./usbhost.h   ****                 SPI.setClockDivider(1);
  66:./usbhost.h   **** #elif defined(__ARDUINO_X86__)
  67:./usbhost.h   ****                 #ifdef SPI_CLOCK_1M // Hack used to check if setClockSpeed is available
  68:./usbhost.h   ****                     SPI.setClockSpeed(12000000); // The MAX3421E can handle up to 26MHz, but in pra
  69:./usbhost.h   ****                 #else
  70:./usbhost.h   ****                     SPI.setClockDivider(SPI_CLOCK_DIV2); // This will set the SPI frequency to 8MHz
  71:./usbhost.h   ****                 #endif
  72:./usbhost.h   **** #elif !defined(RBL_NRF51822)
  73:./usbhost.h   ****                 //UNC SPI.setClockDivider(4); // Set speed to 84MHz/4=21MHz - the MAX3421E can hand
  74:./usbhost.h   **** #endif
  75:./usbhost.h   ****         }
  76:./usbhost.h   **** #else
  77:./usbhost.h   ****         static void init() {
  78:./usbhost.h   ****                 //uint8_t tmp;
  79:./usbhost.h   ****                 SPI_CLK::SetDirWrite();
  80:./usbhost.h   ****                 SPI_MOSI::SetDirWrite();
  81:./usbhost.h   ****                 SPI_MISO::SetDirRead();
  82:./usbhost.h   ****                 SPI_SS::SetDirWrite();
  83:./usbhost.h   ****                 /* mode 00 (CPOL=0, CPHA=0) master, fclk/2. Mode 11 (CPOL=11, CPHA=11) is also supp
  84:./usbhost.h   ****                 SPCR = 0x50;
  85:./usbhost.h   ****                 SPSR = 0x01; // 0x01
  86:./usbhost.h   ****                 /**/
  87:./usbhost.h   ****                 //tmp = SPSR;
  88:./usbhost.h   ****                 //tmp = SPDR;
  89:./usbhost.h   ****         }
  90:./usbhost.h   **** #endif
  91:./usbhost.h   **** };
  92:./usbhost.h   **** 
  93:./usbhost.h   **** /* SPI pin definitions. see avrpins.h   */
  94:./usbhost.h   **** #if defined(PIN_SPI_SCK) && defined(PIN_SPI_MOSI) && defined(PIN_SPI_MISO) && defined(PIN_SPI_SS)
  95:./usbhost.h   **** // Use pin defines: https://github.com/arduino/Arduino/pull/4814
  96:./usbhost.h   **** // Based on: https://www.mikeash.com/pyblog/friday-qa-2015-03-20-preprocessor-abuse-and-optional-pa
  97:./usbhost.h   **** #define NOTHING_EXTRACT
  98:./usbhost.h   **** #define EXTRACT(...) EXTRACT __VA_ARGS__
  99:./usbhost.h   **** #define PASTE(x, ...) x ## __VA_ARGS__
 100:./usbhost.h   **** #define EVALUATING_PASTE(x, ...) PASTE(x, __VA_ARGS__)
 101:./usbhost.h   **** #define UNPAREN(x) EVALUATING_PASTE(NOTHING_, EXTRACT x)
 102:./usbhost.h   **** #define APPEND_PIN(pin) P ## pin // Appends the pin to 'P', e.g. 1 becomes P1
 103:./usbhost.h   **** #define MAKE_PIN(x) EVALUATING_PASTE(APPEND_, PIN(UNPAREN(x)))
 104:./usbhost.h   **** typedef SPi< MAKE_PIN(PIN_SPI_SCK), MAKE_PIN(PIN_SPI_MOSI), MAKE_PIN(PIN_SPI_MISO), MAKE_PIN(PIN_SP
 105:./usbhost.h   **** #undef MAKE_PIN
 106:./usbhost.h   **** #elif defined(__AVR_ATmega1280__) || (__AVR_ATmega2560__) || defined(__AVR_ATmega32U4__) || defined
 107:./usbhost.h   **** typedef SPi< Pb1, Pb2, Pb3, Pb0 > spi;
 108:./usbhost.h   **** #elif  defined(__AVR_ATmega168__) || defined(__AVR_ATmega328P__)
 109:./usbhost.h   **** typedef SPi< Pb5, Pb3, Pb4, Pb2 > spi;
 110:./usbhost.h   **** #elif defined(__AVR_ATmega644__) || defined(__AVR_ATmega644P__) || defined(__AVR_ATmega1284__) || d
 111:./usbhost.h   **** typedef SPi< Pb7, Pb5, Pb6, Pb4 > spi;
 112:./usbhost.h   **** #elif (defined(CORE_TEENSY) && (defined(__MK20DX128__) || defined(__MK20DX256__) || defined(__MK64F
 113:./usbhost.h   **** typedef SPi< P13, P11, P12, P10 > spi;
 114:./usbhost.h   **** #elif defined(ARDUINO_SAM_DUE) && defined(__SAM3X8E__)
 115:./usbhost.h   **** typedef SPi< P76, P75, P74, P10 > spi;
 116:./usbhost.h   **** #elif defined(RBL_NRF51822)
 117:./usbhost.h   **** typedef SPi< P16, P18, P17, P10 > spi;
 118:./usbhost.h   **** #elif defined(ESP8266)
 119:./usbhost.h   **** typedef SPi< P14, P13, P12, P15 > spi;
 120:./usbhost.h   **** #else
 121:./usbhost.h   **** #error "No SPI entry in usbhost.h"
ARM GAS  C:\Users\jrdia\AppData\Local\Temp\ccFTvYyK.s 			page 20


 122:./usbhost.h   **** #endif
 123:./usbhost.h   **** 
 124:./usbhost.h   **** typedef enum {
 125:./usbhost.h   ****         vbus_on = 0,
 126:./usbhost.h   ****         vbus_off = GPX_VBDET
 127:./usbhost.h   **** } VBUS_t;
 128:./usbhost.h   **** 
 129:./usbhost.h   **** template< typename SPI_SS, typename INTR > class MAX3421e /* : public spi */ {
 130:./usbhost.h   ****         static uint8_t vbusState;
 131:./usbhost.h   **** 
 132:./usbhost.h   **** public:
 133:./usbhost.h   ****         MAX3421e();
 134:./usbhost.h   ****         void regWr(uint8_t reg, uint8_t data);
 135:./usbhost.h   ****         uint8_t* bytesWr(uint8_t reg, uint8_t nbytes, uint8_t* data_p);
 136:./usbhost.h   ****         void gpioWr(uint8_t data);
 137:./usbhost.h   ****         uint8_t regRd(uint8_t reg);
 138:./usbhost.h   ****         uint8_t* bytesRd(uint8_t reg, uint8_t nbytes, uint8_t* data_p);
 139:./usbhost.h   ****         uint8_t gpioRd();
 140:./usbhost.h   ****         uint16_t reset();
 141:./usbhost.h   ****         int8_t Init();
 142:./usbhost.h   ****         int8_t Init(int mseconds);
 143:./usbhost.h   **** 
 144:./usbhost.h   ****         void vbusPower(VBUS_t state) {
 145:./usbhost.h   ****                 regWr(rPINCTL, (bmFDUPSPI | bmINTLEVEL | state));
 146:./usbhost.h   ****         }
 147:./usbhost.h   **** 
 148:./usbhost.h   ****         uint8_t getVbusState(void) {
 149:./usbhost.h   ****                 return vbusState;
 150:./usbhost.h   ****         };
 151:./usbhost.h   ****         void busprobe();
 152:./usbhost.h   ****         uint8_t GpxHandler();
 153:./usbhost.h   ****         uint8_t IntHandler();
 154:./usbhost.h   ****         uint8_t Task();
 155:./usbhost.h   **** };
 156:./usbhost.h   **** 
 157:./usbhost.h   **** template< typename SPI_SS, typename INTR >
 158:./usbhost.h   ****         uint8_t MAX3421e< SPI_SS, INTR >::vbusState = 0;
 159:./usbhost.h   **** 
 160:./usbhost.h   **** /* constructor */
 161:./usbhost.h   **** template< typename SPI_SS, typename INTR >
 162:./usbhost.h   **** MAX3421e< SPI_SS, INTR >::MAX3421e() {
 163:./usbhost.h   ****         // Leaving ADK hardware setup in here, for now. This really belongs with the other parts.
 164:./usbhost.h   **** #ifdef BOARD_MEGA_ADK
 165:./usbhost.h   ****         // For Mega ADK, which has a Max3421e on-board, set MAX_RESET to output mode, and then set 
 166:./usbhost.h   ****         P55::SetDirWrite();
 167:./usbhost.h   ****         P55::Set();
 168:./usbhost.h   **** #endif
 169:./usbhost.h   **** };
 170:./usbhost.h   **** 
 171:./usbhost.h   **** /* write single byte into MAX3421 register */
 172:./usbhost.h   **** template< typename SPI_SS, typename INTR >
 173:./usbhost.h   **** void MAX3421e< SPI_SS, INTR >::regWr(uint8_t reg, uint8_t data) {
 378              		.loc 4 173 0
 379              		.cfi_startproc
 380              		@ args = 0, pretend = 0, frame = 0
 381              		@ frame_needed = 0, uses_anonymous_args = 0
 382              	.LVL27:
ARM GAS  C:\Users\jrdia\AppData\Local\Temp\ccFTvYyK.s 			page 21


 383 0000 70B5     		push	{r4, r5, r6, lr}
 384              		.save {r4, r5, r6, lr}
 385              		.cfi_def_cfa_offset 16
 386              		.cfi_offset 4, -16
 387              		.cfi_offset 5, -12
 388              		.cfi_offset 6, -8
 389              		.cfi_offset 14, -4
 390              		.loc 4 173 0
 391 0002 0500     		movs	r5, r0
 174:./usbhost.h   ****     
 175:./usbhost.h   ****     //Old Code Below
 176:./usbhost.h   ****     CyDelayUs(SPI_DELAY);
 392              		.loc 4 176 0
 393 0004 1920     		movs	r0, #25
 394              	.LVL28:
 173:./usbhost.h   ****     
 395              		.loc 4 173 0
 396 0006 0C00     		movs	r4, r1
 397              		.loc 4 176 0
 398 0008 FFF7FEFF 		bl	CyDelayUs
 399              	.LVL29:
 177:./usbhost.h   ****     SS_Write(0);
 400              		.loc 4 177 0
 401 000c 0020     		movs	r0, #0
 402 000e FFF7FEFF 		bl	SS_Write
 403              	.LVL30:
 178:./usbhost.h   ****     
 179:./usbhost.h   ****     //SPI_PutArray(buffer,2);
 180:./usbhost.h   ****     
 181:./usbhost.h   ****     SPI_WriteTxData(reg | 0x02);
 404              		.loc 4 181 0
 405 0012 0220     		movs	r0, #2
 406 0014 2843     		orrs	r0, r5
 407 0016 FFF7FEFF 		bl	SPI_WriteTxData
 408              	.LVL31:
 182:./usbhost.h   ****     SPI_WriteTxData(data); 
 409              		.loc 4 182 0
 410 001a 2000     		movs	r0, r4
 411 001c FFF7FEFF 		bl	SPI_WriteTxData
 412              	.LVL32:
 183:./usbhost.h   ****     CyDelayUs(SPI_DELAY);
 413              		.loc 4 183 0
 414 0020 1920     		movs	r0, #25
 415 0022 FFF7FEFF 		bl	CyDelayUs
 416              	.LVL33:
 184:./usbhost.h   ****     SS_Write(1);
 417              		.loc 4 184 0
 418 0026 0120     		movs	r0, #1
 419 0028 FFF7FEFF 		bl	SS_Write
 420              	.LVL34:
 185:./usbhost.h   ****     return;
 186:./usbhost.h   ****     
 187:./usbhost.h   ****         //UNC XMEM_ACQUIRE_SPI();
 188:./usbhost.h   **** #if defined(SPI_HAS_TRANSACTION)
 189:./usbhost.h   ****         SPI.beginTransaction(SPISettings(26000000, MSBFIRST, SPI_MODE0)); // The MAX3421E can handl
 190:./usbhost.h   **** #endif
 191:./usbhost.h   ****         SPI_SS::Clear();
ARM GAS  C:\Users\jrdia\AppData\Local\Temp\ccFTvYyK.s 			page 22


 192:./usbhost.h   **** 
 193:./usbhost.h   **** #if USING_SPI4TEENSY3
 194:./usbhost.h   ****         uint8_t c[2];
 195:./usbhost.h   ****         c[0] = reg | 0x02;
 196:./usbhost.h   ****         c[1] = data;
 197:./usbhost.h   ****         spi4teensy3::send(c, 2);
 198:./usbhost.h   **** #elif defined(SPI_HAS_TRANSACTION) && !defined(ESP8266)
 199:./usbhost.h   ****         uint8_t c[2];
 200:./usbhost.h   ****         c[0] = reg | 0x02;
 201:./usbhost.h   ****         c[1] = data;
 202:./usbhost.h   ****         SPI.transfer(c, 2);
 203:./usbhost.h   **** #elif defined(STM32F4)
 204:./usbhost.h   ****         uint8_t c[2];
 205:./usbhost.h   ****         c[0] = reg | 0x02;
 206:./usbhost.h   ****         c[1] = data;
 207:./usbhost.h   ****         HAL_SPI_Transmit(&SPI_Handle, c, 2, HAL_MAX_DELAY);
 208:./usbhost.h   **** #elif !defined(SPDR) // ESP8266
 209:./usbhost.h   ****         //UNC SPI.transfer(reg | 0x02);
 210:./usbhost.h   ****         //UNC SPI.transfer(data);
 211:./usbhost.h   **** #else
 212:./usbhost.h   ****         SPDR = (reg | 0x02);
 213:./usbhost.h   ****         while(!(SPSR & (1 << SPIF)));
 214:./usbhost.h   ****         SPDR = data;
 215:./usbhost.h   ****         while(!(SPSR & (1 << SPIF)));
 216:./usbhost.h   **** #endif
 217:./usbhost.h   **** 
 218:./usbhost.h   ****         SPI_SS::Set();
 219:./usbhost.h   **** #if defined(SPI_HAS_TRANSACTION)
 220:./usbhost.h   ****         SPI.endTransaction();
 221:./usbhost.h   **** #endif
 222:./usbhost.h   ****         //UNC XMEM_RELEASE_SPI();
 223:./usbhost.h   ****         return;
 224:./usbhost.h   **** };
 421              		.loc 4 224 0
 422              		@ sp needed
 423 002c 70BD     		pop	{r4, r5, r6, pc}
 424              		.cfi_endproc
 425              	.LFE337:
 426              		.fnend
 427              		.size	_ZN8MAX3421eI4TPinI5PortbLh2EES0_IS1_Lh1EEE5regWrEhh.isra.2, .-_ZN8MAX3421eI4TPinI5PortbLh2E
 428 002e C046     		.section	.text._ZN8MAX3421eI4TPinI5PortbLh2EES0_IS1_Lh1EEE5regRdEh.isra.3,"ax",%progbits
 429              		.align	2
 430              		.code	16
 431              		.thumb_func
 432              		.type	_ZN8MAX3421eI4TPinI5PortbLh2EES0_IS1_Lh1EEE5regRdEh.isra.3, %function
 433              	_ZN8MAX3421eI4TPinI5PortbLh2EES0_IS1_Lh1EEE5regRdEh.isra.3:
 434              		.fnstart
 435              	.LFB338:
 225:./usbhost.h   **** /* multiple-byte write                            */
 226:./usbhost.h   **** 
 227:./usbhost.h   **** /* returns a pointer to memory position after last written */
 228:./usbhost.h   **** template< typename SPI_SS, typename INTR >
 229:./usbhost.h   **** uint8_t* MAX3421e< SPI_SS, INTR >::bytesWr(uint8_t reg, uint8_t nbytes, uint8_t* data_p) {
 230:./usbhost.h   ****         //UNC XMEM_ACQUIRE_SPI();
 231:./usbhost.h   ****     
 232:./usbhost.h   ****     CyDelayUs(SPI_DELAY);
 233:./usbhost.h   ****     SS_Write(0);
ARM GAS  C:\Users\jrdia\AppData\Local\Temp\ccFTvYyK.s 			page 23


 234:./usbhost.h   ****     SPI_WriteTxData(reg | 0x02);
 235:./usbhost.h   ****             //UNC SPI.transfer(reg | 0x02);
 236:./usbhost.h   ****         while(nbytes) {
 237:./usbhost.h   ****                 //UNC SPI.transfer(*data_p);
 238:./usbhost.h   ****             while(SPI_GetTxBufferSize()==4);
 239:./usbhost.h   ****             SPI_WriteTxData(*data_p);
 240:./usbhost.h   ****             //SPI_ClearRxBuffer();
 241:./usbhost.h   ****                 nbytes--;
 242:./usbhost.h   ****                 data_p++; // advance data pointer
 243:./usbhost.h   ****         }
 244:./usbhost.h   ****         CyDelayUs(SPI_DELAY);
 245:./usbhost.h   ****         SS_Write(1);
 246:./usbhost.h   ****         return ( data_p);
 247:./usbhost.h   ****         //Old Code Below
 248:./usbhost.h   **** #if defined(SPI_HAS_TRANSACTION)
 249:./usbhost.h   ****         SPI.beginTransaction(SPISettings(26000000, MSBFIRST, SPI_MODE0)); // The MAX3421E can handl
 250:./usbhost.h   **** #endif
 251:./usbhost.h   ****         SPI_SS::Clear();
 252:./usbhost.h   **** 
 253:./usbhost.h   **** #if USING_SPI4TEENSY3
 254:./usbhost.h   ****         spi4teensy3::send(reg | 0x02);
 255:./usbhost.h   ****         spi4teensy3::send(data_p, nbytes);
 256:./usbhost.h   ****         data_p += nbytes;
 257:./usbhost.h   **** #elif defined(SPI_HAS_TRANSACTION) && !defined(ESP8266)
 258:./usbhost.h   ****         SPI.transfer(reg | 0x02);
 259:./usbhost.h   ****         SPI.transfer(data_p, nbytes);
 260:./usbhost.h   ****         data_p += nbytes;
 261:./usbhost.h   **** #elif defined(__ARDUINO_X86__)
 262:./usbhost.h   ****         SPI.transfer(reg | 0x02);
 263:./usbhost.h   ****         SPI.transferBuffer(data_p, NULL, nbytes);
 264:./usbhost.h   ****         data_p += nbytes;
 265:./usbhost.h   **** #elif defined(STM32F4)
 266:./usbhost.h   ****         uint8_t data = reg | 0x02;
 267:./usbhost.h   ****         HAL_SPI_Transmit(&SPI_Handle, &data, 1, HAL_MAX_DELAY);
 268:./usbhost.h   ****         HAL_SPI_Transmit(&SPI_Handle, data_p, nbytes, HAL_MAX_DELAY);
 269:./usbhost.h   ****         data_p += nbytes;
 270:./usbhost.h   **** #elif !defined(SPDR) // ESP8266
 271:./usbhost.h   ****         //UNC SPI.transfer(reg | 0x02);
 272:./usbhost.h   ****         while(nbytes) {
 273:./usbhost.h   ****                 //UNC SPI.transfer(*data_p);
 274:./usbhost.h   ****                 nbytes--;
 275:./usbhost.h   ****                 data_p++; // advance data pointer
 276:./usbhost.h   ****         }
 277:./usbhost.h   **** #else
 278:./usbhost.h   ****         SPDR = (reg | 0x02); //set WR bit and send register number
 279:./usbhost.h   ****         while(nbytes) {
 280:./usbhost.h   ****                 while(!(SPSR & (1 << SPIF))); //check if previous byte was sent
 281:./usbhost.h   ****                 SPDR = (*data_p); // send next data byte
 282:./usbhost.h   ****                 nbytes--;
 283:./usbhost.h   ****                 data_p++; // advance data pointer
 284:./usbhost.h   ****         }
 285:./usbhost.h   ****         while(!(SPSR & (1 << SPIF)));
 286:./usbhost.h   **** #endif
 287:./usbhost.h   **** 
 288:./usbhost.h   ****         SPI_SS::Set();
 289:./usbhost.h   **** #if defined(SPI_HAS_TRANSACTION)
 290:./usbhost.h   ****         SPI.endTransaction();
ARM GAS  C:\Users\jrdia\AppData\Local\Temp\ccFTvYyK.s 			page 24


 291:./usbhost.h   **** #endif
 292:./usbhost.h   ****         //UNC XMEM_RELEASE_SPI();
 293:./usbhost.h   ****         return ( data_p);
 294:./usbhost.h   **** }
 295:./usbhost.h   **** /* GPIO write                                           */
 296:./usbhost.h   **** /*GPIO byte is split between 2 registers, so two writes are needed to write one byte */
 297:./usbhost.h   **** 
 298:./usbhost.h   **** /* GPOUT bits are in the low nibble. 0-3 in IOPINS1, 4-7 in IOPINS2 */
 299:./usbhost.h   **** template< typename SPI_SS, typename INTR >
 300:./usbhost.h   **** void MAX3421e< SPI_SS, INTR >::gpioWr(uint8_t data) {
 301:./usbhost.h   ****         regWr(rIOPINS1, data);
 302:./usbhost.h   ****         data >>= 4;
 303:./usbhost.h   ****         regWr(rIOPINS2, data);
 304:./usbhost.h   ****         return;
 305:./usbhost.h   **** }
 306:./usbhost.h   **** 
 307:./usbhost.h   **** /* single host register read    */
 308:./usbhost.h   **** template< typename SPI_SS, typename INTR >
 309:./usbhost.h   **** uint8_t MAX3421e< SPI_SS, INTR >::regRd(uint8_t reg) {
 436              		.loc 4 309 0
 437              		.cfi_startproc
 438              		@ args = 0, pretend = 0, frame = 0
 439              		@ frame_needed = 0, uses_anonymous_args = 0
 440              	.LVL35:
 441 0000 10B5     		push	{r4, lr}
 442              		.save {r4, lr}
 443              		.cfi_def_cfa_offset 8
 444              		.cfi_offset 4, -8
 445              		.cfi_offset 14, -4
 446              		.loc 4 309 0
 447 0002 0400     		movs	r4, r0
 310:./usbhost.h   ****     
 311:./usbhost.h   ****     CyDelayUs(SPI_DELAY);
 448              		.loc 4 311 0
 449 0004 1920     		movs	r0, #25
 450              	.LVL36:
 451 0006 FFF7FEFF 		bl	CyDelayUs
 452              	.LVL37:
 312:./usbhost.h   ****     SS_Write(0);
 453              		.loc 4 312 0
 454 000a 0020     		movs	r0, #0
 455 000c FFF7FEFF 		bl	SS_Write
 456              	.LVL38:
 313:./usbhost.h   ****     
 314:./usbhost.h   ****     SPI_ClearRxBuffer();
 457              		.loc 4 314 0
 458 0010 FFF7FEFF 		bl	SPI_ClearRxBuffer
 459              	.LVL39:
 315:./usbhost.h   ****     //SPI_PutArray(buffer,2);
 316:./usbhost.h   ****     
 317:./usbhost.h   ****     SPI_WriteTxData(reg);
 460              		.loc 4 317 0
 461 0014 2000     		movs	r0, r4
 462 0016 FFF7FEFF 		bl	SPI_WriteTxData
 463              	.LVL40:
 318:./usbhost.h   ****     //SPI_ClearRxBuffer();
 319:./usbhost.h   ****     SPI_WriteTxData(0);
ARM GAS  C:\Users\jrdia\AppData\Local\Temp\ccFTvYyK.s 			page 25


 464              		.loc 4 319 0
 465 001a 0020     		movs	r0, #0
 466 001c FFF7FEFF 		bl	SPI_WriteTxData
 467              	.LVL41:
 320:./usbhost.h   ****     CyDelayUs(SPI_DELAY);
 468              		.loc 4 320 0
 469 0020 1920     		movs	r0, #25
 470 0022 FFF7FEFF 		bl	CyDelayUs
 471              	.LVL42:
 472              	.L15:
 321:./usbhost.h   ****     while(SPI_GetRxBufferSize()==0);
 473              		.loc 4 321 0
 474 0026 FFF7FEFF 		bl	SPI_GetRxBufferSize
 475              	.LVL43:
 476 002a 0028     		cmp	r0, #0
 477 002c FBD0     		beq	.L15
 478 002e 0024     		movs	r4, #0
 479 0030 02E0     		b	.L17
 480              	.LVL44:
 481              	.L20:
 322:./usbhost.h   ****     //uint8_t rv = SPI_ReadRxData();
 323:./usbhost.h   ****     int data = 0;
 324:./usbhost.h   ****     while(SPI_GetRxBufferSize()>0)
 325:./usbhost.h   ****     {
 326:./usbhost.h   ****         data = SPI_ReadRxData();
 482              		.loc 4 326 0
 483 0032 FFF7FEFF 		bl	SPI_ReadRxData
 484              	.LVL45:
 485 0036 0400     		movs	r4, r0
 486              	.LVL46:
 487              	.L17:
 324:./usbhost.h   ****     {
 488              		.loc 4 324 0
 489 0038 FFF7FEFF 		bl	SPI_GetRxBufferSize
 490              	.LVL47:
 491 003c 0028     		cmp	r0, #0
 492 003e F8D1     		bne	.L20
 493              	.LVL48:
 327:./usbhost.h   ****     //iprintf("RV: %d\r\n",data);
 328:./usbhost.h   ****     }
 329:./usbhost.h   ****     //iprintf("Done.\r\n");
 330:./usbhost.h   ****     //while(SPI_GetRxBufferSize()==0);
 331:./usbhost.h   ****     //uint8_t rv2 = 0;
 332:./usbhost.h   ****     uint8_t rv = 0;
 333:./usbhost.h   ****     //iprintf(" %d\r\n",SPI_ReadRxData());
 334:./usbhost.h   ****     SS_Write(1);
 494              		.loc 4 334 0
 495 0040 0120     		movs	r0, #1
 496 0042 FFF7FEFF 		bl	SS_Write
 497              	.LVL49:
 335:./usbhost.h   ****     return (data);
 336:./usbhost.h   ****     
 337:./usbhost.h   ****     //Old COde below
 338:./usbhost.h   ****         //UNC XMEM_ACQUIRE_SPI();
 339:./usbhost.h   **** #if defined(SPI_HAS_TRANSACTION)
 340:./usbhost.h   ****         SPI.beginTransaction(SPISettings(26000000, MSBFIRST, SPI_MODE0)); // The MAX3421E can handl
 341:./usbhost.h   **** #endif
ARM GAS  C:\Users\jrdia\AppData\Local\Temp\ccFTvYyK.s 			page 26


 342:./usbhost.h   ****         SPI_SS::Clear();
 343:./usbhost.h   **** 
 344:./usbhost.h   **** #if USING_SPI4TEENSY3
 345:./usbhost.h   ****         spi4teensy3::send(reg);
 346:./usbhost.h   ****         uint8_t rv = spi4teensy3::receive();
 347:./usbhost.h   ****         SPI_SS::Set();
 348:./usbhost.h   **** #elif defined(STM32F4)
 349:./usbhost.h   ****         HAL_SPI_Transmit(&SPI_Handle, &reg, 1, HAL_MAX_DELAY);
 350:./usbhost.h   ****         uint8_t rv = 0;
 351:./usbhost.h   ****         HAL_SPI_Receive(&SPI_Handle, &rv, 1, HAL_MAX_DELAY);
 352:./usbhost.h   ****         SPI_SS::Set();
 353:./usbhost.h   **** #elif !defined(SPDR) || defined(SPI_HAS_TRANSACTION)
 354:./usbhost.h   ****         //UNC SPI.transfer(reg);
 355:./usbhost.h   ****         //uint8_t rv = 0;//UNC uint8_t rv = SPI.transfer(0); // Send empty byte
 356:./usbhost.h   ****         SPI_SS::Set();
 357:./usbhost.h   **** #else
 358:./usbhost.h   ****         SPDR = reg;
 359:./usbhost.h   ****         while(!(SPSR & (1 << SPIF)));
 360:./usbhost.h   ****         SPDR = 0; // Send empty byte
 361:./usbhost.h   ****         while(!(SPSR & (1 << SPIF)));
 362:./usbhost.h   ****         SPI_SS::Set();
 363:./usbhost.h   ****         uint8_t rv = SPDR;
 364:./usbhost.h   **** #endif
 365:./usbhost.h   **** 
 366:./usbhost.h   **** #if defined(SPI_HAS_TRANSACTION)
 367:./usbhost.h   ****         SPI.endTransaction();
 368:./usbhost.h   **** #endif
 369:./usbhost.h   ****         //UNC XMEM_RELEASE_SPI();
 370:./usbhost.h   ****         return (rv);
 371:./usbhost.h   **** }
 498              		.loc 4 371 0
 499              		@ sp needed
 500 0046 E0B2     		uxtb	r0, r4
 501              	.LVL50:
 502 0048 10BD     		pop	{r4, pc}
 503              		.cfi_endproc
 504              	.LFE338:
 505              		.fnend
 506              		.size	_ZN8MAX3421eI4TPinI5PortbLh2EES0_IS1_Lh1EEE5regRdEh.isra.3, .-_ZN8MAX3421eI4TPinI5PortbLh2EE
 507 004a C046     		.section	.text._Z7intFuncv,"ax",%progbits
 508              		.align	2
 509              		.global	_Z7intFuncv
 510              		.code	16
 511              		.thumb_func
 512              		.type	_Z7intFuncv, %function
 513              	_Z7intFuncv:
 514              		.fnstart
 515              	.LFB321:
 516              		.file 5 "main.c"
   1:main.c        **** /* ========================================
   2:main.c        ****  *
   3:main.c        ****  * Copyright YOUR COMPANY, THE YEAR
   4:main.c        ****  * All Rights Reserved
   5:main.c        ****  * UNPUBLISHED, LICENSED SOFTWARE.
   6:main.c        ****  *
   7:main.c        ****  * CONFIDENTIAL AND PROPRIETARY INFORMATION
   8:main.c        ****  * WHICH IS THE PROPERTY OF your company.
ARM GAS  C:\Users\jrdia\AppData\Local\Temp\ccFTvYyK.s 			page 27


   9:main.c        ****  *
  10:main.c        ****  * ========================================
  11:main.c        **** */
  12:main.c        **** //TODO: Actually Work out SPI
  13:main.c        **** #include <stdint.h>
  14:main.c        **** //#include "iom328p.h"
  15:main.c        **** #define UBRRH
  16:main.c        **** 
  17:main.c        **** //static const uint8_t Pb2;
  18:main.c        **** //static const uint8_t Pb1;
  19:main.c        **** static const uint8_t PIN_SPI_SS   = 53;
  20:main.c        **** static const uint8_t PIN_SPI_MOSI = 51;
  21:main.c        **** static const uint8_t PIN_SPI_MISO = 50;
  22:main.c        **** static const uint8_t PIN_SPI_SCK  = 52;
  23:main.c        **** 
  24:main.c        **** //#define PIN_SPI_SS (4)
  25:main.c        **** //#define ARDUINO 101
  26:main.c        **** //#define __AVR_ATmega328P__
  27:main.c        **** //#define __AVR__
  28:main.c        **** #define __SFR_OFFSET 0x00
  29:main.c        **** #define _SFR_IO8(io_addr) ((io_addr) + __SFR_OFFSET)
  30:main.c        **** //#define USE_PORTB
  31:main.c        **** int PORTB;// _SFR_IO8(0x05)
  32:main.c        **** int DDRB;
  33:main.c        **** int PINB;
  34:main.c        **** #define PORTB0 0
  35:main.c        **** #define PORTB1 1
  36:main.c        **** #define PORTB2 2
  37:main.c        **** #define PORTB3 3
  38:main.c        **** #define PORTB4 4
  39:main.c        **** #define PORTB5 5
  40:main.c        **** #define PORTB6 6
  41:main.c        **** #define PORTB7 7
  42:main.c        **** uint8_t Pd1;
  43:main.c        **** uint8_t Pd2;
  44:main.c        **** uint8_t Pd3;
  45:main.c        **** uint8_t Pd4;
  46:main.c        **** uint8_t Pd5;
  47:main.c        **** uint8_t Pd6;
  48:main.c        **** uint8_t Pd7;
  49:main.c        **** uint8_t Pd8;
  50:main.c        **** uint8_t Pd0;
  51:main.c        **** //#include "iom328p.h"
  52:main.c        **** //#include "USB_HOST_SERIAL.h"
  53:main.c        **** 
  54:main.c        **** #ifdef __cplusplus
  55:main.c        **** extern "C" {
  56:main.c        **** #endif
  57:main.c        **** 
  58:main.c        **** 	// PSoC include, this has to be wrapped
  59:main.c        **** 	#include "project.h"
  60:main.c        **** 
  61:main.c        **** #ifdef __cplusplus
  62:main.c        **** }
  63:main.c        **** #endif
  64:main.c        **** 
  65:main.c        **** //Linker -lstdc++
ARM GAS  C:\Users\jrdia\AppData\Local\Temp\ccFTvYyK.s 			page 28


  66:main.c        **** 
  67:main.c        **** #include <PS4BT.h>
  68:main.c        **** #include "usbhub.h"
  69:main.c        **** 
  70:main.c        **** 
  71:main.c        **** USB Usb;
  72:main.c        **** BTD Btd(&Usb); // You have to create the Bluetooth Dongle instance like so
  73:main.c        **** PS4BT PS4(&Btd, PAIR);
  74:main.c        **** 
  75:main.c        **** bool printAngle, printTouch;
  76:main.c        **** uint8_t oldL2Value, oldR2Value;
  77:main.c        **** 
  78:main.c        **** void intFunc(void)
  79:main.c        **** {
 517              		.loc 5 79 0
 518              		.cfi_startproc
 519              		@ args = 0, pretend = 0, frame = 0
 520              		@ frame_needed = 0, uses_anonymous_args = 0
 521 0000 10B5     		push	{r4, lr}
 522              		.save {r4, lr}
 523              		.cfi_def_cfa_offset 8
 524              		.cfi_offset 4, -8
 525              		.cfi_offset 14, -4
  80:main.c        ****  UART_UartPutString("Terminal Count.");
 526              		.loc 5 80 0
 527 0002 0448     		ldr	r0, .L22
 528 0004 FFF7FEFF 		bl	UART_UartPutString
 529              	.LVL51:
  81:main.c        **** Millis_Timer_GetInterruptSource();
 530              		.loc 5 81 0
 531 0008 FFF7FEFF 		bl	Millis_Timer_GetInterruptSource
 532              	.LVL52:
  82:main.c        **** Millis_Timer_ClearInterrupt(Millis_Timer_INTR_MASK_TC|Millis_Timer_INTR_MASK_CC_MATCH);
 533              		.loc 5 82 0
 534 000c 0320     		movs	r0, #3
 535 000e FFF7FEFF 		bl	Millis_Timer_ClearInterrupt
 536              	.LVL53:
  83:main.c        **** }
 537              		.loc 5 83 0
 538              		@ sp needed
 539 0012 10BD     		pop	{r4, pc}
 540              	.L23:
 541              		.align	2
 542              	.L22:
 543 0014 00000000 		.word	.LC0
 544              		.cfi_endproc
 545              	.LFE321:
 546              		.fnend
 547              		.size	_Z7intFuncv, .-_Z7intFuncv
 548              		.section	.text._ZN8MAX3421eI4TPinI5PortbLh2EES0_IS1_Lh1EEE8busprobeEv,"axG",%progbits,_ZN8MAX3421e
 549              		.align	2
 550              		.weak	_ZN8MAX3421eI4TPinI5PortbLh2EES0_IS1_Lh1EEE8busprobeEv
 551              		.code	16
 552              		.thumb_func
 553              		.type	_ZN8MAX3421eI4TPinI5PortbLh2EES0_IS1_Lh1EEE8busprobeEv, %function
 554              	_ZN8MAX3421eI4TPinI5PortbLh2EES0_IS1_Lh1EEE8busprobeEv:
 555              		.fnstart
ARM GAS  C:\Users\jrdia\AppData\Local\Temp\ccFTvYyK.s 			page 29


 556              	.LFB329:
 372:./usbhost.h   **** /* multiple-byte register read  */
 373:./usbhost.h   **** 
 374:./usbhost.h   **** /* returns a pointer to a memory position after last read   */
 375:./usbhost.h   **** template< typename SPI_SS, typename INTR >
 376:./usbhost.h   **** uint8_t* MAX3421e< SPI_SS, INTR >::bytesRd(uint8_t reg, uint8_t nbytes, uint8_t* data_p) {
 377:./usbhost.h   ****         //UNC XMEM_ACQUIRE_SPI();
 378:./usbhost.h   ****     
 379:./usbhost.h   ****     
 380:./usbhost.h   ****         CyDelayUs(SPI_DELAY);
 381:./usbhost.h   ****     SS_Write(0);
 382:./usbhost.h   ****     SPI_WriteTxData(reg);
 383:./usbhost.h   ****             //UNC SPI.transfer(reg | 0x02);
 384:./usbhost.h   ****             while(SPI_GetRxBufferSize()==0);
 385:./usbhost.h   ****             SPI_ReadRxData();
 386:./usbhost.h   ****         while(nbytes) {
 387:./usbhost.h   ****             //UNC *data_p++ = SPI.transfer(0);
 388:./usbhost.h   ****             SPI_WriteTxData(0);
 389:./usbhost.h   ****             while(SPI_GetRxBufferSize()==0);
 390:./usbhost.h   ****             *data_p++ = SPI_ReadRxData();
 391:./usbhost.h   ****             nbytes--;
 392:./usbhost.h   ****         }
 393:./usbhost.h   ****         CyDelayUs(SPI_DELAY);
 394:./usbhost.h   ****         SS_Write(1);
 395:./usbhost.h   ****         return ( data_p);
 396:./usbhost.h   ****         
 397:./usbhost.h   ****         
 398:./usbhost.h   ****     //Old Code Below
 399:./usbhost.h   ****     
 400:./usbhost.h   ****     
 401:./usbhost.h   **** #if defined(SPI_HAS_TRANSACTION)
 402:./usbhost.h   ****         SPI.beginTransaction(SPISettings(26000000, MSBFIRST, SPI_MODE0)); // The MAX3421E can handl
 403:./usbhost.h   **** #endif
 404:./usbhost.h   ****         SPI_SS::Clear();
 405:./usbhost.h   **** 
 406:./usbhost.h   **** #if USING_SPI4TEENSY3
 407:./usbhost.h   ****         spi4teensy3::send(reg);
 408:./usbhost.h   ****         spi4teensy3::receive(data_p, nbytes);
 409:./usbhost.h   ****         data_p += nbytes;
 410:./usbhost.h   **** #elif defined(SPI_HAS_TRANSACTION) && !defined(ESP8266)
 411:./usbhost.h   ****         SPI.transfer(reg);
 412:./usbhost.h   ****         memset(data_p, 0, nbytes); // Make sure we send out empty bytes
 413:./usbhost.h   ****         SPI.transfer(data_p, nbytes);
 414:./usbhost.h   ****         data_p += nbytes;
 415:./usbhost.h   **** #elif defined(__ARDUINO_X86__)
 416:./usbhost.h   ****         SPI.transfer(reg);
 417:./usbhost.h   ****         SPI.transferBuffer(NULL, data_p, nbytes);
 418:./usbhost.h   ****         data_p += nbytes;
 419:./usbhost.h   **** #elif defined(STM32F4)
 420:./usbhost.h   ****         HAL_SPI_Transmit(&SPI_Handle, &reg, 1, HAL_MAX_DELAY);
 421:./usbhost.h   ****         memset(data_p, 0, nbytes); // Make sure we send out empty bytes
 422:./usbhost.h   ****         HAL_SPI_Receive(&SPI_Handle, data_p, nbytes, HAL_MAX_DELAY);
 423:./usbhost.h   ****         data_p += nbytes;
 424:./usbhost.h   **** #elif !defined(SPDR) // ESP8266
 425:./usbhost.h   ****         //UNC SPI.transfer(reg);
 426:./usbhost.h   ****         while(nbytes) {
 427:./usbhost.h   ****             //UNC *data_p++ = SPI.transfer(0);
ARM GAS  C:\Users\jrdia\AppData\Local\Temp\ccFTvYyK.s 			page 30


 428:./usbhost.h   ****             nbytes--;
 429:./usbhost.h   ****         }
 430:./usbhost.h   **** #else
 431:./usbhost.h   ****         SPDR = reg;
 432:./usbhost.h   ****         while(!(SPSR & (1 << SPIF))); //wait
 433:./usbhost.h   ****         while(nbytes) {
 434:./usbhost.h   ****                 SPDR = 0; // Send empty byte
 435:./usbhost.h   ****                 nbytes--;
 436:./usbhost.h   ****                 while(!(SPSR & (1 << SPIF)));
 437:./usbhost.h   **** #if 0
 438:./usbhost.h   ****                 {
 439:./usbhost.h   ****                         *data_p = SPDR;
 440:./usbhost.h   ****                         printf("%2.2x ", *data_p);
 441:./usbhost.h   ****                 }
 442:./usbhost.h   ****                 data_p++;
 443:./usbhost.h   ****         }
 444:./usbhost.h   ****         printf("\r\n");
 445:./usbhost.h   **** #else
 446:./usbhost.h   ****                 *data_p++ = SPDR;
 447:./usbhost.h   ****         }
 448:./usbhost.h   **** #endif
 449:./usbhost.h   **** #endif
 450:./usbhost.h   **** 
 451:./usbhost.h   ****         SPI_SS::Set();
 452:./usbhost.h   **** #if defined(SPI_HAS_TRANSACTION)
 453:./usbhost.h   ****         SPI.endTransaction();
 454:./usbhost.h   **** #endif
 455:./usbhost.h   ****         //UNC XMEM_RELEASE_SPI();
 456:./usbhost.h   ****         return ( data_p);
 457:./usbhost.h   **** }
 458:./usbhost.h   **** /* GPIO read. See gpioWr for explanation */
 459:./usbhost.h   **** 
 460:./usbhost.h   **** /* GPIN pins are in high nibbles of IOPINS1, IOPINS2    */
 461:./usbhost.h   **** template< typename SPI_SS, typename INTR >
 462:./usbhost.h   **** uint8_t MAX3421e< SPI_SS, INTR >::gpioRd() {
 463:./usbhost.h   ****         uint8_t gpin = 0;
 464:./usbhost.h   ****         gpin = regRd(rIOPINS2); //pins 4-7
 465:./usbhost.h   ****         gpin &= 0xf0; //clean lower nibble
 466:./usbhost.h   ****         gpin |= (regRd(rIOPINS1) >> 4); //shift low bits and OR with upper from previous operation.
 467:./usbhost.h   ****         return ( gpin);
 468:./usbhost.h   **** }
 469:./usbhost.h   **** 
 470:./usbhost.h   **** /* reset MAX3421E. Returns number of cycles it took for PLL to stabilize after reset
 471:./usbhost.h   ****   or zero if PLL haven't stabilized in 65535 cycles */
 472:./usbhost.h   **** template< typename SPI_SS, typename INTR >
 473:./usbhost.h   **** uint16_t MAX3421e< SPI_SS, INTR >::reset() {
 474:./usbhost.h   ****         uint16_t i = 0;
 475:./usbhost.h   ****         regWr(rUSBCTL, bmCHIPRES);
 476:./usbhost.h   ****         regWr(rUSBCTL, 0x00);
 477:./usbhost.h   ****         while(++i) {
 478:./usbhost.h   ****                 if((regRd(rUSBIRQ) & bmOSCOKIRQ)) {
 479:./usbhost.h   ****                         break;
 480:./usbhost.h   ****                 }
 481:./usbhost.h   ****         }
 482:./usbhost.h   ****         return ( i);
 483:./usbhost.h   **** }
 484:./usbhost.h   **** 
ARM GAS  C:\Users\jrdia\AppData\Local\Temp\ccFTvYyK.s 			page 31


 485:./usbhost.h   **** /* initialize MAX3421E. Set Host mode, pullups, and stuff. Returns 0 if success, -1 if not */
 486:./usbhost.h   **** template< typename SPI_SS, typename INTR >
 487:./usbhost.h   **** int8_t MAX3421e< SPI_SS, INTR >::Init() {
 488:./usbhost.h   ****     
 489:./usbhost.h   ****     SPI_Start();
 490:./usbhost.h   ****     //Old Code Below
 491:./usbhost.h   ****         XMEM_ACQUIRE_SPI();
 492:./usbhost.h   ****         // Moved here.
 493:./usbhost.h   ****         // you really should not init hardware in the constructor when it involves locks.
 494:./usbhost.h   ****         // Also avoids the vbus flicker issue confusing some devices.
 495:./usbhost.h   ****         /* pin and peripheral setup */
 496:./usbhost.h   ****         //SPI_SS::SetDirWrite();
 497:./usbhost.h   ****         //SPI_SS::Set();
 498:./usbhost.h   ****         spi::init();
 499:./usbhost.h   ****         //INTR::SetDirRead();
 500:./usbhost.h   ****         //XMEM_RELEASE_SPI();
 501:./usbhost.h   ****         /* MAX3421E - full-duplex SPI, level interrupt */
 502:./usbhost.h   ****         // GPX pin on. Moved here, otherwise we flicker the vbus.
 503:./usbhost.h   ****         regWr(rPINCTL, (bmFDUPSPI | bmINTLEVEL));
 504:./usbhost.h   **** 
 505:./usbhost.h   ****         if(reset() == 0) { //OSCOKIRQ hasn't asserted in time
 506:./usbhost.h   ****                 return ( -1);
 507:./usbhost.h   ****         }
 508:./usbhost.h   **** 
 509:./usbhost.h   ****         regWr(rMODE, bmDPPULLDN | bmDMPULLDN | bmHOST); // set pull-downs, Host
 510:./usbhost.h   **** 
 511:./usbhost.h   ****         regWr(rHIEN, bmCONDETIE | bmFRAMEIE); //connection detection
 512:./usbhost.h   **** 
 513:./usbhost.h   ****         /* check if device is connected */
 514:./usbhost.h   ****         regWr(rHCTL, bmSAMPLEBUS); // sample USB bus
 515:./usbhost.h   ****         while(!(regRd(rHCTL) & bmSAMPLEBUS)); //wait for sample operation to finish
 516:./usbhost.h   **** 
 517:./usbhost.h   ****         busprobe(); //check if anything is connected
 518:./usbhost.h   **** 
 519:./usbhost.h   ****         regWr(rHIRQ, bmCONDETIRQ); //clear connection detect interrupt
 520:./usbhost.h   ****         regWr(rCPUCTL, 0x01); //enable interrupt pin
 521:./usbhost.h   **** 
 522:./usbhost.h   ****         return ( 0);
 523:./usbhost.h   **** }
 524:./usbhost.h   **** 
 525:./usbhost.h   **** /* initialize MAX3421E. Set Host mode, pullups, and stuff. Returns 0 if success, -1 if not */
 526:./usbhost.h   **** template< typename SPI_SS, typename INTR >
 527:./usbhost.h   **** int8_t MAX3421e< SPI_SS, INTR >::Init(int mseconds) {
 528:./usbhost.h   ****         //UNC XMEM_ACQUIRE_SPI();
 529:./usbhost.h   ****         // Moved here.
 530:./usbhost.h   ****         // you really should not init hardware in the constructor when it involves locks.
 531:./usbhost.h   ****         // Also avoids the vbus flicker issue confusing some devices.
 532:./usbhost.h   ****         /* pin and peripheral setup */
 533:./usbhost.h   ****         SPI_SS::SetDirWrite();
 534:./usbhost.h   ****         SPI_SS::Set();
 535:./usbhost.h   ****         //UNC spi::init();
 536:./usbhost.h   ****         INTR::SetDirRead();
 537:./usbhost.h   ****         //UNC XMEM_RELEASE_SPI();
 538:./usbhost.h   ****         /* MAX3421E - full-duplex SPI, level interrupt, vbus off */
 539:./usbhost.h   ****         regWr(rPINCTL, (bmFDUPSPI | bmINTLEVEL | GPX_VBDET));
 540:./usbhost.h   **** 
 541:./usbhost.h   ****         if(reset() == 0) { //OSCOKIRQ hasn't asserted in time
ARM GAS  C:\Users\jrdia\AppData\Local\Temp\ccFTvYyK.s 			page 32


 542:./usbhost.h   ****                 return ( -1);
 543:./usbhost.h   ****         }
 544:./usbhost.h   **** 
 545:./usbhost.h   ****         // Delay a minimum of 1 second to ensure any capacitors are drained.
 546:./usbhost.h   ****         // 1 second is required to make sure we do not smoke a Microdrive!
 547:./usbhost.h   ****         if(mseconds < 1000) mseconds = 1000;
 548:./usbhost.h   ****         delay(mseconds);
 549:./usbhost.h   **** 
 550:./usbhost.h   ****         regWr(rMODE, bmDPPULLDN | bmDMPULLDN | bmHOST); // set pull-downs, Host
 551:./usbhost.h   **** 
 552:./usbhost.h   ****         regWr(rHIEN, bmCONDETIE | bmFRAMEIE); //connection detection
 553:./usbhost.h   **** 
 554:./usbhost.h   ****         /* check if device is connected */
 555:./usbhost.h   ****         regWr(rHCTL, bmSAMPLEBUS); // sample USB bus
 556:./usbhost.h   ****         while(!(regRd(rHCTL) & bmSAMPLEBUS)); //wait for sample operation to finish
 557:./usbhost.h   **** 
 558:./usbhost.h   ****         busprobe(); //check if anything is connected
 559:./usbhost.h   **** 
 560:./usbhost.h   ****         regWr(rHIRQ, bmCONDETIRQ); //clear connection detect interrupt
 561:./usbhost.h   ****         regWr(rCPUCTL, 0x01); //enable interrupt pin
 562:./usbhost.h   **** 
 563:./usbhost.h   ****         // GPX pin on. This is done here so that busprobe will fail if we have a switch connected.
 564:./usbhost.h   ****         regWr(rPINCTL, (bmFDUPSPI | bmINTLEVEL));
 565:./usbhost.h   **** 
 566:./usbhost.h   ****         return ( 0);
 567:./usbhost.h   **** }
 568:./usbhost.h   **** 
 569:./usbhost.h   **** /* probe bus to determine device presence and speed and switch host to this speed */
 570:./usbhost.h   **** template< typename SPI_SS, typename INTR >
 571:./usbhost.h   **** void MAX3421e< SPI_SS, INTR >::busprobe() {
 557              		.loc 4 571 0
 558              		.cfi_startproc
 559              		@ args = 0, pretend = 0, frame = 0
 560              		@ frame_needed = 0, uses_anonymous_args = 0
 561              	.LVL54:
 562 0000 10B5     		push	{r4, lr}
 563              		.save {r4, lr}
 564              		.cfi_def_cfa_offset 8
 565              		.cfi_offset 4, -8
 566              		.cfi_offset 14, -4
 572:./usbhost.h   ****         uint8_t bus_sample;
 573:./usbhost.h   ****         bus_sample = regRd(rHRSL); //Get J,K status
 567              		.loc 4 573 0
 568 0002 F820     		movs	r0, #248
 569              	.LVL55:
 570 0004 FFF7FEFF 		bl	_ZN8MAX3421eI4TPinI5PortbLh2EES0_IS1_Lh1EEE5regRdEh.isra.3
 571              	.LVL56:
 574:./usbhost.h   ****         bus_sample &= (bmJSTATUS | bmKSTATUS); //zero the rest of the byte
 575:./usbhost.h   ****         switch(bus_sample) { //start full-speed or low-speed host
 572              		.loc 4 575 0
 573 0008 C023     		movs	r3, #192
 574 000a 1840     		ands	r0, r3
 575              	.LVL57:
 576 000c 0400     		movs	r4, r0
 577 000e 4028     		cmp	r0, #64
 578 0010 15D0     		beq	.L26
 579 0012 21D9     		bls	.L36
ARM GAS  C:\Users\jrdia\AppData\Local\Temp\ccFTvYyK.s 			page 33


 580 0014 8028     		cmp	r0, #128
 581 0016 05D0     		beq	.L29
 582 0018 C028     		cmp	r0, #192
 583 001a 02D1     		bne	.L24
 576:./usbhost.h   ****                 case( bmJSTATUS):
 577:./usbhost.h   ****                         if((regRd(rMODE) & bmLOWSPEED) == 0) {
 578:./usbhost.h   ****                                 regWr(rMODE, MODE_FS_HOST); //start full-speed host
 579:./usbhost.h   ****                                 vbusState = FSHOST;
 580:./usbhost.h   ****                         } else {
 581:./usbhost.h   ****                                 regWr(rMODE, MODE_LS_HOST); //start low-speed host
 582:./usbhost.h   ****                                 vbusState = LSHOST;
 583:./usbhost.h   ****                         }
 584:./usbhost.h   ****                         break;
 585:./usbhost.h   ****                 case( bmKSTATUS):
 586:./usbhost.h   ****                         if((regRd(rMODE) & bmLOWSPEED) == 0) {
 587:./usbhost.h   ****                                 regWr(rMODE, MODE_LS_HOST); //start low-speed host
 588:./usbhost.h   ****                                 vbusState = LSHOST;
 589:./usbhost.h   ****                         } else {
 590:./usbhost.h   ****                                 regWr(rMODE, MODE_FS_HOST); //start full-speed host
 591:./usbhost.h   ****                                 vbusState = FSHOST;
 592:./usbhost.h   ****                         }
 593:./usbhost.h   ****                         break;
 594:./usbhost.h   ****                 case( bmSE1): //illegal state
 595:./usbhost.h   ****                         vbusState = SE1;
 584              		.loc 4 595 0
 585 001c 0122     		movs	r2, #1
 586 001e 134B     		ldr	r3, .L37
 587 0020 1A70     		strb	r2, [r3]
 588              	.L24:
 596:./usbhost.h   ****                         break;
 597:./usbhost.h   ****                 case( bmSE0): //disconnected state
 598:./usbhost.h   ****                         regWr(rMODE, bmDPPULLDN | bmDMPULLDN | bmHOST | bmSEPIRQ);
 599:./usbhost.h   ****                         vbusState = SE0;
 600:./usbhost.h   ****                         break;
 601:./usbhost.h   ****         }//end switch( bus_sample )
 602:./usbhost.h   **** }
 589              		.loc 4 602 0
 590              		@ sp needed
 591 0022 10BD     		pop	{r4, pc}
 592              	.L29:
 577:./usbhost.h   ****                                 regWr(rMODE, MODE_FS_HOST); //start full-speed host
 593              		.loc 4 577 0
 594 0024 D820     		movs	r0, #216
 595 0026 FFF7FEFF 		bl	_ZN8MAX3421eI4TPinI5PortbLh2EES0_IS1_Lh1EEE5regRdEh.isra.3
 596              	.LVL58:
 597 002a 8307     		lsls	r3, r0, #30
 598 002c 0CD4     		bmi	.L31
 599              	.L32:
 578:./usbhost.h   ****                                 vbusState = FSHOST;
 600              		.loc 4 578 0
 601 002e C921     		movs	r1, #201
 602 0030 D820     		movs	r0, #216
 603 0032 FFF7FEFF 		bl	_ZN8MAX3421eI4TPinI5PortbLh2EES0_IS1_Lh1EEE5regWrEhh.isra.2
 604              	.LVL59:
 579:./usbhost.h   ****                         } else {
 605              		.loc 4 579 0
 606 0036 0222     		movs	r2, #2
ARM GAS  C:\Users\jrdia\AppData\Local\Temp\ccFTvYyK.s 			page 34


 607 0038 0C4B     		ldr	r3, .L37
 608 003a 1A70     		strb	r2, [r3]
 609 003c F1E7     		b	.L24
 610              	.L26:
 611              	.LVL60:
 612              	.LBB125:
 613              	.LBB126:
 586:./usbhost.h   ****                                 regWr(rMODE, MODE_LS_HOST); //start low-speed host
 614              		.loc 4 586 0
 615 003e D820     		movs	r0, #216
 616 0040 FFF7FEFF 		bl	_ZN8MAX3421eI4TPinI5PortbLh2EES0_IS1_Lh1EEE5regRdEh.isra.3
 617              	.LVL61:
 618 0044 8307     		lsls	r3, r0, #30
 619 0046 F2D4     		bmi	.L32
 620              	.LVL62:
 621              	.L31:
 622              	.LBE126:
 623              	.LBE125:
 581:./usbhost.h   ****                                 vbusState = LSHOST;
 624              		.loc 4 581 0
 625 0048 CB21     		movs	r1, #203
 626 004a D820     		movs	r0, #216
 627 004c FFF7FEFF 		bl	_ZN8MAX3421eI4TPinI5PortbLh2EES0_IS1_Lh1EEE5regWrEhh.isra.2
 628              	.LVL63:
 582:./usbhost.h   ****                         }
 629              		.loc 4 582 0
 630 0050 0322     		movs	r2, #3
 631 0052 064B     		ldr	r3, .L37
 632 0054 1A70     		strb	r2, [r3]
 633 0056 E4E7     		b	.L24
 634              	.L36:
 575:./usbhost.h   ****                 case( bmJSTATUS):
 635              		.loc 4 575 0
 636 0058 0028     		cmp	r0, #0
 637 005a E2D1     		bne	.L24
 598:./usbhost.h   ****                         vbusState = SE0;
 638              		.loc 4 598 0
 639 005c D121     		movs	r1, #209
 640 005e D820     		movs	r0, #216
 641 0060 FFF7FEFF 		bl	_ZN8MAX3421eI4TPinI5PortbLh2EES0_IS1_Lh1EEE5regWrEhh.isra.2
 642              	.LVL64:
 599:./usbhost.h   ****                         break;
 643              		.loc 4 599 0
 644 0064 014B     		ldr	r3, .L37
 645 0066 1C70     		strb	r4, [r3]
 646              		.loc 4 602 0
 647 0068 DBE7     		b	.L24
 648              	.L38:
 649 006a C046     		.align	2
 650              	.L37:
 651 006c 00000000 		.word	_ZN8MAX3421eI4TPinI5PortbLh2EES0_IS1_Lh1EEE9vbusStateE
 652              		.cfi_endproc
 653              	.LFE329:
 654              		.fnend
 655              		.size	_ZN8MAX3421eI4TPinI5PortbLh2EES0_IS1_Lh1EEE8busprobeEv, .-_ZN8MAX3421eI4TPinI5PortbLh2EES0_I
 656              		.section	.text._ZN8MAX3421eI4TPinI5PortbLh2EES0_IS1_Lh1EEE4InitEv,"axG",%progbits,_ZN8MAX3421eI4TP
 657              		.align	2
ARM GAS  C:\Users\jrdia\AppData\Local\Temp\ccFTvYyK.s 			page 35


 658              		.weak	_ZN8MAX3421eI4TPinI5PortbLh2EES0_IS1_Lh1EEE4InitEv
 659              		.code	16
 660              		.thumb_func
 661              		.type	_ZN8MAX3421eI4TPinI5PortbLh2EES0_IS1_Lh1EEE4InitEv, %function
 662              	_ZN8MAX3421eI4TPinI5PortbLh2EES0_IS1_Lh1EEE4InitEv:
 663              		.fnstart
 664              	.LFB324:
 487:./usbhost.h   ****     
 665              		.loc 4 487 0
 666              		.cfi_startproc
 667              		@ args = 0, pretend = 0, frame = 0
 668              		@ frame_needed = 0, uses_anonymous_args = 0
 669              	.LVL65:
 670 0000 70B5     		push	{r4, r5, r6, lr}
 671              		.save {r4, r5, r6, lr}
 672              		.cfi_def_cfa_offset 16
 673              		.cfi_offset 4, -16
 674              		.cfi_offset 5, -12
 675              		.cfi_offset 6, -8
 676              		.cfi_offset 14, -4
 487:./usbhost.h   ****     
 677              		.loc 4 487 0
 678 0002 0600     		movs	r6, r0
 489:./usbhost.h   ****     //Old Code Below
 679              		.loc 4 489 0
 680 0004 FFF7FEFF 		bl	SPI_Start
 681              	.LVL66:
 682              	.LBB145:
 683              	.LBB146:
 684              	.LBB147:
 685              	.LBB148:
 686              		.file 6 "./avrpins.h"
   1:./avrpins.h   **** /* Copyright (C) 2011 Circuits At Home, LTD. All rights reserved.
   2:./avrpins.h   **** 
   3:./avrpins.h   **** This software may be distributed and modified under the terms of the GNU
   4:./avrpins.h   **** General Public License version 2 (GPL2) as published by the Free Software
   5:./avrpins.h   **** Foundation and appearing in the file GPL2.TXT included in the packaging of
   6:./avrpins.h   **** this file. Please note that GPL2 Section 2[b] requires that all works based
   7:./avrpins.h   **** on this software must also be made publicly available under the terms of
   8:./avrpins.h   **** the GPL2 ("Copyleft").
   9:./avrpins.h   **** 
  10:./avrpins.h   **** Contact information
  11:./avrpins.h   **** -------------------
  12:./avrpins.h   **** 
  13:./avrpins.h   **** Circuits At Home, LTD
  14:./avrpins.h   **** Web      :  http://www.circuitsathome.com
  15:./avrpins.h   **** e-mail   :  support@circuitsathome.com
  16:./avrpins.h   ****  */
  17:./avrpins.h   **** 
  18:./avrpins.h   **** /* derived from Konstantin Chizhov's AVR port templates */
  19:./avrpins.h   **** 
  20:./avrpins.h   **** #if !defined(_usb_h_) || defined(_avrpins_h_)
  21:./avrpins.h   **** #error "Never include avrpins.h directly; include Usb.h instead"
  22:./avrpins.h   **** #else
  23:./avrpins.h   **** #define _avrpins_h_
  24:./avrpins.h   **** 
  25:./avrpins.h   **** extern    int PORTB;// _SFR_IO8(0x05)
ARM GAS  C:\Users\jrdia\AppData\Local\Temp\ccFTvYyK.s 			page 36


  26:./avrpins.h   **** extern int DDRB;
  27:./avrpins.h   **** extern int PINB;
  28:./avrpins.h   **** #if defined(__AVR__)
  29:./avrpins.h   **** 
  30:./avrpins.h   **** // pointers are 16 bits on AVR
  31:./avrpins.h   **** #define pgm_read_pointer(p) pgm_read_word(p)
  32:./avrpins.h   **** 
  33:./avrpins.h   **** // Support for these boards needs to be manually activated in settings.h or in a makefile
  34:./avrpins.h   **** #if !defined(BOARD_MEGA_ADK) && defined(__AVR_ATmega2560__) && (USE_UHS_MEGA_ADK || defined(ARDUINO
  35:./avrpins.h   **** #define BOARD_MEGA_ADK
  36:./avrpins.h   **** #elif !defined(BOARD_BLACK_WIDDOW) && USE_UHS_BLACK_WIDDOW
  37:./avrpins.h   **** #define BOARD_BLACK_WIDDOW
  38:./avrpins.h   **** #endif
  39:./avrpins.h   **** 
  40:./avrpins.h   **** #ifdef PORTA
  41:./avrpins.h   **** #define USE_PORTA
  42:./avrpins.h   **** #endif
  43:./avrpins.h   **** #ifdef PORTB
  44:./avrpins.h   **** #define USE_PORTB
  45:./avrpins.h   **** #endif
  46:./avrpins.h   **** #ifdef PORTC
  47:./avrpins.h   **** #define USE_PORTC
  48:./avrpins.h   **** #endif
  49:./avrpins.h   **** #ifdef PORTD
  50:./avrpins.h   **** #define USE_PORTD
  51:./avrpins.h   **** #endif
  52:./avrpins.h   **** #ifdef PORTE
  53:./avrpins.h   **** #define USE_PORTE
  54:./avrpins.h   **** #endif
  55:./avrpins.h   **** #ifdef PORTF
  56:./avrpins.h   **** #define USE_PORTF
  57:./avrpins.h   **** #endif
  58:./avrpins.h   **** #ifdef PORTG
  59:./avrpins.h   **** #define USE_PORTG
  60:./avrpins.h   **** #endif
  61:./avrpins.h   **** #ifdef PORTH
  62:./avrpins.h   **** #define USE_PORTH
  63:./avrpins.h   **** #endif
  64:./avrpins.h   **** #ifdef PORTJ
  65:./avrpins.h   **** #define USE_PORTJ
  66:./avrpins.h   **** #endif
  67:./avrpins.h   **** #ifdef PORTK
  68:./avrpins.h   **** #define USE_PORTK
  69:./avrpins.h   **** #endif
  70:./avrpins.h   **** #ifdef PORTL
  71:./avrpins.h   **** #define USE_PORTL
  72:./avrpins.h   **** #endif
  73:./avrpins.h   **** #ifdef PORTQ
  74:./avrpins.h   **** #define USE_PORTQ
  75:./avrpins.h   **** #endif
  76:./avrpins.h   **** #ifdef PORTR
  77:./avrpins.h   **** #define USE_PORTR
  78:./avrpins.h   **** #endif
  79:./avrpins.h   **** 
  80:./avrpins.h   **** #ifdef TCCR0A
  81:./avrpins.h   **** #define USE_TCCR0A
  82:./avrpins.h   **** #endif
ARM GAS  C:\Users\jrdia\AppData\Local\Temp\ccFTvYyK.s 			page 37


  83:./avrpins.h   **** #ifdef TCCR1A
  84:./avrpins.h   **** #define USE_TCCR1A
  85:./avrpins.h   **** #endif
  86:./avrpins.h   **** #ifdef TCCR2A
  87:./avrpins.h   **** #define USE_TCCR2A
  88:./avrpins.h   **** #endif
  89:./avrpins.h   **** 
  90:./avrpins.h   **** //Port definitions for AtTiny, AtMega families.
  91:./avrpins.h   **** //UNC Below
  92:./avrpins.h   **** #define MAKE_PORT(portName, ddrName, pinName, className, ID) \
  93:./avrpins.h   ****     class className{\
  94:./avrpins.h   ****     public:\
  95:./avrpins.h   ****       typedef uint8_t DataT;\
  96:./avrpins.h   ****     public:\
  97:./avrpins.h   ****       static void Write(DataT value){portName = value;}\
  98:./avrpins.h   ****       static void ClearAndSet(DataT clearMask, DataT value){portName = (portName & ~clearMask) | va
  99:./avrpins.h   ****       static DataT Read(){return portName;}\
 100:./avrpins.h   ****       static void DirWrite(DataT value){ddrName = value;}\
 101:./avrpins.h   ****       static DataT DirRead(){return ddrName;}\
 102:./avrpins.h   ****       static void Set(DataT value){portName |= value;}\
 103:./avrpins.h   ****       static void Clear(DataT value){portName &= ~value;}\
 104:./avrpins.h   ****       static void Toggle(DataT value){portName ^= value;}\
 105:./avrpins.h   ****       static void DirSet(DataT value){ddrName |= value;}\
 106:./avrpins.h   ****       static void DirClear(DataT value){ddrName &= ~value;}\
 107:./avrpins.h   ****       static void DirToggle(DataT value){ddrName ^= value;}\
 108:./avrpins.h   ****       static DataT PinRead(){return pinName;}\
 109:./avrpins.h   ****       enum{Id = ID};\
 110:./avrpins.h   ****       enum{Width=sizeof(DataT)*8};\
 111:./avrpins.h   ****     };
 112:./avrpins.h   **** 
 113:./avrpins.h   **** // TCCR registers to set/clear Arduino PWM
 114:./avrpins.h   **** #define MAKE_TCCR(TccrName, className) \
 115:./avrpins.h   ****     class className{\
 116:./avrpins.h   ****     public:\
 117:./avrpins.h   ****       typedef uint8_t DataT;\
 118:./avrpins.h   ****     public:\
 119:./avrpins.h   ****       static void Write(DataT value){TccrName = value;}\
 120:./avrpins.h   ****       static void ClearAndSet(DataT clearMask, DataT value){TccrName = (TccrName & ~clearMask) | va
 121:./avrpins.h   ****       static DataT Read(){return TccrName;}\
 122:./avrpins.h   ****       static void Set(DataT value){TccrName |= value;}\
 123:./avrpins.h   ****       static void Clear(DataT value){TccrName &= ~value;}\
 124:./avrpins.h   ****       static void Toggle(DataT value){TccrName ^= value;}\
 125:./avrpins.h   ****       enum{Width=sizeof(DataT)*8};\
 126:./avrpins.h   ****     };
 127:./avrpins.h   **** 
 128:./avrpins.h   **** #ifdef USE_PORTA
 129:./avrpins.h   **** 
 130:./avrpins.h   **** MAKE_PORT(PORTA, DDRA, PINA, Porta, 'A')
 131:./avrpins.h   **** #endif
 132:./avrpins.h   **** #ifdef USE_PORTB
 133:./avrpins.h   **** MAKE_PORT(PORTB, DDRB, PINB, Portb, 'B')
 687              		.loc 6 133 0
 688 0008 0422     		movs	r2, #4
 689 000a 204B     		ldr	r3, .L51
 690              	.LBE148:
 691              	.LBE147:
 692              	.LBE146:
ARM GAS  C:\Users\jrdia\AppData\Local\Temp\ccFTvYyK.s 			page 38


 693              	.LBE145:
 503:./usbhost.h   **** 
 694              		.loc 4 503 0
 695 000c 8820     		movs	r0, #136
 696              	.LBB164:
 697              	.LBB153:
 698              	.LBB151:
 699              	.LBB149:
 700              		.loc 6 133 0
 701 000e 1968     		ldr	r1, [r3]
 702              	.LBE149:
 703              	.LBE151:
 704              	.LBE153:
 705              	.LBE164:
 706              	.LBB165:
 707              	.LBB166:
 476:./usbhost.h   ****         while(++i) {
 708              		.loc 4 476 0
 709 0010 1F4C     		ldr	r4, .L51+4
 710              	.LBE166:
 711              	.LBE165:
 712              	.LBB169:
 713              	.LBB154:
 714              	.LBB152:
 715              	.LBB150:
 716              		.loc 6 133 0
 717 0012 1143     		orrs	r1, r2
 718 0014 1960     		str	r1, [r3]
 719              	.LVL67:
 720              	.LBE150:
 721              	.LBE152:
 722              	.LBE154:
 723              	.LBB155:
 724              	.LBB156:
 725              	.LBB157:
 726 0016 5968     		ldr	r1, [r3, #4]
 727              	.LBE157:
 728              	.LBE156:
 729              	.LBE155:
 730              	.LBE169:
 731              	.LBB170:
 732              	.LBB167:
 478:./usbhost.h   ****                         break;
 733              		.loc 4 478 0
 734 0018 0125     		movs	r5, #1
 735              	.LBE167:
 736              	.LBE170:
 737              	.LBB171:
 738              	.LBB162:
 739              	.LBB160:
 740              	.LBB158:
 741              		.loc 6 133 0
 742 001a 0A43     		orrs	r2, r1
 743              	.LBE158:
 744              	.LBE160:
 745              	.LBE162:
 746              	.LBE171:
ARM GAS  C:\Users\jrdia\AppData\Local\Temp\ccFTvYyK.s 			page 39


 503:./usbhost.h   **** 
 747              		.loc 4 503 0
 748 001c 1821     		movs	r1, #24
 749              	.LBB172:
 750              	.LBB163:
 751              	.LBB161:
 752              	.LBB159:
 753              		.loc 6 133 0
 754 001e 5A60     		str	r2, [r3, #4]
 755              	.LVL68:
 756              	.LBE159:
 757              	.LBE161:
 758              	.LBE163:
 759              	.LBE172:
 503:./usbhost.h   **** 
 760              		.loc 4 503 0
 761 0020 FFF7FEFF 		bl	_ZN8MAX3421eI4TPinI5PortbLh2EES0_IS1_Lh1EEE5regWrEhh.isra.2
 762              	.LVL69:
 763              	.LBB173:
 764              	.LBB168:
 475:./usbhost.h   ****         regWr(rUSBCTL, 0x00);
 765              		.loc 4 475 0
 766 0024 2021     		movs	r1, #32
 767 0026 7820     		movs	r0, #120
 768 0028 FFF7FEFF 		bl	_ZN8MAX3421eI4TPinI5PortbLh2EES0_IS1_Lh1EEE5regWrEhh.isra.2
 769              	.LVL70:
 476:./usbhost.h   ****         while(++i) {
 770              		.loc 4 476 0
 771 002c 0021     		movs	r1, #0
 772 002e 7820     		movs	r0, #120
 773 0030 FFF7FEFF 		bl	_ZN8MAX3421eI4TPinI5PortbLh2EES0_IS1_Lh1EEE5regWrEhh.isra.2
 774              	.LVL71:
 775 0034 03E0     		b	.L40
 776              	.LVL72:
 777              	.L48:
 778 0036 013C     		subs	r4, r4, #1
 779              	.LVL73:
 780 0038 A4B2     		uxth	r4, r4
 477:./usbhost.h   ****                 if((regRd(rUSBIRQ) & bmOSCOKIRQ)) {
 781              		.loc 4 477 0
 782 003a 002C     		cmp	r4, #0
 783 003c 23D0     		beq	.L45
 784              	.L40:
 785              	.LVL74:
 478:./usbhost.h   ****                         break;
 786              		.loc 4 478 0
 787 003e 6820     		movs	r0, #104
 788 0040 FFF7FEFF 		bl	_ZN8MAX3421eI4TPinI5PortbLh2EES0_IS1_Lh1EEE5regRdEh.isra.3
 789              	.LVL75:
 790 0044 0542     		tst	r5, r0
 791 0046 F6D0     		beq	.L48
 792              	.LVL76:
 793              	.LBE168:
 794              	.LBE173:
 509:./usbhost.h   **** 
 795              		.loc 4 509 0
 796 0048 C121     		movs	r1, #193
ARM GAS  C:\Users\jrdia\AppData\Local\Temp\ccFTvYyK.s 			page 40


 797 004a D820     		movs	r0, #216
 798 004c FFF7FEFF 		bl	_ZN8MAX3421eI4TPinI5PortbLh2EES0_IS1_Lh1EEE5regWrEhh.isra.2
 799              	.LVL77:
 511:./usbhost.h   **** 
 800              		.loc 4 511 0
 801 0050 6021     		movs	r1, #96
 802 0052 D020     		movs	r0, #208
 803 0054 FFF7FEFF 		bl	_ZN8MAX3421eI4TPinI5PortbLh2EES0_IS1_Lh1EEE5regWrEhh.isra.2
 804              	.LVL78:
 514:./usbhost.h   ****         while(!(regRd(rHCTL) & bmSAMPLEBUS)); //wait for sample operation to finish
 805              		.loc 4 514 0
 806 0058 0421     		movs	r1, #4
 807 005a E820     		movs	r0, #232
 808 005c FFF7FEFF 		bl	_ZN8MAX3421eI4TPinI5PortbLh2EES0_IS1_Lh1EEE5regWrEhh.isra.2
 809              	.LVL79:
 810              	.LBB174:
 811              	.LBB175:
 515:./usbhost.h   **** 
 812              		.loc 4 515 0
 813 0060 0424     		movs	r4, #4
 814              	.L44:
 815 0062 E820     		movs	r0, #232
 816 0064 FFF7FEFF 		bl	_ZN8MAX3421eI4TPinI5PortbLh2EES0_IS1_Lh1EEE5regRdEh.isra.3
 817              	.LVL80:
 818 0068 0442     		tst	r4, r0
 819 006a FAD0     		beq	.L44
 517:./usbhost.h   **** 
 820              		.loc 4 517 0
 821 006c 3000     		movs	r0, r6
 822 006e FFF7FEFF 		bl	_ZN8MAX3421eI4TPinI5PortbLh2EES0_IS1_Lh1EEE8busprobeEv
 823              	.LVL81:
 519:./usbhost.h   ****         regWr(rCPUCTL, 0x01); //enable interrupt pin
 824              		.loc 4 519 0
 825 0072 2021     		movs	r1, #32
 826 0074 C820     		movs	r0, #200
 827 0076 FFF7FEFF 		bl	_ZN8MAX3421eI4TPinI5PortbLh2EES0_IS1_Lh1EEE5regWrEhh.isra.2
 828              	.LVL82:
 520:./usbhost.h   **** 
 829              		.loc 4 520 0
 830 007a 8020     		movs	r0, #128
 831 007c 0121     		movs	r1, #1
 832 007e FFF7FEFF 		bl	_ZN8MAX3421eI4TPinI5PortbLh2EES0_IS1_Lh1EEE5regWrEhh.isra.2
 833              	.LVL83:
 834 0082 0020     		movs	r0, #0
 835              	.L49:
 836              	.LBE175:
 837              	.LBE174:
 523:./usbhost.h   **** 
 838              		.loc 4 523 0
 839              		@ sp needed
 840              	.LVL84:
 841 0084 70BD     		pop	{r4, r5, r6, pc}
 842              	.LVL85:
 843              	.L45:
 506:./usbhost.h   ****         }
 844              		.loc 4 506 0
 845 0086 0120     		movs	r0, #1
ARM GAS  C:\Users\jrdia\AppData\Local\Temp\ccFTvYyK.s 			page 41


 846 0088 4042     		rsbs	r0, r0, #0
 847 008a FBE7     		b	.L49
 848              	.L52:
 849              		.align	2
 850              	.L51:
 851 008c 00000000 		.word	.LANCHOR0
 852 0090 FFFF0000 		.word	65535
 853              		.cfi_endproc
 854              	.LFE324:
 855              		.fnend
 856              		.size	_ZN8MAX3421eI4TPinI5PortbLh2EES0_IS1_Lh1EEE4InitEv, .-_ZN8MAX3421eI4TPinI5PortbLh2EES0_IS1_L
 857              		.section	.text.startup.main,"ax",%progbits
 858              		.align	2
 859              		.global	main
 860              		.code	16
 861              		.thumb_func
 862              		.type	main, %function
 863              	main:
 864              		.fnstart
 865              	.LFB322:
  84:main.c        **** int main(void)
  85:main.c        **** {
 866              		.loc 5 85 0
 867              		.cfi_startproc
 868              		@ args = 0, pretend = 0, frame = 0
 869              		@ frame_needed = 0, uses_anonymous_args = 0
 870 0000 F8B5     		push	{r3, r4, r5, r6, r7, lr}
 871              		.save {r3, r4, r5, r6, r7, lr}
 872              		.cfi_def_cfa_offset 24
 873              		.cfi_offset 3, -24
 874              		.cfi_offset 4, -20
 875              		.cfi_offset 5, -16
 876              		.cfi_offset 6, -12
 877              		.cfi_offset 7, -8
 878              		.cfi_offset 14, -4
 879 0002 5F46     		mov	r7, fp
 880 0004 5646     		mov	r6, r10
 881 0006 4D46     		mov	r5, r9
 882 0008 4446     		mov	r4, r8
 883 000a F0B4     		push	{r4, r5, r6, r7}
 884              		.save {r8, r9, r10, fp}
 885              		.cfi_def_cfa_offset 40
 886              		.cfi_offset 8, -40
 887              		.cfi_offset 9, -36
 888              		.cfi_offset 10, -32
 889              		.cfi_offset 11, -28
  86:main.c        ****     
  87:main.c        ****     Millis_Timer_Start();
 890              		.loc 5 87 0
 891 000c FFF7FEFF 		bl	Millis_Timer_Start
 892              	.LVL86:
  88:main.c        ****     
  89:main.c        ****     //isr_1_StartEx(intFunc);
  90:main.c        **** 
  91:main.c        ****     CyGlobalIntEnable; /* Enable global interrupts. */
 893              		.loc 5 91 0
 894              		.syntax divided
ARM GAS  C:\Users\jrdia\AppData\Local\Temp\ccFTvYyK.s 			page 42


 895              	@ 91 "main.c" 1
 896 0010 62B6     		CPSIE   i
 897              	@ 0 "" 2
  92:main.c        **** 
  93:main.c        ****     /* Place your initialization/startup code here (e.g. MyInst_Start()) */
  94:main.c        **** 
  95:main.c        ****     UART_Start();
 898              		.loc 5 95 0
 899              		.thumb
 900              		.syntax unified
 901 0012 FFF7FEFF 		bl	UART_Start
 902              	.LVL87:
  96:main.c        ****     UART_UartPutString("Starting Bluetooth Test.\r\n");
 903              		.loc 5 96 0
 904 0016 D048     		ldr	r0, .L164
 905 0018 FFF7FEFF 		bl	UART_UartPutString
 906              	.LVL88:
  97:main.c        ****     
  98:main.c        ****       if (Usb.Init() == -1) {
 907              		.loc 5 98 0
 908 001c CF48     		ldr	r0, .L164+4
 909 001e 0830     		adds	r0, r0, #8
 910 0020 FFF7FEFF 		bl	_ZN8MAX3421eI4TPinI5PortbLh2EES0_IS1_Lh1EEE4InitEv
 911              	.LVL89:
 912 0024 431C     		adds	r3, r0, #1
 913 0026 00D1     		bne	.LCB756
 914 0028 8BE2     		b	.L144	@long jump
 915              	.LCB756:
  99:main.c        ****     UART_UartPutString(("\r\nOSC did not start\r\n"));
 100:main.c        ****     while (1); // Halt
 101:main.c        ****   }
 102:main.c        ****     else
 103:main.c        ****     {
 104:main.c        ****         UART_UartPutString("USB Initialized.\r\n");
 916              		.loc 5 104 0
 917 002a CD48     		ldr	r0, .L164+8
 918 002c FFF7FEFF 		bl	UART_UartPutString
 919              	.LVL90:
 920 0030 CC4B     		ldr	r3, .L164+12
 921 0032 CD4D     		ldr	r5, .L164+16
 922 0034 9B46     		mov	fp, r3
 923              	.LBB176:
 924              	.LBB177:
 925              	.LBB178:
 105:main.c        ****     }
 106:main.c        ****     for(;;)
 107:main.c        ****     {
 108:main.c        ****           Usb.Task();
 109:main.c        **** 
 110:main.c        ****   if (PS4.connected()) {
 111:main.c        ****         /* Place your application code here. */
 112:main.c        ****         if (PS4.getAnalogHat(LeftHatX) > 137 || PS4.getAnalogHat(LeftHatX) < 117 || PS4.getAnalogHa
 113:main.c        ****       iprintf(("\r\nLeftHatX: "));
 114:main.c        ****       iprintf("%d",PS4.getAnalogHat(LeftHatX));
 115:main.c        ****       iprintf(("\tLeftHatY: "));
 116:main.c        ****       iprintf("%d",PS4.getAnalogHat(LeftHatY));
 117:main.c        ****       iprintf(("\tRightHatX: "));
ARM GAS  C:\Users\jrdia\AppData\Local\Temp\ccFTvYyK.s 			page 43


 118:main.c        ****       iprintf("%d",PS4.getAnalogHat(RightHatX));
 119:main.c        ****       iprintf(("\tRightHatY: "));
 120:main.c        ****       iprintf("%d",PS4.getAnalogHat(RightHatY));
 121:main.c        ****     }
 122:main.c        ****         
 123:main.c        ****         
 124:main.c        ****             if (PS4.getAnalogButton(L2) || PS4.getAnalogButton(R2)) { // These are the only analog 
 125:main.c        ****       iprintf(("\r\nL2: "));
 126:main.c        ****       iprintf("%d",PS4.getAnalogButton(L2));
 127:main.c        ****       iprintf(("\tR2: "));
 128:main.c        ****       iprintf("%d",PS4.getAnalogButton(R2));
 129:main.c        ****     }
 130:main.c        ****     if (PS4.getAnalogButton(L2) != oldL2Value || PS4.getAnalogButton(R2) != oldR2Value) // Only wri
 926              		.loc 5 130 0
 927 0036 4023     		movs	r3, #64
 112:main.c        ****       iprintf(("\r\nLeftHatX: "));
 928              		.loc 5 112 0
 929 0038 2C00     		movs	r4, r5
 930              		.loc 5 130 0
 931 003a 9A46     		mov	r10, r3
 932 003c 0133     		adds	r3, r3, #1
 933 003e 9946     		mov	r9, r3
 934 0040 CA4E     		ldr	r6, .L164+20
 112:main.c        ****       iprintf(("\r\nLeftHatX: "));
 935              		.loc 5 112 0
 936 0042 7034     		adds	r4, r4, #112
 937              	.L56:
 938              	.LBE178:
 939              	.LBE177:
 108:main.c        **** 
 940              		.loc 5 108 0
 941 0044 C54F     		ldr	r7, .L164+4
 942 0046 0837     		adds	r7, r7, #8
 943              	.L57:
 944 0048 3800     		movs	r0, r7
 945 004a FFF7FEFF 		bl	_ZN3USB4TaskEv
 946              	.LVL91:
 947 004e 2B00     		movs	r3, r5
 948 0050 4433     		adds	r3, r3, #68
 949              	.LBB225:
 110:main.c        ****         /* Place your application code here. */
 950              		.loc 5 110 0
 951 0052 5B7D     		ldrb	r3, [r3, #21]
 952 0054 002B     		cmp	r3, #0
 953 0056 F7D0     		beq	.L57
 954              	.LBB224:
 112:main.c        ****       iprintf(("\r\nLeftHatX: "));
 955              		.loc 5 112 0
 956 0058 0021     		movs	r1, #0
 957 005a 2000     		movs	r0, r4
 958 005c FFF7FEFF 		bl	_ZN9PS4Parser12getAnalogHatE13AnalogHatEnum
 959              	.LVL92:
 960 0060 8928     		cmp	r0, #137
 961 0062 00D8     		bhi	.LCB824
 962 0064 3EE1     		b	.L145	@long jump
 963              	.LCB824:
 964              	.L58:
ARM GAS  C:\Users\jrdia\AppData\Local\Temp\ccFTvYyK.s 			page 44


 113:main.c        ****       iprintf("%d",PS4.getAnalogHat(LeftHatX));
 965              		.loc 5 113 0
 966 0066 C248     		ldr	r0, .L164+24
 967 0068 FFF7FEFF 		bl	iprintf
 968              	.LVL93:
 114:main.c        ****       iprintf(("\tLeftHatY: "));
 969              		.loc 5 114 0
 970 006c 0021     		movs	r1, #0
 971 006e 2000     		movs	r0, r4
 972 0070 FFF7FEFF 		bl	_ZN9PS4Parser12getAnalogHatE13AnalogHatEnum
 973              	.LVL94:
 974 0074 0100     		movs	r1, r0
 975 0076 3000     		movs	r0, r6
 976 0078 FFF7FEFF 		bl	iprintf
 977              	.LVL95:
 115:main.c        ****       iprintf("%d",PS4.getAnalogHat(LeftHatY));
 978              		.loc 5 115 0
 979 007c BD48     		ldr	r0, .L164+28
 980 007e FFF7FEFF 		bl	iprintf
 981              	.LVL96:
 116:main.c        ****       iprintf(("\tRightHatX: "));
 982              		.loc 5 116 0
 983 0082 0121     		movs	r1, #1
 984 0084 2000     		movs	r0, r4
 985 0086 FFF7FEFF 		bl	_ZN9PS4Parser12getAnalogHatE13AnalogHatEnum
 986              	.LVL97:
 987 008a 0100     		movs	r1, r0
 988 008c 3000     		movs	r0, r6
 989 008e FFF7FEFF 		bl	iprintf
 990              	.LVL98:
 117:main.c        ****       iprintf("%d",PS4.getAnalogHat(RightHatX));
 991              		.loc 5 117 0
 992 0092 B948     		ldr	r0, .L164+32
 993 0094 FFF7FEFF 		bl	iprintf
 994              	.LVL99:
 118:main.c        ****       iprintf(("\tRightHatY: "));
 995              		.loc 5 118 0
 996 0098 0221     		movs	r1, #2
 997 009a 2000     		movs	r0, r4
 998 009c FFF7FEFF 		bl	_ZN9PS4Parser12getAnalogHatE13AnalogHatEnum
 999              	.LVL100:
 1000 00a0 0100     		movs	r1, r0
 1001 00a2 3000     		movs	r0, r6
 1002 00a4 FFF7FEFF 		bl	iprintf
 1003              	.LVL101:
 119:main.c        ****       iprintf("%d",PS4.getAnalogHat(RightHatY));
 1004              		.loc 5 119 0
 1005 00a8 B448     		ldr	r0, .L164+36
 1006 00aa FFF7FEFF 		bl	iprintf
 1007              	.LVL102:
 120:main.c        ****     }
 1008              		.loc 5 120 0
 1009 00ae 0321     		movs	r1, #3
 1010 00b0 2000     		movs	r0, r4
 1011 00b2 FFF7FEFF 		bl	_ZN9PS4Parser12getAnalogHatE13AnalogHatEnum
 1012              	.LVL103:
 1013 00b6 0100     		movs	r1, r0
ARM GAS  C:\Users\jrdia\AppData\Local\Temp\ccFTvYyK.s 			page 45


 1014 00b8 3000     		movs	r0, r6
 1015 00ba FFF7FEFF 		bl	iprintf
 1016              	.LVL104:
 1017              	.L83:
 124:main.c        ****       iprintf(("\r\nL2: "));
 1018              		.loc 5 124 0
 1019 00be 0821     		movs	r1, #8
 1020 00c0 2000     		movs	r0, r4
 1021 00c2 FFF7FEFF 		bl	_ZN9PS4Parser15getAnalogButtonE10ButtonEnum
 1022              	.LVL105:
 1023 00c6 0028     		cmp	r0, #0
 1024 00c8 00D1     		bne	.LCB877
 1025 00ca 03E1     		b	.L146	@long jump
 1026              	.LCB877:
 1027              	.L59:
 125:main.c        ****       iprintf("%d",PS4.getAnalogButton(L2));
 1028              		.loc 5 125 0
 1029 00cc AC48     		ldr	r0, .L164+40
 1030 00ce FFF7FEFF 		bl	iprintf
 1031              	.LVL106:
 126:main.c        ****       iprintf(("\tR2: "));
 1032              		.loc 5 126 0
 1033 00d2 0821     		movs	r1, #8
 1034 00d4 2000     		movs	r0, r4
 1035 00d6 FFF7FEFF 		bl	_ZN9PS4Parser15getAnalogButtonE10ButtonEnum
 1036              	.LVL107:
 1037 00da 0100     		movs	r1, r0
 1038 00dc 3000     		movs	r0, r6
 1039 00de FFF7FEFF 		bl	iprintf
 1040              	.LVL108:
 127:main.c        ****       iprintf("%d",PS4.getAnalogButton(R2));
 1041              		.loc 5 127 0
 1042 00e2 A848     		ldr	r0, .L164+44
 1043 00e4 FFF7FEFF 		bl	iprintf
 1044              	.LVL109:
 128:main.c        ****     }
 1045              		.loc 5 128 0
 1046 00e8 0921     		movs	r1, #9
 1047 00ea 2000     		movs	r0, r4
 1048 00ec FFF7FEFF 		bl	_ZN9PS4Parser15getAnalogButtonE10ButtonEnum
 1049              	.LVL110:
 1050 00f0 0100     		movs	r1, r0
 1051 00f2 3000     		movs	r0, r6
 1052 00f4 FFF7FEFF 		bl	iprintf
 1053              	.LVL111:
 1054              	.L84:
 1055              		.loc 5 130 0
 1056 00f8 0821     		movs	r1, #8
 1057 00fa 2000     		movs	r0, r4
 1058 00fc FFF7FEFF 		bl	_ZN9PS4Parser15getAnalogButtonE10ButtonEnum
 1059              	.LVL112:
 1060 0100 5B46     		mov	r3, fp
 1061 0102 5246     		mov	r2, r10
 1062 0104 9B5C     		ldrb	r3, [r3, r2]
 1063 0106 8342     		cmp	r3, r0
 1064 0108 00D1     		bne	.LCB911
 1065 010a 0FE2     		b	.L147	@long jump
ARM GAS  C:\Users\jrdia\AppData\Local\Temp\ccFTvYyK.s 			page 46


 1066              	.LCB911:
 1067              	.L60:
 131:main.c        ****       PS4.setRumbleOn(PS4.getAnalogButton(L2), PS4.getAnalogButton(R2));
 1068              		.loc 5 131 0
 1069 010c 0821     		movs	r1, #8
 1070 010e 2000     		movs	r0, r4
 1071 0110 FFF7FEFF 		bl	_ZN9PS4Parser15getAnalogButtonE10ButtonEnum
 1072              	.LVL113:
 1073 0114 0921     		movs	r1, #9
 1074 0116 0700     		movs	r7, r0
 1075 0118 2000     		movs	r0, r4
 1076 011a FFF7FEFF 		bl	_ZN9PS4Parser15getAnalogButtonE10ButtonEnum
 1077              	.LVL114:
 1078              	.LBB179:
 1079              	.LBB180:
 307:./PS4Parser.h ****                 ps4Output.smallRumble = smallRumble;
 1080              		.loc 3 307 0
 1081 011e 2B00     		movs	r3, r5
 1082 0120 B633     		adds	r3, r3, #182
 1083 0122 1F70     		strb	r7, [r3]
 308:./PS4Parser.h ****                 ps4Output.reportChanged = true;
 1084              		.loc 3 308 0
 1085 0124 2B00     		movs	r3, r5
 1086 0126 B733     		adds	r3, r3, #183
 1087 0128 1870     		strb	r0, [r3]
 309:./PS4Parser.h ****         };
 1088              		.loc 3 309 0
 1089 012a 2B00     		movs	r3, r5
 1090 012c 0122     		movs	r2, #1
 1091 012e BD33     		adds	r3, r3, #189
 1092 0130 1A70     		strb	r2, [r3]
 1093              	.LVL115:
 1094              	.L85:
 1095              	.LBE180:
 1096              	.LBE179:
 132:main.c        ****     oldL2Value = PS4.getAnalogButton(L2);
 1097              		.loc 5 132 0
 1098 0132 4423     		movs	r3, #68
 1099 0134 0821     		movs	r1, #8
 1100 0136 2000     		movs	r0, r4
 1101 0138 9846     		mov	r8, r3
 1102 013a FFF7FEFF 		bl	_ZN9PS4Parser15getAnalogButtonE10ButtonEnum
 1103              	.LVL116:
 1104 013e 5B46     		mov	r3, fp
 1105 0140 5246     		mov	r2, r10
 133:main.c        ****     oldR2Value = PS4.getAnalogButton(R2);
 1106              		.loc 5 133 0
 1107 0142 0921     		movs	r1, #9
 132:main.c        ****     oldL2Value = PS4.getAnalogButton(L2);
 1108              		.loc 5 132 0
 1109 0144 9854     		strb	r0, [r3, r2]
 1110              		.loc 5 133 0
 1111 0146 2000     		movs	r0, r4
 1112 0148 FFF7FEFF 		bl	_ZN9PS4Parser15getAnalogButtonE10ButtonEnum
 1113              	.LVL117:
 1114 014c 5B46     		mov	r3, fp
 1115 014e 4A46     		mov	r2, r9
ARM GAS  C:\Users\jrdia\AppData\Local\Temp\ccFTvYyK.s 			page 47


 1116              	.LBB181:
 134:main.c        **** 
 135:main.c        ****     if (PS4.getButtonClick(PS)) {
 1117              		.loc 5 135 0
 1118 0150 1021     		movs	r1, #16
 1119              	.LBE181:
 133:main.c        ****     oldR2Value = PS4.getAnalogButton(R2);
 1120              		.loc 5 133 0
 1121 0152 9854     		strb	r0, [r3, r2]
 1122              	.LBB221:
 1123              		.loc 5 135 0
 1124 0154 2000     		movs	r0, r4
 1125 0156 FFF7FEFF 		bl	_ZN9PS4Parser14getButtonClickE10ButtonEnum
 1126              	.LVL118:
 1127              	.LBE221:
 132:main.c        ****     oldR2Value = PS4.getAnalogButton(R2);
 1128              		.loc 5 132 0
 1129 015a A844     		add	r8, r8, r5
 1130              	.LBB222:
 1131              		.loc 5 135 0
 1132 015c 071E     		subs	r7, r0, #0
 1133 015e 06D0     		beq	.L61
 136:main.c        ****       iprintf(("\r\nPS"));
 1134              		.loc 5 136 0
 1135 0160 8948     		ldr	r0, .L164+48
 1136 0162 FFF7FEFF 		bl	iprintf
 1137              	.LVL119:
 137:main.c        ****       PS4.disconnect();
 1138              		.loc 5 137 0
 1139 0166 4046     		mov	r0, r8
 1140 0168 FFF7FEFF 		bl	_ZN5BTHID10disconnectEv
 1141              	.LVL120:
 1142 016c 6AE7     		b	.L56
 1143              	.L61:
 1144              	.LBB182:
 138:main.c        ****     }
 139:main.c        ****     else {
 140:main.c        ****       if (PS4.getButtonClick(TRIANGLE)) {
 1145              		.loc 5 140 0
 1146 016e 0C21     		movs	r1, #12
 1147 0170 2000     		movs	r0, r4
 1148 0172 FFF7FEFF 		bl	_ZN9PS4Parser14getButtonClickE10ButtonEnum
 1149              	.LVL121:
 1150 0176 0028     		cmp	r0, #0
 1151 0178 00D0     		beq	.LCB989
 1152 017a C8E1     		b	.L148	@long jump
 1153              	.LCB989:
 1154              	.L63:
 141:main.c        ****         iprintf(("\r\nTraingle"));
 142:main.c        ****         PS4.setRumbleOn(RumbleLow);
 143:main.c        ****       }
 144:main.c        ****       if (PS4.getButtonClick(CIRCLE)) {
 1155              		.loc 5 144 0
 1156 017c 0D21     		movs	r1, #13
 1157 017e 2000     		movs	r0, r4
 1158 0180 FFF7FEFF 		bl	_ZN9PS4Parser14getButtonClickE10ButtonEnum
 1159              	.LVL122:
ARM GAS  C:\Users\jrdia\AppData\Local\Temp\ccFTvYyK.s 			page 48


 1160 0184 0028     		cmp	r0, #0
 1161 0186 00D0     		beq	.LCB996
 1162 0188 B1E1     		b	.L149	@long jump
 1163              	.LCB996:
 1164              	.L64:
 145:main.c        ****         iprintf(("\r\nCircle"));
 146:main.c        ****         PS4.setRumbleOn(RumbleHigh);
 147:main.c        ****       }
 148:main.c        ****       if (PS4.getButtonClick(CROSS)) {
 1165              		.loc 5 148 0
 1166 018a 0E21     		movs	r1, #14
 1167 018c 2000     		movs	r0, r4
 1168 018e FFF7FEFF 		bl	_ZN9PS4Parser14getButtonClickE10ButtonEnum
 1169              	.LVL123:
 1170 0192 0028     		cmp	r0, #0
 1171 0194 00D0     		beq	.LCB1003
 1172 0196 9BE1     		b	.L150	@long jump
 1173              	.LCB1003:
 1174              	.L65:
 149:main.c        ****         iprintf(("\r\nCross"));
 150:main.c        ****         PS4.setLedFlash(10, 10); // Set it to blink rapidly
 151:main.c        ****       }
 152:main.c        ****       if (PS4.getButtonClick(SQUARE)) {
 1175              		.loc 5 152 0
 1176 0198 0F21     		movs	r1, #15
 1177 019a 2000     		movs	r0, r4
 1178 019c FFF7FEFF 		bl	_ZN9PS4Parser14getButtonClickE10ButtonEnum
 1179              	.LVL124:
 1180 01a0 0028     		cmp	r0, #0
 1181 01a2 00D0     		beq	.LCB1010
 1182 01a4 85E1     		b	.L151	@long jump
 1183              	.LCB1010:
 1184              	.L66:
 153:main.c        ****         iprintf(("\r\nSquare"));
 154:main.c        ****         PS4.setLedFlash(0, 0); // Turn off blinking
 155:main.c        ****       }
 156:main.c        **** 
 157:main.c        ****       if (PS4.getButtonClick(UP)) {
 1185              		.loc 5 157 0
 1186 01a6 0021     		movs	r1, #0
 1187 01a8 2000     		movs	r0, r4
 1188 01aa FFF7FEFF 		bl	_ZN9PS4Parser14getButtonClickE10ButtonEnum
 1189              	.LVL125:
 1190 01ae 0028     		cmp	r0, #0
 1191 01b0 00D0     		beq	.LCB1017
 1192 01b2 6BE1     		b	.L152	@long jump
 1193              	.LCB1017:
 1194              	.L67:
 158:main.c        ****         iprintf(("\r\nUp"));
 159:main.c        ****         PS4.setLed(Red);
 160:main.c        ****       } if (PS4.getButtonClick(RIGHT)) {
 1195              		.loc 5 160 0
 1196 01b4 0121     		movs	r1, #1
 1197 01b6 2000     		movs	r0, r4
 1198 01b8 FFF7FEFF 		bl	_ZN9PS4Parser14getButtonClickE10ButtonEnum
 1199              	.LVL126:
 1200 01bc 0028     		cmp	r0, #0
ARM GAS  C:\Users\jrdia\AppData\Local\Temp\ccFTvYyK.s 			page 49


 1201 01be 00D0     		beq	.LCB1024
 1202 01c0 51E1     		b	.L153	@long jump
 1203              	.LCB1024:
 1204              	.L68:
 161:main.c        ****         iprintf(("\r\nRight"));
 162:main.c        ****         PS4.setLed(Blue);
 163:main.c        ****       } if (PS4.getButtonClick(DOWN)) {
 1205              		.loc 5 163 0
 1206 01c2 0221     		movs	r1, #2
 1207 01c4 2000     		movs	r0, r4
 1208 01c6 FFF7FEFF 		bl	_ZN9PS4Parser14getButtonClickE10ButtonEnum
 1209              	.LVL127:
 1210 01ca 0028     		cmp	r0, #0
 1211 01cc 00D0     		beq	.LCB1031
 1212 01ce 36E1     		b	.L154	@long jump
 1213              	.LCB1031:
 1214              	.L69:
 164:main.c        ****         iprintf(("\r\nDown"));
 165:main.c        ****         PS4.setLed(Yellow);
 166:main.c        ****       } if (PS4.getButtonClick(LEFT)) {
 1215              		.loc 5 166 0
 1216 01d0 0321     		movs	r1, #3
 1217 01d2 2000     		movs	r0, r4
 1218 01d4 FFF7FEFF 		bl	_ZN9PS4Parser14getButtonClickE10ButtonEnum
 1219              	.LVL128:
 1220 01d8 0028     		cmp	r0, #0
 1221 01da 00D0     		beq	.LCB1038
 1222 01dc 1CE1     		b	.L155	@long jump
 1223              	.LCB1038:
 1224              	.L70:
 167:main.c        ****         iprintf(("\r\nLeft"));
 168:main.c        ****         PS4.setLed(Green);
 169:main.c        ****       }
 170:main.c        **** 
 171:main.c        ****       if (PS4.getButtonClick(L1))
 1225              		.loc 5 171 0
 1226 01de 0A21     		movs	r1, #10
 1227 01e0 2000     		movs	r0, r4
 1228 01e2 FFF7FEFF 		bl	_ZN9PS4Parser14getButtonClickE10ButtonEnum
 1229              	.LVL129:
 1230 01e6 0028     		cmp	r0, #0
 1231 01e8 00D0     		beq	.LCB1045
 1232 01ea 11E1     		b	.L156	@long jump
 1233              	.LCB1045:
 1234              	.L71:
 172:main.c        ****         iprintf(("\r\nL1"));
 173:main.c        ****       if (PS4.getButtonClick(L3))
 1235              		.loc 5 173 0
 1236 01ec 0621     		movs	r1, #6
 1237 01ee 2000     		movs	r0, r4
 1238 01f0 FFF7FEFF 		bl	_ZN9PS4Parser14getButtonClickE10ButtonEnum
 1239              	.LVL130:
 1240 01f4 0028     		cmp	r0, #0
 1241 01f6 00D0     		beq	.LCB1052
 1242 01f8 06E1     		b	.L157	@long jump
 1243              	.LCB1052:
 1244              	.L72:
ARM GAS  C:\Users\jrdia\AppData\Local\Temp\ccFTvYyK.s 			page 50


 174:main.c        ****         iprintf(("\r\nL3"));
 175:main.c        ****       if (PS4.getButtonClick(R1))
 1245              		.loc 5 175 0
 1246 01fa 0B21     		movs	r1, #11
 1247 01fc 2000     		movs	r0, r4
 1248 01fe FFF7FEFF 		bl	_ZN9PS4Parser14getButtonClickE10ButtonEnum
 1249              	.LVL131:
 1250 0202 0028     		cmp	r0, #0
 1251 0204 00D0     		beq	.LCB1059
 1252 0206 FBE0     		b	.L158	@long jump
 1253              	.LCB1059:
 1254              	.L73:
 176:main.c        ****         iprintf(("\r\nR1"));
 177:main.c        ****       if (PS4.getButtonClick(R3))
 1255              		.loc 5 177 0
 1256 0208 0721     		movs	r1, #7
 1257 020a 2000     		movs	r0, r4
 1258 020c FFF7FEFF 		bl	_ZN9PS4Parser14getButtonClickE10ButtonEnum
 1259              	.LVL132:
 1260 0210 0028     		cmp	r0, #0
 1261 0212 00D0     		beq	.LCB1066
 1262 0214 C4E0     		b	.L159	@long jump
 1263              	.LCB1066:
 178:main.c        ****         iprintf(("\r\nR3"));
 179:main.c        **** 
 180:main.c        ****       if (PS4.getButtonClick(SHARE))
 1264              		.loc 5 180 0
 1265 0216 0421     		movs	r1, #4
 1266 0218 2000     		movs	r0, r4
 1267 021a FFF7FEFF 		bl	_ZN9PS4Parser14getButtonClickE10ButtonEnum
 1268              	.LVL133:
 1269 021e 0028     		cmp	r0, #0
 1270 0220 00D0     		beq	.LCB1072
 1271 0222 C7E0     		b	.L160	@long jump
 1272              	.LCB1072:
 1273              	.L75:
 181:main.c        ****         iprintf(("\r\nShare"));
 182:main.c        ****       if (PS4.getButtonClick(OPTIONS)) {
 1274              		.loc 5 182 0
 1275 0224 0521     		movs	r1, #5
 1276 0226 2000     		movs	r0, r4
 1277 0228 FFF7FEFF 		bl	_ZN9PS4Parser14getButtonClickE10ButtonEnum
 1278              	.LVL134:
 1279 022c 0028     		cmp	r0, #0
 1280 022e 00D0     		beq	.LCB1079
 1281 0230 CAE0     		b	.L161	@long jump
 1282              	.LCB1079:
 1283              	.L76:
 183:main.c        ****         iprintf(("\r\nOptions"));
 184:main.c        ****         printAngle = !printAngle;
 185:main.c        ****       }
 186:main.c        ****       if (PS4.getButtonClick(TOUCHPAD)) {
 1284              		.loc 5 186 0
 1285 0232 1121     		movs	r1, #17
 1286 0234 2000     		movs	r0, r4
 1287 0236 FFF7FEFF 		bl	_ZN9PS4Parser14getButtonClickE10ButtonEnum
 1288              	.LVL135:
ARM GAS  C:\Users\jrdia\AppData\Local\Temp\ccFTvYyK.s 			page 51


 1289 023a 0028     		cmp	r0, #0
 1290 023c 00D0     		beq	.LCB1086
 1291 023e D4E0     		b	.L77	@long jump
 1292              	.LCB1086:
 1293              	.L163:
 1294 0240 4323     		movs	r3, #67
 1295 0242 5A46     		mov	r2, fp
 1296 0244 D35C     		ldrb	r3, [r2, r3]
 1297              	.L78:
 1298              	.LBB183:
 187:main.c        ****         iprintf(("\r\nTouchpad"));
 188:main.c        ****         printTouch = !printTouch;
 189:main.c        ****       }
 190:main.c        **** 
 191:main.c        ****       //if (printAngle) { // Print angle calculated using the accelerometer only
 192:main.c        ****       //  iprintf(("\r\nPitch: "));
 193:main.c        ****       //  iprintf("%d",PS4.getAngle(Pitch));
 194:main.c        ****       //  iprintf(("\tRoll: "));
 195:main.c        ****       //  iprintf("%d",PS4.getAngle(Roll));
 196:main.c        ****       //}
 197:main.c        **** 
 198:main.c        ****       if (printTouch) { // Print the x, y coordinates of the touchpad
 1299              		.loc 5 198 0
 1300 0246 002B     		cmp	r3, #0
 1301 0248 00D1     		bne	.LCB1095
 1302 024a FBE6     		b	.L56	@long jump
 1303              	.LCB1095:
 1304              	.LBB184:
 1305              	.LBB185:
 1306              	.LBB186:
 196:./PS4Parser.h ****         };
 1307              		.loc 3 196 0
 1308 024c 9623     		movs	r3, #150
 1309 024e EB5C     		ldrb	r3, [r5, r3]
 1310              	.LBE186:
 1311              	.LBE185:
 199:main.c        ****         if (PS4.isTouching(0) || PS4.isTouching(1)) // Print newline and carriage return if any of 
 1312              		.loc 5 199 0
 1313 0250 DB09     		lsrs	r3, r3, #7
 1314 0252 79D0     		beq	.L80
 1315              	.LBB187:
 1316              	.LBB188:
 196:./PS4Parser.h ****         };
 1317              		.loc 3 196 0
 1318 0254 9A23     		movs	r3, #154
 1319 0256 EB5C     		ldrb	r3, [r5, r3]
 1320              	.LBE188:
 1321              	.LBE187:
 1322              		.loc 5 199 0
 1323 0258 DB09     		lsrs	r3, r3, #7
 1324 025a 75D0     		beq	.L80
 1325 025c 0123     		movs	r3, #1
 1326              	.L86:
 1327              	.LVL136:
 1328 025e 0027     		movs	r7, #0
 1329 0260 7A1C     		adds	r2, r7, #1
 1330 0262 9046     		mov	r8, r2
ARM GAS  C:\Users\jrdia\AppData\Local\Temp\ccFTvYyK.s 			page 52


 1331              	.LBB189:
 200:main.c        ****           iprintf(("\r\n"));
 201:main.c        ****         for (uint8_t i = 0; i < 2; i++) { // The touchpad track two fingers
 202:main.c        ****           if (PS4.isTouching(i)) { // Print the position of the finger if it is touching the touchp
 1332              		.loc 5 202 0 discriminator 1
 1333 0264 002B     		cmp	r3, #0
 1334 0266 09D0     		beq	.L162
 1335              	.LVL137:
 1336              	.L81:
 1337 0268 4746     		mov	r7, r8
 201:main.c        ****           if (PS4.isTouching(i)) { // Print the position of the finger if it is touching the touchp
 1338              		.loc 5 201 0 discriminator 2
 1339 026a 022F     		cmp	r7, #2
 1340 026c 00D1     		bne	.LCB1139
 1341 026e E9E6     		b	.L56	@long jump
 1342              	.LCB1139:
 1343 0270 9A23     		movs	r3, #154
 1344 0272 EB5C     		ldrb	r3, [r5, r3]
 1345 0274 7A1C     		adds	r2, r7, #1
 1346 0276 DB09     		lsrs	r3, r3, #7
 1347              	.LVL138:
 1348 0278 9046     		mov	r8, r2
 1349              	.LVL139:
 1350              		.loc 5 202 0
 1351 027a F5D1     		bne	.L81
 1352              	.LVL140:
 1353              	.L162:
 203:main.c        ****             iprintf(("X")); iprintf("%d",i + 1); iprintf((": "));
 1354              		.loc 5 203 0
 1355 027c 4348     		ldr	r0, .L164+52
 1356 027e FFF7FEFF 		bl	iprintf
 1357              	.LVL141:
 1358 0282 4146     		mov	r1, r8
 1359 0284 3000     		movs	r0, r6
 1360 0286 FFF7FEFF 		bl	iprintf
 1361              	.LVL142:
 1362 028a 4148     		ldr	r0, .L164+56
 1363 028c FFF7FEFF 		bl	iprintf
 1364              	.LVL143:
 1365              	.LBB190:
 1366              	.LBB191:
 172:./PS4Parser.h ****         };
 1367              		.loc 3 172 0
 1368 0290 3323     		movs	r3, #51
 1369 0292 0F22     		movs	r2, #15
 1370 0294 0837     		adds	r7, r7, #8
 1371 0296 BF00     		lsls	r7, r7, #2
 1372 0298 EF19     		adds	r7, r5, r7
 1373 029a 4437     		adds	r7, r7, #68
 1374 029c F95C     		ldrb	r1, [r7, r3]
 1375 029e 0133     		adds	r3, r3, #1
 1376 02a0 FB5C     		ldrb	r3, [r7, r3]
 1377              	.LBE191:
 1378              	.LBE190:
 204:main.c        ****             iprintf("%d",PS4.getX(i));
 1379              		.loc 5 204 0
 1380 02a2 3000     		movs	r0, r6
ARM GAS  C:\Users\jrdia\AppData\Local\Temp\ccFTvYyK.s 			page 53


 1381              	.LBB193:
 1382              	.LBB192:
 172:./PS4Parser.h ****         };
 1383              		.loc 3 172 0
 1384 02a4 1340     		ands	r3, r2
 1385 02a6 1B02     		lsls	r3, r3, #8
 1386              	.LBE192:
 1387              	.LBE193:
 1388              		.loc 5 204 0
 1389 02a8 1943     		orrs	r1, r3
 1390 02aa FFF7FEFF 		bl	iprintf
 1391              	.LVL144:
 205:main.c        ****             iprintf(("\tY")); iprintf("%d",i + 1); iprintf((": "));
 1392              		.loc 5 205 0
 1393 02ae 3948     		ldr	r0, .L164+60
 1394 02b0 FFF7FEFF 		bl	iprintf
 1395              	.LVL145:
 1396 02b4 4146     		mov	r1, r8
 1397 02b6 3000     		movs	r0, r6
 1398 02b8 FFF7FEFF 		bl	iprintf
 1399              	.LVL146:
 1400 02bc 3448     		ldr	r0, .L164+56
 1401 02be FFF7FEFF 		bl	iprintf
 1402              	.LVL147:
 1403              	.LBB194:
 1404              	.LBB195:
 184:./PS4Parser.h ****         };
 1405              		.loc 3 184 0
 1406 02c2 B98E     		ldrh	r1, [r7, #52]
 1407              	.LBE195:
 1408              	.LBE194:
 206:main.c        ****             iprintf("%d",PS4.getY(i));
 1409              		.loc 5 206 0
 1410 02c4 3000     		movs	r0, r6
 1411 02c6 0909     		lsrs	r1, r1, #4
 1412 02c8 FFF7FEFF 		bl	iprintf
 1413              	.LVL148:
 207:main.c        ****             iprintf(("\t"));
 1414              		.loc 5 207 0
 1415 02cc 3248     		ldr	r0, .L164+64
 1416 02ce FFF7FEFF 		bl	iprintf
 1417              	.LVL149:
 1418 02d2 C9E7     		b	.L81
 1419              	.L146:
 1420              	.LBE189:
 1421              	.LBE184:
 1422              	.LBE183:
 1423              	.LBE182:
 1424              	.LBE222:
 124:main.c        ****       iprintf(("\r\nL2: "));
 1425              		.loc 5 124 0 discriminator 2
 1426 02d4 0921     		movs	r1, #9
 1427 02d6 2000     		movs	r0, r4
 1428 02d8 FFF7FEFF 		bl	_ZN9PS4Parser15getAnalogButtonE10ButtonEnum
 1429              	.LVL150:
 1430 02dc 0028     		cmp	r0, #0
 1431 02de 00D0     		beq	.LCB1226
ARM GAS  C:\Users\jrdia\AppData\Local\Temp\ccFTvYyK.s 			page 54


 1432 02e0 F4E6     		b	.L59	@long jump
 1433              	.LCB1226:
 1434 02e2 09E7     		b	.L84
 1435              	.L145:
 112:main.c        ****       iprintf(("\r\nLeftHatX: "));
 1436              		.loc 5 112 0 discriminator 2
 1437 02e4 0021     		movs	r1, #0
 1438 02e6 2000     		movs	r0, r4
 1439 02e8 FFF7FEFF 		bl	_ZN9PS4Parser12getAnalogHatE13AnalogHatEnum
 1440              	.LVL151:
 1441 02ec 7428     		cmp	r0, #116
 1442 02ee 00D8     		bhi	.LCB1236
 1443 02f0 B9E6     		b	.L58	@long jump
 1444              	.LCB1236:
 112:main.c        ****       iprintf(("\r\nLeftHatX: "));
 1445              		.loc 5 112 0 is_stmt 0 discriminator 4
 1446 02f2 0121     		movs	r1, #1
 1447 02f4 2000     		movs	r0, r4
 1448 02f6 FFF7FEFF 		bl	_ZN9PS4Parser12getAnalogHatE13AnalogHatEnum
 1449              	.LVL152:
 1450 02fa 8928     		cmp	r0, #137
 1451 02fc 00D9     		bls	.LCB1242
 1452 02fe B2E6     		b	.L58	@long jump
 1453              	.LCB1242:
 112:main.c        ****       iprintf(("\r\nLeftHatX: "));
 1454              		.loc 5 112 0 discriminator 6
 1455 0300 0121     		movs	r1, #1
 1456 0302 2000     		movs	r0, r4
 1457 0304 FFF7FEFF 		bl	_ZN9PS4Parser12getAnalogHatE13AnalogHatEnum
 1458              	.LVL153:
 1459 0308 7428     		cmp	r0, #116
 1460 030a 00D8     		bhi	.LCB1248
 1461 030c ABE6     		b	.L58	@long jump
 1462              	.LCB1248:
 112:main.c        ****       iprintf(("\r\nLeftHatX: "));
 1463              		.loc 5 112 0 discriminator 8
 1464 030e 0221     		movs	r1, #2
 1465 0310 2000     		movs	r0, r4
 1466 0312 FFF7FEFF 		bl	_ZN9PS4Parser12getAnalogHatE13AnalogHatEnum
 1467              	.LVL154:
 1468 0316 8928     		cmp	r0, #137
 1469 0318 00D9     		bls	.LCB1254
 1470 031a A4E6     		b	.L58	@long jump
 1471              	.LCB1254:
 112:main.c        ****       iprintf(("\r\nLeftHatX: "));
 1472              		.loc 5 112 0 discriminator 10
 1473 031c 0221     		movs	r1, #2
 1474 031e 2000     		movs	r0, r4
 1475 0320 FFF7FEFF 		bl	_ZN9PS4Parser12getAnalogHatE13AnalogHatEnum
 1476              	.LVL155:
 1477 0324 7428     		cmp	r0, #116
 1478 0326 00D8     		bhi	.LCB1260
 1479 0328 9DE6     		b	.L58	@long jump
 1480              	.LCB1260:
 112:main.c        ****       iprintf(("\r\nLeftHatX: "));
 1481              		.loc 5 112 0 discriminator 12
 1482 032a 0321     		movs	r1, #3
ARM GAS  C:\Users\jrdia\AppData\Local\Temp\ccFTvYyK.s 			page 55


 1483 032c 2000     		movs	r0, r4
 1484 032e FFF7FEFF 		bl	_ZN9PS4Parser12getAnalogHatE13AnalogHatEnum
 1485              	.LVL156:
 1486 0332 8928     		cmp	r0, #137
 1487 0334 00D9     		bls	.LCB1266
 1488 0336 96E6     		b	.L58	@long jump
 1489              	.LCB1266:
 112:main.c        ****       iprintf(("\r\nLeftHatX: "));
 1490              		.loc 5 112 0 discriminator 14
 1491 0338 0321     		movs	r1, #3
 1492 033a 2000     		movs	r0, r4
 1493 033c FFF7FEFF 		bl	_ZN9PS4Parser12getAnalogHatE13AnalogHatEnum
 1494              	.LVL157:
 1495 0340 7428     		cmp	r0, #116
 1496 0342 00D8     		bhi	.LCB1272
 1497 0344 8FE6     		b	.L58	@long jump
 1498              	.LCB1272:
 1499 0346 BAE6     		b	.L83
 1500              	.L80:
 1501              	.LBB223:
 1502              	.LBB220:
 1503              	.LBB197:
 1504              	.LBB196:
 200:main.c        ****         for (uint8_t i = 0; i < 2; i++) { // The touchpad track two fingers
 1505              		.loc 5 200 0 is_stmt 1
 1506 0348 1448     		ldr	r0, .L164+68
 1507 034a FFF7FEFF 		bl	iprintf
 1508              	.LVL158:
 1509 034e 9623     		movs	r3, #150
 1510 0350 EB5C     		ldrb	r3, [r5, r3]
 1511 0352 DB09     		lsrs	r3, r3, #7
 1512 0354 83E7     		b	.L86
 1513              	.L165:
 1514 0356 C046     		.align	2
 1515              	.L164:
 1516 0358 10000000 		.word	.LC4
 1517 035c 00000000 		.word	.LANCHOR0
 1518 0360 44000000 		.word	.LC9
 1519 0364 00010000 		.word	.LANCHOR2
 1520 0368 80000000 		.word	.LANCHOR1
 1521 036c F0000000 		.word	.LC47
 1522 0370 00010000 		.word	.LC55
 1523 0374 10010000 		.word	.LC57
 1524 0378 1C010000 		.word	.LC59
 1525 037c 2C010000 		.word	.LC61
 1526 0380 3C010000 		.word	.LC63
 1527 0384 44010000 		.word	.LC65
 1528 0388 58000000 		.word	.LC13
 1529 038c EC000000 		.word	.LC45
 1530 0390 F4000000 		.word	.LC49
 1531 0394 F8000000 		.word	.LC51
 1532 0398 FC000000 		.word	.LC53
 1533 039c 4C010000 		.word	.LC67
 1534              	.L159:
 1535              	.LBE196:
 1536              	.LBE197:
 178:main.c        **** 
ARM GAS  C:\Users\jrdia\AppData\Local\Temp\ccFTvYyK.s 			page 56


 1537              		.loc 5 178 0
 1538 03a0 6A48     		ldr	r0, .L166
 1539 03a2 FFF7FEFF 		bl	iprintf
 1540              	.LVL159:
 180:main.c        ****         iprintf(("\r\nShare"));
 1541              		.loc 5 180 0
 1542 03a6 0421     		movs	r1, #4
 1543 03a8 2000     		movs	r0, r4
 1544 03aa FFF7FEFF 		bl	_ZN9PS4Parser14getButtonClickE10ButtonEnum
 1545              	.LVL160:
 1546 03ae 0028     		cmp	r0, #0
 1547 03b0 00D1     		bne	.LCB1326
 1548 03b2 37E7     		b	.L75	@long jump
 1549              	.LCB1326:
 1550              	.L160:
 181:main.c        ****       if (PS4.getButtonClick(OPTIONS)) {
 1551              		.loc 5 181 0
 1552 03b4 6648     		ldr	r0, .L166+4
 1553 03b6 FFF7FEFF 		bl	iprintf
 1554              	.LVL161:
 182:main.c        ****         iprintf(("\r\nOptions"));
 1555              		.loc 5 182 0
 1556 03ba 0521     		movs	r1, #5
 1557 03bc 2000     		movs	r0, r4
 1558 03be FFF7FEFF 		bl	_ZN9PS4Parser14getButtonClickE10ButtonEnum
 1559              	.LVL162:
 1560 03c2 0028     		cmp	r0, #0
 1561 03c4 00D1     		bne	.LCB1336
 1562 03c6 34E7     		b	.L76	@long jump
 1563              	.LCB1336:
 1564              	.L161:
 183:main.c        ****         printAngle = !printAngle;
 1565              		.loc 5 183 0
 1566 03c8 6248     		ldr	r0, .L166+8
 1567 03ca FFF7FEFF 		bl	iprintf
 1568              	.LVL163:
 184:main.c        ****       }
 1569              		.loc 5 184 0
 1570 03ce 4222     		movs	r2, #66
 1571 03d0 5B46     		mov	r3, fp
 1572 03d2 995C     		ldrb	r1, [r3, r2]
 1573 03d4 0123     		movs	r3, #1
 1574 03d6 4B40     		eors	r3, r1
 1575 03d8 5946     		mov	r1, fp
 186:main.c        ****         iprintf(("\r\nTouchpad"));
 1576              		.loc 5 186 0
 1577 03da 2000     		movs	r0, r4
 184:main.c        ****       }
 1578              		.loc 5 184 0
 1579 03dc 8B54     		strb	r3, [r1, r2]
 186:main.c        ****         iprintf(("\r\nTouchpad"));
 1580              		.loc 5 186 0
 1581 03de 1121     		movs	r1, #17
 1582 03e0 FFF7FEFF 		bl	_ZN9PS4Parser14getButtonClickE10ButtonEnum
 1583              	.LVL164:
 1584 03e4 0028     		cmp	r0, #0
 1585 03e6 00D1     		bne	.LCB1353
ARM GAS  C:\Users\jrdia\AppData\Local\Temp\ccFTvYyK.s 			page 57


 1586 03e8 2AE7     		b	.L163	@long jump
 1587              	.LCB1353:
 1588              	.L77:
 187:main.c        ****         printTouch = !printTouch;
 1589              		.loc 5 187 0
 1590 03ea 5B48     		ldr	r0, .L166+12
 1591 03ec FFF7FEFF 		bl	iprintf
 1592              	.LVL165:
 188:main.c        ****       }
 1593              		.loc 5 188 0
 1594 03f0 4322     		movs	r2, #67
 1595 03f2 5B46     		mov	r3, fp
 1596 03f4 995C     		ldrb	r1, [r3, r2]
 1597 03f6 0123     		movs	r3, #1
 1598 03f8 4B40     		eors	r3, r1
 1599 03fa 5946     		mov	r1, fp
 1600 03fc 8B54     		strb	r3, [r1, r2]
 1601 03fe 22E7     		b	.L78
 1602              	.L158:
 176:main.c        ****       if (PS4.getButtonClick(R3))
 1603              		.loc 5 176 0
 1604 0400 5648     		ldr	r0, .L166+16
 1605 0402 FFF7FEFF 		bl	iprintf
 1606              	.LVL166:
 1607 0406 FFE6     		b	.L73
 1608              	.L157:
 174:main.c        ****       if (PS4.getButtonClick(R1))
 1609              		.loc 5 174 0
 1610 0408 5548     		ldr	r0, .L166+20
 1611 040a FFF7FEFF 		bl	iprintf
 1612              	.LVL167:
 1613 040e F4E6     		b	.L72
 1614              	.L156:
 172:main.c        ****       if (PS4.getButtonClick(L3))
 1615              		.loc 5 172 0
 1616 0410 5448     		ldr	r0, .L166+24
 1617 0412 FFF7FEFF 		bl	iprintf
 1618              	.LVL168:
 1619 0416 E9E6     		b	.L71
 1620              	.L155:
 167:main.c        ****         PS4.setLed(Green);
 1621              		.loc 5 167 0
 1622 0418 5348     		ldr	r0, .L166+28
 1623 041a FFF7FEFF 		bl	iprintf
 1624              	.LVL169:
 1625              	.LBB198:
 1626              	.LBB199:
 1627              	.LBB200:
 322:./PS4Parser.h ****                 ps4Output.g = g;
 1628              		.loc 3 322 0
 1629 041e 2A00     		movs	r2, r5
 1630 0420 0023     		movs	r3, #0
 1631 0422 B832     		adds	r2, r2, #184
 1632 0424 1370     		strb	r3, [r2]
 323:./PS4Parser.h ****                 ps4Output.b = b;
 1633              		.loc 3 323 0
 1634 0426 2A00     		movs	r2, r5
ARM GAS  C:\Users\jrdia\AppData\Local\Temp\ccFTvYyK.s 			page 58


 1635 0428 FF21     		movs	r1, #255
 1636 042a B932     		adds	r2, r2, #185
 1637 042c 1170     		strb	r1, [r2]
 324:./PS4Parser.h ****                 ps4Output.reportChanged = true;
 1638              		.loc 3 324 0
 1639 042e 2A00     		movs	r2, r5
 1640 0430 BA32     		adds	r2, r2, #186
 1641 0432 1370     		strb	r3, [r2]
 1642              		.loc 3 325 0
 1643 0434 2B00     		movs	r3, r5
 1644 0436 0122     		movs	r2, #1
 1645 0438 BD33     		adds	r3, r3, #189
 1646 043a 1A70     		strb	r2, [r3]
 1647              	.LVL170:
 1648 043c CFE6     		b	.L70
 1649              	.LVL171:
 1650              	.L154:
 1651              	.LBE200:
 1652              	.LBE199:
 1653              	.LBE198:
 164:main.c        ****         PS4.setLed(Yellow);
 1654              		.loc 5 164 0
 1655 043e 4B48     		ldr	r0, .L166+32
 1656 0440 FFF7FEFF 		bl	iprintf
 1657              	.LVL172:
 1658              	.LBB201:
 1659              	.LBB202:
 1660              	.LBB203:
 322:./PS4Parser.h ****                 ps4Output.g = g;
 1661              		.loc 3 322 0
 1662 0444 2B00     		movs	r3, r5
 1663 0446 FF22     		movs	r2, #255
 1664 0448 B833     		adds	r3, r3, #184
 1665 044a 1A70     		strb	r2, [r3]
 323:./PS4Parser.h ****                 ps4Output.b = b;
 1666              		.loc 3 323 0
 1667 044c 2B00     		movs	r3, r5
 1668 044e 143A     		subs	r2, r2, #20
 1669 0450 B933     		adds	r3, r3, #185
 1670 0452 1A70     		strb	r2, [r3]
 324:./PS4Parser.h ****                 ps4Output.reportChanged = true;
 1671              		.loc 3 324 0
 1672 0454 2B00     		movs	r3, r5
 1673 0456 E73A     		subs	r2, r2, #231
 1674 0458 BA33     		adds	r3, r3, #186
 1675 045a 1A70     		strb	r2, [r3]
 1676              		.loc 3 325 0
 1677 045c 2B00     		movs	r3, r5
 1678 045e 033A     		subs	r2, r2, #3
 1679 0460 BD33     		adds	r3, r3, #189
 1680 0462 1A70     		strb	r2, [r3]
 1681              	.LVL173:
 1682 0464 B4E6     		b	.L69
 1683              	.LVL174:
 1684              	.L153:
 1685              	.LBE203:
 1686              	.LBE202:
ARM GAS  C:\Users\jrdia\AppData\Local\Temp\ccFTvYyK.s 			page 59


 1687              	.LBE201:
 161:main.c        ****         PS4.setLed(Blue);
 1688              		.loc 5 161 0
 1689 0466 4248     		ldr	r0, .L166+36
 1690 0468 FFF7FEFF 		bl	iprintf
 1691              	.LVL175:
 1692              	.LBB204:
 1693              	.LBB205:
 1694              	.LBB206:
 322:./PS4Parser.h ****                 ps4Output.g = g;
 1695              		.loc 3 322 0
 1696 046c 2A00     		movs	r2, r5
 1697 046e 0023     		movs	r3, #0
 1698 0470 B832     		adds	r2, r2, #184
 1699 0472 1370     		strb	r3, [r2]
 323:./PS4Parser.h ****                 ps4Output.b = b;
 1700              		.loc 3 323 0
 1701 0474 2A00     		movs	r2, r5
 1702 0476 B932     		adds	r2, r2, #185
 1703 0478 1370     		strb	r3, [r2]
 324:./PS4Parser.h ****                 ps4Output.reportChanged = true;
 1704              		.loc 3 324 0
 1705 047a 2B00     		movs	r3, r5
 1706 047c FF22     		movs	r2, #255
 1707 047e BA33     		adds	r3, r3, #186
 1708 0480 1A70     		strb	r2, [r3]
 1709              		.loc 3 325 0
 1710 0482 2B00     		movs	r3, r5
 1711 0484 FE3A     		subs	r2, r2, #254
 1712 0486 BD33     		adds	r3, r3, #189
 1713 0488 1A70     		strb	r2, [r3]
 1714              	.LVL176:
 1715 048a 9AE6     		b	.L68
 1716              	.LVL177:
 1717              	.L152:
 1718              	.LBE206:
 1719              	.LBE205:
 1720              	.LBE204:
 158:main.c        ****         PS4.setLed(Red);
 1721              		.loc 5 158 0
 1722 048c 3948     		ldr	r0, .L166+40
 1723 048e FFF7FEFF 		bl	iprintf
 1724              	.LVL178:
 1725              	.LBB207:
 1726              	.LBB208:
 1727              	.LBB209:
 322:./PS4Parser.h ****                 ps4Output.g = g;
 1728              		.loc 3 322 0
 1729 0492 2B00     		movs	r3, r5
 1730 0494 FF22     		movs	r2, #255
 1731 0496 B833     		adds	r3, r3, #184
 1732 0498 1A70     		strb	r2, [r3]
 323:./PS4Parser.h ****                 ps4Output.b = b;
 1733              		.loc 3 323 0
 1734 049a 2A00     		movs	r2, r5
 1735 049c 0023     		movs	r3, #0
 1736 049e B932     		adds	r2, r2, #185
ARM GAS  C:\Users\jrdia\AppData\Local\Temp\ccFTvYyK.s 			page 60


 1737 04a0 1370     		strb	r3, [r2]
 324:./PS4Parser.h ****                 ps4Output.reportChanged = true;
 1738              		.loc 3 324 0
 1739 04a2 2A00     		movs	r2, r5
 1740 04a4 BA32     		adds	r2, r2, #186
 1741 04a6 1370     		strb	r3, [r2]
 1742              		.loc 3 325 0
 1743 04a8 2B00     		movs	r3, r5
 1744 04aa 0122     		movs	r2, #1
 1745 04ac BD33     		adds	r3, r3, #189
 1746 04ae 1A70     		strb	r2, [r3]
 1747              	.LVL179:
 1748 04b0 80E6     		b	.L67
 1749              	.LVL180:
 1750              	.L151:
 1751              	.LBE209:
 1752              	.LBE208:
 1753              	.LBE207:
 153:main.c        ****         PS4.setLedFlash(0, 0); // Turn off blinking
 1754              		.loc 5 153 0
 1755 04b2 3148     		ldr	r0, .L166+44
 1756 04b4 FFF7FEFF 		bl	iprintf
 1757              	.LVL181:
 1758              	.LBB210:
 1759              	.LBB211:
 326:./PS4Parser.h ****         };
 327:./PS4Parser.h **** 
 328:./PS4Parser.h ****         /**
 329:./PS4Parser.h ****          * Use this to set the color using the predefined colors in ::ColorsEnum.
 330:./PS4Parser.h ****          * @param color The desired color.
 331:./PS4Parser.h ****          */
 332:./PS4Parser.h ****         void setLed(ColorsEnum color) {
 333:./PS4Parser.h ****                 setLed((uint8_t)(color >> 16), (uint8_t)(color >> 8), (uint8_t)(color));
 334:./PS4Parser.h ****         };
 335:./PS4Parser.h **** 
 336:./PS4Parser.h ****         /**
 337:./PS4Parser.h ****          * Set the LEDs flash time.
 338:./PS4Parser.h ****          * @param flashOn  Time to flash bright (255 = 2.5 seconds).
 339:./PS4Parser.h ****          * @param flashOff Time to flash dark (255 = 2.5 seconds).
 340:./PS4Parser.h ****          */
 341:./PS4Parser.h ****         void setLedFlash(uint8_t flashOn, uint8_t flashOff) {
 342:./PS4Parser.h ****                 ps4Output.flashOn = flashOn;
 1760              		.loc 3 342 0
 1761 04b8 2A00     		movs	r2, r5
 1762 04ba 0023     		movs	r3, #0
 1763 04bc BB32     		adds	r2, r2, #187
 1764 04be 1370     		strb	r3, [r2]
 343:./PS4Parser.h ****                 ps4Output.flashOff = flashOff;
 1765              		.loc 3 343 0
 1766 04c0 2A00     		movs	r2, r5
 1767 04c2 BC32     		adds	r2, r2, #188
 1768 04c4 1370     		strb	r3, [r2]
 344:./PS4Parser.h ****                 ps4Output.reportChanged = true;
 1769              		.loc 3 344 0
 1770 04c6 2B00     		movs	r3, r5
 1771 04c8 0122     		movs	r2, #1
 1772 04ca BD33     		adds	r3, r3, #189
ARM GAS  C:\Users\jrdia\AppData\Local\Temp\ccFTvYyK.s 			page 61


 1773 04cc 1A70     		strb	r2, [r3]
 1774 04ce 6AE6     		b	.L66
 1775              	.LVL182:
 1776              	.L150:
 1777              	.LBE211:
 1778              	.LBE210:
 149:main.c        ****         PS4.setLedFlash(10, 10); // Set it to blink rapidly
 1779              		.loc 5 149 0
 1780 04d0 2A48     		ldr	r0, .L166+48
 1781 04d2 FFF7FEFF 		bl	iprintf
 1782              	.LVL183:
 1783              	.LBB212:
 1784              	.LBB213:
 342:./PS4Parser.h ****                 ps4Output.flashOff = flashOff;
 1785              		.loc 3 342 0
 1786 04d6 2A00     		movs	r2, r5
 1787 04d8 0A23     		movs	r3, #10
 1788 04da BB32     		adds	r2, r2, #187
 1789 04dc 1370     		strb	r3, [r2]
 343:./PS4Parser.h ****                 ps4Output.reportChanged = true;
 1790              		.loc 3 343 0
 1791 04de 2A00     		movs	r2, r5
 1792 04e0 BC32     		adds	r2, r2, #188
 1793 04e2 1370     		strb	r3, [r2]
 1794              		.loc 3 344 0
 1795 04e4 2B00     		movs	r3, r5
 1796 04e6 0122     		movs	r2, #1
 1797 04e8 BD33     		adds	r3, r3, #189
 1798 04ea 1A70     		strb	r2, [r3]
 1799 04ec 54E6     		b	.L65
 1800              	.LVL184:
 1801              	.L149:
 1802              	.LBE213:
 1803              	.LBE212:
 145:main.c        ****         PS4.setRumbleOn(RumbleHigh);
 1804              		.loc 5 145 0
 1805 04ee 2448     		ldr	r0, .L166+52
 1806 04f0 FFF7FEFF 		bl	iprintf
 1807              	.LVL185:
 1808              	.LBB214:
 1809              	.LBB215:
 1810              	.LBB216:
 307:./PS4Parser.h ****                 ps4Output.smallRumble = smallRumble;
 1811              		.loc 3 307 0
 1812 04f4 2B00     		movs	r3, r5
 1813 04f6 FF22     		movs	r2, #255
 1814 04f8 B633     		adds	r3, r3, #182
 1815 04fa 1A70     		strb	r2, [r3]
 308:./PS4Parser.h ****                 ps4Output.reportChanged = true;
 1816              		.loc 3 308 0
 1817 04fc 2B00     		movs	r3, r5
 1818 04fe 0022     		movs	r2, #0
 1819 0500 B733     		adds	r3, r3, #183
 1820 0502 1A70     		strb	r2, [r3]
 309:./PS4Parser.h ****         };
 1821              		.loc 3 309 0
 1822 0504 2B00     		movs	r3, r5
ARM GAS  C:\Users\jrdia\AppData\Local\Temp\ccFTvYyK.s 			page 62


 1823 0506 0132     		adds	r2, r2, #1
 1824 0508 BD33     		adds	r3, r3, #189
 1825 050a 1A70     		strb	r2, [r3]
 1826 050c 3DE6     		b	.L64
 1827              	.LVL186:
 1828              	.L148:
 1829              	.LBE216:
 1830              	.LBE215:
 1831              	.LBE214:
 141:main.c        ****         PS4.setRumbleOn(RumbleLow);
 1832              		.loc 5 141 0
 1833 050e 1D48     		ldr	r0, .L166+56
 1834 0510 FFF7FEFF 		bl	iprintf
 1835              	.LVL187:
 1836              	.LBB217:
 1837              	.LBB218:
 1838              	.LBB219:
 307:./PS4Parser.h ****                 ps4Output.smallRumble = smallRumble;
 1839              		.loc 3 307 0
 1840 0514 2B00     		movs	r3, r5
 1841 0516 B633     		adds	r3, r3, #182
 1842 0518 1F70     		strb	r7, [r3]
 308:./PS4Parser.h ****                 ps4Output.reportChanged = true;
 1843              		.loc 3 308 0
 1844 051a 2B00     		movs	r3, r5
 1845 051c FF22     		movs	r2, #255
 1846 051e B733     		adds	r3, r3, #183
 1847 0520 1A70     		strb	r2, [r3]
 309:./PS4Parser.h ****         };
 1848              		.loc 3 309 0
 1849 0522 2B00     		movs	r3, r5
 1850 0524 FE3A     		subs	r2, r2, #254
 1851 0526 BD33     		adds	r3, r3, #189
 1852 0528 1A70     		strb	r2, [r3]
 1853 052a 27E6     		b	.L63
 1854              	.LVL188:
 1855              	.L147:
 1856              	.LBE219:
 1857              	.LBE218:
 1858              	.LBE217:
 1859              	.LBE220:
 1860              	.LBE223:
 130:main.c        ****       PS4.setRumbleOn(PS4.getAnalogButton(L2), PS4.getAnalogButton(R2));
 1861              		.loc 5 130 0 discriminator 2
 1862 052c 0921     		movs	r1, #9
 1863 052e 2000     		movs	r0, r4
 1864 0530 FFF7FEFF 		bl	_ZN9PS4Parser15getAnalogButtonE10ButtonEnum
 1865              	.LVL189:
 1866 0534 5B46     		mov	r3, fp
 1867 0536 4A46     		mov	r2, r9
 1868 0538 9B5C     		ldrb	r3, [r3, r2]
 1869 053a 8342     		cmp	r3, r0
 1870 053c 00D0     		beq	.LCB1687
 1871 053e E5E5     		b	.L60	@long jump
 1872              	.LCB1687:
 1873 0540 F7E5     		b	.L85
 1874              	.LVL190:
ARM GAS  C:\Users\jrdia\AppData\Local\Temp\ccFTvYyK.s 			page 63


 1875              	.L144:
 1876              	.LBE224:
 1877              	.LBE225:
 1878              	.LBE176:
  99:main.c        ****     while (1); // Halt
 1879              		.loc 5 99 0
 1880 0542 1148     		ldr	r0, .L166+60
 1881 0544 FFF7FEFF 		bl	UART_UartPutString
 1882              	.LVL191:
 1883              	.L55:
 1884 0548 FEE7     		b	.L55
 1885              	.L167:
 1886 054a C046     		.align	2
 1887              	.L166:
 1888 054c C4000000 		.word	.LC37
 1889 0550 CC000000 		.word	.LC39
 1890 0554 D4000000 		.word	.LC41
 1891 0558 E0000000 		.word	.LC43
 1892 055c BC000000 		.word	.LC35
 1893 0560 B4000000 		.word	.LC33
 1894 0564 AC000000 		.word	.LC31
 1895 0568 A4000000 		.word	.LC29
 1896 056c 9C000000 		.word	.LC27
 1897 0570 94000000 		.word	.LC25
 1898 0574 8C000000 		.word	.LC23
 1899 0578 80000000 		.word	.LC21
 1900 057c 78000000 		.word	.LC19
 1901 0580 6C000000 		.word	.LC17
 1902 0584 60000000 		.word	.LC15
 1903 0588 2C000000 		.word	.LC7
 1904              		.cfi_endproc
 1905              	.LFE322:
 1906              		.fnend
 1907              		.size	main, .-main
 1908              		.section	.text.startup._GLOBAL__sub_I_PORTB,"ax",%progbits
 1909              		.align	2
 1910              		.code	16
 1911              		.thumb_func
 1912              		.type	_GLOBAL__sub_I_PORTB, %function
 1913              	_GLOBAL__sub_I_PORTB:
 1914              		.fnstart
 1915              	.LFB334:
 208:main.c        ****           }
 209:main.c        ****         }
 210:main.c        ****       }
 211:main.c        ****     }
 212:main.c        ****     }
 213:main.c        ****     }
 214:main.c        **** }
 1916              		.loc 5 214 0
 1917              		.cfi_startproc
 1918              		@ args = 0, pretend = 0, frame = 0
 1919              		@ frame_needed = 0, uses_anonymous_args = 0
 1920              	.LVL192:
 1921 0000 70B5     		push	{r4, r5, r6, lr}
 1922              		.cfi_def_cfa_offset 16
 1923              		.cfi_offset 4, -16
ARM GAS  C:\Users\jrdia\AppData\Local\Temp\ccFTvYyK.s 			page 64


 1924              		.cfi_offset 5, -12
 1925              		.cfi_offset 6, -8
 1926              		.cfi_offset 14, -4
 1927              	.LBB233:
 1928              	.LBB234:
  71:main.c        **** BTD Btd(&Usb); // You have to create the Bluetooth Dongle instance like so
 1929              		.loc 5 71 0
 1930 0002 114C     		ldr	r4, .L169
 1931              	.LBE234:
 1932              	.LBE233:
 1933              		.loc 5 214 0
 1934              		@ sp needed
 1935              	.LBB242:
 1936              	.LBB241:
  71:main.c        **** BTD Btd(&Usb); // You have to create the Bluetooth Dongle instance like so
 1937              		.loc 5 71 0
 1938 0004 0834     		adds	r4, r4, #8
 1939 0006 2000     		movs	r0, r4
 1940 0008 FFF7FEFF 		bl	_ZN3USBC1Ev
 1941              	.LVL193:
  72:main.c        **** PS4BT PS4(&Btd, PAIR);
 1942              		.loc 5 72 0
 1943 000c 0F4D     		ldr	r5, .L169+4
 1944 000e 2100     		movs	r1, r4
 1945 0010 4435     		adds	r5, r5, #68
 1946 0012 2800     		movs	r0, r5
 1947 0014 FFF7FEFF 		bl	_ZN3BTDC1EP3USB
 1948              	.LVL194:
 1949              	.LBB235:
 1950              	.LBB236:
  37:./PS4BT.h     ****                 PS4Parser::Reset();
 1951              		.loc 2 37 0
 1952 0018 0D4C     		ldr	r4, .L169+8
 1953 001a 2900     		movs	r1, r5
 1954 001c 2000     		movs	r0, r4
 1955              	.LBB237:
 1956              	.LBB238:
 128:./PS4Parser.h ****         };
 1957              		.loc 3 128 0
 1958 001e 2500     		movs	r5, r4
 1959              	.LBE238:
 1960              	.LBE237:
  37:./PS4BT.h     ****                 PS4Parser::Reset();
 1961              		.loc 2 37 0
 1962 0020 0122     		movs	r2, #1
 1963 0022 0C4B     		ldr	r3, .L169+12
 1964 0024 4430     		adds	r0, r0, #68
 1965 0026 FFF7FEFF 		bl	_ZN5BTHIDC2EP3BTDbPKc
 1966              	.LVL195:
 1967              	.LBB240:
 1968              	.LBB239:
 127:./PS4Parser.h ****                 Reset();
 1969              		.loc 3 127 0
 1970 002a 0B4B     		ldr	r3, .L169+16
 128:./PS4Parser.h ****         };
 1971              		.loc 3 128 0
 1972 002c 7035     		adds	r5, r5, #112
ARM GAS  C:\Users\jrdia\AppData\Local\Temp\ccFTvYyK.s 			page 65


 1973 002e 2800     		movs	r0, r5
 127:./PS4Parser.h ****                 Reset();
 1974              		.loc 3 127 0
 1975 0030 2367     		str	r3, [r4, #112]
 128:./PS4Parser.h ****         };
 1976              		.loc 3 128 0
 1977 0032 FFF7FEFF 		bl	_ZN9PS4Parser5ResetEv
 1978              	.LVL196:
 1979              	.LBE239:
 1980              	.LBE240:
  37:./PS4BT.h     ****                 PS4Parser::Reset();
 1981              		.loc 2 37 0
 1982 0036 094B     		ldr	r3, .L169+20
  38:./PS4BT.h     ****         };
 1983              		.loc 2 38 0
 1984 0038 2800     		movs	r0, r5
  37:./PS4BT.h     ****                 PS4Parser::Reset();
 1985              		.loc 2 37 0
 1986 003a 6364     		str	r3, [r4, #68]
 1987 003c 2C33     		adds	r3, r3, #44
 1988 003e 2367     		str	r3, [r4, #112]
  38:./PS4BT.h     ****         };
 1989              		.loc 2 38 0
 1990 0040 FFF7FEFF 		bl	_ZN9PS4Parser5ResetEv
 1991              	.LVL197:
 1992              	.LBE236:
 1993              	.LBE235:
 1994              	.LBE241:
 1995              	.LBE242:
 1996              		.loc 5 214 0
 1997 0044 70BD     		pop	{r4, r5, r6, pc}
 1998              	.L170:
 1999 0046 C046     		.align	2
 2000              	.L169:
 2001 0048 00000000 		.word	.LANCHOR0
 2002 004c 00010000 		.word	.LANCHOR2
 2003 0050 80000000 		.word	.LANCHOR1
 2004 0054 50010000 		.word	.LC86
 2005 0058 08000000 		.word	_ZTV9PS4Parser+8
 2006 005c 08000000 		.word	_ZTV5PS4BT+8
 2007              		.cfi_endproc
 2008              	.LFE334:
 2009              		.cantunwind
 2010              		.fnend
 2011              		.size	_GLOBAL__sub_I_PORTB, .-_GLOBAL__sub_I_PORTB
 2012              		.section	.init_array,"aw",%init_array
 2013              		.align	2
 2014 0000 00000000 		.word	_GLOBAL__sub_I_PORTB(target1)
 2015              		.weak	_ZN8MAX3421eI4TPinI5PortbLh2EES0_IS1_Lh1EEE9vbusStateE
 2016              		.section	.bss._ZN8MAX3421eI4TPinI5PortbLh2EES0_IS1_Lh1EEE9vbusStateE,"awG",%nobits,_ZN8MAX3421eI4T
 2017              		.type	_ZN8MAX3421eI4TPinI5PortbLh2EES0_IS1_Lh1EEE9vbusStateE, %object
 2018              		.size	_ZN8MAX3421eI4TPinI5PortbLh2EES0_IS1_Lh1EEE9vbusStateE, 1
 2019              	_ZN8MAX3421eI4TPinI5PortbLh2EES0_IS1_Lh1EEE9vbusStateE:
 2020 0000 00       		.space	1
 2021              		.weak	_ZTS9PS4Parser
 2022              		.section	.rodata._ZTS9PS4Parser,"aG",%progbits,_ZTS9PS4Parser,comdat
 2023              		.align	2
ARM GAS  C:\Users\jrdia\AppData\Local\Temp\ccFTvYyK.s 			page 66


 2024              		.type	_ZTS9PS4Parser, %object
 2025              		.size	_ZTS9PS4Parser, 11
 2026              	_ZTS9PS4Parser:
 2027 0000 39505334 		.ascii	"9PS4Parser\000"
 2027      50617273 
 2027      657200
 2028              		.weak	_ZTI9PS4Parser
 2029              		.section	.rodata._ZTI9PS4Parser,"aG",%progbits,_ZTI9PS4Parser,comdat
 2030              		.align	2
 2031              		.type	_ZTI9PS4Parser, %object
 2032              		.size	_ZTI9PS4Parser, 8
 2033              	_ZTI9PS4Parser:
 2034 0000 08000000 		.word	_ZTVN10__cxxabiv117__class_type_infoE+8
 2035 0004 00000000 		.word	_ZTS9PS4Parser
 2036              		.weak	_ZTS5PS4BT
 2037              		.section	.rodata._ZTS5PS4BT,"aG",%progbits,_ZTS5PS4BT,comdat
 2038              		.align	2
 2039              		.type	_ZTS5PS4BT, %object
 2040              		.size	_ZTS5PS4BT, 7
 2041              	_ZTS5PS4BT:
 2042 0000 35505334 		.ascii	"5PS4BT\000"
 2042      425400
 2043              		.weak	_ZTI5PS4BT
 2044              		.section	.rodata._ZTI5PS4BT,"aG",%progbits,_ZTI5PS4BT,comdat
 2045              		.align	2
 2046              		.type	_ZTI5PS4BT, %object
 2047              		.size	_ZTI5PS4BT, 32
 2048              	_ZTI5PS4BT:
 2049 0000 08000000 		.word	_ZTVN10__cxxabiv121__vmi_class_type_infoE+8
 2050 0004 00000000 		.word	_ZTS5PS4BT
 2051 0008 00000000 		.word	0
 2052 000c 02000000 		.word	2
 2053 0010 00000000 		.word	_ZTI5BTHID
 2054 0014 02000000 		.word	2
 2055 0018 00000000 		.word	_ZTI9PS4Parser
 2056 001c 022C0000 		.word	11266
 2057              		.weak	_ZTV9PS4Parser
 2058              		.section	.rodata._ZTV9PS4Parser,"aG",%progbits,_ZTV9PS4Parser,comdat
 2059              		.align	2
 2060              		.type	_ZTV9PS4Parser, %object
 2061              		.size	_ZTV9PS4Parser, 12
 2062              	_ZTV9PS4Parser:
 2063 0000 00000000 		.word	0
 2064 0004 00000000 		.word	_ZTI9PS4Parser
 2065 0008 00000000 		.word	__cxa_pure_virtual
 2066              		.weak	_ZTV5PS4BT
 2067              		.section	.rodata._ZTV5PS4BT,"aG",%progbits,_ZTV5PS4BT,comdat
 2068              		.align	2
 2069              		.type	_ZTV5PS4BT, %object
 2070              		.size	_ZTV5PS4BT, 56
 2071              	_ZTV5PS4BT:
 2072 0000 00000000 		.word	0
 2073 0004 00000000 		.word	_ZTI5PS4BT
 2074 0008 00000000 		.word	_ZN5BTHID7ACLDataEPh
 2075 000c 00000000 		.word	_ZN5BTHID3RunEv
 2076 0010 00000000 		.word	_ZN5BTHID5ResetEv
 2077 0014 00000000 		.word	_ZN5BTHID10disconnectEv
ARM GAS  C:\Users\jrdia\AppData\Local\Temp\ccFTvYyK.s 			page 67


 2078 0018 00000000 		.word	_ZN5BTHID6onInitEv
 2079 001c 00000000 		.word	_ZN5PS4BT14ParseBTHIDDataEhPh
 2080 0020 00000000 		.word	_ZN5PS4BT11OnInitBTHIDEv
 2081 0024 00000000 		.word	_ZN5PS4BT10ResetBTHIDEv
 2082 0028 00000000 		.word	_ZN5PS4BT16sendOutputReportEP9PS4Output
 2083 002c D4FFFFFF 		.word	-44
 2084 0030 00000000 		.word	_ZTI5PS4BT
 2085 0034 00000000 		.word	_ZThn44_N5PS4BT16sendOutputReportEP9PS4Output
 2086              		.global	oldR2Value
 2087              		.global	oldL2Value
 2088              		.global	printTouch
 2089              		.global	printAngle
 2090              		.global	PS4
 2091              		.global	Btd
 2092              		.global	Usb
 2093              		.global	Pd0
 2094              		.global	Pd8
 2095              		.global	Pd7
 2096              		.global	Pd6
 2097              		.global	Pd5
 2098              		.global	Pd4
 2099              		.global	Pd3
 2100              		.global	Pd2
 2101              		.global	Pd1
 2102              		.global	PINB
 2103              		.global	DDRB
 2104              		.global	PORTB
 2105              		.section	.rodata.str1.4,"aMS",%progbits,1
 2106              		.align	2
 2107              	.LC0:
 2108 0000 5465726D 		.ascii	"Terminal Count.\000"
 2108      696E616C 
 2108      20436F75 
 2108      6E742E00 
 2109              	.LC4:
 2110 0010 53746172 		.ascii	"Starting Bluetooth Test.\015\012\000"
 2110      74696E67 
 2110      20426C75 
 2110      65746F6F 
 2110      74682054 
 2111 002b 00       		.space	1
 2112              	.LC7:
 2113 002c 0D0A4F53 		.ascii	"\015\012OSC did not start\015\012\000"
 2113      43206469 
 2113      64206E6F 
 2113      74207374 
 2113      6172740D 
 2114 0042 0000     		.space	2
 2115              	.LC9:
 2116 0044 55534220 		.ascii	"USB Initialized.\015\012\000"
 2116      496E6974 
 2116      69616C69 
 2116      7A65642E 
 2116      0D0A00
 2117 0057 00       		.space	1
 2118              	.LC13:
 2119 0058 0D0A5053 		.ascii	"\015\012PS\000"
ARM GAS  C:\Users\jrdia\AppData\Local\Temp\ccFTvYyK.s 			page 68


 2119      00
 2120 005d 000000   		.space	3
 2121              	.LC15:
 2122 0060 0D0A5472 		.ascii	"\015\012Traingle\000"
 2122      61696E67 
 2122      6C6500
 2123 006b 00       		.space	1
 2124              	.LC17:
 2125 006c 0D0A4369 		.ascii	"\015\012Circle\000"
 2125      72636C65 
 2125      00
 2126 0075 000000   		.space	3
 2127              	.LC19:
 2128 0078 0D0A4372 		.ascii	"\015\012Cross\000"
 2128      6F737300 
 2129              	.LC21:
 2130 0080 0D0A5371 		.ascii	"\015\012Square\000"
 2130      75617265 
 2130      00
 2131 0089 000000   		.space	3
 2132              	.LC23:
 2133 008c 0D0A5570 		.ascii	"\015\012Up\000"
 2133      00
 2134 0091 000000   		.space	3
 2135              	.LC25:
 2136 0094 0D0A5269 		.ascii	"\015\012Right\000"
 2136      67687400 
 2137              	.LC27:
 2138 009c 0D0A446F 		.ascii	"\015\012Down\000"
 2138      776E00
 2139 00a3 00       		.space	1
 2140              	.LC29:
 2141 00a4 0D0A4C65 		.ascii	"\015\012Left\000"
 2141      667400
 2142 00ab 00       		.space	1
 2143              	.LC31:
 2144 00ac 0D0A4C31 		.ascii	"\015\012L1\000"
 2144      00
 2145 00b1 000000   		.space	3
 2146              	.LC33:
 2147 00b4 0D0A4C33 		.ascii	"\015\012L3\000"
 2147      00
 2148 00b9 000000   		.space	3
 2149              	.LC35:
 2150 00bc 0D0A5231 		.ascii	"\015\012R1\000"
 2150      00
 2151 00c1 000000   		.space	3
 2152              	.LC37:
 2153 00c4 0D0A5233 		.ascii	"\015\012R3\000"
 2153      00
 2154 00c9 000000   		.space	3
 2155              	.LC39:
 2156 00cc 0D0A5368 		.ascii	"\015\012Share\000"
 2156      61726500 
 2157              	.LC41:
 2158 00d4 0D0A4F70 		.ascii	"\015\012Options\000"
 2158      74696F6E 
ARM GAS  C:\Users\jrdia\AppData\Local\Temp\ccFTvYyK.s 			page 69


 2158      7300
 2159 00de 0000     		.space	2
 2160              	.LC43:
 2161 00e0 0D0A546F 		.ascii	"\015\012Touchpad\000"
 2161      75636870 
 2161      616400
 2162 00eb 00       		.space	1
 2163              	.LC45:
 2164 00ec 5800     		.ascii	"X\000"
 2165 00ee 0000     		.space	2
 2166              	.LC47:
 2167 00f0 256400   		.ascii	"%d\000"
 2168 00f3 00       		.space	1
 2169              	.LC49:
 2170 00f4 3A2000   		.ascii	": \000"
 2171 00f7 00       		.space	1
 2172              	.LC51:
 2173 00f8 095900   		.ascii	"\011Y\000"
 2174 00fb 00       		.space	1
 2175              	.LC53:
 2176 00fc 0900     		.ascii	"\011\000"
 2177 00fe 0000     		.space	2
 2178              	.LC55:
 2179 0100 0D0A4C65 		.ascii	"\015\012LeftHatX: \000"
 2179      66744861 
 2179      74583A20 
 2179      00
 2180 010d 000000   		.space	3
 2181              	.LC57:
 2182 0110 094C6566 		.ascii	"\011LeftHatY: \000"
 2182      74486174 
 2182      593A2000 
 2183              	.LC59:
 2184 011c 09526967 		.ascii	"\011RightHatX: \000"
 2184      68744861 
 2184      74583A20 
 2184      00
 2185 0129 000000   		.space	3
 2186              	.LC61:
 2187 012c 09526967 		.ascii	"\011RightHatY: \000"
 2187      68744861 
 2187      74593A20 
 2187      00
 2188 0139 000000   		.space	3
 2189              	.LC63:
 2190 013c 0D0A4C32 		.ascii	"\015\012L2: \000"
 2190      3A2000
 2191 0143 00       		.space	1
 2192              	.LC65:
 2193 0144 0952323A 		.ascii	"\011R2: \000"
 2193      2000
 2194 014a 0000     		.space	2
 2195              	.LC67:
 2196 014c 0D0A00   		.ascii	"\015\012\000"
 2197 014f 00       		.space	1
 2198              	.LC86:
 2199 0150 30303030 		.ascii	"0000\000"
ARM GAS  C:\Users\jrdia\AppData\Local\Temp\ccFTvYyK.s 			page 70


 2199      00
 2200              		.bss
 2201              		.align	2
 2202              		.set	.LANCHOR0,. + 0
 2203              		.set	.LANCHOR1,. + 128
 2204              		.set	.LANCHOR2,. + 256
 2205              		.type	DDRB, %object
 2206              		.size	DDRB, 4
 2207              	DDRB:
 2208 0000 00000000 		.space	4
 2209              		.type	PORTB, %object
 2210              		.size	PORTB, 4
 2211              	PORTB:
 2212 0004 00000000 		.space	4
 2213              		.type	Usb, %object
 2214              		.size	Usb, 188
 2215              	Usb:
 2216 0008 00000000 		.space	188
 2216      00000000 
 2216      00000000 
 2216      00000000 
 2216      00000000 
 2217              		.type	PS4, %object
 2218              		.size	PS4, 124
 2219              	PS4:
 2220 00c4 00000000 		.space	124
 2220      00000000 
 2220      00000000 
 2220      00000000 
 2220      00000000 
 2221              		.type	oldL2Value, %object
 2222              		.size	oldL2Value, 1
 2223              	oldL2Value:
 2224 0140 00       		.space	1
 2225              		.type	oldR2Value, %object
 2226              		.size	oldR2Value, 1
 2227              	oldR2Value:
 2228 0141 00       		.space	1
 2229              		.type	printAngle, %object
 2230              		.size	printAngle, 1
 2231              	printAngle:
 2232 0142 00       		.space	1
 2233              		.type	printTouch, %object
 2234              		.size	printTouch, 1
 2235              	printTouch:
 2236 0143 00       		.space	1
 2237              		.type	Btd, %object
 2238              		.size	Btd, 280
 2239              	Btd:
 2240 0144 00000000 		.space	280
 2240      00000000 
 2240      00000000 
 2240      00000000 
 2240      00000000 
 2241              		.type	Pd0, %object
 2242              		.size	Pd0, 1
 2243              	Pd0:
ARM GAS  C:\Users\jrdia\AppData\Local\Temp\ccFTvYyK.s 			page 71


 2244 025c 00       		.space	1
 2245              		.type	Pd8, %object
 2246              		.size	Pd8, 1
 2247              	Pd8:
 2248 025d 00       		.space	1
 2249              		.type	Pd7, %object
 2250              		.size	Pd7, 1
 2251              	Pd7:
 2252 025e 00       		.space	1
 2253              		.type	Pd6, %object
 2254              		.size	Pd6, 1
 2255              	Pd6:
 2256 025f 00       		.space	1
 2257              		.type	Pd5, %object
 2258              		.size	Pd5, 1
 2259              	Pd5:
 2260 0260 00       		.space	1
 2261              		.type	Pd4, %object
 2262              		.size	Pd4, 1
 2263              	Pd4:
 2264 0261 00       		.space	1
 2265              		.type	Pd3, %object
 2266              		.size	Pd3, 1
 2267              	Pd3:
 2268 0262 00       		.space	1
 2269              		.type	Pd2, %object
 2270              		.size	Pd2, 1
 2271              	Pd2:
 2272 0263 00       		.space	1
 2273              		.type	Pd1, %object
 2274              		.size	Pd1, 1
 2275              	Pd1:
 2276 0264 00       		.space	1
 2277 0265 000000   		.space	3
 2278              		.type	PINB, %object
 2279              		.size	PINB, 4
 2280              	PINB:
 2281 0268 00000000 		.space	4
 2282              		.text
 2283              	.Letext0:
 2284              		.file 7 "c:\\program files (x86)\\cypress\\psoc creator\\4.1\\psoc creator\\import\\gnu\\arm\\5.4.
 2285              		.file 8 "c:\\program files (x86)\\cypress\\psoc creator\\4.1\\psoc creator\\import\\gnu\\arm\\5.4.
 2286              		.file 9 "Generated_Source\\PSoC4/cytypes.h"
 2287              		.file 10 "./address.h"
 2288              		.file 11 "./UsbCore.h"
 2289              		.file 12 "./Stream.h"
 2290              		.file 13 "./controllerEnums.h"
 2291              		.file 14 "./BTD.h"
 2292              		.file 15 "./sink_parser.h"
 2293              		.file 16 "./hidusagestr.h"
 2294              		.file 17 "Generated_Source\\PSoC4/CyLib.h"
 2295              		.file 18 "Generated_Source\\PSoC4/SS.h"
 2296              		.file 19 "Generated_Source\\PSoC4/SPI.h"
 2297              		.file 20 "Generated_Source\\PSoC4/UART_SPI_UART.h"
 2298              		.file 21 "Generated_Source\\PSoC4/Millis_Timer.h"
 2299              		.file 22 "c:\\program files (x86)\\cypress\\psoc creator\\4.1\\psoc creator\\import\\gnu\\arm\\5.4
 2300              		.file 23 "Generated_Source\\PSoC4/UART.h"
ARM GAS  C:\Users\jrdia\AppData\Local\Temp\ccFTvYyK.s 			page 72


 2301              		.section	.debug_info,"",%progbits
 2302              	.Ldebug_info0:
 2303 0000 E1700000 		.4byte	0x70e1
 2304 0004 0400     		.2byte	0x4
 2305 0006 00000000 		.4byte	.Ldebug_abbrev0
 2306 000a 04       		.byte	0x4
 2307 000b 01       		.uleb128 0x1
 2308 000c 75330000 		.4byte	.LASF1322
 2309 0010 04       		.byte	0x4
 2310 0011 31610000 		.4byte	.LASF1323
 2311 0015 130F0000 		.4byte	.LASF1324
 2312 0019 00010000 		.4byte	.Ldebug_ranges0+0x100
 2313 001d 00000000 		.4byte	0
 2314 0021 00000000 		.4byte	.Ldebug_line0
 2315 0025 02       		.uleb128 0x2
 2316 0026 A0640000 		.4byte	.LASF0
 2317 002a 07       		.byte	0x7
 2318 002b 1B       		.byte	0x1b
 2319 002c 30000000 		.4byte	0x30
 2320 0030 03       		.uleb128 0x3
 2321 0031 01       		.byte	0x1
 2322 0032 06       		.byte	0x6
 2323 0033 7C390000 		.4byte	.LASF2
 2324 0037 02       		.uleb128 0x2
 2325 0038 DA020000 		.4byte	.LASF1
 2326 003c 07       		.byte	0x7
 2327 003d 1D       		.byte	0x1d
 2328 003e 42000000 		.4byte	0x42
 2329 0042 03       		.uleb128 0x3
 2330 0043 01       		.byte	0x1
 2331 0044 08       		.byte	0x8
 2332 0045 6D1A0000 		.4byte	.LASF3
 2333 0049 02       		.uleb128 0x2
 2334 004a 4F160000 		.4byte	.LASF4
 2335 004e 07       		.byte	0x7
 2336 004f 29       		.byte	0x29
 2337 0050 54000000 		.4byte	0x54
 2338 0054 03       		.uleb128 0x3
 2339 0055 02       		.byte	0x2
 2340 0056 05       		.byte	0x5
 2341 0057 57670000 		.4byte	.LASF5
 2342 005b 02       		.uleb128 0x2
 2343 005c 82160000 		.4byte	.LASF6
 2344 0060 07       		.byte	0x7
 2345 0061 2B       		.byte	0x2b
 2346 0062 66000000 		.4byte	0x66
 2347 0066 03       		.uleb128 0x3
 2348 0067 02       		.byte	0x2
 2349 0068 07       		.byte	0x7
 2350 0069 61390000 		.4byte	.LASF7
 2351 006d 03       		.uleb128 0x3
 2352 006e 04       		.byte	0x4
 2353 006f 05       		.byte	0x5
 2354 0070 2F410000 		.4byte	.LASF8
 2355 0074 02       		.uleb128 0x2
 2356 0075 46540000 		.4byte	.LASF9
 2357 0079 07       		.byte	0x7
ARM GAS  C:\Users\jrdia\AppData\Local\Temp\ccFTvYyK.s 			page 73


 2358 007a 41       		.byte	0x41
 2359 007b 7F000000 		.4byte	0x7f
 2360 007f 03       		.uleb128 0x3
 2361 0080 04       		.byte	0x4
 2362 0081 07       		.byte	0x7
 2363 0082 CB460000 		.4byte	.LASF10
 2364 0086 03       		.uleb128 0x3
 2365 0087 08       		.byte	0x8
 2366 0088 05       		.byte	0x5
 2367 0089 595F0000 		.4byte	.LASF11
 2368 008d 03       		.uleb128 0x3
 2369 008e 08       		.byte	0x8
 2370 008f 07       		.byte	0x7
 2371 0090 E3580000 		.4byte	.LASF12
 2372 0094 04       		.uleb128 0x4
 2373 0095 04       		.byte	0x4
 2374 0096 05       		.byte	0x5
 2375 0097 696E7400 		.ascii	"int\000"
 2376 009b 03       		.uleb128 0x3
 2377 009c 04       		.byte	0x4
 2378 009d 07       		.byte	0x7
 2379 009e A1650000 		.4byte	.LASF13
 2380 00a2 02       		.uleb128 0x2
 2381 00a3 74350000 		.4byte	.LASF14
 2382 00a7 08       		.byte	0x8
 2383 00a8 14       		.byte	0x14
 2384 00a9 25000000 		.4byte	0x25
 2385 00ad 02       		.uleb128 0x2
 2386 00ae 01270000 		.4byte	.LASF15
 2387 00b2 08       		.byte	0x8
 2388 00b3 18       		.byte	0x18
 2389 00b4 37000000 		.4byte	0x37
 2390 00b8 02       		.uleb128 0x2
 2391 00b9 33390000 		.4byte	.LASF16
 2392 00bd 08       		.byte	0x8
 2393 00be 20       		.byte	0x20
 2394 00bf 49000000 		.4byte	0x49
 2395 00c3 02       		.uleb128 0x2
 2396 00c4 53060000 		.4byte	.LASF17
 2397 00c8 08       		.byte	0x8
 2398 00c9 24       		.byte	0x24
 2399 00ca 5B000000 		.4byte	0x5b
 2400 00ce 02       		.uleb128 0x2
 2401 00cf 37440000 		.4byte	.LASF18
 2402 00d3 08       		.byte	0x8
 2403 00d4 30       		.byte	0x30
 2404 00d5 74000000 		.4byte	0x74
 2405 00d9 05       		.uleb128 0x5
 2406 00da 93490000 		.4byte	.LASF19
 2407 00de 09       		.byte	0x9
 2408 00df D401     		.2byte	0x1d4
 2409 00e1 7F000000 		.4byte	0x7f
 2410 00e5 03       		.uleb128 0x3
 2411 00e6 04       		.byte	0x4
 2412 00e7 04       		.byte	0x4
 2413 00e8 CA1B0000 		.4byte	.LASF20
 2414 00ec 03       		.uleb128 0x3
ARM GAS  C:\Users\jrdia\AppData\Local\Temp\ccFTvYyK.s 			page 74


 2415 00ed 08       		.byte	0x8
 2416 00ee 04       		.byte	0x4
 2417 00ef DE510000 		.4byte	.LASF21
 2418 00f3 03       		.uleb128 0x3
 2419 00f4 01       		.byte	0x1
 2420 00f5 08       		.byte	0x8
 2421 00f6 8C480000 		.4byte	.LASF22
 2422 00fa 06       		.uleb128 0x6
 2423 00fb 04       		.byte	0x4
 2424 00fc 00010000 		.4byte	0x100
 2425 0100 07       		.uleb128 0x7
 2426 0101 03       		.uleb128 0x3
 2427 0102 04       		.byte	0x4
 2428 0103 07       		.byte	0x7
 2429 0104 81380000 		.4byte	.LASF23
 2430 0108 08       		.uleb128 0x8
 2431 0109 04       		.byte	0x4
 2432 010a 06       		.uleb128 0x6
 2433 010b 04       		.byte	0x4
 2434 010c 10010000 		.4byte	0x110
 2435 0110 09       		.uleb128 0x9
 2436 0111 F3000000 		.4byte	0xf3
 2437 0115 03       		.uleb128 0x3
 2438 0116 08       		.byte	0x8
 2439 0117 04       		.byte	0x4
 2440 0118 9E450000 		.4byte	.LASF24
 2441 011c 03       		.uleb128 0x3
 2442 011d 01       		.byte	0x1
 2443 011e 02       		.byte	0x2
 2444 011f 630B0000 		.4byte	.LASF25
 2445 0123 0A       		.uleb128 0xa
 2446 0124 3B120000 		.4byte	.LASF222
 2447 0128 01       		.byte	0x1
 2448 0129 42000000 		.4byte	0x42
 2449 012d 0C       		.byte	0xc
 2450 012e 29       		.byte	0x29
 2451 012f 46010000 		.4byte	0x146
 2452 0133 0B       		.uleb128 0xb
 2453 0134 3C180000 		.4byte	.LASF26
 2454 0138 00       		.byte	0
 2455 0139 0B       		.uleb128 0xb
 2456 013a DA500000 		.4byte	.LASF27
 2457 013e 01       		.byte	0x1
 2458 013f 0B       		.uleb128 0xb
 2459 0140 C95E0000 		.4byte	.LASF28
 2460 0144 02       		.byte	0x2
 2461 0145 00       		.byte	0
 2462 0146 0C       		.uleb128 0xc
 2463 0147 052F0000 		.4byte	.LASF34
 2464 014b 03       		.byte	0x3
 2465 014c 0A       		.byte	0xa
 2466 014d 20       		.byte	0x20
 2467 014e C0010000 		.4byte	0x1c0
 2468 0152 0D       		.uleb128 0xd
 2469 0153 01       		.byte	0x1
 2470 0154 0A       		.byte	0xa
 2471 0155 24       		.byte	0x24
ARM GAS  C:\Users\jrdia\AppData\Local\Temp\ccFTvYyK.s 			page 75


 2472 0156 A1010000 		.4byte	0x1a1
 2473 015a 0E       		.uleb128 0xe
 2474 015b 01       		.byte	0x1
 2475 015c 0A       		.byte	0xa
 2476 015d 27       		.byte	0x27
 2477 015e 90010000 		.4byte	0x190
 2478 0162 0F       		.uleb128 0xf
 2479 0163 EC0A0000 		.4byte	.LASF29
 2480 0167 0A       		.byte	0xa
 2481 0168 28       		.byte	0x28
 2482 0169 AD000000 		.4byte	0xad
 2483 016d 01       		.byte	0x1
 2484 016e 01       		.byte	0x1
 2485 016f 07       		.byte	0x7
 2486 0170 00       		.byte	0
 2487 0171 0F       		.uleb128 0xf
 2488 0172 B5480000 		.4byte	.LASF30
 2489 0176 0A       		.byte	0xa
 2490 0177 29       		.byte	0x29
 2491 0178 AD000000 		.4byte	0xad
 2492 017c 01       		.byte	0x1
 2493 017d 01       		.byte	0x1
 2494 017e 06       		.byte	0x6
 2495 017f 00       		.byte	0
 2496 0180 0F       		.uleb128 0xf
 2497 0181 4B080000 		.4byte	.LASF31
 2498 0185 0A       		.byte	0xa
 2499 0186 2A       		.byte	0x2a
 2500 0187 AD000000 		.4byte	0xad
 2501 018b 01       		.byte	0x1
 2502 018c 06       		.byte	0x6
 2503 018d 00       		.byte	0
 2504 018e 00       		.byte	0
 2505 018f 00       		.byte	0
 2506 0190 10       		.uleb128 0x10
 2507 0191 CB510000 		.4byte	.LASF40
 2508 0195 0A       		.byte	0xa
 2509 0196 25       		.byte	0x25
 2510 0197 AD000000 		.4byte	0xad
 2511 019b 11       		.uleb128 0x11
 2512 019c 5A010000 		.4byte	0x15a
 2513 01a0 00       		.byte	0
 2514 01a1 12       		.uleb128 0x12
 2515 01a2 66340000 		.4byte	.LASF32
 2516 01a6 0A       		.byte	0xa
 2517 01a7 21       		.byte	0x21
 2518 01a8 AD000000 		.4byte	0xad
 2519 01ac 00       		.byte	0
 2520 01ad 12       		.uleb128 0x12
 2521 01ae 89670000 		.4byte	.LASF33
 2522 01b2 0A       		.byte	0xa
 2523 01b3 22       		.byte	0x22
 2524 01b4 AD000000 		.4byte	0xad
 2525 01b8 01       		.byte	0x1
 2526 01b9 13       		.uleb128 0x13
 2527 01ba 52010000 		.4byte	0x152
 2528 01be 02       		.byte	0x2
ARM GAS  C:\Users\jrdia\AppData\Local\Temp\ccFTvYyK.s 			page 76


 2529 01bf 00       		.byte	0
 2530 01c0 0C       		.uleb128 0xc
 2531 01c1 2C2C0000 		.4byte	.LASF35
 2532 01c5 01       		.byte	0x1
 2533 01c6 0A       		.byte	0xa
 2534 01c7 39       		.byte	0x39
 2535 01c8 31020000 		.4byte	0x231
 2536 01cc 0D       		.uleb128 0xd
 2537 01cd 01       		.byte	0x1
 2538 01ce 0A       		.byte	0xa
 2539 01cf 3B       		.byte	0x3b
 2540 01d0 2A020000 		.4byte	0x22a
 2541 01d4 0E       		.uleb128 0xe
 2542 01d5 01       		.byte	0x1
 2543 01d6 0A       		.byte	0xa
 2544 01d7 3D       		.byte	0x3d
 2545 01d8 19020000 		.4byte	0x219
 2546 01dc 0F       		.uleb128 0xf
 2547 01dd F2410000 		.4byte	.LASF36
 2548 01e1 0A       		.byte	0xa
 2549 01e2 3E       		.byte	0x3e
 2550 01e3 AD000000 		.4byte	0xad
 2551 01e7 01       		.byte	0x1
 2552 01e8 03       		.byte	0x3
 2553 01e9 05       		.byte	0x5
 2554 01ea 00       		.byte	0
 2555 01eb 0F       		.uleb128 0xf
 2556 01ec 015C0000 		.4byte	.LASF37
 2557 01f0 0A       		.byte	0xa
 2558 01f1 3F       		.byte	0x3f
 2559 01f2 AD000000 		.4byte	0xad
 2560 01f6 01       		.byte	0x1
 2561 01f7 03       		.byte	0x3
 2562 01f8 02       		.byte	0x2
 2563 01f9 00       		.byte	0
 2564 01fa 0F       		.uleb128 0xf
 2565 01fb 0F030000 		.4byte	.LASF38
 2566 01ff 0A       		.byte	0xa
 2567 0200 40       		.byte	0x40
 2568 0201 AD000000 		.4byte	0xad
 2569 0205 01       		.byte	0x1
 2570 0206 01       		.byte	0x1
 2571 0207 01       		.byte	0x1
 2572 0208 00       		.byte	0
 2573 0209 0F       		.uleb128 0xf
 2574 020a 3E4B0000 		.4byte	.LASF39
 2575 020e 0A       		.byte	0xa
 2576 020f 41       		.byte	0x41
 2577 0210 AD000000 		.4byte	0xad
 2578 0214 01       		.byte	0x1
 2579 0215 01       		.byte	0x1
 2580 0216 00       		.byte	0
 2581 0217 00       		.byte	0
 2582 0218 00       		.byte	0
 2583 0219 11       		.uleb128 0x11
 2584 021a D4010000 		.4byte	0x1d4
 2585 021e 10       		.uleb128 0x10
ARM GAS  C:\Users\jrdia\AppData\Local\Temp\ccFTvYyK.s 			page 77


 2586 021f 62270000 		.4byte	.LASF41
 2587 0223 0A       		.byte	0xa
 2588 0224 43       		.byte	0x43
 2589 0225 AD000000 		.4byte	0xad
 2590 0229 00       		.byte	0
 2591 022a 13       		.uleb128 0x13
 2592 022b CC010000 		.4byte	0x1cc
 2593 022f 00       		.byte	0
 2594 0230 00       		.byte	0
 2595 0231 0C       		.uleb128 0xc
 2596 0232 3E360000 		.4byte	.LASF42
 2597 0236 07       		.byte	0x7
 2598 0237 0A       		.byte	0xa
 2599 0238 4B       		.byte	0x4b
 2600 0239 6E020000 		.4byte	0x26e
 2601 023d 12       		.uleb128 0x12
 2602 023e CA530000 		.4byte	.LASF43
 2603 0242 0A       		.byte	0xa
 2604 0243 4C       		.byte	0x4c
 2605 0244 6E020000 		.4byte	0x26e
 2606 0248 00       		.byte	0
 2607 0249 12       		.uleb128 0x12
 2608 024a EB2E0000 		.4byte	.LASF44
 2609 024e 0A       		.byte	0xa
 2610 024f 4D       		.byte	0x4d
 2611 0250 C0010000 		.4byte	0x1c0
 2612 0254 04       		.byte	0x4
 2613 0255 12       		.uleb128 0x12
 2614 0256 1F3D0000 		.4byte	.LASF45
 2615 025a 0A       		.byte	0xa
 2616 025b 4E       		.byte	0x4e
 2617 025c AD000000 		.4byte	0xad
 2618 0260 05       		.byte	0x5
 2619 0261 12       		.uleb128 0x12
 2620 0262 A03F0000 		.4byte	.LASF46
 2621 0266 0A       		.byte	0xa
 2622 0267 4F       		.byte	0x4f
 2623 0268 1C010000 		.4byte	0x11c
 2624 026c 06       		.byte	0x6
 2625 026d 00       		.byte	0
 2626 026e 06       		.uleb128 0x6
 2627 026f 04       		.byte	0x4
 2628 0270 46010000 		.4byte	0x146
 2629 0274 02       		.uleb128 0x2
 2630 0275 7B350000 		.4byte	.LASF47
 2631 0279 0A       		.byte	0xa
 2632 027a 5A       		.byte	0x5a
 2633 027b 7F020000 		.4byte	0x27f
 2634 027f 06       		.uleb128 0x6
 2635 0280 04       		.byte	0x4
 2636 0281 85020000 		.4byte	0x285
 2637 0285 14       		.uleb128 0x14
 2638 0286 90020000 		.4byte	0x290
 2639 028a 15       		.uleb128 0x15
 2640 028b 90020000 		.4byte	0x290
 2641 028f 00       		.byte	0
 2642 0290 06       		.uleb128 0x6
ARM GAS  C:\Users\jrdia\AppData\Local\Temp\ccFTvYyK.s 			page 78


 2643 0291 04       		.byte	0x4
 2644 0292 31020000 		.4byte	0x231
 2645 0296 16       		.uleb128 0x16
 2646 0297 E02B0000 		.4byte	.LASF70
 2647 029b 01       		.byte	0x1
 2648 029c 06       		.byte	0x6
 2649 029d 85       		.byte	0x85
 2650 029e AA030000 		.4byte	0x3aa
 2651 02a2 17       		.uleb128 0x17
 2652 02a3 4A520000 		.4byte	.LASF1325
 2653 02a7 06       		.byte	0x6
 2654 02a8 85       		.byte	0x85
 2655 02a9 AD000000 		.4byte	0xad
 2656 02ad 01       		.byte	0x1
 2657 02ae 18       		.uleb128 0x18
 2658 02af 2E130000 		.4byte	.LASF48
 2659 02b3 06       		.byte	0x6
 2660 02b4 85       		.byte	0x85
 2661 02b5 D1640000 		.4byte	.LASF50
 2662 02b9 01       		.byte	0x1
 2663 02ba C4020000 		.4byte	0x2c4
 2664 02be 15       		.uleb128 0x15
 2665 02bf A2020000 		.4byte	0x2a2
 2666 02c3 00       		.byte	0
 2667 02c4 18       		.uleb128 0x18
 2668 02c5 C32E0000 		.4byte	.LASF49
 2669 02c9 06       		.byte	0x6
 2670 02ca 85       		.byte	0x85
 2671 02cb 0B4E0000 		.4byte	.LASF51
 2672 02cf 01       		.byte	0x1
 2673 02d0 DF020000 		.4byte	0x2df
 2674 02d4 15       		.uleb128 0x15
 2675 02d5 A2020000 		.4byte	0x2a2
 2676 02d9 15       		.uleb128 0x15
 2677 02da A2020000 		.4byte	0x2a2
 2678 02de 00       		.byte	0
 2679 02df 19       		.uleb128 0x19
 2680 02e0 33140000 		.4byte	.LASF54
 2681 02e4 06       		.byte	0x6
 2682 02e5 85       		.byte	0x85
 2683 02e6 763E0000 		.4byte	.LASF56
 2684 02ea A2020000 		.4byte	0x2a2
 2685 02ee 01       		.byte	0x1
 2686 02ef 18       		.uleb128 0x18
 2687 02f0 611C0000 		.4byte	.LASF52
 2688 02f4 06       		.byte	0x6
 2689 02f5 85       		.byte	0x85
 2690 02f6 0F520000 		.4byte	.LASF53
 2691 02fa 01       		.byte	0x1
 2692 02fb 05030000 		.4byte	0x305
 2693 02ff 15       		.uleb128 0x15
 2694 0300 A2020000 		.4byte	0x2a2
 2695 0304 00       		.byte	0
 2696 0305 19       		.uleb128 0x19
 2697 0306 63590000 		.4byte	.LASF55
 2698 030a 06       		.byte	0x6
 2699 030b 85       		.byte	0x85
ARM GAS  C:\Users\jrdia\AppData\Local\Temp\ccFTvYyK.s 			page 79


 2700 030c 86290000 		.4byte	.LASF57
 2701 0310 A2020000 		.4byte	0x2a2
 2702 0314 01       		.byte	0x1
 2703 0315 1A       		.uleb128 0x1a
 2704 0316 53657400 		.ascii	"Set\000"
 2705 031a 06       		.byte	0x6
 2706 031b 85       		.byte	0x85
 2707 031c 712B0000 		.4byte	.LASF72
 2708 0320 01       		.byte	0x1
 2709 0321 2B030000 		.4byte	0x32b
 2710 0325 15       		.uleb128 0x15
 2711 0326 A2020000 		.4byte	0x2a2
 2712 032a 00       		.byte	0
 2713 032b 18       		.uleb128 0x18
 2714 032c 48230000 		.4byte	.LASF58
 2715 0330 06       		.byte	0x6
 2716 0331 85       		.byte	0x85
 2717 0332 A7210000 		.4byte	.LASF59
 2718 0336 01       		.byte	0x1
 2719 0337 41030000 		.4byte	0x341
 2720 033b 15       		.uleb128 0x15
 2721 033c A2020000 		.4byte	0x2a2
 2722 0340 00       		.byte	0
 2723 0341 18       		.uleb128 0x18
 2724 0342 483A0000 		.4byte	.LASF60
 2725 0346 06       		.byte	0x6
 2726 0347 85       		.byte	0x85
 2727 0348 F21F0000 		.4byte	.LASF61
 2728 034c 01       		.byte	0x1
 2729 034d 57030000 		.4byte	0x357
 2730 0351 15       		.uleb128 0x15
 2731 0352 A2020000 		.4byte	0x2a2
 2732 0356 00       		.byte	0
 2733 0357 18       		.uleb128 0x18
 2734 0358 83660000 		.4byte	.LASF62
 2735 035c 06       		.byte	0x6
 2736 035d 85       		.byte	0x85
 2737 035e E54F0000 		.4byte	.LASF63
 2738 0362 01       		.byte	0x1
 2739 0363 6D030000 		.4byte	0x36d
 2740 0367 15       		.uleb128 0x15
 2741 0368 A2020000 		.4byte	0x2a2
 2742 036c 00       		.byte	0
 2743 036d 18       		.uleb128 0x18
 2744 036e E62B0000 		.4byte	.LASF64
 2745 0372 06       		.byte	0x6
 2746 0373 85       		.byte	0x85
 2747 0374 B30D0000 		.4byte	.LASF65
 2748 0378 01       		.byte	0x1
 2749 0379 83030000 		.4byte	0x383
 2750 037d 15       		.uleb128 0x15
 2751 037e A2020000 		.4byte	0x2a2
 2752 0382 00       		.byte	0
 2753 0383 18       		.uleb128 0x18
 2754 0384 FC300000 		.4byte	.LASF66
 2755 0388 06       		.byte	0x6
 2756 0389 85       		.byte	0x85
ARM GAS  C:\Users\jrdia\AppData\Local\Temp\ccFTvYyK.s 			page 80


 2757 038a 541E0000 		.4byte	.LASF67
 2758 038e 01       		.byte	0x1
 2759 038f 99030000 		.4byte	0x399
 2760 0393 15       		.uleb128 0x15
 2761 0394 A2020000 		.4byte	0x2a2
 2762 0398 00       		.byte	0
 2763 0399 19       		.uleb128 0x19
 2764 039a 283E0000 		.4byte	.LASF68
 2765 039e 06       		.byte	0x6
 2766 039f 85       		.byte	0x85
 2767 03a0 163C0000 		.4byte	.LASF69
 2768 03a4 A2020000 		.4byte	0x2a2
 2769 03a8 01       		.byte	0x1
 2770 03a9 00       		.byte	0
 2771 03aa 1B       		.uleb128 0x1b
 2772 03ab DD460000 		.4byte	.LASF88
 2773 03af 16       		.uleb128 0x16
 2774 03b0 CA500000 		.4byte	.LASF71
 2775 03b4 01       		.byte	0x1
 2776 03b5 06       		.byte	0x6
 2777 03b6 B6       		.byte	0xb6
 2778 03b7 5F040000 		.4byte	0x45f
 2779 03bb 1C       		.uleb128 0x1c
 2780 03bc 53657400 		.ascii	"Set\000"
 2781 03c0 06       		.byte	0x6
 2782 03c1 BF       		.byte	0xbf
 2783 03c2 5E530000 		.4byte	.LASF1326
 2784 03c6 01       		.byte	0x1
 2785 03c7 1A       		.uleb128 0x1a
 2786 03c8 53657400 		.ascii	"Set\000"
 2787 03cc 06       		.byte	0x6
 2788 03cd C3       		.byte	0xc3
 2789 03ce A0520000 		.4byte	.LASF73
 2790 03d2 01       		.byte	0x1
 2791 03d3 DD030000 		.4byte	0x3dd
 2792 03d7 15       		.uleb128 0x15
 2793 03d8 AD000000 		.4byte	0xad
 2794 03dc 00       		.byte	0
 2795 03dd 18       		.uleb128 0x18
 2796 03de 091D0000 		.4byte	.LASF74
 2797 03e2 06       		.byte	0x6
 2798 03e3 C9       		.byte	0xc9
 2799 03e4 B2290000 		.4byte	.LASF75
 2800 03e8 01       		.byte	0x1
 2801 03e9 F3030000 		.4byte	0x3f3
 2802 03ed 15       		.uleb128 0x15
 2803 03ee AD000000 		.4byte	0xad
 2804 03f2 00       		.byte	0
 2805 03f3 1D       		.uleb128 0x1d
 2806 03f4 48230000 		.4byte	.LASF58
 2807 03f8 06       		.byte	0x6
 2808 03f9 CF       		.byte	0xcf
 2809 03fa 1F180000 		.4byte	.LASF76
 2810 03fe 01       		.byte	0x1
 2811 03ff 1D       		.uleb128 0x1d
 2812 0400 483A0000 		.4byte	.LASF60
 2813 0404 06       		.byte	0x6
ARM GAS  C:\Users\jrdia\AppData\Local\Temp\ccFTvYyK.s 			page 81


 2814 0405 D3       		.byte	0xd3
 2815 0406 C13C0000 		.4byte	.LASF77
 2816 040a 01       		.byte	0x1
 2817 040b 1D       		.uleb128 0x1d
 2818 040c 0D540000 		.4byte	.LASF78
 2819 0410 06       		.byte	0x6
 2820 0411 D7       		.byte	0xd7
 2821 0412 6A1C0000 		.4byte	.LASF79
 2822 0416 01       		.byte	0x1
 2823 0417 1D       		.uleb128 0x1d
 2824 0418 09270000 		.4byte	.LASF80
 2825 041c 06       		.byte	0x6
 2826 041d DB       		.byte	0xdb
 2827 041e 683F0000 		.4byte	.LASF81
 2828 0422 01       		.byte	0x1
 2829 0423 19       		.uleb128 0x19
 2830 0424 305F0000 		.4byte	.LASF82
 2831 0428 06       		.byte	0x6
 2832 0429 DF       		.byte	0xdf
 2833 042a 0F510000 		.4byte	.LASF83
 2834 042e AD000000 		.4byte	0xad
 2835 0432 01       		.byte	0x1
 2836 0433 1D       		.uleb128 0x1d
 2837 0434 5D230000 		.4byte	.LASF84
 2838 0438 06       		.byte	0x6
 2839 0439 E3       		.byte	0xe3
 2840 043a 13630000 		.4byte	.LASF85
 2841 043e 01       		.byte	0x1
 2842 043f 1D       		.uleb128 0x1d
 2843 0440 E5220000 		.4byte	.LASF86
 2844 0444 06       		.byte	0x6
 2845 0445 E8       		.byte	0xe8
 2846 0446 24520000 		.4byte	.LASF87
 2847 044a 01       		.byte	0x1
 2848 044b 1E       		.uleb128 0x1e
 2849 044c A6590000 		.4byte	.LASF95
 2850 0450 96020000 		.4byte	0x296
 2851 0454 1F       		.uleb128 0x1f
 2852 0455 50494E00 		.ascii	"PIN\000"
 2853 0459 42000000 		.4byte	0x42
 2854 045d 02       		.byte	0x2
 2855 045e 00       		.byte	0
 2856 045f 1B       		.uleb128 0x1b
 2857 0460 C15A0000 		.4byte	.LASF89
 2858 0464 1B       		.uleb128 0x1b
 2859 0465 C1640000 		.4byte	.LASF90
 2860 0469 1B       		.uleb128 0x1b
 2861 046a B8040000 		.4byte	.LASF91
 2862 046e 16       		.uleb128 0x16
 2863 046f 80580000 		.4byte	.LASF92
 2864 0473 01       		.byte	0x1
 2865 0474 04       		.byte	0x4
 2866 0475 25       		.byte	0x25
 2867 0476 AB040000 		.4byte	0x4ab
 2868 047a 1D       		.uleb128 0x1d
 2869 047b 221F0000 		.4byte	.LASF93
 2870 047f 04       		.byte	0x4
ARM GAS  C:\Users\jrdia\AppData\Local\Temp\ccFTvYyK.s 			page 82


 2871 0480 3C       		.byte	0x3c
 2872 0481 EF290000 		.4byte	.LASF94
 2873 0485 01       		.byte	0x1
 2874 0486 1E       		.uleb128 0x1e
 2875 0487 AB0D0000 		.4byte	.LASF96
 2876 048b 69040000 		.4byte	0x469
 2877 048f 1E       		.uleb128 0x1e
 2878 0490 DA520000 		.4byte	.LASF97
 2879 0494 5F040000 		.4byte	0x45f
 2880 0498 1E       		.uleb128 0x1e
 2881 0499 6C150000 		.4byte	.LASF98
 2882 049d 64040000 		.4byte	0x464
 2883 04a1 1E       		.uleb128 0x1e
 2884 04a2 E1140000 		.4byte	.LASF99
 2885 04a6 AF030000 		.4byte	0x3af
 2886 04aa 00       		.byte	0
 2887 04ab 20       		.uleb128 0x20
 2888 04ac 01       		.byte	0x1
 2889 04ad 42000000 		.4byte	0x42
 2890 04b1 04       		.byte	0x4
 2891 04b2 7C       		.byte	0x7c
 2892 04b3 814C0000 		.4byte	.LASF1327
 2893 04b7 C8040000 		.4byte	0x4c8
 2894 04bb 0B       		.uleb128 0xb
 2895 04bc 74390000 		.4byte	.LASF100
 2896 04c0 00       		.byte	0
 2897 04c1 0B       		.uleb128 0xb
 2898 04c2 0D2E0000 		.4byte	.LASF101
 2899 04c6 01       		.byte	0x1
 2900 04c7 00       		.byte	0
 2901 04c8 02       		.uleb128 0x2
 2902 04c9 3C030000 		.4byte	.LASF102
 2903 04cd 04       		.byte	0x4
 2904 04ce 7F       		.byte	0x7f
 2905 04cf AB040000 		.4byte	0x4ab
 2906 04d3 16       		.uleb128 0x16
 2907 04d4 2F680000 		.4byte	.LASF103
 2908 04d8 01       		.byte	0x1
 2909 04d9 04       		.byte	0x4
 2910 04da 81       		.byte	0x81
 2911 04db 13070000 		.4byte	0x713
 2912 04df 21       		.uleb128 0x21
 2913 04e0 34130000 		.4byte	.LASF403
 2914 04e4 04       		.byte	0x4
 2915 04e5 9E       		.byte	0x9e
 2916 04e6 AD000000 		.4byte	0xad
 2917 04ea 22       		.uleb128 0x22
 2918 04eb 59260000 		.4byte	.LASF104
 2919 04ef 04       		.byte	0x4
 2920 04f0 A2       		.byte	0xa2
 2921 04f1 E2670000 		.4byte	.LASF106
 2922 04f5 13070000 		.4byte	0x713
 2923 04f9 01       		.byte	0x1
 2924 04fa 02050000 		.4byte	0x502
 2925 04fe 08050000 		.4byte	0x508
 2926 0502 23       		.uleb128 0x23
 2927 0503 13070000 		.4byte	0x713
ARM GAS  C:\Users\jrdia\AppData\Local\Temp\ccFTvYyK.s 			page 83


 2928 0507 00       		.byte	0
 2929 0508 24       		.uleb128 0x24
 2930 0509 AC0E0000 		.4byte	.LASF108
 2931 050d 04       		.byte	0x4
 2932 050e AD       		.byte	0xad
 2933 050f 414C0000 		.4byte	.LASF122
 2934 0513 01       		.byte	0x1
 2935 0514 1C050000 		.4byte	0x51c
 2936 0518 2C050000 		.4byte	0x52c
 2937 051c 23       		.uleb128 0x23
 2938 051d 13070000 		.4byte	0x713
 2939 0521 15       		.uleb128 0x15
 2940 0522 AD000000 		.4byte	0xad
 2941 0526 15       		.uleb128 0x15
 2942 0527 AD000000 		.4byte	0xad
 2943 052b 00       		.byte	0
 2944 052c 22       		.uleb128 0x22
 2945 052d 66040000 		.4byte	.LASF105
 2946 0531 04       		.byte	0x4
 2947 0532 E5       		.byte	0xe5
 2948 0533 E6170000 		.4byte	.LASF107
 2949 0537 19070000 		.4byte	0x719
 2950 053b 01       		.byte	0x1
 2951 053c 44050000 		.4byte	0x544
 2952 0540 59050000 		.4byte	0x559
 2953 0544 23       		.uleb128 0x23
 2954 0545 13070000 		.4byte	0x713
 2955 0549 15       		.uleb128 0x15
 2956 054a AD000000 		.4byte	0xad
 2957 054e 15       		.uleb128 0x15
 2958 054f AD000000 		.4byte	0xad
 2959 0553 15       		.uleb128 0x15
 2960 0554 19070000 		.4byte	0x719
 2961 0558 00       		.byte	0
 2962 0559 25       		.uleb128 0x25
 2963 055a 94400000 		.4byte	.LASF109
 2964 055e 04       		.byte	0x4
 2965 055f 2C01     		.2byte	0x12c
 2966 0561 C3050000 		.4byte	.LASF127
 2967 0565 01       		.byte	0x1
 2968 0566 6E050000 		.4byte	0x56e
 2969 056a 79050000 		.4byte	0x579
 2970 056e 23       		.uleb128 0x23
 2971 056f 13070000 		.4byte	0x713
 2972 0573 15       		.uleb128 0x15
 2973 0574 AD000000 		.4byte	0xad
 2974 0578 00       		.byte	0
 2975 0579 26       		.uleb128 0x26
 2976 057a 87040000 		.4byte	.LASF110
 2977 057e 04       		.byte	0x4
 2978 057f 3501     		.2byte	0x135
 2979 0581 A84D0000 		.4byte	.LASF112
 2980 0585 AD000000 		.4byte	0xad
 2981 0589 01       		.byte	0x1
 2982 058a 92050000 		.4byte	0x592
 2983 058e 9D050000 		.4byte	0x59d
 2984 0592 23       		.uleb128 0x23
ARM GAS  C:\Users\jrdia\AppData\Local\Temp\ccFTvYyK.s 			page 84


 2985 0593 13070000 		.4byte	0x713
 2986 0597 15       		.uleb128 0x15
 2987 0598 AD000000 		.4byte	0xad
 2988 059c 00       		.byte	0
 2989 059d 26       		.uleb128 0x26
 2990 059e 52650000 		.4byte	.LASF111
 2991 05a2 04       		.byte	0x4
 2992 05a3 7801     		.2byte	0x178
 2993 05a5 65410000 		.4byte	.LASF113
 2994 05a9 19070000 		.4byte	0x719
 2995 05ad 01       		.byte	0x1
 2996 05ae B6050000 		.4byte	0x5b6
 2997 05b2 CB050000 		.4byte	0x5cb
 2998 05b6 23       		.uleb128 0x23
 2999 05b7 13070000 		.4byte	0x713
 3000 05bb 15       		.uleb128 0x15
 3001 05bc AD000000 		.4byte	0xad
 3002 05c0 15       		.uleb128 0x15
 3003 05c1 AD000000 		.4byte	0xad
 3004 05c5 15       		.uleb128 0x15
 3005 05c6 19070000 		.4byte	0x719
 3006 05ca 00       		.byte	0
 3007 05cb 26       		.uleb128 0x26
 3008 05cc 2D370000 		.4byte	.LASF114
 3009 05d0 04       		.byte	0x4
 3010 05d1 CE01     		.2byte	0x1ce
 3011 05d3 16200000 		.4byte	.LASF115
 3012 05d7 AD000000 		.4byte	0xad
 3013 05db 01       		.byte	0x1
 3014 05dc E4050000 		.4byte	0x5e4
 3015 05e0 EA050000 		.4byte	0x5ea
 3016 05e4 23       		.uleb128 0x23
 3017 05e5 13070000 		.4byte	0x713
 3018 05e9 00       		.byte	0
 3019 05ea 26       		.uleb128 0x26
 3020 05eb EF370000 		.4byte	.LASF116
 3021 05ef 04       		.byte	0x4
 3022 05f0 D901     		.2byte	0x1d9
 3023 05f2 38150000 		.4byte	.LASF117
 3024 05f6 C3000000 		.4byte	0xc3
 3025 05fa 01       		.byte	0x1
 3026 05fb 03060000 		.4byte	0x603
 3027 05ff 09060000 		.4byte	0x609
 3028 0603 23       		.uleb128 0x23
 3029 0604 13070000 		.4byte	0x713
 3030 0608 00       		.byte	0
 3031 0609 26       		.uleb128 0x26
 3032 060a 6F5A0000 		.4byte	.LASF118
 3033 060e 04       		.byte	0x4
 3034 060f E701     		.2byte	0x1e7
 3035 0611 2D420000 		.4byte	.LASF119
 3036 0615 A2000000 		.4byte	0xa2
 3037 0619 01       		.byte	0x1
 3038 061a 22060000 		.4byte	0x622
 3039 061e 28060000 		.4byte	0x628
 3040 0622 23       		.uleb128 0x23
 3041 0623 13070000 		.4byte	0x713
ARM GAS  C:\Users\jrdia\AppData\Local\Temp\ccFTvYyK.s 			page 85


 3042 0627 00       		.byte	0
 3043 0628 26       		.uleb128 0x26
 3044 0629 6F5A0000 		.4byte	.LASF118
 3045 062d 04       		.byte	0x4
 3046 062e 0F02     		.2byte	0x20f
 3047 0630 BF410000 		.4byte	.LASF120
 3048 0634 A2000000 		.4byte	0xa2
 3049 0638 01       		.byte	0x1
 3050 0639 41060000 		.4byte	0x641
 3051 063d 4C060000 		.4byte	0x64c
 3052 0641 23       		.uleb128 0x23
 3053 0642 13070000 		.4byte	0x713
 3054 0646 15       		.uleb128 0x15
 3055 0647 94000000 		.4byte	0x94
 3056 064b 00       		.byte	0
 3057 064c 24       		.uleb128 0x24
 3058 064d AB4B0000 		.4byte	.LASF121
 3059 0651 04       		.byte	0x4
 3060 0652 90       		.byte	0x90
 3061 0653 2B0D0000 		.4byte	.LASF123
 3062 0657 01       		.byte	0x1
 3063 0658 60060000 		.4byte	0x660
 3064 065c 6B060000 		.4byte	0x66b
 3065 0660 23       		.uleb128 0x23
 3066 0661 13070000 		.4byte	0x713
 3067 0665 15       		.uleb128 0x15
 3068 0666 C8040000 		.4byte	0x4c8
 3069 066a 00       		.byte	0
 3070 066b 22       		.uleb128 0x22
 3071 066c C30F0000 		.4byte	.LASF124
 3072 0670 04       		.byte	0x4
 3073 0671 94       		.byte	0x94
 3074 0672 A2370000 		.4byte	.LASF125
 3075 0676 AD000000 		.4byte	0xad
 3076 067a 01       		.byte	0x1
 3077 067b 83060000 		.4byte	0x683
 3078 067f 89060000 		.4byte	0x689
 3079 0683 23       		.uleb128 0x23
 3080 0684 13070000 		.4byte	0x713
 3081 0688 00       		.byte	0
 3082 0689 25       		.uleb128 0x25
 3083 068a D1520000 		.4byte	.LASF126
 3084 068e 04       		.byte	0x4
 3085 068f 3B02     		.2byte	0x23b
 3086 0691 A9130000 		.4byte	.LASF128
 3087 0695 01       		.byte	0x1
 3088 0696 9E060000 		.4byte	0x69e
 3089 069a A4060000 		.4byte	0x6a4
 3090 069e 23       		.uleb128 0x23
 3091 069f 13070000 		.4byte	0x713
 3092 06a3 00       		.byte	0
 3093 06a4 22       		.uleb128 0x22
 3094 06a5 08300000 		.4byte	.LASF129
 3095 06a9 04       		.byte	0x4
 3096 06aa 98       		.byte	0x98
 3097 06ab 0D490000 		.4byte	.LASF130
 3098 06af AD000000 		.4byte	0xad
ARM GAS  C:\Users\jrdia\AppData\Local\Temp\ccFTvYyK.s 			page 86


 3099 06b3 01       		.byte	0x1
 3100 06b4 BC060000 		.4byte	0x6bc
 3101 06b8 C2060000 		.4byte	0x6c2
 3102 06bc 23       		.uleb128 0x23
 3103 06bd 13070000 		.4byte	0x713
 3104 06c1 00       		.byte	0
 3105 06c2 26       		.uleb128 0x26
 3106 06c3 764C0000 		.4byte	.LASF131
 3107 06c7 04       		.byte	0x4
 3108 06c8 7102     		.2byte	0x271
 3109 06ca 88140000 		.4byte	.LASF132
 3110 06ce AD000000 		.4byte	0xad
 3111 06d2 01       		.byte	0x1
 3112 06d3 DB060000 		.4byte	0x6db
 3113 06d7 E1060000 		.4byte	0x6e1
 3114 06db 23       		.uleb128 0x23
 3115 06dc 13070000 		.4byte	0x713
 3116 06e0 00       		.byte	0
 3117 06e1 26       		.uleb128 0x26
 3118 06e2 11060000 		.4byte	.LASF133
 3119 06e6 04       		.byte	0x4
 3120 06e7 5E02     		.2byte	0x25e
 3121 06e9 C3450000 		.4byte	.LASF134
 3122 06ed AD000000 		.4byte	0xad
 3123 06f1 01       		.byte	0x1
 3124 06f2 FA060000 		.4byte	0x6fa
 3125 06f6 00070000 		.4byte	0x700
 3126 06fa 23       		.uleb128 0x23
 3127 06fb 13070000 		.4byte	0x713
 3128 06ff 00       		.byte	0
 3129 0700 1E       		.uleb128 0x1e
 3130 0701 E1140000 		.4byte	.LASF99
 3131 0705 AF030000 		.4byte	0x3af
 3132 0709 1E       		.uleb128 0x1e
 3133 070a B02B0000 		.4byte	.LASF135
 3134 070e AA030000 		.4byte	0x3aa
 3135 0712 00       		.byte	0
 3136 0713 06       		.uleb128 0x6
 3137 0714 04       		.byte	0x4
 3138 0715 D3040000 		.4byte	0x4d3
 3139 0719 06       		.uleb128 0x6
 3140 071a 04       		.byte	0x4
 3141 071b AD000000 		.4byte	0xad
 3142 071f 27       		.uleb128 0x27
 3143 0720 55534200 		.ascii	"USB\000"
 3144 0724 BC       		.byte	0xbc
 3145 0725 0B       		.byte	0xb
 3146 0726 C7       		.byte	0xc7
 3147 0727 990C0000 		.4byte	0xc99
 3148 072b 28       		.uleb128 0x28
 3149 072c D3040000 		.4byte	0x4d3
 3150 0730 00       		.byte	0
 3151 0731 01       		.byte	0x1
 3152 0732 12       		.uleb128 0x12
 3153 0733 49120000 		.4byte	.LASF136
 3154 0737 0B       		.byte	0xb
 3155 0738 C8       		.byte	0xc8
ARM GAS  C:\Users\jrdia\AppData\Local\Temp\ccFTvYyK.s 			page 87


 3156 0739 990C0000 		.4byte	0xc99
 3157 073d 00       		.byte	0
 3158 073e 12       		.uleb128 0x12
 3159 073f 98110000 		.4byte	.LASF137
 3160 0743 0B       		.byte	0xb
 3161 0744 C9       		.byte	0xc9
 3162 0745 AD0C0000 		.4byte	0xcad
 3163 0749 78       		.byte	0x78
 3164 074a 12       		.uleb128 0x12
 3165 074b 04490000 		.4byte	.LASF138
 3166 074f 0B       		.byte	0xb
 3167 0750 CA       		.byte	0xca
 3168 0751 AD000000 		.4byte	0xad
 3169 0755 B8       		.byte	0xb8
 3170 0756 29       		.uleb128 0x29
 3171 0757 55534200 		.ascii	"USB\000"
 3172 075b 0B       		.byte	0xb
 3173 075c CD       		.byte	0xcd
 3174 075d 29210000 		.4byte	.LASF1328
 3175 0761 C20E0000 		.4byte	0xec2
 3176 0765 01       		.byte	0x1
 3177 0766 6E070000 		.4byte	0x76e
 3178 076a 74070000 		.4byte	0x774
 3179 076e 23       		.uleb128 0x23
 3180 076f C20E0000 		.4byte	0xec2
 3181 0773 00       		.byte	0
 3182 0774 24       		.uleb128 0x24
 3183 0775 AE340000 		.4byte	.LASF139
 3184 0779 0B       		.byte	0xb
 3185 077a CF       		.byte	0xcf
 3186 077b 410C0000 		.4byte	.LASF140
 3187 077f 01       		.byte	0x1
 3188 0780 88070000 		.4byte	0x788
 3189 0784 8E070000 		.4byte	0x78e
 3190 0788 23       		.uleb128 0x23
 3191 0789 C20E0000 		.4byte	0xec2
 3192 078d 00       		.byte	0
 3193 078e 24       		.uleb128 0x24
 3194 078f 754A0000 		.4byte	.LASF141
 3195 0793 0B       		.byte	0xb
 3196 0794 D3       		.byte	0xd3
 3197 0795 530E0000 		.4byte	.LASF142
 3198 0799 01       		.byte	0x1
 3199 079a A2070000 		.4byte	0x7a2
 3200 079e A8070000 		.4byte	0x7a8
 3201 07a2 23       		.uleb128 0x23
 3202 07a3 C20E0000 		.4byte	0xec2
 3203 07a7 00       		.byte	0
 3204 07a8 22       		.uleb128 0x22
 3205 07a9 395E0000 		.4byte	.LASF143
 3206 07ad 0B       		.byte	0xb
 3207 07ae D7       		.byte	0xd7
 3208 07af 5B680000 		.4byte	.LASF144
 3209 07b3 CD0E0000 		.4byte	0xecd
 3210 07b7 01       		.byte	0x1
 3211 07b8 C0070000 		.4byte	0x7c0
 3212 07bc C6070000 		.4byte	0x7c6
ARM GAS  C:\Users\jrdia\AppData\Local\Temp\ccFTvYyK.s 			page 88


 3213 07c0 23       		.uleb128 0x23
 3214 07c1 C20E0000 		.4byte	0xec2
 3215 07c5 00       		.byte	0
 3216 07c6 22       		.uleb128 0x22
 3217 07c7 47270000 		.4byte	.LASF145
 3218 07cb 0B       		.byte	0xb
 3219 07cc DB       		.byte	0xdb
 3220 07cd FD0B0000 		.4byte	.LASF146
 3221 07d1 AD000000 		.4byte	0xad
 3222 07d5 01       		.byte	0x1
 3223 07d6 DE070000 		.4byte	0x7de
 3224 07da E9070000 		.4byte	0x7e9
 3225 07de 23       		.uleb128 0x23
 3226 07df C20E0000 		.4byte	0xec2
 3227 07e3 15       		.uleb128 0x15
 3228 07e4 BD0C0000 		.4byte	0xcbd
 3229 07e8 00       		.byte	0
 3230 07e9 24       		.uleb128 0x24
 3231 07ea 49500000 		.4byte	.LASF147
 3232 07ee 0B       		.byte	0xb
 3233 07ef E5       		.byte	0xe5
 3234 07f0 C93B0000 		.4byte	.LASF148
 3235 07f4 01       		.byte	0x1
 3236 07f5 FD070000 		.4byte	0x7fd
 3237 07f9 08080000 		.4byte	0x808
 3238 07fd 23       		.uleb128 0x23
 3239 07fe C20E0000 		.4byte	0xec2
 3240 0802 15       		.uleb128 0x15
 3241 0803 74020000 		.4byte	0x274
 3242 0807 00       		.byte	0
 3243 0808 22       		.uleb128 0x22
 3244 0809 D95B0000 		.4byte	.LASF149
 3245 080d 0B       		.byte	0xb
 3246 080e E8       		.byte	0xe8
 3247 080f 12350000 		.4byte	.LASF150
 3248 0813 AD000000 		.4byte	0xad
 3249 0817 01       		.byte	0x1
 3250 0818 20080000 		.4byte	0x820
 3251 081c 26080000 		.4byte	0x826
 3252 0820 23       		.uleb128 0x23
 3253 0821 C20E0000 		.4byte	0xec2
 3254 0825 00       		.byte	0
 3255 0826 24       		.uleb128 0x24
 3256 0827 B6070000 		.4byte	.LASF151
 3257 082b 0B       		.byte	0xb
 3258 082c E9       		.byte	0xe9
 3259 082d C4650000 		.4byte	.LASF152
 3260 0831 01       		.byte	0x1
 3261 0832 3A080000 		.4byte	0x83a
 3262 0836 45080000 		.4byte	0x845
 3263 083a 23       		.uleb128 0x23
 3264 083b C20E0000 		.4byte	0xec2
 3265 083f 15       		.uleb128 0x15
 3266 0840 AD000000 		.4byte	0xad
 3267 0844 00       		.byte	0
 3268 0845 22       		.uleb128 0x22
 3269 0846 5A3B0000 		.4byte	.LASF153
ARM GAS  C:\Users\jrdia\AppData\Local\Temp\ccFTvYyK.s 			page 89


 3270 084a 0B       		.byte	0xb
 3271 084b EB       		.byte	0xeb
 3272 084c BC310000 		.4byte	.LASF154
 3273 0850 6E020000 		.4byte	0x26e
 3274 0854 01       		.byte	0x1
 3275 0855 5D080000 		.4byte	0x85d
 3276 0859 6D080000 		.4byte	0x86d
 3277 085d 23       		.uleb128 0x23
 3278 085e C20E0000 		.4byte	0xec2
 3279 0862 15       		.uleb128 0x15
 3280 0863 AD000000 		.4byte	0xad
 3281 0867 15       		.uleb128 0x15
 3282 0868 AD000000 		.4byte	0xad
 3283 086c 00       		.byte	0
 3284 086d 22       		.uleb128 0x22
 3285 086e 521C0000 		.4byte	.LASF155
 3286 0872 0B       		.byte	0xb
 3287 0873 EC       		.byte	0xec
 3288 0874 F3420000 		.4byte	.LASF156
 3289 0878 AD000000 		.4byte	0xad
 3290 087c 01       		.byte	0x1
 3291 087d 85080000 		.4byte	0x885
 3292 0881 9A080000 		.4byte	0x89a
 3293 0885 23       		.uleb128 0x23
 3294 0886 C20E0000 		.4byte	0xec2
 3295 088a 15       		.uleb128 0x15
 3296 088b AD000000 		.4byte	0xad
 3297 088f 15       		.uleb128 0x15
 3298 0890 AD000000 		.4byte	0xad
 3299 0894 15       		.uleb128 0x15
 3300 0895 6E020000 		.4byte	0x26e
 3301 0899 00       		.byte	0
 3302 089a 22       		.uleb128 0x22
 3303 089b 4E560000 		.4byte	.LASF157
 3304 089f 0B       		.byte	0xb
 3305 08a0 EF       		.byte	0xef
 3306 08a1 A61C0000 		.4byte	.LASF158
 3307 08a5 AD000000 		.4byte	0xad
 3308 08a9 01       		.byte	0x1
 3309 08aa B2080000 		.4byte	0x8b2
 3310 08ae CC080000 		.4byte	0x8cc
 3311 08b2 23       		.uleb128 0x23
 3312 08b3 C20E0000 		.4byte	0xec2
 3313 08b7 15       		.uleb128 0x15
 3314 08b8 AD000000 		.4byte	0xad
 3315 08bc 15       		.uleb128 0x15
 3316 08bd AD000000 		.4byte	0xad
 3317 08c1 15       		.uleb128 0x15
 3318 08c2 C3000000 		.4byte	0xc3
 3319 08c6 15       		.uleb128 0x15
 3320 08c7 19070000 		.4byte	0x719
 3321 08cb 00       		.byte	0
 3322 08cc 22       		.uleb128 0x22
 3323 08cd AD200000 		.4byte	.LASF159
 3324 08d1 0B       		.byte	0xb
 3325 08d2 F0       		.byte	0xf0
 3326 08d3 D60F0000 		.4byte	.LASF160
ARM GAS  C:\Users\jrdia\AppData\Local\Temp\ccFTvYyK.s 			page 90


 3327 08d7 AD000000 		.4byte	0xad
 3328 08db 01       		.byte	0x1
 3329 08dc E4080000 		.4byte	0x8e4
 3330 08e0 03090000 		.4byte	0x903
 3331 08e4 23       		.uleb128 0x23
 3332 08e5 C20E0000 		.4byte	0xec2
 3333 08e9 15       		.uleb128 0x15
 3334 08ea AD000000 		.4byte	0xad
 3335 08ee 15       		.uleb128 0x15
 3336 08ef AD000000 		.4byte	0xad
 3337 08f3 15       		.uleb128 0x15
 3338 08f4 C3000000 		.4byte	0xc3
 3339 08f8 15       		.uleb128 0x15
 3340 08f9 AD000000 		.4byte	0xad
 3341 08fd 15       		.uleb128 0x15
 3342 08fe 19070000 		.4byte	0x719
 3343 0902 00       		.byte	0
 3344 0903 22       		.uleb128 0x22
 3345 0904 AD200000 		.4byte	.LASF159
 3346 0908 0B       		.byte	0xb
 3347 0909 F2       		.byte	0xf2
 3348 090a 76690000 		.4byte	.LASF161
 3349 090e AD000000 		.4byte	0xad
 3350 0912 01       		.byte	0x1
 3351 0913 1B090000 		.4byte	0x91b
 3352 0917 35090000 		.4byte	0x935
 3353 091b 23       		.uleb128 0x23
 3354 091c C20E0000 		.4byte	0xec2
 3355 0920 15       		.uleb128 0x15
 3356 0921 AD000000 		.4byte	0xad
 3357 0925 15       		.uleb128 0x15
 3358 0926 AD000000 		.4byte	0xad
 3359 092a 15       		.uleb128 0x15
 3360 092b AD000000 		.4byte	0xad
 3361 092f 15       		.uleb128 0x15
 3362 0930 D30E0000 		.4byte	0xed3
 3363 0934 00       		.byte	0
 3364 0935 22       		.uleb128 0x22
 3365 0936 39590000 		.4byte	.LASF162
 3366 093a 0B       		.byte	0xb
 3367 093b F4       		.byte	0xf4
 3368 093c 21670000 		.4byte	.LASF163
 3369 0940 AD000000 		.4byte	0xad
 3370 0944 01       		.byte	0x1
 3371 0945 4D090000 		.4byte	0x94d
 3372 0949 71090000 		.4byte	0x971
 3373 094d 23       		.uleb128 0x23
 3374 094e C20E0000 		.4byte	0xec2
 3375 0952 15       		.uleb128 0x15
 3376 0953 AD000000 		.4byte	0xad
 3377 0957 15       		.uleb128 0x15
 3378 0958 AD000000 		.4byte	0xad
 3379 095c 15       		.uleb128 0x15
 3380 095d C3000000 		.4byte	0xc3
 3381 0961 15       		.uleb128 0x15
 3382 0962 AD000000 		.4byte	0xad
 3383 0966 15       		.uleb128 0x15
ARM GAS  C:\Users\jrdia\AppData\Local\Temp\ccFTvYyK.s 			page 91


 3384 0967 C3000000 		.4byte	0xc3
 3385 096b 15       		.uleb128 0x15
 3386 096c 19070000 		.4byte	0x719
 3387 0970 00       		.byte	0
 3388 0971 22       		.uleb128 0x22
 3389 0972 8C120000 		.4byte	.LASF164
 3390 0976 0B       		.byte	0xb
 3391 0977 F5       		.byte	0xf5
 3392 0978 78480000 		.4byte	.LASF165
 3393 097c AD000000 		.4byte	0xad
 3394 0980 01       		.byte	0x1
 3395 0981 89090000 		.4byte	0x989
 3396 0985 9E090000 		.4byte	0x99e
 3397 0989 23       		.uleb128 0x23
 3398 098a C20E0000 		.4byte	0xec2
 3399 098e 15       		.uleb128 0x15
 3400 098f AD000000 		.4byte	0xad
 3401 0993 15       		.uleb128 0x15
 3402 0994 AD000000 		.4byte	0xad
 3403 0998 15       		.uleb128 0x15
 3404 0999 AD000000 		.4byte	0xad
 3405 099d 00       		.byte	0
 3406 099e 22       		.uleb128 0x22
 3407 099f BB180000 		.4byte	.LASF166
 3408 09a3 0B       		.byte	0xb
 3409 09a4 F6       		.byte	0xf6
 3410 09a5 46600000 		.4byte	.LASF167
 3411 09a9 AD000000 		.4byte	0xad
 3412 09ad 01       		.byte	0x1
 3413 09ae B6090000 		.4byte	0x9b6
 3414 09b2 CB090000 		.4byte	0x9cb
 3415 09b6 23       		.uleb128 0x23
 3416 09b7 C20E0000 		.4byte	0xec2
 3417 09bb 15       		.uleb128 0x15
 3418 09bc AD000000 		.4byte	0xad
 3419 09c0 15       		.uleb128 0x15
 3420 09c1 AD000000 		.4byte	0xad
 3421 09c5 15       		.uleb128 0x15
 3422 09c6 AD000000 		.4byte	0xad
 3423 09ca 00       		.byte	0
 3424 09cb 22       		.uleb128 0x22
 3425 09cc 16470000 		.4byte	.LASF168
 3426 09d0 0B       		.byte	0xb
 3427 09d1 F8       		.byte	0xf8
 3428 09d2 9A290000 		.4byte	.LASF169
 3429 09d6 AD000000 		.4byte	0xad
 3430 09da 01       		.byte	0x1
 3431 09db E3090000 		.4byte	0x9e3
 3432 09df 020A0000 		.4byte	0xa02
 3433 09e3 23       		.uleb128 0x23
 3434 09e4 C20E0000 		.4byte	0xec2
 3435 09e8 15       		.uleb128 0x15
 3436 09e9 AD000000 		.4byte	0xad
 3437 09ed 15       		.uleb128 0x15
 3438 09ee AD000000 		.4byte	0xad
 3439 09f2 15       		.uleb128 0x15
 3440 09f3 C3000000 		.4byte	0xc3
ARM GAS  C:\Users\jrdia\AppData\Local\Temp\ccFTvYyK.s 			page 92


 3441 09f7 15       		.uleb128 0x15
 3442 09f8 19070000 		.4byte	0x719
 3443 09fc 15       		.uleb128 0x15
 3444 09fd 1C010000 		.4byte	0x11c
 3445 0a01 00       		.byte	0
 3446 0a02 22       		.uleb128 0x22
 3447 0a03 75370000 		.4byte	.LASF170
 3448 0a07 0B       		.byte	0xb
 3449 0a08 F9       		.byte	0xf9
 3450 0a09 7C190000 		.4byte	.LASF171
 3451 0a0d AD000000 		.4byte	0xad
 3452 0a11 01       		.byte	0x1
 3453 0a12 1A0A0000 		.4byte	0xa1a
 3454 0a16 2F0A0000 		.4byte	0xa2f
 3455 0a1a 23       		.uleb128 0x23
 3456 0a1b C20E0000 		.4byte	0xec2
 3457 0a1f 15       		.uleb128 0x15
 3458 0a20 AD000000 		.4byte	0xad
 3459 0a24 15       		.uleb128 0x15
 3460 0a25 1C010000 		.4byte	0x11c
 3461 0a29 15       		.uleb128 0x15
 3462 0a2a C3000000 		.4byte	0xc3
 3463 0a2e 00       		.byte	0
 3464 0a2f 22       		.uleb128 0x22
 3465 0a30 38410000 		.4byte	.LASF172
 3466 0a34 0B       		.byte	0xb
 3467 0a35 FA       		.byte	0xfa
 3468 0a36 F6060000 		.4byte	.LASF173
 3469 0a3a AD000000 		.4byte	0xad
 3470 0a3e 01       		.byte	0x1
 3471 0a3f 470A0000 		.4byte	0xa47
 3472 0a43 660A0000 		.4byte	0xa66
 3473 0a47 23       		.uleb128 0x23
 3474 0a48 C20E0000 		.4byte	0xec2
 3475 0a4c 15       		.uleb128 0x15
 3476 0a4d AD000000 		.4byte	0xad
 3477 0a51 15       		.uleb128 0x15
 3478 0a52 AD000000 		.4byte	0xad
 3479 0a56 15       		.uleb128 0x15
 3480 0a57 DE0E0000 		.4byte	0xede
 3481 0a5b 15       		.uleb128 0x15
 3482 0a5c 19070000 		.4byte	0x719
 3483 0a60 15       		.uleb128 0x15
 3484 0a61 AD000000 		.4byte	0xad
 3485 0a65 00       		.byte	0
 3486 0a66 22       		.uleb128 0x22
 3487 0a67 03030000 		.4byte	.LASF174
 3488 0a6b 0B       		.byte	0xb
 3489 0a6c FB       		.byte	0xfb
 3490 0a6d D5160000 		.4byte	.LASF175
 3491 0a71 AD000000 		.4byte	0xad
 3492 0a75 01       		.byte	0x1
 3493 0a76 7E0A0000 		.4byte	0xa7e
 3494 0a7a 980A0000 		.4byte	0xa98
 3495 0a7e 23       		.uleb128 0x23
 3496 0a7f C20E0000 		.4byte	0xec2
 3497 0a83 15       		.uleb128 0x15
ARM GAS  C:\Users\jrdia\AppData\Local\Temp\ccFTvYyK.s 			page 93


 3498 0a84 AD000000 		.4byte	0xad
 3499 0a88 15       		.uleb128 0x15
 3500 0a89 AD000000 		.4byte	0xad
 3501 0a8d 15       		.uleb128 0x15
 3502 0a8e C3000000 		.4byte	0xc3
 3503 0a92 15       		.uleb128 0x15
 3504 0a93 19070000 		.4byte	0x719
 3505 0a97 00       		.byte	0
 3506 0a98 22       		.uleb128 0x22
 3507 0a99 303E0000 		.4byte	.LASF176
 3508 0a9d 0B       		.byte	0xb
 3509 0a9e FC       		.byte	0xfc
 3510 0a9f 7F570000 		.4byte	.LASF177
 3511 0aa3 AD000000 		.4byte	0xad
 3512 0aa7 01       		.byte	0x1
 3513 0aa8 B00A0000 		.4byte	0xab0
 3514 0aac C50A0000 		.4byte	0xac5
 3515 0ab0 23       		.uleb128 0x23
 3516 0ab1 C20E0000 		.4byte	0xec2
 3517 0ab5 15       		.uleb128 0x15
 3518 0ab6 AD000000 		.4byte	0xad
 3519 0aba 15       		.uleb128 0x15
 3520 0abb AD000000 		.4byte	0xad
 3521 0abf 15       		.uleb128 0x15
 3522 0ac0 C3000000 		.4byte	0xc3
 3523 0ac4 00       		.byte	0
 3524 0ac5 24       		.uleb128 0x24
 3525 0ac6 11060000 		.4byte	.LASF133
 3526 0aca 0B       		.byte	0xb
 3527 0acb FE       		.byte	0xfe
 3528 0acc 1F330000 		.4byte	.LASF178
 3529 0ad0 01       		.byte	0x1
 3530 0ad1 D90A0000 		.4byte	0xad9
 3531 0ad5 DF0A0000 		.4byte	0xadf
 3532 0ad9 23       		.uleb128 0x23
 3533 0ada C20E0000 		.4byte	0xec2
 3534 0ade 00       		.byte	0
 3535 0adf 26       		.uleb128 0x26
 3536 0ae0 B8680000 		.4byte	.LASF179
 3537 0ae4 0B       		.byte	0xb
 3538 0ae5 0001     		.2byte	0x100
 3539 0ae7 87060000 		.4byte	.LASF180
 3540 0aeb AD000000 		.4byte	0xad
 3541 0aef 01       		.byte	0x1
 3542 0af0 F80A0000 		.4byte	0xaf8
 3543 0af4 0D0B0000 		.4byte	0xb0d
 3544 0af8 23       		.uleb128 0x23
 3545 0af9 C20E0000 		.4byte	0xec2
 3546 0afd 15       		.uleb128 0x15
 3547 0afe AD000000 		.4byte	0xad
 3548 0b02 15       		.uleb128 0x15
 3549 0b03 AD000000 		.4byte	0xad
 3550 0b07 15       		.uleb128 0x15
 3551 0b08 1C010000 		.4byte	0x11c
 3552 0b0c 00       		.byte	0
 3553 0b0d 26       		.uleb128 0x26
 3554 0b0e EC470000 		.4byte	.LASF181
ARM GAS  C:\Users\jrdia\AppData\Local\Temp\ccFTvYyK.s 			page 94


 3555 0b12 0B       		.byte	0xb
 3556 0b13 0101     		.2byte	0x101
 3557 0b15 3E670000 		.4byte	.LASF182
 3558 0b19 AD000000 		.4byte	0xad
 3559 0b1d 01       		.byte	0x1
 3560 0b1e 260B0000 		.4byte	0xb26
 3561 0b22 3B0B0000 		.4byte	0xb3b
 3562 0b26 23       		.uleb128 0x23
 3563 0b27 C20E0000 		.4byte	0xec2
 3564 0b2b 15       		.uleb128 0x15
 3565 0b2c AD000000 		.4byte	0xad
 3566 0b30 15       		.uleb128 0x15
 3567 0b31 AD000000 		.4byte	0xad
 3568 0b35 15       		.uleb128 0x15
 3569 0b36 1C010000 		.4byte	0x11c
 3570 0b3a 00       		.byte	0
 3571 0b3b 26       		.uleb128 0x26
 3572 0b3c E8100000 		.4byte	.LASF183
 3573 0b40 0B       		.byte	0xb
 3574 0b41 0201     		.2byte	0x102
 3575 0b43 54620000 		.4byte	.LASF184
 3576 0b47 AD000000 		.4byte	0xad
 3577 0b4b 01       		.byte	0x1
 3578 0b4c 540B0000 		.4byte	0xb54
 3579 0b50 5F0B0000 		.4byte	0xb5f
 3580 0b54 23       		.uleb128 0x23
 3581 0b55 C20E0000 		.4byte	0xec2
 3582 0b59 15       		.uleb128 0x15
 3583 0b5a AD000000 		.4byte	0xad
 3584 0b5e 00       		.byte	0
 3585 0b5f 26       		.uleb128 0x26
 3586 0b60 91480000 		.4byte	.LASF185
 3587 0b64 0B       		.byte	0xb
 3588 0b65 0401     		.2byte	0x104
 3589 0b67 81170000 		.4byte	.LASF186
 3590 0b6b AD000000 		.4byte	0xad
 3591 0b6f 01       		.byte	0x1
 3592 0b70 780B0000 		.4byte	0xb78
 3593 0b74 B50B0000 		.4byte	0xbb5
 3594 0b78 23       		.uleb128 0x23
 3595 0b79 C20E0000 		.4byte	0xec2
 3596 0b7d 15       		.uleb128 0x15
 3597 0b7e AD000000 		.4byte	0xad
 3598 0b82 15       		.uleb128 0x15
 3599 0b83 AD000000 		.4byte	0xad
 3600 0b87 15       		.uleb128 0x15
 3601 0b88 AD000000 		.4byte	0xad
 3602 0b8c 15       		.uleb128 0x15
 3603 0b8d AD000000 		.4byte	0xad
 3604 0b91 15       		.uleb128 0x15
 3605 0b92 AD000000 		.4byte	0xad
 3606 0b96 15       		.uleb128 0x15
 3607 0b97 AD000000 		.4byte	0xad
 3608 0b9b 15       		.uleb128 0x15
 3609 0b9c C3000000 		.4byte	0xc3
 3610 0ba0 15       		.uleb128 0x15
 3611 0ba1 C3000000 		.4byte	0xc3
ARM GAS  C:\Users\jrdia\AppData\Local\Temp\ccFTvYyK.s 			page 95


 3612 0ba5 15       		.uleb128 0x15
 3613 0ba6 C3000000 		.4byte	0xc3
 3614 0baa 15       		.uleb128 0x15
 3615 0bab 19070000 		.4byte	0x719
 3616 0baf 15       		.uleb128 0x15
 3617 0bb0 D30E0000 		.4byte	0xed3
 3618 0bb4 00       		.byte	0
 3619 0bb5 2A       		.uleb128 0x2a
 3620 0bb6 221F0000 		.4byte	.LASF93
 3621 0bba 0B       		.byte	0xb
 3622 0bbb 0801     		.2byte	0x108
 3623 0bbd EB600000 		.4byte	.LASF194
 3624 0bc1 C90B0000 		.4byte	0xbc9
 3625 0bc5 CF0B0000 		.4byte	0xbcf
 3626 0bc9 23       		.uleb128 0x23
 3627 0bca C20E0000 		.4byte	0xec2
 3628 0bce 00       		.byte	0
 3629 0bcf 2B       		.uleb128 0x2b
 3630 0bd0 6A4A0000 		.4byte	.LASF187
 3631 0bd4 0B       		.byte	0xb
 3632 0bd5 0901     		.2byte	0x109
 3633 0bd7 871B0000 		.4byte	.LASF188
 3634 0bdb AD000000 		.4byte	0xad
 3635 0bdf E70B0000 		.4byte	0xbe7
 3636 0be3 010C0000 		.4byte	0xc01
 3637 0be7 23       		.uleb128 0x23
 3638 0be8 C20E0000 		.4byte	0xec2
 3639 0bec 15       		.uleb128 0x15
 3640 0bed AD000000 		.4byte	0xad
 3641 0bf1 15       		.uleb128 0x15
 3642 0bf2 AD000000 		.4byte	0xad
 3643 0bf6 15       		.uleb128 0x15
 3644 0bf7 E40E0000 		.4byte	0xee4
 3645 0bfb 15       		.uleb128 0x15
 3646 0bfc DE0E0000 		.4byte	0xede
 3647 0c00 00       		.byte	0
 3648 0c01 2B       		.uleb128 0x2b
 3649 0c02 F5370000 		.4byte	.LASF189
 3650 0c06 0B       		.byte	0xb
 3651 0c07 0A01     		.2byte	0x10a
 3652 0c09 9F4C0000 		.4byte	.LASF190
 3653 0c0d AD000000 		.4byte	0xad
 3654 0c11 190C0000 		.4byte	0xc19
 3655 0c15 330C0000 		.4byte	0xc33
 3656 0c19 23       		.uleb128 0x23
 3657 0c1a C20E0000 		.4byte	0xec2
 3658 0c1e 15       		.uleb128 0x15
 3659 0c1f 6E020000 		.4byte	0x26e
 3660 0c23 15       		.uleb128 0x15
 3661 0c24 C3000000 		.4byte	0xc3
 3662 0c28 15       		.uleb128 0x15
 3663 0c29 C3000000 		.4byte	0xc3
 3664 0c2d 15       		.uleb128 0x15
 3665 0c2e 19070000 		.4byte	0x719
 3666 0c32 00       		.byte	0
 3667 0c33 2B       		.uleb128 0x2b
 3668 0c34 9D4D0000 		.4byte	.LASF191
ARM GAS  C:\Users\jrdia\AppData\Local\Temp\ccFTvYyK.s 			page 96


 3669 0c38 0B       		.byte	0xb
 3670 0c39 0B01     		.2byte	0x10b
 3671 0c3b E74B0000 		.4byte	.LASF192
 3672 0c3f AD000000 		.4byte	0xad
 3673 0c43 4B0C0000 		.4byte	0xc4b
 3674 0c47 6A0C0000 		.4byte	0xc6a
 3675 0c4b 23       		.uleb128 0x23
 3676 0c4c C20E0000 		.4byte	0xec2
 3677 0c50 15       		.uleb128 0x15
 3678 0c51 6E020000 		.4byte	0x26e
 3679 0c55 15       		.uleb128 0x15
 3680 0c56 C3000000 		.4byte	0xc3
 3681 0c5a 15       		.uleb128 0x15
 3682 0c5b DE0E0000 		.4byte	0xede
 3683 0c5f 15       		.uleb128 0x15
 3684 0c60 19070000 		.4byte	0x719
 3685 0c64 15       		.uleb128 0x15
 3686 0c65 AD000000 		.4byte	0xad
 3687 0c69 00       		.byte	0
 3688 0c6a 2C       		.uleb128 0x2c
 3689 0c6b 8C0B0000 		.4byte	.LASF193
 3690 0c6f 0B       		.byte	0xb
 3691 0c70 0C01     		.2byte	0x10c
 3692 0c72 6A1E0000 		.4byte	.LASF195
 3693 0c76 AD000000 		.4byte	0xad
 3694 0c7a 7E0C0000 		.4byte	0xc7e
 3695 0c7e 23       		.uleb128 0x23
 3696 0c7f C20E0000 		.4byte	0xec2
 3697 0c83 15       		.uleb128 0x15
 3698 0c84 AD000000 		.4byte	0xad
 3699 0c88 15       		.uleb128 0x15
 3700 0c89 AD000000 		.4byte	0xad
 3701 0c8d 15       		.uleb128 0x15
 3702 0c8e AD000000 		.4byte	0xad
 3703 0c92 15       		.uleb128 0x15
 3704 0c93 1C010000 		.4byte	0x11c
 3705 0c97 00       		.byte	0
 3706 0c98 00       		.byte	0
 3707 0c99 2D       		.uleb128 0x2d
 3708 0c9a 96310000 		.4byte	.LASF330
 3709 0c9e AD0C0000 		.4byte	0xcad
 3710 0ca2 2E       		.uleb128 0x2e
 3711 0ca3 232D0000 		.4byte	.LASF196
 3712 0ca7 42000000 		.4byte	0x42
 3713 0cab 10       		.byte	0x10
 3714 0cac 00       		.byte	0
 3715 0cad 2F       		.uleb128 0x2f
 3716 0cae BD0C0000 		.4byte	0xcbd
 3717 0cb2 BD0C0000 		.4byte	0xcbd
 3718 0cb6 30       		.uleb128 0x30
 3719 0cb7 01010000 		.4byte	0x101
 3720 0cbb 0F       		.byte	0xf
 3721 0cbc 00       		.byte	0
 3722 0cbd 06       		.uleb128 0x6
 3723 0cbe 04       		.byte	0x4
 3724 0cbf C30C0000 		.4byte	0xcc3
 3725 0cc3 31       		.uleb128 0x31
ARM GAS  C:\Users\jrdia\AppData\Local\Temp\ccFTvYyK.s 			page 97


 3726 0cc4 71010000 		.4byte	.LASF199
 3727 0cc8 04       		.byte	0x4
 3728 0cc9 0B       		.byte	0xb
 3729 0cca 7B       		.byte	0x7b
 3730 0ccb C30C0000 		.4byte	0xcc3
 3731 0ccf C20E0000 		.4byte	0xec2
 3732 0cd3 32       		.uleb128 0x32
 3733 0cd4 CC420000 		.4byte	.LASF197
 3734 0cd8 721C0000 		.4byte	0x1c72
 3735 0cdc 00       		.byte	0
 3736 0cdd 01       		.byte	0x1
 3737 0cde 33       		.uleb128 0x33
 3738 0cdf 4E2C0000 		.4byte	.LASF198
 3739 0ce3 C7010000 		.4byte	.LASF200
 3740 0ce7 08010000 		.4byte	0x108
 3741 0ceb 01       		.byte	0x1
 3742 0cec F40C0000 		.4byte	0xcf4
 3743 0cf0 FF0C0000 		.4byte	0xcff
 3744 0cf4 23       		.uleb128 0x23
 3745 0cf5 BD0C0000 		.4byte	0xcbd
 3746 0cf9 23       		.uleb128 0x23
 3747 0cfa 94000000 		.4byte	0x94
 3748 0cfe 00       		.byte	0
 3749 0cff 33       		.uleb128 0x33
 3750 0d00 71010000 		.4byte	.LASF199
 3751 0d04 75680000 		.4byte	.LASF201
 3752 0d08 BD0C0000 		.4byte	0xcbd
 3753 0d0c 01       		.byte	0x1
 3754 0d0d 150D0000 		.4byte	0xd15
 3755 0d11 200D0000 		.4byte	0xd20
 3756 0d15 23       		.uleb128 0x23
 3757 0d16 BD0C0000 		.4byte	0xcbd
 3758 0d1a 15       		.uleb128 0x15
 3759 0d1b A41C0000 		.4byte	0x1ca4
 3760 0d1f 00       		.byte	0
 3761 0d20 33       		.uleb128 0x33
 3762 0d21 71010000 		.4byte	.LASF199
 3763 0d25 0C390000 		.4byte	.LASF202
 3764 0d29 BD0C0000 		.4byte	0xcbd
 3765 0d2d 01       		.byte	0x1
 3766 0d2e 360D0000 		.4byte	0xd36
 3767 0d32 3C0D0000 		.4byte	0xd3c
 3768 0d36 23       		.uleb128 0x23
 3769 0d37 BD0C0000 		.4byte	0xcbd
 3770 0d3b 00       		.byte	0
 3771 0d3c 34       		.uleb128 0x34
 3772 0d3d 6F5A0000 		.4byte	.LASF118
 3773 0d41 0B       		.byte	0xb
 3774 0d42 7E       		.byte	0x7e
 3775 0d43 0F4D0000 		.4byte	.LASF204
 3776 0d47 AD000000 		.4byte	0xad
 3777 0d4b 01       		.byte	0x1
 3778 0d4c 02       		.uleb128 0x2
 3779 0d4d 10       		.byte	0x10
 3780 0d4e 00       		.uleb128 0
 3781 0d4f C30C0000 		.4byte	0xcc3
 3782 0d53 01       		.byte	0x1
ARM GAS  C:\Users\jrdia\AppData\Local\Temp\ccFTvYyK.s 			page 98


 3783 0d54 5C0D0000 		.4byte	0xd5c
 3784 0d58 710D0000 		.4byte	0xd71
 3785 0d5c 23       		.uleb128 0x23
 3786 0d5d BD0C0000 		.4byte	0xcbd
 3787 0d61 15       		.uleb128 0x15
 3788 0d62 AD000000 		.4byte	0xad
 3789 0d66 15       		.uleb128 0x15
 3790 0d67 AD000000 		.4byte	0xad
 3791 0d6b 15       		.uleb128 0x15
 3792 0d6c 1C010000 		.4byte	0x11c
 3793 0d70 00       		.byte	0
 3794 0d71 34       		.uleb128 0x34
 3795 0d72 99480000 		.4byte	.LASF203
 3796 0d76 0B       		.byte	0xb
 3797 0d77 82       		.byte	0x82
 3798 0d78 89460000 		.4byte	.LASF205
 3799 0d7c AD000000 		.4byte	0xad
 3800 0d80 01       		.byte	0x1
 3801 0d81 02       		.uleb128 0x2
 3802 0d82 10       		.byte	0x10
 3803 0d83 01       		.uleb128 0x1
 3804 0d84 C30C0000 		.4byte	0xcc3
 3805 0d88 01       		.byte	0x1
 3806 0d89 910D0000 		.4byte	0xd91
 3807 0d8d A60D0000 		.4byte	0xda6
 3808 0d91 23       		.uleb128 0x23
 3809 0d92 BD0C0000 		.4byte	0xcbd
 3810 0d96 15       		.uleb128 0x15
 3811 0d97 AD000000 		.4byte	0xad
 3812 0d9b 15       		.uleb128 0x15
 3813 0d9c AD000000 		.4byte	0xad
 3814 0da0 15       		.uleb128 0x15
 3815 0da1 1C010000 		.4byte	0x11c
 3816 0da5 00       		.byte	0
 3817 0da6 34       		.uleb128 0x34
 3818 0da7 56080000 		.4byte	.LASF206
 3819 0dab 0B       		.byte	0xb
 3820 0dac 86       		.byte	0x86
 3821 0dad 88260000 		.4byte	.LASF207
 3822 0db1 AD000000 		.4byte	0xad
 3823 0db5 01       		.byte	0x1
 3824 0db6 02       		.uleb128 0x2
 3825 0db7 10       		.byte	0x10
 3826 0db8 02       		.uleb128 0x2
 3827 0db9 C30C0000 		.4byte	0xcc3
 3828 0dbd 01       		.byte	0x1
 3829 0dbe C60D0000 		.4byte	0xdc6
 3830 0dc2 CC0D0000 		.4byte	0xdcc
 3831 0dc6 23       		.uleb128 0x23
 3832 0dc7 BD0C0000 		.4byte	0xcbd
 3833 0dcb 00       		.byte	0
 3834 0dcc 34       		.uleb128 0x34
 3835 0dcd 46280000 		.4byte	.LASF208
 3836 0dd1 0B       		.byte	0xb
 3837 0dd2 8A       		.byte	0x8a
 3838 0dd3 A03A0000 		.4byte	.LASF209
 3839 0dd7 AD000000 		.4byte	0xad
ARM GAS  C:\Users\jrdia\AppData\Local\Temp\ccFTvYyK.s 			page 99


 3840 0ddb 01       		.byte	0x1
 3841 0ddc 02       		.uleb128 0x2
 3842 0ddd 10       		.byte	0x10
 3843 0dde 03       		.uleb128 0x3
 3844 0ddf C30C0000 		.4byte	0xcc3
 3845 0de3 01       		.byte	0x1
 3846 0de4 EC0D0000 		.4byte	0xdec
 3847 0de8 F20D0000 		.4byte	0xdf2
 3848 0dec 23       		.uleb128 0x23
 3849 0ded BD0C0000 		.4byte	0xcbd
 3850 0df1 00       		.byte	0
 3851 0df2 34       		.uleb128 0x34
 3852 0df3 43660000 		.4byte	.LASF210
 3853 0df7 0B       		.byte	0xb
 3854 0df8 8E       		.byte	0x8e
 3855 0df9 F33B0000 		.4byte	.LASF211
 3856 0dfd AD000000 		.4byte	0xad
 3857 0e01 01       		.byte	0x1
 3858 0e02 02       		.uleb128 0x2
 3859 0e03 10       		.byte	0x10
 3860 0e04 04       		.uleb128 0x4
 3861 0e05 C30C0000 		.4byte	0xcc3
 3862 0e09 01       		.byte	0x1
 3863 0e0a 120E0000 		.4byte	0xe12
 3864 0e0e 180E0000 		.4byte	0xe18
 3865 0e12 23       		.uleb128 0x23
 3866 0e13 BD0C0000 		.4byte	0xcbd
 3867 0e17 00       		.byte	0
 3868 0e18 35       		.uleb128 0x35
 3869 0e19 72620000 		.4byte	.LASF216
 3870 0e1d 0B       		.byte	0xb
 3871 0e1e 92       		.byte	0x92
 3872 0e1f 74100000 		.4byte	.LASF218
 3873 0e23 01       		.byte	0x1
 3874 0e24 02       		.uleb128 0x2
 3875 0e25 10       		.byte	0x10
 3876 0e26 05       		.uleb128 0x5
 3877 0e27 C30C0000 		.4byte	0xcc3
 3878 0e2b 01       		.byte	0x1
 3879 0e2c 340E0000 		.4byte	0xe34
 3880 0e30 3F0E0000 		.4byte	0xe3f
 3881 0e34 23       		.uleb128 0x23
 3882 0e35 BD0C0000 		.4byte	0xcbd
 3883 0e39 15       		.uleb128 0x15
 3884 0e3a AD000000 		.4byte	0xad
 3885 0e3e 00       		.byte	0
 3886 0e3f 34       		.uleb128 0x34
 3887 0e40 25190000 		.4byte	.LASF212
 3888 0e44 0B       		.byte	0xb
 3889 0e45 96       		.byte	0x96
 3890 0e46 A22E0000 		.4byte	.LASF213
 3891 0e4a 1C010000 		.4byte	0x11c
 3892 0e4e 01       		.byte	0x1
 3893 0e4f 02       		.uleb128 0x2
 3894 0e50 10       		.byte	0x10
 3895 0e51 06       		.uleb128 0x6
 3896 0e52 C30C0000 		.4byte	0xcc3
ARM GAS  C:\Users\jrdia\AppData\Local\Temp\ccFTvYyK.s 			page 100


 3897 0e56 01       		.byte	0x1
 3898 0e57 5F0E0000 		.4byte	0xe5f
 3899 0e5b 6F0E0000 		.4byte	0xe6f
 3900 0e5f 23       		.uleb128 0x23
 3901 0e60 BD0C0000 		.4byte	0xcbd
 3902 0e64 15       		.uleb128 0x15
 3903 0e65 C3000000 		.4byte	0xc3
 3904 0e69 15       		.uleb128 0x15
 3905 0e6a C3000000 		.4byte	0xc3
 3906 0e6e 00       		.byte	0
 3907 0e6f 34       		.uleb128 0x34
 3908 0e70 0A290000 		.4byte	.LASF214
 3909 0e74 0B       		.byte	0xb
 3910 0e75 9A       		.byte	0x9a
 3911 0e76 5B470000 		.4byte	.LASF215
 3912 0e7a 1C010000 		.4byte	0x11c
 3913 0e7e 01       		.byte	0x1
 3914 0e7f 02       		.uleb128 0x2
 3915 0e80 10       		.byte	0x10
 3916 0e81 07       		.uleb128 0x7
 3917 0e82 C30C0000 		.4byte	0xcc3
 3918 0e86 01       		.byte	0x1
 3919 0e87 8F0E0000 		.4byte	0xe8f
 3920 0e8b 9A0E0000 		.4byte	0xe9a
 3921 0e8f 23       		.uleb128 0x23
 3922 0e90 BD0C0000 		.4byte	0xcbd
 3923 0e94 15       		.uleb128 0x15
 3924 0e95 AD000000 		.4byte	0xad
 3925 0e99 00       		.byte	0
 3926 0e9a 36       		.uleb128 0x36
 3927 0e9b 975D0000 		.4byte	.LASF217
 3928 0e9f 0B       		.byte	0xb
 3929 0ea0 9E       		.byte	0x9e
 3930 0ea1 7F2C0000 		.4byte	.LASF219
 3931 0ea5 1C010000 		.4byte	0x11c
 3932 0ea9 01       		.byte	0x1
 3933 0eaa 02       		.uleb128 0x2
 3934 0eab 10       		.byte	0x10
 3935 0eac 08       		.uleb128 0x8
 3936 0ead C30C0000 		.4byte	0xcc3
 3937 0eb1 01       		.byte	0x1
 3938 0eb2 B60E0000 		.4byte	0xeb6
 3939 0eb6 23       		.uleb128 0x23
 3940 0eb7 BD0C0000 		.4byte	0xcbd
 3941 0ebb 15       		.uleb128 0x15
 3942 0ebc AD000000 		.4byte	0xad
 3943 0ec0 00       		.byte	0
 3944 0ec1 00       		.byte	0
 3945 0ec2 06       		.uleb128 0x6
 3946 0ec3 04       		.byte	0x4
 3947 0ec4 1F070000 		.4byte	0x71f
 3948 0ec8 1B       		.uleb128 0x1b
 3949 0ec9 CF170000 		.4byte	.LASF220
 3950 0ecd 37       		.uleb128 0x37
 3951 0ece 04       		.byte	0x4
 3952 0ecf C80E0000 		.4byte	0xec8
 3953 0ed3 06       		.uleb128 0x6
ARM GAS  C:\Users\jrdia\AppData\Local\Temp\ccFTvYyK.s 			page 101


 3954 0ed4 04       		.byte	0x4
 3955 0ed5 D90E0000 		.4byte	0xed9
 3956 0ed9 1B       		.uleb128 0x1b
 3957 0eda 81300000 		.4byte	.LASF221
 3958 0ede 06       		.uleb128 0x6
 3959 0edf 04       		.byte	0x4
 3960 0ee0 C3000000 		.4byte	0xc3
 3961 0ee4 06       		.uleb128 0x6
 3962 0ee5 04       		.byte	0x4
 3963 0ee6 6E020000 		.4byte	0x26e
 3964 0eea 09       		.uleb128 0x9
 3965 0eeb AD000000 		.4byte	0xad
 3966 0eef 2F       		.uleb128 0x2f
 3967 0ef0 AD000000 		.4byte	0xad
 3968 0ef4 FF0E0000 		.4byte	0xeff
 3969 0ef8 30       		.uleb128 0x30
 3970 0ef9 01010000 		.4byte	0x101
 3971 0efd 02       		.byte	0x2
 3972 0efe 00       		.byte	0
 3973 0eff 0A       		.uleb128 0xa
 3974 0f00 93450000 		.4byte	.LASF223
 3975 0f04 04       		.byte	0x4
 3976 0f05 9B000000 		.4byte	0x9b
 3977 0f09 0D       		.byte	0xd
 3978 0f0a 2E       		.byte	0x2e
 3979 0f0b 570F0000 		.4byte	0xf57
 3980 0f0f 38       		.uleb128 0x38
 3981 0f10 52656400 		.ascii	"Red\000"
 3982 0f14 0000FF00 		.4byte	0xff0000
 3983 0f18 39       		.uleb128 0x39
 3984 0f19 B7380000 		.4byte	.LASF224
 3985 0f1d 00FF     		.2byte	0xff00
 3986 0f1f 0B       		.uleb128 0xb
 3987 0f20 5F320000 		.4byte	.LASF225
 3988 0f24 FF       		.byte	0xff
 3989 0f25 3A       		.uleb128 0x3a
 3990 0f26 0C120000 		.4byte	.LASF226
 3991 0f2a 04EBFF00 		.4byte	0xffeb04
 3992 0f2e 39       		.uleb128 0x39
 3993 0f2f 27570000 		.4byte	.LASF227
 3994 0f33 FFFF     		.2byte	0xffff
 3995 0f35 3A       		.uleb128 0x3a
 3996 0f36 B8170000 		.4byte	.LASF228
 3997 0f3a FF00FF00 		.4byte	0xff00ff
 3998 0f3e 3A       		.uleb128 0x3a
 3999 0f3f 0A5C0000 		.4byte	.LASF229
 4000 0f43 FF00FF00 		.4byte	0xff00ff
 4001 0f47 3A       		.uleb128 0x3a
 4002 0f48 BF260000 		.4byte	.LASF230
 4003 0f4c FFFFFF00 		.4byte	0xffffff
 4004 0f50 3B       		.uleb128 0x3b
 4005 0f51 4F666600 		.ascii	"Off\000"
 4006 0f55 00       		.byte	0
 4007 0f56 00       		.byte	0
 4008 0f57 0A       		.uleb128 0xa
 4009 0f58 273D0000 		.4byte	.LASF231
 4010 0f5c 01       		.byte	0x1
ARM GAS  C:\Users\jrdia\AppData\Local\Temp\ccFTvYyK.s 			page 102


 4011 0f5d 42000000 		.4byte	0x42
 4012 0f61 0D       		.byte	0xd
 4013 0f62 44       		.byte	0x44
 4014 0f63 740F0000 		.4byte	0xf74
 4015 0f67 0B       		.uleb128 0xb
 4016 0f68 1E210000 		.4byte	.LASF232
 4017 0f6c 10       		.byte	0x10
 4018 0f6d 0B       		.uleb128 0xb
 4019 0f6e 77170000 		.4byte	.LASF233
 4020 0f72 20       		.byte	0x20
 4021 0f73 00       		.byte	0
 4022 0f74 0A       		.uleb128 0xa
 4023 0f75 44160000 		.4byte	.LASF234
 4024 0f79 01       		.byte	0x1
 4025 0f7a 42000000 		.4byte	0x42
 4026 0f7e 0D       		.byte	0xd
 4027 0f7f 4A       		.byte	0x4a
 4028 0f80 83100000 		.4byte	0x1083
 4029 0f84 3B       		.uleb128 0x3b
 4030 0f85 555000   		.ascii	"UP\000"
 4031 0f88 00       		.byte	0
 4032 0f89 0B       		.uleb128 0xb
 4033 0f8a 40570000 		.4byte	.LASF235
 4034 0f8e 01       		.byte	0x1
 4035 0f8f 0B       		.uleb128 0xb
 4036 0f90 6E0F0000 		.4byte	.LASF236
 4037 0f94 02       		.byte	0x2
 4038 0f95 0B       		.uleb128 0xb
 4039 0f96 3E500000 		.4byte	.LASF237
 4040 0f9a 03       		.byte	0x3
 4041 0f9b 0B       		.uleb128 0xb
 4042 0f9c 54400000 		.4byte	.LASF238
 4043 0fa0 05       		.byte	0x5
 4044 0fa1 3B       		.uleb128 0x3b
 4045 0fa2 54574F00 		.ascii	"TWO\000"
 4046 0fa6 06       		.byte	0x6
 4047 0fa7 3B       		.uleb128 0x3b
 4048 0fa8 4F4E4500 		.ascii	"ONE\000"
 4049 0fac 07       		.byte	0x7
 4050 0fad 0B       		.uleb128 0xb
 4051 0fae D00F0000 		.4byte	.LASF239
 4052 0fb2 08       		.byte	0x8
 4053 0fb3 0B       		.uleb128 0xb
 4054 0fb4 195F0000 		.4byte	.LASF240
 4055 0fb8 09       		.byte	0x9
 4056 0fb9 3B       		.uleb128 0x3b
 4057 0fba 5A00     		.ascii	"Z\000"
 4058 0fbc 0A       		.byte	0xa
 4059 0fbd 3B       		.uleb128 0x3b
 4060 0fbe 4300     		.ascii	"C\000"
 4061 0fc0 0B       		.byte	0xb
 4062 0fc1 3B       		.uleb128 0x3b
 4063 0fc2 4200     		.ascii	"B\000"
 4064 0fc4 0C       		.byte	0xc
 4065 0fc5 3B       		.uleb128 0x3b
 4066 0fc6 4100     		.ascii	"A\000"
 4067 0fc8 0D       		.byte	0xd
ARM GAS  C:\Users\jrdia\AppData\Local\Temp\ccFTvYyK.s 			page 103


 4068 0fc9 3B       		.uleb128 0x3b
 4069 0fca 4C00     		.ascii	"L\000"
 4070 0fcc 10       		.byte	0x10
 4071 0fcd 3B       		.uleb128 0x3b
 4072 0fce 5200     		.ascii	"R\000"
 4073 0fd0 11       		.byte	0x11
 4074 0fd1 3B       		.uleb128 0x3b
 4075 0fd2 5A4C00   		.ascii	"ZL\000"
 4076 0fd5 12       		.byte	0x12
 4077 0fd6 3B       		.uleb128 0x3b
 4078 0fd7 5A5200   		.ascii	"ZR\000"
 4079 0fda 13       		.byte	0x13
 4080 0fdb 0B       		.uleb128 0xb
 4081 0fdc 372D0000 		.4byte	.LASF241
 4082 0fe0 04       		.byte	0x4
 4083 0fe1 0B       		.uleb128 0xb
 4084 0fe2 4C020000 		.4byte	.LASF242
 4085 0fe6 05       		.byte	0x5
 4086 0fe7 3B       		.uleb128 0x3b
 4087 0fe8 4C3300   		.ascii	"L3\000"
 4088 0feb 06       		.byte	0x6
 4089 0fec 3B       		.uleb128 0x3b
 4090 0fed 523300   		.ascii	"R3\000"
 4091 0ff0 07       		.byte	0x7
 4092 0ff1 3B       		.uleb128 0x3b
 4093 0ff2 4C3200   		.ascii	"L2\000"
 4094 0ff5 08       		.byte	0x8
 4095 0ff6 3B       		.uleb128 0x3b
 4096 0ff7 523200   		.ascii	"R2\000"
 4097 0ffa 09       		.byte	0x9
 4098 0ffb 3B       		.uleb128 0x3b
 4099 0ffc 4C3100   		.ascii	"L1\000"
 4100 0fff 0A       		.byte	0xa
 4101 1000 3B       		.uleb128 0x3b
 4102 1001 523100   		.ascii	"R1\000"
 4103 1004 0B       		.byte	0xb
 4104 1005 0B       		.uleb128 0xb
 4105 1006 5C2D0000 		.4byte	.LASF243
 4106 100a 0C       		.byte	0xc
 4107 100b 0B       		.uleb128 0xb
 4108 100c B03B0000 		.4byte	.LASF244
 4109 1010 0D       		.byte	0xd
 4110 1011 0B       		.uleb128 0xb
 4111 1012 C82C0000 		.4byte	.LASF245
 4112 1016 0E       		.byte	0xe
 4113 1017 0B       		.uleb128 0xb
 4114 1018 7C280000 		.4byte	.LASF246
 4115 101c 0F       		.byte	0xf
 4116 101d 3B       		.uleb128 0x3b
 4117 101e 505300   		.ascii	"PS\000"
 4118 1021 10       		.byte	0x10
 4119 1022 0B       		.uleb128 0xb
 4120 1023 06310000 		.4byte	.LASF247
 4121 1027 11       		.byte	0x11
 4122 1028 3B       		.uleb128 0x3b
 4123 1029 5400     		.ascii	"T\000"
 4124 102b 12       		.byte	0x12
ARM GAS  C:\Users\jrdia\AppData\Local\Temp\ccFTvYyK.s 			page 104


 4125 102c 0B       		.uleb128 0xb
 4126 102d 1F190000 		.4byte	.LASF248
 4127 1031 04       		.byte	0x4
 4128 1032 0B       		.uleb128 0xb
 4129 1033 16210000 		.4byte	.LASF249
 4130 1037 05       		.byte	0x5
 4131 1038 0B       		.uleb128 0xb
 4132 1039 A6530000 		.4byte	.LASF250
 4133 103d 11       		.byte	0x11
 4134 103e 0B       		.uleb128 0xb
 4135 103f 03340000 		.4byte	.LASF251
 4136 1043 04       		.byte	0x4
 4137 1044 3B       		.uleb128 0x3b
 4138 1045 5800     		.ascii	"X\000"
 4139 1047 0E       		.byte	0xe
 4140 1048 3B       		.uleb128 0x3b
 4141 1049 5900     		.ascii	"Y\000"
 4142 104b 0F       		.byte	0xf
 4143 104c 0B       		.uleb128 0xb
 4144 104d FE2A0000 		.4byte	.LASF252
 4145 1051 10       		.byte	0x10
 4146 1052 0B       		.uleb128 0xb
 4147 1053 42140000 		.4byte	.LASF253
 4148 1057 11       		.byte	0x11
 4149 1058 0B       		.uleb128 0xb
 4150 1059 283F0000 		.4byte	.LASF254
 4151 105d 08       		.byte	0x8
 4152 105e 0B       		.uleb128 0xb
 4153 105f 691F0000 		.4byte	.LASF255
 4154 1063 09       		.byte	0x9
 4155 1064 3B       		.uleb128 0x3b
 4156 1065 52454400 		.ascii	"RED\000"
 4157 1069 00       		.byte	0
 4158 106a 0B       		.uleb128 0xb
 4159 106b F3080000 		.4byte	.LASF256
 4160 106f 01       		.byte	0x1
 4161 1070 0B       		.uleb128 0xb
 4162 1071 1A320000 		.4byte	.LASF257
 4163 1075 02       		.byte	0x2
 4164 1076 0B       		.uleb128 0xb
 4165 1077 9F4F0000 		.4byte	.LASF258
 4166 107b 03       		.byte	0x3
 4167 107c 0B       		.uleb128 0xb
 4168 107d 175A0000 		.4byte	.LASF259
 4169 1081 04       		.byte	0x4
 4170 1082 00       		.byte	0
 4171 1083 0A       		.uleb128 0xa
 4172 1084 67370000 		.4byte	.LASF260
 4173 1088 01       		.byte	0x1
 4174 1089 42000000 		.4byte	0x42
 4175 108d 0D       		.byte	0xd
 4176 108e 99       		.byte	0x99
 4177 108f AC100000 		.4byte	0x10ac
 4178 1093 0B       		.uleb128 0xb
 4179 1094 BC340000 		.4byte	.LASF261
 4180 1098 00       		.byte	0
 4181 1099 0B       		.uleb128 0xb
ARM GAS  C:\Users\jrdia\AppData\Local\Temp\ccFTvYyK.s 			page 105


 4182 109a C5340000 		.4byte	.LASF262
 4183 109e 01       		.byte	0x1
 4184 109f 0B       		.uleb128 0xb
 4185 10a0 AD160000 		.4byte	.LASF263
 4186 10a4 02       		.byte	0x2
 4187 10a5 0B       		.uleb128 0xb
 4188 10a6 B7160000 		.4byte	.LASF264
 4189 10aa 03       		.byte	0x3
 4190 10ab 00       		.byte	0
 4191 10ac 0A       		.uleb128 0xa
 4192 10ad 475D0000 		.4byte	.LASF265
 4193 10b1 01       		.byte	0x1
 4194 10b2 42000000 		.4byte	0x42
 4195 10b6 0D       		.byte	0xd
 4196 10b7 A8       		.byte	0xa8
 4197 10b8 17110000 		.4byte	0x1117
 4198 10bc 3B       		.uleb128 0x3b
 4199 10bd 615800   		.ascii	"aX\000"
 4200 10c0 32       		.byte	0x32
 4201 10c1 3B       		.uleb128 0x3b
 4202 10c2 615900   		.ascii	"aY\000"
 4203 10c5 34       		.byte	0x34
 4204 10c6 3B       		.uleb128 0x3b
 4205 10c7 615A00   		.ascii	"aZ\000"
 4206 10ca 36       		.byte	0x36
 4207 10cb 3B       		.uleb128 0x3b
 4208 10cc 675A00   		.ascii	"gZ\000"
 4209 10cf 38       		.byte	0x38
 4210 10d0 3B       		.uleb128 0x3b
 4211 10d1 675800   		.ascii	"gX\000"
 4212 10d4 39       		.byte	0x39
 4213 10d5 3B       		.uleb128 0x3b
 4214 10d6 675900   		.ascii	"gY\000"
 4215 10d9 3A       		.byte	0x3a
 4216 10da 0B       		.uleb128 0xb
 4217 10db 3D4F0000 		.4byte	.LASF266
 4218 10df 1C       		.byte	0x1c
 4219 10e0 0B       		.uleb128 0xb
 4220 10e1 5B270000 		.4byte	.LASF267
 4221 10e5 1E       		.byte	0x1e
 4222 10e6 0B       		.uleb128 0xb
 4223 10e7 80040000 		.4byte	.LASF268
 4224 10eb 20       		.byte	0x20
 4225 10ec 0B       		.uleb128 0xb
 4226 10ed E50B0000 		.4byte	.LASF269
 4227 10f1 28       		.byte	0x28
 4228 10f2 0B       		.uleb128 0xb
 4229 10f3 7C130000 		.4byte	.LASF270
 4230 10f7 2A       		.byte	0x2a
 4231 10f8 0B       		.uleb128 0xb
 4232 10f9 79580000 		.4byte	.LASF271
 4233 10fd 2C       		.byte	0x2c
 4234 10fe 0B       		.uleb128 0xb
 4235 10ff 825F0000 		.4byte	.LASF272
 4236 1103 2E       		.byte	0x2e
 4237 1104 0B       		.uleb128 0xb
 4238 1105 A0210000 		.4byte	.LASF273
ARM GAS  C:\Users\jrdia\AppData\Local\Temp\ccFTvYyK.s 			page 106


 4239 1109 2F       		.byte	0x2f
 4240 110a 0B       		.uleb128 0xb
 4241 110b E6620000 		.4byte	.LASF274
 4242 110f 31       		.byte	0x31
 4243 1110 0B       		.uleb128 0xb
 4244 1111 87420000 		.4byte	.LASF275
 4245 1115 32       		.byte	0x32
 4246 1116 00       		.byte	0
 4247 1117 0A       		.uleb128 0xa
 4248 1118 DE180000 		.4byte	.LASF276
 4249 111c 01       		.byte	0x1
 4250 111d 42000000 		.4byte	0x42
 4251 1121 0D       		.byte	0xd
 4252 1122 C9       		.byte	0xc9
 4253 1123 34110000 		.4byte	0x1134
 4254 1127 0B       		.uleb128 0xb
 4255 1128 072E0000 		.4byte	.LASF277
 4256 112c 01       		.byte	0x1
 4257 112d 0B       		.uleb128 0xb
 4258 112e 40240000 		.4byte	.LASF278
 4259 1132 02       		.byte	0x2
 4260 1133 00       		.byte	0
 4261 1134 3C       		.uleb128 0x3c
 4262 1135 72420000 		.4byte	.LASF1329
 4263 1139 03       		.byte	0x3
 4264 113a 03       		.byte	0x3
 4265 113b 32       		.byte	0x32
 4266 113c 46120000 		.4byte	0x1246
 4267 1140 0E       		.uleb128 0xe
 4268 1141 03       		.byte	0x3
 4269 1142 03       		.byte	0x3
 4270 1143 33       		.byte	0x33
 4271 1144 32120000 		.4byte	0x1232
 4272 1148 0F       		.uleb128 0xf
 4273 1149 6D620000 		.4byte	.LASF279
 4274 114d 03       		.byte	0x3
 4275 114e 34       		.byte	0x34
 4276 114f AD000000 		.4byte	0xad
 4277 1153 01       		.byte	0x1
 4278 1154 04       		.byte	0x4
 4279 1155 04       		.byte	0x4
 4280 1156 00       		.byte	0
 4281 1157 0F       		.uleb128 0xf
 4282 1158 C6270000 		.4byte	.LASF280
 4283 115c 03       		.byte	0x3
 4284 115d 35       		.byte	0x35
 4285 115e AD000000 		.4byte	0xad
 4286 1162 01       		.byte	0x1
 4287 1163 01       		.byte	0x1
 4288 1164 03       		.byte	0x3
 4289 1165 00       		.byte	0
 4290 1166 0F       		.uleb128 0xf
 4291 1167 FC340000 		.4byte	.LASF281
 4292 116b 03       		.byte	0x3
 4293 116c 36       		.byte	0x36
 4294 116d AD000000 		.4byte	0xad
 4295 1171 01       		.byte	0x1
ARM GAS  C:\Users\jrdia\AppData\Local\Temp\ccFTvYyK.s 			page 107


 4296 1172 01       		.byte	0x1
 4297 1173 02       		.byte	0x2
 4298 1174 00       		.byte	0
 4299 1175 0F       		.uleb128 0xf
 4300 1176 1A3B0000 		.4byte	.LASF282
 4301 117a 03       		.byte	0x3
 4302 117b 37       		.byte	0x37
 4303 117c AD000000 		.4byte	0xad
 4304 1180 01       		.byte	0x1
 4305 1181 01       		.byte	0x1
 4306 1182 01       		.byte	0x1
 4307 1183 00       		.byte	0
 4308 1184 0F       		.uleb128 0xf
 4309 1185 323D0000 		.4byte	.LASF283
 4310 1189 03       		.byte	0x3
 4311 118a 38       		.byte	0x38
 4312 118b AD000000 		.4byte	0xad
 4313 118f 01       		.byte	0x1
 4314 1190 01       		.byte	0x1
 4315 1191 00       		.byte	0
 4316 1192 00       		.byte	0
 4317 1193 3D       		.uleb128 0x3d
 4318 1194 6C3100   		.ascii	"l1\000"
 4319 1197 03       		.byte	0x3
 4320 1198 3A       		.byte	0x3a
 4321 1199 AD000000 		.4byte	0xad
 4322 119d 01       		.byte	0x1
 4323 119e 01       		.byte	0x1
 4324 119f 07       		.byte	0x7
 4325 11a0 01       		.byte	0x1
 4326 11a1 3D       		.uleb128 0x3d
 4327 11a2 723100   		.ascii	"r1\000"
 4328 11a5 03       		.byte	0x3
 4329 11a6 3B       		.byte	0x3b
 4330 11a7 AD000000 		.4byte	0xad
 4331 11ab 01       		.byte	0x1
 4332 11ac 01       		.byte	0x1
 4333 11ad 06       		.byte	0x6
 4334 11ae 01       		.byte	0x1
 4335 11af 3D       		.uleb128 0x3d
 4336 11b0 6C3200   		.ascii	"l2\000"
 4337 11b3 03       		.byte	0x3
 4338 11b4 3C       		.byte	0x3c
 4339 11b5 AD000000 		.4byte	0xad
 4340 11b9 01       		.byte	0x1
 4341 11ba 01       		.byte	0x1
 4342 11bb 05       		.byte	0x5
 4343 11bc 01       		.byte	0x1
 4344 11bd 3D       		.uleb128 0x3d
 4345 11be 723200   		.ascii	"r2\000"
 4346 11c1 03       		.byte	0x3
 4347 11c2 3D       		.byte	0x3d
 4348 11c3 AD000000 		.4byte	0xad
 4349 11c7 01       		.byte	0x1
 4350 11c8 01       		.byte	0x1
 4351 11c9 04       		.byte	0x4
 4352 11ca 01       		.byte	0x1
ARM GAS  C:\Users\jrdia\AppData\Local\Temp\ccFTvYyK.s 			page 108


 4353 11cb 0F       		.uleb128 0xf
 4354 11cc 43500000 		.4byte	.LASF284
 4355 11d0 03       		.byte	0x3
 4356 11d1 3E       		.byte	0x3e
 4357 11d2 AD000000 		.4byte	0xad
 4358 11d6 01       		.byte	0x1
 4359 11d7 01       		.byte	0x1
 4360 11d8 03       		.byte	0x3
 4361 11d9 01       		.byte	0x1
 4362 11da 0F       		.uleb128 0xf
 4363 11db B0680000 		.4byte	.LASF285
 4364 11df 03       		.byte	0x3
 4365 11e0 3F       		.byte	0x3f
 4366 11e1 AD000000 		.4byte	0xad
 4367 11e5 01       		.byte	0x1
 4368 11e6 01       		.byte	0x1
 4369 11e7 02       		.byte	0x2
 4370 11e8 01       		.byte	0x1
 4371 11e9 3D       		.uleb128 0x3d
 4372 11ea 6C3300   		.ascii	"l3\000"
 4373 11ed 03       		.byte	0x3
 4374 11ee 40       		.byte	0x40
 4375 11ef AD000000 		.4byte	0xad
 4376 11f3 01       		.byte	0x1
 4377 11f4 01       		.byte	0x1
 4378 11f5 01       		.byte	0x1
 4379 11f6 01       		.byte	0x1
 4380 11f7 3D       		.uleb128 0x3d
 4381 11f8 723300   		.ascii	"r3\000"
 4382 11fb 03       		.byte	0x3
 4383 11fc 41       		.byte	0x41
 4384 11fd AD000000 		.4byte	0xad
 4385 1201 01       		.byte	0x1
 4386 1202 01       		.byte	0x1
 4387 1203 00       		.byte	0
 4388 1204 01       		.byte	0x1
 4389 1205 3D       		.uleb128 0x3d
 4390 1206 707300   		.ascii	"ps\000"
 4391 1209 03       		.byte	0x3
 4392 120a 43       		.byte	0x43
 4393 120b AD000000 		.4byte	0xad
 4394 120f 01       		.byte	0x1
 4395 1210 01       		.byte	0x1
 4396 1211 07       		.byte	0x7
 4397 1212 02       		.byte	0x2
 4398 1213 0F       		.uleb128 0xf
 4399 1214 7F620000 		.4byte	.LASF286
 4400 1218 03       		.byte	0x3
 4401 1219 44       		.byte	0x44
 4402 121a AD000000 		.4byte	0xad
 4403 121e 01       		.byte	0x1
 4404 121f 01       		.byte	0x1
 4405 1220 06       		.byte	0x6
 4406 1221 02       		.byte	0x2
 4407 1222 0F       		.uleb128 0xf
 4408 1223 32300000 		.4byte	.LASF287
 4409 1227 03       		.byte	0x3
ARM GAS  C:\Users\jrdia\AppData\Local\Temp\ccFTvYyK.s 			page 109


 4410 1228 45       		.byte	0x45
 4411 1229 AD000000 		.4byte	0xad
 4412 122d 01       		.byte	0x1
 4413 122e 06       		.byte	0x6
 4414 122f 00       		.byte	0
 4415 1230 02       		.byte	0x2
 4416 1231 00       		.byte	0
 4417 1232 11       		.uleb128 0x11
 4418 1233 40110000 		.4byte	0x1140
 4419 1237 3E       		.uleb128 0x3e
 4420 1238 76616C00 		.ascii	"val\000"
 4421 123c 03       		.byte	0x3
 4422 123d 47       		.byte	0x47
 4423 123e CE000000 		.4byte	0xce
 4424 1242 04       		.byte	0x4
 4425 1243 18       		.byte	0x18
 4426 1244 08       		.byte	0x8
 4427 1245 00       		.byte	0
 4428 1246 0C       		.uleb128 0xc
 4429 1247 95210000 		.4byte	.LASF288
 4430 124b 09       		.byte	0x9
 4431 124c 03       		.byte	0x3
 4432 124d 4A       		.byte	0x4a
 4433 124e AC120000 		.4byte	0x12ac
 4434 1252 0E       		.uleb128 0xe
 4435 1253 04       		.byte	0x4
 4436 1254 03       		.byte	0x3
 4437 1255 4C       		.byte	0x4c
 4438 1256 93120000 		.4byte	0x1293
 4439 125a 0F       		.uleb128 0xf
 4440 125b E2070000 		.4byte	.LASF289
 4441 125f 03       		.byte	0x3
 4442 1260 4D       		.byte	0x4d
 4443 1261 AD000000 		.4byte	0xad
 4444 1265 01       		.byte	0x1
 4445 1266 07       		.byte	0x7
 4446 1267 01       		.byte	0x1
 4447 1268 00       		.byte	0
 4448 1269 0F       		.uleb128 0xf
 4449 126a 06320000 		.4byte	.LASF290
 4450 126e 03       		.byte	0x3
 4451 126f 4E       		.byte	0x4e
 4452 1270 AD000000 		.4byte	0xad
 4453 1274 01       		.byte	0x1
 4454 1275 01       		.byte	0x1
 4455 1276 00       		.byte	0
 4456 1277 00       		.byte	0
 4457 1278 3F       		.uleb128 0x3f
 4458 1279 7800     		.ascii	"x\000"
 4459 127b 03       		.byte	0x3
 4460 127c 4F       		.byte	0x4f
 4461 127d C3000000 		.4byte	0xc3
 4462 1281 02       		.byte	0x2
 4463 1282 0C       		.byte	0xc
 4464 1283 7C       		.sleb128 -4
 4465 1284 00       		.byte	0
 4466 1285 3D       		.uleb128 0x3d
ARM GAS  C:\Users\jrdia\AppData\Local\Temp\ccFTvYyK.s 			page 110


 4467 1286 7900     		.ascii	"y\000"
 4468 1288 03       		.byte	0x3
 4469 1289 50       		.byte	0x50
 4470 128a C3000000 		.4byte	0xc3
 4471 128e 02       		.byte	0x2
 4472 128f 0C       		.byte	0xc
 4473 1290 00       		.byte	0
 4474 1291 02       		.byte	0x2
 4475 1292 00       		.byte	0
 4476 1293 12       		.uleb128 0x12
 4477 1294 66660000 		.4byte	.LASF291
 4478 1298 03       		.byte	0x3
 4479 1299 4B       		.byte	0x4b
 4480 129a AD000000 		.4byte	0xad
 4481 129e 00       		.byte	0
 4482 129f 12       		.uleb128 0x12
 4483 12a0 EB1F0000 		.4byte	.LASF292
 4484 12a4 03       		.byte	0x3
 4485 12a5 51       		.byte	0x51
 4486 12a6 AC120000 		.4byte	0x12ac
 4487 12aa 01       		.byte	0x1
 4488 12ab 00       		.byte	0
 4489 12ac 2F       		.uleb128 0x2f
 4490 12ad 52120000 		.4byte	0x1252
 4491 12b1 BC120000 		.4byte	0x12bc
 4492 12b5 30       		.uleb128 0x30
 4493 12b6 01010000 		.4byte	0x101
 4494 12ba 01       		.byte	0x1
 4495 12bb 00       		.byte	0
 4496 12bc 0C       		.uleb128 0xc
 4497 12bd 75570000 		.4byte	.LASF293
 4498 12c1 01       		.byte	0x1
 4499 12c2 03       		.byte	0x3
 4500 12c3 54       		.byte	0x54
 4501 12c4 14130000 		.4byte	0x1314
 4502 12c8 0F       		.uleb128 0xf
 4503 12c9 6F460000 		.4byte	.LASF294
 4504 12cd 03       		.byte	0x3
 4505 12ce 55       		.byte	0x55
 4506 12cf AD000000 		.4byte	0xad
 4507 12d3 01       		.byte	0x1
 4508 12d4 04       		.byte	0x4
 4509 12d5 04       		.byte	0x4
 4510 12d6 00       		.byte	0
 4511 12d7 3D       		.uleb128 0x3d
 4512 12d8 75736200 		.ascii	"usb\000"
 4513 12dc 03       		.byte	0x3
 4514 12dd 56       		.byte	0x56
 4515 12de AD000000 		.4byte	0xad
 4516 12e2 01       		.byte	0x1
 4517 12e3 01       		.byte	0x1
 4518 12e4 03       		.byte	0x3
 4519 12e5 00       		.byte	0
 4520 12e6 0F       		.uleb128 0xf
 4521 12e7 7B0A0000 		.4byte	.LASF295
 4522 12eb 03       		.byte	0x3
 4523 12ec 57       		.byte	0x57
ARM GAS  C:\Users\jrdia\AppData\Local\Temp\ccFTvYyK.s 			page 111


 4524 12ed AD000000 		.4byte	0xad
 4525 12f1 01       		.byte	0x1
 4526 12f2 01       		.byte	0x1
 4527 12f3 02       		.byte	0x2
 4528 12f4 00       		.byte	0
 4529 12f5 3D       		.uleb128 0x3d
 4530 12f6 6D696300 		.ascii	"mic\000"
 4531 12fa 03       		.byte	0x3
 4532 12fb 58       		.byte	0x58
 4533 12fc AD000000 		.4byte	0xad
 4534 1300 01       		.byte	0x1
 4535 1301 01       		.byte	0x1
 4536 1302 01       		.byte	0x1
 4537 1303 00       		.byte	0
 4538 1304 0F       		.uleb128 0xf
 4539 1305 97030000 		.4byte	.LASF296
 4540 1309 03       		.byte	0x3
 4541 130a 59       		.byte	0x59
 4542 130b AD000000 		.4byte	0xad
 4543 130f 01       		.byte	0x1
 4544 1310 01       		.byte	0x1
 4545 1311 00       		.byte	0
 4546 1312 00       		.byte	0
 4547 1313 00       		.byte	0
 4548 1314 0C       		.uleb128 0xc
 4549 1315 FB590000 		.4byte	.LASF297
 4550 1319 3C       		.byte	0x3c
 4551 131a 03       		.byte	0x3
 4552 131b 5C       		.byte	0x5c
 4553 131c C8130000 		.4byte	0x13c8
 4554 1320 12       		.uleb128 0x12
 4555 1321 EE5C0000 		.4byte	.LASF298
 4556 1325 03       		.byte	0x3
 4557 1326 5E       		.byte	0x5e
 4558 1327 C8130000 		.4byte	0x13c8
 4559 132b 00       		.byte	0
 4560 132c 40       		.uleb128 0x40
 4561 132d 62746E00 		.ascii	"btn\000"
 4562 1331 03       		.byte	0x3
 4563 1332 5F       		.byte	0x5f
 4564 1333 34110000 		.4byte	0x1134
 4565 1337 04       		.byte	0x4
 4566 1338 12       		.uleb128 0x12
 4567 1339 890E0000 		.4byte	.LASF299
 4568 133d 03       		.byte	0x3
 4569 133e 60       		.byte	0x60
 4570 133f D8130000 		.4byte	0x13d8
 4571 1343 07       		.byte	0x7
 4572 1344 12       		.uleb128 0x12
 4573 1345 66660000 		.4byte	.LASF291
 4574 1349 03       		.byte	0x3
 4575 134a 63       		.byte	0x63
 4576 134b EF0E0000 		.4byte	0xeef
 4577 134f 09       		.byte	0x9
 4578 1350 12       		.uleb128 0x12
 4579 1351 68260000 		.4byte	.LASF300
 4580 1355 03       		.byte	0x3
ARM GAS  C:\Users\jrdia\AppData\Local\Temp\ccFTvYyK.s 			page 112


 4581 1356 64       		.byte	0x64
 4582 1357 B8000000 		.4byte	0xb8
 4583 135b 0C       		.byte	0xc
 4584 135c 12       		.uleb128 0x12
 4585 135d 6E260000 		.4byte	.LASF301
 4586 1361 03       		.byte	0x3
 4587 1362 64       		.byte	0x64
 4588 1363 B8000000 		.4byte	0xb8
 4589 1367 0E       		.byte	0xe
 4590 1368 12       		.uleb128 0x12
 4591 1369 62260000 		.4byte	.LASF302
 4592 136d 03       		.byte	0x3
 4593 136e 64       		.byte	0x64
 4594 136f B8000000 		.4byte	0xb8
 4595 1373 10       		.byte	0x10
 4596 1374 12       		.uleb128 0x12
 4597 1375 431C0000 		.4byte	.LASF303
 4598 1379 03       		.byte	0x3
 4599 137a 65       		.byte	0x65
 4600 137b B8000000 		.4byte	0xb8
 4601 137f 12       		.byte	0x12
 4602 1380 12       		.uleb128 0x12
 4603 1381 4D1C0000 		.4byte	.LASF304
 4604 1385 03       		.byte	0x3
 4605 1386 65       		.byte	0x65
 4606 1387 B8000000 		.4byte	0xb8
 4607 138b 14       		.byte	0x14
 4608 138c 12       		.uleb128 0x12
 4609 138d 481C0000 		.4byte	.LASF305
 4610 1391 03       		.byte	0x3
 4611 1392 65       		.byte	0x65
 4612 1393 B8000000 		.4byte	0xb8
 4613 1397 16       		.byte	0x16
 4614 1398 12       		.uleb128 0x12
 4615 1399 61050000 		.4byte	.LASF306
 4616 139d 03       		.byte	0x3
 4617 139e 67       		.byte	0x67
 4618 139f E8130000 		.4byte	0x13e8
 4619 13a3 18       		.byte	0x18
 4620 13a4 12       		.uleb128 0x12
 4621 13a5 BC3A0000 		.4byte	.LASF307
 4622 13a9 03       		.byte	0x3
 4623 13aa 68       		.byte	0x68
 4624 13ab BC120000 		.4byte	0x12bc
 4625 13af 1D       		.byte	0x1d
 4626 13b0 12       		.uleb128 0x12
 4627 13b1 68050000 		.4byte	.LASF308
 4628 13b5 03       		.byte	0x3
 4629 13b6 69       		.byte	0x69
 4630 13b7 EF0E0000 		.4byte	0xeef
 4631 13bb 1E       		.byte	0x1e
 4632 13bc 40       		.uleb128 0x40
 4633 13bd 787900   		.ascii	"xy\000"
 4634 13c0 03       		.byte	0x3
 4635 13c1 6C       		.byte	0x6c
 4636 13c2 F8130000 		.4byte	0x13f8
 4637 13c6 21       		.byte	0x21
ARM GAS  C:\Users\jrdia\AppData\Local\Temp\ccFTvYyK.s 			page 113


 4638 13c7 00       		.byte	0
 4639 13c8 2F       		.uleb128 0x2f
 4640 13c9 AD000000 		.4byte	0xad
 4641 13cd D8130000 		.4byte	0x13d8
 4642 13d1 30       		.uleb128 0x30
 4643 13d2 01010000 		.4byte	0x101
 4644 13d6 03       		.byte	0x3
 4645 13d7 00       		.byte	0
 4646 13d8 2F       		.uleb128 0x2f
 4647 13d9 AD000000 		.4byte	0xad
 4648 13dd E8130000 		.4byte	0x13e8
 4649 13e1 30       		.uleb128 0x30
 4650 13e2 01010000 		.4byte	0x101
 4651 13e6 01       		.byte	0x1
 4652 13e7 00       		.byte	0
 4653 13e8 2F       		.uleb128 0x2f
 4654 13e9 AD000000 		.4byte	0xad
 4655 13ed F8130000 		.4byte	0x13f8
 4656 13f1 30       		.uleb128 0x30
 4657 13f2 01010000 		.4byte	0x101
 4658 13f6 04       		.byte	0x4
 4659 13f7 00       		.byte	0
 4660 13f8 2F       		.uleb128 0x2f
 4661 13f9 46120000 		.4byte	0x1246
 4662 13fd 08140000 		.4byte	0x1408
 4663 1401 30       		.uleb128 0x30
 4664 1402 01010000 		.4byte	0x101
 4665 1406 02       		.byte	0x2
 4666 1407 00       		.byte	0
 4667 1408 0C       		.uleb128 0xc
 4668 1409 CA380000 		.4byte	.LASF309
 4669 140d 08       		.byte	0x8
 4670 140e 03       		.byte	0x3
 4671 140f 74       		.byte	0x74
 4672 1410 6F140000 		.4byte	0x146f
 4673 1414 12       		.uleb128 0x12
 4674 1415 F5430000 		.4byte	.LASF310
 4675 1419 03       		.byte	0x3
 4676 141a 75       		.byte	0x75
 4677 141b AD000000 		.4byte	0xad
 4678 141f 00       		.byte	0
 4679 1420 12       		.uleb128 0x12
 4680 1421 CF550000 		.4byte	.LASF311
 4681 1425 03       		.byte	0x3
 4682 1426 75       		.byte	0x75
 4683 1427 AD000000 		.4byte	0xad
 4684 142b 01       		.byte	0x1
 4685 142c 40       		.uleb128 0x40
 4686 142d 7200     		.ascii	"r\000"
 4687 142f 03       		.byte	0x3
 4688 1430 76       		.byte	0x76
 4689 1431 AD000000 		.4byte	0xad
 4690 1435 02       		.byte	0x2
 4691 1436 40       		.uleb128 0x40
 4692 1437 6700     		.ascii	"g\000"
 4693 1439 03       		.byte	0x3
 4694 143a 76       		.byte	0x76
ARM GAS  C:\Users\jrdia\AppData\Local\Temp\ccFTvYyK.s 			page 114


 4695 143b AD000000 		.4byte	0xad
 4696 143f 03       		.byte	0x3
 4697 1440 40       		.uleb128 0x40
 4698 1441 6200     		.ascii	"b\000"
 4699 1443 03       		.byte	0x3
 4700 1444 76       		.byte	0x76
 4701 1445 AD000000 		.4byte	0xad
 4702 1449 04       		.byte	0x4
 4703 144a 12       		.uleb128 0x12
 4704 144b AA630000 		.4byte	.LASF312
 4705 144f 03       		.byte	0x3
 4706 1450 77       		.byte	0x77
 4707 1451 AD000000 		.4byte	0xad
 4708 1455 05       		.byte	0x5
 4709 1456 12       		.uleb128 0x12
 4710 1457 D1470000 		.4byte	.LASF313
 4711 145b 03       		.byte	0x3
 4712 145c 77       		.byte	0x77
 4713 145d AD000000 		.4byte	0xad
 4714 1461 06       		.byte	0x6
 4715 1462 12       		.uleb128 0x12
 4716 1463 07110000 		.4byte	.LASF314
 4717 1467 03       		.byte	0x3
 4718 1468 78       		.byte	0x78
 4719 1469 1C010000 		.4byte	0x11c
 4720 146d 07       		.byte	0x7
 4721 146e 00       		.byte	0
 4722 146f 31       		.uleb128 0x31
 4723 1470 D2080000 		.4byte	.LASF315
 4724 1474 7C       		.byte	0x7c
 4725 1475 02       		.byte	0x2
 4726 1476 1C       		.byte	0x1c
 4727 1477 A51A0000 		.4byte	0x1aa5
 4728 147b C9150000 		.4byte	0x15c9
 4729 147f 28       		.uleb128 0x28
 4730 1480 C9150000 		.4byte	0x15c9
 4731 1484 00       		.byte	0
 4732 1485 01       		.byte	0x1
 4733 1486 28       		.uleb128 0x28
 4734 1487 04160000 		.4byte	0x1604
 4735 148b 2C       		.byte	0x2c
 4736 148c 01       		.byte	0x1
 4737 148d 33       		.uleb128 0x33
 4738 148e D2080000 		.4byte	.LASF315
 4739 1492 F80A0000 		.4byte	.LASF316
 4740 1496 3A1A0000 		.4byte	0x1a3a
 4741 149a 01       		.byte	0x1
 4742 149b A3140000 		.4byte	0x14a3
 4743 149f AE140000 		.4byte	0x14ae
 4744 14a3 23       		.uleb128 0x23
 4745 14a4 3A1A0000 		.4byte	0x1a3a
 4746 14a8 15       		.uleb128 0x15
 4747 14a9 401A0000 		.4byte	0x1a40
 4748 14ad 00       		.byte	0
 4749 14ae 22       		.uleb128 0x22
 4750 14af D2080000 		.4byte	.LASF315
 4751 14b3 02       		.byte	0x2
ARM GAS  C:\Users\jrdia\AppData\Local\Temp\ccFTvYyK.s 			page 115


 4752 14b4 24       		.byte	0x24
 4753 14b5 38690000 		.4byte	.LASF317
 4754 14b9 3A1A0000 		.4byte	0x1a3a
 4755 14bd 01       		.byte	0x1
 4756 14be C6140000 		.4byte	0x14c6
 4757 14c2 DB140000 		.4byte	0x14db
 4758 14c6 23       		.uleb128 0x23
 4759 14c7 3A1A0000 		.4byte	0x1a3a
 4760 14cb 15       		.uleb128 0x15
 4761 14cc 4B1A0000 		.4byte	0x1a4b
 4762 14d0 15       		.uleb128 0x15
 4763 14d1 1C010000 		.4byte	0x11c
 4764 14d5 15       		.uleb128 0x15
 4765 14d6 0A010000 		.4byte	0x10a
 4766 14da 00       		.byte	0
 4767 14db 22       		.uleb128 0x22
 4768 14dc D0020000 		.4byte	.LASF318
 4769 14e0 02       		.byte	0x2
 4770 14e1 2D       		.byte	0x2d
 4771 14e2 93250000 		.4byte	.LASF319
 4772 14e6 1C010000 		.4byte	0x11c
 4773 14ea 01       		.byte	0x1
 4774 14eb F3140000 		.4byte	0x14f3
 4775 14ef F9140000 		.4byte	0x14f9
 4776 14f3 23       		.uleb128 0x23
 4777 14f4 3A1A0000 		.4byte	0x1a3a
 4778 14f8 00       		.byte	0
 4779 14f9 35       		.uleb128 0x35
 4780 14fa 442A0000 		.4byte	.LASF320
 4781 14fe 02       		.byte	0x2
 4782 14ff 38       		.byte	0x38
 4783 1500 021A0000 		.4byte	.LASF321
 4784 1504 01       		.byte	0x1
 4785 1505 02       		.uleb128 0x2
 4786 1506 10       		.byte	0x10
 4787 1507 05       		.uleb128 0x5
 4788 1508 6F140000 		.4byte	0x146f
 4789 150c 02       		.byte	0x2
 4790 150d 15150000 		.4byte	0x1515
 4791 1511 25150000 		.4byte	0x1525
 4792 1515 23       		.uleb128 0x23
 4793 1516 3A1A0000 		.4byte	0x1a3a
 4794 151a 15       		.uleb128 0x15
 4795 151b AD000000 		.4byte	0xad
 4796 151f 15       		.uleb128 0x15
 4797 1520 19070000 		.4byte	0x719
 4798 1524 00       		.byte	0
 4799 1525 35       		.uleb128 0x35
 4800 1526 3A280000 		.4byte	.LASF322
 4801 152a 02       		.byte	0x2
 4802 152b 41       		.byte	0x41
 4803 152c 52610000 		.4byte	.LASF323
 4804 1530 01       		.byte	0x1
 4805 1531 02       		.uleb128 0x2
 4806 1532 10       		.byte	0x10
 4807 1533 06       		.uleb128 0x6
 4808 1534 6F140000 		.4byte	0x146f
ARM GAS  C:\Users\jrdia\AppData\Local\Temp\ccFTvYyK.s 			page 116


 4809 1538 02       		.byte	0x2
 4810 1539 41150000 		.4byte	0x1541
 4811 153d 47150000 		.4byte	0x1547
 4812 1541 23       		.uleb128 0x23
 4813 1542 3A1A0000 		.4byte	0x1a3a
 4814 1546 00       		.byte	0
 4815 1547 35       		.uleb128 0x35
 4816 1548 BB270000 		.4byte	.LASF324
 4817 154c 02       		.byte	0x2
 4818 154d 4B       		.byte	0x4b
 4819 154e 0F360000 		.4byte	.LASF325
 4820 1552 01       		.byte	0x1
 4821 1553 02       		.uleb128 0x2
 4822 1554 10       		.byte	0x10
 4823 1555 07       		.uleb128 0x7
 4824 1556 6F140000 		.4byte	0x146f
 4825 155a 02       		.byte	0x2
 4826 155b 63150000 		.4byte	0x1563
 4827 155f 69150000 		.4byte	0x1569
 4828 1563 23       		.uleb128 0x23
 4829 1564 3A1A0000 		.4byte	0x1a3a
 4830 1568 00       		.byte	0
 4831 1569 35       		.uleb128 0x35
 4832 156a CF4A0000 		.4byte	.LASF326
 4833 156e 02       		.byte	0x2
 4834 156f 51       		.byte	0x51
 4835 1570 20320000 		.4byte	.LASF327
 4836 1574 01       		.byte	0x1
 4837 1575 02       		.uleb128 0x2
 4838 1576 10       		.byte	0x10
 4839 1577 08       		.uleb128 0x8
 4840 1578 6F140000 		.4byte	0x146f
 4841 157c 02       		.byte	0x2
 4842 157d 85150000 		.4byte	0x1585
 4843 1581 90150000 		.4byte	0x1590
 4844 1585 23       		.uleb128 0x23
 4845 1586 3A1A0000 		.4byte	0x1a3a
 4846 158a 15       		.uleb128 0x15
 4847 158b 9F1A0000 		.4byte	0x1a9f
 4848 158f 00       		.byte	0
 4849 1590 41       		.uleb128 0x41
 4850 1591 21090000 		.4byte	.LASF328
 4851 1595 02       		.byte	0x2
 4852 1596 6D       		.byte	0x6d
 4853 1597 032B0000 		.4byte	.LASF329
 4854 159b A3150000 		.4byte	0x15a3
 4855 159f A9150000 		.4byte	0x15a9
 4856 15a3 23       		.uleb128 0x23
 4857 15a4 3A1A0000 		.4byte	0x1a3a
 4858 15a8 00       		.byte	0
 4859 15a9 42       		.uleb128 0x42
 4860 15aa ED040000 		.4byte	.LASF1330
 4861 15ae 02       		.byte	0x2
 4862 15af 75       		.byte	0x75
 4863 15b0 A65A0000 		.4byte	.LASF1331
 4864 15b4 B8150000 		.4byte	0x15b8
 4865 15b8 23       		.uleb128 0x23
ARM GAS  C:\Users\jrdia\AppData\Local\Temp\ccFTvYyK.s 			page 117


 4866 15b9 3A1A0000 		.4byte	0x1a3a
 4867 15bd 15       		.uleb128 0x15
 4868 15be 19070000 		.4byte	0x719
 4869 15c2 15       		.uleb128 0x15
 4870 15c3 AD000000 		.4byte	0xad
 4871 15c7 00       		.byte	0
 4872 15c8 00       		.byte	0
 4873 15c9 2D       		.uleb128 0x2d
 4874 15ca DB170000 		.4byte	.LASF331
 4875 15ce 04160000 		.4byte	0x1604
 4876 15d2 35       		.uleb128 0x35
 4877 15d3 88630000 		.4byte	.LASF332
 4878 15d7 01       		.byte	0x1
 4879 15d8 70       		.byte	0x70
 4880 15d9 201A0000 		.4byte	.LASF333
 4881 15dd 01       		.byte	0x1
 4882 15de 02       		.uleb128 0x2
 4883 15df 10       		.byte	0x10
 4884 15e0 04       		.uleb128 0x4
 4885 15e1 C9150000 		.4byte	0x15c9
 4886 15e5 02       		.byte	0x2
 4887 15e6 EE150000 		.4byte	0x15ee
 4888 15ea F4150000 		.4byte	0x15f4
 4889 15ee 23       		.uleb128 0x23
 4890 15ef AA1F0000 		.4byte	0x1faa
 4891 15f3 00       		.byte	0
 4892 15f4 43       		.uleb128 0x43
 4893 15f5 49390000 		.4byte	.LASF397
 4894 15f9 9C360000 		.4byte	.LASF399
 4895 15fd 01       		.byte	0x1
 4896 15fe 29       		.byte	0x29
 4897 15ff 49390000 		.4byte	.LASF397
 4898 1603 00       		.byte	0
 4899 1604 31       		.uleb128 0x31
 4900 1605 C1460000 		.4byte	.LASF334
 4901 1609 50       		.byte	0x50
 4902 160a 03       		.byte	0x3
 4903 160b 7C       		.byte	0x7c
 4904 160c 04160000 		.4byte	0x1604
 4905 1610 3A1A0000 		.4byte	0x1a3a
 4906 1614 32       		.uleb128 0x32
 4907 1615 F84F0000 		.4byte	.LASF335
 4908 1619 721C0000 		.4byte	0x1c72
 4909 161d 00       		.byte	0
 4910 161e 01       		.byte	0x1
 4911 161f 44       		.uleb128 0x44
 4912 1620 A52F0000 		.4byte	.LASF336
 4913 1624 03       		.byte	0x3
 4914 1625 7001     		.2byte	0x170
 4915 1627 14130000 		.4byte	0x1314
 4916 162b 04       		.byte	0x4
 4917 162c 44       		.uleb128 0x44
 4918 162d 6A030000 		.4byte	.LASF337
 4919 1631 03       		.byte	0x3
 4920 1632 7101     		.2byte	0x171
 4921 1634 34110000 		.4byte	0x1134
 4922 1638 40       		.byte	0x40
ARM GAS  C:\Users\jrdia\AppData\Local\Temp\ccFTvYyK.s 			page 118


 4923 1639 44       		.uleb128 0x44
 4924 163a A0690000 		.4byte	.LASF338
 4925 163e 03       		.byte	0x3
 4926 163f 7101     		.2byte	0x171
 4927 1641 34110000 		.4byte	0x1134
 4928 1645 43       		.byte	0x43
 4929 1646 44       		.uleb128 0x44
 4930 1647 74450000 		.4byte	.LASF339
 4931 164b 03       		.byte	0x3
 4932 164c 7201     		.2byte	0x172
 4933 164e 08140000 		.4byte	0x1408
 4934 1652 46       		.byte	0x46
 4935 1653 44       		.uleb128 0x44
 4936 1654 67430000 		.4byte	.LASF340
 4937 1658 03       		.byte	0x3
 4938 1659 7301     		.2byte	0x173
 4939 165b AD000000 		.4byte	0xad
 4940 165f 4E       		.byte	0x4e
 4941 1660 33       		.uleb128 0x33
 4942 1661 AD170000 		.4byte	.LASF341
 4943 1665 6D2C0000 		.4byte	.LASF342
 4944 1669 08010000 		.4byte	0x108
 4945 166d 01       		.byte	0x1
 4946 166e 76160000 		.4byte	0x1676
 4947 1672 81160000 		.4byte	0x1681
 4948 1676 23       		.uleb128 0x23
 4949 1677 821C0000 		.4byte	0x1c82
 4950 167b 23       		.uleb128 0x23
 4951 167c 94000000 		.4byte	0x94
 4952 1680 00       		.byte	0
 4953 1681 33       		.uleb128 0x33
 4954 1682 C1460000 		.4byte	.LASF334
 4955 1686 6D360000 		.4byte	.LASF343
 4956 168a 821C0000 		.4byte	0x1c82
 4957 168e 01       		.byte	0x1
 4958 168f 97160000 		.4byte	0x1697
 4959 1693 A2160000 		.4byte	0x16a2
 4960 1697 23       		.uleb128 0x23
 4961 1698 821C0000 		.4byte	0x1c82
 4962 169c 15       		.uleb128 0x15
 4963 169d 881C0000 		.4byte	0x1c88
 4964 16a1 00       		.byte	0
 4965 16a2 22       		.uleb128 0x22
 4966 16a3 C1460000 		.4byte	.LASF334
 4967 16a7 03       		.byte	0x3
 4968 16a8 7F       		.byte	0x7f
 4969 16a9 D3220000 		.4byte	.LASF344
 4970 16ad 821C0000 		.4byte	0x1c82
 4971 16b1 01       		.byte	0x1
 4972 16b2 BA160000 		.4byte	0x16ba
 4973 16b6 C0160000 		.4byte	0x16c0
 4974 16ba 23       		.uleb128 0x23
 4975 16bb 821C0000 		.4byte	0x1c82
 4976 16bf 00       		.byte	0
 4977 16c0 22       		.uleb128 0x22
 4978 16c1 F21B0000 		.4byte	.LASF345
 4979 16c5 03       		.byte	0x3
ARM GAS  C:\Users\jrdia\AppData\Local\Temp\ccFTvYyK.s 			page 119


 4980 16c6 8E       		.byte	0x8e
 4981 16c7 4B3E0000 		.4byte	.LASF346
 4982 16cb 1C010000 		.4byte	0x11c
 4983 16cf 01       		.byte	0x1
 4984 16d0 D8160000 		.4byte	0x16d8
 4985 16d4 E3160000 		.4byte	0x16e3
 4986 16d8 23       		.uleb128 0x23
 4987 16d9 821C0000 		.4byte	0x1c82
 4988 16dd 15       		.uleb128 0x15
 4989 16de 740F0000 		.4byte	0xf74
 4990 16e2 00       		.byte	0
 4991 16e3 22       		.uleb128 0x22
 4992 16e4 E1230000 		.4byte	.LASF347
 4993 16e8 03       		.byte	0x3
 4994 16e9 8F       		.byte	0x8f
 4995 16ea 59400000 		.4byte	.LASF348
 4996 16ee 1C010000 		.4byte	0x11c
 4997 16f2 01       		.byte	0x1
 4998 16f3 FB160000 		.4byte	0x16fb
 4999 16f7 06170000 		.4byte	0x1706
 5000 16fb 23       		.uleb128 0x23
 5001 16fc 821C0000 		.4byte	0x1c82
 5002 1700 15       		.uleb128 0x15
 5003 1701 740F0000 		.4byte	0xf74
 5004 1705 00       		.byte	0
 5005 1706 22       		.uleb128 0x22
 5006 1707 215C0000 		.4byte	.LASF349
 5007 170b 03       		.byte	0x3
 5008 170c 9A       		.byte	0x9a
 5009 170d A05C0000 		.4byte	.LASF350
 5010 1711 AD000000 		.4byte	0xad
 5011 1715 01       		.byte	0x1
 5012 1716 1E170000 		.4byte	0x171e
 5013 171a 29170000 		.4byte	0x1729
 5014 171e 23       		.uleb128 0x23
 5015 171f 821C0000 		.4byte	0x1c82
 5016 1723 15       		.uleb128 0x15
 5017 1724 740F0000 		.4byte	0xf74
 5018 1728 00       		.byte	0
 5019 1729 22       		.uleb128 0x22
 5020 172a 00540000 		.4byte	.LASF351
 5021 172e 03       		.byte	0x3
 5022 172f A1       		.byte	0xa1
 5023 1730 575B0000 		.4byte	.LASF352
 5024 1734 AD000000 		.4byte	0xad
 5025 1738 01       		.byte	0x1
 5026 1739 41170000 		.4byte	0x1741
 5027 173d 4C170000 		.4byte	0x174c
 5028 1741 23       		.uleb128 0x23
 5029 1742 821C0000 		.4byte	0x1c82
 5030 1746 15       		.uleb128 0x15
 5031 1747 83100000 		.4byte	0x1083
 5032 174b 00       		.byte	0
 5033 174c 22       		.uleb128 0x22
 5034 174d 7D420000 		.4byte	.LASF353
 5035 1751 03       		.byte	0x3
 5036 1752 AB       		.byte	0xab
ARM GAS  C:\Users\jrdia\AppData\Local\Temp\ccFTvYyK.s 			page 120


 5037 1753 27110000 		.4byte	.LASF354
 5038 1757 C3000000 		.4byte	0xc3
 5039 175b 01       		.byte	0x1
 5040 175c 64170000 		.4byte	0x1764
 5041 1760 74170000 		.4byte	0x1774
 5042 1764 23       		.uleb128 0x23
 5043 1765 821C0000 		.4byte	0x1c82
 5044 1769 15       		.uleb128 0x15
 5045 176a AD000000 		.4byte	0xad
 5046 176e 15       		.uleb128 0x15
 5047 176f AD000000 		.4byte	0xad
 5048 1773 00       		.byte	0
 5049 1774 22       		.uleb128 0x22
 5050 1775 82420000 		.4byte	.LASF355
 5051 1779 03       		.byte	0x3
 5052 177a B7       		.byte	0xb7
 5053 177b 94430000 		.4byte	.LASF356
 5054 177f C3000000 		.4byte	0xc3
 5055 1783 01       		.byte	0x1
 5056 1784 8C170000 		.4byte	0x178c
 5057 1788 9C170000 		.4byte	0x179c
 5058 178c 23       		.uleb128 0x23
 5059 178d 821C0000 		.4byte	0x1c82
 5060 1791 15       		.uleb128 0x15
 5061 1792 AD000000 		.4byte	0xad
 5062 1796 15       		.uleb128 0x15
 5063 1797 AD000000 		.4byte	0xad
 5064 179b 00       		.byte	0
 5065 179c 22       		.uleb128 0x22
 5066 179d 80000000 		.4byte	.LASF357
 5067 17a1 03       		.byte	0x3
 5068 17a2 C3       		.byte	0xc3
 5069 17a3 3B3D0000 		.4byte	.LASF358
 5070 17a7 1C010000 		.4byte	0x11c
 5071 17ab 01       		.byte	0x1
 5072 17ac B4170000 		.4byte	0x17b4
 5073 17b0 C4170000 		.4byte	0x17c4
 5074 17b4 23       		.uleb128 0x23
 5075 17b5 821C0000 		.4byte	0x1c82
 5076 17b9 15       		.uleb128 0x15
 5077 17ba AD000000 		.4byte	0xad
 5078 17be 15       		.uleb128 0x15
 5079 17bf AD000000 		.4byte	0xad
 5080 17c3 00       		.byte	0
 5081 17c4 22       		.uleb128 0x22
 5082 17c5 C11C0000 		.4byte	.LASF359
 5083 17c9 03       		.byte	0x3
 5084 17ca CF       		.byte	0xcf
 5085 17cb B5400000 		.4byte	.LASF360
 5086 17cf AD000000 		.4byte	0xad
 5087 17d3 01       		.byte	0x1
 5088 17d4 DC170000 		.4byte	0x17dc
 5089 17d8 EC170000 		.4byte	0x17ec
 5090 17dc 23       		.uleb128 0x23
 5091 17dd 821C0000 		.4byte	0x1c82
 5092 17e1 15       		.uleb128 0x15
 5093 17e2 AD000000 		.4byte	0xad
ARM GAS  C:\Users\jrdia\AppData\Local\Temp\ccFTvYyK.s 			page 121


 5094 17e6 15       		.uleb128 0x15
 5095 17e7 AD000000 		.4byte	0xad
 5096 17eb 00       		.byte	0
 5097 17ec 22       		.uleb128 0x22
 5098 17ed D5510000 		.4byte	.LASF361
 5099 17f1 03       		.byte	0x3
 5100 17f2 D8       		.byte	0xd8
 5101 17f3 F4200000 		.4byte	.LASF362
 5102 17f7 E5000000 		.4byte	0xe5
 5103 17fb 01       		.byte	0x1
 5104 17fc 04180000 		.4byte	0x1804
 5105 1800 0F180000 		.4byte	0x180f
 5106 1804 23       		.uleb128 0x23
 5107 1805 821C0000 		.4byte	0x1c82
 5108 1809 15       		.uleb128 0x15
 5109 180a 17110000 		.4byte	0x1117
 5110 180e 00       		.byte	0
 5111 180f 22       		.uleb128 0x22
 5112 1810 27610000 		.4byte	.LASF363
 5113 1814 03       		.byte	0x3
 5114 1815 E4       		.byte	0xe4
 5115 1816 D91D0000 		.4byte	.LASF364
 5116 181a B8000000 		.4byte	0xb8
 5117 181e 01       		.byte	0x1
 5118 181f 27180000 		.4byte	0x1827
 5119 1823 32180000 		.4byte	0x1832
 5120 1827 23       		.uleb128 0x23
 5121 1828 821C0000 		.4byte	0x1c82
 5122 182c 15       		.uleb128 0x15
 5123 182d AC100000 		.4byte	0x10ac
 5124 1831 00       		.byte	0
 5125 1832 22       		.uleb128 0x22
 5126 1833 1A690000 		.4byte	.LASF365
 5127 1837 03       		.byte	0x3
 5128 1838 FB       		.byte	0xfb
 5129 1839 04400000 		.4byte	.LASF366
 5130 183d AD000000 		.4byte	0xad
 5131 1841 01       		.byte	0x1
 5132 1842 4A180000 		.4byte	0x184a
 5133 1846 50180000 		.4byte	0x1850
 5134 184a 23       		.uleb128 0x23
 5135 184b 821C0000 		.4byte	0x1c82
 5136 184f 00       		.byte	0
 5137 1850 26       		.uleb128 0x26
 5138 1851 1B590000 		.4byte	.LASF367
 5139 1855 03       		.byte	0x3
 5140 1856 0301     		.2byte	0x103
 5141 1858 0F100000 		.4byte	.LASF368
 5142 185c 1C010000 		.4byte	0x11c
 5143 1860 01       		.byte	0x1
 5144 1861 69180000 		.4byte	0x1869
 5145 1865 6F180000 		.4byte	0x186f
 5146 1869 23       		.uleb128 0x23
 5147 186a 821C0000 		.4byte	0x1c82
 5148 186e 00       		.byte	0
 5149 186f 26       		.uleb128 0x26
 5150 1870 540B0000 		.4byte	.LASF369
ARM GAS  C:\Users\jrdia\AppData\Local\Temp\ccFTvYyK.s 			page 122


 5151 1874 03       		.byte	0x3
 5152 1875 0B01     		.2byte	0x10b
 5153 1877 9A0B0000 		.4byte	.LASF370
 5154 187b 1C010000 		.4byte	0x11c
 5155 187f 01       		.byte	0x1
 5156 1880 88180000 		.4byte	0x1888
 5157 1884 8E180000 		.4byte	0x188e
 5158 1888 23       		.uleb128 0x23
 5159 1889 821C0000 		.4byte	0x1c82
 5160 188d 00       		.byte	0
 5161 188e 26       		.uleb128 0x26
 5162 188f 8C0D0000 		.4byte	.LASF371
 5163 1893 03       		.byte	0x3
 5164 1894 1301     		.2byte	0x113
 5165 1896 EC280000 		.4byte	.LASF372
 5166 189a 1C010000 		.4byte	0x11c
 5167 189e 01       		.byte	0x1
 5168 189f A7180000 		.4byte	0x18a7
 5169 18a3 AD180000 		.4byte	0x18ad
 5170 18a7 23       		.uleb128 0x23
 5171 18a8 821C0000 		.4byte	0x1c82
 5172 18ac 00       		.byte	0
 5173 18ad 25       		.uleb128 0x25
 5174 18ae 38140000 		.4byte	.LASF373
 5175 18b2 03       		.byte	0x3
 5176 18b3 1801     		.2byte	0x118
 5177 18b5 12070000 		.4byte	.LASF374
 5178 18b9 01       		.byte	0x1
 5179 18ba C2180000 		.4byte	0x18c2
 5180 18be C8180000 		.4byte	0x18c8
 5181 18c2 23       		.uleb128 0x23
 5182 18c3 821C0000 		.4byte	0x1c82
 5183 18c7 00       		.byte	0
 5184 18c8 25       		.uleb128 0x25
 5185 18c9 332B0000 		.4byte	.LASF375
 5186 18cd 03       		.byte	0x3
 5187 18ce 1E01     		.2byte	0x11e
 5188 18d0 45590000 		.4byte	.LASF376
 5189 18d4 01       		.byte	0x1
 5190 18d5 DD180000 		.4byte	0x18dd
 5191 18d9 E3180000 		.4byte	0x18e3
 5192 18dd 23       		.uleb128 0x23
 5193 18de 821C0000 		.4byte	0x1c82
 5194 18e2 00       		.byte	0
 5195 18e3 25       		.uleb128 0x25
 5196 18e4 EA270000 		.4byte	.LASF377
 5197 18e8 03       		.byte	0x3
 5198 18e9 2601     		.2byte	0x126
 5199 18eb F3360000 		.4byte	.LASF378
 5200 18ef 01       		.byte	0x1
 5201 18f0 F8180000 		.4byte	0x18f8
 5202 18f4 03190000 		.4byte	0x1903
 5203 18f8 23       		.uleb128 0x23
 5204 18f9 821C0000 		.4byte	0x1c82
 5205 18fd 15       		.uleb128 0x15
 5206 18fe 570F0000 		.4byte	0xf57
 5207 1902 00       		.byte	0
ARM GAS  C:\Users\jrdia\AppData\Local\Temp\ccFTvYyK.s 			page 123


 5208 1903 25       		.uleb128 0x25
 5209 1904 EA270000 		.4byte	.LASF377
 5210 1908 03       		.byte	0x3
 5211 1909 3201     		.2byte	0x132
 5212 190b 331A0000 		.4byte	.LASF379
 5213 190f 01       		.byte	0x1
 5214 1910 18190000 		.4byte	0x1918
 5215 1914 28190000 		.4byte	0x1928
 5216 1918 23       		.uleb128 0x23
 5217 1919 821C0000 		.4byte	0x1c82
 5218 191d 15       		.uleb128 0x15
 5219 191e AD000000 		.4byte	0xad
 5220 1922 15       		.uleb128 0x15
 5221 1923 AD000000 		.4byte	0xad
 5222 1927 00       		.byte	0
 5223 1928 25       		.uleb128 0x25
 5224 1929 014E0000 		.4byte	.LASF380
 5225 192d 03       		.byte	0x3
 5226 192e 3901     		.2byte	0x139
 5227 1930 5C060000 		.4byte	.LASF381
 5228 1934 01       		.byte	0x1
 5229 1935 3D190000 		.4byte	0x193d
 5230 1939 43190000 		.4byte	0x1943
 5231 193d 23       		.uleb128 0x23
 5232 193e 821C0000 		.4byte	0x1c82
 5233 1942 00       		.byte	0
 5234 1943 25       		.uleb128 0x25
 5235 1944 25340000 		.4byte	.LASF382
 5236 1948 03       		.byte	0x3
 5237 1949 4101     		.2byte	0x141
 5238 194b B7660000 		.4byte	.LASF383
 5239 194f 01       		.byte	0x1
 5240 1950 58190000 		.4byte	0x1958
 5241 1954 6D190000 		.4byte	0x196d
 5242 1958 23       		.uleb128 0x23
 5243 1959 821C0000 		.4byte	0x1c82
 5244 195d 15       		.uleb128 0x15
 5245 195e AD000000 		.4byte	0xad
 5246 1962 15       		.uleb128 0x15
 5247 1963 AD000000 		.4byte	0xad
 5248 1967 15       		.uleb128 0x15
 5249 1968 AD000000 		.4byte	0xad
 5250 196c 00       		.byte	0
 5251 196d 25       		.uleb128 0x25
 5252 196e 25340000 		.4byte	.LASF382
 5253 1972 03       		.byte	0x3
 5254 1973 4C01     		.2byte	0x14c
 5255 1975 CC5C0000 		.4byte	.LASF384
 5256 1979 01       		.byte	0x1
 5257 197a 82190000 		.4byte	0x1982
 5258 197e 8D190000 		.4byte	0x198d
 5259 1982 23       		.uleb128 0x23
 5260 1983 821C0000 		.4byte	0x1c82
 5261 1987 15       		.uleb128 0x15
 5262 1988 FF0E0000 		.4byte	0xeff
 5263 198c 00       		.byte	0
 5264 198d 25       		.uleb128 0x25
ARM GAS  C:\Users\jrdia\AppData\Local\Temp\ccFTvYyK.s 			page 124


 5265 198e 6F430000 		.4byte	.LASF385
 5266 1992 03       		.byte	0x3
 5267 1993 5501     		.2byte	0x155
 5268 1995 B9210000 		.4byte	.LASF386
 5269 1999 01       		.byte	0x1
 5270 199a A2190000 		.4byte	0x19a2
 5271 199e B2190000 		.4byte	0x19b2
 5272 19a2 23       		.uleb128 0x23
 5273 19a3 821C0000 		.4byte	0x1c82
 5274 19a7 15       		.uleb128 0x15
 5275 19a8 AD000000 		.4byte	0xad
 5276 19ac 15       		.uleb128 0x15
 5277 19ad AD000000 		.4byte	0xad
 5278 19b1 00       		.byte	0
 5279 19b2 25       		.uleb128 0x25
 5280 19b3 AA430000 		.4byte	.LASF387
 5281 19b7 03       		.byte	0x3
 5282 19b8 6201     		.2byte	0x162
 5283 19ba D20C0000 		.4byte	.LASF388
 5284 19be 02       		.byte	0x2
 5285 19bf C7190000 		.4byte	0x19c7
 5286 19c3 D7190000 		.4byte	0x19d7
 5287 19c7 23       		.uleb128 0x23
 5288 19c8 821C0000 		.4byte	0x1c82
 5289 19cc 15       		.uleb128 0x15
 5290 19cd AD000000 		.4byte	0xad
 5291 19d1 15       		.uleb128 0x15
 5292 19d2 19070000 		.4byte	0x719
 5293 19d6 00       		.byte	0
 5294 19d7 25       		.uleb128 0x25
 5295 19d8 BC090000 		.4byte	.LASF389
 5296 19dc 03       		.byte	0x3
 5297 19dd 6501     		.2byte	0x165
 5298 19df 8A150000 		.4byte	.LASF390
 5299 19e3 02       		.byte	0x2
 5300 19e4 EC190000 		.4byte	0x19ec
 5301 19e8 F2190000 		.4byte	0x19f2
 5302 19ec 23       		.uleb128 0x23
 5303 19ed 821C0000 		.4byte	0x1c82
 5304 19f1 00       		.byte	0
 5305 19f2 45       		.uleb128 0x45
 5306 19f3 CF4A0000 		.4byte	.LASF326
 5307 19f7 03       		.byte	0x3
 5308 19f8 6B01     		.2byte	0x16b
 5309 19fa C9430000 		.4byte	.LASF414
 5310 19fe 01       		.byte	0x1
 5311 19ff 02       		.uleb128 0x2
 5312 1a00 10       		.byte	0x10
 5313 1a01 00       		.uleb128 0
 5314 1a02 04160000 		.4byte	0x1604
 5315 1a06 02       		.byte	0x2
 5316 1a07 0F1A0000 		.4byte	0x1a0f
 5317 1a0b 1A1A0000 		.4byte	0x1a1a
 5318 1a0f 23       		.uleb128 0x23
 5319 1a10 821C0000 		.4byte	0x1c82
 5320 1a14 15       		.uleb128 0x15
 5321 1a15 9F1A0000 		.4byte	0x1a9f
ARM GAS  C:\Users\jrdia\AppData\Local\Temp\ccFTvYyK.s 			page 125


 5322 1a19 00       		.byte	0
 5323 1a1a 2C       		.uleb128 0x2c
 5324 1a1b 672B0000 		.4byte	.LASF391
 5325 1a1f 03       		.byte	0x3
 5326 1a20 6E01     		.2byte	0x16e
 5327 1a22 AB590000 		.4byte	.LASF392
 5328 1a26 1C010000 		.4byte	0x11c
 5329 1a2a 2E1A0000 		.4byte	0x1a2e
 5330 1a2e 23       		.uleb128 0x23
 5331 1a2f 821C0000 		.4byte	0x1c82
 5332 1a33 15       		.uleb128 0x15
 5333 1a34 740F0000 		.4byte	0xf74
 5334 1a38 00       		.byte	0
 5335 1a39 00       		.byte	0
 5336 1a3a 06       		.uleb128 0x6
 5337 1a3b 04       		.byte	0x4
 5338 1a3c 6F140000 		.4byte	0x146f
 5339 1a40 37       		.uleb128 0x37
 5340 1a41 04       		.byte	0x4
 5341 1a42 461A0000 		.4byte	0x1a46
 5342 1a46 09       		.uleb128 0x9
 5343 1a47 6F140000 		.4byte	0x146f
 5344 1a4b 06       		.uleb128 0x6
 5345 1a4c 04       		.byte	0x4
 5346 1a4d 511A0000 		.4byte	0x1a51
 5347 1a51 46       		.uleb128 0x46
 5348 1a52 42544400 		.ascii	"BTD\000"
 5349 1a56 9F1A0000 		.4byte	0x1a9f
 5350 1a5a 47       		.uleb128 0x47
 5351 1a5b DC5D0000 		.4byte	.LASF393
 5352 1a5f 0E       		.byte	0xe
 5353 1a60 0402     		.2byte	0x204
 5354 1a62 EA0E0000 		.4byte	0xeea
 5355 1a66 02       		.byte	0x2
 5356 1a67 47       		.uleb128 0x47
 5357 1a68 1F380000 		.4byte	.LASF394
 5358 1a6c 0E       		.byte	0xe
 5359 1a6d 0602     		.2byte	0x206
 5360 1a6f EA0E0000 		.4byte	0xeea
 5361 1a73 02       		.byte	0x2
 5362 1a74 47       		.uleb128 0x47
 5363 1a75 CA680000 		.4byte	.LASF395
 5364 1a79 0E       		.byte	0xe
 5365 1a7a 0802     		.2byte	0x208
 5366 1a7c EA0E0000 		.4byte	0xeea
 5367 1a80 02       		.byte	0x2
 5368 1a81 47       		.uleb128 0x47
 5369 1a82 424E0000 		.4byte	.LASF396
 5370 1a86 0E       		.byte	0xe
 5371 1a87 0A02     		.2byte	0x20a
 5372 1a89 EA0E0000 		.4byte	0xeea
 5373 1a8d 02       		.byte	0x2
 5374 1a8e 48       		.uleb128 0x48
 5375 1a8f 73500000 		.4byte	.LASF398
 5376 1a93 DE3E0000 		.4byte	.LASF400
 5377 1a97 0E       		.byte	0xe
 5378 1a98 7901     		.2byte	0x179
ARM GAS  C:\Users\jrdia\AppData\Local\Temp\ccFTvYyK.s 			page 126


 5379 1a9a 73500000 		.4byte	.LASF398
 5380 1a9e 00       		.byte	0
 5381 1a9f 06       		.uleb128 0x6
 5382 1aa0 04       		.byte	0x4
 5383 1aa1 08140000 		.4byte	0x1408
 5384 1aa5 49       		.uleb128 0x49
 5385 1aa6 73200000 		.4byte	.LASF401
 5386 1aaa 18       		.byte	0x18
 5387 1aab 0E       		.byte	0xe
 5388 1aac 3602     		.2byte	0x236
 5389 1aae A51A0000 		.4byte	0x1aa5
 5390 1ab2 671C0000 		.4byte	0x1c67
 5391 1ab6 32       		.uleb128 0x32
 5392 1ab7 F2550000 		.4byte	.LASF402
 5393 1abb 721C0000 		.4byte	0x1c72
 5394 1abf 00       		.byte	0
 5395 1ac0 01       		.byte	0x1
 5396 1ac1 4A       		.uleb128 0x4a
 5397 1ac2 A9480000 		.4byte	.LASF404
 5398 1ac6 0E       		.byte	0xe
 5399 1ac7 5E02     		.2byte	0x25e
 5400 1ac9 FA000000 		.4byte	0xfa
 5401 1acd 04       		.byte	0x4
 5402 1ace 02       		.byte	0x2
 5403 1acf 4A       		.uleb128 0x4a
 5404 1ad0 EF3D0000 		.4byte	.LASF405
 5405 1ad4 0E       		.byte	0xe
 5406 1ad5 6102     		.2byte	0x261
 5407 1ad7 4B1A0000 		.4byte	0x1a4b
 5408 1adb 08       		.byte	0x8
 5409 1adc 02       		.byte	0x2
 5410 1add 4A       		.uleb128 0x4a
 5411 1ade 0F320000 		.4byte	.LASF406
 5412 1ae2 0E       		.byte	0xe
 5413 1ae3 6402     		.2byte	0x264
 5414 1ae5 C3000000 		.4byte	0xc3
 5415 1ae9 0C       		.byte	0xc
 5416 1aea 02       		.byte	0x2
 5417 1aeb 4A       		.uleb128 0x4a
 5418 1aec BD110000 		.4byte	.LASF407
 5419 1af0 0E       		.byte	0xe
 5420 1af1 6702     		.2byte	0x267
 5421 1af3 CE000000 		.4byte	0xce
 5422 1af7 10       		.byte	0x10
 5423 1af8 02       		.byte	0x2
 5424 1af9 4A       		.uleb128 0x4a
 5425 1afa F6260000 		.4byte	.LASF408
 5426 1afe 0E       		.byte	0xe
 5427 1aff 6A02     		.2byte	0x26a
 5428 1b01 AD000000 		.4byte	0xad
 5429 1b05 14       		.byte	0x14
 5430 1b06 02       		.byte	0x2
 5431 1b07 33       		.uleb128 0x33
 5432 1b08 972A0000 		.4byte	.LASF409
 5433 1b0c E1590000 		.4byte	.LASF410
 5434 1b10 08010000 		.4byte	0x108
 5435 1b14 01       		.byte	0x1
ARM GAS  C:\Users\jrdia\AppData\Local\Temp\ccFTvYyK.s 			page 127


 5436 1b15 1D1B0000 		.4byte	0x1b1d
 5437 1b19 281B0000 		.4byte	0x1b28
 5438 1b1d 23       		.uleb128 0x23
 5439 1b1e 931C0000 		.4byte	0x1c93
 5440 1b22 23       		.uleb128 0x23
 5441 1b23 94000000 		.4byte	0x94
 5442 1b27 00       		.byte	0
 5443 1b28 33       		.uleb128 0x33
 5444 1b29 73200000 		.4byte	.LASF401
 5445 1b2d 9F030000 		.4byte	.LASF411
 5446 1b31 931C0000 		.4byte	0x1c93
 5447 1b35 01       		.byte	0x1
 5448 1b36 3E1B0000 		.4byte	0x1b3e
 5449 1b3a 491B0000 		.4byte	0x1b49
 5450 1b3e 23       		.uleb128 0x23
 5451 1b3f 931C0000 		.4byte	0x1c93
 5452 1b43 15       		.uleb128 0x15
 5453 1b44 991C0000 		.4byte	0x1c99
 5454 1b48 00       		.byte	0
 5455 1b49 26       		.uleb128 0x26
 5456 1b4a 73200000 		.4byte	.LASF401
 5457 1b4e 0E       		.byte	0xe
 5458 1b4f 3802     		.2byte	0x238
 5459 1b51 57570000 		.4byte	.LASF412
 5460 1b55 931C0000 		.4byte	0x1c93
 5461 1b59 01       		.byte	0x1
 5462 1b5a 621B0000 		.4byte	0x1b62
 5463 1b5e 6D1B0000 		.4byte	0x1b6d
 5464 1b62 23       		.uleb128 0x23
 5465 1b63 931C0000 		.4byte	0x1c93
 5466 1b67 15       		.uleb128 0x15
 5467 1b68 4B1A0000 		.4byte	0x1a4b
 5468 1b6c 00       		.byte	0
 5469 1b6d 45       		.uleb128 0x45
 5470 1b6e 64520000 		.4byte	.LASF413
 5471 1b72 0E       		.byte	0xe
 5472 1b73 4002     		.2byte	0x240
 5473 1b75 993E0000 		.4byte	.LASF415
 5474 1b79 01       		.byte	0x1
 5475 1b7a 02       		.uleb128 0x2
 5476 1b7b 10       		.byte	0x10
 5477 1b7c 00       		.uleb128 0
 5478 1b7d A51A0000 		.4byte	0x1aa5
 5479 1b81 01       		.byte	0x1
 5480 1b82 8A1B0000 		.4byte	0x1b8a
 5481 1b86 951B0000 		.4byte	0x1b95
 5482 1b8a 23       		.uleb128 0x23
 5483 1b8b 931C0000 		.4byte	0x1c93
 5484 1b8f 15       		.uleb128 0x15
 5485 1b90 19070000 		.4byte	0x719
 5486 1b94 00       		.byte	0
 5487 1b95 4B       		.uleb128 0x4b
 5488 1b96 52756E00 		.ascii	"Run\000"
 5489 1b9a 0E       		.byte	0xe
 5490 1b9b 4202     		.2byte	0x242
 5491 1b9d F5440000 		.4byte	.LASF1332
 5492 1ba1 01       		.byte	0x1
ARM GAS  C:\Users\jrdia\AppData\Local\Temp\ccFTvYyK.s 			page 128


 5493 1ba2 02       		.uleb128 0x2
 5494 1ba3 10       		.byte	0x10
 5495 1ba4 01       		.uleb128 0x1
 5496 1ba5 A51A0000 		.4byte	0x1aa5
 5497 1ba9 01       		.byte	0x1
 5498 1baa B21B0000 		.4byte	0x1bb2
 5499 1bae B81B0000 		.4byte	0x1bb8
 5500 1bb2 23       		.uleb128 0x23
 5501 1bb3 931C0000 		.4byte	0x1c93
 5502 1bb7 00       		.byte	0
 5503 1bb8 45       		.uleb128 0x45
 5504 1bb9 BC090000 		.4byte	.LASF389
 5505 1bbd 0E       		.byte	0xe
 5506 1bbe 4402     		.2byte	0x244
 5507 1bc0 86610000 		.4byte	.LASF416
 5508 1bc4 01       		.byte	0x1
 5509 1bc5 02       		.uleb128 0x2
 5510 1bc6 10       		.byte	0x10
 5511 1bc7 02       		.uleb128 0x2
 5512 1bc8 A51A0000 		.4byte	0x1aa5
 5513 1bcc 01       		.byte	0x1
 5514 1bcd D51B0000 		.4byte	0x1bd5
 5515 1bd1 DB1B0000 		.4byte	0x1bdb
 5516 1bd5 23       		.uleb128 0x23
 5517 1bd6 931C0000 		.4byte	0x1c93
 5518 1bda 00       		.byte	0
 5519 1bdb 45       		.uleb128 0x45
 5520 1bdc 9C360000 		.4byte	.LASF399
 5521 1be0 0E       		.byte	0xe
 5522 1be1 4602     		.2byte	0x246
 5523 1be3 04640000 		.4byte	.LASF417
 5524 1be7 01       		.byte	0x1
 5525 1be8 02       		.uleb128 0x2
 5526 1be9 10       		.byte	0x10
 5527 1bea 03       		.uleb128 0x3
 5528 1beb A51A0000 		.4byte	0x1aa5
 5529 1bef 01       		.byte	0x1
 5530 1bf0 F81B0000 		.4byte	0x1bf8
 5531 1bf4 FE1B0000 		.4byte	0x1bfe
 5532 1bf8 23       		.uleb128 0x23
 5533 1bf9 931C0000 		.4byte	0x1c93
 5534 1bfd 00       		.byte	0
 5535 1bfe 25       		.uleb128 0x25
 5536 1bff 1D0B0000 		.4byte	.LASF418
 5537 1c03 0E       		.byte	0xe
 5538 1c04 4C02     		.2byte	0x24c
 5539 1c06 F3130000 		.4byte	.LASF419
 5540 1c0a 01       		.byte	0x1
 5541 1c0b 131C0000 		.4byte	0x1c13
 5542 1c0f 1E1C0000 		.4byte	0x1c1e
 5543 1c13 23       		.uleb128 0x23
 5544 1c14 931C0000 		.4byte	0x1c93
 5545 1c18 15       		.uleb128 0x15
 5546 1c19 FA000000 		.4byte	0xfa
 5547 1c1d 00       		.byte	0
 5548 1c1e 45       		.uleb128 0x45
 5549 1c1f 88630000 		.4byte	.LASF332
ARM GAS  C:\Users\jrdia\AppData\Local\Temp\ccFTvYyK.s 			page 129


 5550 1c23 0E       		.byte	0xe
 5551 1c24 5602     		.2byte	0x256
 5552 1c26 13300000 		.4byte	.LASF420
 5553 1c2a 01       		.byte	0x1
 5554 1c2b 02       		.uleb128 0x2
 5555 1c2c 10       		.byte	0x10
 5556 1c2d 04       		.uleb128 0x4
 5557 1c2e A51A0000 		.4byte	0x1aa5
 5558 1c32 02       		.byte	0x2
 5559 1c33 3B1C0000 		.4byte	0x1c3b
 5560 1c37 411C0000 		.4byte	0x1c41
 5561 1c3b 23       		.uleb128 0x23
 5562 1c3c 931C0000 		.4byte	0x1c93
 5563 1c40 00       		.byte	0
 5564 1c41 4C       		.uleb128 0x4c
 5565 1c42 082C0000 		.4byte	.LASF421
 5566 1c46 0E       		.byte	0xe
 5567 1c47 5902     		.2byte	0x259
 5568 1c49 C9360000 		.4byte	.LASF422
 5569 1c4d 1C010000 		.4byte	0x11c
 5570 1c51 02       		.byte	0x2
 5571 1c52 561C0000 		.4byte	0x1c56
 5572 1c56 23       		.uleb128 0x23
 5573 1c57 931C0000 		.4byte	0x1c93
 5574 1c5b 15       		.uleb128 0x15
 5575 1c5c 19070000 		.4byte	0x719
 5576 1c60 15       		.uleb128 0x15
 5577 1c61 C3000000 		.4byte	0xc3
 5578 1c65 00       		.byte	0
 5579 1c66 00       		.byte	0
 5580 1c67 4D       		.uleb128 0x4d
 5581 1c68 94000000 		.4byte	0x94
 5582 1c6c 721C0000 		.4byte	0x1c72
 5583 1c70 4E       		.uleb128 0x4e
 5584 1c71 00       		.byte	0
 5585 1c72 06       		.uleb128 0x6
 5586 1c73 04       		.byte	0x4
 5587 1c74 781C0000 		.4byte	0x1c78
 5588 1c78 4F       		.uleb128 0x4f
 5589 1c79 04       		.byte	0x4
 5590 1c7a 6A510000 		.4byte	.LASF1333
 5591 1c7e 671C0000 		.4byte	0x1c67
 5592 1c82 06       		.uleb128 0x6
 5593 1c83 04       		.byte	0x4
 5594 1c84 04160000 		.4byte	0x1604
 5595 1c88 37       		.uleb128 0x37
 5596 1c89 04       		.byte	0x4
 5597 1c8a 8E1C0000 		.4byte	0x1c8e
 5598 1c8e 09       		.uleb128 0x9
 5599 1c8f 04160000 		.4byte	0x1604
 5600 1c93 06       		.uleb128 0x6
 5601 1c94 04       		.byte	0x4
 5602 1c95 A51A0000 		.4byte	0x1aa5
 5603 1c99 37       		.uleb128 0x37
 5604 1c9a 04       		.byte	0x4
 5605 1c9b 9F1C0000 		.4byte	0x1c9f
 5606 1c9f 09       		.uleb128 0x9
ARM GAS  C:\Users\jrdia\AppData\Local\Temp\ccFTvYyK.s 			page 130


 5607 1ca0 A51A0000 		.4byte	0x1aa5
 5608 1ca4 37       		.uleb128 0x37
 5609 1ca5 04       		.byte	0x4
 5610 1ca6 AA1C0000 		.4byte	0x1caa
 5611 1caa 09       		.uleb128 0x9
 5612 1cab C30C0000 		.4byte	0xcc3
 5613 1caf 50       		.uleb128 0x50
 5614 1cb0 03190000 		.4byte	0x1903
 5615 1cb4 03       		.byte	0x3
 5616 1cb5 BD1C0000 		.4byte	0x1cbd
 5617 1cb9 DF1C0000 		.4byte	0x1cdf
 5618 1cbd 51       		.uleb128 0x51
 5619 1cbe A02F0000 		.4byte	.LASF423
 5620 1cc2 DF1C0000 		.4byte	0x1cdf
 5621 1cc6 52       		.uleb128 0x52
 5622 1cc7 F5430000 		.4byte	.LASF310
 5623 1ccb 03       		.byte	0x3
 5624 1ccc 3201     		.2byte	0x132
 5625 1cce AD000000 		.4byte	0xad
 5626 1cd2 52       		.uleb128 0x52
 5627 1cd3 CF550000 		.4byte	.LASF311
 5628 1cd7 03       		.byte	0x3
 5629 1cd8 3201     		.2byte	0x132
 5630 1cda AD000000 		.4byte	0xad
 5631 1cde 00       		.byte	0
 5632 1cdf 09       		.uleb128 0x9
 5633 1ce0 821C0000 		.4byte	0x1c82
 5634 1ce4 50       		.uleb128 0x50
 5635 1ce5 43190000 		.4byte	0x1943
 5636 1ce9 03       		.byte	0x3
 5637 1cea F21C0000 		.4byte	0x1cf2
 5638 1cee 1A1D0000 		.4byte	0x1d1a
 5639 1cf2 51       		.uleb128 0x51
 5640 1cf3 A02F0000 		.4byte	.LASF423
 5641 1cf7 DF1C0000 		.4byte	0x1cdf
 5642 1cfb 53       		.uleb128 0x53
 5643 1cfc 7200     		.ascii	"r\000"
 5644 1cfe 03       		.byte	0x3
 5645 1cff 4101     		.2byte	0x141
 5646 1d01 AD000000 		.4byte	0xad
 5647 1d05 53       		.uleb128 0x53
 5648 1d06 6700     		.ascii	"g\000"
 5649 1d08 03       		.byte	0x3
 5650 1d09 4101     		.2byte	0x141
 5651 1d0b AD000000 		.4byte	0xad
 5652 1d0f 53       		.uleb128 0x53
 5653 1d10 6200     		.ascii	"b\000"
 5654 1d12 03       		.byte	0x3
 5655 1d13 4101     		.2byte	0x141
 5656 1d15 AD000000 		.4byte	0xad
 5657 1d19 00       		.byte	0
 5658 1d1a 50       		.uleb128 0x50
 5659 1d1b A2160000 		.4byte	0x16a2
 5660 1d1f 03       		.byte	0x3
 5661 1d20 281D0000 		.4byte	0x1d28
 5662 1d24 321D0000 		.4byte	0x1d32
 5663 1d28 51       		.uleb128 0x51
ARM GAS  C:\Users\jrdia\AppData\Local\Temp\ccFTvYyK.s 			page 131


 5664 1d29 A02F0000 		.4byte	.LASF423
 5665 1d2d DF1C0000 		.4byte	0x1cdf
 5666 1d31 00       		.byte	0
 5667 1d32 50       		.uleb128 0x50
 5668 1d33 DB140000 		.4byte	0x14db
 5669 1d37 03       		.byte	0x3
 5670 1d38 401D0000 		.4byte	0x1d40
 5671 1d3c 4A1D0000 		.4byte	0x1d4a
 5672 1d40 51       		.uleb128 0x51
 5673 1d41 A02F0000 		.4byte	.LASF423
 5674 1d45 4A1D0000 		.4byte	0x1d4a
 5675 1d49 00       		.byte	0
 5676 1d4a 09       		.uleb128 0x9
 5677 1d4b 3A1A0000 		.4byte	0x1a3a
 5678 1d4f 50       		.uleb128 0x50
 5679 1d50 A9150000 		.4byte	0x15a9
 5680 1d54 03       		.byte	0x3
 5681 1d55 5D1D0000 		.4byte	0x1d5d
 5682 1d59 7D1D0000 		.4byte	0x1d7d
 5683 1d5d 51       		.uleb128 0x51
 5684 1d5e A02F0000 		.4byte	.LASF423
 5685 1d62 4A1D0000 		.4byte	0x1d4a
 5686 1d66 54       		.uleb128 0x54
 5687 1d67 A2540000 		.4byte	.LASF424
 5688 1d6b 02       		.byte	0x2
 5689 1d6c 75       		.byte	0x75
 5690 1d6d 19070000 		.4byte	0x719
 5691 1d71 54       		.uleb128 0x54
 5692 1d72 B52D0000 		.4byte	.LASF425
 5693 1d76 02       		.byte	0x2
 5694 1d77 75       		.byte	0x75
 5695 1d78 AD000000 		.4byte	0xad
 5696 1d7c 00       		.byte	0
 5697 1d7d 50       		.uleb128 0x50
 5698 1d7e 6D190000 		.4byte	0x196d
 5699 1d82 03       		.byte	0x3
 5700 1d83 8B1D0000 		.4byte	0x1d8b
 5701 1d87 A11D0000 		.4byte	0x1da1
 5702 1d8b 51       		.uleb128 0x51
 5703 1d8c A02F0000 		.4byte	.LASF423
 5704 1d90 DF1C0000 		.4byte	0x1cdf
 5705 1d94 52       		.uleb128 0x52
 5706 1d95 0D4B0000 		.4byte	.LASF426
 5707 1d99 03       		.byte	0x3
 5708 1d9a 4C01     		.2byte	0x14c
 5709 1d9c FF0E0000 		.4byte	0xeff
 5710 1da0 00       		.byte	0
 5711 1da1 50       		.uleb128 0x50
 5712 1da2 08050000 		.4byte	0x508
 5713 1da6 01       		.byte	0x1
 5714 1da7 AF1D0000 		.4byte	0x1daf
 5715 1dab CF1D0000 		.4byte	0x1dcf
 5716 1daf 51       		.uleb128 0x51
 5717 1db0 A02F0000 		.4byte	.LASF423
 5718 1db4 CF1D0000 		.4byte	0x1dcf
 5719 1db8 55       		.uleb128 0x55
 5720 1db9 72656700 		.ascii	"reg\000"
ARM GAS  C:\Users\jrdia\AppData\Local\Temp\ccFTvYyK.s 			page 132


 5721 1dbd 04       		.byte	0x4
 5722 1dbe AD       		.byte	0xad
 5723 1dbf AD000000 		.4byte	0xad
 5724 1dc3 54       		.uleb128 0x54
 5725 1dc4 A2540000 		.4byte	.LASF424
 5726 1dc8 04       		.byte	0x4
 5727 1dc9 AD       		.byte	0xad
 5728 1dca AD000000 		.4byte	0xad
 5729 1dce 00       		.byte	0
 5730 1dcf 09       		.uleb128 0x9
 5731 1dd0 13070000 		.4byte	0x713
 5732 1dd4 50       		.uleb128 0x50
 5733 1dd5 79050000 		.4byte	0x579
 5734 1dd9 01       		.byte	0x1
 5735 1dda E21D0000 		.4byte	0x1de2
 5736 1dde 0F1E0000 		.4byte	0x1e0f
 5737 1de2 51       		.uleb128 0x51
 5738 1de3 A02F0000 		.4byte	.LASF423
 5739 1de7 CF1D0000 		.4byte	0x1dcf
 5740 1deb 53       		.uleb128 0x53
 5741 1dec 72656700 		.ascii	"reg\000"
 5742 1df0 04       		.byte	0x4
 5743 1df1 3501     		.2byte	0x135
 5744 1df3 AD000000 		.4byte	0xad
 5745 1df7 56       		.uleb128 0x56
 5746 1df8 A2540000 		.4byte	.LASF424
 5747 1dfc 04       		.byte	0x4
 5748 1dfd 4301     		.2byte	0x143
 5749 1dff 94000000 		.4byte	0x94
 5750 1e03 57       		.uleb128 0x57
 5751 1e04 727600   		.ascii	"rv\000"
 5752 1e07 04       		.byte	0x4
 5753 1e08 4C01     		.2byte	0x14c
 5754 1e0a AD000000 		.4byte	0xad
 5755 1e0e 00       		.byte	0
 5756 1e0f 50       		.uleb128 0x50
 5757 1e10 EA050000 		.4byte	0x5ea
 5758 1e14 01       		.byte	0x1
 5759 1e15 1D1E0000 		.4byte	0x1e1d
 5760 1e19 311E0000 		.4byte	0x1e31
 5761 1e1d 51       		.uleb128 0x51
 5762 1e1e A02F0000 		.4byte	.LASF423
 5763 1e22 CF1D0000 		.4byte	0x1dcf
 5764 1e26 57       		.uleb128 0x57
 5765 1e27 6900     		.ascii	"i\000"
 5766 1e29 04       		.byte	0x4
 5767 1e2a DA01     		.2byte	0x1da
 5768 1e2c C3000000 		.4byte	0xc3
 5769 1e30 00       		.byte	0
 5770 1e31 50       		.uleb128 0x50
 5771 1e32 89060000 		.4byte	0x689
 5772 1e36 01       		.byte	0x1
 5773 1e37 3F1E0000 		.4byte	0x1e3f
 5774 1e3b 551E0000 		.4byte	0x1e55
 5775 1e3f 51       		.uleb128 0x51
 5776 1e40 A02F0000 		.4byte	.LASF423
 5777 1e44 CF1D0000 		.4byte	0x1dcf
ARM GAS  C:\Users\jrdia\AppData\Local\Temp\ccFTvYyK.s 			page 133


 5778 1e48 56       		.uleb128 0x56
 5779 1e49 1B280000 		.4byte	.LASF427
 5780 1e4d 04       		.byte	0x4
 5781 1e4e 3C02     		.2byte	0x23c
 5782 1e50 AD000000 		.4byte	0xad
 5783 1e54 00       		.byte	0
 5784 1e55 58       		.uleb128 0x58
 5785 1e56 57030000 		.4byte	0x357
 5786 1e5a 03       		.byte	0x3
 5787 1e5b 6B1E0000 		.4byte	0x1e6b
 5788 1e5f 54       		.uleb128 0x54
 5789 1e60 162E0000 		.4byte	.LASF428
 5790 1e64 06       		.byte	0x6
 5791 1e65 85       		.byte	0x85
 5792 1e66 A2020000 		.4byte	0x2a2
 5793 1e6a 00       		.byte	0
 5794 1e6b 58       		.uleb128 0x58
 5795 1e6c 15030000 		.4byte	0x315
 5796 1e70 03       		.byte	0x3
 5797 1e71 811E0000 		.4byte	0x1e81
 5798 1e75 54       		.uleb128 0x54
 5799 1e76 162E0000 		.4byte	.LASF428
 5800 1e7a 06       		.byte	0x6
 5801 1e7b 85       		.byte	0x85
 5802 1e7c A2020000 		.4byte	0x2a2
 5803 1e80 00       		.byte	0
 5804 1e81 59       		.uleb128 0x59
 5805 1e82 BB030000 		.4byte	0x3bb
 5806 1e86 03       		.byte	0x3
 5807 1e87 59       		.uleb128 0x59
 5808 1e88 17040000 		.4byte	0x417
 5809 1e8c 03       		.byte	0x3
 5810 1e8d 59       		.uleb128 0x59
 5811 1e8e 7A040000 		.4byte	0x47a
 5812 1e92 03       		.byte	0x3
 5813 1e93 50       		.uleb128 0x50
 5814 1e94 09060000 		.4byte	0x609
 5815 1e98 01       		.byte	0x1
 5816 1e99 A11E0000 		.4byte	0x1ea1
 5817 1e9d AB1E0000 		.4byte	0x1eab
 5818 1ea1 51       		.uleb128 0x51
 5819 1ea2 A02F0000 		.4byte	.LASF423
 5820 1ea6 CF1D0000 		.4byte	0x1dcf
 5821 1eaa 00       		.byte	0
 5822 1eab 50       		.uleb128 0x50
 5823 1eac E3180000 		.4byte	0x18e3
 5824 1eb0 03       		.byte	0x3
 5825 1eb1 B91E0000 		.4byte	0x1eb9
 5826 1eb5 CF1E0000 		.4byte	0x1ecf
 5827 1eb9 51       		.uleb128 0x51
 5828 1eba A02F0000 		.4byte	.LASF423
 5829 1ebe DF1C0000 		.4byte	0x1cdf
 5830 1ec2 52       		.uleb128 0x52
 5831 1ec3 E1170000 		.4byte	.LASF429
 5832 1ec7 03       		.byte	0x3
 5833 1ec8 2601     		.2byte	0x126
 5834 1eca 570F0000 		.4byte	0xf57
ARM GAS  C:\Users\jrdia\AppData\Local\Temp\ccFTvYyK.s 			page 134


 5835 1ece 00       		.byte	0
 5836 1ecf 50       		.uleb128 0x50
 5837 1ed0 8D190000 		.4byte	0x198d
 5838 1ed4 03       		.byte	0x3
 5839 1ed5 DD1E0000 		.4byte	0x1edd
 5840 1ed9 FF1E0000 		.4byte	0x1eff
 5841 1edd 51       		.uleb128 0x51
 5842 1ede A02F0000 		.4byte	.LASF423
 5843 1ee2 DF1C0000 		.4byte	0x1cdf
 5844 1ee6 52       		.uleb128 0x52
 5845 1ee7 AA630000 		.4byte	.LASF312
 5846 1eeb 03       		.byte	0x3
 5847 1eec 5501     		.2byte	0x155
 5848 1eee AD000000 		.4byte	0xad
 5849 1ef2 52       		.uleb128 0x52
 5850 1ef3 D1470000 		.4byte	.LASF313
 5851 1ef7 03       		.byte	0x3
 5852 1ef8 5501     		.2byte	0x155
 5853 1efa AD000000 		.4byte	0xad
 5854 1efe 00       		.byte	0
 5855 1eff 50       		.uleb128 0x50
 5856 1f00 9C170000 		.4byte	0x179c
 5857 1f04 03       		.byte	0x3
 5858 1f05 0D1F0000 		.4byte	0x1f0d
 5859 1f09 2D1F0000 		.4byte	0x1f2d
 5860 1f0d 51       		.uleb128 0x51
 5861 1f0e A02F0000 		.4byte	.LASF423
 5862 1f12 DF1C0000 		.4byte	0x1cdf
 5863 1f16 54       		.uleb128 0x54
 5864 1f17 EB1F0000 		.4byte	.LASF292
 5865 1f1b 03       		.byte	0x3
 5866 1f1c C3       		.byte	0xc3
 5867 1f1d AD000000 		.4byte	0xad
 5868 1f21 54       		.uleb128 0x54
 5869 1f22 82340000 		.4byte	.LASF430
 5870 1f26 03       		.byte	0x3
 5871 1f27 C3       		.byte	0xc3
 5872 1f28 AD000000 		.4byte	0xad
 5873 1f2c 00       		.byte	0
 5874 1f2d 50       		.uleb128 0x50
 5875 1f2e 74170000 		.4byte	0x1774
 5876 1f32 03       		.byte	0x3
 5877 1f33 3B1F0000 		.4byte	0x1f3b
 5878 1f37 5B1F0000 		.4byte	0x1f5b
 5879 1f3b 51       		.uleb128 0x51
 5880 1f3c A02F0000 		.4byte	.LASF423
 5881 1f40 DF1C0000 		.4byte	0x1cdf
 5882 1f44 54       		.uleb128 0x54
 5883 1f45 EB1F0000 		.4byte	.LASF292
 5884 1f49 03       		.byte	0x3
 5885 1f4a B7       		.byte	0xb7
 5886 1f4b AD000000 		.4byte	0xad
 5887 1f4f 54       		.uleb128 0x54
 5888 1f50 82340000 		.4byte	.LASF430
 5889 1f54 03       		.byte	0x3
 5890 1f55 B7       		.byte	0xb7
 5891 1f56 AD000000 		.4byte	0xad
ARM GAS  C:\Users\jrdia\AppData\Local\Temp\ccFTvYyK.s 			page 135


 5892 1f5a 00       		.byte	0
 5893 1f5b 50       		.uleb128 0x50
 5894 1f5c 4C170000 		.4byte	0x174c
 5895 1f60 03       		.byte	0x3
 5896 1f61 691F0000 		.4byte	0x1f69
 5897 1f65 891F0000 		.4byte	0x1f89
 5898 1f69 51       		.uleb128 0x51
 5899 1f6a A02F0000 		.4byte	.LASF423
 5900 1f6e DF1C0000 		.4byte	0x1cdf
 5901 1f72 54       		.uleb128 0x54
 5902 1f73 EB1F0000 		.4byte	.LASF292
 5903 1f77 03       		.byte	0x3
 5904 1f78 AB       		.byte	0xab
 5905 1f79 AD000000 		.4byte	0xad
 5906 1f7d 54       		.uleb128 0x54
 5907 1f7e 82340000 		.4byte	.LASF430
 5908 1f82 03       		.byte	0x3
 5909 1f83 AB       		.byte	0xab
 5910 1f84 AD000000 		.4byte	0xad
 5911 1f88 00       		.byte	0
 5912 1f89 5A       		.uleb128 0x5a
 5913 1f8a 5A490000 		.4byte	.LASF1334
 5914 1f8e 01       		.byte	0x1
 5915 1f8f AA1F0000 		.4byte	0x1faa
 5916 1f93 54       		.uleb128 0x54
 5917 1f94 1F130000 		.4byte	.LASF431
 5918 1f98 05       		.byte	0x5
 5919 1f99 D6       		.byte	0xd6
 5920 1f9a 94000000 		.4byte	0x94
 5921 1f9e 54       		.uleb128 0x54
 5922 1f9f 2F1E0000 		.4byte	.LASF432
 5923 1fa3 05       		.byte	0x5
 5924 1fa4 D6       		.byte	0xd6
 5925 1fa5 94000000 		.4byte	0x94
 5926 1fa9 00       		.byte	0
 5927 1faa 06       		.uleb128 0x6
 5928 1fab 04       		.byte	0x4
 5929 1fac C9150000 		.4byte	0x15c9
 5930 1fb0 5B       		.uleb128 0x5b
 5931 1fb1 D2150000 		.4byte	0x15d2
 5932 1fb5 00000000 		.4byte	.LFB276
 5933 1fb9 16000000 		.4byte	.LFE276-.LFB276
 5934 1fbd 01       		.uleb128 0x1
 5935 1fbe 9C       		.byte	0x9c
 5936 1fbf C71F0000 		.4byte	0x1fc7
 5937 1fc3 E11F0000 		.4byte	0x1fe1
 5938 1fc7 5C       		.uleb128 0x5c
 5939 1fc8 A02F0000 		.4byte	.LASF423
 5940 1fcc E11F0000 		.4byte	0x1fe1
 5941 1fd0 00000000 		.4byte	.LLST0
 5942 1fd4 5D       		.uleb128 0x5d
 5943 1fd5 14000000 		.4byte	.LVL2
 5944 1fd9 5E       		.uleb128 0x5e
 5945 1fda 01       		.uleb128 0x1
 5946 1fdb 50       		.byte	0x50
 5947 1fdc 02       		.uleb128 0x2
 5948 1fdd 74       		.byte	0x74
ARM GAS  C:\Users\jrdia\AppData\Local\Temp\ccFTvYyK.s 			page 136


 5949 1fde 00       		.sleb128 0
 5950 1fdf 00       		.byte	0
 5951 1fe0 00       		.byte	0
 5952 1fe1 09       		.uleb128 0x9
 5953 1fe2 AA1F0000 		.4byte	0x1faa
 5954 1fe6 5F       		.uleb128 0x5f
 5955 1fe7 47150000 		.4byte	0x1547
 5956 1feb 00000000 		.4byte	.LFB307
 5957 1fef 0A000000 		.4byte	.LFE307-.LFB307
 5958 1ff3 01       		.uleb128 0x1
 5959 1ff4 9C       		.byte	0x9c
 5960 1ff5 FD1F0000 		.4byte	0x1ffd
 5961 1ff9 1E200000 		.4byte	0x201e
 5962 1ffd 5C       		.uleb128 0x5c
 5963 1ffe A02F0000 		.4byte	.LASF423
 5964 2002 4A1D0000 		.4byte	0x1d4a
 5965 2006 2C000000 		.4byte	.LLST1
 5966 200a 60       		.uleb128 0x60
 5967 200b 08000000 		.4byte	.LVL6
 5968 200f D7190000 		.4byte	0x19d7
 5969 2013 5E       		.uleb128 0x5e
 5970 2014 01       		.uleb128 0x1
 5971 2015 50       		.byte	0x50
 5972 2016 05       		.uleb128 0x5
 5973 2017 F3       		.byte	0xf3
 5974 2018 01       		.uleb128 0x1
 5975 2019 50       		.byte	0x50
 5976 201a 23       		.byte	0x23
 5977 201b 2C       		.uleb128 0x2c
 5978 201c 00       		.byte	0
 5979 201d 00       		.byte	0
 5980 201e 5F       		.uleb128 0x5f
 5981 201f 69150000 		.4byte	0x1569
 5982 2023 00000000 		.4byte	.LFB308
 5983 2027 5C000000 		.4byte	.LFE308-.LFB308
 5984 202b 01       		.uleb128 0x1
 5985 202c 9C       		.byte	0x9c
 5986 202d 35200000 		.4byte	0x2035
 5987 2031 DC200000 		.4byte	0x20dc
 5988 2035 5C       		.uleb128 0x5c
 5989 2036 A02F0000 		.4byte	.LASF423
 5990 203a 4A1D0000 		.4byte	0x1d4a
 5991 203e 5A000000 		.4byte	.LLST2
 5992 2042 61       		.uleb128 0x61
 5993 2043 364F0000 		.4byte	.LASF433
 5994 2047 02       		.byte	0x2
 5995 2048 51       		.byte	0x51
 5996 2049 9F1A0000 		.4byte	0x1a9f
 5997 204d 86000000 		.4byte	.LLST3
 5998 2051 62       		.uleb128 0x62
 5999 2052 62756600 		.ascii	"buf\000"
 6000 2056 02       		.byte	0x2
 6001 2057 52       		.byte	0x52
 6002 2058 DC200000 		.4byte	0x20dc
 6003 205c 03       		.uleb128 0x3
 6004 205d 91       		.byte	0x91
 6005 205e A07F     		.sleb128 -96
ARM GAS  C:\Users\jrdia\AppData\Local\Temp\ccFTvYyK.s 			page 137


 6006 2060 63       		.uleb128 0x63
 6007 2061 4F1D0000 		.4byte	0x1d4f
 6008 2065 26000000 		.4byte	.LBB101
 6009 2069 00000000 		.4byte	.Ldebug_ranges0+0
 6010 206d 02       		.byte	0x2
 6011 206e 68       		.byte	0x68
 6012 206f C0200000 		.4byte	0x20c0
 6013 2073 64       		.uleb128 0x64
 6014 2074 5D1D0000 		.4byte	0x1d5d
 6015 2078 B2000000 		.4byte	.LLST4
 6016 207c 64       		.uleb128 0x64
 6017 207d 5D1D0000 		.4byte	0x1d5d
 6018 2081 D3000000 		.4byte	.LLST5
 6019 2085 64       		.uleb128 0x64
 6020 2086 5D1D0000 		.4byte	0x1d5d
 6021 208a F4000000 		.4byte	.LLST6
 6022 208e 64       		.uleb128 0x64
 6023 208f 5D1D0000 		.4byte	0x1d5d
 6024 2093 15010000 		.4byte	.LLST7
 6025 2097 64       		.uleb128 0x64
 6026 2098 711D0000 		.4byte	0x1d71
 6027 209c 36010000 		.4byte	.LLST8
 6028 20a0 64       		.uleb128 0x64
 6029 20a1 661D0000 		.4byte	0x1d66
 6030 20a5 4B010000 		.4byte	.LLST9
 6031 20a9 60       		.uleb128 0x60
 6032 20aa 58000000 		.4byte	.LVL12
 6033 20ae 8E1A0000 		.4byte	0x1a8e
 6034 20b2 5E       		.uleb128 0x5e
 6035 20b3 01       		.uleb128 0x1
 6036 20b4 52       		.byte	0x52
 6037 20b5 02       		.uleb128 0x2
 6038 20b6 74       		.byte	0x74
 6039 20b7 00       		.sleb128 0
 6040 20b8 5E       		.uleb128 0x5e
 6041 20b9 01       		.uleb128 0x1
 6042 20ba 53       		.byte	0x53
 6043 20bb 02       		.uleb128 0x2
 6044 20bc 08       		.byte	0x8
 6045 20bd 4F       		.byte	0x4f
 6046 20be 00       		.byte	0
 6047 20bf 00       		.byte	0
 6048 20c0 60       		.uleb128 0x60
 6049 20c1 14000000 		.4byte	.LVL10
 6050 20c5 39700000 		.4byte	0x7039
 6051 20c9 5E       		.uleb128 0x5e
 6052 20ca 01       		.uleb128 0x1
 6053 20cb 50       		.byte	0x50
 6054 20cc 02       		.uleb128 0x2
 6055 20cd 74       		.byte	0x74
 6056 20ce 00       		.sleb128 0
 6057 20cf 5E       		.uleb128 0x5e
 6058 20d0 01       		.uleb128 0x1
 6059 20d1 51       		.byte	0x51
 6060 20d2 01       		.uleb128 0x1
 6061 20d3 30       		.byte	0x30
 6062 20d4 5E       		.uleb128 0x5e
ARM GAS  C:\Users\jrdia\AppData\Local\Temp\ccFTvYyK.s 			page 138


 6063 20d5 01       		.uleb128 0x1
 6064 20d6 52       		.byte	0x52
 6065 20d7 02       		.uleb128 0x2
 6066 20d8 08       		.byte	0x8
 6067 20d9 4F       		.byte	0x4f
 6068 20da 00       		.byte	0
 6069 20db 00       		.byte	0
 6070 20dc 2F       		.uleb128 0x2f
 6071 20dd AD000000 		.4byte	0xad
 6072 20e1 EC200000 		.4byte	0x20ec
 6073 20e5 30       		.uleb128 0x30
 6074 20e6 01010000 		.4byte	0x101
 6075 20ea 4E       		.byte	0x4e
 6076 20eb 00       		.byte	0
 6077 20ec 50       		.uleb128 0x50
 6078 20ed 90150000 		.4byte	0x1590
 6079 20f1 03       		.byte	0x3
 6080 20f2 FA200000 		.4byte	0x20fa
 6081 20f6 0F210000 		.4byte	0x210f
 6082 20fa 51       		.uleb128 0x51
 6083 20fb A02F0000 		.4byte	.LASF423
 6084 20ff 4A1D0000 		.4byte	0x1d4a
 6085 2103 65       		.uleb128 0x65
 6086 2104 62756600 		.ascii	"buf\000"
 6087 2108 02       		.byte	0x2
 6088 2109 6E       		.byte	0x6e
 6089 210a D8130000 		.4byte	0x13d8
 6090 210e 00       		.byte	0
 6091 210f 5B       		.uleb128 0x5b
 6092 2110 25150000 		.4byte	0x1525
 6093 2114 00000000 		.4byte	.LFB306
 6094 2118 4C000000 		.4byte	.LFE306-.LFB306
 6095 211c 01       		.uleb128 0x1
 6096 211d 9C       		.byte	0x9c
 6097 211e 26210000 		.4byte	0x2126
 6098 2122 26220000 		.4byte	0x2226
 6099 2126 5C       		.uleb128 0x5c
 6100 2127 A02F0000 		.4byte	.LASF423
 6101 212b 4A1D0000 		.4byte	0x1d4a
 6102 212f 5E010000 		.4byte	.LLST10
 6103 2133 66       		.uleb128 0x66
 6104 2134 EC200000 		.4byte	0x20ec
 6105 2138 0C000000 		.4byte	.LBB116
 6106 213c 1C000000 		.4byte	.LBE116-.LBB116
 6107 2140 02       		.byte	0x2
 6108 2141 43       		.byte	0x43
 6109 2142 BD210000 		.4byte	0x21bd
 6110 2146 64       		.uleb128 0x64
 6111 2147 FA200000 		.4byte	0x20fa
 6112 214b A3010000 		.4byte	.LLST11
 6113 214f 67       		.uleb128 0x67
 6114 2150 0C000000 		.4byte	.LBB117
 6115 2154 1C000000 		.4byte	.LBE117-.LBB117
 6116 2158 68       		.uleb128 0x68
 6117 2159 03210000 		.4byte	0x2103
 6118 215d 02       		.uleb128 0x2
 6119 215e 91       		.byte	0x91
ARM GAS  C:\Users\jrdia\AppData\Local\Temp\ccFTvYyK.s 			page 139


 6120 215f 74       		.sleb128 -12
 6121 2160 69       		.uleb128 0x69
 6122 2161 4F1D0000 		.4byte	0x1d4f
 6123 2165 16000000 		.4byte	.LBB118
 6124 2169 12000000 		.4byte	.LBE118-.LBB118
 6125 216d 02       		.byte	0x2
 6126 216e 72       		.byte	0x72
 6127 216f 64       		.uleb128 0x64
 6128 2170 5D1D0000 		.4byte	0x1d5d
 6129 2174 B6010000 		.4byte	.LLST12
 6130 2178 64       		.uleb128 0x64
 6131 2179 5D1D0000 		.4byte	0x1d5d
 6132 217d F0010000 		.4byte	.LLST13
 6133 2181 64       		.uleb128 0x64
 6134 2182 5D1D0000 		.4byte	0x1d5d
 6135 2186 2A020000 		.4byte	.LLST14
 6136 218a 64       		.uleb128 0x64
 6137 218b 5D1D0000 		.4byte	0x1d5d
 6138 218f 64020000 		.4byte	.LLST15
 6139 2193 64       		.uleb128 0x64
 6140 2194 711D0000 		.4byte	0x1d71
 6141 2198 9E020000 		.4byte	.LLST16
 6142 219c 64       		.uleb128 0x64
 6143 219d 661D0000 		.4byte	0x1d66
 6144 21a1 B2020000 		.4byte	.LLST17
 6145 21a5 60       		.uleb128 0x60
 6146 21a6 28000000 		.4byte	.LVL19
 6147 21aa 8E1A0000 		.4byte	0x1a8e
 6148 21ae 5E       		.uleb128 0x5e
 6149 21af 01       		.uleb128 0x1
 6150 21b0 52       		.byte	0x52
 6151 21b1 02       		.uleb128 0x2
 6152 21b2 91       		.byte	0x91
 6153 21b3 74       		.sleb128 -12
 6154 21b4 5E       		.uleb128 0x5e
 6155 21b5 01       		.uleb128 0x1
 6156 21b6 53       		.byte	0x53
 6157 21b7 01       		.uleb128 0x1
 6158 21b8 32       		.byte	0x32
 6159 21b9 00       		.byte	0
 6160 21ba 00       		.byte	0
 6161 21bb 00       		.byte	0
 6162 21bc 00       		.byte	0
 6163 21bd 66       		.uleb128 0x66
 6164 21be 7D1D0000 		.4byte	0x1d7d
 6165 21c2 34000000 		.4byte	.LBB120
 6166 21c6 16000000 		.4byte	.LBE120-.LBB120
 6167 21ca 02       		.byte	0x2
 6168 21cb 47       		.byte	0x47
 6169 21cc 15220000 		.4byte	0x2215
 6170 21d0 6A       		.uleb128 0x6a
 6171 21d1 941D0000 		.4byte	0x1d94
 6172 21d5 FF       		.byte	0xff
 6173 21d6 64       		.uleb128 0x64
 6174 21d7 8B1D0000 		.4byte	0x1d8b
 6175 21db D2020000 		.4byte	.LLST18
 6176 21df 6B       		.uleb128 0x6b
ARM GAS  C:\Users\jrdia\AppData\Local\Temp\ccFTvYyK.s 			page 140


 6177 21e0 E41C0000 		.4byte	0x1ce4
 6178 21e4 34000000 		.4byte	.LBB121
 6179 21e8 16000000 		.4byte	.LBE121-.LBB121
 6180 21ec 03       		.byte	0x3
 6181 21ed 4D01     		.2byte	0x14d
 6182 21ef 64       		.uleb128 0x64
 6183 21f0 0F1D0000 		.4byte	0x1d0f
 6184 21f4 F5020000 		.4byte	.LLST19
 6185 21f8 64       		.uleb128 0x64
 6186 21f9 051D0000 		.4byte	0x1d05
 6187 21fd 0A030000 		.4byte	.LLST20
 6188 2201 64       		.uleb128 0x64
 6189 2202 FB1C0000 		.4byte	0x1cfb
 6190 2206 0A030000 		.4byte	.LLST20
 6191 220a 64       		.uleb128 0x64
 6192 220b F21C0000 		.4byte	0x1cf2
 6193 220f 1E030000 		.4byte	.LLST22
 6194 2213 00       		.byte	0
 6195 2214 00       		.byte	0
 6196 2215 60       		.uleb128 0x60
 6197 2216 0C000000 		.4byte	.LVL17
 6198 221a D7190000 		.4byte	0x19d7
 6199 221e 5E       		.uleb128 0x5e
 6200 221f 01       		.uleb128 0x1
 6201 2220 50       		.byte	0x50
 6202 2221 02       		.uleb128 0x2
 6203 2222 74       		.byte	0x74
 6204 2223 2C       		.sleb128 44
 6205 2224 00       		.byte	0
 6206 2225 00       		.byte	0
 6207 2226 5F       		.uleb128 0x5f
 6208 2227 F9140000 		.4byte	0x14f9
 6209 222b 00000000 		.4byte	.LFB305
 6210 222f 0A000000 		.4byte	.LFE305-.LFB305
 6211 2233 01       		.uleb128 0x1
 6212 2234 9C       		.byte	0x9c
 6213 2235 3D220000 		.4byte	0x223d
 6214 2239 83220000 		.4byte	0x2283
 6215 223d 5C       		.uleb128 0x5c
 6216 223e A02F0000 		.4byte	.LASF423
 6217 2242 4A1D0000 		.4byte	0x1d4a
 6218 2246 41030000 		.4byte	.LLST23
 6219 224a 6C       		.uleb128 0x6c
 6220 224b 6C656E00 		.ascii	"len\000"
 6221 224f 02       		.byte	0x2
 6222 2250 38       		.byte	0x38
 6223 2251 AD000000 		.4byte	0xad
 6224 2255 6F030000 		.4byte	.LLST24
 6225 2259 6C       		.uleb128 0x6c
 6226 225a 62756600 		.ascii	"buf\000"
 6227 225e 02       		.byte	0x2
 6228 225f 38       		.byte	0x38
 6229 2260 19070000 		.4byte	0x719
 6230 2264 90030000 		.4byte	.LLST25
 6231 2268 60       		.uleb128 0x60
 6232 2269 08000000 		.4byte	.LVL26
 6233 226d B2190000 		.4byte	0x19b2
ARM GAS  C:\Users\jrdia\AppData\Local\Temp\ccFTvYyK.s 			page 141


 6234 2271 5E       		.uleb128 0x5e
 6235 2272 01       		.uleb128 0x1
 6236 2273 50       		.byte	0x50
 6237 2274 05       		.uleb128 0x5
 6238 2275 F3       		.byte	0xf3
 6239 2276 01       		.uleb128 0x1
 6240 2277 50       		.byte	0x50
 6241 2278 23       		.byte	0x23
 6242 2279 2C       		.uleb128 0x2c
 6243 227a 5E       		.uleb128 0x5e
 6244 227b 01       		.uleb128 0x1
 6245 227c 52       		.byte	0x52
 6246 227d 03       		.uleb128 0x3
 6247 227e F3       		.byte	0xf3
 6248 227f 01       		.uleb128 0x1
 6249 2280 52       		.byte	0x52
 6250 2281 00       		.byte	0
 6251 2282 00       		.byte	0
 6252 2283 6D       		.uleb128 0x6d
 6253 2284 A11D0000 		.4byte	0x1da1
 6254 2288 00000000 		.4byte	.LFB337
 6255 228c 2E000000 		.4byte	.LFE337-.LFB337
 6256 2290 01       		.uleb128 0x1
 6257 2291 9C       		.byte	0x9c
 6258 2292 27230000 		.4byte	0x2327
 6259 2296 64       		.uleb128 0x64
 6260 2297 B81D0000 		.4byte	0x1db8
 6261 229b B1030000 		.4byte	.LLST26
 6262 229f 64       		.uleb128 0x64
 6263 22a0 C31D0000 		.4byte	0x1dc3
 6264 22a4 D2030000 		.4byte	.LLST27
 6265 22a8 6E       		.uleb128 0x6e
 6266 22a9 AF1D0000 		.4byte	0x1daf
 6267 22ad 06       		.uleb128 0x6
 6268 22ae FA       		.byte	0xfa
 6269 22af AF1D0000 		.4byte	0x1daf
 6270 22b3 9F       		.byte	0x9f
 6271 22b4 6F       		.uleb128 0x6f
 6272 22b5 0C000000 		.4byte	.LVL29
 6273 22b9 43700000 		.4byte	0x7043
 6274 22bd C7220000 		.4byte	0x22c7
 6275 22c1 5E       		.uleb128 0x5e
 6276 22c2 01       		.uleb128 0x1
 6277 22c3 50       		.byte	0x50
 6278 22c4 01       		.uleb128 0x1
 6279 22c5 49       		.byte	0x49
 6280 22c6 00       		.byte	0
 6281 22c7 6F       		.uleb128 0x6f
 6282 22c8 12000000 		.4byte	.LVL30
 6283 22cc 4F700000 		.4byte	0x704f
 6284 22d0 DA220000 		.4byte	0x22da
 6285 22d4 5E       		.uleb128 0x5e
 6286 22d5 01       		.uleb128 0x1
 6287 22d6 50       		.byte	0x50
 6288 22d7 01       		.uleb128 0x1
 6289 22d8 30       		.byte	0x30
 6290 22d9 00       		.byte	0
ARM GAS  C:\Users\jrdia\AppData\Local\Temp\ccFTvYyK.s 			page 142


 6291 22da 6F       		.uleb128 0x6f
 6292 22db 1A000000 		.4byte	.LVL31
 6293 22df 5B700000 		.4byte	0x705b
 6294 22e3 F0220000 		.4byte	0x22f0
 6295 22e7 5E       		.uleb128 0x5e
 6296 22e8 01       		.uleb128 0x1
 6297 22e9 50       		.byte	0x50
 6298 22ea 04       		.uleb128 0x4
 6299 22eb 75       		.byte	0x75
 6300 22ec 00       		.sleb128 0
 6301 22ed 32       		.byte	0x32
 6302 22ee 21       		.byte	0x21
 6303 22ef 00       		.byte	0
 6304 22f0 6F       		.uleb128 0x6f
 6305 22f1 20000000 		.4byte	.LVL32
 6306 22f5 5B700000 		.4byte	0x705b
 6307 22f9 04230000 		.4byte	0x2304
 6308 22fd 5E       		.uleb128 0x5e
 6309 22fe 01       		.uleb128 0x1
 6310 22ff 50       		.byte	0x50
 6311 2300 02       		.uleb128 0x2
 6312 2301 74       		.byte	0x74
 6313 2302 00       		.sleb128 0
 6314 2303 00       		.byte	0
 6315 2304 6F       		.uleb128 0x6f
 6316 2305 26000000 		.4byte	.LVL33
 6317 2309 43700000 		.4byte	0x7043
 6318 230d 17230000 		.4byte	0x2317
 6319 2311 5E       		.uleb128 0x5e
 6320 2312 01       		.uleb128 0x1
 6321 2313 50       		.byte	0x50
 6322 2314 01       		.uleb128 0x1
 6323 2315 49       		.byte	0x49
 6324 2316 00       		.byte	0
 6325 2317 60       		.uleb128 0x60
 6326 2318 2C000000 		.4byte	.LVL34
 6327 231c 4F700000 		.4byte	0x704f
 6328 2320 5E       		.uleb128 0x5e
 6329 2321 01       		.uleb128 0x1
 6330 2322 50       		.byte	0x50
 6331 2323 01       		.uleb128 0x1
 6332 2324 31       		.byte	0x31
 6333 2325 00       		.byte	0
 6334 2326 00       		.byte	0
 6335 2327 6D       		.uleb128 0x6d
 6336 2328 D41D0000 		.4byte	0x1dd4
 6337 232c 00000000 		.4byte	.LFB338
 6338 2330 4A000000 		.4byte	.LFE338-.LFB338
 6339 2334 01       		.uleb128 0x1
 6340 2335 9C       		.byte	0x9c
 6341 2336 F2230000 		.4byte	0x23f2
 6342 233a 64       		.uleb128 0x64
 6343 233b EB1D0000 		.4byte	0x1deb
 6344 233f F3030000 		.4byte	.LLST28
 6345 2343 6E       		.uleb128 0x6e
 6346 2344 E21D0000 		.4byte	0x1de2
 6347 2348 06       		.uleb128 0x6
ARM GAS  C:\Users\jrdia\AppData\Local\Temp\ccFTvYyK.s 			page 143


 6348 2349 FA       		.byte	0xfa
 6349 234a E21D0000 		.4byte	0x1de2
 6350 234e 9F       		.byte	0x9f
 6351 234f 70       		.uleb128 0x70
 6352 2350 F71D0000 		.4byte	0x1df7
 6353 2354 14040000 		.4byte	.LLST29
 6354 2358 71       		.uleb128 0x71
 6355 2359 031E0000 		.4byte	0x1e03
 6356 235d 00       		.byte	0
 6357 235e 6F       		.uleb128 0x6f
 6358 235f 0A000000 		.4byte	.LVL37
 6359 2363 43700000 		.4byte	0x7043
 6360 2367 71230000 		.4byte	0x2371
 6361 236b 5E       		.uleb128 0x5e
 6362 236c 01       		.uleb128 0x1
 6363 236d 50       		.byte	0x50
 6364 236e 01       		.uleb128 0x1
 6365 236f 49       		.byte	0x49
 6366 2370 00       		.byte	0
 6367 2371 6F       		.uleb128 0x6f
 6368 2372 10000000 		.4byte	.LVL38
 6369 2376 4F700000 		.4byte	0x704f
 6370 237a 84230000 		.4byte	0x2384
 6371 237e 5E       		.uleb128 0x5e
 6372 237f 01       		.uleb128 0x1
 6373 2380 50       		.byte	0x50
 6374 2381 01       		.uleb128 0x1
 6375 2382 30       		.byte	0x30
 6376 2383 00       		.byte	0
 6377 2384 72       		.uleb128 0x72
 6378 2385 14000000 		.4byte	.LVL39
 6379 2389 67700000 		.4byte	0x7067
 6380 238d 6F       		.uleb128 0x6f
 6381 238e 1A000000 		.4byte	.LVL40
 6382 2392 5B700000 		.4byte	0x705b
 6383 2396 A1230000 		.4byte	0x23a1
 6384 239a 5E       		.uleb128 0x5e
 6385 239b 01       		.uleb128 0x1
 6386 239c 50       		.byte	0x50
 6387 239d 02       		.uleb128 0x2
 6388 239e 74       		.byte	0x74
 6389 239f 00       		.sleb128 0
 6390 23a0 00       		.byte	0
 6391 23a1 6F       		.uleb128 0x6f
 6392 23a2 20000000 		.4byte	.LVL41
 6393 23a6 5B700000 		.4byte	0x705b
 6394 23aa B4230000 		.4byte	0x23b4
 6395 23ae 5E       		.uleb128 0x5e
 6396 23af 01       		.uleb128 0x1
 6397 23b0 50       		.byte	0x50
 6398 23b1 01       		.uleb128 0x1
 6399 23b2 30       		.byte	0x30
 6400 23b3 00       		.byte	0
 6401 23b4 6F       		.uleb128 0x6f
 6402 23b5 26000000 		.4byte	.LVL42
 6403 23b9 43700000 		.4byte	0x7043
 6404 23bd C7230000 		.4byte	0x23c7
ARM GAS  C:\Users\jrdia\AppData\Local\Temp\ccFTvYyK.s 			page 144


 6405 23c1 5E       		.uleb128 0x5e
 6406 23c2 01       		.uleb128 0x1
 6407 23c3 50       		.byte	0x50
 6408 23c4 01       		.uleb128 0x1
 6409 23c5 49       		.byte	0x49
 6410 23c6 00       		.byte	0
 6411 23c7 72       		.uleb128 0x72
 6412 23c8 2A000000 		.4byte	.LVL43
 6413 23cc 73700000 		.4byte	0x7073
 6414 23d0 72       		.uleb128 0x72
 6415 23d1 36000000 		.4byte	.LVL45
 6416 23d5 7F700000 		.4byte	0x707f
 6417 23d9 72       		.uleb128 0x72
 6418 23da 3C000000 		.4byte	.LVL47
 6419 23de 73700000 		.4byte	0x7073
 6420 23e2 60       		.uleb128 0x60
 6421 23e3 46000000 		.4byte	.LVL49
 6422 23e7 4F700000 		.4byte	0x704f
 6423 23eb 5E       		.uleb128 0x5e
 6424 23ec 01       		.uleb128 0x1
 6425 23ed 50       		.byte	0x50
 6426 23ee 01       		.uleb128 0x1
 6427 23ef 31       		.byte	0x31
 6428 23f0 00       		.byte	0
 6429 23f1 00       		.byte	0
 6430 23f2 73       		.uleb128 0x73
 6431 23f3 15000000 		.4byte	.LASF434
 6432 23f7 05       		.byte	0x5
 6433 23f8 4E       		.byte	0x4e
 6434 23f9 90090000 		.4byte	.LASF435
 6435 23fd 00000000 		.4byte	.LFB321
 6436 2401 18000000 		.4byte	.LFE321-.LFB321
 6437 2405 01       		.uleb128 0x1
 6438 2406 9C       		.byte	0x9c
 6439 2407 3B240000 		.4byte	0x243b
 6440 240b 6F       		.uleb128 0x6f
 6441 240c 08000000 		.4byte	.LVL51
 6442 2410 8B700000 		.4byte	0x708b
 6443 2414 22240000 		.4byte	0x2422
 6444 2418 5E       		.uleb128 0x5e
 6445 2419 01       		.uleb128 0x1
 6446 241a 50       		.byte	0x50
 6447 241b 05       		.uleb128 0x5
 6448 241c 03       		.byte	0x3
 6449 241d 00000000 		.4byte	.LC0
 6450 2421 00       		.byte	0
 6451 2422 72       		.uleb128 0x72
 6452 2423 0C000000 		.4byte	.LVL52
 6453 2427 98700000 		.4byte	0x7098
 6454 242b 60       		.uleb128 0x60
 6455 242c 12000000 		.4byte	.LVL53
 6456 2430 A5700000 		.4byte	0x70a5
 6457 2434 5E       		.uleb128 0x5e
 6458 2435 01       		.uleb128 0x1
 6459 2436 50       		.byte	0x50
 6460 2437 01       		.uleb128 0x1
 6461 2438 33       		.byte	0x33
ARM GAS  C:\Users\jrdia\AppData\Local\Temp\ccFTvYyK.s 			page 145


 6462 2439 00       		.byte	0
 6463 243a 00       		.byte	0
 6464 243b 74       		.uleb128 0x74
 6465 243c 311E0000 		.4byte	0x1e31
 6466 2440 A9130000 		.4byte	.LASF128
 6467 2444 00000000 		.4byte	.LFB329
 6468 2448 70000000 		.4byte	.LFE329-.LFB329
 6469 244c 01       		.uleb128 0x1
 6470 244d 9C       		.byte	0x9c
 6471 244e 56240000 		.4byte	0x2456
 6472 2452 47250000 		.4byte	0x2547
 6473 2456 64       		.uleb128 0x64
 6474 2457 3F1E0000 		.4byte	0x1e3f
 6475 245b 27040000 		.4byte	.LLST30
 6476 245f 70       		.uleb128 0x70
 6477 2460 481E0000 		.4byte	0x1e48
 6478 2464 48040000 		.4byte	.LLST31
 6479 2468 75       		.uleb128 0x75
 6480 2469 3E000000 		.4byte	.LBB125
 6481 246d 0A000000 		.4byte	.LBE125-.LBB125
 6482 2471 A7240000 		.4byte	0x24a7
 6483 2475 64       		.uleb128 0x64
 6484 2476 3F1E0000 		.4byte	0x1e3f
 6485 247a 60040000 		.4byte	.LLST32
 6486 247e 67       		.uleb128 0x67
 6487 247f 3E000000 		.4byte	.LBB126
 6488 2483 0A000000 		.4byte	.LBE126-.LBB126
 6489 2487 76       		.uleb128 0x76
 6490 2488 481E0000 		.4byte	0x1e48
 6491 248c 60       		.uleb128 0x60
 6492 248d 44000000 		.4byte	.LVL61
 6493 2491 27230000 		.4byte	0x2327
 6494 2495 5E       		.uleb128 0x5e
 6495 2496 01       		.uleb128 0x1
 6496 2497 50       		.byte	0x50
 6497 2498 02       		.uleb128 0x2
 6498 2499 09       		.byte	0x9
 6499 249a D8       		.byte	0xd8
 6500 249b 77       		.uleb128 0x77
 6501 249c E21D0000 		.4byte	0x1de2
 6502 24a0 03       		.uleb128 0x3
 6503 24a1 F3       		.byte	0xf3
 6504 24a2 01       		.uleb128 0x1
 6505 24a3 50       		.byte	0x50
 6506 24a4 00       		.byte	0
 6507 24a5 00       		.byte	0
 6508 24a6 00       		.byte	0
 6509 24a7 6F       		.uleb128 0x6f
 6510 24a8 08000000 		.4byte	.LVL56
 6511 24ac 27230000 		.4byte	0x2327
 6512 24b0 C4240000 		.4byte	0x24c4
 6513 24b4 5E       		.uleb128 0x5e
 6514 24b5 01       		.uleb128 0x1
 6515 24b6 50       		.byte	0x50
 6516 24b7 02       		.uleb128 0x2
 6517 24b8 09       		.byte	0x9
 6518 24b9 F8       		.byte	0xf8
ARM GAS  C:\Users\jrdia\AppData\Local\Temp\ccFTvYyK.s 			page 146


 6519 24ba 77       		.uleb128 0x77
 6520 24bb E21D0000 		.4byte	0x1de2
 6521 24bf 03       		.uleb128 0x3
 6522 24c0 F3       		.byte	0xf3
 6523 24c1 01       		.uleb128 0x1
 6524 24c2 50       		.byte	0x50
 6525 24c3 00       		.byte	0
 6526 24c4 6F       		.uleb128 0x6f
 6527 24c5 2A000000 		.4byte	.LVL58
 6528 24c9 27230000 		.4byte	0x2327
 6529 24cd E1240000 		.4byte	0x24e1
 6530 24d1 5E       		.uleb128 0x5e
 6531 24d2 01       		.uleb128 0x1
 6532 24d3 50       		.byte	0x50
 6533 24d4 02       		.uleb128 0x2
 6534 24d5 09       		.byte	0x9
 6535 24d6 D8       		.byte	0xd8
 6536 24d7 77       		.uleb128 0x77
 6537 24d8 E21D0000 		.4byte	0x1de2
 6538 24dc 03       		.uleb128 0x3
 6539 24dd F3       		.byte	0xf3
 6540 24de 01       		.uleb128 0x1
 6541 24df 50       		.byte	0x50
 6542 24e0 00       		.byte	0
 6543 24e1 6F       		.uleb128 0x6f
 6544 24e2 36000000 		.4byte	.LVL59
 6545 24e6 83220000 		.4byte	0x2283
 6546 24ea 04250000 		.4byte	0x2504
 6547 24ee 5E       		.uleb128 0x5e
 6548 24ef 01       		.uleb128 0x1
 6549 24f0 50       		.byte	0x50
 6550 24f1 02       		.uleb128 0x2
 6551 24f2 09       		.byte	0x9
 6552 24f3 D8       		.byte	0xd8
 6553 24f4 5E       		.uleb128 0x5e
 6554 24f5 01       		.uleb128 0x1
 6555 24f6 51       		.byte	0x51
 6556 24f7 02       		.uleb128 0x2
 6557 24f8 09       		.byte	0x9
 6558 24f9 C9       		.byte	0xc9
 6559 24fa 77       		.uleb128 0x77
 6560 24fb AF1D0000 		.4byte	0x1daf
 6561 24ff 03       		.uleb128 0x3
 6562 2500 F3       		.byte	0xf3
 6563 2501 01       		.uleb128 0x1
 6564 2502 50       		.byte	0x50
 6565 2503 00       		.byte	0
 6566 2504 6F       		.uleb128 0x6f
 6567 2505 50000000 		.4byte	.LVL63
 6568 2509 83220000 		.4byte	0x2283
 6569 250d 27250000 		.4byte	0x2527
 6570 2511 5E       		.uleb128 0x5e
 6571 2512 01       		.uleb128 0x1
 6572 2513 50       		.byte	0x50
 6573 2514 02       		.uleb128 0x2
 6574 2515 09       		.byte	0x9
 6575 2516 D8       		.byte	0xd8
ARM GAS  C:\Users\jrdia\AppData\Local\Temp\ccFTvYyK.s 			page 147


 6576 2517 5E       		.uleb128 0x5e
 6577 2518 01       		.uleb128 0x1
 6578 2519 51       		.byte	0x51
 6579 251a 02       		.uleb128 0x2
 6580 251b 09       		.byte	0x9
 6581 251c CB       		.byte	0xcb
 6582 251d 77       		.uleb128 0x77
 6583 251e AF1D0000 		.4byte	0x1daf
 6584 2522 03       		.uleb128 0x3
 6585 2523 F3       		.byte	0xf3
 6586 2524 01       		.uleb128 0x1
 6587 2525 50       		.byte	0x50
 6588 2526 00       		.byte	0
 6589 2527 60       		.uleb128 0x60
 6590 2528 64000000 		.4byte	.LVL64
 6591 252c 83220000 		.4byte	0x2283
 6592 2530 5E       		.uleb128 0x5e
 6593 2531 01       		.uleb128 0x1
 6594 2532 50       		.byte	0x50
 6595 2533 02       		.uleb128 0x2
 6596 2534 09       		.byte	0x9
 6597 2535 D8       		.byte	0xd8
 6598 2536 5E       		.uleb128 0x5e
 6599 2537 01       		.uleb128 0x1
 6600 2538 51       		.byte	0x51
 6601 2539 02       		.uleb128 0x2
 6602 253a 09       		.byte	0x9
 6603 253b D1       		.byte	0xd1
 6604 253c 77       		.uleb128 0x77
 6605 253d AF1D0000 		.4byte	0x1daf
 6606 2541 03       		.uleb128 0x3
 6607 2542 F3       		.byte	0xf3
 6608 2543 01       		.uleb128 0x1
 6609 2544 50       		.byte	0x50
 6610 2545 00       		.byte	0
 6611 2546 00       		.byte	0
 6612 2547 74       		.uleb128 0x74
 6613 2548 931E0000 		.4byte	0x1e93
 6614 254c 2D420000 		.4byte	.LASF119
 6615 2550 00000000 		.4byte	.LFB324
 6616 2554 94000000 		.4byte	.LFE324-.LFB324
 6617 2558 01       		.uleb128 0x1
 6618 2559 9C       		.byte	0x9c
 6619 255a 62250000 		.4byte	0x2562
 6620 255e 71270000 		.4byte	0x2771
 6621 2562 64       		.uleb128 0x64
 6622 2563 A11E0000 		.4byte	0x1ea1
 6623 2567 76040000 		.4byte	.LLST33
 6624 256b 78       		.uleb128 0x78
 6625 256c 8D1E0000 		.4byte	0x1e8d
 6626 2570 08000000 		.4byte	.LBB145
 6627 2574 28000000 		.4byte	.Ldebug_ranges0+0x28
 6628 2578 04       		.byte	0x4
 6629 2579 F201     		.2byte	0x1f2
 6630 257b D6250000 		.4byte	0x25d6
 6631 257f 63       		.uleb128 0x63
 6632 2580 871E0000 		.4byte	0x1e87
ARM GAS  C:\Users\jrdia\AppData\Local\Temp\ccFTvYyK.s 			page 148


 6633 2584 08000000 		.4byte	.LBB146
 6634 2588 58000000 		.4byte	.Ldebug_ranges0+0x58
 6635 258c 04       		.byte	0x4
 6636 258d 3D       		.byte	0x3d
 6637 258e AC250000 		.4byte	0x25ac
 6638 2592 79       		.uleb128 0x79
 6639 2593 551E0000 		.4byte	0x1e55
 6640 2597 08000000 		.4byte	.LBB147
 6641 259b 58000000 		.4byte	.Ldebug_ranges0+0x58
 6642 259f 06       		.byte	0x6
 6643 25a0 DC       		.byte	0xdc
 6644 25a1 64       		.uleb128 0x64
 6645 25a2 5F1E0000 		.4byte	0x1e5f
 6646 25a6 AD040000 		.4byte	.LLST34
 6647 25aa 00       		.byte	0
 6648 25ab 00       		.byte	0
 6649 25ac 79       		.uleb128 0x79
 6650 25ad 811E0000 		.4byte	0x1e81
 6651 25b1 16000000 		.4byte	.LBB155
 6652 25b5 78000000 		.4byte	.Ldebug_ranges0+0x78
 6653 25b9 04       		.byte	0x4
 6654 25ba 3E       		.byte	0x3e
 6655 25bb 79       		.uleb128 0x79
 6656 25bc 6B1E0000 		.4byte	0x1e6b
 6657 25c0 16000000 		.4byte	.LBB156
 6658 25c4 78000000 		.4byte	.Ldebug_ranges0+0x78
 6659 25c8 06       		.byte	0x6
 6660 25c9 C0       		.byte	0xc0
 6661 25ca 64       		.uleb128 0x64
 6662 25cb 751E0000 		.4byte	0x1e75
 6663 25cf C1040000 		.4byte	.LLST35
 6664 25d3 00       		.byte	0
 6665 25d4 00       		.byte	0
 6666 25d5 00       		.byte	0
 6667 25d6 78       		.uleb128 0x78
 6668 25d7 0F1E0000 		.4byte	0x1e0f
 6669 25db 10000000 		.4byte	.LBB165
 6670 25df 98000000 		.4byte	.Ldebug_ranges0+0x98
 6671 25e3 04       		.byte	0x4
 6672 25e4 F901     		.2byte	0x1f9
 6673 25e6 5E260000 		.4byte	0x265e
 6674 25ea 64       		.uleb128 0x64
 6675 25eb 1D1E0000 		.4byte	0x1e1d
 6676 25ef D5040000 		.4byte	.LLST36
 6677 25f3 7A       		.uleb128 0x7a
 6678 25f4 98000000 		.4byte	.Ldebug_ranges0+0x98
 6679 25f8 70       		.uleb128 0x70
 6680 25f9 261E0000 		.4byte	0x1e26
 6681 25fd 01050000 		.4byte	.LLST37
 6682 2601 6F       		.uleb128 0x6f
 6683 2602 2C000000 		.4byte	.LVL70
 6684 2606 83220000 		.4byte	0x2283
 6685 260a 23260000 		.4byte	0x2623
 6686 260e 5E       		.uleb128 0x5e
 6687 260f 01       		.uleb128 0x1
 6688 2610 50       		.byte	0x50
 6689 2611 02       		.uleb128 0x2
ARM GAS  C:\Users\jrdia\AppData\Local\Temp\ccFTvYyK.s 			page 149


 6690 2612 08       		.byte	0x8
 6691 2613 78       		.byte	0x78
 6692 2614 5E       		.uleb128 0x5e
 6693 2615 01       		.uleb128 0x1
 6694 2616 51       		.byte	0x51
 6695 2617 02       		.uleb128 0x2
 6696 2618 08       		.byte	0x8
 6697 2619 20       		.byte	0x20
 6698 261a 77       		.uleb128 0x77
 6699 261b AF1D0000 		.4byte	0x1daf
 6700 261f 02       		.uleb128 0x2
 6701 2620 76       		.byte	0x76
 6702 2621 00       		.sleb128 0
 6703 2622 00       		.byte	0
 6704 2623 6F       		.uleb128 0x6f
 6705 2624 34000000 		.4byte	.LVL71
 6706 2628 83220000 		.4byte	0x2283
 6707 262c 44260000 		.4byte	0x2644
 6708 2630 5E       		.uleb128 0x5e
 6709 2631 01       		.uleb128 0x1
 6710 2632 50       		.byte	0x50
 6711 2633 02       		.uleb128 0x2
 6712 2634 08       		.byte	0x8
 6713 2635 78       		.byte	0x78
 6714 2636 5E       		.uleb128 0x5e
 6715 2637 01       		.uleb128 0x1
 6716 2638 51       		.byte	0x51
 6717 2639 01       		.uleb128 0x1
 6718 263a 30       		.byte	0x30
 6719 263b 77       		.uleb128 0x77
 6720 263c AF1D0000 		.4byte	0x1daf
 6721 2640 02       		.uleb128 0x2
 6722 2641 76       		.byte	0x76
 6723 2642 00       		.sleb128 0
 6724 2643 00       		.byte	0
 6725 2644 60       		.uleb128 0x60
 6726 2645 44000000 		.4byte	.LVL75
 6727 2649 27230000 		.4byte	0x2327
 6728 264d 5E       		.uleb128 0x5e
 6729 264e 01       		.uleb128 0x1
 6730 264f 50       		.byte	0x50
 6731 2650 02       		.uleb128 0x2
 6732 2651 08       		.byte	0x8
 6733 2652 68       		.byte	0x68
 6734 2653 77       		.uleb128 0x77
 6735 2654 E21D0000 		.4byte	0x1de2
 6736 2658 02       		.uleb128 0x2
 6737 2659 76       		.byte	0x76
 6738 265a 00       		.sleb128 0
 6739 265b 00       		.byte	0
 6740 265c 00       		.byte	0
 6741 265d 00       		.byte	0
 6742 265e 75       		.uleb128 0x75
 6743 265f 60000000 		.4byte	.LBB174
 6744 2663 24000000 		.4byte	.LBE174-.LBB174
 6745 2667 E5260000 		.4byte	0x26e5
 6746 266b 64       		.uleb128 0x64
ARM GAS  C:\Users\jrdia\AppData\Local\Temp\ccFTvYyK.s 			page 150


 6747 266c A11E0000 		.4byte	0x1ea1
 6748 2670 3E050000 		.4byte	.LLST38
 6749 2674 6F       		.uleb128 0x6f
 6750 2675 68000000 		.4byte	.LVL80
 6751 2679 27230000 		.4byte	0x2327
 6752 267d 90260000 		.4byte	0x2690
 6753 2681 5E       		.uleb128 0x5e
 6754 2682 01       		.uleb128 0x1
 6755 2683 50       		.byte	0x50
 6756 2684 02       		.uleb128 0x2
 6757 2685 09       		.byte	0x9
 6758 2686 E8       		.byte	0xe8
 6759 2687 77       		.uleb128 0x77
 6760 2688 E21D0000 		.4byte	0x1de2
 6761 268c 02       		.uleb128 0x2
 6762 268d 76       		.byte	0x76
 6763 268e 00       		.sleb128 0
 6764 268f 00       		.byte	0
 6765 2690 6F       		.uleb128 0x6f
 6766 2691 72000000 		.4byte	.LVL81
 6767 2695 311E0000 		.4byte	0x1e31
 6768 2699 A4260000 		.4byte	0x26a4
 6769 269d 5E       		.uleb128 0x5e
 6770 269e 01       		.uleb128 0x1
 6771 269f 50       		.byte	0x50
 6772 26a0 02       		.uleb128 0x2
 6773 26a1 76       		.byte	0x76
 6774 26a2 00       		.sleb128 0
 6775 26a3 00       		.byte	0
 6776 26a4 6F       		.uleb128 0x6f
 6777 26a5 7A000000 		.4byte	.LVL82
 6778 26a9 83220000 		.4byte	0x2283
 6779 26ad C6260000 		.4byte	0x26c6
 6780 26b1 5E       		.uleb128 0x5e
 6781 26b2 01       		.uleb128 0x1
 6782 26b3 50       		.byte	0x50
 6783 26b4 02       		.uleb128 0x2
 6784 26b5 09       		.byte	0x9
 6785 26b6 C8       		.byte	0xc8
 6786 26b7 5E       		.uleb128 0x5e
 6787 26b8 01       		.uleb128 0x1
 6788 26b9 51       		.byte	0x51
 6789 26ba 02       		.uleb128 0x2
 6790 26bb 08       		.byte	0x8
 6791 26bc 20       		.byte	0x20
 6792 26bd 77       		.uleb128 0x77
 6793 26be AF1D0000 		.4byte	0x1daf
 6794 26c2 02       		.uleb128 0x2
 6795 26c3 76       		.byte	0x76
 6796 26c4 00       		.sleb128 0
 6797 26c5 00       		.byte	0
 6798 26c6 60       		.uleb128 0x60
 6799 26c7 82000000 		.4byte	.LVL83
 6800 26cb 83220000 		.4byte	0x2283
 6801 26cf 5E       		.uleb128 0x5e
 6802 26d0 01       		.uleb128 0x1
 6803 26d1 50       		.byte	0x50
ARM GAS  C:\Users\jrdia\AppData\Local\Temp\ccFTvYyK.s 			page 151


 6804 26d2 02       		.uleb128 0x2
 6805 26d3 09       		.byte	0x9
 6806 26d4 80       		.byte	0x80
 6807 26d5 5E       		.uleb128 0x5e
 6808 26d6 01       		.uleb128 0x1
 6809 26d7 51       		.byte	0x51
 6810 26d8 02       		.uleb128 0x2
 6811 26d9 75       		.byte	0x75
 6812 26da 00       		.sleb128 0
 6813 26db 77       		.uleb128 0x77
 6814 26dc AF1D0000 		.4byte	0x1daf
 6815 26e0 02       		.uleb128 0x2
 6816 26e1 76       		.byte	0x76
 6817 26e2 00       		.sleb128 0
 6818 26e3 00       		.byte	0
 6819 26e4 00       		.byte	0
 6820 26e5 72       		.uleb128 0x72
 6821 26e6 08000000 		.4byte	.LVL66
 6822 26ea B2700000 		.4byte	0x70b2
 6823 26ee 6F       		.uleb128 0x6f
 6824 26ef 24000000 		.4byte	.LVL69
 6825 26f3 83220000 		.4byte	0x2283
 6826 26f7 0F270000 		.4byte	0x270f
 6827 26fb 5E       		.uleb128 0x5e
 6828 26fc 01       		.uleb128 0x1
 6829 26fd 50       		.byte	0x50
 6830 26fe 02       		.uleb128 0x2
 6831 26ff 09       		.byte	0x9
 6832 2700 88       		.byte	0x88
 6833 2701 5E       		.uleb128 0x5e
 6834 2702 01       		.uleb128 0x1
 6835 2703 51       		.byte	0x51
 6836 2704 01       		.uleb128 0x1
 6837 2705 48       		.byte	0x48
 6838 2706 77       		.uleb128 0x77
 6839 2707 AF1D0000 		.4byte	0x1daf
 6840 270b 02       		.uleb128 0x2
 6841 270c 76       		.byte	0x76
 6842 270d 00       		.sleb128 0
 6843 270e 00       		.byte	0
 6844 270f 6F       		.uleb128 0x6f
 6845 2710 50000000 		.4byte	.LVL77
 6846 2714 83220000 		.4byte	0x2283
 6847 2718 31270000 		.4byte	0x2731
 6848 271c 5E       		.uleb128 0x5e
 6849 271d 01       		.uleb128 0x1
 6850 271e 50       		.byte	0x50
 6851 271f 02       		.uleb128 0x2
 6852 2720 09       		.byte	0x9
 6853 2721 D8       		.byte	0xd8
 6854 2722 5E       		.uleb128 0x5e
 6855 2723 01       		.uleb128 0x1
 6856 2724 51       		.byte	0x51
 6857 2725 02       		.uleb128 0x2
 6858 2726 09       		.byte	0x9
 6859 2727 C1       		.byte	0xc1
 6860 2728 77       		.uleb128 0x77
ARM GAS  C:\Users\jrdia\AppData\Local\Temp\ccFTvYyK.s 			page 152


 6861 2729 AF1D0000 		.4byte	0x1daf
 6862 272d 02       		.uleb128 0x2
 6863 272e 76       		.byte	0x76
 6864 272f 00       		.sleb128 0
 6865 2730 00       		.byte	0
 6866 2731 6F       		.uleb128 0x6f
 6867 2732 58000000 		.4byte	.LVL78
 6868 2736 83220000 		.4byte	0x2283
 6869 273a 53270000 		.4byte	0x2753
 6870 273e 5E       		.uleb128 0x5e
 6871 273f 01       		.uleb128 0x1
 6872 2740 50       		.byte	0x50
 6873 2741 02       		.uleb128 0x2
 6874 2742 09       		.byte	0x9
 6875 2743 D0       		.byte	0xd0
 6876 2744 5E       		.uleb128 0x5e
 6877 2745 01       		.uleb128 0x1
 6878 2746 51       		.byte	0x51
 6879 2747 02       		.uleb128 0x2
 6880 2748 08       		.byte	0x8
 6881 2749 60       		.byte	0x60
 6882 274a 77       		.uleb128 0x77
 6883 274b AF1D0000 		.4byte	0x1daf
 6884 274f 02       		.uleb128 0x2
 6885 2750 76       		.byte	0x76
 6886 2751 00       		.sleb128 0
 6887 2752 00       		.byte	0
 6888 2753 60       		.uleb128 0x60
 6889 2754 60000000 		.4byte	.LVL79
 6890 2758 83220000 		.4byte	0x2283
 6891 275c 5E       		.uleb128 0x5e
 6892 275d 01       		.uleb128 0x1
 6893 275e 50       		.byte	0x50
 6894 275f 02       		.uleb128 0x2
 6895 2760 09       		.byte	0x9
 6896 2761 E8       		.byte	0xe8
 6897 2762 5E       		.uleb128 0x5e
 6898 2763 01       		.uleb128 0x1
 6899 2764 51       		.byte	0x51
 6900 2765 01       		.uleb128 0x1
 6901 2766 34       		.byte	0x34
 6902 2767 77       		.uleb128 0x77
 6903 2768 AF1D0000 		.4byte	0x1daf
 6904 276c 02       		.uleb128 0x2
 6905 276d 76       		.byte	0x76
 6906 276e 00       		.sleb128 0
 6907 276f 00       		.byte	0
 6908 2770 00       		.byte	0
 6909 2771 7B       		.uleb128 0x7b
 6910 2772 E3640000 		.4byte	.LASF1335
 6911 2776 05       		.byte	0x5
 6912 2777 54       		.byte	0x54
 6913 2778 94000000 		.4byte	0x94
 6914 277c 00000000 		.4byte	.LFB322
 6915 2780 8C050000 		.4byte	.LFE322-.LFB322
 6916 2784 01       		.uleb128 0x1
 6917 2785 9C       		.byte	0x9c
ARM GAS  C:\Users\jrdia\AppData\Local\Temp\ccFTvYyK.s 			page 153


 6918 2786 B6320000 		.4byte	0x32b6
 6919 278a 66       		.uleb128 0x66
 6920 278b AF1C0000 		.4byte	0x1caf
 6921 278f 1E010000 		.4byte	.LBB179
 6922 2793 14000000 		.4byte	.LBE179-.LBB179
 6923 2797 05       		.byte	0x5
 6924 2798 83       		.byte	0x83
 6925 2799 B9270000 		.4byte	0x27b9
 6926 279d 64       		.uleb128 0x64
 6927 279e D21C0000 		.4byte	0x1cd2
 6928 27a2 51050000 		.4byte	.LLST39
 6929 27a6 64       		.uleb128 0x64
 6930 27a7 C61C0000 		.4byte	0x1cc6
 6931 27ab 64050000 		.4byte	.LLST40
 6932 27af 64       		.uleb128 0x64
 6933 27b0 BD1C0000 		.4byte	0x1cbd
 6934 27b4 77050000 		.4byte	.LLST41
 6935 27b8 00       		.byte	0
 6936 27b9 66       		.uleb128 0x66
 6937 27ba FF1E0000 		.4byte	0x1eff
 6938 27be 4C020000 		.4byte	.LBB185
 6939 27c2 04000000 		.4byte	.LBE185-.LBB185
 6940 27c6 05       		.byte	0x5
 6941 27c7 C7       		.byte	0xc7
 6942 27c8 DC270000 		.4byte	0x27dc
 6943 27cc 7C       		.uleb128 0x7c
 6944 27cd 211F0000 		.4byte	0x1f21
 6945 27d1 7C       		.uleb128 0x7c
 6946 27d2 161F0000 		.4byte	0x1f16
 6947 27d6 7C       		.uleb128 0x7c
 6948 27d7 0D1F0000 		.4byte	0x1f0d
 6949 27db 00       		.byte	0
 6950 27dc 66       		.uleb128 0x66
 6951 27dd FF1E0000 		.4byte	0x1eff
 6952 27e1 54020000 		.4byte	.LBB187
 6953 27e5 04000000 		.4byte	.LBE187-.LBB187
 6954 27e9 05       		.byte	0x5
 6955 27ea C7       		.byte	0xc7
 6956 27eb FF270000 		.4byte	0x27ff
 6957 27ef 7C       		.uleb128 0x7c
 6958 27f0 211F0000 		.4byte	0x1f21
 6959 27f4 7C       		.uleb128 0x7c
 6960 27f5 161F0000 		.4byte	0x1f16
 6961 27f9 7C       		.uleb128 0x7c
 6962 27fa 0D1F0000 		.4byte	0x1f0d
 6963 27fe 00       		.byte	0
 6964 27ff 75       		.uleb128 0x75
 6965 2800 64020000 		.4byte	.LBB189
 6966 2804 70000000 		.4byte	.LBE189-.LBB189
 6967 2808 2B290000 		.4byte	0x292b
 6968 280c 7D       		.uleb128 0x7d
 6969 280d 6900     		.ascii	"i\000"
 6970 280f 05       		.byte	0x5
 6971 2810 C9       		.byte	0xc9
 6972 2811 AD000000 		.4byte	0xad
 6973 2815 8F050000 		.4byte	.LLST42
 6974 2819 63       		.uleb128 0x63
ARM GAS  C:\Users\jrdia\AppData\Local\Temp\ccFTvYyK.s 			page 154


 6975 281a 5B1F0000 		.4byte	0x1f5b
 6976 281e 90020000 		.4byte	.LBB190
 6977 2822 B8000000 		.4byte	.Ldebug_ranges0+0xb8
 6978 2826 05       		.byte	0x5
 6979 2827 CC       		.byte	0xcc
 6980 2828 3C280000 		.4byte	0x283c
 6981 282c 7C       		.uleb128 0x7c
 6982 282d 7D1F0000 		.4byte	0x1f7d
 6983 2831 7C       		.uleb128 0x7c
 6984 2832 721F0000 		.4byte	0x1f72
 6985 2836 7C       		.uleb128 0x7c
 6986 2837 691F0000 		.4byte	0x1f69
 6987 283b 00       		.byte	0
 6988 283c 66       		.uleb128 0x66
 6989 283d 2D1F0000 		.4byte	0x1f2d
 6990 2841 C2020000 		.4byte	.LBB194
 6991 2845 02000000 		.4byte	.LBE194-.LBB194
 6992 2849 05       		.byte	0x5
 6993 284a CE       		.byte	0xce
 6994 284b 5F280000 		.4byte	0x285f
 6995 284f 7C       		.uleb128 0x7c
 6996 2850 4F1F0000 		.4byte	0x1f4f
 6997 2854 7C       		.uleb128 0x7c
 6998 2855 441F0000 		.4byte	0x1f44
 6999 2859 7C       		.uleb128 0x7c
 7000 285a 3B1F0000 		.4byte	0x1f3b
 7001 285e 00       		.byte	0
 7002 285f 6F       		.uleb128 0x6f
 7003 2860 82020000 		.4byte	.LVL141
 7004 2864 BE700000 		.4byte	0x70be
 7005 2868 76280000 		.4byte	0x2876
 7006 286c 5E       		.uleb128 0x5e
 7007 286d 01       		.uleb128 0x1
 7008 286e 50       		.byte	0x50
 7009 286f 05       		.uleb128 0x5
 7010 2870 03       		.byte	0x3
 7011 2871 EC000000 		.4byte	.LC45
 7012 2875 00       		.byte	0
 7013 2876 6F       		.uleb128 0x6f
 7014 2877 8A020000 		.4byte	.LVL142
 7015 287b BE700000 		.4byte	0x70be
 7016 287f 90280000 		.4byte	0x2890
 7017 2883 5E       		.uleb128 0x5e
 7018 2884 01       		.uleb128 0x1
 7019 2885 50       		.byte	0x50
 7020 2886 02       		.uleb128 0x2
 7021 2887 76       		.byte	0x76
 7022 2888 00       		.sleb128 0
 7023 2889 5E       		.uleb128 0x5e
 7024 288a 01       		.uleb128 0x1
 7025 288b 51       		.byte	0x51
 7026 288c 02       		.uleb128 0x2
 7027 288d 78       		.byte	0x78
 7028 288e 00       		.sleb128 0
 7029 288f 00       		.byte	0
 7030 2890 6F       		.uleb128 0x6f
 7031 2891 90020000 		.4byte	.LVL143
ARM GAS  C:\Users\jrdia\AppData\Local\Temp\ccFTvYyK.s 			page 155


 7032 2895 BE700000 		.4byte	0x70be
 7033 2899 A7280000 		.4byte	0x28a7
 7034 289d 5E       		.uleb128 0x5e
 7035 289e 01       		.uleb128 0x1
 7036 289f 50       		.byte	0x50
 7037 28a0 05       		.uleb128 0x5
 7038 28a1 03       		.byte	0x3
 7039 28a2 F4000000 		.4byte	.LC49
 7040 28a6 00       		.byte	0
 7041 28a7 6F       		.uleb128 0x6f
 7042 28a8 AE020000 		.4byte	.LVL144
 7043 28ac BE700000 		.4byte	0x70be
 7044 28b0 BB280000 		.4byte	0x28bb
 7045 28b4 5E       		.uleb128 0x5e
 7046 28b5 01       		.uleb128 0x1
 7047 28b6 50       		.byte	0x50
 7048 28b7 02       		.uleb128 0x2
 7049 28b8 76       		.byte	0x76
 7050 28b9 00       		.sleb128 0
 7051 28ba 00       		.byte	0
 7052 28bb 6F       		.uleb128 0x6f
 7053 28bc B4020000 		.4byte	.LVL145
 7054 28c0 BE700000 		.4byte	0x70be
 7055 28c4 D2280000 		.4byte	0x28d2
 7056 28c8 5E       		.uleb128 0x5e
 7057 28c9 01       		.uleb128 0x1
 7058 28ca 50       		.byte	0x50
 7059 28cb 05       		.uleb128 0x5
 7060 28cc 03       		.byte	0x3
 7061 28cd F8000000 		.4byte	.LC51
 7062 28d1 00       		.byte	0
 7063 28d2 6F       		.uleb128 0x6f
 7064 28d3 BC020000 		.4byte	.LVL146
 7065 28d7 BE700000 		.4byte	0x70be
 7066 28db EC280000 		.4byte	0x28ec
 7067 28df 5E       		.uleb128 0x5e
 7068 28e0 01       		.uleb128 0x1
 7069 28e1 50       		.byte	0x50
 7070 28e2 02       		.uleb128 0x2
 7071 28e3 76       		.byte	0x76
 7072 28e4 00       		.sleb128 0
 7073 28e5 5E       		.uleb128 0x5e
 7074 28e6 01       		.uleb128 0x1
 7075 28e7 51       		.byte	0x51
 7076 28e8 02       		.uleb128 0x2
 7077 28e9 78       		.byte	0x78
 7078 28ea 00       		.sleb128 0
 7079 28eb 00       		.byte	0
 7080 28ec 6F       		.uleb128 0x6f
 7081 28ed C2020000 		.4byte	.LVL147
 7082 28f1 BE700000 		.4byte	0x70be
 7083 28f5 03290000 		.4byte	0x2903
 7084 28f9 5E       		.uleb128 0x5e
 7085 28fa 01       		.uleb128 0x1
 7086 28fb 50       		.byte	0x50
 7087 28fc 05       		.uleb128 0x5
 7088 28fd 03       		.byte	0x3
ARM GAS  C:\Users\jrdia\AppData\Local\Temp\ccFTvYyK.s 			page 156


 7089 28fe F4000000 		.4byte	.LC49
 7090 2902 00       		.byte	0
 7091 2903 6F       		.uleb128 0x6f
 7092 2904 CC020000 		.4byte	.LVL148
 7093 2908 BE700000 		.4byte	0x70be
 7094 290c 17290000 		.4byte	0x2917
 7095 2910 5E       		.uleb128 0x5e
 7096 2911 01       		.uleb128 0x1
 7097 2912 50       		.byte	0x50
 7098 2913 02       		.uleb128 0x2
 7099 2914 76       		.byte	0x76
 7100 2915 00       		.sleb128 0
 7101 2916 00       		.byte	0
 7102 2917 60       		.uleb128 0x60
 7103 2918 D2020000 		.4byte	.LVL149
 7104 291c BE700000 		.4byte	0x70be
 7105 2920 5E       		.uleb128 0x5e
 7106 2921 01       		.uleb128 0x1
 7107 2922 50       		.byte	0x50
 7108 2923 05       		.uleb128 0x5
 7109 2924 03       		.byte	0x3
 7110 2925 FC000000 		.4byte	.LC53
 7111 2929 00       		.byte	0
 7112 292a 00       		.byte	0
 7113 292b 66       		.uleb128 0x66
 7114 292c 7D1D0000 		.4byte	0x1d7d
 7115 2930 1E040000 		.4byte	.LBB198
 7116 2934 20000000 		.4byte	.LBE198-.LBB198
 7117 2938 05       		.byte	0x5
 7118 2939 A8       		.byte	0xa8
 7119 293a 86290000 		.4byte	0x2986
 7120 293e 64       		.uleb128 0x64
 7121 293f 941D0000 		.4byte	0x1d94
 7122 2943 C6050000 		.4byte	.LLST43
 7123 2947 64       		.uleb128 0x64
 7124 2948 8B1D0000 		.4byte	0x1d8b
 7125 294c DC050000 		.4byte	.LLST44
 7126 2950 6B       		.uleb128 0x6b
 7127 2951 E41C0000 		.4byte	0x1ce4
 7128 2955 1E040000 		.4byte	.LBB199
 7129 2959 20000000 		.4byte	.LBE199-.LBB199
 7130 295d 03       		.byte	0x3
 7131 295e 4D01     		.2byte	0x14d
 7132 2960 64       		.uleb128 0x64
 7133 2961 0F1D0000 		.4byte	0x1d0f
 7134 2965 F4050000 		.4byte	.LLST45
 7135 2969 64       		.uleb128 0x64
 7136 296a 051D0000 		.4byte	0x1d05
 7137 296e 08060000 		.4byte	.LLST46
 7138 2972 64       		.uleb128 0x64
 7139 2973 FB1C0000 		.4byte	0x1cfb
 7140 2977 F4050000 		.4byte	.LLST45
 7141 297b 64       		.uleb128 0x64
 7142 297c F21C0000 		.4byte	0x1cf2
 7143 2980 1D060000 		.4byte	.LLST48
 7144 2984 00       		.byte	0
 7145 2985 00       		.byte	0
ARM GAS  C:\Users\jrdia\AppData\Local\Temp\ccFTvYyK.s 			page 157


 7146 2986 66       		.uleb128 0x66
 7147 2987 7D1D0000 		.4byte	0x1d7d
 7148 298b 44040000 		.4byte	.LBB201
 7149 298f 22000000 		.4byte	.LBE201-.LBB201
 7150 2993 05       		.byte	0x5
 7151 2994 A5       		.byte	0xa5
 7152 2995 E1290000 		.4byte	0x29e1
 7153 2999 64       		.uleb128 0x64
 7154 299a 941D0000 		.4byte	0x1d94
 7155 299e 35060000 		.4byte	.LLST49
 7156 29a2 64       		.uleb128 0x64
 7157 29a3 8B1D0000 		.4byte	0x1d8b
 7158 29a7 4D060000 		.4byte	.LLST50
 7159 29ab 6B       		.uleb128 0x6b
 7160 29ac E41C0000 		.4byte	0x1ce4
 7161 29b0 44040000 		.4byte	.LBB202
 7162 29b4 22000000 		.4byte	.LBE202-.LBB202
 7163 29b8 03       		.byte	0x3
 7164 29b9 4D01     		.2byte	0x14d
 7165 29bb 64       		.uleb128 0x64
 7166 29bc 0F1D0000 		.4byte	0x1d0f
 7167 29c0 65060000 		.4byte	.LLST51
 7168 29c4 64       		.uleb128 0x64
 7169 29c5 051D0000 		.4byte	0x1d05
 7170 29c9 79060000 		.4byte	.LLST52
 7171 29cd 64       		.uleb128 0x64
 7172 29ce FB1C0000 		.4byte	0x1cfb
 7173 29d2 8E060000 		.4byte	.LLST53
 7174 29d6 64       		.uleb128 0x64
 7175 29d7 F21C0000 		.4byte	0x1cf2
 7176 29db A3060000 		.4byte	.LLST54
 7177 29df 00       		.byte	0
 7178 29e0 00       		.byte	0
 7179 29e1 66       		.uleb128 0x66
 7180 29e2 7D1D0000 		.4byte	0x1d7d
 7181 29e6 6C040000 		.4byte	.LBB204
 7182 29ea 20000000 		.4byte	.LBE204-.LBB204
 7183 29ee 05       		.byte	0x5
 7184 29ef A2       		.byte	0xa2
 7185 29f0 3C2A0000 		.4byte	0x2a3c
 7186 29f4 64       		.uleb128 0x64
 7187 29f5 941D0000 		.4byte	0x1d94
 7188 29f9 BB060000 		.4byte	.LLST55
 7189 29fd 64       		.uleb128 0x64
 7190 29fe 8B1D0000 		.4byte	0x1d8b
 7191 2a02 D0060000 		.4byte	.LLST56
 7192 2a06 6B       		.uleb128 0x6b
 7193 2a07 E41C0000 		.4byte	0x1ce4
 7194 2a0b 6C040000 		.4byte	.LBB205
 7195 2a0f 20000000 		.4byte	.LBE205-.LBB205
 7196 2a13 03       		.byte	0x3
 7197 2a14 4D01     		.2byte	0x14d
 7198 2a16 64       		.uleb128 0x64
 7199 2a17 0F1D0000 		.4byte	0x1d0f
 7200 2a1b E8060000 		.4byte	.LLST57
 7201 2a1f 64       		.uleb128 0x64
 7202 2a20 051D0000 		.4byte	0x1d05
ARM GAS  C:\Users\jrdia\AppData\Local\Temp\ccFTvYyK.s 			page 158


 7203 2a24 FD060000 		.4byte	.LLST58
 7204 2a28 64       		.uleb128 0x64
 7205 2a29 FB1C0000 		.4byte	0x1cfb
 7206 2a2d FD060000 		.4byte	.LLST58
 7207 2a31 64       		.uleb128 0x64
 7208 2a32 F21C0000 		.4byte	0x1cf2
 7209 2a36 11070000 		.4byte	.LLST60
 7210 2a3a 00       		.byte	0
 7211 2a3b 00       		.byte	0
 7212 2a3c 66       		.uleb128 0x66
 7213 2a3d 7D1D0000 		.4byte	0x1d7d
 7214 2a41 92040000 		.4byte	.LBB207
 7215 2a45 20000000 		.4byte	.LBE207-.LBB207
 7216 2a49 05       		.byte	0x5
 7217 2a4a 9F       		.byte	0x9f
 7218 2a4b 972A0000 		.4byte	0x2a97
 7219 2a4f 64       		.uleb128 0x64
 7220 2a50 941D0000 		.4byte	0x1d94
 7221 2a54 29070000 		.4byte	.LLST61
 7222 2a58 64       		.uleb128 0x64
 7223 2a59 8B1D0000 		.4byte	0x1d8b
 7224 2a5d 40070000 		.4byte	.LLST62
 7225 2a61 6B       		.uleb128 0x6b
 7226 2a62 E41C0000 		.4byte	0x1ce4
 7227 2a66 92040000 		.4byte	.LBB208
 7228 2a6a 20000000 		.4byte	.LBE208-.LBB208
 7229 2a6e 03       		.byte	0x3
 7230 2a6f 4D01     		.2byte	0x14d
 7231 2a71 64       		.uleb128 0x64
 7232 2a72 0F1D0000 		.4byte	0x1d0f
 7233 2a76 58070000 		.4byte	.LLST63
 7234 2a7a 64       		.uleb128 0x64
 7235 2a7b 051D0000 		.4byte	0x1d05
 7236 2a7f 58070000 		.4byte	.LLST63
 7237 2a83 64       		.uleb128 0x64
 7238 2a84 FB1C0000 		.4byte	0x1cfb
 7239 2a88 6C070000 		.4byte	.LLST65
 7240 2a8c 64       		.uleb128 0x64
 7241 2a8d F21C0000 		.4byte	0x1cf2
 7242 2a91 81070000 		.4byte	.LLST66
 7243 2a95 00       		.byte	0
 7244 2a96 00       		.byte	0
 7245 2a97 66       		.uleb128 0x66
 7246 2a98 CF1E0000 		.4byte	0x1ecf
 7247 2a9c B8040000 		.4byte	.LBB210
 7248 2aa0 18000000 		.4byte	.LBE210-.LBB210
 7249 2aa4 05       		.byte	0x5
 7250 2aa5 9A       		.byte	0x9a
 7251 2aa6 C62A0000 		.4byte	0x2ac6
 7252 2aaa 64       		.uleb128 0x64
 7253 2aab F21E0000 		.4byte	0x1ef2
 7254 2aaf 99070000 		.4byte	.LLST67
 7255 2ab3 64       		.uleb128 0x64
 7256 2ab4 E61E0000 		.4byte	0x1ee6
 7257 2ab8 99070000 		.4byte	.LLST67
 7258 2abc 64       		.uleb128 0x64
 7259 2abd DD1E0000 		.4byte	0x1edd
ARM GAS  C:\Users\jrdia\AppData\Local\Temp\ccFTvYyK.s 			page 159


 7260 2ac1 AD070000 		.4byte	.LLST69
 7261 2ac5 00       		.byte	0
 7262 2ac6 66       		.uleb128 0x66
 7263 2ac7 CF1E0000 		.4byte	0x1ecf
 7264 2acb D6040000 		.4byte	.LBB212
 7265 2acf 18000000 		.4byte	.LBE212-.LBB212
 7266 2ad3 05       		.byte	0x5
 7267 2ad4 96       		.byte	0x96
 7268 2ad5 F52A0000 		.4byte	0x2af5
 7269 2ad9 64       		.uleb128 0x64
 7270 2ada F21E0000 		.4byte	0x1ef2
 7271 2ade C5070000 		.4byte	.LLST70
 7272 2ae2 64       		.uleb128 0x64
 7273 2ae3 E61E0000 		.4byte	0x1ee6
 7274 2ae7 C5070000 		.4byte	.LLST70
 7275 2aeb 64       		.uleb128 0x64
 7276 2aec DD1E0000 		.4byte	0x1edd
 7277 2af0 D9070000 		.4byte	.LLST72
 7278 2af4 00       		.byte	0
 7279 2af5 66       		.uleb128 0x66
 7280 2af6 AB1E0000 		.4byte	0x1eab
 7281 2afa F4040000 		.4byte	.LBB214
 7282 2afe 1A000000 		.4byte	.LBE214-.LBB214
 7283 2b02 05       		.byte	0x5
 7284 2b03 92       		.byte	0x92
 7285 2b04 472B0000 		.4byte	0x2b47
 7286 2b08 64       		.uleb128 0x64
 7287 2b09 C21E0000 		.4byte	0x1ec2
 7288 2b0d F1070000 		.4byte	.LLST73
 7289 2b11 64       		.uleb128 0x64
 7290 2b12 B91E0000 		.4byte	0x1eb9
 7291 2b16 05080000 		.4byte	.LLST74
 7292 2b1a 6B       		.uleb128 0x6b
 7293 2b1b AF1C0000 		.4byte	0x1caf
 7294 2b1f F4040000 		.4byte	.LBB215
 7295 2b23 1A000000 		.4byte	.LBE215-.LBB215
 7296 2b27 03       		.byte	0x3
 7297 2b28 2A01     		.2byte	0x12a
 7298 2b2a 64       		.uleb128 0x64
 7299 2b2b D21C0000 		.4byte	0x1cd2
 7300 2b2f 1D080000 		.4byte	.LLST75
 7301 2b33 64       		.uleb128 0x64
 7302 2b34 C61C0000 		.4byte	0x1cc6
 7303 2b38 31080000 		.4byte	.LLST76
 7304 2b3c 64       		.uleb128 0x64
 7305 2b3d BD1C0000 		.4byte	0x1cbd
 7306 2b41 05080000 		.4byte	.LLST74
 7307 2b45 00       		.byte	0
 7308 2b46 00       		.byte	0
 7309 2b47 66       		.uleb128 0x66
 7310 2b48 AB1E0000 		.4byte	0x1eab
 7311 2b4c 14050000 		.4byte	.LBB217
 7312 2b50 18000000 		.4byte	.LBE217-.LBB217
 7313 2b54 05       		.byte	0x5
 7314 2b55 8E       		.byte	0x8e
 7315 2b56 992B0000 		.4byte	0x2b99
 7316 2b5a 64       		.uleb128 0x64
ARM GAS  C:\Users\jrdia\AppData\Local\Temp\ccFTvYyK.s 			page 160


 7317 2b5b C21E0000 		.4byte	0x1ec2
 7318 2b5f 46080000 		.4byte	.LLST78
 7319 2b63 64       		.uleb128 0x64
 7320 2b64 B91E0000 		.4byte	0x1eb9
 7321 2b68 5B080000 		.4byte	.LLST79
 7322 2b6c 6B       		.uleb128 0x6b
 7323 2b6d AF1C0000 		.4byte	0x1caf
 7324 2b71 14050000 		.4byte	.LBB218
 7325 2b75 18000000 		.4byte	.LBE218-.LBB218
 7326 2b79 03       		.byte	0x3
 7327 2b7a 2801     		.2byte	0x128
 7328 2b7c 64       		.uleb128 0x64
 7329 2b7d D21C0000 		.4byte	0x1cd2
 7330 2b81 73080000 		.4byte	.LLST80
 7331 2b85 64       		.uleb128 0x64
 7332 2b86 C61C0000 		.4byte	0x1cc6
 7333 2b8a 88080000 		.4byte	.LLST81
 7334 2b8e 64       		.uleb128 0x64
 7335 2b8f BD1C0000 		.4byte	0x1cbd
 7336 2b93 5B080000 		.4byte	.LLST79
 7337 2b97 00       		.byte	0
 7338 2b98 00       		.byte	0
 7339 2b99 72       		.uleb128 0x72
 7340 2b9a 10000000 		.4byte	.LVL86
 7341 2b9e CB700000 		.4byte	0x70cb
 7342 2ba2 72       		.uleb128 0x72
 7343 2ba3 16000000 		.4byte	.LVL87
 7344 2ba7 D8700000 		.4byte	0x70d8
 7345 2bab 6F       		.uleb128 0x6f
 7346 2bac 1C000000 		.4byte	.LVL88
 7347 2bb0 8B700000 		.4byte	0x708b
 7348 2bb4 C22B0000 		.4byte	0x2bc2
 7349 2bb8 5E       		.uleb128 0x5e
 7350 2bb9 01       		.uleb128 0x1
 7351 2bba 50       		.byte	0x50
 7352 2bbb 05       		.uleb128 0x5
 7353 2bbc 03       		.byte	0x3
 7354 2bbd 10000000 		.4byte	.LC4
 7355 2bc1 00       		.byte	0
 7356 2bc2 6F       		.uleb128 0x6f
 7357 2bc3 24000000 		.4byte	.LVL89
 7358 2bc7 931E0000 		.4byte	0x1e93
 7359 2bcb D92B0000 		.4byte	0x2bd9
 7360 2bcf 5E       		.uleb128 0x5e
 7361 2bd0 01       		.uleb128 0x1
 7362 2bd1 50       		.byte	0x50
 7363 2bd2 05       		.uleb128 0x5
 7364 2bd3 03       		.byte	0x3
 7365 2bd4 08000000 		.4byte	.LANCHOR0+8
 7366 2bd8 00       		.byte	0
 7367 2bd9 6F       		.uleb128 0x6f
 7368 2bda 30000000 		.4byte	.LVL90
 7369 2bde 8B700000 		.4byte	0x708b
 7370 2be2 F02B0000 		.4byte	0x2bf0
 7371 2be6 5E       		.uleb128 0x5e
 7372 2be7 01       		.uleb128 0x1
 7373 2be8 50       		.byte	0x50
ARM GAS  C:\Users\jrdia\AppData\Local\Temp\ccFTvYyK.s 			page 161


 7374 2be9 05       		.uleb128 0x5
 7375 2bea 03       		.byte	0x3
 7376 2beb 44000000 		.4byte	.LC9
 7377 2bef 00       		.byte	0
 7378 2bf0 6F       		.uleb128 0x6f
 7379 2bf1 4E000000 		.4byte	.LVL91
 7380 2bf5 C50A0000 		.4byte	0xac5
 7381 2bf9 042C0000 		.4byte	0x2c04
 7382 2bfd 5E       		.uleb128 0x5e
 7383 2bfe 01       		.uleb128 0x1
 7384 2bff 50       		.byte	0x50
 7385 2c00 02       		.uleb128 0x2
 7386 2c01 77       		.byte	0x77
 7387 2c02 00       		.sleb128 0
 7388 2c03 00       		.byte	0
 7389 2c04 6F       		.uleb128 0x6f
 7390 2c05 60000000 		.4byte	.LVL92
 7391 2c09 29170000 		.4byte	0x1729
 7392 2c0d 1D2C0000 		.4byte	0x2c1d
 7393 2c11 5E       		.uleb128 0x5e
 7394 2c12 01       		.uleb128 0x1
 7395 2c13 50       		.byte	0x50
 7396 2c14 02       		.uleb128 0x2
 7397 2c15 74       		.byte	0x74
 7398 2c16 00       		.sleb128 0
 7399 2c17 5E       		.uleb128 0x5e
 7400 2c18 01       		.uleb128 0x1
 7401 2c19 51       		.byte	0x51
 7402 2c1a 01       		.uleb128 0x1
 7403 2c1b 30       		.byte	0x30
 7404 2c1c 00       		.byte	0
 7405 2c1d 6F       		.uleb128 0x6f
 7406 2c1e 6C000000 		.4byte	.LVL93
 7407 2c22 BE700000 		.4byte	0x70be
 7408 2c26 342C0000 		.4byte	0x2c34
 7409 2c2a 5E       		.uleb128 0x5e
 7410 2c2b 01       		.uleb128 0x1
 7411 2c2c 50       		.byte	0x50
 7412 2c2d 05       		.uleb128 0x5
 7413 2c2e 03       		.byte	0x3
 7414 2c2f 00010000 		.4byte	.LC55
 7415 2c33 00       		.byte	0
 7416 2c34 6F       		.uleb128 0x6f
 7417 2c35 74000000 		.4byte	.LVL94
 7418 2c39 29170000 		.4byte	0x1729
 7419 2c3d 4D2C0000 		.4byte	0x2c4d
 7420 2c41 5E       		.uleb128 0x5e
 7421 2c42 01       		.uleb128 0x1
 7422 2c43 50       		.byte	0x50
 7423 2c44 02       		.uleb128 0x2
 7424 2c45 74       		.byte	0x74
 7425 2c46 00       		.sleb128 0
 7426 2c47 5E       		.uleb128 0x5e
 7427 2c48 01       		.uleb128 0x1
 7428 2c49 51       		.byte	0x51
 7429 2c4a 01       		.uleb128 0x1
 7430 2c4b 30       		.byte	0x30
ARM GAS  C:\Users\jrdia\AppData\Local\Temp\ccFTvYyK.s 			page 162


 7431 2c4c 00       		.byte	0
 7432 2c4d 6F       		.uleb128 0x6f
 7433 2c4e 7C000000 		.4byte	.LVL95
 7434 2c52 BE700000 		.4byte	0x70be
 7435 2c56 612C0000 		.4byte	0x2c61
 7436 2c5a 5E       		.uleb128 0x5e
 7437 2c5b 01       		.uleb128 0x1
 7438 2c5c 50       		.byte	0x50
 7439 2c5d 02       		.uleb128 0x2
 7440 2c5e 76       		.byte	0x76
 7441 2c5f 00       		.sleb128 0
 7442 2c60 00       		.byte	0
 7443 2c61 6F       		.uleb128 0x6f
 7444 2c62 82000000 		.4byte	.LVL96
 7445 2c66 BE700000 		.4byte	0x70be
 7446 2c6a 782C0000 		.4byte	0x2c78
 7447 2c6e 5E       		.uleb128 0x5e
 7448 2c6f 01       		.uleb128 0x1
 7449 2c70 50       		.byte	0x50
 7450 2c71 05       		.uleb128 0x5
 7451 2c72 03       		.byte	0x3
 7452 2c73 10010000 		.4byte	.LC57
 7453 2c77 00       		.byte	0
 7454 2c78 6F       		.uleb128 0x6f
 7455 2c79 8A000000 		.4byte	.LVL97
 7456 2c7d 29170000 		.4byte	0x1729
 7457 2c81 912C0000 		.4byte	0x2c91
 7458 2c85 5E       		.uleb128 0x5e
 7459 2c86 01       		.uleb128 0x1
 7460 2c87 50       		.byte	0x50
 7461 2c88 02       		.uleb128 0x2
 7462 2c89 74       		.byte	0x74
 7463 2c8a 00       		.sleb128 0
 7464 2c8b 5E       		.uleb128 0x5e
 7465 2c8c 01       		.uleb128 0x1
 7466 2c8d 51       		.byte	0x51
 7467 2c8e 01       		.uleb128 0x1
 7468 2c8f 31       		.byte	0x31
 7469 2c90 00       		.byte	0
 7470 2c91 6F       		.uleb128 0x6f
 7471 2c92 92000000 		.4byte	.LVL98
 7472 2c96 BE700000 		.4byte	0x70be
 7473 2c9a A52C0000 		.4byte	0x2ca5
 7474 2c9e 5E       		.uleb128 0x5e
 7475 2c9f 01       		.uleb128 0x1
 7476 2ca0 50       		.byte	0x50
 7477 2ca1 02       		.uleb128 0x2
 7478 2ca2 76       		.byte	0x76
 7479 2ca3 00       		.sleb128 0
 7480 2ca4 00       		.byte	0
 7481 2ca5 6F       		.uleb128 0x6f
 7482 2ca6 98000000 		.4byte	.LVL99
 7483 2caa BE700000 		.4byte	0x70be
 7484 2cae BC2C0000 		.4byte	0x2cbc
 7485 2cb2 5E       		.uleb128 0x5e
 7486 2cb3 01       		.uleb128 0x1
 7487 2cb4 50       		.byte	0x50
ARM GAS  C:\Users\jrdia\AppData\Local\Temp\ccFTvYyK.s 			page 163


 7488 2cb5 05       		.uleb128 0x5
 7489 2cb6 03       		.byte	0x3
 7490 2cb7 1C010000 		.4byte	.LC59
 7491 2cbb 00       		.byte	0
 7492 2cbc 6F       		.uleb128 0x6f
 7493 2cbd A0000000 		.4byte	.LVL100
 7494 2cc1 29170000 		.4byte	0x1729
 7495 2cc5 D52C0000 		.4byte	0x2cd5
 7496 2cc9 5E       		.uleb128 0x5e
 7497 2cca 01       		.uleb128 0x1
 7498 2ccb 50       		.byte	0x50
 7499 2ccc 02       		.uleb128 0x2
 7500 2ccd 74       		.byte	0x74
 7501 2cce 00       		.sleb128 0
 7502 2ccf 5E       		.uleb128 0x5e
 7503 2cd0 01       		.uleb128 0x1
 7504 2cd1 51       		.byte	0x51
 7505 2cd2 01       		.uleb128 0x1
 7506 2cd3 32       		.byte	0x32
 7507 2cd4 00       		.byte	0
 7508 2cd5 6F       		.uleb128 0x6f
 7509 2cd6 A8000000 		.4byte	.LVL101
 7510 2cda BE700000 		.4byte	0x70be
 7511 2cde E92C0000 		.4byte	0x2ce9
 7512 2ce2 5E       		.uleb128 0x5e
 7513 2ce3 01       		.uleb128 0x1
 7514 2ce4 50       		.byte	0x50
 7515 2ce5 02       		.uleb128 0x2
 7516 2ce6 76       		.byte	0x76
 7517 2ce7 00       		.sleb128 0
 7518 2ce8 00       		.byte	0
 7519 2ce9 6F       		.uleb128 0x6f
 7520 2cea AE000000 		.4byte	.LVL102
 7521 2cee BE700000 		.4byte	0x70be
 7522 2cf2 002D0000 		.4byte	0x2d00
 7523 2cf6 5E       		.uleb128 0x5e
 7524 2cf7 01       		.uleb128 0x1
 7525 2cf8 50       		.byte	0x50
 7526 2cf9 05       		.uleb128 0x5
 7527 2cfa 03       		.byte	0x3
 7528 2cfb 2C010000 		.4byte	.LC61
 7529 2cff 00       		.byte	0
 7530 2d00 6F       		.uleb128 0x6f
 7531 2d01 B6000000 		.4byte	.LVL103
 7532 2d05 29170000 		.4byte	0x1729
 7533 2d09 192D0000 		.4byte	0x2d19
 7534 2d0d 5E       		.uleb128 0x5e
 7535 2d0e 01       		.uleb128 0x1
 7536 2d0f 50       		.byte	0x50
 7537 2d10 02       		.uleb128 0x2
 7538 2d11 74       		.byte	0x74
 7539 2d12 00       		.sleb128 0
 7540 2d13 5E       		.uleb128 0x5e
 7541 2d14 01       		.uleb128 0x1
 7542 2d15 51       		.byte	0x51
 7543 2d16 01       		.uleb128 0x1
 7544 2d17 33       		.byte	0x33
ARM GAS  C:\Users\jrdia\AppData\Local\Temp\ccFTvYyK.s 			page 164


 7545 2d18 00       		.byte	0
 7546 2d19 6F       		.uleb128 0x6f
 7547 2d1a BE000000 		.4byte	.LVL104
 7548 2d1e BE700000 		.4byte	0x70be
 7549 2d22 2D2D0000 		.4byte	0x2d2d
 7550 2d26 5E       		.uleb128 0x5e
 7551 2d27 01       		.uleb128 0x1
 7552 2d28 50       		.byte	0x50
 7553 2d29 02       		.uleb128 0x2
 7554 2d2a 76       		.byte	0x76
 7555 2d2b 00       		.sleb128 0
 7556 2d2c 00       		.byte	0
 7557 2d2d 6F       		.uleb128 0x6f
 7558 2d2e C6000000 		.4byte	.LVL105
 7559 2d32 06170000 		.4byte	0x1706
 7560 2d36 462D0000 		.4byte	0x2d46
 7561 2d3a 5E       		.uleb128 0x5e
 7562 2d3b 01       		.uleb128 0x1
 7563 2d3c 50       		.byte	0x50
 7564 2d3d 02       		.uleb128 0x2
 7565 2d3e 74       		.byte	0x74
 7566 2d3f 00       		.sleb128 0
 7567 2d40 5E       		.uleb128 0x5e
 7568 2d41 01       		.uleb128 0x1
 7569 2d42 51       		.byte	0x51
 7570 2d43 01       		.uleb128 0x1
 7571 2d44 38       		.byte	0x38
 7572 2d45 00       		.byte	0
 7573 2d46 6F       		.uleb128 0x6f
 7574 2d47 D2000000 		.4byte	.LVL106
 7575 2d4b BE700000 		.4byte	0x70be
 7576 2d4f 5D2D0000 		.4byte	0x2d5d
 7577 2d53 5E       		.uleb128 0x5e
 7578 2d54 01       		.uleb128 0x1
 7579 2d55 50       		.byte	0x50
 7580 2d56 05       		.uleb128 0x5
 7581 2d57 03       		.byte	0x3
 7582 2d58 3C010000 		.4byte	.LC63
 7583 2d5c 00       		.byte	0
 7584 2d5d 6F       		.uleb128 0x6f
 7585 2d5e DA000000 		.4byte	.LVL107
 7586 2d62 06170000 		.4byte	0x1706
 7587 2d66 762D0000 		.4byte	0x2d76
 7588 2d6a 5E       		.uleb128 0x5e
 7589 2d6b 01       		.uleb128 0x1
 7590 2d6c 50       		.byte	0x50
 7591 2d6d 02       		.uleb128 0x2
 7592 2d6e 74       		.byte	0x74
 7593 2d6f 00       		.sleb128 0
 7594 2d70 5E       		.uleb128 0x5e
 7595 2d71 01       		.uleb128 0x1
 7596 2d72 51       		.byte	0x51
 7597 2d73 01       		.uleb128 0x1
 7598 2d74 38       		.byte	0x38
 7599 2d75 00       		.byte	0
 7600 2d76 6F       		.uleb128 0x6f
 7601 2d77 E2000000 		.4byte	.LVL108
ARM GAS  C:\Users\jrdia\AppData\Local\Temp\ccFTvYyK.s 			page 165


 7602 2d7b BE700000 		.4byte	0x70be
 7603 2d7f 8A2D0000 		.4byte	0x2d8a
 7604 2d83 5E       		.uleb128 0x5e
 7605 2d84 01       		.uleb128 0x1
 7606 2d85 50       		.byte	0x50
 7607 2d86 02       		.uleb128 0x2
 7608 2d87 76       		.byte	0x76
 7609 2d88 00       		.sleb128 0
 7610 2d89 00       		.byte	0
 7611 2d8a 6F       		.uleb128 0x6f
 7612 2d8b E8000000 		.4byte	.LVL109
 7613 2d8f BE700000 		.4byte	0x70be
 7614 2d93 A12D0000 		.4byte	0x2da1
 7615 2d97 5E       		.uleb128 0x5e
 7616 2d98 01       		.uleb128 0x1
 7617 2d99 50       		.byte	0x50
 7618 2d9a 05       		.uleb128 0x5
 7619 2d9b 03       		.byte	0x3
 7620 2d9c 44010000 		.4byte	.LC65
 7621 2da0 00       		.byte	0
 7622 2da1 6F       		.uleb128 0x6f
 7623 2da2 F0000000 		.4byte	.LVL110
 7624 2da6 06170000 		.4byte	0x1706
 7625 2daa BA2D0000 		.4byte	0x2dba
 7626 2dae 5E       		.uleb128 0x5e
 7627 2daf 01       		.uleb128 0x1
 7628 2db0 50       		.byte	0x50
 7629 2db1 02       		.uleb128 0x2
 7630 2db2 74       		.byte	0x74
 7631 2db3 00       		.sleb128 0
 7632 2db4 5E       		.uleb128 0x5e
 7633 2db5 01       		.uleb128 0x1
 7634 2db6 51       		.byte	0x51
 7635 2db7 01       		.uleb128 0x1
 7636 2db8 39       		.byte	0x39
 7637 2db9 00       		.byte	0
 7638 2dba 6F       		.uleb128 0x6f
 7639 2dbb F8000000 		.4byte	.LVL111
 7640 2dbf BE700000 		.4byte	0x70be
 7641 2dc3 CE2D0000 		.4byte	0x2dce
 7642 2dc7 5E       		.uleb128 0x5e
 7643 2dc8 01       		.uleb128 0x1
 7644 2dc9 50       		.byte	0x50
 7645 2dca 02       		.uleb128 0x2
 7646 2dcb 76       		.byte	0x76
 7647 2dcc 00       		.sleb128 0
 7648 2dcd 00       		.byte	0
 7649 2dce 6F       		.uleb128 0x6f
 7650 2dcf 00010000 		.4byte	.LVL112
 7651 2dd3 06170000 		.4byte	0x1706
 7652 2dd7 E72D0000 		.4byte	0x2de7
 7653 2ddb 5E       		.uleb128 0x5e
 7654 2ddc 01       		.uleb128 0x1
 7655 2ddd 50       		.byte	0x50
 7656 2dde 02       		.uleb128 0x2
 7657 2ddf 74       		.byte	0x74
 7658 2de0 00       		.sleb128 0
ARM GAS  C:\Users\jrdia\AppData\Local\Temp\ccFTvYyK.s 			page 166


 7659 2de1 5E       		.uleb128 0x5e
 7660 2de2 01       		.uleb128 0x1
 7661 2de3 51       		.byte	0x51
 7662 2de4 01       		.uleb128 0x1
 7663 2de5 38       		.byte	0x38
 7664 2de6 00       		.byte	0
 7665 2de7 6F       		.uleb128 0x6f
 7666 2de8 14010000 		.4byte	.LVL113
 7667 2dec 06170000 		.4byte	0x1706
 7668 2df0 002E0000 		.4byte	0x2e00
 7669 2df4 5E       		.uleb128 0x5e
 7670 2df5 01       		.uleb128 0x1
 7671 2df6 50       		.byte	0x50
 7672 2df7 02       		.uleb128 0x2
 7673 2df8 74       		.byte	0x74
 7674 2df9 00       		.sleb128 0
 7675 2dfa 5E       		.uleb128 0x5e
 7676 2dfb 01       		.uleb128 0x1
 7677 2dfc 51       		.byte	0x51
 7678 2dfd 01       		.uleb128 0x1
 7679 2dfe 38       		.byte	0x38
 7680 2dff 00       		.byte	0
 7681 2e00 6F       		.uleb128 0x6f
 7682 2e01 1E010000 		.4byte	.LVL114
 7683 2e05 06170000 		.4byte	0x1706
 7684 2e09 192E0000 		.4byte	0x2e19
 7685 2e0d 5E       		.uleb128 0x5e
 7686 2e0e 01       		.uleb128 0x1
 7687 2e0f 50       		.byte	0x50
 7688 2e10 02       		.uleb128 0x2
 7689 2e11 74       		.byte	0x74
 7690 2e12 00       		.sleb128 0
 7691 2e13 5E       		.uleb128 0x5e
 7692 2e14 01       		.uleb128 0x1
 7693 2e15 51       		.byte	0x51
 7694 2e16 01       		.uleb128 0x1
 7695 2e17 39       		.byte	0x39
 7696 2e18 00       		.byte	0
 7697 2e19 6F       		.uleb128 0x6f
 7698 2e1a 3E010000 		.4byte	.LVL116
 7699 2e1e 06170000 		.4byte	0x1706
 7700 2e22 322E0000 		.4byte	0x2e32
 7701 2e26 5E       		.uleb128 0x5e
 7702 2e27 01       		.uleb128 0x1
 7703 2e28 50       		.byte	0x50
 7704 2e29 02       		.uleb128 0x2
 7705 2e2a 74       		.byte	0x74
 7706 2e2b 00       		.sleb128 0
 7707 2e2c 5E       		.uleb128 0x5e
 7708 2e2d 01       		.uleb128 0x1
 7709 2e2e 51       		.byte	0x51
 7710 2e2f 01       		.uleb128 0x1
 7711 2e30 38       		.byte	0x38
 7712 2e31 00       		.byte	0
 7713 2e32 6F       		.uleb128 0x6f
 7714 2e33 4C010000 		.4byte	.LVL117
 7715 2e37 06170000 		.4byte	0x1706
ARM GAS  C:\Users\jrdia\AppData\Local\Temp\ccFTvYyK.s 			page 167


 7716 2e3b 4B2E0000 		.4byte	0x2e4b
 7717 2e3f 5E       		.uleb128 0x5e
 7718 2e40 01       		.uleb128 0x1
 7719 2e41 50       		.byte	0x50
 7720 2e42 02       		.uleb128 0x2
 7721 2e43 74       		.byte	0x74
 7722 2e44 00       		.sleb128 0
 7723 2e45 5E       		.uleb128 0x5e
 7724 2e46 01       		.uleb128 0x1
 7725 2e47 51       		.byte	0x51
 7726 2e48 01       		.uleb128 0x1
 7727 2e49 39       		.byte	0x39
 7728 2e4a 00       		.byte	0
 7729 2e4b 6F       		.uleb128 0x6f
 7730 2e4c 5A010000 		.4byte	.LVL118
 7731 2e50 E3160000 		.4byte	0x16e3
 7732 2e54 642E0000 		.4byte	0x2e64
 7733 2e58 5E       		.uleb128 0x5e
 7734 2e59 01       		.uleb128 0x1
 7735 2e5a 50       		.byte	0x50
 7736 2e5b 02       		.uleb128 0x2
 7737 2e5c 74       		.byte	0x74
 7738 2e5d 00       		.sleb128 0
 7739 2e5e 5E       		.uleb128 0x5e
 7740 2e5f 01       		.uleb128 0x1
 7741 2e60 51       		.byte	0x51
 7742 2e61 01       		.uleb128 0x1
 7743 2e62 40       		.byte	0x40
 7744 2e63 00       		.byte	0
 7745 2e64 6F       		.uleb128 0x6f
 7746 2e65 66010000 		.4byte	.LVL119
 7747 2e69 BE700000 		.4byte	0x70be
 7748 2e6d 7B2E0000 		.4byte	0x2e7b
 7749 2e71 5E       		.uleb128 0x5e
 7750 2e72 01       		.uleb128 0x1
 7751 2e73 50       		.byte	0x50
 7752 2e74 05       		.uleb128 0x5
 7753 2e75 03       		.byte	0x3
 7754 2e76 58000000 		.4byte	.LC13
 7755 2e7a 00       		.byte	0
 7756 2e7b 6F       		.uleb128 0x6f
 7757 2e7c 6C010000 		.4byte	.LVL120
 7758 2e80 F4150000 		.4byte	0x15f4
 7759 2e84 8F2E0000 		.4byte	0x2e8f
 7760 2e88 5E       		.uleb128 0x5e
 7761 2e89 01       		.uleb128 0x1
 7762 2e8a 50       		.byte	0x50
 7763 2e8b 02       		.uleb128 0x2
 7764 2e8c 78       		.byte	0x78
 7765 2e8d 00       		.sleb128 0
 7766 2e8e 00       		.byte	0
 7767 2e8f 6F       		.uleb128 0x6f
 7768 2e90 76010000 		.4byte	.LVL121
 7769 2e94 E3160000 		.4byte	0x16e3
 7770 2e98 A82E0000 		.4byte	0x2ea8
 7771 2e9c 5E       		.uleb128 0x5e
 7772 2e9d 01       		.uleb128 0x1
ARM GAS  C:\Users\jrdia\AppData\Local\Temp\ccFTvYyK.s 			page 168


 7773 2e9e 50       		.byte	0x50
 7774 2e9f 02       		.uleb128 0x2
 7775 2ea0 74       		.byte	0x74
 7776 2ea1 00       		.sleb128 0
 7777 2ea2 5E       		.uleb128 0x5e
 7778 2ea3 01       		.uleb128 0x1
 7779 2ea4 51       		.byte	0x51
 7780 2ea5 01       		.uleb128 0x1
 7781 2ea6 3C       		.byte	0x3c
 7782 2ea7 00       		.byte	0
 7783 2ea8 6F       		.uleb128 0x6f
 7784 2ea9 84010000 		.4byte	.LVL122
 7785 2ead E3160000 		.4byte	0x16e3
 7786 2eb1 C12E0000 		.4byte	0x2ec1
 7787 2eb5 5E       		.uleb128 0x5e
 7788 2eb6 01       		.uleb128 0x1
 7789 2eb7 50       		.byte	0x50
 7790 2eb8 02       		.uleb128 0x2
 7791 2eb9 74       		.byte	0x74
 7792 2eba 00       		.sleb128 0
 7793 2ebb 5E       		.uleb128 0x5e
 7794 2ebc 01       		.uleb128 0x1
 7795 2ebd 51       		.byte	0x51
 7796 2ebe 01       		.uleb128 0x1
 7797 2ebf 3D       		.byte	0x3d
 7798 2ec0 00       		.byte	0
 7799 2ec1 6F       		.uleb128 0x6f
 7800 2ec2 92010000 		.4byte	.LVL123
 7801 2ec6 E3160000 		.4byte	0x16e3
 7802 2eca DA2E0000 		.4byte	0x2eda
 7803 2ece 5E       		.uleb128 0x5e
 7804 2ecf 01       		.uleb128 0x1
 7805 2ed0 50       		.byte	0x50
 7806 2ed1 02       		.uleb128 0x2
 7807 2ed2 74       		.byte	0x74
 7808 2ed3 00       		.sleb128 0
 7809 2ed4 5E       		.uleb128 0x5e
 7810 2ed5 01       		.uleb128 0x1
 7811 2ed6 51       		.byte	0x51
 7812 2ed7 01       		.uleb128 0x1
 7813 2ed8 3E       		.byte	0x3e
 7814 2ed9 00       		.byte	0
 7815 2eda 6F       		.uleb128 0x6f
 7816 2edb A0010000 		.4byte	.LVL124
 7817 2edf E3160000 		.4byte	0x16e3
 7818 2ee3 F32E0000 		.4byte	0x2ef3
 7819 2ee7 5E       		.uleb128 0x5e
 7820 2ee8 01       		.uleb128 0x1
 7821 2ee9 50       		.byte	0x50
 7822 2eea 02       		.uleb128 0x2
 7823 2eeb 74       		.byte	0x74
 7824 2eec 00       		.sleb128 0
 7825 2eed 5E       		.uleb128 0x5e
 7826 2eee 01       		.uleb128 0x1
 7827 2eef 51       		.byte	0x51
 7828 2ef0 01       		.uleb128 0x1
 7829 2ef1 3F       		.byte	0x3f
ARM GAS  C:\Users\jrdia\AppData\Local\Temp\ccFTvYyK.s 			page 169


 7830 2ef2 00       		.byte	0
 7831 2ef3 6F       		.uleb128 0x6f
 7832 2ef4 AE010000 		.4byte	.LVL125
 7833 2ef8 E3160000 		.4byte	0x16e3
 7834 2efc 0C2F0000 		.4byte	0x2f0c
 7835 2f00 5E       		.uleb128 0x5e
 7836 2f01 01       		.uleb128 0x1
 7837 2f02 50       		.byte	0x50
 7838 2f03 02       		.uleb128 0x2
 7839 2f04 74       		.byte	0x74
 7840 2f05 00       		.sleb128 0
 7841 2f06 5E       		.uleb128 0x5e
 7842 2f07 01       		.uleb128 0x1
 7843 2f08 51       		.byte	0x51
 7844 2f09 01       		.uleb128 0x1
 7845 2f0a 30       		.byte	0x30
 7846 2f0b 00       		.byte	0
 7847 2f0c 6F       		.uleb128 0x6f
 7848 2f0d BC010000 		.4byte	.LVL126
 7849 2f11 E3160000 		.4byte	0x16e3
 7850 2f15 252F0000 		.4byte	0x2f25
 7851 2f19 5E       		.uleb128 0x5e
 7852 2f1a 01       		.uleb128 0x1
 7853 2f1b 50       		.byte	0x50
 7854 2f1c 02       		.uleb128 0x2
 7855 2f1d 74       		.byte	0x74
 7856 2f1e 00       		.sleb128 0
 7857 2f1f 5E       		.uleb128 0x5e
 7858 2f20 01       		.uleb128 0x1
 7859 2f21 51       		.byte	0x51
 7860 2f22 01       		.uleb128 0x1
 7861 2f23 31       		.byte	0x31
 7862 2f24 00       		.byte	0
 7863 2f25 6F       		.uleb128 0x6f
 7864 2f26 CA010000 		.4byte	.LVL127
 7865 2f2a E3160000 		.4byte	0x16e3
 7866 2f2e 3E2F0000 		.4byte	0x2f3e
 7867 2f32 5E       		.uleb128 0x5e
 7868 2f33 01       		.uleb128 0x1
 7869 2f34 50       		.byte	0x50
 7870 2f35 02       		.uleb128 0x2
 7871 2f36 74       		.byte	0x74
 7872 2f37 00       		.sleb128 0
 7873 2f38 5E       		.uleb128 0x5e
 7874 2f39 01       		.uleb128 0x1
 7875 2f3a 51       		.byte	0x51
 7876 2f3b 01       		.uleb128 0x1
 7877 2f3c 32       		.byte	0x32
 7878 2f3d 00       		.byte	0
 7879 2f3e 6F       		.uleb128 0x6f
 7880 2f3f D8010000 		.4byte	.LVL128
 7881 2f43 E3160000 		.4byte	0x16e3
 7882 2f47 572F0000 		.4byte	0x2f57
 7883 2f4b 5E       		.uleb128 0x5e
 7884 2f4c 01       		.uleb128 0x1
 7885 2f4d 50       		.byte	0x50
 7886 2f4e 02       		.uleb128 0x2
ARM GAS  C:\Users\jrdia\AppData\Local\Temp\ccFTvYyK.s 			page 170


 7887 2f4f 74       		.byte	0x74
 7888 2f50 00       		.sleb128 0
 7889 2f51 5E       		.uleb128 0x5e
 7890 2f52 01       		.uleb128 0x1
 7891 2f53 51       		.byte	0x51
 7892 2f54 01       		.uleb128 0x1
 7893 2f55 33       		.byte	0x33
 7894 2f56 00       		.byte	0
 7895 2f57 6F       		.uleb128 0x6f
 7896 2f58 E6010000 		.4byte	.LVL129
 7897 2f5c E3160000 		.4byte	0x16e3
 7898 2f60 702F0000 		.4byte	0x2f70
 7899 2f64 5E       		.uleb128 0x5e
 7900 2f65 01       		.uleb128 0x1
 7901 2f66 50       		.byte	0x50
 7902 2f67 02       		.uleb128 0x2
 7903 2f68 74       		.byte	0x74
 7904 2f69 00       		.sleb128 0
 7905 2f6a 5E       		.uleb128 0x5e
 7906 2f6b 01       		.uleb128 0x1
 7907 2f6c 51       		.byte	0x51
 7908 2f6d 01       		.uleb128 0x1
 7909 2f6e 3A       		.byte	0x3a
 7910 2f6f 00       		.byte	0
 7911 2f70 6F       		.uleb128 0x6f
 7912 2f71 F4010000 		.4byte	.LVL130
 7913 2f75 E3160000 		.4byte	0x16e3
 7914 2f79 892F0000 		.4byte	0x2f89
 7915 2f7d 5E       		.uleb128 0x5e
 7916 2f7e 01       		.uleb128 0x1
 7917 2f7f 50       		.byte	0x50
 7918 2f80 02       		.uleb128 0x2
 7919 2f81 74       		.byte	0x74
 7920 2f82 00       		.sleb128 0
 7921 2f83 5E       		.uleb128 0x5e
 7922 2f84 01       		.uleb128 0x1
 7923 2f85 51       		.byte	0x51
 7924 2f86 01       		.uleb128 0x1
 7925 2f87 36       		.byte	0x36
 7926 2f88 00       		.byte	0
 7927 2f89 6F       		.uleb128 0x6f
 7928 2f8a 02020000 		.4byte	.LVL131
 7929 2f8e E3160000 		.4byte	0x16e3
 7930 2f92 A22F0000 		.4byte	0x2fa2
 7931 2f96 5E       		.uleb128 0x5e
 7932 2f97 01       		.uleb128 0x1
 7933 2f98 50       		.byte	0x50
 7934 2f99 02       		.uleb128 0x2
 7935 2f9a 74       		.byte	0x74
 7936 2f9b 00       		.sleb128 0
 7937 2f9c 5E       		.uleb128 0x5e
 7938 2f9d 01       		.uleb128 0x1
 7939 2f9e 51       		.byte	0x51
 7940 2f9f 01       		.uleb128 0x1
 7941 2fa0 3B       		.byte	0x3b
 7942 2fa1 00       		.byte	0
 7943 2fa2 6F       		.uleb128 0x6f
ARM GAS  C:\Users\jrdia\AppData\Local\Temp\ccFTvYyK.s 			page 171


 7944 2fa3 10020000 		.4byte	.LVL132
 7945 2fa7 E3160000 		.4byte	0x16e3
 7946 2fab BB2F0000 		.4byte	0x2fbb
 7947 2faf 5E       		.uleb128 0x5e
 7948 2fb0 01       		.uleb128 0x1
 7949 2fb1 50       		.byte	0x50
 7950 2fb2 02       		.uleb128 0x2
 7951 2fb3 74       		.byte	0x74
 7952 2fb4 00       		.sleb128 0
 7953 2fb5 5E       		.uleb128 0x5e
 7954 2fb6 01       		.uleb128 0x1
 7955 2fb7 51       		.byte	0x51
 7956 2fb8 01       		.uleb128 0x1
 7957 2fb9 37       		.byte	0x37
 7958 2fba 00       		.byte	0
 7959 2fbb 6F       		.uleb128 0x6f
 7960 2fbc 1E020000 		.4byte	.LVL133
 7961 2fc0 E3160000 		.4byte	0x16e3
 7962 2fc4 D42F0000 		.4byte	0x2fd4
 7963 2fc8 5E       		.uleb128 0x5e
 7964 2fc9 01       		.uleb128 0x1
 7965 2fca 50       		.byte	0x50
 7966 2fcb 02       		.uleb128 0x2
 7967 2fcc 74       		.byte	0x74
 7968 2fcd 00       		.sleb128 0
 7969 2fce 5E       		.uleb128 0x5e
 7970 2fcf 01       		.uleb128 0x1
 7971 2fd0 51       		.byte	0x51
 7972 2fd1 01       		.uleb128 0x1
 7973 2fd2 34       		.byte	0x34
 7974 2fd3 00       		.byte	0
 7975 2fd4 6F       		.uleb128 0x6f
 7976 2fd5 2C020000 		.4byte	.LVL134
 7977 2fd9 E3160000 		.4byte	0x16e3
 7978 2fdd ED2F0000 		.4byte	0x2fed
 7979 2fe1 5E       		.uleb128 0x5e
 7980 2fe2 01       		.uleb128 0x1
 7981 2fe3 50       		.byte	0x50
 7982 2fe4 02       		.uleb128 0x2
 7983 2fe5 74       		.byte	0x74
 7984 2fe6 00       		.sleb128 0
 7985 2fe7 5E       		.uleb128 0x5e
 7986 2fe8 01       		.uleb128 0x1
 7987 2fe9 51       		.byte	0x51
 7988 2fea 01       		.uleb128 0x1
 7989 2feb 35       		.byte	0x35
 7990 2fec 00       		.byte	0
 7991 2fed 6F       		.uleb128 0x6f
 7992 2fee 3A020000 		.4byte	.LVL135
 7993 2ff2 E3160000 		.4byte	0x16e3
 7994 2ff6 06300000 		.4byte	0x3006
 7995 2ffa 5E       		.uleb128 0x5e
 7996 2ffb 01       		.uleb128 0x1
 7997 2ffc 50       		.byte	0x50
 7998 2ffd 02       		.uleb128 0x2
 7999 2ffe 74       		.byte	0x74
 8000 2fff 00       		.sleb128 0
ARM GAS  C:\Users\jrdia\AppData\Local\Temp\ccFTvYyK.s 			page 172


 8001 3000 5E       		.uleb128 0x5e
 8002 3001 01       		.uleb128 0x1
 8003 3002 51       		.byte	0x51
 8004 3003 01       		.uleb128 0x1
 8005 3004 41       		.byte	0x41
 8006 3005 00       		.byte	0
 8007 3006 6F       		.uleb128 0x6f
 8008 3007 DC020000 		.4byte	.LVL150
 8009 300b 06170000 		.4byte	0x1706
 8010 300f 1F300000 		.4byte	0x301f
 8011 3013 5E       		.uleb128 0x5e
 8012 3014 01       		.uleb128 0x1
 8013 3015 50       		.byte	0x50
 8014 3016 02       		.uleb128 0x2
 8015 3017 74       		.byte	0x74
 8016 3018 00       		.sleb128 0
 8017 3019 5E       		.uleb128 0x5e
 8018 301a 01       		.uleb128 0x1
 8019 301b 51       		.byte	0x51
 8020 301c 01       		.uleb128 0x1
 8021 301d 39       		.byte	0x39
 8022 301e 00       		.byte	0
 8023 301f 6F       		.uleb128 0x6f
 8024 3020 EC020000 		.4byte	.LVL151
 8025 3024 29170000 		.4byte	0x1729
 8026 3028 38300000 		.4byte	0x3038
 8027 302c 5E       		.uleb128 0x5e
 8028 302d 01       		.uleb128 0x1
 8029 302e 50       		.byte	0x50
 8030 302f 02       		.uleb128 0x2
 8031 3030 74       		.byte	0x74
 8032 3031 00       		.sleb128 0
 8033 3032 5E       		.uleb128 0x5e
 8034 3033 01       		.uleb128 0x1
 8035 3034 51       		.byte	0x51
 8036 3035 01       		.uleb128 0x1
 8037 3036 30       		.byte	0x30
 8038 3037 00       		.byte	0
 8039 3038 6F       		.uleb128 0x6f
 8040 3039 FA020000 		.4byte	.LVL152
 8041 303d 29170000 		.4byte	0x1729
 8042 3041 51300000 		.4byte	0x3051
 8043 3045 5E       		.uleb128 0x5e
 8044 3046 01       		.uleb128 0x1
 8045 3047 50       		.byte	0x50
 8046 3048 02       		.uleb128 0x2
 8047 3049 74       		.byte	0x74
 8048 304a 00       		.sleb128 0
 8049 304b 5E       		.uleb128 0x5e
 8050 304c 01       		.uleb128 0x1
 8051 304d 51       		.byte	0x51
 8052 304e 01       		.uleb128 0x1
 8053 304f 31       		.byte	0x31
 8054 3050 00       		.byte	0
 8055 3051 6F       		.uleb128 0x6f
 8056 3052 08030000 		.4byte	.LVL153
 8057 3056 29170000 		.4byte	0x1729
ARM GAS  C:\Users\jrdia\AppData\Local\Temp\ccFTvYyK.s 			page 173


 8058 305a 6A300000 		.4byte	0x306a
 8059 305e 5E       		.uleb128 0x5e
 8060 305f 01       		.uleb128 0x1
 8061 3060 50       		.byte	0x50
 8062 3061 02       		.uleb128 0x2
 8063 3062 74       		.byte	0x74
 8064 3063 00       		.sleb128 0
 8065 3064 5E       		.uleb128 0x5e
 8066 3065 01       		.uleb128 0x1
 8067 3066 51       		.byte	0x51
 8068 3067 01       		.uleb128 0x1
 8069 3068 31       		.byte	0x31
 8070 3069 00       		.byte	0
 8071 306a 6F       		.uleb128 0x6f
 8072 306b 16030000 		.4byte	.LVL154
 8073 306f 29170000 		.4byte	0x1729
 8074 3073 83300000 		.4byte	0x3083
 8075 3077 5E       		.uleb128 0x5e
 8076 3078 01       		.uleb128 0x1
 8077 3079 50       		.byte	0x50
 8078 307a 02       		.uleb128 0x2
 8079 307b 74       		.byte	0x74
 8080 307c 00       		.sleb128 0
 8081 307d 5E       		.uleb128 0x5e
 8082 307e 01       		.uleb128 0x1
 8083 307f 51       		.byte	0x51
 8084 3080 01       		.uleb128 0x1
 8085 3081 32       		.byte	0x32
 8086 3082 00       		.byte	0
 8087 3083 6F       		.uleb128 0x6f
 8088 3084 24030000 		.4byte	.LVL155
 8089 3088 29170000 		.4byte	0x1729
 8090 308c 9C300000 		.4byte	0x309c
 8091 3090 5E       		.uleb128 0x5e
 8092 3091 01       		.uleb128 0x1
 8093 3092 50       		.byte	0x50
 8094 3093 02       		.uleb128 0x2
 8095 3094 74       		.byte	0x74
 8096 3095 00       		.sleb128 0
 8097 3096 5E       		.uleb128 0x5e
 8098 3097 01       		.uleb128 0x1
 8099 3098 51       		.byte	0x51
 8100 3099 01       		.uleb128 0x1
 8101 309a 32       		.byte	0x32
 8102 309b 00       		.byte	0
 8103 309c 6F       		.uleb128 0x6f
 8104 309d 32030000 		.4byte	.LVL156
 8105 30a1 29170000 		.4byte	0x1729
 8106 30a5 B5300000 		.4byte	0x30b5
 8107 30a9 5E       		.uleb128 0x5e
 8108 30aa 01       		.uleb128 0x1
 8109 30ab 50       		.byte	0x50
 8110 30ac 02       		.uleb128 0x2
 8111 30ad 74       		.byte	0x74
 8112 30ae 00       		.sleb128 0
 8113 30af 5E       		.uleb128 0x5e
 8114 30b0 01       		.uleb128 0x1
ARM GAS  C:\Users\jrdia\AppData\Local\Temp\ccFTvYyK.s 			page 174


 8115 30b1 51       		.byte	0x51
 8116 30b2 01       		.uleb128 0x1
 8117 30b3 33       		.byte	0x33
 8118 30b4 00       		.byte	0
 8119 30b5 6F       		.uleb128 0x6f
 8120 30b6 40030000 		.4byte	.LVL157
 8121 30ba 29170000 		.4byte	0x1729
 8122 30be CE300000 		.4byte	0x30ce
 8123 30c2 5E       		.uleb128 0x5e
 8124 30c3 01       		.uleb128 0x1
 8125 30c4 50       		.byte	0x50
 8126 30c5 02       		.uleb128 0x2
 8127 30c6 74       		.byte	0x74
 8128 30c7 00       		.sleb128 0
 8129 30c8 5E       		.uleb128 0x5e
 8130 30c9 01       		.uleb128 0x1
 8131 30ca 51       		.byte	0x51
 8132 30cb 01       		.uleb128 0x1
 8133 30cc 33       		.byte	0x33
 8134 30cd 00       		.byte	0
 8135 30ce 6F       		.uleb128 0x6f
 8136 30cf 4E030000 		.4byte	.LVL158
 8137 30d3 BE700000 		.4byte	0x70be
 8138 30d7 E5300000 		.4byte	0x30e5
 8139 30db 5E       		.uleb128 0x5e
 8140 30dc 01       		.uleb128 0x1
 8141 30dd 50       		.byte	0x50
 8142 30de 05       		.uleb128 0x5
 8143 30df 03       		.byte	0x3
 8144 30e0 4C010000 		.4byte	.LC67
 8145 30e4 00       		.byte	0
 8146 30e5 6F       		.uleb128 0x6f
 8147 30e6 A6030000 		.4byte	.LVL159
 8148 30ea BE700000 		.4byte	0x70be
 8149 30ee FC300000 		.4byte	0x30fc
 8150 30f2 5E       		.uleb128 0x5e
 8151 30f3 01       		.uleb128 0x1
 8152 30f4 50       		.byte	0x50
 8153 30f5 05       		.uleb128 0x5
 8154 30f6 03       		.byte	0x3
 8155 30f7 C4000000 		.4byte	.LC37
 8156 30fb 00       		.byte	0
 8157 30fc 6F       		.uleb128 0x6f
 8158 30fd AE030000 		.4byte	.LVL160
 8159 3101 E3160000 		.4byte	0x16e3
 8160 3105 15310000 		.4byte	0x3115
 8161 3109 5E       		.uleb128 0x5e
 8162 310a 01       		.uleb128 0x1
 8163 310b 50       		.byte	0x50
 8164 310c 02       		.uleb128 0x2
 8165 310d 74       		.byte	0x74
 8166 310e 00       		.sleb128 0
 8167 310f 5E       		.uleb128 0x5e
 8168 3110 01       		.uleb128 0x1
 8169 3111 51       		.byte	0x51
 8170 3112 01       		.uleb128 0x1
 8171 3113 34       		.byte	0x34
ARM GAS  C:\Users\jrdia\AppData\Local\Temp\ccFTvYyK.s 			page 175


 8172 3114 00       		.byte	0
 8173 3115 6F       		.uleb128 0x6f
 8174 3116 BA030000 		.4byte	.LVL161
 8175 311a BE700000 		.4byte	0x70be
 8176 311e 2C310000 		.4byte	0x312c
 8177 3122 5E       		.uleb128 0x5e
 8178 3123 01       		.uleb128 0x1
 8179 3124 50       		.byte	0x50
 8180 3125 05       		.uleb128 0x5
 8181 3126 03       		.byte	0x3
 8182 3127 CC000000 		.4byte	.LC39
 8183 312b 00       		.byte	0
 8184 312c 6F       		.uleb128 0x6f
 8185 312d C2030000 		.4byte	.LVL162
 8186 3131 E3160000 		.4byte	0x16e3
 8187 3135 45310000 		.4byte	0x3145
 8188 3139 5E       		.uleb128 0x5e
 8189 313a 01       		.uleb128 0x1
 8190 313b 50       		.byte	0x50
 8191 313c 02       		.uleb128 0x2
 8192 313d 74       		.byte	0x74
 8193 313e 00       		.sleb128 0
 8194 313f 5E       		.uleb128 0x5e
 8195 3140 01       		.uleb128 0x1
 8196 3141 51       		.byte	0x51
 8197 3142 01       		.uleb128 0x1
 8198 3143 35       		.byte	0x35
 8199 3144 00       		.byte	0
 8200 3145 6F       		.uleb128 0x6f
 8201 3146 CE030000 		.4byte	.LVL163
 8202 314a BE700000 		.4byte	0x70be
 8203 314e 5C310000 		.4byte	0x315c
 8204 3152 5E       		.uleb128 0x5e
 8205 3153 01       		.uleb128 0x1
 8206 3154 50       		.byte	0x50
 8207 3155 05       		.uleb128 0x5
 8208 3156 03       		.byte	0x3
 8209 3157 D4000000 		.4byte	.LC41
 8210 315b 00       		.byte	0
 8211 315c 6F       		.uleb128 0x6f
 8212 315d E4030000 		.4byte	.LVL164
 8213 3161 E3160000 		.4byte	0x16e3
 8214 3165 75310000 		.4byte	0x3175
 8215 3169 5E       		.uleb128 0x5e
 8216 316a 01       		.uleb128 0x1
 8217 316b 50       		.byte	0x50
 8218 316c 02       		.uleb128 0x2
 8219 316d 74       		.byte	0x74
 8220 316e 00       		.sleb128 0
 8221 316f 5E       		.uleb128 0x5e
 8222 3170 01       		.uleb128 0x1
 8223 3171 51       		.byte	0x51
 8224 3172 01       		.uleb128 0x1
 8225 3173 41       		.byte	0x41
 8226 3174 00       		.byte	0
 8227 3175 6F       		.uleb128 0x6f
 8228 3176 F0030000 		.4byte	.LVL165
ARM GAS  C:\Users\jrdia\AppData\Local\Temp\ccFTvYyK.s 			page 176


 8229 317a BE700000 		.4byte	0x70be
 8230 317e 8C310000 		.4byte	0x318c
 8231 3182 5E       		.uleb128 0x5e
 8232 3183 01       		.uleb128 0x1
 8233 3184 50       		.byte	0x50
 8234 3185 05       		.uleb128 0x5
 8235 3186 03       		.byte	0x3
 8236 3187 E0000000 		.4byte	.LC43
 8237 318b 00       		.byte	0
 8238 318c 6F       		.uleb128 0x6f
 8239 318d 06040000 		.4byte	.LVL166
 8240 3191 BE700000 		.4byte	0x70be
 8241 3195 A3310000 		.4byte	0x31a3
 8242 3199 5E       		.uleb128 0x5e
 8243 319a 01       		.uleb128 0x1
 8244 319b 50       		.byte	0x50
 8245 319c 05       		.uleb128 0x5
 8246 319d 03       		.byte	0x3
 8247 319e BC000000 		.4byte	.LC35
 8248 31a2 00       		.byte	0
 8249 31a3 6F       		.uleb128 0x6f
 8250 31a4 0E040000 		.4byte	.LVL167
 8251 31a8 BE700000 		.4byte	0x70be
 8252 31ac BA310000 		.4byte	0x31ba
 8253 31b0 5E       		.uleb128 0x5e
 8254 31b1 01       		.uleb128 0x1
 8255 31b2 50       		.byte	0x50
 8256 31b3 05       		.uleb128 0x5
 8257 31b4 03       		.byte	0x3
 8258 31b5 B4000000 		.4byte	.LC33
 8259 31b9 00       		.byte	0
 8260 31ba 6F       		.uleb128 0x6f
 8261 31bb 16040000 		.4byte	.LVL168
 8262 31bf BE700000 		.4byte	0x70be
 8263 31c3 D1310000 		.4byte	0x31d1
 8264 31c7 5E       		.uleb128 0x5e
 8265 31c8 01       		.uleb128 0x1
 8266 31c9 50       		.byte	0x50
 8267 31ca 05       		.uleb128 0x5
 8268 31cb 03       		.byte	0x3
 8269 31cc AC000000 		.4byte	.LC31
 8270 31d0 00       		.byte	0
 8271 31d1 6F       		.uleb128 0x6f
 8272 31d2 1E040000 		.4byte	.LVL169
 8273 31d6 BE700000 		.4byte	0x70be
 8274 31da E8310000 		.4byte	0x31e8
 8275 31de 5E       		.uleb128 0x5e
 8276 31df 01       		.uleb128 0x1
 8277 31e0 50       		.byte	0x50
 8278 31e1 05       		.uleb128 0x5
 8279 31e2 03       		.byte	0x3
 8280 31e3 A4000000 		.4byte	.LC29
 8281 31e7 00       		.byte	0
 8282 31e8 6F       		.uleb128 0x6f
 8283 31e9 44040000 		.4byte	.LVL172
 8284 31ed BE700000 		.4byte	0x70be
 8285 31f1 FF310000 		.4byte	0x31ff
ARM GAS  C:\Users\jrdia\AppData\Local\Temp\ccFTvYyK.s 			page 177


 8286 31f5 5E       		.uleb128 0x5e
 8287 31f6 01       		.uleb128 0x1
 8288 31f7 50       		.byte	0x50
 8289 31f8 05       		.uleb128 0x5
 8290 31f9 03       		.byte	0x3
 8291 31fa 9C000000 		.4byte	.LC27
 8292 31fe 00       		.byte	0
 8293 31ff 6F       		.uleb128 0x6f
 8294 3200 6C040000 		.4byte	.LVL175
 8295 3204 BE700000 		.4byte	0x70be
 8296 3208 16320000 		.4byte	0x3216
 8297 320c 5E       		.uleb128 0x5e
 8298 320d 01       		.uleb128 0x1
 8299 320e 50       		.byte	0x50
 8300 320f 05       		.uleb128 0x5
 8301 3210 03       		.byte	0x3
 8302 3211 94000000 		.4byte	.LC25
 8303 3215 00       		.byte	0
 8304 3216 6F       		.uleb128 0x6f
 8305 3217 92040000 		.4byte	.LVL178
 8306 321b BE700000 		.4byte	0x70be
 8307 321f 2D320000 		.4byte	0x322d
 8308 3223 5E       		.uleb128 0x5e
 8309 3224 01       		.uleb128 0x1
 8310 3225 50       		.byte	0x50
 8311 3226 05       		.uleb128 0x5
 8312 3227 03       		.byte	0x3
 8313 3228 8C000000 		.4byte	.LC23
 8314 322c 00       		.byte	0
 8315 322d 6F       		.uleb128 0x6f
 8316 322e B8040000 		.4byte	.LVL181
 8317 3232 BE700000 		.4byte	0x70be
 8318 3236 44320000 		.4byte	0x3244
 8319 323a 5E       		.uleb128 0x5e
 8320 323b 01       		.uleb128 0x1
 8321 323c 50       		.byte	0x50
 8322 323d 05       		.uleb128 0x5
 8323 323e 03       		.byte	0x3
 8324 323f 80000000 		.4byte	.LC21
 8325 3243 00       		.byte	0
 8326 3244 6F       		.uleb128 0x6f
 8327 3245 D6040000 		.4byte	.LVL183
 8328 3249 BE700000 		.4byte	0x70be
 8329 324d 5B320000 		.4byte	0x325b
 8330 3251 5E       		.uleb128 0x5e
 8331 3252 01       		.uleb128 0x1
 8332 3253 50       		.byte	0x50
 8333 3254 05       		.uleb128 0x5
 8334 3255 03       		.byte	0x3
 8335 3256 78000000 		.4byte	.LC19
 8336 325a 00       		.byte	0
 8337 325b 6F       		.uleb128 0x6f
 8338 325c F4040000 		.4byte	.LVL185
 8339 3260 BE700000 		.4byte	0x70be
 8340 3264 72320000 		.4byte	0x3272
 8341 3268 5E       		.uleb128 0x5e
 8342 3269 01       		.uleb128 0x1
ARM GAS  C:\Users\jrdia\AppData\Local\Temp\ccFTvYyK.s 			page 178


 8343 326a 50       		.byte	0x50
 8344 326b 05       		.uleb128 0x5
 8345 326c 03       		.byte	0x3
 8346 326d 6C000000 		.4byte	.LC17
 8347 3271 00       		.byte	0
 8348 3272 6F       		.uleb128 0x6f
 8349 3273 14050000 		.4byte	.LVL187
 8350 3277 BE700000 		.4byte	0x70be
 8351 327b 89320000 		.4byte	0x3289
 8352 327f 5E       		.uleb128 0x5e
 8353 3280 01       		.uleb128 0x1
 8354 3281 50       		.byte	0x50
 8355 3282 05       		.uleb128 0x5
 8356 3283 03       		.byte	0x3
 8357 3284 60000000 		.4byte	.LC15
 8358 3288 00       		.byte	0
 8359 3289 6F       		.uleb128 0x6f
 8360 328a 34050000 		.4byte	.LVL189
 8361 328e 06170000 		.4byte	0x1706
 8362 3292 A2320000 		.4byte	0x32a2
 8363 3296 5E       		.uleb128 0x5e
 8364 3297 01       		.uleb128 0x1
 8365 3298 50       		.byte	0x50
 8366 3299 02       		.uleb128 0x2
 8367 329a 74       		.byte	0x74
 8368 329b 00       		.sleb128 0
 8369 329c 5E       		.uleb128 0x5e
 8370 329d 01       		.uleb128 0x1
 8371 329e 51       		.byte	0x51
 8372 329f 01       		.uleb128 0x1
 8373 32a0 39       		.byte	0x39
 8374 32a1 00       		.byte	0
 8375 32a2 60       		.uleb128 0x60
 8376 32a3 48050000 		.4byte	.LVL191
 8377 32a7 8B700000 		.4byte	0x708b
 8378 32ab 5E       		.uleb128 0x5e
 8379 32ac 01       		.uleb128 0x1
 8380 32ad 50       		.byte	0x50
 8381 32ae 05       		.uleb128 0x5
 8382 32af 03       		.byte	0x3
 8383 32b0 2C000000 		.4byte	.LC7
 8384 32b4 00       		.byte	0
 8385 32b5 00       		.byte	0
 8386 32b6 50       		.uleb128 0x50
 8387 32b7 AE140000 		.4byte	0x14ae
 8388 32bb 02       		.byte	0x2
 8389 32bc C4320000 		.4byte	0x32c4
 8390 32c0 ED320000 		.4byte	0x32ed
 8391 32c4 51       		.uleb128 0x51
 8392 32c5 A02F0000 		.4byte	.LASF423
 8393 32c9 4A1D0000 		.4byte	0x1d4a
 8394 32cd 55       		.uleb128 0x55
 8395 32ce 7000     		.ascii	"p\000"
 8396 32d0 02       		.byte	0x2
 8397 32d1 24       		.byte	0x24
 8398 32d2 4B1A0000 		.4byte	0x1a4b
 8399 32d6 54       		.uleb128 0x54
ARM GAS  C:\Users\jrdia\AppData\Local\Temp\ccFTvYyK.s 			page 179


 8400 32d7 E4500000 		.4byte	.LASF436
 8401 32db 02       		.byte	0x2
 8402 32dc 24       		.byte	0x24
 8403 32dd 1C010000 		.4byte	0x11c
 8404 32e1 55       		.uleb128 0x55
 8405 32e2 70696E00 		.ascii	"pin\000"
 8406 32e6 02       		.byte	0x2
 8407 32e7 24       		.byte	0x24
 8408 32e8 0A010000 		.4byte	0x10a
 8409 32ec 00       		.byte	0
 8410 32ed 7E       		.uleb128 0x7e
 8411 32ee 70070000 		.4byte	.LASF1336
 8412 32f2 00000000 		.4byte	.LFB334
 8413 32f6 60000000 		.4byte	.LFE334-.LFB334
 8414 32fa 01       		.uleb128 0x1
 8415 32fb 9C       		.byte	0x9c
 8416 32fc E2330000 		.4byte	0x33e2
 8417 3300 79       		.uleb128 0x79
 8418 3301 891F0000 		.4byte	0x1f89
 8419 3305 02000000 		.4byte	.LBB233
 8420 3309 D0000000 		.4byte	.Ldebug_ranges0+0xd0
 8421 330d 05       		.byte	0x5
 8422 330e D6       		.byte	0xd6
 8423 330f 64       		.uleb128 0x64
 8424 3310 931F0000 		.4byte	0x1f93
 8425 3314 9C080000 		.4byte	.LLST83
 8426 3318 64       		.uleb128 0x64
 8427 3319 9E1F0000 		.4byte	0x1f9e
 8428 331d B0080000 		.4byte	.LLST84
 8429 3321 66       		.uleb128 0x66
 8430 3322 B6320000 		.4byte	0x32b6
 8431 3326 18000000 		.4byte	.LBB235
 8432 332a 2C000000 		.4byte	.LBE235-.LBB235
 8433 332e 05       		.byte	0x5
 8434 332f 49       		.byte	0x49
 8435 3330 BE330000 		.4byte	0x33be
 8436 3334 64       		.uleb128 0x64
 8437 3335 E1320000 		.4byte	0x32e1
 8438 3339 C6080000 		.4byte	.LLST85
 8439 333d 64       		.uleb128 0x64
 8440 333e D6320000 		.4byte	0x32d6
 8441 3342 DE080000 		.4byte	.LLST86
 8442 3346 64       		.uleb128 0x64
 8443 3347 CD320000 		.4byte	0x32cd
 8444 334b F2080000 		.4byte	.LLST87
 8445 334f 64       		.uleb128 0x64
 8446 3350 C4320000 		.4byte	0x32c4
 8447 3354 0A090000 		.4byte	.LLST88
 8448 3358 63       		.uleb128 0x63
 8449 3359 1A1D0000 		.4byte	0x1d1a
 8450 335d 1E000000 		.4byte	.LBB237
 8451 3361 E8000000 		.4byte	.Ldebug_ranges0+0xe8
 8452 3365 02       		.byte	0x2
 8453 3366 25       		.byte	0x25
 8454 3367 85330000 		.4byte	0x3385
 8455 336b 64       		.uleb128 0x64
 8456 336c 281D0000 		.4byte	0x1d28
ARM GAS  C:\Users\jrdia\AppData\Local\Temp\ccFTvYyK.s 			page 180


 8457 3370 22090000 		.4byte	.LLST89
 8458 3374 60       		.uleb128 0x60
 8459 3375 36000000 		.4byte	.LVL196
 8460 3379 D7190000 		.4byte	0x19d7
 8461 337d 5E       		.uleb128 0x5e
 8462 337e 01       		.uleb128 0x1
 8463 337f 50       		.byte	0x50
 8464 3380 02       		.uleb128 0x2
 8465 3381 75       		.byte	0x75
 8466 3382 00       		.sleb128 0
 8467 3383 00       		.byte	0
 8468 3384 00       		.byte	0
 8469 3385 7F       		.uleb128 0x7f
 8470 3386 2A000000 		.4byte	.LVL195
 8471 338a AD330000 		.4byte	0x33ad
 8472 338e 5E       		.uleb128 0x5e
 8473 338f 01       		.uleb128 0x1
 8474 3390 50       		.byte	0x50
 8475 3391 03       		.uleb128 0x3
 8476 3392 74       		.byte	0x74
 8477 3393 C400     		.sleb128 68
 8478 3395 5E       		.uleb128 0x5e
 8479 3396 01       		.uleb128 0x1
 8480 3397 51       		.byte	0x51
 8481 3398 05       		.uleb128 0x5
 8482 3399 03       		.byte	0x3
 8483 339a 44010000 		.4byte	.LANCHOR2+68
 8484 339e 5E       		.uleb128 0x5e
 8485 339f 01       		.uleb128 0x1
 8486 33a0 52       		.byte	0x52
 8487 33a1 01       		.uleb128 0x1
 8488 33a2 31       		.byte	0x31
 8489 33a3 5E       		.uleb128 0x5e
 8490 33a4 01       		.uleb128 0x1
 8491 33a5 53       		.byte	0x53
 8492 33a6 05       		.uleb128 0x5
 8493 33a7 03       		.byte	0x3
 8494 33a8 50010000 		.4byte	.LC86
 8495 33ac 00       		.byte	0
 8496 33ad 60       		.uleb128 0x60
 8497 33ae 44000000 		.4byte	.LVL197
 8498 33b2 D7190000 		.4byte	0x19d7
 8499 33b6 5E       		.uleb128 0x5e
 8500 33b7 01       		.uleb128 0x1
 8501 33b8 50       		.byte	0x50
 8502 33b9 02       		.uleb128 0x2
 8503 33ba 75       		.byte	0x75
 8504 33bb 00       		.sleb128 0
 8505 33bc 00       		.byte	0
 8506 33bd 00       		.byte	0
 8507 33be 7F       		.uleb128 0x7f
 8508 33bf 0C000000 		.4byte	.LVL193
 8509 33c3 CE330000 		.4byte	0x33ce
 8510 33c7 5E       		.uleb128 0x5e
 8511 33c8 01       		.uleb128 0x1
 8512 33c9 50       		.byte	0x50
 8513 33ca 02       		.uleb128 0x2
ARM GAS  C:\Users\jrdia\AppData\Local\Temp\ccFTvYyK.s 			page 181


 8514 33cb 74       		.byte	0x74
 8515 33cc 00       		.sleb128 0
 8516 33cd 00       		.byte	0
 8517 33ce 5D       		.uleb128 0x5d
 8518 33cf 18000000 		.4byte	.LVL194
 8519 33d3 5E       		.uleb128 0x5e
 8520 33d4 01       		.uleb128 0x1
 8521 33d5 50       		.byte	0x50
 8522 33d6 02       		.uleb128 0x2
 8523 33d7 75       		.byte	0x75
 8524 33d8 00       		.sleb128 0
 8525 33d9 5E       		.uleb128 0x5e
 8526 33da 01       		.uleb128 0x1
 8527 33db 51       		.byte	0x51
 8528 33dc 02       		.uleb128 0x2
 8529 33dd 74       		.byte	0x74
 8530 33de 00       		.sleb128 0
 8531 33df 00       		.byte	0
 8532 33e0 00       		.byte	0
 8533 33e1 00       		.byte	0
 8534 33e2 8001     		.uleb128 0x80
 8535 33e4 F8020000 		.4byte	.LASF437
 8536 33e8 05       		.byte	0x5
 8537 33e9 13       		.byte	0x13
 8538 33ea EA0E0000 		.4byte	0xeea
 8539 33ee 35       		.byte	0x35
 8540 33ef 8001     		.uleb128 0x80
 8541 33f1 A7220000 		.4byte	.LASF438
 8542 33f5 05       		.byte	0x5
 8543 33f6 14       		.byte	0x14
 8544 33f7 EA0E0000 		.4byte	0xeea
 8545 33fb 33       		.byte	0x33
 8546 33fc 8001     		.uleb128 0x80
 8547 33fe 7D4F0000 		.4byte	.LASF439
 8548 3402 05       		.byte	0x5
 8549 3403 15       		.byte	0x15
 8550 3404 EA0E0000 		.4byte	0xeea
 8551 3408 32       		.byte	0x32
 8552 3409 8001     		.uleb128 0x80
 8553 340b 85220000 		.4byte	.LASF440
 8554 340f 05       		.byte	0x5
 8555 3410 16       		.byte	0x16
 8556 3411 EA0E0000 		.4byte	0xeea
 8557 3415 34       		.byte	0x34
 8558 3416 8101     		.uleb128 0x81
 8559 3418 CE250000 		.4byte	.LASF441
 8560 341c 06       		.byte	0x6
 8561 341d 19       		.byte	0x19
 8562 341e 94000000 		.4byte	0x94
 8563 3422 05       		.uleb128 0x5
 8564 3423 03       		.byte	0x3
 8565 3424 00000000 		.4byte	PORTB
 8566 3428 8101     		.uleb128 0x81
 8567 342a 12680000 		.4byte	.LASF442
 8568 342e 06       		.byte	0x6
 8569 342f 1A       		.byte	0x1a
 8570 3430 94000000 		.4byte	0x94
ARM GAS  C:\Users\jrdia\AppData\Local\Temp\ccFTvYyK.s 			page 182


 8571 3434 05       		.uleb128 0x5
 8572 3435 03       		.byte	0x3
 8573 3436 00000000 		.4byte	DDRB
 8574 343a 8101     		.uleb128 0x81
 8575 343c 62140000 		.4byte	.LASF443
 8576 3440 06       		.byte	0x6
 8577 3441 1B       		.byte	0x1b
 8578 3442 94000000 		.4byte	0x94
 8579 3446 05       		.uleb128 0x5
 8580 3447 03       		.byte	0x3
 8581 3448 00000000 		.4byte	PINB
 8582 344c 8201     		.uleb128 0x82
 8583 344e 50643100 		.ascii	"Pd1\000"
 8584 3452 05       		.byte	0x5
 8585 3453 2A       		.byte	0x2a
 8586 3454 AD000000 		.4byte	0xad
 8587 3458 05       		.uleb128 0x5
 8588 3459 03       		.byte	0x3
 8589 345a 00000000 		.4byte	Pd1
 8590 345e 8201     		.uleb128 0x82
 8591 3460 50643200 		.ascii	"Pd2\000"
 8592 3464 05       		.byte	0x5
 8593 3465 2B       		.byte	0x2b
 8594 3466 AD000000 		.4byte	0xad
 8595 346a 05       		.uleb128 0x5
 8596 346b 03       		.byte	0x3
 8597 346c 00000000 		.4byte	Pd2
 8598 3470 8201     		.uleb128 0x82
 8599 3472 50643300 		.ascii	"Pd3\000"
 8600 3476 05       		.byte	0x5
 8601 3477 2C       		.byte	0x2c
 8602 3478 AD000000 		.4byte	0xad
 8603 347c 05       		.uleb128 0x5
 8604 347d 03       		.byte	0x3
 8605 347e 00000000 		.4byte	Pd3
 8606 3482 8201     		.uleb128 0x82
 8607 3484 50643400 		.ascii	"Pd4\000"
 8608 3488 05       		.byte	0x5
 8609 3489 2D       		.byte	0x2d
 8610 348a AD000000 		.4byte	0xad
 8611 348e 05       		.uleb128 0x5
 8612 348f 03       		.byte	0x3
 8613 3490 00000000 		.4byte	Pd4
 8614 3494 8201     		.uleb128 0x82
 8615 3496 50643500 		.ascii	"Pd5\000"
 8616 349a 05       		.byte	0x5
 8617 349b 2E       		.byte	0x2e
 8618 349c AD000000 		.4byte	0xad
 8619 34a0 05       		.uleb128 0x5
 8620 34a1 03       		.byte	0x3
 8621 34a2 00000000 		.4byte	Pd5
 8622 34a6 8201     		.uleb128 0x82
 8623 34a8 50643600 		.ascii	"Pd6\000"
 8624 34ac 05       		.byte	0x5
 8625 34ad 2F       		.byte	0x2f
 8626 34ae AD000000 		.4byte	0xad
 8627 34b2 05       		.uleb128 0x5
ARM GAS  C:\Users\jrdia\AppData\Local\Temp\ccFTvYyK.s 			page 183


 8628 34b3 03       		.byte	0x3
 8629 34b4 00000000 		.4byte	Pd6
 8630 34b8 8201     		.uleb128 0x82
 8631 34ba 50643700 		.ascii	"Pd7\000"
 8632 34be 05       		.byte	0x5
 8633 34bf 30       		.byte	0x30
 8634 34c0 AD000000 		.4byte	0xad
 8635 34c4 05       		.uleb128 0x5
 8636 34c5 03       		.byte	0x3
 8637 34c6 00000000 		.4byte	Pd7
 8638 34ca 8201     		.uleb128 0x82
 8639 34cc 50643800 		.ascii	"Pd8\000"
 8640 34d0 05       		.byte	0x5
 8641 34d1 31       		.byte	0x31
 8642 34d2 AD000000 		.4byte	0xad
 8643 34d6 05       		.uleb128 0x5
 8644 34d7 03       		.byte	0x3
 8645 34d8 00000000 		.4byte	Pd8
 8646 34dc 8201     		.uleb128 0x82
 8647 34de 50643000 		.ascii	"Pd0\000"
 8648 34e2 05       		.byte	0x5
 8649 34e3 32       		.byte	0x32
 8650 34e4 AD000000 		.4byte	0xad
 8651 34e8 05       		.uleb128 0x5
 8652 34e9 03       		.byte	0x3
 8653 34ea 00000000 		.4byte	Pd0
 8654 34ee 8301     		.uleb128 0x83
 8655 34f0 DA570000 		.4byte	.LASF444
 8656 34f4 0F       		.byte	0xf
 8657 34f5 16       		.byte	0x16
 8658 34f6 94000000 		.4byte	0x94
 8659 34fa 2F       		.uleb128 0x2f
 8660 34fb 10010000 		.4byte	0x110
 8661 34ff 0A350000 		.4byte	0x350a
 8662 3503 30       		.uleb128 0x30
 8663 3504 01010000 		.4byte	0x101
 8664 3508 01       		.byte	0x1
 8665 3509 00       		.byte	0
 8666 350a 8401     		.uleb128 0x84
 8667 350c 11010000 		.4byte	.LASF445
 8668 3510 10       		.byte	0x10
 8669 3511 16       		.byte	0x16
 8670 3512 16350000 		.4byte	0x3516
 8671 3516 09       		.uleb128 0x9
 8672 3517 FA340000 		.4byte	0x34fa
 8673 351b 2F       		.uleb128 0x2f
 8674 351c 10010000 		.4byte	0x110
 8675 3520 2B350000 		.4byte	0x352b
 8676 3524 30       		.uleb128 0x30
 8677 3525 01010000 		.4byte	0x101
 8678 3529 02       		.byte	0x2
 8679 352a 00       		.byte	0
 8680 352b 8501     		.uleb128 0x85
 8681 352d 6D5C0000 		.4byte	.LASF446
 8682 3531 10       		.byte	0x10
 8683 3532 17       		.byte	0x17
 8684 3533 3D350000 		.4byte	0x353d
ARM GAS  C:\Users\jrdia\AppData\Local\Temp\ccFTvYyK.s 			page 184


 8685 3537 05       		.uleb128 0x5
 8686 3538 03       		.byte	0x3
 8687 3539 4C010000 		.4byte	.LC67
 8688 353d 09       		.uleb128 0x9
 8689 353e 1B350000 		.4byte	0x351b
 8690 3542 8501     		.uleb128 0x85
 8691 3544 365F0000 		.4byte	.LASF447
 8692 3548 10       		.byte	0x10
 8693 3549 18       		.byte	0x18
 8694 354a 54350000 		.4byte	0x3554
 8695 354e 05       		.uleb128 0x5
 8696 354f 03       		.byte	0x3
 8697 3550 FC000000 		.4byte	.LC53
 8698 3554 09       		.uleb128 0x9
 8699 3555 FA340000 		.4byte	0x34fa
 8700 3559 8401     		.uleb128 0x84
 8701 355b 8C3B0000 		.4byte	.LASF448
 8702 355f 10       		.byte	0x10
 8703 3560 19       		.byte	0x19
 8704 3561 65350000 		.4byte	0x3565
 8705 3565 09       		.uleb128 0x9
 8706 3566 1B350000 		.4byte	0x351b
 8707 356a 2F       		.uleb128 0x2f
 8708 356b 10010000 		.4byte	0x110
 8709 356f 7A350000 		.4byte	0x357a
 8710 3573 30       		.uleb128 0x30
 8711 3574 01010000 		.4byte	0x101
 8712 3578 03       		.byte	0x3
 8713 3579 00       		.byte	0
 8714 357a 8401     		.uleb128 0x84
 8715 357c B3460000 		.4byte	.LASF449
 8716 3580 10       		.byte	0x10
 8717 3581 1A       		.byte	0x1a
 8718 3582 86350000 		.4byte	0x3586
 8719 3586 09       		.uleb128 0x9
 8720 3587 6A350000 		.4byte	0x356a
 8721 358b 2F       		.uleb128 0x2f
 8722 358c 10010000 		.4byte	0x110
 8723 3590 9B350000 		.4byte	0x359b
 8724 3594 30       		.uleb128 0x30
 8725 3595 01010000 		.4byte	0x101
 8726 3599 05       		.byte	0x5
 8727 359a 00       		.byte	0
 8728 359b 8401     		.uleb128 0x84
 8729 359d A7360000 		.4byte	.LASF450
 8730 35a1 10       		.byte	0x10
 8731 35a2 1D       		.byte	0x1d
 8732 35a3 A7350000 		.4byte	0x35a7
 8733 35a7 09       		.uleb128 0x9
 8734 35a8 8B350000 		.4byte	0x358b
 8735 35ac 2F       		.uleb128 0x2f
 8736 35ad 10010000 		.4byte	0x110
 8737 35b1 BC350000 		.4byte	0x35bc
 8738 35b5 30       		.uleb128 0x30
 8739 35b6 01010000 		.4byte	0x101
 8740 35ba 11       		.byte	0x11
 8741 35bb 00       		.byte	0
ARM GAS  C:\Users\jrdia\AppData\Local\Temp\ccFTvYyK.s 			page 185


 8742 35bc 8401     		.uleb128 0x84
 8743 35be 4D630000 		.4byte	.LASF451
 8744 35c2 10       		.byte	0x10
 8745 35c3 1E       		.byte	0x1e
 8746 35c4 C8350000 		.4byte	0x35c8
 8747 35c8 09       		.uleb128 0x9
 8748 35c9 AC350000 		.4byte	0x35ac
 8749 35cd 2F       		.uleb128 0x2f
 8750 35ce 10010000 		.4byte	0x110
 8751 35d2 DD350000 		.4byte	0x35dd
 8752 35d6 30       		.uleb128 0x30
 8753 35d7 01010000 		.4byte	0x101
 8754 35db 0A       		.byte	0xa
 8755 35dc 00       		.byte	0
 8756 35dd 8401     		.uleb128 0x84
 8757 35df 87340000 		.4byte	.LASF452
 8758 35e3 10       		.byte	0x10
 8759 35e4 1F       		.byte	0x1f
 8760 35e5 E9350000 		.4byte	0x35e9
 8761 35e9 09       		.uleb128 0x9
 8762 35ea CD350000 		.4byte	0x35cd
 8763 35ee 2F       		.uleb128 0x2f
 8764 35ef 10010000 		.4byte	0x110
 8765 35f3 FE350000 		.4byte	0x35fe
 8766 35f7 30       		.uleb128 0x30
 8767 35f8 01010000 		.4byte	0x101
 8768 35fc 08       		.byte	0x8
 8769 35fd 00       		.byte	0
 8770 35fe 8401     		.uleb128 0x84
 8771 3600 93280000 		.4byte	.LASF453
 8772 3604 10       		.byte	0x10
 8773 3605 20       		.byte	0x20
 8774 3606 0A360000 		.4byte	0x360a
 8775 360a 09       		.uleb128 0x9
 8776 360b EE350000 		.4byte	0x35ee
 8777 360f 2F       		.uleb128 0x2f
 8778 3610 10010000 		.4byte	0x110
 8779 3614 1F360000 		.4byte	0x361f
 8780 3618 30       		.uleb128 0x30
 8781 3619 01010000 		.4byte	0x101
 8782 361d 0B       		.byte	0xb
 8783 361e 00       		.byte	0
 8784 361f 8401     		.uleb128 0x84
 8785 3621 CC4B0000 		.4byte	.LASF454
 8786 3625 10       		.byte	0x10
 8787 3626 21       		.byte	0x21
 8788 3627 2B360000 		.4byte	0x362b
 8789 362b 09       		.uleb128 0x9
 8790 362c 0F360000 		.4byte	0x360f
 8791 3630 8401     		.uleb128 0x84
 8792 3632 D74C0000 		.4byte	.LASF455
 8793 3636 10       		.byte	0x10
 8794 3637 22       		.byte	0x22
 8795 3638 3C360000 		.4byte	0x363c
 8796 363c 09       		.uleb128 0x9
 8797 363d CD350000 		.4byte	0x35cd
 8798 3641 2F       		.uleb128 0x2f
ARM GAS  C:\Users\jrdia\AppData\Local\Temp\ccFTvYyK.s 			page 186


 8799 3642 10010000 		.4byte	0x110
 8800 3646 51360000 		.4byte	0x3651
 8801 364a 30       		.uleb128 0x30
 8802 364b 01010000 		.4byte	0x101
 8803 364f 0D       		.byte	0xd
 8804 3650 00       		.byte	0
 8805 3651 8401     		.uleb128 0x84
 8806 3653 4D070000 		.4byte	.LASF456
 8807 3657 10       		.byte	0x10
 8808 3658 23       		.byte	0x23
 8809 3659 5D360000 		.4byte	0x365d
 8810 365d 09       		.uleb128 0x9
 8811 365e 41360000 		.4byte	0x3641
 8812 3662 8401     		.uleb128 0x84
 8813 3664 CF2E0000 		.4byte	.LASF457
 8814 3668 10       		.byte	0x10
 8815 3669 24       		.byte	0x24
 8816 366a 6E360000 		.4byte	0x366e
 8817 366e 09       		.uleb128 0x9
 8818 366f 0F360000 		.4byte	0x360f
 8819 3673 2F       		.uleb128 0x2f
 8820 3674 10010000 		.4byte	0x110
 8821 3678 83360000 		.4byte	0x3683
 8822 367c 30       		.uleb128 0x30
 8823 367d 01010000 		.4byte	0x101
 8824 3681 04       		.byte	0x4
 8825 3682 00       		.byte	0
 8826 3683 8401     		.uleb128 0x84
 8827 3685 94120000 		.4byte	.LASF458
 8828 3689 10       		.byte	0x10
 8829 368a 25       		.byte	0x25
 8830 368b 8F360000 		.4byte	0x368f
 8831 368f 09       		.uleb128 0x9
 8832 3690 73360000 		.4byte	0x3673
 8833 3694 2F       		.uleb128 0x2f
 8834 3695 10010000 		.4byte	0x110
 8835 3699 A4360000 		.4byte	0x36a4
 8836 369d 30       		.uleb128 0x30
 8837 369e 01010000 		.4byte	0x101
 8838 36a2 06       		.byte	0x6
 8839 36a3 00       		.byte	0
 8840 36a4 8401     		.uleb128 0x84
 8841 36a6 AD020000 		.4byte	.LASF459
 8842 36aa 10       		.byte	0x10
 8843 36ab 26       		.byte	0x26
 8844 36ac B0360000 		.4byte	0x36b0
 8845 36b0 09       		.uleb128 0x9
 8846 36b1 94360000 		.4byte	0x3694
 8847 36b5 2F       		.uleb128 0x2f
 8848 36b6 10010000 		.4byte	0x110
 8849 36ba C5360000 		.4byte	0x36c5
 8850 36be 30       		.uleb128 0x30
 8851 36bf 01010000 		.4byte	0x101
 8852 36c3 07       		.byte	0x7
 8853 36c4 00       		.byte	0
 8854 36c5 8401     		.uleb128 0x84
 8855 36c7 7B090000 		.4byte	.LASF460
ARM GAS  C:\Users\jrdia\AppData\Local\Temp\ccFTvYyK.s 			page 187


 8856 36cb 10       		.byte	0x10
 8857 36cc 27       		.byte	0x27
 8858 36cd D1360000 		.4byte	0x36d1
 8859 36d1 09       		.uleb128 0x9
 8860 36d2 B5360000 		.4byte	0x36b5
 8861 36d6 8401     		.uleb128 0x84
 8862 36d8 48320000 		.4byte	.LASF461
 8863 36dc 10       		.byte	0x10
 8864 36dd 28       		.byte	0x28
 8865 36de E2360000 		.4byte	0x36e2
 8866 36e2 09       		.uleb128 0x9
 8867 36e3 6A350000 		.4byte	0x356a
 8868 36e7 8401     		.uleb128 0x84
 8869 36e9 E8140000 		.4byte	.LASF462
 8870 36ed 10       		.byte	0x10
 8871 36ee 29       		.byte	0x29
 8872 36ef F3360000 		.4byte	0x36f3
 8873 36f3 09       		.uleb128 0x9
 8874 36f4 EE350000 		.4byte	0x35ee
 8875 36f8 2F       		.uleb128 0x2f
 8876 36f9 10010000 		.4byte	0x110
 8877 36fd 08370000 		.4byte	0x3708
 8878 3701 30       		.uleb128 0x30
 8879 3702 01010000 		.4byte	0x101
 8880 3706 09       		.byte	0x9
 8881 3707 00       		.byte	0
 8882 3708 8401     		.uleb128 0x84
 8883 370a A4610000 		.4byte	.LASF463
 8884 370e 10       		.byte	0x10
 8885 370f 2A       		.byte	0x2a
 8886 3710 14370000 		.4byte	0x3714
 8887 3714 09       		.uleb128 0x9
 8888 3715 F8360000 		.4byte	0x36f8
 8889 3719 8401     		.uleb128 0x84
 8890 371b C33F0000 		.4byte	.LASF464
 8891 371f 10       		.byte	0x10
 8892 3720 2B       		.byte	0x2b
 8893 3721 25370000 		.4byte	0x3725
 8894 3725 09       		.uleb128 0x9
 8895 3726 6A350000 		.4byte	0x356a
 8896 372a 8401     		.uleb128 0x84
 8897 372c 5F550000 		.4byte	.LASF465
 8898 3730 10       		.byte	0x10
 8899 3731 2C       		.byte	0x2c
 8900 3732 36370000 		.4byte	0x3736
 8901 3736 09       		.uleb128 0x9
 8902 3737 B5360000 		.4byte	0x36b5
 8903 373b 2F       		.uleb128 0x2f
 8904 373c 10010000 		.4byte	0x110
 8905 3740 4B370000 		.4byte	0x374b
 8906 3744 30       		.uleb128 0x30
 8907 3745 01010000 		.4byte	0x101
 8908 3749 0E       		.byte	0xe
 8909 374a 00       		.byte	0
 8910 374b 8401     		.uleb128 0x84
 8911 374d 7D1F0000 		.4byte	.LASF466
 8912 3751 10       		.byte	0x10
ARM GAS  C:\Users\jrdia\AppData\Local\Temp\ccFTvYyK.s 			page 188


 8913 3752 2D       		.byte	0x2d
 8914 3753 57370000 		.4byte	0x3757
 8915 3757 09       		.uleb128 0x9
 8916 3758 3B370000 		.4byte	0x373b
 8917 375c 8401     		.uleb128 0x84
 8918 375e 5C280000 		.4byte	.LASF467
 8919 3762 10       		.byte	0x10
 8920 3763 2E       		.byte	0x2e
 8921 3764 68370000 		.4byte	0x3768
 8922 3768 09       		.uleb128 0x9
 8923 3769 41360000 		.4byte	0x3641
 8924 376d 8401     		.uleb128 0x84
 8925 376f E5510000 		.4byte	.LASF468
 8926 3773 10       		.byte	0x10
 8927 3774 2F       		.byte	0x2f
 8928 3775 79370000 		.4byte	0x3779
 8929 3779 09       		.uleb128 0x9
 8930 377a B5360000 		.4byte	0x36b5
 8931 377e 8401     		.uleb128 0x84
 8932 3780 38080000 		.4byte	.LASF469
 8933 3784 10       		.byte	0x10
 8934 3785 30       		.byte	0x30
 8935 3786 8A370000 		.4byte	0x378a
 8936 378a 09       		.uleb128 0x9
 8937 378b 8B350000 		.4byte	0x358b
 8938 378f 8401     		.uleb128 0x84
 8939 3791 511A0000 		.4byte	.LASF470
 8940 3795 10       		.byte	0x10
 8941 3796 31       		.byte	0x31
 8942 3797 9B370000 		.4byte	0x379b
 8943 379b 09       		.uleb128 0x9
 8944 379c 41360000 		.4byte	0x3641
 8945 37a0 8401     		.uleb128 0x84
 8946 37a2 59160000 		.4byte	.LASF471
 8947 37a6 10       		.byte	0x10
 8948 37a7 32       		.byte	0x32
 8949 37a8 AC370000 		.4byte	0x37ac
 8950 37ac 09       		.uleb128 0x9
 8951 37ad 8B350000 		.4byte	0x358b
 8952 37b1 2F       		.uleb128 0x2f
 8953 37b2 10010000 		.4byte	0x110
 8954 37b6 C1370000 		.4byte	0x37c1
 8955 37ba 30       		.uleb128 0x30
 8956 37bb 01010000 		.4byte	0x101
 8957 37bf 14       		.byte	0x14
 8958 37c0 00       		.byte	0
 8959 37c1 8401     		.uleb128 0x84
 8960 37c3 E4340000 		.4byte	.LASF472
 8961 37c7 10       		.byte	0x10
 8962 37c8 33       		.byte	0x33
 8963 37c9 CD370000 		.4byte	0x37cd
 8964 37cd 09       		.uleb128 0x9
 8965 37ce B1370000 		.4byte	0x37b1
 8966 37d2 8401     		.uleb128 0x84
 8967 37d4 B2510000 		.4byte	.LASF473
 8968 37d8 10       		.byte	0x10
 8969 37d9 34       		.byte	0x34
ARM GAS  C:\Users\jrdia\AppData\Local\Temp\ccFTvYyK.s 			page 189


 8970 37da DE370000 		.4byte	0x37de
 8971 37de 09       		.uleb128 0x9
 8972 37df 6A350000 		.4byte	0x356a
 8973 37e3 8401     		.uleb128 0x84
 8974 37e5 34370000 		.4byte	.LASF474
 8975 37e9 10       		.byte	0x10
 8976 37ea 35       		.byte	0x35
 8977 37eb EF370000 		.4byte	0x37ef
 8978 37ef 09       		.uleb128 0x9
 8979 37f0 EE350000 		.4byte	0x35ee
 8980 37f4 8401     		.uleb128 0x84
 8981 37f6 74260000 		.4byte	.LASF475
 8982 37fa 10       		.byte	0x10
 8983 37fb 36       		.byte	0x36
 8984 37fc 00380000 		.4byte	0x3800
 8985 3800 09       		.uleb128 0x9
 8986 3801 94360000 		.4byte	0x3694
 8987 3805 8401     		.uleb128 0x84
 8988 3807 9F2D0000 		.4byte	.LASF476
 8989 380b 10       		.byte	0x10
 8990 380c 37       		.byte	0x37
 8991 380d 11380000 		.4byte	0x3811
 8992 3811 09       		.uleb128 0x9
 8993 3812 EE350000 		.4byte	0x35ee
 8994 3816 8401     		.uleb128 0x84
 8995 3818 7A210000 		.4byte	.LASF477
 8996 381c 10       		.byte	0x10
 8997 381d 38       		.byte	0x38
 8998 381e 22380000 		.4byte	0x3822
 8999 3822 09       		.uleb128 0x9
 9000 3823 CD350000 		.4byte	0x35cd
 9001 3827 8401     		.uleb128 0x84
 9002 3829 76060000 		.4byte	.LASF478
 9003 382d 10       		.byte	0x10
 9004 382e 3B       		.byte	0x3b
 9005 382f 33380000 		.4byte	0x3833
 9006 3833 09       		.uleb128 0x9
 9007 3834 B5360000 		.4byte	0x36b5
 9008 3838 8401     		.uleb128 0x84
 9009 383a EA0C0000 		.4byte	.LASF479
 9010 383e 10       		.byte	0x10
 9011 383f 3C       		.byte	0x3c
 9012 3840 44380000 		.4byte	0x3844
 9013 3844 09       		.uleb128 0x9
 9014 3845 8B350000 		.4byte	0x358b
 9015 3849 8401     		.uleb128 0x84
 9016 384b 6E040000 		.4byte	.LASF480
 9017 384f 10       		.byte	0x10
 9018 3850 3D       		.byte	0x3d
 9019 3851 55380000 		.4byte	0x3855
 9020 3855 09       		.uleb128 0x9
 9021 3856 EE350000 		.4byte	0x35ee
 9022 385a 8401     		.uleb128 0x84
 9023 385c DE370000 		.4byte	.LASF481
 9024 3860 10       		.byte	0x10
 9025 3861 3E       		.byte	0x3e
 9026 3862 66380000 		.4byte	0x3866
ARM GAS  C:\Users\jrdia\AppData\Local\Temp\ccFTvYyK.s 			page 190


 9027 3866 09       		.uleb128 0x9
 9028 3867 EE350000 		.4byte	0x35ee
 9029 386b 8401     		.uleb128 0x84
 9030 386d DA470000 		.4byte	.LASF482
 9031 3871 10       		.byte	0x10
 9032 3872 3F       		.byte	0x3f
 9033 3873 77380000 		.4byte	0x3877
 9034 3877 09       		.uleb128 0x9
 9035 3878 73360000 		.4byte	0x3673
 9036 387c 8401     		.uleb128 0x84
 9037 387e 84200000 		.4byte	.LASF483
 9038 3882 10       		.byte	0x10
 9039 3883 40       		.byte	0x40
 9040 3884 88380000 		.4byte	0x3888
 9041 3888 09       		.uleb128 0x9
 9042 3889 94360000 		.4byte	0x3694
 9043 388d 2F       		.uleb128 0x2f
 9044 388e 10010000 		.4byte	0x110
 9045 3892 9D380000 		.4byte	0x389d
 9046 3896 30       		.uleb128 0x30
 9047 3897 01010000 		.4byte	0x101
 9048 389b 0F       		.byte	0xf
 9049 389c 00       		.byte	0
 9050 389d 8401     		.uleb128 0x84
 9051 389f A0150000 		.4byte	.LASF484
 9052 38a3 10       		.byte	0x10
 9053 38a4 41       		.byte	0x41
 9054 38a5 A9380000 		.4byte	0x38a9
 9055 38a9 09       		.uleb128 0x9
 9056 38aa 8D380000 		.4byte	0x388d
 9057 38ae 2F       		.uleb128 0x2f
 9058 38af 10010000 		.4byte	0x110
 9059 38b3 BE380000 		.4byte	0x38be
 9060 38b7 30       		.uleb128 0x30
 9061 38b8 01010000 		.4byte	0x101
 9062 38bc 13       		.byte	0x13
 9063 38bd 00       		.byte	0
 9064 38be 8401     		.uleb128 0x84
 9065 38c0 165D0000 		.4byte	.LASF485
 9066 38c4 10       		.byte	0x10
 9067 38c5 42       		.byte	0x42
 9068 38c6 CA380000 		.4byte	0x38ca
 9069 38ca 09       		.uleb128 0x9
 9070 38cb AE380000 		.4byte	0x38ae
 9071 38cf 8501     		.uleb128 0x85
 9072 38d1 C6070000 		.4byte	.LASF486
 9073 38d5 10       		.byte	0x10
 9074 38d6 43       		.byte	0x43
 9075 38d7 E1380000 		.4byte	0x38e1
 9076 38db 05       		.uleb128 0x5
 9077 38dc 03       		.byte	0x3
 9078 38dd EC000000 		.4byte	.LC45
 9079 38e1 09       		.uleb128 0x9
 9080 38e2 FA340000 		.4byte	0x34fa
 9081 38e6 8401     		.uleb128 0x84
 9082 38e8 91220000 		.4byte	.LASF487
 9083 38ec 10       		.byte	0x10
ARM GAS  C:\Users\jrdia\AppData\Local\Temp\ccFTvYyK.s 			page 191


 9084 38ed 44       		.byte	0x44
 9085 38ee F2380000 		.4byte	0x38f2
 9086 38f2 09       		.uleb128 0x9
 9087 38f3 FA340000 		.4byte	0x34fa
 9088 38f7 8401     		.uleb128 0x84
 9089 38f9 9C220000 		.4byte	.LASF488
 9090 38fd 10       		.byte	0x10
 9091 38fe 45       		.byte	0x45
 9092 38ff 03390000 		.4byte	0x3903
 9093 3903 09       		.uleb128 0x9
 9094 3904 FA340000 		.4byte	0x34fa
 9095 3908 8401     		.uleb128 0x84
 9096 390a F43D0000 		.4byte	.LASF489
 9097 390e 10       		.byte	0x10
 9098 390f 46       		.byte	0x46
 9099 3910 14390000 		.4byte	0x3914
 9100 3914 09       		.uleb128 0x9
 9101 3915 1B350000 		.4byte	0x351b
 9102 3919 8401     		.uleb128 0x84
 9103 391b 003E0000 		.4byte	.LASF490
 9104 391f 10       		.byte	0x10
 9105 3920 47       		.byte	0x47
 9106 3921 25390000 		.4byte	0x3925
 9107 3925 09       		.uleb128 0x9
 9108 3926 1B350000 		.4byte	0x351b
 9109 392a 8401     		.uleb128 0x84
 9110 392c 0C3E0000 		.4byte	.LASF491
 9111 3930 10       		.byte	0x10
 9112 3931 48       		.byte	0x48
 9113 3932 36390000 		.4byte	0x3936
 9114 3936 09       		.uleb128 0x9
 9115 3937 1B350000 		.4byte	0x351b
 9116 393b 8401     		.uleb128 0x84
 9117 393d 4D2F0000 		.4byte	.LASF492
 9118 3941 10       		.byte	0x10
 9119 3942 49       		.byte	0x49
 9120 3943 47390000 		.4byte	0x3947
 9121 3947 09       		.uleb128 0x9
 9122 3948 94360000 		.4byte	0x3694
 9123 394c 8401     		.uleb128 0x84
 9124 394e DC4D0000 		.4byte	.LASF493
 9125 3952 10       		.byte	0x10
 9126 3953 4A       		.byte	0x4a
 9127 3954 58390000 		.4byte	0x3958
 9128 3958 09       		.uleb128 0x9
 9129 3959 73360000 		.4byte	0x3673
 9130 395d 8401     		.uleb128 0x84
 9131 395f 450B0000 		.4byte	.LASF494
 9132 3963 10       		.byte	0x10
 9133 3964 4B       		.byte	0x4b
 9134 3965 69390000 		.4byte	0x3969
 9135 3969 09       		.uleb128 0x9
 9136 396a 8B350000 		.4byte	0x358b
 9137 396e 8401     		.uleb128 0x84
 9138 3970 485E0000 		.4byte	.LASF495
 9139 3974 10       		.byte	0x10
 9140 3975 4C       		.byte	0x4c
ARM GAS  C:\Users\jrdia\AppData\Local\Temp\ccFTvYyK.s 			page 192


 9141 3976 7A390000 		.4byte	0x397a
 9142 397a 09       		.uleb128 0x9
 9143 397b CD350000 		.4byte	0x35cd
 9144 397f 8401     		.uleb128 0x84
 9145 3981 E9540000 		.4byte	.LASF496
 9146 3985 10       		.byte	0x10
 9147 3986 4D       		.byte	0x4d
 9148 3987 8B390000 		.4byte	0x398b
 9149 398b 09       		.uleb128 0x9
 9150 398c 0F360000 		.4byte	0x360f
 9151 3990 8401     		.uleb128 0x84
 9152 3992 0E670000 		.4byte	.LASF497
 9153 3996 10       		.byte	0x10
 9154 3997 4E       		.byte	0x4e
 9155 3998 9C390000 		.4byte	0x399c
 9156 399c 09       		.uleb128 0x9
 9157 399d CD350000 		.4byte	0x35cd
 9158 39a1 8401     		.uleb128 0x84
 9159 39a3 CE110000 		.4byte	.LASF498
 9160 39a7 10       		.byte	0x10
 9161 39a8 4F       		.byte	0x4f
 9162 39a9 AD390000 		.4byte	0x39ad
 9163 39ad 09       		.uleb128 0x9
 9164 39ae 41360000 		.4byte	0x3641
 9165 39b2 8401     		.uleb128 0x84
 9166 39b4 87310000 		.4byte	.LASF499
 9167 39b8 10       		.byte	0x10
 9168 39b9 50       		.byte	0x50
 9169 39ba BE390000 		.4byte	0x39be
 9170 39be 09       		.uleb128 0x9
 9171 39bf 8B350000 		.4byte	0x358b
 9172 39c3 8401     		.uleb128 0x84
 9173 39c5 FF500000 		.4byte	.LASF500
 9174 39c9 10       		.byte	0x10
 9175 39ca 51       		.byte	0x51
 9176 39cb CF390000 		.4byte	0x39cf
 9177 39cf 09       		.uleb128 0x9
 9178 39d0 6A350000 		.4byte	0x356a
 9179 39d4 8401     		.uleb128 0x84
 9180 39d6 D1440000 		.4byte	.LASF501
 9181 39da 10       		.byte	0x10
 9182 39db 52       		.byte	0x52
 9183 39dc E0390000 		.4byte	0x39e0
 9184 39e0 09       		.uleb128 0x9
 9185 39e1 1B350000 		.4byte	0x351b
 9186 39e5 8401     		.uleb128 0x84
 9187 39e7 DD440000 		.4byte	.LASF502
 9188 39eb 10       		.byte	0x10
 9189 39ec 53       		.byte	0x53
 9190 39ed F1390000 		.4byte	0x39f1
 9191 39f1 09       		.uleb128 0x9
 9192 39f2 1B350000 		.4byte	0x351b
 9193 39f6 8401     		.uleb128 0x84
 9194 39f8 E9440000 		.4byte	.LASF503
 9195 39fc 10       		.byte	0x10
 9196 39fd 54       		.byte	0x54
 9197 39fe 023A0000 		.4byte	0x3a02
ARM GAS  C:\Users\jrdia\AppData\Local\Temp\ccFTvYyK.s 			page 193


 9198 3a02 09       		.uleb128 0x9
 9199 3a03 1B350000 		.4byte	0x351b
 9200 3a07 8401     		.uleb128 0x84
 9201 3a09 1B010000 		.4byte	.LASF504
 9202 3a0d 10       		.byte	0x10
 9203 3a0e 55       		.byte	0x55
 9204 3a0f 133A0000 		.4byte	0x3a13
 9205 3a13 09       		.uleb128 0x9
 9206 3a14 73360000 		.4byte	0x3673
 9207 3a18 8401     		.uleb128 0x84
 9208 3a1a 29010000 		.4byte	.LASF505
 9209 3a1e 10       		.byte	0x10
 9210 3a1f 56       		.byte	0x56
 9211 3a20 243A0000 		.4byte	0x3a24
 9212 3a24 09       		.uleb128 0x9
 9213 3a25 73360000 		.4byte	0x3673
 9214 3a29 8401     		.uleb128 0x84
 9215 3a2b 37010000 		.4byte	.LASF506
 9216 3a2f 10       		.byte	0x10
 9217 3a30 57       		.byte	0x57
 9218 3a31 353A0000 		.4byte	0x3a35
 9219 3a35 09       		.uleb128 0x9
 9220 3a36 73360000 		.4byte	0x3673
 9221 3a3a 8401     		.uleb128 0x84
 9222 3a3c 47400000 		.4byte	.LASF507
 9223 3a40 10       		.byte	0x10
 9224 3a41 58       		.byte	0x58
 9225 3a42 463A0000 		.4byte	0x3a46
 9226 3a46 09       		.uleb128 0x9
 9227 3a47 6A350000 		.4byte	0x356a
 9228 3a4b 8401     		.uleb128 0x84
 9229 3a4d A55D0000 		.4byte	.LASF508
 9230 3a51 10       		.byte	0x10
 9231 3a52 59       		.byte	0x59
 9232 3a53 573A0000 		.4byte	0x3a57
 9233 3a57 09       		.uleb128 0x9
 9234 3a58 41360000 		.4byte	0x3641
 9235 3a5c 8401     		.uleb128 0x84
 9236 3a5e 84540000 		.4byte	.LASF509
 9237 3a62 10       		.byte	0x10
 9238 3a63 5A       		.byte	0x5a
 9239 3a64 683A0000 		.4byte	0x3a68
 9240 3a68 09       		.uleb128 0x9
 9241 3a69 EE350000 		.4byte	0x35ee
 9242 3a6d 8401     		.uleb128 0x84
 9243 3a6f 5A1B0000 		.4byte	.LASF510
 9244 3a73 10       		.byte	0x10
 9245 3a74 5B       		.byte	0x5b
 9246 3a75 793A0000 		.4byte	0x3a79
 9247 3a79 09       		.uleb128 0x9
 9248 3a7a EE350000 		.4byte	0x35ee
 9249 3a7e 2F       		.uleb128 0x2f
 9250 3a7f 10010000 		.4byte	0x110
 9251 3a83 8E3A0000 		.4byte	0x3a8e
 9252 3a87 30       		.uleb128 0x30
 9253 3a88 01010000 		.4byte	0x101
 9254 3a8c 0C       		.byte	0xc
ARM GAS  C:\Users\jrdia\AppData\Local\Temp\ccFTvYyK.s 			page 194


 9255 3a8d 00       		.byte	0
 9256 3a8e 8401     		.uleb128 0x84
 9257 3a90 E4690000 		.4byte	.LASF511
 9258 3a94 10       		.byte	0x10
 9259 3a95 5C       		.byte	0x5c
 9260 3a96 9A3A0000 		.4byte	0x3a9a
 9261 3a9a 09       		.uleb128 0x9
 9262 3a9b 7E3A0000 		.4byte	0x3a7e
 9263 3a9f 8401     		.uleb128 0x84
 9264 3aa1 75150000 		.4byte	.LASF512
 9265 3aa5 10       		.byte	0x10
 9266 3aa6 5D       		.byte	0x5d
 9267 3aa7 AB3A0000 		.4byte	0x3aab
 9268 3aab 09       		.uleb128 0x9
 9269 3aac F8360000 		.4byte	0x36f8
 9270 3ab0 8401     		.uleb128 0x84
 9271 3ab2 894C0000 		.4byte	.LASF513
 9272 3ab6 10       		.byte	0x10
 9273 3ab7 5E       		.byte	0x5e
 9274 3ab8 BC3A0000 		.4byte	0x3abc
 9275 3abc 09       		.uleb128 0x9
 9276 3abd CD350000 		.4byte	0x35cd
 9277 3ac1 2F       		.uleb128 0x2f
 9278 3ac2 10010000 		.4byte	0x110
 9279 3ac6 D13A0000 		.4byte	0x3ad1
 9280 3aca 30       		.uleb128 0x30
 9281 3acb 01010000 		.4byte	0x101
 9282 3acf 10       		.byte	0x10
 9283 3ad0 00       		.byte	0
 9284 3ad1 8401     		.uleb128 0x84
 9285 3ad3 000A0000 		.4byte	.LASF514
 9286 3ad7 10       		.byte	0x10
 9287 3ad8 5F       		.byte	0x5f
 9288 3ad9 DD3A0000 		.4byte	0x3add
 9289 3add 09       		.uleb128 0x9
 9290 3ade C13A0000 		.4byte	0x3ac1
 9291 3ae2 8401     		.uleb128 0x84
 9292 3ae4 16240000 		.4byte	.LASF515
 9293 3ae8 10       		.byte	0x10
 9294 3ae9 60       		.byte	0x60
 9295 3aea EE3A0000 		.4byte	0x3aee
 9296 3aee 09       		.uleb128 0x9
 9297 3aef 41360000 		.4byte	0x3641
 9298 3af3 8401     		.uleb128 0x84
 9299 3af5 DF260000 		.4byte	.LASF516
 9300 3af9 10       		.byte	0x10
 9301 3afa 61       		.byte	0x61
 9302 3afb FF3A0000 		.4byte	0x3aff
 9303 3aff 09       		.uleb128 0x9
 9304 3b00 7E3A0000 		.4byte	0x3a7e
 9305 3b04 8401     		.uleb128 0x84
 9306 3b06 654F0000 		.4byte	.LASF517
 9307 3b0a 10       		.byte	0x10
 9308 3b0b 62       		.byte	0x62
 9309 3b0c 103B0000 		.4byte	0x3b10
 9310 3b10 09       		.uleb128 0x9
 9311 3b11 41360000 		.4byte	0x3641
ARM GAS  C:\Users\jrdia\AppData\Local\Temp\ccFTvYyK.s 			page 195


 9312 3b15 8401     		.uleb128 0x84
 9313 3b17 A8080000 		.4byte	.LASF518
 9314 3b1b 10       		.byte	0x10
 9315 3b1c 63       		.byte	0x63
 9316 3b1d 213B0000 		.4byte	0x3b21
 9317 3b21 09       		.uleb128 0x9
 9318 3b22 41360000 		.4byte	0x3641
 9319 3b26 8401     		.uleb128 0x84
 9320 3b28 EA610000 		.4byte	.LASF519
 9321 3b2c 10       		.byte	0x10
 9322 3b2d 64       		.byte	0x64
 9323 3b2e 323B0000 		.4byte	0x3b32
 9324 3b32 09       		.uleb128 0x9
 9325 3b33 8D380000 		.4byte	0x388d
 9326 3b37 8401     		.uleb128 0x84
 9327 3b39 0D4F0000 		.4byte	.LASF520
 9328 3b3d 10       		.byte	0x10
 9329 3b3e 65       		.byte	0x65
 9330 3b3f 433B0000 		.4byte	0x3b43
 9331 3b43 09       		.uleb128 0x9
 9332 3b44 3B370000 		.4byte	0x373b
 9333 3b48 8401     		.uleb128 0x84
 9334 3b4a 6A3C0000 		.4byte	.LASF521
 9335 3b4e 10       		.byte	0x10
 9336 3b4f 66       		.byte	0x66
 9337 3b50 543B0000 		.4byte	0x3b54
 9338 3b54 09       		.uleb128 0x9
 9339 3b55 41360000 		.4byte	0x3641
 9340 3b59 8401     		.uleb128 0x84
 9341 3b5b 0B150000 		.4byte	.LASF522
 9342 3b5f 10       		.byte	0x10
 9343 3b60 67       		.byte	0x67
 9344 3b61 653B0000 		.4byte	0x3b65
 9345 3b65 09       		.uleb128 0x9
 9346 3b66 0F360000 		.4byte	0x360f
 9347 3b6a 8401     		.uleb128 0x84
 9348 3b6c A9640000 		.4byte	.LASF523
 9349 3b70 10       		.byte	0x10
 9350 3b71 68       		.byte	0x68
 9351 3b72 763B0000 		.4byte	0x3b76
 9352 3b76 09       		.uleb128 0x9
 9353 3b77 41360000 		.4byte	0x3641
 9354 3b7b 8401     		.uleb128 0x84
 9355 3b7d 47140000 		.4byte	.LASF524
 9356 3b81 10       		.byte	0x10
 9357 3b82 69       		.byte	0x69
 9358 3b83 873B0000 		.4byte	0x3b87
 9359 3b87 09       		.uleb128 0x9
 9360 3b88 C13A0000 		.4byte	0x3ac1
 9361 3b8c 8401     		.uleb128 0x84
 9362 3b8e 4E170000 		.4byte	.LASF525
 9363 3b92 10       		.byte	0x10
 9364 3b93 6A       		.byte	0x6a
 9365 3b94 983B0000 		.4byte	0x3b98
 9366 3b98 09       		.uleb128 0x9
 9367 3b99 C13A0000 		.4byte	0x3ac1
 9368 3b9d 8401     		.uleb128 0x84
ARM GAS  C:\Users\jrdia\AppData\Local\Temp\ccFTvYyK.s 			page 196


 9369 3b9f 183E0000 		.4byte	.LASF526
 9370 3ba3 10       		.byte	0x10
 9371 3ba4 6B       		.byte	0x6b
 9372 3ba5 A93B0000 		.4byte	0x3ba9
 9373 3ba9 09       		.uleb128 0x9
 9374 3baa EE350000 		.4byte	0x35ee
 9375 3bae 8401     		.uleb128 0x84
 9376 3bb0 A9250000 		.4byte	.LASF527
 9377 3bb4 10       		.byte	0x10
 9378 3bb5 6C       		.byte	0x6c
 9379 3bb6 BA3B0000 		.4byte	0x3bba
 9380 3bba 09       		.uleb128 0x9
 9381 3bbb CD350000 		.4byte	0x35cd
 9382 3bbf 8401     		.uleb128 0x84
 9383 3bc1 0A230000 		.4byte	.LASF528
 9384 3bc5 10       		.byte	0x10
 9385 3bc6 6D       		.byte	0x6d
 9386 3bc7 CB3B0000 		.4byte	0x3bcb
 9387 3bcb 09       		.uleb128 0x9
 9388 3bcc 0F360000 		.4byte	0x360f
 9389 3bd0 8401     		.uleb128 0x84
 9390 3bd2 0F650000 		.4byte	.LASF529
 9391 3bd6 10       		.byte	0x10
 9392 3bd7 6E       		.byte	0x6e
 9393 3bd8 DC3B0000 		.4byte	0x3bdc
 9394 3bdc 09       		.uleb128 0x9
 9395 3bdd CD350000 		.4byte	0x35cd
 9396 3be1 8401     		.uleb128 0x84
 9397 3be3 ED620000 		.4byte	.LASF530
 9398 3be7 10       		.byte	0x10
 9399 3be8 6F       		.byte	0x6f
 9400 3be9 ED3B0000 		.4byte	0x3bed
 9401 3bed 09       		.uleb128 0x9
 9402 3bee EE350000 		.4byte	0x35ee
 9403 3bf2 8401     		.uleb128 0x84
 9404 3bf4 54030000 		.4byte	.LASF531
 9405 3bf8 10       		.byte	0x10
 9406 3bf9 70       		.byte	0x70
 9407 3bfa FE3B0000 		.4byte	0x3bfe
 9408 3bfe 09       		.uleb128 0x9
 9409 3bff CD350000 		.4byte	0x35cd
 9410 3c03 8401     		.uleb128 0x84
 9411 3c05 48360000 		.4byte	.LASF532
 9412 3c09 10       		.byte	0x10
 9413 3c0a 71       		.byte	0x71
 9414 3c0b 0F3C0000 		.4byte	0x3c0f
 9415 3c0f 09       		.uleb128 0x9
 9416 3c10 F8360000 		.4byte	0x36f8
 9417 3c14 8401     		.uleb128 0x84
 9418 3c16 45350000 		.4byte	.LASF533
 9419 3c1a 10       		.byte	0x10
 9420 3c1b 72       		.byte	0x72
 9421 3c1c 203C0000 		.4byte	0x3c20
 9422 3c20 09       		.uleb128 0x9
 9423 3c21 F8360000 		.4byte	0x36f8
 9424 3c25 8401     		.uleb128 0x84
 9425 3c27 64380000 		.4byte	.LASF534
ARM GAS  C:\Users\jrdia\AppData\Local\Temp\ccFTvYyK.s 			page 197


 9426 3c2b 10       		.byte	0x10
 9427 3c2c 73       		.byte	0x73
 9428 3c2d 313C0000 		.4byte	0x3c31
 9429 3c31 09       		.uleb128 0x9
 9430 3c32 0F360000 		.4byte	0x360f
 9431 3c36 8401     		.uleb128 0x84
 9432 3c38 765C0000 		.4byte	.LASF535
 9433 3c3c 10       		.byte	0x10
 9434 3c3d 74       		.byte	0x74
 9435 3c3e 423C0000 		.4byte	0x3c42
 9436 3c42 09       		.uleb128 0x9
 9437 3c43 F8360000 		.4byte	0x36f8
 9438 3c47 8401     		.uleb128 0x84
 9439 3c49 810A0000 		.4byte	.LASF536
 9440 3c4d 10       		.byte	0x10
 9441 3c4e 75       		.byte	0x75
 9442 3c4f 533C0000 		.4byte	0x3c53
 9443 3c53 09       		.uleb128 0x9
 9444 3c54 0F360000 		.4byte	0x360f
 9445 3c58 8401     		.uleb128 0x84
 9446 3c5a 6B610000 		.4byte	.LASF537
 9447 3c5e 10       		.byte	0x10
 9448 3c5f 76       		.byte	0x76
 9449 3c60 643C0000 		.4byte	0x3c64
 9450 3c64 09       		.uleb128 0x9
 9451 3c65 7E3A0000 		.4byte	0x3a7e
 9452 3c69 8401     		.uleb128 0x84
 9453 3c6b 15260000 		.4byte	.LASF538
 9454 3c6f 10       		.byte	0x10
 9455 3c70 77       		.byte	0x77
 9456 3c71 753C0000 		.4byte	0x3c75
 9457 3c75 09       		.uleb128 0x9
 9458 3c76 F8360000 		.4byte	0x36f8
 9459 3c7a 8401     		.uleb128 0x84
 9460 3c7c 44310000 		.4byte	.LASF539
 9461 3c80 10       		.byte	0x10
 9462 3c81 78       		.byte	0x78
 9463 3c82 863C0000 		.4byte	0x3c86
 9464 3c86 09       		.uleb128 0x9
 9465 3c87 7E3A0000 		.4byte	0x3a7e
 9466 3c8b 8401     		.uleb128 0x84
 9467 3c8d 5A600000 		.4byte	.LASF540
 9468 3c91 10       		.byte	0x10
 9469 3c92 79       		.byte	0x79
 9470 3c93 973C0000 		.4byte	0x3c97
 9471 3c97 09       		.uleb128 0x9
 9472 3c98 7E3A0000 		.4byte	0x3a7e
 9473 3c9c 8401     		.uleb128 0x84
 9474 3c9e 782A0000 		.4byte	.LASF541
 9475 3ca2 10       		.byte	0x10
 9476 3ca3 7A       		.byte	0x7a
 9477 3ca4 A83C0000 		.4byte	0x3ca8
 9478 3ca8 09       		.uleb128 0x9
 9479 3ca9 7E3A0000 		.4byte	0x3a7e
 9480 3cad 8401     		.uleb128 0x84
 9481 3caf EB5E0000 		.4byte	.LASF542
 9482 3cb3 10       		.byte	0x10
ARM GAS  C:\Users\jrdia\AppData\Local\Temp\ccFTvYyK.s 			page 198


 9483 3cb4 7B       		.byte	0x7b
 9484 3cb5 B93C0000 		.4byte	0x3cb9
 9485 3cb9 09       		.uleb128 0x9
 9486 3cba 41360000 		.4byte	0x3641
 9487 3cbe 8401     		.uleb128 0x84
 9488 3cc0 910E0000 		.4byte	.LASF543
 9489 3cc4 10       		.byte	0x10
 9490 3cc5 7C       		.byte	0x7c
 9491 3cc6 CA3C0000 		.4byte	0x3cca
 9492 3cca 09       		.uleb128 0x9
 9493 3ccb 41360000 		.4byte	0x3641
 9494 3ccf 8401     		.uleb128 0x84
 9495 3cd1 E1480000 		.4byte	.LASF544
 9496 3cd5 10       		.byte	0x10
 9497 3cd6 7D       		.byte	0x7d
 9498 3cd7 DB3C0000 		.4byte	0x3cdb
 9499 3cdb 09       		.uleb128 0x9
 9500 3cdc B1370000 		.4byte	0x37b1
 9501 3ce0 2F       		.uleb128 0x2f
 9502 3ce1 10010000 		.4byte	0x110
 9503 3ce5 F03C0000 		.4byte	0x3cf0
 9504 3ce9 30       		.uleb128 0x30
 9505 3cea 01010000 		.4byte	0x101
 9506 3cee 15       		.byte	0x15
 9507 3cef 00       		.byte	0
 9508 3cf0 8401     		.uleb128 0x84
 9509 3cf2 23310000 		.4byte	.LASF545
 9510 3cf6 10       		.byte	0x10
 9511 3cf7 7E       		.byte	0x7e
 9512 3cf8 FC3C0000 		.4byte	0x3cfc
 9513 3cfc 09       		.uleb128 0x9
 9514 3cfd E03C0000 		.4byte	0x3ce0
 9515 3d01 2F       		.uleb128 0x2f
 9516 3d02 10010000 		.4byte	0x110
 9517 3d06 113D0000 		.4byte	0x3d11
 9518 3d0a 30       		.uleb128 0x30
 9519 3d0b 01010000 		.4byte	0x101
 9520 3d0f 16       		.byte	0x16
 9521 3d10 00       		.byte	0
 9522 3d11 8401     		.uleb128 0x84
 9523 3d13 693B0000 		.4byte	.LASF546
 9524 3d17 10       		.byte	0x10
 9525 3d18 7F       		.byte	0x7f
 9526 3d19 1D3D0000 		.4byte	0x3d1d
 9527 3d1d 09       		.uleb128 0x9
 9528 3d1e 013D0000 		.4byte	0x3d01
 9529 3d22 8401     		.uleb128 0x84
 9530 3d24 20170000 		.4byte	.LASF547
 9531 3d28 10       		.byte	0x10
 9532 3d29 82       		.byte	0x82
 9533 3d2a 2E3D0000 		.4byte	0x3d2e
 9534 3d2e 09       		.uleb128 0x9
 9535 3d2f 8D380000 		.4byte	0x388d
 9536 3d33 8401     		.uleb128 0x84
 9537 3d35 CD5F0000 		.4byte	.LASF548
 9538 3d39 10       		.byte	0x10
 9539 3d3a 83       		.byte	0x83
ARM GAS  C:\Users\jrdia\AppData\Local\Temp\ccFTvYyK.s 			page 199


 9540 3d3b 3F3D0000 		.4byte	0x3d3f
 9541 3d3f 09       		.uleb128 0x9
 9542 3d40 41360000 		.4byte	0x3641
 9543 3d44 8401     		.uleb128 0x84
 9544 3d46 79030000 		.4byte	.LASF549
 9545 3d4a 10       		.byte	0x10
 9546 3d4b 84       		.byte	0x84
 9547 3d4c 503D0000 		.4byte	0x3d50
 9548 3d50 09       		.uleb128 0x9
 9549 3d51 41360000 		.4byte	0x3641
 9550 3d55 8401     		.uleb128 0x84
 9551 3d57 7A510000 		.4byte	.LASF550
 9552 3d5b 10       		.byte	0x10
 9553 3d5c 85       		.byte	0x85
 9554 3d5d 613D0000 		.4byte	0x3d61
 9555 3d61 09       		.uleb128 0x9
 9556 3d62 3B370000 		.4byte	0x373b
 9557 3d66 8401     		.uleb128 0x84
 9558 3d68 AD2F0000 		.4byte	.LASF551
 9559 3d6c 10       		.byte	0x10
 9560 3d6d 86       		.byte	0x86
 9561 3d6e 723D0000 		.4byte	0x3d72
 9562 3d72 09       		.uleb128 0x9
 9563 3d73 41360000 		.4byte	0x3641
 9564 3d77 8401     		.uleb128 0x84
 9565 3d79 43640000 		.4byte	.LASF552
 9566 3d7d 10       		.byte	0x10
 9567 3d7e 87       		.byte	0x87
 9568 3d7f 833D0000 		.4byte	0x3d83
 9569 3d83 09       		.uleb128 0x9
 9570 3d84 41360000 		.4byte	0x3641
 9571 3d88 8401     		.uleb128 0x84
 9572 3d8a 4F1D0000 		.4byte	.LASF553
 9573 3d8e 10       		.byte	0x10
 9574 3d8f 88       		.byte	0x88
 9575 3d90 943D0000 		.4byte	0x3d94
 9576 3d94 09       		.uleb128 0x9
 9577 3d95 41360000 		.4byte	0x3641
 9578 3d99 8401     		.uleb128 0x84
 9579 3d9b EA070000 		.4byte	.LASF554
 9580 3d9f 10       		.byte	0x10
 9581 3da0 89       		.byte	0x89
 9582 3da1 A53D0000 		.4byte	0x3da5
 9583 3da5 09       		.uleb128 0x9
 9584 3da6 3B370000 		.4byte	0x373b
 9585 3daa 8401     		.uleb128 0x84
 9586 3dac 25400000 		.4byte	.LASF555
 9587 3db0 10       		.byte	0x10
 9588 3db1 8A       		.byte	0x8a
 9589 3db2 B63D0000 		.4byte	0x3db6
 9590 3db6 09       		.uleb128 0x9
 9591 3db7 41360000 		.4byte	0x3641
 9592 3dbb 8401     		.uleb128 0x84
 9593 3dbd 7B2D0000 		.4byte	.LASF556
 9594 3dc1 10       		.byte	0x10
 9595 3dc2 8B       		.byte	0x8b
 9596 3dc3 C73D0000 		.4byte	0x3dc7
ARM GAS  C:\Users\jrdia\AppData\Local\Temp\ccFTvYyK.s 			page 200


 9597 3dc7 09       		.uleb128 0x9
 9598 3dc8 41360000 		.4byte	0x3641
 9599 3dcc 8401     		.uleb128 0x84
 9600 3dce 52120000 		.4byte	.LASF557
 9601 3dd2 10       		.byte	0x10
 9602 3dd3 8C       		.byte	0x8c
 9603 3dd4 D83D0000 		.4byte	0x3dd8
 9604 3dd8 09       		.uleb128 0x9
 9605 3dd9 E03C0000 		.4byte	0x3ce0
 9606 3ddd 8401     		.uleb128 0x84
 9607 3ddf 67140000 		.4byte	.LASF558
 9608 3de3 10       		.byte	0x10
 9609 3de4 8D       		.byte	0x8d
 9610 3de5 E93D0000 		.4byte	0x3de9
 9611 3de9 09       		.uleb128 0x9
 9612 3dea 41360000 		.4byte	0x3641
 9613 3dee 8401     		.uleb128 0x84
 9614 3df0 77250000 		.4byte	.LASF559
 9615 3df4 10       		.byte	0x10
 9616 3df5 8E       		.byte	0x8e
 9617 3df6 FA3D0000 		.4byte	0x3dfa
 9618 3dfa 09       		.uleb128 0x9
 9619 3dfb AC350000 		.4byte	0x35ac
 9620 3dff 8401     		.uleb128 0x84
 9621 3e01 5F450000 		.4byte	.LASF560
 9622 3e05 10       		.byte	0x10
 9623 3e06 8F       		.byte	0x8f
 9624 3e07 0B3E0000 		.4byte	0x3e0b
 9625 3e0b 09       		.uleb128 0x9
 9626 3e0c 7E3A0000 		.4byte	0x3a7e
 9627 3e10 8401     		.uleb128 0x84
 9628 3e12 BA0B0000 		.4byte	.LASF561
 9629 3e16 10       		.byte	0x10
 9630 3e17 90       		.byte	0x90
 9631 3e18 1C3E0000 		.4byte	0x3e1c
 9632 3e1c 09       		.uleb128 0x9
 9633 3e1d 0F360000 		.4byte	0x360f
 9634 3e21 8401     		.uleb128 0x84
 9635 3e23 3B450000 		.4byte	.LASF562
 9636 3e27 10       		.byte	0x10
 9637 3e28 91       		.byte	0x91
 9638 3e29 2D3E0000 		.4byte	0x3e2d
 9639 3e2d 09       		.uleb128 0x9
 9640 3e2e 0F360000 		.4byte	0x360f
 9641 3e32 8401     		.uleb128 0x84
 9642 3e34 E4660000 		.4byte	.LASF563
 9643 3e38 10       		.byte	0x10
 9644 3e39 92       		.byte	0x92
 9645 3e3a 3E3E0000 		.4byte	0x3e3e
 9646 3e3e 09       		.uleb128 0x9
 9647 3e3f 0F360000 		.4byte	0x360f
 9648 3e43 8401     		.uleb128 0x84
 9649 3e45 31430000 		.4byte	.LASF564
 9650 3e49 10       		.byte	0x10
 9651 3e4a 93       		.byte	0x93
 9652 3e4b 4F3E0000 		.4byte	0x3e4f
 9653 3e4f 09       		.uleb128 0x9
ARM GAS  C:\Users\jrdia\AppData\Local\Temp\ccFTvYyK.s 			page 201


 9654 3e50 CD350000 		.4byte	0x35cd
 9655 3e54 8401     		.uleb128 0x84
 9656 3e56 05200000 		.4byte	.LASF565
 9657 3e5a 10       		.byte	0x10
 9658 3e5b 94       		.byte	0x94
 9659 3e5c 603E0000 		.4byte	0x3e60
 9660 3e60 09       		.uleb128 0x9
 9661 3e61 B5360000 		.4byte	0x36b5
 9662 3e65 8401     		.uleb128 0x84
 9663 3e67 29500000 		.4byte	.LASF566
 9664 3e6b 10       		.byte	0x10
 9665 3e6c 95       		.byte	0x95
 9666 3e6d 713E0000 		.4byte	0x3e71
 9667 3e71 09       		.uleb128 0x9
 9668 3e72 7E3A0000 		.4byte	0x3a7e
 9669 3e76 8401     		.uleb128 0x84
 9670 3e78 05170000 		.4byte	.LASF567
 9671 3e7c 10       		.byte	0x10
 9672 3e7d 96       		.byte	0x96
 9673 3e7e 823E0000 		.4byte	0x3e82
 9674 3e82 09       		.uleb128 0x9
 9675 3e83 C13A0000 		.4byte	0x3ac1
 9676 3e87 8401     		.uleb128 0x84
 9677 3e89 87520000 		.4byte	.LASF568
 9678 3e8d 10       		.byte	0x10
 9679 3e8e 97       		.byte	0x97
 9680 3e8f 933E0000 		.4byte	0x3e93
 9681 3e93 09       		.uleb128 0x9
 9682 3e94 C13A0000 		.4byte	0x3ac1
 9683 3e98 8401     		.uleb128 0x84
 9684 3e9a 76650000 		.4byte	.LASF569
 9685 3e9e 10       		.byte	0x10
 9686 3e9f 98       		.byte	0x98
 9687 3ea0 A43E0000 		.4byte	0x3ea4
 9688 3ea4 09       		.uleb128 0x9
 9689 3ea5 41360000 		.4byte	0x3641
 9690 3ea9 8401     		.uleb128 0x84
 9691 3eab AF530000 		.4byte	.LASF570
 9692 3eaf 10       		.byte	0x10
 9693 3eb0 99       		.byte	0x99
 9694 3eb1 B53E0000 		.4byte	0x3eb5
 9695 3eb5 09       		.uleb128 0x9
 9696 3eb6 8D380000 		.4byte	0x388d
 9697 3eba 8401     		.uleb128 0x84
 9698 3ebc 1D230000 		.4byte	.LASF571
 9699 3ec0 10       		.byte	0x10
 9700 3ec1 9A       		.byte	0x9a
 9701 3ec2 C63E0000 		.4byte	0x3ec6
 9702 3ec6 09       		.uleb128 0x9
 9703 3ec7 CD350000 		.4byte	0x35cd
 9704 3ecb 2F       		.uleb128 0x2f
 9705 3ecc 10010000 		.4byte	0x110
 9706 3ed0 DB3E0000 		.4byte	0x3edb
 9707 3ed4 30       		.uleb128 0x30
 9708 3ed5 01010000 		.4byte	0x101
 9709 3ed9 12       		.byte	0x12
 9710 3eda 00       		.byte	0
ARM GAS  C:\Users\jrdia\AppData\Local\Temp\ccFTvYyK.s 			page 202


 9711 3edb 8401     		.uleb128 0x84
 9712 3edd 35460000 		.4byte	.LASF572
 9713 3ee1 10       		.byte	0x10
 9714 3ee2 9B       		.byte	0x9b
 9715 3ee3 E73E0000 		.4byte	0x3ee7
 9716 3ee7 09       		.uleb128 0x9
 9717 3ee8 CB3E0000 		.4byte	0x3ecb
 9718 3eec 8401     		.uleb128 0x84
 9719 3eee B73B0000 		.4byte	.LASF573
 9720 3ef2 10       		.byte	0x10
 9721 3ef3 9C       		.byte	0x9c
 9722 3ef4 F83E0000 		.4byte	0x3ef8
 9723 3ef8 09       		.uleb128 0x9
 9724 3ef9 EE350000 		.4byte	0x35ee
 9725 3efd 8401     		.uleb128 0x84
 9726 3eff 15290000 		.4byte	.LASF574
 9727 3f03 10       		.byte	0x10
 9728 3f04 9D       		.byte	0x9d
 9729 3f05 093F0000 		.4byte	0x3f09
 9730 3f09 09       		.uleb128 0x9
 9731 3f0a 41360000 		.4byte	0x3641
 9732 3f0e 8401     		.uleb128 0x84
 9733 3f10 2F2E0000 		.4byte	.LASF575
 9734 3f14 10       		.byte	0x10
 9735 3f15 9E       		.byte	0x9e
 9736 3f16 1A3F0000 		.4byte	0x3f1a
 9737 3f1a 09       		.uleb128 0x9
 9738 3f1b 94360000 		.4byte	0x3694
 9739 3f1f 8401     		.uleb128 0x84
 9740 3f21 552B0000 		.4byte	.LASF576
 9741 3f25 10       		.byte	0x10
 9742 3f26 9F       		.byte	0x9f
 9743 3f27 2B3F0000 		.4byte	0x3f2b
 9744 3f2b 09       		.uleb128 0x9
 9745 3f2c EE350000 		.4byte	0x35ee
 9746 3f30 8401     		.uleb128 0x84
 9747 3f32 DF650000 		.4byte	.LASF577
 9748 3f36 10       		.byte	0x10
 9749 3f37 A0       		.byte	0xa0
 9750 3f38 3C3F0000 		.4byte	0x3f3c
 9751 3f3c 09       		.uleb128 0x9
 9752 3f3d 0F360000 		.4byte	0x360f
 9753 3f41 8401     		.uleb128 0x84
 9754 3f43 A6060000 		.4byte	.LASF578
 9755 3f47 10       		.byte	0x10
 9756 3f48 A1       		.byte	0xa1
 9757 3f49 4D3F0000 		.4byte	0x3f4d
 9758 3f4d 09       		.uleb128 0x9
 9759 3f4e 41360000 		.4byte	0x3641
 9760 3f52 8401     		.uleb128 0x84
 9761 3f54 964B0000 		.4byte	.LASF579
 9762 3f58 10       		.byte	0x10
 9763 3f59 A2       		.byte	0xa2
 9764 3f5a 5E3F0000 		.4byte	0x3f5e
 9765 3f5e 09       		.uleb128 0x9
 9766 3f5f 7E3A0000 		.4byte	0x3a7e
 9767 3f63 8401     		.uleb128 0x84
ARM GAS  C:\Users\jrdia\AppData\Local\Temp\ccFTvYyK.s 			page 203


 9768 3f65 FB2C0000 		.4byte	.LASF580
 9769 3f69 10       		.byte	0x10
 9770 3f6a A3       		.byte	0xa3
 9771 3f6b 6F3F0000 		.4byte	0x3f6f
 9772 3f6f 09       		.uleb128 0x9
 9773 3f70 F8360000 		.4byte	0x36f8
 9774 3f74 8401     		.uleb128 0x84
 9775 3f76 67480000 		.4byte	.LASF581
 9776 3f7a 10       		.byte	0x10
 9777 3f7b A4       		.byte	0xa4
 9778 3f7c 803F0000 		.4byte	0x3f80
 9779 3f80 09       		.uleb128 0x9
 9780 3f81 B5360000 		.4byte	0x36b5
 9781 3f85 8401     		.uleb128 0x84
 9782 3f87 61670000 		.4byte	.LASF582
 9783 3f8b 10       		.byte	0x10
 9784 3f8c A5       		.byte	0xa5
 9785 3f8d 913F0000 		.4byte	0x3f91
 9786 3f91 09       		.uleb128 0x9
 9787 3f92 0F360000 		.4byte	0x360f
 9788 3f96 8401     		.uleb128 0x84
 9789 3f98 225E0000 		.4byte	.LASF583
 9790 3f9c 10       		.byte	0x10
 9791 3f9d A6       		.byte	0xa6
 9792 3f9e A23F0000 		.4byte	0x3fa2
 9793 3fa2 09       		.uleb128 0x9
 9794 3fa3 0F360000 		.4byte	0x360f
 9795 3fa7 8401     		.uleb128 0x84
 9796 3fa9 51090000 		.4byte	.LASF584
 9797 3fad 10       		.byte	0x10
 9798 3fae A7       		.byte	0xa7
 9799 3faf B33F0000 		.4byte	0x3fb3
 9800 3fb3 09       		.uleb128 0x9
 9801 3fb4 CD350000 		.4byte	0x35cd
 9802 3fb8 8401     		.uleb128 0x84
 9803 3fba 9D510000 		.4byte	.LASF585
 9804 3fbe 10       		.byte	0x10
 9805 3fbf A8       		.byte	0xa8
 9806 3fc0 C43F0000 		.4byte	0x3fc4
 9807 3fc4 09       		.uleb128 0x9
 9808 3fc5 8B350000 		.4byte	0x358b
 9809 3fc9 8401     		.uleb128 0x84
 9810 3fcb 4E230000 		.4byte	.LASF586
 9811 3fcf 10       		.byte	0x10
 9812 3fd0 A9       		.byte	0xa9
 9813 3fd1 D53F0000 		.4byte	0x3fd5
 9814 3fd5 09       		.uleb128 0x9
 9815 3fd6 8B350000 		.4byte	0x358b
 9816 3fda 8401     		.uleb128 0x84
 9817 3fdc 35210000 		.4byte	.LASF587
 9818 3fe0 10       		.byte	0x10
 9819 3fe1 AA       		.byte	0xaa
 9820 3fe2 E63F0000 		.4byte	0x3fe6
 9821 3fe6 09       		.uleb128 0x9
 9822 3fe7 94360000 		.4byte	0x3694
 9823 3feb 8401     		.uleb128 0x84
 9824 3fed D1070000 		.4byte	.LASF588
ARM GAS  C:\Users\jrdia\AppData\Local\Temp\ccFTvYyK.s 			page 204


 9825 3ff1 10       		.byte	0x10
 9826 3ff2 AB       		.byte	0xab
 9827 3ff3 F73F0000 		.4byte	0x3ff7
 9828 3ff7 09       		.uleb128 0x9
 9829 3ff8 B5360000 		.4byte	0x36b5
 9830 3ffc 8401     		.uleb128 0x84
 9831 3ffe E91A0000 		.4byte	.LASF589
 9832 4002 10       		.byte	0x10
 9833 4003 AC       		.byte	0xac
 9834 4004 08400000 		.4byte	0x4008
 9835 4008 09       		.uleb128 0x9
 9836 4009 EE350000 		.4byte	0x35ee
 9837 400d 8401     		.uleb128 0x84
 9838 400f 7B430000 		.4byte	.LASF590
 9839 4013 10       		.byte	0x10
 9840 4014 AD       		.byte	0xad
 9841 4015 19400000 		.4byte	0x4019
 9842 4019 09       		.uleb128 0x9
 9843 401a CD350000 		.4byte	0x35cd
 9844 401e 8401     		.uleb128 0x84
 9845 4020 F6350000 		.4byte	.LASF591
 9846 4024 10       		.byte	0x10
 9847 4025 AE       		.byte	0xae
 9848 4026 2A400000 		.4byte	0x402a
 9849 402a 09       		.uleb128 0x9
 9850 402b CD350000 		.4byte	0x35cd
 9851 402f 8401     		.uleb128 0x84
 9852 4031 835B0000 		.4byte	.LASF592
 9853 4035 10       		.byte	0x10
 9854 4036 AF       		.byte	0xaf
 9855 4037 3B400000 		.4byte	0x403b
 9856 403b 09       		.uleb128 0x9
 9857 403c CD350000 		.4byte	0x35cd
 9858 4040 8401     		.uleb128 0x84
 9859 4042 AB310000 		.4byte	.LASF593
 9860 4046 10       		.byte	0x10
 9861 4047 B0       		.byte	0xb0
 9862 4048 4C400000 		.4byte	0x404c
 9863 404c 09       		.uleb128 0x9
 9864 404d B5360000 		.4byte	0x36b5
 9865 4051 8401     		.uleb128 0x84
 9866 4053 5D200000 		.4byte	.LASF594
 9867 4057 10       		.byte	0x10
 9868 4058 B1       		.byte	0xb1
 9869 4059 5D400000 		.4byte	0x405d
 9870 405d 09       		.uleb128 0x9
 9871 405e 41360000 		.4byte	0x3641
 9872 4062 8401     		.uleb128 0x84
 9873 4064 2E0E0000 		.4byte	.LASF595
 9874 4068 10       		.byte	0x10
 9875 4069 B2       		.byte	0xb2
 9876 406a 6E400000 		.4byte	0x406e
 9877 406e 09       		.uleb128 0x9
 9878 406f 0F360000 		.4byte	0x360f
 9879 4073 8401     		.uleb128 0x84
 9880 4075 7E470000 		.4byte	.LASF596
 9881 4079 10       		.byte	0x10
ARM GAS  C:\Users\jrdia\AppData\Local\Temp\ccFTvYyK.s 			page 205


 9882 407a B3       		.byte	0xb3
 9883 407b 7F400000 		.4byte	0x407f
 9884 407f 09       		.uleb128 0x9
 9885 4080 0F360000 		.4byte	0x360f
 9886 4084 8401     		.uleb128 0x84
 9887 4086 DF320000 		.4byte	.LASF597
 9888 408a 10       		.byte	0x10
 9889 408b B4       		.byte	0xb4
 9890 408c 90400000 		.4byte	0x4090
 9891 4090 09       		.uleb128 0x9
 9892 4091 CD350000 		.4byte	0x35cd
 9893 4095 8401     		.uleb128 0x84
 9894 4097 213B0000 		.4byte	.LASF598
 9895 409b 10       		.byte	0x10
 9896 409c B7       		.byte	0xb7
 9897 409d A1400000 		.4byte	0x40a1
 9898 40a1 09       		.uleb128 0x9
 9899 40a2 73360000 		.4byte	0x3673
 9900 40a6 8401     		.uleb128 0x84
 9901 40a8 2E240000 		.4byte	.LASF599
 9902 40ac 10       		.byte	0x10
 9903 40ad B8       		.byte	0xb8
 9904 40ae B2400000 		.4byte	0x40b2
 9905 40b2 09       		.uleb128 0x9
 9906 40b3 F8360000 		.4byte	0x36f8
 9907 40b7 8401     		.uleb128 0x84
 9908 40b9 56040000 		.4byte	.LASF600
 9909 40bd 10       		.byte	0x10
 9910 40be B9       		.byte	0xb9
 9911 40bf C3400000 		.4byte	0x40c3
 9912 40c3 09       		.uleb128 0x9
 9913 40c4 94360000 		.4byte	0x3694
 9914 40c8 8401     		.uleb128 0x84
 9915 40ca D11C0000 		.4byte	.LASF601
 9916 40ce 10       		.byte	0x10
 9917 40cf BA       		.byte	0xba
 9918 40d0 D4400000 		.4byte	0x40d4
 9919 40d4 09       		.uleb128 0x9
 9920 40d5 8B350000 		.4byte	0x358b
 9921 40d9 8401     		.uleb128 0x84
 9922 40db D5610000 		.4byte	.LASF602
 9923 40df 10       		.byte	0x10
 9924 40e0 BB       		.byte	0xbb
 9925 40e1 E5400000 		.4byte	0x40e5
 9926 40e5 09       		.uleb128 0x9
 9927 40e6 CD350000 		.4byte	0x35cd
 9928 40ea 8401     		.uleb128 0x84
 9929 40ec F30F0000 		.4byte	.LASF603
 9930 40f0 10       		.byte	0x10
 9931 40f1 BC       		.byte	0xbc
 9932 40f2 F6400000 		.4byte	0x40f6
 9933 40f6 09       		.uleb128 0x9
 9934 40f7 F8360000 		.4byte	0x36f8
 9935 40fb 8401     		.uleb128 0x84
 9936 40fd 8E1A0000 		.4byte	.LASF604
 9937 4101 10       		.byte	0x10
 9938 4102 BD       		.byte	0xbd
ARM GAS  C:\Users\jrdia\AppData\Local\Temp\ccFTvYyK.s 			page 206


 9939 4103 07410000 		.4byte	0x4107
 9940 4107 09       		.uleb128 0x9
 9941 4108 CD350000 		.4byte	0x35cd
 9942 410c 8401     		.uleb128 0x84
 9943 410e 090B0000 		.4byte	.LASF605
 9944 4112 10       		.byte	0x10
 9945 4113 BE       		.byte	0xbe
 9946 4114 18410000 		.4byte	0x4118
 9947 4118 09       		.uleb128 0x9
 9948 4119 CD350000 		.4byte	0x35cd
 9949 411d 8401     		.uleb128 0x84
 9950 411f 2D120000 		.4byte	.LASF606
 9951 4123 10       		.byte	0x10
 9952 4124 BF       		.byte	0xbf
 9953 4125 29410000 		.4byte	0x4129
 9954 4129 09       		.uleb128 0x9
 9955 412a 73360000 		.4byte	0x3673
 9956 412e 8401     		.uleb128 0x84
 9957 4130 7C5D0000 		.4byte	.LASF607
 9958 4134 10       		.byte	0x10
 9959 4135 C0       		.byte	0xc0
 9960 4136 3A410000 		.4byte	0x413a
 9961 413a 09       		.uleb128 0x9
 9962 413b CD350000 		.4byte	0x35cd
 9963 413f 8401     		.uleb128 0x84
 9964 4141 BB520000 		.4byte	.LASF608
 9965 4145 10       		.byte	0x10
 9966 4146 C1       		.byte	0xc1
 9967 4147 4B410000 		.4byte	0x414b
 9968 414b 09       		.uleb128 0x9
 9969 414c 0F360000 		.4byte	0x360f
 9970 4150 8401     		.uleb128 0x84
 9971 4152 EA4D0000 		.4byte	.LASF609
 9972 4156 10       		.byte	0x10
 9973 4157 C2       		.byte	0xc2
 9974 4158 5C410000 		.4byte	0x415c
 9975 415c 09       		.uleb128 0x9
 9976 415d 7E3A0000 		.4byte	0x3a7e
 9977 4161 8401     		.uleb128 0x84
 9978 4163 AE0F0000 		.4byte	.LASF610
 9979 4167 10       		.byte	0x10
 9980 4168 C5       		.byte	0xc5
 9981 4169 6D410000 		.4byte	0x416d
 9982 416d 09       		.uleb128 0x9
 9983 416e 7E3A0000 		.4byte	0x3a7e
 9984 4172 8401     		.uleb128 0x84
 9985 4174 4B200000 		.4byte	.LASF611
 9986 4178 10       		.byte	0x10
 9987 4179 C6       		.byte	0xc6
 9988 417a 7E410000 		.4byte	0x417e
 9989 417e 09       		.uleb128 0x9
 9990 417f F8360000 		.4byte	0x36f8
 9991 4183 8401     		.uleb128 0x84
 9992 4185 ED3F0000 		.4byte	.LASF612
 9993 4189 10       		.byte	0x10
 9994 418a C7       		.byte	0xc7
 9995 418b 8F410000 		.4byte	0x418f
ARM GAS  C:\Users\jrdia\AppData\Local\Temp\ccFTvYyK.s 			page 207


 9996 418f 09       		.uleb128 0x9
 9997 4190 0F360000 		.4byte	0x360f
 9998 4194 8401     		.uleb128 0x84
 9999 4196 553F0000 		.4byte	.LASF613
 10000 419a 10       		.byte	0x10
 10001 419b C8       		.byte	0xc8
 10002 419c A0410000 		.4byte	0x41a0
 10003 41a0 09       		.uleb128 0x9
 10004 41a1 F8360000 		.4byte	0x36f8
 10005 41a5 8401     		.uleb128 0x84
 10006 41a7 0A4C0000 		.4byte	.LASF614
 10007 41ab 10       		.byte	0x10
 10008 41ac C9       		.byte	0xc9
 10009 41ad B1410000 		.4byte	0x41b1
 10010 41b1 09       		.uleb128 0x9
 10011 41b2 6A350000 		.4byte	0x356a
 10012 41b6 8401     		.uleb128 0x84
 10013 41b8 09610000 		.4byte	.LASF615
 10014 41bc 10       		.byte	0x10
 10015 41bd CA       		.byte	0xca
 10016 41be C2410000 		.4byte	0x41c2
 10017 41c2 09       		.uleb128 0x9
 10018 41c3 8B350000 		.4byte	0x358b
 10019 41c7 8401     		.uleb128 0x84
 10020 41c9 54010000 		.4byte	.LASF616
 10021 41cd 10       		.byte	0x10
 10022 41ce CB       		.byte	0xcb
 10023 41cf D3410000 		.4byte	0x41d3
 10024 41d3 09       		.uleb128 0x9
 10025 41d4 73360000 		.4byte	0x3673
 10026 41d8 8401     		.uleb128 0x84
 10027 41da A34A0000 		.4byte	.LASF617
 10028 41de 10       		.byte	0x10
 10029 41df CC       		.byte	0xcc
 10030 41e0 E4410000 		.4byte	0x41e4
 10031 41e4 09       		.uleb128 0x9
 10032 41e5 0F360000 		.4byte	0x360f
 10033 41e9 8401     		.uleb128 0x84
 10034 41eb FE1D0000 		.4byte	.LASF618
 10035 41ef 10       		.byte	0x10
 10036 41f0 CD       		.byte	0xcd
 10037 41f1 F5410000 		.4byte	0x41f5
 10038 41f5 09       		.uleb128 0x9
 10039 41f6 3B370000 		.4byte	0x373b
 10040 41fa 8401     		.uleb128 0x84
 10041 41fc CE340000 		.4byte	.LASF619
 10042 4200 10       		.byte	0x10
 10043 4201 CE       		.byte	0xce
 10044 4202 06420000 		.4byte	0x4206
 10045 4206 09       		.uleb128 0x9
 10046 4207 3B370000 		.4byte	0x373b
 10047 420b 8401     		.uleb128 0x84
 10048 420d 1D000000 		.4byte	.LASF620
 10049 4211 10       		.byte	0x10
 10050 4212 CF       		.byte	0xcf
 10051 4213 17420000 		.4byte	0x4217
 10052 4217 09       		.uleb128 0x9
ARM GAS  C:\Users\jrdia\AppData\Local\Temp\ccFTvYyK.s 			page 208


 10053 4218 3B370000 		.4byte	0x373b
 10054 421c 8401     		.uleb128 0x84
 10055 421e EE000000 		.4byte	.LASF621
 10056 4222 10       		.byte	0x10
 10057 4223 D0       		.byte	0xd0
 10058 4224 28420000 		.4byte	0x4228
 10059 4228 09       		.uleb128 0x9
 10060 4229 0F360000 		.4byte	0x360f
 10061 422d 8401     		.uleb128 0x84
 10062 422f 9E440000 		.4byte	.LASF622
 10063 4233 10       		.byte	0x10
 10064 4234 D1       		.byte	0xd1
 10065 4235 39420000 		.4byte	0x4239
 10066 4239 09       		.uleb128 0x9
 10067 423a CD350000 		.4byte	0x35cd
 10068 423e 8401     		.uleb128 0x84
 10069 4240 3F2E0000 		.4byte	.LASF623
 10070 4244 10       		.byte	0x10
 10071 4245 D2       		.byte	0xd2
 10072 4246 4A420000 		.4byte	0x424a
 10073 424a 09       		.uleb128 0x9
 10074 424b CD350000 		.4byte	0x35cd
 10075 424f 8401     		.uleb128 0x84
 10076 4251 414D0000 		.4byte	.LASF624
 10077 4255 10       		.byte	0x10
 10078 4256 D3       		.byte	0xd3
 10079 4257 5B420000 		.4byte	0x425b
 10080 425b 09       		.uleb128 0x9
 10081 425c 94360000 		.4byte	0x3694
 10082 4260 8401     		.uleb128 0x84
 10083 4262 4C470000 		.4byte	.LASF625
 10084 4266 10       		.byte	0x10
 10085 4267 D4       		.byte	0xd4
 10086 4268 6C420000 		.4byte	0x426c
 10087 426c 09       		.uleb128 0x9
 10088 426d 94360000 		.4byte	0x3694
 10089 4271 8401     		.uleb128 0x84
 10090 4273 94670000 		.4byte	.LASF626
 10091 4277 10       		.byte	0x10
 10092 4278 D5       		.byte	0xd5
 10093 4279 7D420000 		.4byte	0x427d
 10094 427d 09       		.uleb128 0x9
 10095 427e 94360000 		.4byte	0x3694
 10096 4282 8401     		.uleb128 0x84
 10097 4284 6D190000 		.4byte	.LASF627
 10098 4288 10       		.byte	0x10
 10099 4289 D6       		.byte	0xd6
 10100 428a 8E420000 		.4byte	0x428e
 10101 428e 09       		.uleb128 0x9
 10102 428f 94360000 		.4byte	0x3694
 10103 4293 8401     		.uleb128 0x84
 10104 4295 F4400000 		.4byte	.LASF628
 10105 4299 10       		.byte	0x10
 10106 429a D7       		.byte	0xd7
 10107 429b 9F420000 		.4byte	0x429f
 10108 429f 09       		.uleb128 0x9
 10109 42a0 94360000 		.4byte	0x3694
ARM GAS  C:\Users\jrdia\AppData\Local\Temp\ccFTvYyK.s 			page 209


 10110 42a4 8401     		.uleb128 0x84
 10111 42a6 FA600000 		.4byte	.LASF629
 10112 42aa 10       		.byte	0x10
 10113 42ab D8       		.byte	0xd8
 10114 42ac B0420000 		.4byte	0x42b0
 10115 42b0 09       		.uleb128 0x9
 10116 42b1 94360000 		.4byte	0x3694
 10117 42b5 8401     		.uleb128 0x84
 10118 42b7 5E190000 		.4byte	.LASF630
 10119 42bb 10       		.byte	0x10
 10120 42bc D9       		.byte	0xd9
 10121 42bd C1420000 		.4byte	0x42c1
 10122 42c1 09       		.uleb128 0x9
 10123 42c2 94360000 		.4byte	0x3694
 10124 42c6 8401     		.uleb128 0x84
 10125 42c8 713A0000 		.4byte	.LASF631
 10126 42cc 10       		.byte	0x10
 10127 42cd DA       		.byte	0xda
 10128 42ce D2420000 		.4byte	0x42d2
 10129 42d2 09       		.uleb128 0x9
 10130 42d3 94360000 		.4byte	0x3694
 10131 42d7 8401     		.uleb128 0x84
 10132 42d9 965B0000 		.4byte	.LASF632
 10133 42dd 10       		.byte	0x10
 10134 42de DB       		.byte	0xdb
 10135 42df E3420000 		.4byte	0x42e3
 10136 42e3 09       		.uleb128 0x9
 10137 42e4 94360000 		.4byte	0x3694
 10138 42e8 8401     		.uleb128 0x84
 10139 42ea 3E130000 		.4byte	.LASF633
 10140 42ee 10       		.byte	0x10
 10141 42ef DC       		.byte	0xdc
 10142 42f0 F4420000 		.4byte	0x42f4
 10143 42f4 09       		.uleb128 0x9
 10144 42f5 94360000 		.4byte	0x3694
 10145 42f9 8401     		.uleb128 0x84
 10146 42fb B82C0000 		.4byte	.LASF634
 10147 42ff 10       		.byte	0x10
 10148 4300 DD       		.byte	0xdd
 10149 4301 05430000 		.4byte	0x4305
 10150 4305 09       		.uleb128 0x9
 10151 4306 B5360000 		.4byte	0x36b5
 10152 430a 8401     		.uleb128 0x84
 10153 430c 534E0000 		.4byte	.LASF635
 10154 4310 10       		.byte	0x10
 10155 4311 DE       		.byte	0xde
 10156 4312 16430000 		.4byte	0x4316
 10157 4316 09       		.uleb128 0x9
 10158 4317 B5360000 		.4byte	0x36b5
 10159 431b 8401     		.uleb128 0x84
 10160 431d AE100000 		.4byte	.LASF636
 10161 4321 10       		.byte	0x10
 10162 4322 DF       		.byte	0xdf
 10163 4323 27430000 		.4byte	0x4327
 10164 4327 09       		.uleb128 0x9
 10165 4328 CD350000 		.4byte	0x35cd
 10166 432c 8401     		.uleb128 0x84
ARM GAS  C:\Users\jrdia\AppData\Local\Temp\ccFTvYyK.s 			page 210


 10167 432e A03C0000 		.4byte	.LASF637
 10168 4332 10       		.byte	0x10
 10169 4333 E0       		.byte	0xe0
 10170 4334 38430000 		.4byte	0x4338
 10171 4338 09       		.uleb128 0x9
 10172 4339 CD350000 		.4byte	0x35cd
 10173 433d 8401     		.uleb128 0x84
 10174 433f 305A0000 		.4byte	.LASF638
 10175 4343 10       		.byte	0x10
 10176 4344 E1       		.byte	0xe1
 10177 4345 49430000 		.4byte	0x4349
 10178 4349 09       		.uleb128 0x9
 10179 434a F8360000 		.4byte	0x36f8
 10180 434e 8401     		.uleb128 0x84
 10181 4350 C80D0000 		.4byte	.LASF639
 10182 4354 10       		.byte	0x10
 10183 4355 E2       		.byte	0xe2
 10184 4356 5A430000 		.4byte	0x435a
 10185 435a 09       		.uleb128 0x9
 10186 435b 94360000 		.4byte	0x3694
 10187 435f 8401     		.uleb128 0x84
 10188 4361 64500000 		.4byte	.LASF640
 10189 4365 10       		.byte	0x10
 10190 4366 E3       		.byte	0xe3
 10191 4367 6B430000 		.4byte	0x436b
 10192 436b 09       		.uleb128 0x9
 10193 436c 94360000 		.4byte	0x3694
 10194 4370 8401     		.uleb128 0x84
 10195 4372 2B290000 		.4byte	.LASF641
 10196 4376 10       		.byte	0x10
 10197 4377 E4       		.byte	0xe4
 10198 4378 7C430000 		.4byte	0x437c
 10199 437c 09       		.uleb128 0x9
 10200 437d 94360000 		.4byte	0x3694
 10201 4381 8401     		.uleb128 0x84
 10202 4383 02010000 		.4byte	.LASF642
 10203 4387 10       		.byte	0x10
 10204 4388 E5       		.byte	0xe5
 10205 4389 8D430000 		.4byte	0x438d
 10206 438d 09       		.uleb128 0x9
 10207 438e 94360000 		.4byte	0x3694
 10208 4392 8401     		.uleb128 0x84
 10209 4394 47430000 		.4byte	.LASF643
 10210 4398 10       		.byte	0x10
 10211 4399 E6       		.byte	0xe6
 10212 439a 9E430000 		.4byte	0x439e
 10213 439e 09       		.uleb128 0x9
 10214 439f 94360000 		.4byte	0x3694
 10215 43a3 8401     		.uleb128 0x84
 10216 43a5 2D270000 		.4byte	.LASF644
 10217 43a9 10       		.byte	0x10
 10218 43aa E9       		.byte	0xe9
 10219 43ab AF430000 		.4byte	0x43af
 10220 43af 09       		.uleb128 0x9
 10221 43b0 7E3A0000 		.4byte	0x3a7e
 10222 43b4 8401     		.uleb128 0x84
 10223 43b6 8F350000 		.4byte	.LASF645
ARM GAS  C:\Users\jrdia\AppData\Local\Temp\ccFTvYyK.s 			page 211


 10224 43ba 10       		.byte	0x10
 10225 43bb EA       		.byte	0xea
 10226 43bc C0430000 		.4byte	0x43c0
 10227 43c0 09       		.uleb128 0x9
 10228 43c1 0F360000 		.4byte	0x360f
 10229 43c5 8401     		.uleb128 0x84
 10230 43c7 010E0000 		.4byte	.LASF646
 10231 43cb 10       		.byte	0x10
 10232 43cc EB       		.byte	0xeb
 10233 43cd D1430000 		.4byte	0x43d1
 10234 43d1 09       		.uleb128 0x9
 10235 43d2 B5360000 		.4byte	0x36b5
 10236 43d6 8401     		.uleb128 0x84
 10237 43d8 F1210000 		.4byte	.LASF647
 10238 43dc 10       		.byte	0x10
 10239 43dd EC       		.byte	0xec
 10240 43de E2430000 		.4byte	0x43e2
 10241 43e2 09       		.uleb128 0x9
 10242 43e3 6A350000 		.4byte	0x356a
 10243 43e7 8401     		.uleb128 0x84
 10244 43e9 35470000 		.4byte	.LASF648
 10245 43ed 10       		.byte	0x10
 10246 43ee ED       		.byte	0xed
 10247 43ef F3430000 		.4byte	0x43f3
 10248 43f3 09       		.uleb128 0x9
 10249 43f4 8D380000 		.4byte	0x388d
 10250 43f8 8401     		.uleb128 0x84
 10251 43fa 823C0000 		.4byte	.LASF649
 10252 43fe 10       		.byte	0x10
 10253 43ff EE       		.byte	0xee
 10254 4400 04440000 		.4byte	0x4404
 10255 4404 09       		.uleb128 0x9
 10256 4405 3B370000 		.4byte	0x373b
 10257 4409 8401     		.uleb128 0x84
 10258 440b 4E690000 		.4byte	.LASF650
 10259 440f 10       		.byte	0x10
 10260 4410 EF       		.byte	0xef
 10261 4411 15440000 		.4byte	0x4415
 10262 4415 09       		.uleb128 0x9
 10263 4416 8D380000 		.4byte	0x388d
 10264 441a 8401     		.uleb128 0x84
 10265 441c C2090000 		.4byte	.LASF651
 10266 4420 10       		.byte	0x10
 10267 4421 F0       		.byte	0xf0
 10268 4422 26440000 		.4byte	0x4426
 10269 4426 09       		.uleb128 0x9
 10270 4427 8D380000 		.4byte	0x388d
 10271 442b 8401     		.uleb128 0x84
 10272 442d EC3E0000 		.4byte	.LASF652
 10273 4431 10       		.byte	0x10
 10274 4432 F1       		.byte	0xf1
 10275 4433 37440000 		.4byte	0x4437
 10276 4437 09       		.uleb128 0x9
 10277 4438 41360000 		.4byte	0x3641
 10278 443c 8401     		.uleb128 0x84
 10279 443e 81010000 		.4byte	.LASF653
 10280 4442 10       		.byte	0x10
ARM GAS  C:\Users\jrdia\AppData\Local\Temp\ccFTvYyK.s 			page 212


 10281 4443 F2       		.byte	0xf2
 10282 4444 48440000 		.4byte	0x4448
 10283 4448 09       		.uleb128 0x9
 10284 4449 7E3A0000 		.4byte	0x3a7e
 10285 444d 8401     		.uleb128 0x84
 10286 444f AF1D0000 		.4byte	.LASF654
 10287 4453 10       		.byte	0x10
 10288 4454 F3       		.byte	0xf3
 10289 4455 59440000 		.4byte	0x4459
 10290 4459 09       		.uleb128 0x9
 10291 445a 8D380000 		.4byte	0x388d
 10292 445e 8401     		.uleb128 0x84
 10293 4460 8B080000 		.4byte	.LASF655
 10294 4464 10       		.byte	0x10
 10295 4465 F4       		.byte	0xf4
 10296 4466 6A440000 		.4byte	0x446a
 10297 446a 09       		.uleb128 0x9
 10298 446b 41360000 		.4byte	0x3641
 10299 446f 8401     		.uleb128 0x84
 10300 4471 172C0000 		.4byte	.LASF656
 10301 4475 10       		.byte	0x10
 10302 4476 F5       		.byte	0xf5
 10303 4477 7B440000 		.4byte	0x447b
 10304 447b 09       		.uleb128 0x9
 10305 447c 41360000 		.4byte	0x3641
 10306 4480 8401     		.uleb128 0x84
 10307 4482 AB0C0000 		.4byte	.LASF657
 10308 4486 10       		.byte	0x10
 10309 4487 F6       		.byte	0xf6
 10310 4488 8C440000 		.4byte	0x448c
 10311 448c 09       		.uleb128 0x9
 10312 448d B5360000 		.4byte	0x36b5
 10313 4491 8401     		.uleb128 0x84
 10314 4493 2A1B0000 		.4byte	.LASF658
 10315 4497 10       		.byte	0x10
 10316 4498 F7       		.byte	0xf7
 10317 4499 9D440000 		.4byte	0x449d
 10318 449d 09       		.uleb128 0x9
 10319 449e 3B370000 		.4byte	0x373b
 10320 44a2 8401     		.uleb128 0x84
 10321 44a4 92640000 		.4byte	.LASF659
 10322 44a8 10       		.byte	0x10
 10323 44a9 F8       		.byte	0xf8
 10324 44aa AE440000 		.4byte	0x44ae
 10325 44ae 09       		.uleb128 0x9
 10326 44af 73360000 		.4byte	0x3673
 10327 44b3 8401     		.uleb128 0x84
 10328 44b5 5E240000 		.4byte	.LASF660
 10329 44b9 10       		.byte	0x10
 10330 44ba F9       		.byte	0xf9
 10331 44bb BF440000 		.4byte	0x44bf
 10332 44bf 09       		.uleb128 0x9
 10333 44c0 EE350000 		.4byte	0x35ee
 10334 44c4 8401     		.uleb128 0x84
 10335 44c6 C4390000 		.4byte	.LASF661
 10336 44ca 10       		.byte	0x10
 10337 44cb FA       		.byte	0xfa
ARM GAS  C:\Users\jrdia\AppData\Local\Temp\ccFTvYyK.s 			page 213


 10338 44cc D0440000 		.4byte	0x44d0
 10339 44d0 09       		.uleb128 0x9
 10340 44d1 CD350000 		.4byte	0x35cd
 10341 44d5 8401     		.uleb128 0x84
 10342 44d7 BF170000 		.4byte	.LASF662
 10343 44db 10       		.byte	0x10
 10344 44dc FB       		.byte	0xfb
 10345 44dd E1440000 		.4byte	0x44e1
 10346 44e1 09       		.uleb128 0x9
 10347 44e2 94360000 		.4byte	0x3694
 10348 44e6 8401     		.uleb128 0x84
 10349 44e8 35600000 		.4byte	.LASF663
 10350 44ec 10       		.byte	0x10
 10351 44ed FC       		.byte	0xfc
 10352 44ee F2440000 		.4byte	0x44f2
 10353 44f2 09       		.uleb128 0x9
 10354 44f3 EE350000 		.4byte	0x35ee
 10355 44f7 8401     		.uleb128 0x84
 10356 44f9 38050000 		.4byte	.LASF664
 10357 44fd 10       		.byte	0x10
 10358 44fe FD       		.byte	0xfd
 10359 44ff 03450000 		.4byte	0x4503
 10360 4503 09       		.uleb128 0x9
 10361 4504 EE350000 		.4byte	0x35ee
 10362 4508 8401     		.uleb128 0x84
 10363 450a 05580000 		.4byte	.LASF665
 10364 450e 10       		.byte	0x10
 10365 450f FE       		.byte	0xfe
 10366 4510 14450000 		.4byte	0x4514
 10367 4514 09       		.uleb128 0x9
 10368 4515 B5360000 		.4byte	0x36b5
 10369 4519 8401     		.uleb128 0x84
 10370 451b D1100000 		.4byte	.LASF666
 10371 451f 10       		.byte	0x10
 10372 4520 FF       		.byte	0xff
 10373 4521 25450000 		.4byte	0x4525
 10374 4525 09       		.uleb128 0x9
 10375 4526 41360000 		.4byte	0x3641
 10376 452a 56       		.uleb128 0x56
 10377 452b 01630000 		.4byte	.LASF667
 10378 452f 10       		.byte	0x10
 10379 4530 0001     		.2byte	0x100
 10380 4532 36450000 		.4byte	0x4536
 10381 4536 09       		.uleb128 0x9
 10382 4537 F8360000 		.4byte	0x36f8
 10383 453b 56       		.uleb128 0x56
 10384 453c 64320000 		.4byte	.LASF668
 10385 4540 10       		.byte	0x10
 10386 4541 0101     		.2byte	0x101
 10387 4543 47450000 		.4byte	0x4547
 10388 4547 09       		.uleb128 0x9
 10389 4548 EE350000 		.4byte	0x35ee
 10390 454c 56       		.uleb128 0x56
 10391 454d 1C2E0000 		.4byte	.LASF669
 10392 4551 10       		.byte	0x10
 10393 4552 0201     		.2byte	0x102
 10394 4554 58450000 		.4byte	0x4558
ARM GAS  C:\Users\jrdia\AppData\Local\Temp\ccFTvYyK.s 			page 214


 10395 4558 09       		.uleb128 0x9
 10396 4559 CD350000 		.4byte	0x35cd
 10397 455d 56       		.uleb128 0x56
 10398 455e 384A0000 		.4byte	.LASF670
 10399 4562 10       		.byte	0x10
 10400 4563 0301     		.2byte	0x103
 10401 4565 69450000 		.4byte	0x4569
 10402 4569 09       		.uleb128 0x9
 10403 456a AC350000 		.4byte	0x35ac
 10404 456e 56       		.uleb128 0x56
 10405 456f 4E660000 		.4byte	.LASF671
 10406 4573 10       		.byte	0x10
 10407 4574 0401     		.2byte	0x104
 10408 4576 7A450000 		.4byte	0x457a
 10409 457a 09       		.uleb128 0x9
 10410 457b 7E3A0000 		.4byte	0x3a7e
 10411 457f 56       		.uleb128 0x56
 10412 4580 3E330000 		.4byte	.LASF672
 10413 4584 10       		.byte	0x10
 10414 4585 0701     		.2byte	0x107
 10415 4587 8B450000 		.4byte	0x458b
 10416 458b 09       		.uleb128 0x9
 10417 458c 7E3A0000 		.4byte	0x3a7e
 10418 4590 56       		.uleb128 0x56
 10419 4591 79600000 		.4byte	.LASF673
 10420 4595 10       		.byte	0x10
 10421 4596 0801     		.2byte	0x108
 10422 4598 9C450000 		.4byte	0x459c
 10423 459c 09       		.uleb128 0x9
 10424 459d 0F360000 		.4byte	0x360f
 10425 45a1 56       		.uleb128 0x56
 10426 45a2 035A0000 		.4byte	.LASF674
 10427 45a6 10       		.byte	0x10
 10428 45a7 0901     		.2byte	0x109
 10429 45a9 AD450000 		.4byte	0x45ad
 10430 45ad 09       		.uleb128 0x9
 10431 45ae 0F360000 		.4byte	0x360f
 10432 45b2 56       		.uleb128 0x56
 10433 45b3 08500000 		.4byte	.LASF675
 10434 45b7 10       		.byte	0x10
 10435 45b8 0A01     		.2byte	0x10a
 10436 45ba BE450000 		.4byte	0x45be
 10437 45be 09       		.uleb128 0x9
 10438 45bf 013D0000 		.4byte	0x3d01
 10439 45c3 56       		.uleb128 0x56
 10440 45c4 FA580000 		.4byte	.LASF676
 10441 45c8 10       		.byte	0x10
 10442 45c9 0B01     		.2byte	0x10b
 10443 45cb CF450000 		.4byte	0x45cf
 10444 45cf 09       		.uleb128 0x9
 10445 45d0 AE380000 		.4byte	0x38ae
 10446 45d4 56       		.uleb128 0x56
 10447 45d5 8D160000 		.4byte	.LASF677
 10448 45d9 10       		.byte	0x10
 10449 45da 0C01     		.2byte	0x10c
 10450 45dc E0450000 		.4byte	0x45e0
 10451 45e0 09       		.uleb128 0x9
ARM GAS  C:\Users\jrdia\AppData\Local\Temp\ccFTvYyK.s 			page 215


 10452 45e1 B1370000 		.4byte	0x37b1
 10453 45e5 56       		.uleb128 0x56
 10454 45e6 08040000 		.4byte	.LASF678
 10455 45ea 10       		.byte	0x10
 10456 45eb 0D01     		.2byte	0x10d
 10457 45ed F1450000 		.4byte	0x45f1
 10458 45f1 09       		.uleb128 0x9
 10459 45f2 C13A0000 		.4byte	0x3ac1
 10460 45f6 56       		.uleb128 0x56
 10461 45f7 2C510000 		.4byte	.LASF679
 10462 45fb 10       		.byte	0x10
 10463 45fc 1001     		.2byte	0x110
 10464 45fe 02460000 		.4byte	0x4602
 10465 4602 09       		.uleb128 0x9
 10466 4603 EE350000 		.4byte	0x35ee
 10467 4607 56       		.uleb128 0x56
 10468 4608 A03D0000 		.4byte	.LASF680
 10469 460c 10       		.byte	0x10
 10470 460d 1101     		.2byte	0x111
 10471 460f 13460000 		.4byte	0x4613
 10472 4613 09       		.uleb128 0x9
 10473 4614 F8360000 		.4byte	0x36f8
 10474 4618 56       		.uleb128 0x56
 10475 4619 D10B0000 		.4byte	.LASF681
 10476 461d 10       		.byte	0x10
 10477 461e 1201     		.2byte	0x112
 10478 4620 24460000 		.4byte	0x4624
 10479 4624 09       		.uleb128 0x9
 10480 4625 0F360000 		.4byte	0x360f
 10481 4629 56       		.uleb128 0x56
 10482 462a D8560000 		.4byte	.LASF682
 10483 462e 10       		.byte	0x10
 10484 462f 1301     		.2byte	0x113
 10485 4631 35460000 		.4byte	0x4635
 10486 4635 09       		.uleb128 0x9
 10487 4636 B5360000 		.4byte	0x36b5
 10488 463a 56       		.uleb128 0x56
 10489 463b 3B390000 		.4byte	.LASF683
 10490 463f 10       		.byte	0x10
 10491 4640 1401     		.2byte	0x114
 10492 4642 46460000 		.4byte	0x4646
 10493 4646 09       		.uleb128 0x9
 10494 4647 73360000 		.4byte	0x3673
 10495 464b 56       		.uleb128 0x56
 10496 464c C1020000 		.4byte	.LASF684
 10497 4650 10       		.byte	0x10
 10498 4651 1501     		.2byte	0x115
 10499 4653 57460000 		.4byte	0x4657
 10500 4657 09       		.uleb128 0x9
 10501 4658 6A350000 		.4byte	0x356a
 10502 465c 56       		.uleb128 0x56
 10503 465d E31B0000 		.4byte	.LASF685
 10504 4661 10       		.byte	0x10
 10505 4662 1601     		.2byte	0x116
 10506 4664 68460000 		.4byte	0x4668
 10507 4668 09       		.uleb128 0x9
 10508 4669 8B350000 		.4byte	0x358b
ARM GAS  C:\Users\jrdia\AppData\Local\Temp\ccFTvYyK.s 			page 216


 10509 466d 56       		.uleb128 0x56
 10510 466e BC190000 		.4byte	.LASF686
 10511 4672 10       		.byte	0x10
 10512 4673 1701     		.2byte	0x117
 10513 4675 79460000 		.4byte	0x4679
 10514 4679 09       		.uleb128 0x9
 10515 467a 6A350000 		.4byte	0x356a
 10516 467e 56       		.uleb128 0x56
 10517 467f 25390000 		.4byte	.LASF687
 10518 4683 10       		.byte	0x10
 10519 4684 1801     		.2byte	0x118
 10520 4686 8A460000 		.4byte	0x468a
 10521 468a 09       		.uleb128 0x9
 10522 468b 73360000 		.4byte	0x3673
 10523 468f 56       		.uleb128 0x56
 10524 4690 8A380000 		.4byte	.LASF688
 10525 4694 10       		.byte	0x10
 10526 4695 1901     		.2byte	0x119
 10527 4697 9B460000 		.4byte	0x469b
 10528 469b 09       		.uleb128 0x9
 10529 469c F8360000 		.4byte	0x36f8
 10530 46a0 56       		.uleb128 0x56
 10531 46a1 01160000 		.4byte	.LASF689
 10532 46a5 10       		.byte	0x10
 10533 46a6 1A01     		.2byte	0x11a
 10534 46a8 AC460000 		.4byte	0x46ac
 10535 46ac 09       		.uleb128 0x9
 10536 46ad 41360000 		.4byte	0x3641
 10537 46b1 56       		.uleb128 0x56
 10538 46b2 7A320000 		.4byte	.LASF690
 10539 46b6 10       		.byte	0x10
 10540 46b7 1B01     		.2byte	0x11b
 10541 46b9 BD460000 		.4byte	0x46bd
 10542 46bd 09       		.uleb128 0x9
 10543 46be 7E3A0000 		.4byte	0x3a7e
 10544 46c2 56       		.uleb128 0x56
 10545 46c3 46550000 		.4byte	.LASF691
 10546 46c7 10       		.byte	0x10
 10547 46c8 1C01     		.2byte	0x11c
 10548 46ca CE460000 		.4byte	0x46ce
 10549 46ce 09       		.uleb128 0x9
 10550 46cf B5360000 		.4byte	0x36b5
 10551 46d3 56       		.uleb128 0x56
 10552 46d4 1F600000 		.4byte	.LASF692
 10553 46d8 10       		.byte	0x10
 10554 46d9 1D01     		.2byte	0x11d
 10555 46db DF460000 		.4byte	0x46df
 10556 46df 09       		.uleb128 0x9
 10557 46e0 3B370000 		.4byte	0x373b
 10558 46e4 56       		.uleb128 0x56
 10559 46e5 A5010000 		.4byte	.LASF693
 10560 46e9 10       		.byte	0x10
 10561 46ea 1E01     		.2byte	0x11e
 10562 46ec F0460000 		.4byte	0x46f0
 10563 46f0 09       		.uleb128 0x9
 10564 46f1 0F360000 		.4byte	0x360f
 10565 46f5 56       		.uleb128 0x56
ARM GAS  C:\Users\jrdia\AppData\Local\Temp\ccFTvYyK.s 			page 217


 10566 46f6 FD650000 		.4byte	.LASF694
 10567 46fa 10       		.byte	0x10
 10568 46fb 1F01     		.2byte	0x11f
 10569 46fd 01470000 		.4byte	0x4701
 10570 4701 09       		.uleb128 0x9
 10571 4702 94360000 		.4byte	0x3694
 10572 4706 56       		.uleb128 0x56
 10573 4707 83280000 		.4byte	.LASF695
 10574 470b 10       		.byte	0x10
 10575 470c 2001     		.2byte	0x120
 10576 470e 12470000 		.4byte	0x4712
 10577 4712 09       		.uleb128 0x9
 10578 4713 94360000 		.4byte	0x3694
 10579 4717 56       		.uleb128 0x56
 10580 4718 A7540000 		.4byte	.LASF696
 10581 471c 10       		.byte	0x10
 10582 471d 2101     		.2byte	0x121
 10583 471f 23470000 		.4byte	0x4723
 10584 4723 09       		.uleb128 0x9
 10585 4724 C13A0000 		.4byte	0x3ac1
 10586 4728 56       		.uleb128 0x56
 10587 4729 ED460000 		.4byte	.LASF697
 10588 472d 10       		.byte	0x10
 10589 472e 2201     		.2byte	0x122
 10590 4730 34470000 		.4byte	0x4734
 10591 4734 09       		.uleb128 0x9
 10592 4735 EE350000 		.4byte	0x35ee
 10593 4739 56       		.uleb128 0x56
 10594 473a F4010000 		.4byte	.LASF698
 10595 473e 10       		.byte	0x10
 10596 473f 2301     		.2byte	0x123
 10597 4741 45470000 		.4byte	0x4745
 10598 4745 09       		.uleb128 0x9
 10599 4746 6A350000 		.4byte	0x356a
 10600 474a 56       		.uleb128 0x56
 10601 474b BD380000 		.4byte	.LASF699
 10602 474f 10       		.byte	0x10
 10603 4750 2401     		.2byte	0x124
 10604 4752 56470000 		.4byte	0x4756
 10605 4756 09       		.uleb128 0x9
 10606 4757 6A350000 		.4byte	0x356a
 10607 475b 56       		.uleb128 0x56
 10608 475c 1A580000 		.4byte	.LASF700
 10609 4760 10       		.byte	0x10
 10610 4761 2501     		.2byte	0x125
 10611 4763 67470000 		.4byte	0x4767
 10612 4767 09       		.uleb128 0x9
 10613 4768 AC350000 		.4byte	0x35ac
 10614 476c 56       		.uleb128 0x56
 10615 476d 10090000 		.4byte	.LASF701
 10616 4771 10       		.byte	0x10
 10617 4772 2601     		.2byte	0x126
 10618 4774 78470000 		.4byte	0x4778
 10619 4778 09       		.uleb128 0x9
 10620 4779 EE350000 		.4byte	0x35ee
 10621 477d 56       		.uleb128 0x56
 10622 477e D0490000 		.4byte	.LASF702
ARM GAS  C:\Users\jrdia\AppData\Local\Temp\ccFTvYyK.s 			page 218


 10623 4782 10       		.byte	0x10
 10624 4783 2701     		.2byte	0x127
 10625 4785 89470000 		.4byte	0x4789
 10626 4789 09       		.uleb128 0x9
 10627 478a 73360000 		.4byte	0x3673
 10628 478e 56       		.uleb128 0x56
 10629 478f CD0E0000 		.4byte	.LASF703
 10630 4793 10       		.byte	0x10
 10631 4794 2801     		.2byte	0x128
 10632 4796 9A470000 		.4byte	0x479a
 10633 479a 09       		.uleb128 0x9
 10634 479b EE350000 		.4byte	0x35ee
 10635 479f 56       		.uleb128 0x56
 10636 47a0 BA3E0000 		.4byte	.LASF704
 10637 47a4 10       		.byte	0x10
 10638 47a5 2901     		.2byte	0x129
 10639 47a7 AB470000 		.4byte	0x47ab
 10640 47ab 09       		.uleb128 0x9
 10641 47ac F8360000 		.4byte	0x36f8
 10642 47b0 56       		.uleb128 0x56
 10643 47b1 25040000 		.4byte	.LASF705
 10644 47b5 10       		.byte	0x10
 10645 47b6 2A01     		.2byte	0x12a
 10646 47b8 BC470000 		.4byte	0x47bc
 10647 47bc 09       		.uleb128 0x9
 10648 47bd 94360000 		.4byte	0x3694
 10649 47c1 56       		.uleb128 0x56
 10650 47c2 16060000 		.4byte	.LASF706
 10651 47c6 10       		.byte	0x10
 10652 47c7 2B01     		.2byte	0x12b
 10653 47c9 CD470000 		.4byte	0x47cd
 10654 47cd 09       		.uleb128 0x9
 10655 47ce 94360000 		.4byte	0x3694
 10656 47d2 56       		.uleb128 0x56
 10657 47d3 101D0000 		.4byte	.LASF707
 10658 47d7 10       		.byte	0x10
 10659 47d8 2C01     		.2byte	0x12c
 10660 47da DE470000 		.4byte	0x47de
 10661 47de 09       		.uleb128 0x9
 10662 47df B5360000 		.4byte	0x36b5
 10663 47e3 56       		.uleb128 0x56
 10664 47e4 EC4E0000 		.4byte	.LASF708
 10665 47e8 10       		.byte	0x10
 10666 47e9 2D01     		.2byte	0x12d
 10667 47eb EF470000 		.4byte	0x47ef
 10668 47ef 09       		.uleb128 0x9
 10669 47f0 B5360000 		.4byte	0x36b5
 10670 47f4 56       		.uleb128 0x56
 10671 47f5 AC470000 		.4byte	.LASF709
 10672 47f9 10       		.byte	0x10
 10673 47fa 2E01     		.2byte	0x12e
 10674 47fc 00480000 		.4byte	0x4800
 10675 4800 09       		.uleb128 0x9
 10676 4801 EE350000 		.4byte	0x35ee
 10677 4805 56       		.uleb128 0x56
 10678 4806 5F2C0000 		.4byte	.LASF710
 10679 480a 10       		.byte	0x10
ARM GAS  C:\Users\jrdia\AppData\Local\Temp\ccFTvYyK.s 			page 219


 10680 480b 2F01     		.2byte	0x12f
 10681 480d 11480000 		.4byte	0x4811
 10682 4811 09       		.uleb128 0x9
 10683 4812 73360000 		.4byte	0x3673
 10684 4816 56       		.uleb128 0x56
 10685 4817 D2190000 		.4byte	.LASF711
 10686 481b 10       		.byte	0x10
 10687 481c 3001     		.2byte	0x130
 10688 481e 22480000 		.4byte	0x4822
 10689 4822 09       		.uleb128 0x9
 10690 4823 6A350000 		.4byte	0x356a
 10691 4827 56       		.uleb128 0x56
 10692 4828 D2690000 		.4byte	.LASF712
 10693 482c 10       		.byte	0x10
 10694 482d 3101     		.2byte	0x131
 10695 482f 33480000 		.4byte	0x4833
 10696 4833 09       		.uleb128 0x9
 10697 4834 EE350000 		.4byte	0x35ee
 10698 4838 56       		.uleb128 0x56
 10699 4839 F9110000 		.4byte	.LASF713
 10700 483d 10       		.byte	0x10
 10701 483e 3201     		.2byte	0x132
 10702 4840 44480000 		.4byte	0x4844
 10703 4844 09       		.uleb128 0x9
 10704 4845 CD350000 		.4byte	0x35cd
 10705 4849 56       		.uleb128 0x56
 10706 484a 64250000 		.4byte	.LASF714
 10707 484e 10       		.byte	0x10
 10708 484f 3301     		.2byte	0x133
 10709 4851 55480000 		.4byte	0x4855
 10710 4855 09       		.uleb128 0x9
 10711 4856 CD350000 		.4byte	0x35cd
 10712 485a 56       		.uleb128 0x56
 10713 485b 75670000 		.4byte	.LASF715
 10714 485f 10       		.byte	0x10
 10715 4860 3401     		.2byte	0x134
 10716 4862 66480000 		.4byte	0x4866
 10717 4866 09       		.uleb128 0x9
 10718 4867 0F360000 		.4byte	0x360f
 10719 486b 56       		.uleb128 0x56
 10720 486c 0A080000 		.4byte	.LASF716
 10721 4870 10       		.byte	0x10
 10722 4871 3501     		.2byte	0x135
 10723 4873 77480000 		.4byte	0x4877
 10724 4877 09       		.uleb128 0x9
 10725 4878 73360000 		.4byte	0x3673
 10726 487c 56       		.uleb128 0x56
 10727 487d 525D0000 		.4byte	.LASF717
 10728 4881 10       		.byte	0x10
 10729 4882 3601     		.2byte	0x136
 10730 4884 88480000 		.4byte	0x4888
 10731 4888 09       		.uleb128 0x9
 10732 4889 EE350000 		.4byte	0x35ee
 10733 488d 56       		.uleb128 0x56
 10734 488e 1E5F0000 		.4byte	.LASF718
 10735 4892 10       		.byte	0x10
 10736 4893 3701     		.2byte	0x137
ARM GAS  C:\Users\jrdia\AppData\Local\Temp\ccFTvYyK.s 			page 220


 10737 4895 99480000 		.4byte	0x4899
 10738 4899 09       		.uleb128 0x9
 10739 489a 94360000 		.4byte	0x3694
 10740 489e 56       		.uleb128 0x56
 10741 489f 00550000 		.4byte	.LASF719
 10742 48a3 10       		.byte	0x10
 10743 48a4 3801     		.2byte	0x138
 10744 48a6 AA480000 		.4byte	0x48aa
 10745 48aa 09       		.uleb128 0x9
 10746 48ab B5360000 		.4byte	0x36b5
 10747 48af 56       		.uleb128 0x56
 10748 48b0 06240000 		.4byte	.LASF720
 10749 48b4 10       		.byte	0x10
 10750 48b5 3901     		.2byte	0x139
 10751 48b7 BB480000 		.4byte	0x48bb
 10752 48bb 09       		.uleb128 0x9
 10753 48bc B5360000 		.4byte	0x36b5
 10754 48c0 56       		.uleb128 0x56
 10755 48c1 3D2C0000 		.4byte	.LASF721
 10756 48c5 10       		.byte	0x10
 10757 48c6 3A01     		.2byte	0x13a
 10758 48c8 CC480000 		.4byte	0x48cc
 10759 48cc 09       		.uleb128 0x9
 10760 48cd EE350000 		.4byte	0x35ee
 10761 48d1 56       		.uleb128 0x56
 10762 48d2 40170000 		.4byte	.LASF722
 10763 48d6 10       		.byte	0x10
 10764 48d7 3B01     		.2byte	0x13b
 10765 48d9 DD480000 		.4byte	0x48dd
 10766 48dd 09       		.uleb128 0x9
 10767 48de 73360000 		.4byte	0x3673
 10768 48e2 56       		.uleb128 0x56
 10769 48e3 84490000 		.4byte	.LASF723
 10770 48e7 10       		.byte	0x10
 10771 48e8 3C01     		.2byte	0x13c
 10772 48ea EE480000 		.4byte	0x48ee
 10773 48ee 09       		.uleb128 0x9
 10774 48ef 8B350000 		.4byte	0x358b
 10775 48f3 56       		.uleb128 0x56
 10776 48f4 DE2F0000 		.4byte	.LASF724
 10777 48f8 10       		.byte	0x10
 10778 48f9 3D01     		.2byte	0x13d
 10779 48fb FF480000 		.4byte	0x48ff
 10780 48ff 09       		.uleb128 0x9
 10781 4900 F8360000 		.4byte	0x36f8
 10782 4904 56       		.uleb128 0x56
 10783 4905 38000000 		.4byte	.LASF725
 10784 4909 10       		.byte	0x10
 10785 490a 3E01     		.2byte	0x13e
 10786 490c 10490000 		.4byte	0x4910
 10787 4910 09       		.uleb128 0x9
 10788 4911 F8360000 		.4byte	0x36f8
 10789 4915 56       		.uleb128 0x56
 10790 4916 02350000 		.4byte	.LASF726
 10791 491a 10       		.byte	0x10
 10792 491b 3F01     		.2byte	0x13f
 10793 491d 21490000 		.4byte	0x4921
ARM GAS  C:\Users\jrdia\AppData\Local\Temp\ccFTvYyK.s 			page 221


 10794 4921 09       		.uleb128 0x9
 10795 4922 94360000 		.4byte	0x3694
 10796 4926 56       		.uleb128 0x56
 10797 4927 D0590000 		.4byte	.LASF727
 10798 492b 10       		.byte	0x10
 10799 492c 4001     		.2byte	0x140
 10800 492e 32490000 		.4byte	0x4932
 10801 4932 09       		.uleb128 0x9
 10802 4933 6A350000 		.4byte	0x356a
 10803 4937 56       		.uleb128 0x56
 10804 4938 D9090000 		.4byte	.LASF728
 10805 493c 10       		.byte	0x10
 10806 493d 4101     		.2byte	0x141
 10807 493f 43490000 		.4byte	0x4943
 10808 4943 09       		.uleb128 0x9
 10809 4944 6A350000 		.4byte	0x356a
 10810 4948 56       		.uleb128 0x56
 10811 4949 011C0000 		.4byte	.LASF729
 10812 494d 10       		.byte	0x10
 10813 494e 4201     		.2byte	0x142
 10814 4950 54490000 		.4byte	0x4954
 10815 4954 09       		.uleb128 0x9
 10816 4955 73360000 		.4byte	0x3673
 10817 4959 56       		.uleb128 0x56
 10818 495a B1440000 		.4byte	.LASF730
 10819 495e 10       		.byte	0x10
 10820 495f 4301     		.2byte	0x143
 10821 4961 65490000 		.4byte	0x4965
 10822 4965 09       		.uleb128 0x9
 10823 4966 94360000 		.4byte	0x3694
 10824 496a 56       		.uleb128 0x56
 10825 496b D9000000 		.4byte	.LASF731
 10826 496f 10       		.byte	0x10
 10827 4970 4401     		.2byte	0x144
 10828 4972 76490000 		.4byte	0x4976
 10829 4976 09       		.uleb128 0x9
 10830 4977 EE350000 		.4byte	0x35ee
 10831 497b 56       		.uleb128 0x56
 10832 497c C1550000 		.4byte	.LASF732
 10833 4980 10       		.byte	0x10
 10834 4981 4501     		.2byte	0x145
 10835 4983 87490000 		.4byte	0x4987
 10836 4987 09       		.uleb128 0x9
 10837 4988 73360000 		.4byte	0x3673
 10838 498c 56       		.uleb128 0x56
 10839 498d 18610000 		.4byte	.LASF733
 10840 4991 10       		.byte	0x10
 10841 4992 4601     		.2byte	0x146
 10842 4994 98490000 		.4byte	0x4998
 10843 4998 09       		.uleb128 0x9
 10844 4999 8B350000 		.4byte	0x358b
 10845 499d 56       		.uleb128 0x56
 10846 499e C1440000 		.4byte	.LASF734
 10847 49a2 10       		.byte	0x10
 10848 49a3 4701     		.2byte	0x147
 10849 49a5 A9490000 		.4byte	0x49a9
 10850 49a9 09       		.uleb128 0x9
ARM GAS  C:\Users\jrdia\AppData\Local\Temp\ccFTvYyK.s 			page 222


 10851 49aa 6A350000 		.4byte	0x356a
 10852 49ae 56       		.uleb128 0x56
 10853 49af 874B0000 		.4byte	.LASF735
 10854 49b3 10       		.byte	0x10
 10855 49b4 4801     		.2byte	0x148
 10856 49b6 BA490000 		.4byte	0x49ba
 10857 49ba 09       		.uleb128 0x9
 10858 49bb 8B350000 		.4byte	0x358b
 10859 49bf 56       		.uleb128 0x56
 10860 49c0 DA680000 		.4byte	.LASF736
 10861 49c4 10       		.byte	0x10
 10862 49c5 4901     		.2byte	0x149
 10863 49c7 CB490000 		.4byte	0x49cb
 10864 49cb 09       		.uleb128 0x9
 10865 49cc 41360000 		.4byte	0x3641
 10866 49d0 56       		.uleb128 0x56
 10867 49d1 F02F0000 		.4byte	.LASF737
 10868 49d5 10       		.byte	0x10
 10869 49d6 4A01     		.2byte	0x14a
 10870 49d8 DC490000 		.4byte	0x49dc
 10871 49dc 09       		.uleb128 0x9
 10872 49dd C13A0000 		.4byte	0x3ac1
 10873 49e1 56       		.uleb128 0x56
 10874 49e2 6D270000 		.4byte	.LASF738
 10875 49e6 10       		.byte	0x10
 10876 49e7 4B01     		.2byte	0x14b
 10877 49e9 ED490000 		.4byte	0x49ed
 10878 49ed 09       		.uleb128 0x9
 10879 49ee B1370000 		.4byte	0x37b1
 10880 49f2 56       		.uleb128 0x56
 10881 49f3 2E5B0000 		.4byte	.LASF739
 10882 49f7 10       		.byte	0x10
 10883 49f8 4C01     		.2byte	0x14c
 10884 49fa FE490000 		.4byte	0x49fe
 10885 49fe 09       		.uleb128 0x9
 10886 49ff 94360000 		.4byte	0x3694
 10887 4a03 56       		.uleb128 0x56
 10888 4a04 951E0000 		.4byte	.LASF740
 10889 4a08 10       		.byte	0x10
 10890 4a09 4D01     		.2byte	0x14d
 10891 4a0b 0F4A0000 		.4byte	0x4a0f
 10892 4a0f 09       		.uleb128 0x9
 10893 4a10 F8360000 		.4byte	0x36f8
 10894 4a14 56       		.uleb128 0x56
 10895 4a15 32560000 		.4byte	.LASF741
 10896 4a19 10       		.byte	0x10
 10897 4a1a 4E01     		.2byte	0x14e
 10898 4a1c 204A0000 		.4byte	0x4a20
 10899 4a20 09       		.uleb128 0x9
 10900 4a21 7E3A0000 		.4byte	0x3a7e
 10901 4a25 56       		.uleb128 0x56
 10902 4a26 C33A0000 		.4byte	.LASF742
 10903 4a2a 10       		.byte	0x10
 10904 4a2b 4F01     		.2byte	0x14f
 10905 4a2d 314A0000 		.4byte	0x4a31
 10906 4a31 09       		.uleb128 0x9
 10907 4a32 7E3A0000 		.4byte	0x3a7e
ARM GAS  C:\Users\jrdia\AppData\Local\Temp\ccFTvYyK.s 			page 223


 10908 4a36 56       		.uleb128 0x56
 10909 4a37 BC0C0000 		.4byte	.LASF743
 10910 4a3b 10       		.byte	0x10
 10911 4a3c 5001     		.2byte	0x150
 10912 4a3e 424A0000 		.4byte	0x4a42
 10913 4a42 09       		.uleb128 0x9
 10914 4a43 B5360000 		.4byte	0x36b5
 10915 4a47 56       		.uleb128 0x56
 10916 4a48 D41A0000 		.4byte	.LASF744
 10917 4a4c 10       		.byte	0x10
 10918 4a4d 5101     		.2byte	0x151
 10919 4a4f 534A0000 		.4byte	0x4a53
 10920 4a53 09       		.uleb128 0x9
 10921 4a54 41360000 		.4byte	0x3641
 10922 4a58 56       		.uleb128 0x56
 10923 4a59 36220000 		.4byte	.LASF745
 10924 4a5d 10       		.byte	0x10
 10925 4a5e 5201     		.2byte	0x152
 10926 4a60 644A0000 		.4byte	0x4a64
 10927 4a64 09       		.uleb128 0x9
 10928 4a65 C13A0000 		.4byte	0x3ac1
 10929 4a69 56       		.uleb128 0x56
 10930 4a6a C5260000 		.4byte	.LASF746
 10931 4a6e 10       		.byte	0x10
 10932 4a6f 5301     		.2byte	0x153
 10933 4a71 754A0000 		.4byte	0x4a75
 10934 4a75 09       		.uleb128 0x9
 10935 4a76 AC350000 		.4byte	0x35ac
 10936 4a7a 56       		.uleb128 0x56
 10937 4a7b FA0E0000 		.4byte	.LASF747
 10938 4a7f 10       		.byte	0x10
 10939 4a80 5401     		.2byte	0x154
 10940 4a82 864A0000 		.4byte	0x4a86
 10941 4a86 09       		.uleb128 0x9
 10942 4a87 C13A0000 		.4byte	0x3ac1
 10943 4a8b 56       		.uleb128 0x56
 10944 4a8c 8A660000 		.4byte	.LASF748
 10945 4a90 10       		.byte	0x10
 10946 4a91 5501     		.2byte	0x155
 10947 4a93 974A0000 		.4byte	0x4a97
 10948 4a97 09       		.uleb128 0x9
 10949 4a98 AC350000 		.4byte	0x35ac
 10950 4a9c 56       		.uleb128 0x56
 10951 4a9d 18540000 		.4byte	.LASF749
 10952 4aa1 10       		.byte	0x10
 10953 4aa2 5601     		.2byte	0x156
 10954 4aa4 A84A0000 		.4byte	0x4aa8
 10955 4aa8 09       		.uleb128 0x9
 10956 4aa9 8D380000 		.4byte	0x388d
 10957 4aad 56       		.uleb128 0x56
 10958 4aae 1F470000 		.4byte	.LASF750
 10959 4ab2 10       		.byte	0x10
 10960 4ab3 5701     		.2byte	0x157
 10961 4ab5 B94A0000 		.4byte	0x4ab9
 10962 4ab9 09       		.uleb128 0x9
 10963 4aba B5360000 		.4byte	0x36b5
 10964 4abe 56       		.uleb128 0x56
ARM GAS  C:\Users\jrdia\AppData\Local\Temp\ccFTvYyK.s 			page 224


 10965 4abf A7260000 		.4byte	.LASF751
 10966 4ac3 10       		.byte	0x10
 10967 4ac4 5801     		.2byte	0x158
 10968 4ac6 CA4A0000 		.4byte	0x4aca
 10969 4aca 09       		.uleb128 0x9
 10970 4acb F8360000 		.4byte	0x36f8
 10971 4acf 56       		.uleb128 0x56
 10972 4ad0 BC060000 		.4byte	.LASF752
 10973 4ad4 10       		.byte	0x10
 10974 4ad5 5901     		.2byte	0x159
 10975 4ad7 DB4A0000 		.4byte	0x4adb
 10976 4adb 09       		.uleb128 0x9
 10977 4adc F8360000 		.4byte	0x36f8
 10978 4ae0 56       		.uleb128 0x56
 10979 4ae1 3A1E0000 		.4byte	.LASF753
 10980 4ae5 10       		.byte	0x10
 10981 4ae6 5A01     		.2byte	0x15a
 10982 4ae8 EC4A0000 		.4byte	0x4aec
 10983 4aec 09       		.uleb128 0x9
 10984 4aed B5360000 		.4byte	0x36b5
 10985 4af1 56       		.uleb128 0x56
 10986 4af2 A31A0000 		.4byte	.LASF754
 10987 4af6 10       		.byte	0x10
 10988 4af7 5B01     		.2byte	0x15b
 10989 4af9 FD4A0000 		.4byte	0x4afd
 10990 4afd 09       		.uleb128 0x9
 10991 4afe 0F360000 		.4byte	0x360f
 10992 4b02 56       		.uleb128 0x56
 10993 4b03 78110000 		.4byte	.LASF755
 10994 4b07 10       		.byte	0x10
 10995 4b08 5C01     		.2byte	0x15c
 10996 4b0a 0E4B0000 		.4byte	0x4b0e
 10997 4b0e 09       		.uleb128 0x9
 10998 4b0f 7E3A0000 		.4byte	0x3a7e
 10999 4b13 56       		.uleb128 0x56
 11000 4b14 01020000 		.4byte	.LASF756
 11001 4b18 10       		.byte	0x10
 11002 4b19 5F01     		.2byte	0x15f
 11003 4b1b 1F4B0000 		.4byte	0x4b1f
 11004 4b1f 09       		.uleb128 0x9
 11005 4b20 8B350000 		.4byte	0x358b
 11006 4b24 56       		.uleb128 0x56
 11007 4b25 13120000 		.4byte	.LASF757
 11008 4b29 10       		.byte	0x10
 11009 4b2a 6001     		.2byte	0x160
 11010 4b2c 304B0000 		.4byte	0x4b30
 11011 4b30 09       		.uleb128 0x9
 11012 4b31 F8360000 		.4byte	0x36f8
 11013 4b35 56       		.uleb128 0x56
 11014 4b36 AA320000 		.4byte	.LASF758
 11015 4b3a 10       		.byte	0x10
 11016 4b3b 6101     		.2byte	0x161
 11017 4b3d 414B0000 		.4byte	0x4b41
 11018 4b41 09       		.uleb128 0x9
 11019 4b42 F8360000 		.4byte	0x36f8
 11020 4b46 56       		.uleb128 0x56
 11021 4b47 70020000 		.4byte	.LASF759
ARM GAS  C:\Users\jrdia\AppData\Local\Temp\ccFTvYyK.s 			page 225


 11022 4b4b 10       		.byte	0x10
 11023 4b4c 6201     		.2byte	0x162
 11024 4b4e 524B0000 		.4byte	0x4b52
 11025 4b52 09       		.uleb128 0x9
 11026 4b53 B5360000 		.4byte	0x36b5
 11027 4b57 56       		.uleb128 0x56
 11028 4b58 56430000 		.4byte	.LASF760
 11029 4b5c 10       		.byte	0x10
 11030 4b5d 6301     		.2byte	0x163
 11031 4b5f 634B0000 		.4byte	0x4b63
 11032 4b63 09       		.uleb128 0x9
 11033 4b64 B5360000 		.4byte	0x36b5
 11034 4b68 56       		.uleb128 0x56
 11035 4b69 9A490000 		.4byte	.LASF761
 11036 4b6d 10       		.byte	0x10
 11037 4b6e 6401     		.2byte	0x164
 11038 4b70 744B0000 		.4byte	0x4b74
 11039 4b74 09       		.uleb128 0x9
 11040 4b75 0F360000 		.4byte	0x360f
 11041 4b79 56       		.uleb128 0x56
 11042 4b7a BD5B0000 		.4byte	.LASF762
 11043 4b7e 10       		.byte	0x10
 11044 4b7f 6501     		.2byte	0x165
 11045 4b81 854B0000 		.4byte	0x4b85
 11046 4b85 09       		.uleb128 0x9
 11047 4b86 0F360000 		.4byte	0x360f
 11048 4b8a 56       		.uleb128 0x56
 11049 4b8b E0010000 		.4byte	.LASF763
 11050 4b8f 10       		.byte	0x10
 11051 4b90 6601     		.2byte	0x166
 11052 4b92 964B0000 		.4byte	0x4b96
 11053 4b96 09       		.uleb128 0x9
 11054 4b97 B5360000 		.4byte	0x36b5
 11055 4b9b 56       		.uleb128 0x56
 11056 4b9c 393A0000 		.4byte	.LASF764
 11057 4ba0 10       		.byte	0x10
 11058 4ba1 6701     		.2byte	0x167
 11059 4ba3 A74B0000 		.4byte	0x4ba7
 11060 4ba7 09       		.uleb128 0x9
 11061 4ba8 8B350000 		.4byte	0x358b
 11062 4bac 56       		.uleb128 0x56
 11063 4bad 81020000 		.4byte	.LASF765
 11064 4bb1 10       		.byte	0x10
 11065 4bb2 6801     		.2byte	0x168
 11066 4bb4 B84B0000 		.4byte	0x4bb8
 11067 4bb8 09       		.uleb128 0x9
 11068 4bb9 B5360000 		.4byte	0x36b5
 11069 4bbd 56       		.uleb128 0x56
 11070 4bbe FD4E0000 		.4byte	.LASF766
 11071 4bc2 10       		.byte	0x10
 11072 4bc3 6A01     		.2byte	0x16a
 11073 4bc5 C94B0000 		.4byte	0x4bc9
 11074 4bc9 09       		.uleb128 0x9
 11075 4bca 94360000 		.4byte	0x3694
 11076 4bce 56       		.uleb128 0x56
 11077 4bcf CF230000 		.4byte	.LASF767
 11078 4bd3 10       		.byte	0x10
ARM GAS  C:\Users\jrdia\AppData\Local\Temp\ccFTvYyK.s 			page 226


 11079 4bd4 6B01     		.2byte	0x16b
 11080 4bd6 DA4B0000 		.4byte	0x4bda
 11081 4bda 09       		.uleb128 0x9
 11082 4bdb EE350000 		.4byte	0x35ee
 11083 4bdf 56       		.uleb128 0x56
 11084 4be0 AF570000 		.4byte	.LASF768
 11085 4be4 10       		.byte	0x10
 11086 4be5 6C01     		.2byte	0x16c
 11087 4be7 EB4B0000 		.4byte	0x4beb
 11088 4beb 09       		.uleb128 0x9
 11089 4bec 73360000 		.4byte	0x3673
 11090 4bf0 56       		.uleb128 0x56
 11091 4bf1 B9010000 		.4byte	.LASF769
 11092 4bf5 10       		.byte	0x10
 11093 4bf6 6D01     		.2byte	0x16d
 11094 4bf8 FC4B0000 		.4byte	0x4bfc
 11095 4bfc 09       		.uleb128 0x9
 11096 4bfd 73360000 		.4byte	0x3673
 11097 4c01 56       		.uleb128 0x56
 11098 4c02 150D0000 		.4byte	.LASF770
 11099 4c06 10       		.byte	0x10
 11100 4c07 6E01     		.2byte	0x16e
 11101 4c09 0D4C0000 		.4byte	0x4c0d
 11102 4c0d 09       		.uleb128 0x9
 11103 4c0e F8360000 		.4byte	0x36f8
 11104 4c12 56       		.uleb128 0x56
 11105 4c13 8B530000 		.4byte	.LASF771
 11106 4c17 10       		.byte	0x10
 11107 4c18 6F01     		.2byte	0x16f
 11108 4c1a 1E4C0000 		.4byte	0x4c1e
 11109 4c1e 09       		.uleb128 0x9
 11110 4c1f EE350000 		.4byte	0x35ee
 11111 4c23 56       		.uleb128 0x56
 11112 4c24 DB540000 		.4byte	.LASF772
 11113 4c28 10       		.byte	0x10
 11114 4c29 7001     		.2byte	0x170
 11115 4c2b 2F4C0000 		.4byte	0x4c2f
 11116 4c2f 09       		.uleb128 0x9
 11117 4c30 73360000 		.4byte	0x3673
 11118 4c34 56       		.uleb128 0x56
 11119 4c35 991D0000 		.4byte	.LASF773
 11120 4c39 10       		.byte	0x10
 11121 4c3a 7101     		.2byte	0x171
 11122 4c3c 404C0000 		.4byte	0x4c40
 11123 4c40 09       		.uleb128 0x9
 11124 4c41 F8360000 		.4byte	0x36f8
 11125 4c45 56       		.uleb128 0x56
 11126 4c46 F8470000 		.4byte	.LASF774
 11127 4c4a 10       		.byte	0x10
 11128 4c4b 7301     		.2byte	0x173
 11129 4c4d 514C0000 		.4byte	0x4c51
 11130 4c51 09       		.uleb128 0x9
 11131 4c52 F8360000 		.4byte	0x36f8
 11132 4c56 56       		.uleb128 0x56
 11133 4c57 925A0000 		.4byte	.LASF775
 11134 4c5b 10       		.byte	0x10
 11135 4c5c 7401     		.2byte	0x174
ARM GAS  C:\Users\jrdia\AppData\Local\Temp\ccFTvYyK.s 			page 227


 11136 4c5e 624C0000 		.4byte	0x4c62
 11137 4c62 09       		.uleb128 0x9
 11138 4c63 EE350000 		.4byte	0x35ee
 11139 4c67 56       		.uleb128 0x56
 11140 4c68 D1530000 		.4byte	.LASF776
 11141 4c6c 10       		.byte	0x10
 11142 4c6d 7501     		.2byte	0x175
 11143 4c6f 734C0000 		.4byte	0x4c73
 11144 4c73 09       		.uleb128 0x9
 11145 4c74 CD350000 		.4byte	0x35cd
 11146 4c78 56       		.uleb128 0x56
 11147 4c79 F2320000 		.4byte	.LASF777
 11148 4c7d 10       		.byte	0x10
 11149 4c7e 7601     		.2byte	0x176
 11150 4c80 844C0000 		.4byte	0x4c84
 11151 4c84 09       		.uleb128 0x9
 11152 4c85 F8360000 		.4byte	0x36f8
 11153 4c89 56       		.uleb128 0x56
 11154 4c8a 2A690000 		.4byte	.LASF778
 11155 4c8e 10       		.byte	0x10
 11156 4c8f 7701     		.2byte	0x177
 11157 4c91 954C0000 		.4byte	0x4c95
 11158 4c95 09       		.uleb128 0x9
 11159 4c96 73360000 		.4byte	0x3673
 11160 4c9a 56       		.uleb128 0x56
 11161 4c9b A4660000 		.4byte	.LASF779
 11162 4c9f 10       		.byte	0x10
 11163 4ca0 7801     		.2byte	0x178
 11164 4ca2 A64C0000 		.4byte	0x4ca6
 11165 4ca6 09       		.uleb128 0x9
 11166 4ca7 CD350000 		.4byte	0x35cd
 11167 4cab 56       		.uleb128 0x56
 11168 4cac 730F0000 		.4byte	.LASF780
 11169 4cb0 10       		.byte	0x10
 11170 4cb1 7901     		.2byte	0x179
 11171 4cb3 B74C0000 		.4byte	0x4cb7
 11172 4cb7 09       		.uleb128 0x9
 11173 4cb8 F8360000 		.4byte	0x36f8
 11174 4cbc 56       		.uleb128 0x56
 11175 4cbd 5E180000 		.4byte	.LASF781
 11176 4cc1 10       		.byte	0x10
 11177 4cc2 7A01     		.2byte	0x17a
 11178 4cc4 C84C0000 		.4byte	0x4cc8
 11179 4cc8 09       		.uleb128 0x9
 11180 4cc9 CD350000 		.4byte	0x35cd
 11181 4ccd 56       		.uleb128 0x56
 11182 4cce 883D0000 		.4byte	.LASF782
 11183 4cd2 10       		.byte	0x10
 11184 4cd3 7B01     		.2byte	0x17b
 11185 4cd5 D94C0000 		.4byte	0x4cd9
 11186 4cd9 09       		.uleb128 0x9
 11187 4cda F8360000 		.4byte	0x36f8
 11188 4cde 56       		.uleb128 0x56
 11189 4cdf C14E0000 		.4byte	.LASF783
 11190 4ce3 10       		.byte	0x10
 11191 4ce4 7C01     		.2byte	0x17c
 11192 4ce6 EA4C0000 		.4byte	0x4cea
ARM GAS  C:\Users\jrdia\AppData\Local\Temp\ccFTvYyK.s 			page 228


 11193 4cea 09       		.uleb128 0x9
 11194 4ceb CD350000 		.4byte	0x35cd
 11195 4cef 56       		.uleb128 0x56
 11196 4cf0 6F240000 		.4byte	.LASF784
 11197 4cf4 10       		.byte	0x10
 11198 4cf5 7D01     		.2byte	0x17d
 11199 4cf7 FB4C0000 		.4byte	0x4cfb
 11200 4cfb 09       		.uleb128 0x9
 11201 4cfc 7E3A0000 		.4byte	0x3a7e
 11202 4d00 56       		.uleb128 0x56
 11203 4d01 F5680000 		.4byte	.LASF785
 11204 4d05 10       		.byte	0x10
 11205 4d06 7F01     		.2byte	0x17f
 11206 4d08 0C4D0000 		.4byte	0x4d0c
 11207 4d0c 09       		.uleb128 0x9
 11208 4d0d 6A350000 		.4byte	0x356a
 11209 4d11 56       		.uleb128 0x56
 11210 4d12 402B0000 		.4byte	.LASF786
 11211 4d16 10       		.byte	0x10
 11212 4d17 8001     		.2byte	0x180
 11213 4d19 1D4D0000 		.4byte	0x4d1d
 11214 4d1d 09       		.uleb128 0x9
 11215 4d1e 41360000 		.4byte	0x3641
 11216 4d22 56       		.uleb128 0x56
 11217 4d23 0B310000 		.4byte	.LASF787
 11218 4d27 10       		.byte	0x10
 11219 4d28 8101     		.2byte	0x181
 11220 4d2a 2E4D0000 		.4byte	0x4d2e
 11221 4d2e 09       		.uleb128 0x9
 11222 4d2f C13A0000 		.4byte	0x3ac1
 11223 4d33 56       		.uleb128 0x56
 11224 4d34 FE5A0000 		.4byte	.LASF788
 11225 4d38 10       		.byte	0x10
 11226 4d39 8201     		.2byte	0x182
 11227 4d3b 3F4D0000 		.4byte	0x4d3f
 11228 4d3f 09       		.uleb128 0x9
 11229 4d40 AC350000 		.4byte	0x35ac
 11230 4d44 56       		.uleb128 0x56
 11231 4d45 75440000 		.4byte	.LASF789
 11232 4d49 10       		.byte	0x10
 11233 4d4a 8301     		.2byte	0x183
 11234 4d4c 504D0000 		.4byte	0x4d50
 11235 4d50 09       		.uleb128 0x9
 11236 4d51 C13A0000 		.4byte	0x3ac1
 11237 4d55 56       		.uleb128 0x56
 11238 4d56 EF030000 		.4byte	.LASF790
 11239 4d5a 10       		.byte	0x10
 11240 4d5b 8401     		.2byte	0x184
 11241 4d5d 614D0000 		.4byte	0x4d61
 11242 4d61 09       		.uleb128 0x9
 11243 4d62 AC350000 		.4byte	0x35ac
 11244 4d66 56       		.uleb128 0x56
 11245 4d67 555A0000 		.4byte	.LASF791
 11246 4d6b 10       		.byte	0x10
 11247 4d6c 8501     		.2byte	0x185
 11248 4d6e 724D0000 		.4byte	0x4d72
 11249 4d72 09       		.uleb128 0x9
ARM GAS  C:\Users\jrdia\AppData\Local\Temp\ccFTvYyK.s 			page 229


 11250 4d73 8D380000 		.4byte	0x388d
 11251 4d77 56       		.uleb128 0x56
 11252 4d78 A55B0000 		.4byte	.LASF792
 11253 4d7c 10       		.byte	0x10
 11254 4d7d 8601     		.2byte	0x186
 11255 4d7f 834D0000 		.4byte	0x4d83
 11256 4d83 09       		.uleb128 0x9
 11257 4d84 8D380000 		.4byte	0x388d
 11258 4d88 56       		.uleb128 0x56
 11259 4d89 9C070000 		.4byte	.LASF793
 11260 4d8d 10       		.byte	0x10
 11261 4d8e 8701     		.2byte	0x187
 11262 4d90 944D0000 		.4byte	0x4d94
 11263 4d94 09       		.uleb128 0x9
 11264 4d95 AC350000 		.4byte	0x35ac
 11265 4d99 56       		.uleb128 0x56
 11266 4d9a 4A5C0000 		.4byte	.LASF794
 11267 4d9e 10       		.byte	0x10
 11268 4d9f 8801     		.2byte	0x188
 11269 4da1 A54D0000 		.4byte	0x4da5
 11270 4da5 09       		.uleb128 0x9
 11271 4da6 7E3A0000 		.4byte	0x3a7e
 11272 4daa 56       		.uleb128 0x56
 11273 4dab 6F540000 		.4byte	.LASF795
 11274 4daf 10       		.byte	0x10
 11275 4db0 8901     		.2byte	0x189
 11276 4db2 B64D0000 		.4byte	0x4db6
 11277 4db6 09       		.uleb128 0x9
 11278 4db7 7E3A0000 		.4byte	0x3a7e
 11279 4dbb 56       		.uleb128 0x56
 11280 4dbc 315C0000 		.4byte	.LASF796
 11281 4dc0 10       		.byte	0x10
 11282 4dc1 8A01     		.2byte	0x18a
 11283 4dc3 C74D0000 		.4byte	0x4dc7
 11284 4dc7 09       		.uleb128 0x9
 11285 4dc8 3B370000 		.4byte	0x373b
 11286 4dcc 56       		.uleb128 0x56
 11287 4dcd D8080000 		.4byte	.LASF797
 11288 4dd1 10       		.byte	0x10
 11289 4dd2 8B01     		.2byte	0x18b
 11290 4dd4 D84D0000 		.4byte	0x4dd8
 11291 4dd8 09       		.uleb128 0x9
 11292 4dd9 0F360000 		.4byte	0x360f
 11293 4ddd 56       		.uleb128 0x56
 11294 4dde B20E0000 		.4byte	.LASF798
 11295 4de2 10       		.byte	0x10
 11296 4de3 8C01     		.2byte	0x18c
 11297 4de5 E94D0000 		.4byte	0x4de9
 11298 4de9 09       		.uleb128 0x9
 11299 4dea 0F360000 		.4byte	0x360f
 11300 4dee 56       		.uleb128 0x56
 11301 4def 94190000 		.4byte	.LASF799
 11302 4df3 10       		.byte	0x10
 11303 4df4 8D01     		.2byte	0x18d
 11304 4df6 FA4D0000 		.4byte	0x4dfa
 11305 4dfa 09       		.uleb128 0x9
 11306 4dfb F8360000 		.4byte	0x36f8
ARM GAS  C:\Users\jrdia\AppData\Local\Temp\ccFTvYyK.s 			page 230


 11307 4dff 56       		.uleb128 0x56
 11308 4e00 8D1C0000 		.4byte	.LASF800
 11309 4e04 10       		.byte	0x10
 11310 4e05 8E01     		.2byte	0x18e
 11311 4e07 0B4E0000 		.4byte	0x4e0b
 11312 4e0b 09       		.uleb128 0x9
 11313 4e0c C13A0000 		.4byte	0x3ac1
 11314 4e10 56       		.uleb128 0x56
 11315 4e11 95010000 		.4byte	.LASF801
 11316 4e15 10       		.byte	0x10
 11317 4e16 8F01     		.2byte	0x18f
 11318 4e18 1C4E0000 		.4byte	0x4e1c
 11319 4e1c 09       		.uleb128 0x9
 11320 4e1d 94360000 		.4byte	0x3694
 11321 4e21 56       		.uleb128 0x56
 11322 4e22 B9240000 		.4byte	.LASF802
 11323 4e26 10       		.byte	0x10
 11324 4e27 9001     		.2byte	0x190
 11325 4e29 2D4E0000 		.4byte	0x4e2d
 11326 4e2d 09       		.uleb128 0x9
 11327 4e2e FA340000 		.4byte	0x34fa
 11328 4e32 56       		.uleb128 0x56
 11329 4e33 CC240000 		.4byte	.LASF803
 11330 4e37 10       		.byte	0x10
 11331 4e38 9101     		.2byte	0x191
 11332 4e3a 3E4E0000 		.4byte	0x4e3e
 11333 4e3e 09       		.uleb128 0x9
 11334 4e3f FA340000 		.4byte	0x34fa
 11335 4e43 56       		.uleb128 0x56
 11336 4e44 DF240000 		.4byte	.LASF804
 11337 4e48 10       		.byte	0x10
 11338 4e49 9201     		.2byte	0x192
 11339 4e4b 4F4E0000 		.4byte	0x4e4f
 11340 4e4f 09       		.uleb128 0x9
 11341 4e50 FA340000 		.4byte	0x34fa
 11342 4e54 56       		.uleb128 0x56
 11343 4e55 F2240000 		.4byte	.LASF805
 11344 4e59 10       		.byte	0x10
 11345 4e5a 9301     		.2byte	0x193
 11346 4e5c 604E0000 		.4byte	0x4e60
 11347 4e60 09       		.uleb128 0x9
 11348 4e61 FA340000 		.4byte	0x34fa
 11349 4e65 56       		.uleb128 0x56
 11350 4e66 05250000 		.4byte	.LASF806
 11351 4e6a 10       		.byte	0x10
 11352 4e6b 9401     		.2byte	0x194
 11353 4e6d 714E0000 		.4byte	0x4e71
 11354 4e71 09       		.uleb128 0x9
 11355 4e72 FA340000 		.4byte	0x34fa
 11356 4e76 56       		.uleb128 0x56
 11357 4e77 18250000 		.4byte	.LASF807
 11358 4e7b 10       		.byte	0x10
 11359 4e7c 9501     		.2byte	0x195
 11360 4e7e 824E0000 		.4byte	0x4e82
 11361 4e82 09       		.uleb128 0x9
 11362 4e83 FA340000 		.4byte	0x34fa
 11363 4e87 56       		.uleb128 0x56
ARM GAS  C:\Users\jrdia\AppData\Local\Temp\ccFTvYyK.s 			page 231


 11364 4e88 2B250000 		.4byte	.LASF808
 11365 4e8c 10       		.byte	0x10
 11366 4e8d 9601     		.2byte	0x196
 11367 4e8f 934E0000 		.4byte	0x4e93
 11368 4e93 09       		.uleb128 0x9
 11369 4e94 FA340000 		.4byte	0x34fa
 11370 4e98 56       		.uleb128 0x56
 11371 4e99 3E250000 		.4byte	.LASF809
 11372 4e9d 10       		.byte	0x10
 11373 4e9e 9701     		.2byte	0x197
 11374 4ea0 A44E0000 		.4byte	0x4ea4
 11375 4ea4 09       		.uleb128 0x9
 11376 4ea5 FA340000 		.4byte	0x34fa
 11377 4ea9 56       		.uleb128 0x56
 11378 4eaa 51250000 		.4byte	.LASF810
 11379 4eae 10       		.byte	0x10
 11380 4eaf 9801     		.2byte	0x198
 11381 4eb1 B54E0000 		.4byte	0x4eb5
 11382 4eb5 09       		.uleb128 0x9
 11383 4eb6 FA340000 		.4byte	0x34fa
 11384 4eba 56       		.uleb128 0x56
 11385 4ebb 56580000 		.4byte	.LASF811
 11386 4ebf 10       		.byte	0x10
 11387 4ec0 9901     		.2byte	0x199
 11388 4ec2 C64E0000 		.4byte	0x4ec6
 11389 4ec6 09       		.uleb128 0x9
 11390 4ec7 FA340000 		.4byte	0x34fa
 11391 4ecb 56       		.uleb128 0x56
 11392 4ecc A6560000 		.4byte	.LASF812
 11393 4ed0 10       		.byte	0x10
 11394 4ed1 9A01     		.2byte	0x19a
 11395 4ed3 D74E0000 		.4byte	0x4ed7
 11396 4ed7 09       		.uleb128 0x9
 11397 4ed8 FA340000 		.4byte	0x34fa
 11398 4edc 56       		.uleb128 0x56
 11399 4edd 3F040000 		.4byte	.LASF813
 11400 4ee1 10       		.byte	0x10
 11401 4ee2 9B01     		.2byte	0x19b
 11402 4ee4 E84E0000 		.4byte	0x4ee8
 11403 4ee8 09       		.uleb128 0x9
 11404 4ee9 FA340000 		.4byte	0x34fa
 11405 4eed 56       		.uleb128 0x56
 11406 4eee BB250000 		.4byte	.LASF814
 11407 4ef2 10       		.byte	0x10
 11408 4ef3 9C01     		.2byte	0x19c
 11409 4ef5 F94E0000 		.4byte	0x4ef9
 11410 4ef9 09       		.uleb128 0x9
 11411 4efa FA340000 		.4byte	0x34fa
 11412 4efe 56       		.uleb128 0x56
 11413 4eff 93590000 		.4byte	.LASF815
 11414 4f03 10       		.byte	0x10
 11415 4f04 9D01     		.2byte	0x19d
 11416 4f06 0A4F0000 		.4byte	0x4f0a
 11417 4f0a 09       		.uleb128 0x9
 11418 4f0b FA340000 		.4byte	0x34fa
 11419 4f0f 56       		.uleb128 0x56
 11420 4f10 D4250000 		.4byte	.LASF816
ARM GAS  C:\Users\jrdia\AppData\Local\Temp\ccFTvYyK.s 			page 232


 11421 4f14 10       		.byte	0x10
 11422 4f15 9E01     		.2byte	0x19e
 11423 4f17 1B4F0000 		.4byte	0x4f1b
 11424 4f1b 09       		.uleb128 0x9
 11425 4f1c FA340000 		.4byte	0x34fa
 11426 4f20 56       		.uleb128 0x56
 11427 4f21 E7250000 		.4byte	.LASF817
 11428 4f25 10       		.byte	0x10
 11429 4f26 9F01     		.2byte	0x19f
 11430 4f28 2C4F0000 		.4byte	0x4f2c
 11431 4f2c 09       		.uleb128 0x9
 11432 4f2d FA340000 		.4byte	0x34fa
 11433 4f31 56       		.uleb128 0x56
 11434 4f32 9E380000 		.4byte	.LASF818
 11435 4f36 10       		.byte	0x10
 11436 4f37 A201     		.2byte	0x1a2
 11437 4f39 3D4F0000 		.4byte	0x4f3d
 11438 4f3d 09       		.uleb128 0x9
 11439 4f3e 41360000 		.4byte	0x3641
 11440 4f42 56       		.uleb128 0x56
 11441 4f43 B52B0000 		.4byte	.LASF819
 11442 4f47 10       		.byte	0x10
 11443 4f48 A301     		.2byte	0x1a3
 11444 4f4a 4E4F0000 		.4byte	0x4f4e
 11445 4f4e 09       		.uleb128 0x9
 11446 4f4f 0F360000 		.4byte	0x360f
 11447 4f53 56       		.uleb128 0x56
 11448 4f54 B65E0000 		.4byte	.LASF820
 11449 4f58 10       		.byte	0x10
 11450 4f59 A601     		.2byte	0x1a6
 11451 4f5b 5F4F0000 		.4byte	0x4f5f
 11452 4f5f 09       		.uleb128 0x9
 11453 4f60 F8360000 		.4byte	0x36f8
 11454 4f64 56       		.uleb128 0x56
 11455 4f65 EC310000 		.4byte	.LASF821
 11456 4f69 10       		.byte	0x10
 11457 4f6a A701     		.2byte	0x1a7
 11458 4f6c 704F0000 		.4byte	0x4f70
 11459 4f70 09       		.uleb128 0x9
 11460 4f71 EE350000 		.4byte	0x35ee
 11461 4f75 56       		.uleb128 0x56
 11462 4f76 4C2D0000 		.4byte	.LASF822
 11463 4f7a 10       		.byte	0x10
 11464 4f7b A801     		.2byte	0x1a8
 11465 4f7d 814F0000 		.4byte	0x4f81
 11466 4f81 09       		.uleb128 0x9
 11467 4f82 6A350000 		.4byte	0x356a
 11468 4f86 56       		.uleb128 0x56
 11469 4f87 445A0000 		.4byte	.LASF823
 11470 4f8b 10       		.byte	0x10
 11471 4f8c A901     		.2byte	0x1a9
 11472 4f8e 924F0000 		.4byte	0x4f92
 11473 4f92 09       		.uleb128 0x9
 11474 4f93 73360000 		.4byte	0x3673
 11475 4f97 56       		.uleb128 0x56
 11476 4f98 141F0000 		.4byte	.LASF824
 11477 4f9c 10       		.byte	0x10
ARM GAS  C:\Users\jrdia\AppData\Local\Temp\ccFTvYyK.s 			page 233


 11478 4f9d AA01     		.2byte	0x1aa
 11479 4f9f A34F0000 		.4byte	0x4fa3
 11480 4fa3 09       		.uleb128 0x9
 11481 4fa4 8B350000 		.4byte	0x358b
 11482 4fa8 56       		.uleb128 0x56
 11483 4fa9 712F0000 		.4byte	.LASF825
 11484 4fad 10       		.byte	0x10
 11485 4fae AC01     		.2byte	0x1ac
 11486 4fb0 B44F0000 		.4byte	0x4fb4
 11487 4fb4 09       		.uleb128 0x9
 11488 4fb5 8B350000 		.4byte	0x358b
 11489 4fb9 56       		.uleb128 0x56
 11490 4fba F5520000 		.4byte	.LASF826
 11491 4fbe 10       		.byte	0x10
 11492 4fbf AD01     		.2byte	0x1ad
 11493 4fc1 C54F0000 		.4byte	0x4fc5
 11494 4fc5 09       		.uleb128 0x9
 11495 4fc6 8B350000 		.4byte	0x358b
 11496 4fca 56       		.uleb128 0x56
 11497 4fcb AD550000 		.4byte	.LASF827
 11498 4fcf 10       		.byte	0x10
 11499 4fd0 AE01     		.2byte	0x1ae
 11500 4fd2 D64F0000 		.4byte	0x4fd6
 11501 4fd6 09       		.uleb128 0x9
 11502 4fd7 0F360000 		.4byte	0x360f
 11503 4fdb 56       		.uleb128 0x56
 11504 4fdc D7120000 		.4byte	.LASF828
 11505 4fe0 10       		.byte	0x10
 11506 4fe1 AF01     		.2byte	0x1af
 11507 4fe3 E74F0000 		.4byte	0x4fe7
 11508 4fe7 09       		.uleb128 0x9
 11509 4fe8 CD350000 		.4byte	0x35cd
 11510 4fec 56       		.uleb128 0x56
 11511 4fed 723D0000 		.4byte	.LASF829
 11512 4ff1 10       		.byte	0x10
 11513 4ff2 B001     		.2byte	0x1b0
 11514 4ff4 F84F0000 		.4byte	0x4ff8
 11515 4ff8 09       		.uleb128 0x9
 11516 4ff9 B5360000 		.4byte	0x36b5
 11517 4ffd 56       		.uleb128 0x56
 11518 4ffe 45180000 		.4byte	.LASF830
 11519 5002 10       		.byte	0x10
 11520 5003 B101     		.2byte	0x1b1
 11521 5005 09500000 		.4byte	0x5009
 11522 5009 09       		.uleb128 0x9
 11523 500a F8360000 		.4byte	0x36f8
 11524 500e 56       		.uleb128 0x56
 11525 500f 785E0000 		.4byte	.LASF831
 11526 5013 10       		.byte	0x10
 11527 5014 B201     		.2byte	0x1b2
 11528 5016 1A500000 		.4byte	0x501a
 11529 501a 09       		.uleb128 0x9
 11530 501b 73360000 		.4byte	0x3673
 11531 501f 56       		.uleb128 0x56
 11532 5020 77460000 		.4byte	.LASF832
 11533 5024 10       		.byte	0x10
 11534 5025 B301     		.2byte	0x1b3
ARM GAS  C:\Users\jrdia\AppData\Local\Temp\ccFTvYyK.s 			page 234


 11535 5027 2B500000 		.4byte	0x502b
 11536 502b 09       		.uleb128 0x9
 11537 502c F8360000 		.4byte	0x36f8
 11538 5030 56       		.uleb128 0x56
 11539 5031 331C0000 		.4byte	.LASF833
 11540 5035 10       		.byte	0x10
 11541 5036 B401     		.2byte	0x1b4
 11542 5038 3C500000 		.4byte	0x503c
 11543 503c 09       		.uleb128 0x9
 11544 503d B5360000 		.4byte	0x36b5
 11545 5041 56       		.uleb128 0x56
 11546 5042 79530000 		.4byte	.LASF834
 11547 5046 10       		.byte	0x10
 11548 5047 B501     		.2byte	0x1b5
 11549 5049 4D500000 		.4byte	0x504d
 11550 504d 09       		.uleb128 0x9
 11551 504e F8360000 		.4byte	0x36f8
 11552 5052 56       		.uleb128 0x56
 11553 5053 873E0000 		.4byte	.LASF835
 11554 5057 10       		.byte	0x10
 11555 5058 B601     		.2byte	0x1b6
 11556 505a 5E500000 		.4byte	0x505e
 11557 505e 09       		.uleb128 0x9
 11558 505f F8360000 		.4byte	0x36f8
 11559 5063 56       		.uleb128 0x56
 11560 5064 C61D0000 		.4byte	.LASF836
 11561 5068 10       		.byte	0x10
 11562 5069 B701     		.2byte	0x1b7
 11563 506b 6F500000 		.4byte	0x506f
 11564 506f 09       		.uleb128 0x9
 11565 5070 CD350000 		.4byte	0x35cd
 11566 5074 56       		.uleb128 0x56
 11567 5075 974E0000 		.4byte	.LASF837
 11568 5079 10       		.byte	0x10
 11569 507a B801     		.2byte	0x1b8
 11570 507c 80500000 		.4byte	0x5080
 11571 5080 09       		.uleb128 0x9
 11572 5081 EE350000 		.4byte	0x35ee
 11573 5085 56       		.uleb128 0x56
 11574 5086 E04A0000 		.4byte	.LASF838
 11575 508a 10       		.byte	0x10
 11576 508b B901     		.2byte	0x1b9
 11577 508d 91500000 		.4byte	0x5091
 11578 5091 09       		.uleb128 0x9
 11579 5092 7E3A0000 		.4byte	0x3a7e
 11580 5096 56       		.uleb128 0x56
 11581 5097 C3180000 		.4byte	.LASF839
 11582 509b 10       		.byte	0x10
 11583 509c BA01     		.2byte	0x1ba
 11584 509e A2500000 		.4byte	0x50a2
 11585 50a2 09       		.uleb128 0x9
 11586 50a3 7E3A0000 		.4byte	0x3a7e
 11587 50a7 56       		.uleb128 0x56
 11588 50a8 2A3C0000 		.4byte	.LASF840
 11589 50ac 10       		.byte	0x10
 11590 50ad BB01     		.2byte	0x1bb
 11591 50af B3500000 		.4byte	0x50b3
ARM GAS  C:\Users\jrdia\AppData\Local\Temp\ccFTvYyK.s 			page 235


 11592 50b3 09       		.uleb128 0x9
 11593 50b4 0F360000 		.4byte	0x360f
 11594 50b8 56       		.uleb128 0x56
 11595 50b9 362F0000 		.4byte	.LASF841
 11596 50bd 10       		.byte	0x10
 11597 50be BC01     		.2byte	0x1bc
 11598 50c0 C4500000 		.4byte	0x50c4
 11599 50c4 09       		.uleb128 0x9
 11600 50c5 0F360000 		.4byte	0x360f
 11601 50c9 56       		.uleb128 0x56
 11602 50ca 8E0C0000 		.4byte	.LASF842
 11603 50ce 10       		.byte	0x10
 11604 50cf BD01     		.2byte	0x1bd
 11605 50d1 D5500000 		.4byte	0x50d5
 11606 50d5 09       		.uleb128 0x9
 11607 50d6 8D380000 		.4byte	0x388d
 11608 50da 56       		.uleb128 0x56
 11609 50db DC1F0000 		.4byte	.LASF843
 11610 50df 10       		.byte	0x10
 11611 50e0 BE01     		.2byte	0x1be
 11612 50e2 E6500000 		.4byte	0x50e6
 11613 50e6 09       		.uleb128 0x9
 11614 50e7 94360000 		.4byte	0x3694
 11615 50eb 56       		.uleb128 0x56
 11616 50ec 85070000 		.4byte	.LASF844
 11617 50f0 10       		.byte	0x10
 11618 50f1 BF01     		.2byte	0x1bf
 11619 50f3 F7500000 		.4byte	0x50f7
 11620 50f7 09       		.uleb128 0x9
 11621 50f8 7E3A0000 		.4byte	0x3a7e
 11622 50fc 56       		.uleb128 0x56
 11623 50fd F32E0000 		.4byte	.LASF845
 11624 5101 10       		.byte	0x10
 11625 5102 C001     		.2byte	0x1c0
 11626 5104 08510000 		.4byte	0x5108
 11627 5108 09       		.uleb128 0x9
 11628 5109 EE350000 		.4byte	0x35ee
 11629 510d 56       		.uleb128 0x56
 11630 510e 31570000 		.4byte	.LASF846
 11631 5112 10       		.byte	0x10
 11632 5113 C101     		.2byte	0x1c1
 11633 5115 19510000 		.4byte	0x5119
 11634 5119 09       		.uleb128 0x9
 11635 511a 8B350000 		.4byte	0x358b
 11636 511e 56       		.uleb128 0x56
 11637 511f 80590000 		.4byte	.LASF847
 11638 5123 10       		.byte	0x10
 11639 5124 C201     		.2byte	0x1c2
 11640 5126 2A510000 		.4byte	0x512a
 11641 512a 09       		.uleb128 0x9
 11642 512b 6A350000 		.4byte	0x356a
 11643 512f 56       		.uleb128 0x56
 11644 5130 AD1E0000 		.4byte	.LASF848
 11645 5134 10       		.byte	0x10
 11646 5135 C301     		.2byte	0x1c3
 11647 5137 3B510000 		.4byte	0x513b
 11648 513b 09       		.uleb128 0x9
ARM GAS  C:\Users\jrdia\AppData\Local\Temp\ccFTvYyK.s 			page 236


 11649 513c CD350000 		.4byte	0x35cd
 11650 5140 56       		.uleb128 0x56
 11651 5141 433F0000 		.4byte	.LASF849
 11652 5145 10       		.byte	0x10
 11653 5146 C401     		.2byte	0x1c4
 11654 5148 4C510000 		.4byte	0x514c
 11655 514c 09       		.uleb128 0x9
 11656 514d F8360000 		.4byte	0x36f8
 11657 5151 56       		.uleb128 0x56
 11658 5152 C1160000 		.4byte	.LASF850
 11659 5156 10       		.byte	0x10
 11660 5157 C501     		.2byte	0x1c5
 11661 5159 5D510000 		.4byte	0x515d
 11662 515d 09       		.uleb128 0x9
 11663 515e 0F360000 		.4byte	0x360f
 11664 5162 56       		.uleb128 0x56
 11665 5163 F8660000 		.4byte	.LASF851
 11666 5167 10       		.byte	0x10
 11667 5168 C601     		.2byte	0x1c6
 11668 516a 6E510000 		.4byte	0x516e
 11669 516e 09       		.uleb128 0x9
 11670 516f 7E3A0000 		.4byte	0x3a7e
 11671 5173 56       		.uleb128 0x56
 11672 5174 CC2B0000 		.4byte	.LASF852
 11673 5178 10       		.byte	0x10
 11674 5179 C701     		.2byte	0x1c7
 11675 517b 7F510000 		.4byte	0x517f
 11676 517f 09       		.uleb128 0x9
 11677 5180 F8360000 		.4byte	0x36f8
 11678 5184 56       		.uleb128 0x56
 11679 5185 65690000 		.4byte	.LASF853
 11680 5189 10       		.byte	0x10
 11681 518a C801     		.2byte	0x1c8
 11682 518c 90510000 		.4byte	0x5190
 11683 5190 09       		.uleb128 0x9
 11684 5191 B5360000 		.4byte	0x36b5
 11685 5195 56       		.uleb128 0x56
 11686 5196 A7620000 		.4byte	.LASF854
 11687 519a 10       		.byte	0x10
 11688 519b C901     		.2byte	0x1c9
 11689 519d A1510000 		.4byte	0x51a1
 11690 51a1 09       		.uleb128 0x9
 11691 51a2 B5360000 		.4byte	0x36b5
 11692 51a6 56       		.uleb128 0x56
 11693 51a7 B3490000 		.4byte	.LASF855
 11694 51ab 10       		.byte	0x10
 11695 51ac CA01     		.2byte	0x1ca
 11696 51ae B2510000 		.4byte	0x51b2
 11697 51b2 09       		.uleb128 0x9
 11698 51b3 7E3A0000 		.4byte	0x3a7e
 11699 51b7 56       		.uleb128 0x56
 11700 51b8 4F0A0000 		.4byte	.LASF856
 11701 51bc 10       		.byte	0x10
 11702 51bd CB01     		.2byte	0x1cb
 11703 51bf C3510000 		.4byte	0x51c3
 11704 51c3 09       		.uleb128 0x9
 11705 51c4 CD350000 		.4byte	0x35cd
ARM GAS  C:\Users\jrdia\AppData\Local\Temp\ccFTvYyK.s 			page 237


 11706 51c8 56       		.uleb128 0x56
 11707 51c9 4F370000 		.4byte	.LASF857
 11708 51cd 10       		.byte	0x10
 11709 51ce CC01     		.2byte	0x1cc
 11710 51d0 D4510000 		.4byte	0x51d4
 11711 51d4 09       		.uleb128 0x9
 11712 51d5 0F360000 		.4byte	0x360f
 11713 51d9 56       		.uleb128 0x56
 11714 51da 07600000 		.4byte	.LASF858
 11715 51de 10       		.byte	0x10
 11716 51df CD01     		.2byte	0x1cd
 11717 51e1 E5510000 		.4byte	0x51e5
 11718 51e5 09       		.uleb128 0x9
 11719 51e6 0F360000 		.4byte	0x360f
 11720 51ea 56       		.uleb128 0x56
 11721 51eb F14C0000 		.4byte	.LASF859
 11722 51ef 10       		.byte	0x10
 11723 51f0 CE01     		.2byte	0x1ce
 11724 51f2 F6510000 		.4byte	0x51f6
 11725 51f6 09       		.uleb128 0x9
 11726 51f7 0F360000 		.4byte	0x360f
 11727 51fb 56       		.uleb128 0x56
 11728 51fc B1690000 		.4byte	.LASF860
 11729 5200 10       		.byte	0x10
 11730 5201 CF01     		.2byte	0x1cf
 11731 5203 07520000 		.4byte	0x5207
 11732 5207 09       		.uleb128 0x9
 11733 5208 CD350000 		.4byte	0x35cd
 11734 520c 56       		.uleb128 0x56
 11735 520d 88620000 		.4byte	.LASF861
 11736 5211 10       		.byte	0x10
 11737 5212 D001     		.2byte	0x1d0
 11738 5214 18520000 		.4byte	0x5218
 11739 5218 09       		.uleb128 0x9
 11740 5219 0F360000 		.4byte	0x360f
 11741 521d 56       		.uleb128 0x56
 11742 521e BA1A0000 		.4byte	.LASF862
 11743 5222 10       		.byte	0x10
 11744 5223 D101     		.2byte	0x1d1
 11745 5225 29520000 		.4byte	0x5229
 11746 5229 09       		.uleb128 0x9
 11747 522a 41360000 		.4byte	0x3641
 11748 522e 56       		.uleb128 0x56
 11749 522f D7400000 		.4byte	.LASF863
 11750 5233 10       		.byte	0x10
 11751 5234 D201     		.2byte	0x1d2
 11752 5236 3A520000 		.4byte	0x523a
 11753 523a 09       		.uleb128 0x9
 11754 523b 0F360000 		.4byte	0x360f
 11755 523f 56       		.uleb128 0x56
 11756 5240 DB550000 		.4byte	.LASF864
 11757 5244 10       		.byte	0x10
 11758 5245 D301     		.2byte	0x1d3
 11759 5247 4B520000 		.4byte	0x524b
 11760 524b 09       		.uleb128 0x9
 11761 524c CD350000 		.4byte	0x35cd
 11762 5250 56       		.uleb128 0x56
ARM GAS  C:\Users\jrdia\AppData\Local\Temp\ccFTvYyK.s 			page 238


 11763 5251 C3540000 		.4byte	.LASF865
 11764 5255 10       		.byte	0x10
 11765 5256 D401     		.2byte	0x1d4
 11766 5258 5C520000 		.4byte	0x525c
 11767 525c 09       		.uleb128 0x9
 11768 525d 0F360000 		.4byte	0x360f
 11769 5261 56       		.uleb128 0x56
 11770 5262 A9050000 		.4byte	.LASF866
 11771 5266 10       		.byte	0x10
 11772 5267 D501     		.2byte	0x1d5
 11773 5269 6D520000 		.4byte	0x526d
 11774 526d 09       		.uleb128 0x9
 11775 526e 41360000 		.4byte	0x3641
 11776 5272 56       		.uleb128 0x56
 11777 5273 491F0000 		.4byte	.LASF867
 11778 5277 10       		.byte	0x10
 11779 5278 D601     		.2byte	0x1d6
 11780 527a 7E520000 		.4byte	0x527e
 11781 527e 09       		.uleb128 0x9
 11782 527f 73360000 		.4byte	0x3673
 11783 5283 56       		.uleb128 0x56
 11784 5284 D02F0000 		.4byte	.LASF868
 11785 5288 10       		.byte	0x10
 11786 5289 D701     		.2byte	0x1d7
 11787 528b 8F520000 		.4byte	0x528f
 11788 528f 09       		.uleb128 0x9
 11789 5290 73360000 		.4byte	0x3673
 11790 5294 56       		.uleb128 0x56
 11791 5295 A3670000 		.4byte	.LASF869
 11792 5299 10       		.byte	0x10
 11793 529a D801     		.2byte	0x1d8
 11794 529c A0520000 		.4byte	0x52a0
 11795 52a0 09       		.uleb128 0x9
 11796 52a1 7E3A0000 		.4byte	0x3a7e
 11797 52a5 56       		.uleb128 0x56
 11798 52a6 BC030000 		.4byte	.LASF870
 11799 52aa 10       		.byte	0x10
 11800 52ab D901     		.2byte	0x1d9
 11801 52ad B1520000 		.4byte	0x52b1
 11802 52b1 09       		.uleb128 0x9
 11803 52b2 0F360000 		.4byte	0x360f
 11804 52b6 56       		.uleb128 0x56
 11805 52b7 01380000 		.4byte	.LASF871
 11806 52bb 10       		.byte	0x10
 11807 52bc DA01     		.2byte	0x1da
 11808 52be C2520000 		.4byte	0x52c2
 11809 52c2 09       		.uleb128 0x9
 11810 52c3 0F360000 		.4byte	0x360f
 11811 52c7 56       		.uleb128 0x56
 11812 52c8 08340000 		.4byte	.LASF872
 11813 52cc 10       		.byte	0x10
 11814 52cd DB01     		.2byte	0x1db
 11815 52cf D3520000 		.4byte	0x52d3
 11816 52d3 09       		.uleb128 0x9
 11817 52d4 41360000 		.4byte	0x3641
 11818 52d8 56       		.uleb128 0x56
 11819 52d9 45530000 		.4byte	.LASF873
ARM GAS  C:\Users\jrdia\AppData\Local\Temp\ccFTvYyK.s 			page 239


 11820 52dd 10       		.byte	0x10
 11821 52de DC01     		.2byte	0x1dc
 11822 52e0 E4520000 		.4byte	0x52e4
 11823 52e4 09       		.uleb128 0x9
 11824 52e5 7E3A0000 		.4byte	0x3a7e
 11825 52e9 56       		.uleb128 0x56
 11826 52ea AA450000 		.4byte	.LASF874
 11827 52ee 10       		.byte	0x10
 11828 52ef DD01     		.2byte	0x1dd
 11829 52f1 F5520000 		.4byte	0x52f5
 11830 52f5 09       		.uleb128 0x9
 11831 52f6 7E3A0000 		.4byte	0x3a7e
 11832 52fa 56       		.uleb128 0x56
 11833 52fb 140E0000 		.4byte	.LASF875
 11834 52ff 10       		.byte	0x10
 11835 5300 DE01     		.2byte	0x1de
 11836 5302 06530000 		.4byte	0x5306
 11837 5306 09       		.uleb128 0x9
 11838 5307 94360000 		.4byte	0x3694
 11839 530b 56       		.uleb128 0x56
 11840 530c 90320000 		.4byte	.LASF876
 11841 5310 10       		.byte	0x10
 11842 5311 DF01     		.2byte	0x1df
 11843 5313 17530000 		.4byte	0x5317
 11844 5317 09       		.uleb128 0x9
 11845 5318 94360000 		.4byte	0x3694
 11846 531c 56       		.uleb128 0x56
 11847 531d 721D0000 		.4byte	.LASF877
 11848 5321 10       		.byte	0x10
 11849 5322 E001     		.2byte	0x1e0
 11850 5324 28530000 		.4byte	0x5328
 11851 5328 09       		.uleb128 0x9
 11852 5329 0F360000 		.4byte	0x360f
 11853 532d 56       		.uleb128 0x56
 11854 532e EC0B0000 		.4byte	.LASF878
 11855 5332 10       		.byte	0x10
 11856 5333 E101     		.2byte	0x1e1
 11857 5335 39530000 		.4byte	0x5339
 11858 5339 09       		.uleb128 0x9
 11859 533a 73360000 		.4byte	0x3673
 11860 533e 56       		.uleb128 0x56
 11861 533f 2B3A0000 		.4byte	.LASF879
 11862 5343 10       		.byte	0x10
 11863 5344 E201     		.2byte	0x1e2
 11864 5346 4A530000 		.4byte	0x534a
 11865 534a 09       		.uleb128 0x9
 11866 534b 73360000 		.4byte	0x3673
 11867 534f 56       		.uleb128 0x56
 11868 5350 861E0000 		.4byte	.LASF880
 11869 5354 10       		.byte	0x10
 11870 5355 E301     		.2byte	0x1e3
 11871 5357 5B530000 		.4byte	0x535b
 11872 535b 09       		.uleb128 0x9
 11873 535c 8B350000 		.4byte	0x358b
 11874 5360 56       		.uleb128 0x56
 11875 5361 44620000 		.4byte	.LASF881
 11876 5365 10       		.byte	0x10
ARM GAS  C:\Users\jrdia\AppData\Local\Temp\ccFTvYyK.s 			page 240


 11877 5366 E401     		.2byte	0x1e4
 11878 5368 6C530000 		.4byte	0x536c
 11879 536c 09       		.uleb128 0x9
 11880 536d 94360000 		.4byte	0x3694
 11881 5371 56       		.uleb128 0x56
 11882 5372 28590000 		.4byte	.LASF882
 11883 5376 10       		.byte	0x10
 11884 5377 E501     		.2byte	0x1e5
 11885 5379 7D530000 		.4byte	0x537d
 11886 537d 09       		.uleb128 0x9
 11887 537e B5360000 		.4byte	0x36b5
 11888 5382 56       		.uleb128 0x56
 11889 5383 27360000 		.4byte	.LASF883
 11890 5387 10       		.byte	0x10
 11891 5388 EB01     		.2byte	0x1eb
 11892 538a 8E530000 		.4byte	0x538e
 11893 538e 09       		.uleb128 0x9
 11894 538f CD350000 		.4byte	0x35cd
 11895 5393 56       		.uleb128 0x56
 11896 5394 8F630000 		.4byte	.LASF884
 11897 5398 10       		.byte	0x10
 11898 5399 EC01     		.2byte	0x1ec
 11899 539b 9F530000 		.4byte	0x539f
 11900 539f 09       		.uleb128 0x9
 11901 53a0 CD350000 		.4byte	0x35cd
 11902 53a4 56       		.uleb128 0x56
 11903 53a5 EF2A0000 		.4byte	.LASF885
 11904 53a9 10       		.byte	0x10
 11905 53aa EE01     		.2byte	0x1ee
 11906 53ac B0530000 		.4byte	0x53b0
 11907 53b0 09       		.uleb128 0x9
 11908 53b1 8B350000 		.4byte	0x358b
 11909 53b5 56       		.uleb128 0x56
 11910 53b6 26280000 		.4byte	.LASF886
 11911 53ba 10       		.byte	0x10
 11912 53bb EF01     		.2byte	0x1ef
 11913 53bd C1530000 		.4byte	0x53c1
 11914 53c1 09       		.uleb128 0x9
 11915 53c2 94360000 		.4byte	0x3694
 11916 53c6 56       		.uleb128 0x56
 11917 53c7 2D0C0000 		.4byte	.LASF887
 11918 53cb 10       		.byte	0x10
 11919 53cc F001     		.2byte	0x1f0
 11920 53ce D2530000 		.4byte	0x53d2
 11921 53d2 09       		.uleb128 0x9
 11922 53d3 EE350000 		.4byte	0x35ee
 11923 53d7 56       		.uleb128 0x56
 11924 53d8 D2150000 		.4byte	.LASF888
 11925 53dc 10       		.byte	0x10
 11926 53dd F101     		.2byte	0x1f1
 11927 53df E3530000 		.4byte	0x53e3
 11928 53e3 09       		.uleb128 0x9
 11929 53e4 EE350000 		.4byte	0x35ee
 11930 53e8 56       		.uleb128 0x56
 11931 53e9 61310000 		.4byte	.LASF889
 11932 53ed 10       		.byte	0x10
 11933 53ee F301     		.2byte	0x1f3
ARM GAS  C:\Users\jrdia\AppData\Local\Temp\ccFTvYyK.s 			page 241


 11934 53f0 F4530000 		.4byte	0x53f4
 11935 53f4 09       		.uleb128 0x9
 11936 53f5 EE350000 		.4byte	0x35ee
 11937 53f9 56       		.uleb128 0x56
 11938 53fa F6450000 		.4byte	.LASF890
 11939 53fe 10       		.byte	0x10
 11940 53ff F401     		.2byte	0x1f4
 11941 5401 05540000 		.4byte	0x5405
 11942 5405 09       		.uleb128 0x9
 11943 5406 EE350000 		.4byte	0x35ee
 11944 540a 56       		.uleb128 0x56
 11945 540b CF4F0000 		.4byte	.LASF891
 11946 540f 10       		.byte	0x10
 11947 5410 F501     		.2byte	0x1f5
 11948 5412 16540000 		.4byte	0x5416
 11949 5416 09       		.uleb128 0x9
 11950 5417 EE350000 		.4byte	0x35ee
 11951 541b 56       		.uleb128 0x56
 11952 541c AB4E0000 		.4byte	.LASF892
 11953 5420 10       		.byte	0x10
 11954 5421 F601     		.2byte	0x1f6
 11955 5423 27540000 		.4byte	0x5427
 11956 5427 09       		.uleb128 0x9
 11957 5428 B5360000 		.4byte	0x36b5
 11958 542c 56       		.uleb128 0x56
 11959 542d 3A290000 		.4byte	.LASF893
 11960 5431 10       		.byte	0x10
 11961 5432 F701     		.2byte	0x1f7
 11962 5434 38540000 		.4byte	0x5438
 11963 5438 09       		.uleb128 0x9
 11964 5439 EE350000 		.4byte	0x35ee
 11965 543d 56       		.uleb128 0x56
 11966 543e B33C0000 		.4byte	.LASF894
 11967 5442 10       		.byte	0x10
 11968 5443 F801     		.2byte	0x1f8
 11969 5445 49540000 		.4byte	0x5449
 11970 5449 09       		.uleb128 0x9
 11971 544a 73360000 		.4byte	0x3673
 11972 544e 56       		.uleb128 0x56
 11973 544f D01B0000 		.4byte	.LASF895
 11974 5453 10       		.byte	0x10
 11975 5454 F901     		.2byte	0x1f9
 11976 5456 5A540000 		.4byte	0x545a
 11977 545a 09       		.uleb128 0x9
 11978 545b EE350000 		.4byte	0x35ee
 11979 545f 56       		.uleb128 0x56
 11980 5460 E95B0000 		.4byte	.LASF896
 11981 5464 10       		.byte	0x10
 11982 5465 FA01     		.2byte	0x1fa
 11983 5467 6B540000 		.4byte	0x546b
 11984 546b 09       		.uleb128 0x9
 11985 546c EE350000 		.4byte	0x35ee
 11986 5470 56       		.uleb128 0x56
 11987 5471 C14C0000 		.4byte	.LASF897
 11988 5475 10       		.byte	0x10
 11989 5476 FB01     		.2byte	0x1fb
 11990 5478 7C540000 		.4byte	0x547c
ARM GAS  C:\Users\jrdia\AppData\Local\Temp\ccFTvYyK.s 			page 242


 11991 547c 09       		.uleb128 0x9
 11992 547d 0F360000 		.4byte	0x360f
 11993 5481 56       		.uleb128 0x56
 11994 5482 5E080000 		.4byte	.LASF898
 11995 5486 10       		.byte	0x10
 11996 5487 FC01     		.2byte	0x1fc
 11997 5489 8D540000 		.4byte	0x548d
 11998 548d 09       		.uleb128 0x9
 11999 548e 8D380000 		.4byte	0x388d
 12000 5492 56       		.uleb128 0x56
 12001 5493 5B5E0000 		.4byte	.LASF899
 12002 5497 10       		.byte	0x10
 12003 5498 FD01     		.2byte	0x1fd
 12004 549a 9E540000 		.4byte	0x549e
 12005 549e 09       		.uleb128 0x9
 12006 549f C13A0000 		.4byte	0x3ac1
 12007 54a3 56       		.uleb128 0x56
 12008 54a4 271F0000 		.4byte	.LASF900
 12009 54a8 10       		.byte	0x10
 12010 54a9 FE01     		.2byte	0x1fe
 12011 54ab AF540000 		.4byte	0x54af
 12012 54af 09       		.uleb128 0x9
 12013 54b0 41360000 		.4byte	0x3641
 12014 54b4 56       		.uleb128 0x56
 12015 54b5 8C650000 		.4byte	.LASF901
 12016 54b9 10       		.byte	0x10
 12017 54ba FF01     		.2byte	0x1ff
 12018 54bc C0540000 		.4byte	0x54c0
 12019 54c0 09       		.uleb128 0x9
 12020 54c1 7E3A0000 		.4byte	0x3a7e
 12021 54c5 56       		.uleb128 0x56
 12022 54c6 A2110000 		.4byte	.LASF902
 12023 54ca 10       		.byte	0x10
 12024 54cb 0002     		.2byte	0x200
 12025 54cd D1540000 		.4byte	0x54d1
 12026 54d1 09       		.uleb128 0x9
 12027 54d2 F8360000 		.4byte	0x36f8
 12028 54d6 56       		.uleb128 0x56
 12029 54d7 CE2C0000 		.4byte	.LASF903
 12030 54db 10       		.byte	0x10
 12031 54dc 0102     		.2byte	0x201
 12032 54de E2540000 		.4byte	0x54e2
 12033 54e2 09       		.uleb128 0x9
 12034 54e3 F8360000 		.4byte	0x36f8
 12035 54e7 56       		.uleb128 0x56
 12036 54e8 24440000 		.4byte	.LASF904
 12037 54ec 10       		.byte	0x10
 12038 54ed 0202     		.2byte	0x202
 12039 54ef F3540000 		.4byte	0x54f3
 12040 54f3 09       		.uleb128 0x9
 12041 54f4 CD350000 		.4byte	0x35cd
 12042 54f8 56       		.uleb128 0x56
 12043 54f9 A30A0000 		.4byte	.LASF905
 12044 54fd 10       		.byte	0x10
 12045 54fe 0302     		.2byte	0x203
 12046 5500 04550000 		.4byte	0x5504
 12047 5504 09       		.uleb128 0x9
ARM GAS  C:\Users\jrdia\AppData\Local\Temp\ccFTvYyK.s 			page 243


 12048 5505 CD350000 		.4byte	0x35cd
 12049 5509 56       		.uleb128 0x56
 12050 550a 0D660000 		.4byte	.LASF906
 12051 550e 10       		.byte	0x10
 12052 550f 0402     		.2byte	0x204
 12053 5511 15550000 		.4byte	0x5515
 12054 5515 09       		.uleb128 0x9
 12055 5516 F8360000 		.4byte	0x36f8
 12056 551a 56       		.uleb128 0x56
 12057 551b 682A0000 		.4byte	.LASF907
 12058 551f 10       		.byte	0x10
 12059 5520 0502     		.2byte	0x205
 12060 5522 26550000 		.4byte	0x5526
 12061 5526 09       		.uleb128 0x9
 12062 5527 6A350000 		.4byte	0x356a
 12063 552b 56       		.uleb128 0x56
 12064 552c F6100000 		.4byte	.LASF908
 12065 5530 10       		.byte	0x10
 12066 5531 0602     		.2byte	0x206
 12067 5533 37550000 		.4byte	0x5537
 12068 5537 09       		.uleb128 0x9
 12069 5538 B5360000 		.4byte	0x36b5
 12070 553c 56       		.uleb128 0x56
 12071 553d 061F0000 		.4byte	.LASF909
 12072 5541 10       		.byte	0x10
 12073 5542 0802     		.2byte	0x208
 12074 5544 48550000 		.4byte	0x5548
 12075 5548 09       		.uleb128 0x9
 12076 5549 73360000 		.4byte	0x3673
 12077 554d 56       		.uleb128 0x56
 12078 554e 264F0000 		.4byte	.LASF910
 12079 5552 10       		.byte	0x10
 12080 5553 0902     		.2byte	0x209
 12081 5555 59550000 		.4byte	0x5559
 12082 5559 09       		.uleb128 0x9
 12083 555a 94360000 		.4byte	0x3694
 12084 555e 56       		.uleb128 0x56
 12085 555f 11450000 		.4byte	.LASF911
 12086 5563 10       		.byte	0x10
 12087 5564 0A02     		.2byte	0x20a
 12088 5566 6A550000 		.4byte	0x556a
 12089 556a 09       		.uleb128 0x9
 12090 556b CD350000 		.4byte	0x35cd
 12091 556f 56       		.uleb128 0x56
 12092 5570 37630000 		.4byte	.LASF912
 12093 5574 10       		.byte	0x10
 12094 5575 0B02     		.2byte	0x20b
 12095 5577 7B550000 		.4byte	0x557b
 12096 557b 09       		.uleb128 0x9
 12097 557c EE350000 		.4byte	0x35ee
 12098 5580 56       		.uleb128 0x56
 12099 5581 B60A0000 		.4byte	.LASF913
 12100 5585 10       		.byte	0x10
 12101 5586 0C02     		.2byte	0x20c
 12102 5588 8C550000 		.4byte	0x558c
 12103 558c 09       		.uleb128 0x9
 12104 558d 73360000 		.4byte	0x3673
ARM GAS  C:\Users\jrdia\AppData\Local\Temp\ccFTvYyK.s 			page 244


 12105 5591 56       		.uleb128 0x56
 12106 5592 51190000 		.4byte	.LASF914
 12107 5596 10       		.byte	0x10
 12108 5597 0D02     		.2byte	0x20d
 12109 5599 9D550000 		.4byte	0x559d
 12110 559d 09       		.uleb128 0x9
 12111 559e 6A350000 		.4byte	0x356a
 12112 55a2 56       		.uleb128 0x56
 12113 55a3 D43F0000 		.4byte	.LASF915
 12114 55a7 10       		.byte	0x10
 12115 55a8 0E02     		.2byte	0x20e
 12116 55aa AE550000 		.4byte	0x55ae
 12117 55ae 09       		.uleb128 0x9
 12118 55af B5360000 		.4byte	0x36b5
 12119 55b3 56       		.uleb128 0x56
 12120 55b4 EB630000 		.4byte	.LASF916
 12121 55b8 10       		.byte	0x10
 12122 55b9 0F02     		.2byte	0x20f
 12123 55bb BF550000 		.4byte	0x55bf
 12124 55bf 09       		.uleb128 0x9
 12125 55c0 B5360000 		.4byte	0x36b5
 12126 55c4 56       		.uleb128 0x56
 12127 55c5 F6270000 		.4byte	.LASF917
 12128 55c9 10       		.byte	0x10
 12129 55ca 1002     		.2byte	0x210
 12130 55cc D0550000 		.4byte	0x55d0
 12131 55d0 09       		.uleb128 0x9
 12132 55d1 8B350000 		.4byte	0x358b
 12133 55d5 56       		.uleb128 0x56
 12134 55d6 A4270000 		.4byte	.LASF918
 12135 55da 10       		.byte	0x10
 12136 55db 1102     		.2byte	0x211
 12137 55dd E1550000 		.4byte	0x55e1
 12138 55e1 09       		.uleb128 0x9
 12139 55e2 CD350000 		.4byte	0x35cd
 12140 55e6 56       		.uleb128 0x56
 12141 55e7 D15A0000 		.4byte	.LASF919
 12142 55eb 10       		.byte	0x10
 12143 55ec 1202     		.2byte	0x212
 12144 55ee F2550000 		.4byte	0x55f2
 12145 55f2 09       		.uleb128 0x9
 12146 55f3 EE350000 		.4byte	0x35ee
 12147 55f7 56       		.uleb128 0x56
 12148 55f8 C0080000 		.4byte	.LASF920
 12149 55fc 10       		.byte	0x10
 12150 55fd 1302     		.2byte	0x213
 12151 55ff 03560000 		.4byte	0x5603
 12152 5603 09       		.uleb128 0x9
 12153 5604 F8360000 		.4byte	0x36f8
 12154 5608 56       		.uleb128 0x56
 12155 5609 AE650000 		.4byte	.LASF921
 12156 560d 10       		.byte	0x10
 12157 560e 1402     		.2byte	0x214
 12158 5610 14560000 		.4byte	0x5614
 12159 5614 09       		.uleb128 0x9
 12160 5615 EE350000 		.4byte	0x35ee
 12161 5619 56       		.uleb128 0x56
ARM GAS  C:\Users\jrdia\AppData\Local\Temp\ccFTvYyK.s 			page 245


 12162 561a 69170000 		.4byte	.LASF922
 12163 561e 10       		.byte	0x10
 12164 561f 1502     		.2byte	0x215
 12165 5621 25560000 		.4byte	0x5625
 12166 5625 09       		.uleb128 0x9
 12167 5626 73360000 		.4byte	0x3673
 12168 562a 56       		.uleb128 0x56
 12169 562b 534B0000 		.4byte	.LASF923
 12170 562f 10       		.byte	0x10
 12171 5630 1602     		.2byte	0x216
 12172 5632 36560000 		.4byte	0x5636
 12173 5636 09       		.uleb128 0x9
 12174 5637 EE350000 		.4byte	0x35ee
 12175 563b 56       		.uleb128 0x56
 12176 563c FF430000 		.4byte	.LASF924
 12177 5640 10       		.byte	0x10
 12178 5641 1702     		.2byte	0x217
 12179 5643 47560000 		.4byte	0x5647
 12180 5647 09       		.uleb128 0x9
 12181 5648 F8360000 		.4byte	0x36f8
 12182 564c 56       		.uleb128 0x56
 12183 564d 4F380000 		.4byte	.LASF925
 12184 5651 10       		.byte	0x10
 12185 5652 1802     		.2byte	0x218
 12186 5654 58560000 		.4byte	0x5658
 12187 5658 09       		.uleb128 0x9
 12188 5659 CD350000 		.4byte	0x35cd
 12189 565d 56       		.uleb128 0x56
 12190 565e 4A000000 		.4byte	.LASF926
 12191 5662 10       		.byte	0x10
 12192 5663 1902     		.2byte	0x219
 12193 5665 69560000 		.4byte	0x5669
 12194 5669 09       		.uleb128 0x9
 12195 566a 8D380000 		.4byte	0x388d
 12196 566e 56       		.uleb128 0x56
 12197 566f E92D0000 		.4byte	.LASF927
 12198 5673 10       		.byte	0x10
 12199 5674 1A02     		.2byte	0x21a
 12200 5676 7A560000 		.4byte	0x567a
 12201 567a 09       		.uleb128 0x9
 12202 567b 7E3A0000 		.4byte	0x3a7e
 12203 567f 56       		.uleb128 0x56
 12204 5680 F8050000 		.4byte	.LASF928
 12205 5684 10       		.byte	0x10
 12206 5685 1B02     		.2byte	0x21b
 12207 5687 8B560000 		.4byte	0x568b
 12208 568b 09       		.uleb128 0x9
 12209 568c F8360000 		.4byte	0x36f8
 12210 5690 56       		.uleb128 0x56
 12211 5691 982B0000 		.4byte	.LASF929
 12212 5695 10       		.byte	0x10
 12213 5696 1C02     		.2byte	0x21c
 12214 5698 9C560000 		.4byte	0x569c
 12215 569c 09       		.uleb128 0x9
 12216 569d CD350000 		.4byte	0x35cd
 12217 56a1 56       		.uleb128 0x56
 12218 56a2 52290000 		.4byte	.LASF930
ARM GAS  C:\Users\jrdia\AppData\Local\Temp\ccFTvYyK.s 			page 246


 12219 56a6 10       		.byte	0x10
 12220 56a7 1D02     		.2byte	0x21d
 12221 56a9 AD560000 		.4byte	0x56ad
 12222 56ad 09       		.uleb128 0x9
 12223 56ae EE350000 		.4byte	0x35ee
 12224 56b2 56       		.uleb128 0x56
 12225 56b3 EA120000 		.4byte	.LASF931
 12226 56b7 10       		.byte	0x10
 12227 56b8 1E02     		.2byte	0x21e
 12228 56ba BE560000 		.4byte	0x56be
 12229 56be 09       		.uleb128 0x9
 12230 56bf CD350000 		.4byte	0x35cd
 12231 56c3 56       		.uleb128 0x56
 12232 56c4 C43D0000 		.4byte	.LASF932
 12233 56c8 10       		.byte	0x10
 12234 56c9 1F02     		.2byte	0x21f
 12235 56cb CF560000 		.4byte	0x56cf
 12236 56cf 09       		.uleb128 0x9
 12237 56d0 73360000 		.4byte	0x3673
 12238 56d4 56       		.uleb128 0x56
 12239 56d5 4F3A0000 		.4byte	.LASF933
 12240 56d9 10       		.byte	0x10
 12241 56da 2002     		.2byte	0x220
 12242 56dc E0560000 		.4byte	0x56e0
 12243 56e0 09       		.uleb128 0x9
 12244 56e1 94360000 		.4byte	0x3694
 12245 56e5 56       		.uleb128 0x56
 12246 56e6 E8640000 		.4byte	.LASF934
 12247 56ea 10       		.byte	0x10
 12248 56eb 2102     		.2byte	0x221
 12249 56ed F1560000 		.4byte	0x56f1
 12250 56f1 09       		.uleb128 0x9
 12251 56f2 F8360000 		.4byte	0x36f8
 12252 56f6 56       		.uleb128 0x56
 12253 56f7 B9300000 		.4byte	.LASF935
 12254 56fb 10       		.byte	0x10
 12255 56fc 2202     		.2byte	0x222
 12256 56fe 02570000 		.4byte	0x5702
 12257 5702 09       		.uleb128 0x9
 12258 5703 CD350000 		.4byte	0x35cd
 12259 5707 56       		.uleb128 0x56
 12260 5708 0D2D0000 		.4byte	.LASF936
 12261 570c 10       		.byte	0x10
 12262 570d 2302     		.2byte	0x223
 12263 570f 13570000 		.4byte	0x5713
 12264 5713 09       		.uleb128 0x9
 12265 5714 B5360000 		.4byte	0x36b5
 12266 5718 56       		.uleb128 0x56
 12267 5719 17420000 		.4byte	.LASF937
 12268 571d 10       		.byte	0x10
 12269 571e 2402     		.2byte	0x224
 12270 5720 24570000 		.4byte	0x5724
 12271 5724 09       		.uleb128 0x9
 12272 5725 41360000 		.4byte	0x3641
 12273 5729 56       		.uleb128 0x56
 12274 572a 99100000 		.4byte	.LASF938
 12275 572e 10       		.byte	0x10
ARM GAS  C:\Users\jrdia\AppData\Local\Temp\ccFTvYyK.s 			page 247


 12276 572f 2502     		.2byte	0x225
 12277 5731 35570000 		.4byte	0x5735
 12278 5735 09       		.uleb128 0x9
 12279 5736 7E3A0000 		.4byte	0x3a7e
 12280 573a 56       		.uleb128 0x56
 12281 573b 18160000 		.4byte	.LASF939
 12282 573f 10       		.byte	0x10
 12283 5740 2602     		.2byte	0x226
 12284 5742 46570000 		.4byte	0x5746
 12285 5746 09       		.uleb128 0x9
 12286 5747 EE350000 		.4byte	0x35ee
 12287 574b 56       		.uleb128 0x56
 12288 574c F83A0000 		.4byte	.LASF940
 12289 5750 10       		.byte	0x10
 12290 5751 2702     		.2byte	0x227
 12291 5753 57570000 		.4byte	0x5757
 12292 5757 09       		.uleb128 0x9
 12293 5758 EE350000 		.4byte	0x35ee
 12294 575c 56       		.uleb128 0x56
 12295 575d B0430000 		.4byte	.LASF941
 12296 5761 10       		.byte	0x10
 12297 5762 2802     		.2byte	0x228
 12298 5764 68570000 		.4byte	0x5768
 12299 5768 09       		.uleb128 0x9
 12300 5769 CD350000 		.4byte	0x35cd
 12301 576d 56       		.uleb128 0x56
 12302 576e 2C340000 		.4byte	.LASF942
 12303 5772 10       		.byte	0x10
 12304 5773 2902     		.2byte	0x229
 12305 5775 79570000 		.4byte	0x5779
 12306 5779 09       		.uleb128 0x9
 12307 577a CD350000 		.4byte	0x35cd
 12308 577e 56       		.uleb128 0x56
 12309 577f 175B0000 		.4byte	.LASF943
 12310 5783 10       		.byte	0x10
 12311 5784 2A02     		.2byte	0x22a
 12312 5786 8A570000 		.4byte	0x578a
 12313 578a 09       		.uleb128 0x9
 12314 578b B5360000 		.4byte	0x36b5
 12315 578f 56       		.uleb128 0x56
 12316 5790 DE490000 		.4byte	.LASF944
 12317 5794 10       		.byte	0x10
 12318 5795 2B02     		.2byte	0x22b
 12319 5797 9B570000 		.4byte	0x579b
 12320 579b 09       		.uleb128 0x9
 12321 579c B5360000 		.4byte	0x36b5
 12322 57a0 56       		.uleb128 0x56
 12323 57a1 C8040000 		.4byte	.LASF945
 12324 57a5 10       		.byte	0x10
 12325 57a6 2C02     		.2byte	0x22c
 12326 57a8 AC570000 		.4byte	0x57ac
 12327 57ac 09       		.uleb128 0x9
 12328 57ad EE350000 		.4byte	0x35ee
 12329 57b1 56       		.uleb128 0x56
 12330 57b2 FF460000 		.4byte	.LASF946
 12331 57b6 10       		.byte	0x10
 12332 57b7 2D02     		.2byte	0x22d
ARM GAS  C:\Users\jrdia\AppData\Local\Temp\ccFTvYyK.s 			page 248


 12333 57b9 BD570000 		.4byte	0x57bd
 12334 57bd 09       		.uleb128 0x9
 12335 57be F8360000 		.4byte	0x36f8
 12336 57c2 56       		.uleb128 0x56
 12337 57c3 A6350000 		.4byte	.LASF947
 12338 57c7 10       		.byte	0x10
 12339 57c8 2E02     		.2byte	0x22e
 12340 57ca CE570000 		.4byte	0x57ce
 12341 57ce 09       		.uleb128 0x9
 12342 57cf EE350000 		.4byte	0x35ee
 12343 57d3 56       		.uleb128 0x56
 12344 57d4 9F180000 		.4byte	.LASF948
 12345 57d8 10       		.byte	0x10
 12346 57d9 2F02     		.2byte	0x22f
 12347 57db DF570000 		.4byte	0x57df
 12348 57df 09       		.uleb128 0x9
 12349 57e0 41360000 		.4byte	0x3641
 12350 57e4 56       		.uleb128 0x56
 12351 57e5 6B590000 		.4byte	.LASF949
 12352 57e9 10       		.byte	0x10
 12353 57ea 3002     		.2byte	0x230
 12354 57ec F0570000 		.4byte	0x57f0
 12355 57f0 09       		.uleb128 0x9
 12356 57f1 B5360000 		.4byte	0x36b5
 12357 57f5 56       		.uleb128 0x56
 12358 57f6 360A0000 		.4byte	.LASF950
 12359 57fa 10       		.byte	0x10
 12360 57fb 3102     		.2byte	0x231
 12361 57fd 01580000 		.4byte	0x5801
 12362 5801 09       		.uleb128 0x9
 12363 5802 0F360000 		.4byte	0x360f
 12364 5806 56       		.uleb128 0x56
 12365 5807 A92A0000 		.4byte	.LASF951
 12366 580b 10       		.byte	0x10
 12367 580c 3202     		.2byte	0x232
 12368 580e 12580000 		.4byte	0x5812
 12369 5812 09       		.uleb128 0x9
 12370 5813 8D380000 		.4byte	0x388d
 12371 5817 56       		.uleb128 0x56
 12372 5818 5D2F0000 		.4byte	.LASF952
 12373 581c 10       		.byte	0x10
 12374 581d 3302     		.2byte	0x233
 12375 581f 23580000 		.4byte	0x5823
 12376 5823 09       		.uleb128 0x9
 12377 5824 94360000 		.4byte	0x3694
 12378 5828 56       		.uleb128 0x56
 12379 5829 5D440000 		.4byte	.LASF953
 12380 582d 10       		.byte	0x10
 12381 582e 3402     		.2byte	0x234
 12382 5830 34580000 		.4byte	0x5834
 12383 5834 09       		.uleb128 0x9
 12384 5835 94360000 		.4byte	0x3694
 12385 5839 56       		.uleb128 0x56
 12386 583a BF620000 		.4byte	.LASF954
 12387 583e 10       		.byte	0x10
 12388 583f 3502     		.2byte	0x235
 12389 5841 45580000 		.4byte	0x5845
ARM GAS  C:\Users\jrdia\AppData\Local\Temp\ccFTvYyK.s 			page 249


 12390 5845 09       		.uleb128 0x9
 12391 5846 94360000 		.4byte	0x3694
 12392 584a 56       		.uleb128 0x56
 12393 584b BF1F0000 		.4byte	.LASF955
 12394 584f 10       		.byte	0x10
 12395 5850 3602     		.2byte	0x236
 12396 5852 56580000 		.4byte	0x5856
 12397 5856 09       		.uleb128 0x9
 12398 5857 CD350000 		.4byte	0x35cd
 12399 585b 56       		.uleb128 0x56
 12400 585c 40440000 		.4byte	.LASF956
 12401 5860 10       		.byte	0x10
 12402 5861 3702     		.2byte	0x237
 12403 5863 67580000 		.4byte	0x5867
 12404 5867 09       		.uleb128 0x9
 12405 5868 CD350000 		.4byte	0x35cd
 12406 586c 56       		.uleb128 0x56
 12407 586d 444F0000 		.4byte	.LASF957
 12408 5871 10       		.byte	0x10
 12409 5872 3802     		.2byte	0x238
 12410 5874 78580000 		.4byte	0x5878
 12411 5878 09       		.uleb128 0x9
 12412 5879 0F360000 		.4byte	0x360f
 12413 587d 56       		.uleb128 0x56
 12414 587e 30090000 		.4byte	.LASF958
 12415 5882 10       		.byte	0x10
 12416 5883 3902     		.2byte	0x239
 12417 5885 89580000 		.4byte	0x5889
 12418 5889 09       		.uleb128 0x9
 12419 588a 0F360000 		.4byte	0x360f
 12420 588e 56       		.uleb128 0x56
 12421 588f 652E0000 		.4byte	.LASF959
 12422 5893 10       		.byte	0x10
 12423 5894 3A02     		.2byte	0x23a
 12424 5896 9A580000 		.4byte	0x589a
 12425 589a 09       		.uleb128 0x9
 12426 589b 8D380000 		.4byte	0x388d
 12427 589f 56       		.uleb128 0x56
 12428 58a0 10020000 		.4byte	.LASF960
 12429 58a4 10       		.byte	0x10
 12430 58a5 3B02     		.2byte	0x23b
 12431 58a7 AB580000 		.4byte	0x58ab
 12432 58ab 09       		.uleb128 0x9
 12433 58ac AC350000 		.4byte	0x35ac
 12434 58b0 56       		.uleb128 0x56
 12435 58b1 52020000 		.4byte	.LASF961
 12436 58b5 10       		.byte	0x10
 12437 58b6 3C02     		.2byte	0x23c
 12438 58b8 BC580000 		.4byte	0x58bc
 12439 58bc 09       		.uleb128 0x9
 12440 58bd CD350000 		.4byte	0x35cd
 12441 58c1 56       		.uleb128 0x56
 12442 58c2 B8000000 		.4byte	.LASF962
 12443 58c6 10       		.byte	0x10
 12444 58c7 3D02     		.2byte	0x23d
 12445 58c9 CD580000 		.4byte	0x58cd
 12446 58cd 09       		.uleb128 0x9
ARM GAS  C:\Users\jrdia\AppData\Local\Temp\ccFTvYyK.s 			page 250


 12447 58ce C13A0000 		.4byte	0x3ac1
 12448 58d2 56       		.uleb128 0x56
 12449 58d3 4E480000 		.4byte	.LASF963
 12450 58d7 10       		.byte	0x10
 12451 58d8 3E02     		.2byte	0x23e
 12452 58da DE580000 		.4byte	0x58de
 12453 58de 09       		.uleb128 0x9
 12454 58df 7E3A0000 		.4byte	0x3a7e
 12455 58e3 56       		.uleb128 0x56
 12456 58e4 A1230000 		.4byte	.LASF964
 12457 58e8 10       		.byte	0x10
 12458 58e9 3F02     		.2byte	0x23f
 12459 58eb EF580000 		.4byte	0x58ef
 12460 58ef 09       		.uleb128 0x9
 12461 58f0 0F360000 		.4byte	0x360f
 12462 58f4 56       		.uleb128 0x56
 12463 58f5 21150000 		.4byte	.LASF965
 12464 58f9 10       		.byte	0x10
 12465 58fa 4002     		.2byte	0x240
 12466 58fc 00590000 		.4byte	0x5900
 12467 5900 09       		.uleb128 0x9
 12468 5901 7E3A0000 		.4byte	0x3a7e
 12469 5905 56       		.uleb128 0x56
 12470 5906 514D0000 		.4byte	.LASF966
 12471 590a 10       		.byte	0x10
 12472 590b 4102     		.2byte	0x241
 12473 590d 11590000 		.4byte	0x5911
 12474 5911 09       		.uleb128 0x9
 12475 5912 41360000 		.4byte	0x3641
 12476 5916 56       		.uleb128 0x56
 12477 5917 16430000 		.4byte	.LASF967
 12478 591b 10       		.byte	0x10
 12479 591c 4202     		.2byte	0x242
 12480 591e 22590000 		.4byte	0x5922
 12481 5922 09       		.uleb128 0x9
 12482 5923 3B370000 		.4byte	0x373b
 12483 5927 56       		.uleb128 0x56
 12484 5928 64090000 		.4byte	.LASF968
 12485 592c 10       		.byte	0x10
 12486 592d 4302     		.2byte	0x243
 12487 592f 33590000 		.4byte	0x5933
 12488 5933 09       		.uleb128 0x9
 12489 5934 F8360000 		.4byte	0x36f8
 12490 5938 56       		.uleb128 0x56
 12491 5939 DD200000 		.4byte	.LASF969
 12492 593d 10       		.byte	0x10
 12493 593e 4402     		.2byte	0x244
 12494 5940 44590000 		.4byte	0x5944
 12495 5944 09       		.uleb128 0x9
 12496 5945 41360000 		.4byte	0x3641
 12497 5949 56       		.uleb128 0x56
 12498 594a 89180000 		.4byte	.LASF970
 12499 594e 10       		.byte	0x10
 12500 594f 4502     		.2byte	0x245
 12501 5951 55590000 		.4byte	0x5955
 12502 5955 09       		.uleb128 0x9
 12503 5956 CD350000 		.4byte	0x35cd
ARM GAS  C:\Users\jrdia\AppData\Local\Temp\ccFTvYyK.s 			page 251


 12504 595a 56       		.uleb128 0x56
 12505 595b 88390000 		.4byte	.LASF971
 12506 595f 10       		.byte	0x10
 12507 5960 4602     		.2byte	0x246
 12508 5962 66590000 		.4byte	0x5966
 12509 5966 09       		.uleb128 0x9
 12510 5967 7E3A0000 		.4byte	0x3a7e
 12511 596b 56       		.uleb128 0x56
 12512 596c D0290000 		.4byte	.LASF972
 12513 5970 10       		.byte	0x10
 12514 5971 4702     		.2byte	0x247
 12515 5973 77590000 		.4byte	0x5977
 12516 5977 09       		.uleb128 0x9
 12517 5978 7E3A0000 		.4byte	0x3a7e
 12518 597c 56       		.uleb128 0x56
 12519 597d E4530000 		.4byte	.LASF973
 12520 5981 10       		.byte	0x10
 12521 5982 4802     		.2byte	0x248
 12522 5984 88590000 		.4byte	0x5988
 12523 5988 09       		.uleb128 0x9
 12524 5989 8D380000 		.4byte	0x388d
 12525 598d 56       		.uleb128 0x56
 12526 598e 854A0000 		.4byte	.LASF974
 12527 5992 10       		.byte	0x10
 12528 5993 4902     		.2byte	0x249
 12529 5995 99590000 		.4byte	0x5999
 12530 5999 09       		.uleb128 0x9
 12531 599a 8D380000 		.4byte	0x388d
 12532 599e 56       		.uleb128 0x56
 12533 599f 26620000 		.4byte	.LASF975
 12534 59a3 10       		.byte	0x10
 12535 59a4 4A02     		.2byte	0x24a
 12536 59a6 AA590000 		.4byte	0x59aa
 12537 59aa 09       		.uleb128 0x9
 12538 59ab AC350000 		.4byte	0x35ac
 12539 59af 56       		.uleb128 0x56
 12540 59b0 C3320000 		.4byte	.LASF976
 12541 59b4 10       		.byte	0x10
 12542 59b5 4B02     		.2byte	0x24b
 12543 59b7 BB590000 		.4byte	0x59bb
 12544 59bb 09       		.uleb128 0x9
 12545 59bc 8D380000 		.4byte	0x388d
 12546 59c0 56       		.uleb128 0x56
 12547 59c1 0C2F0000 		.4byte	.LASF977
 12548 59c5 10       		.byte	0x10
 12549 59c6 4C02     		.2byte	0x24c
 12550 59c8 CC590000 		.4byte	0x59cc
 12551 59cc 09       		.uleb128 0x9
 12552 59cd B5360000 		.4byte	0x36b5
 12553 59d1 56       		.uleb128 0x56
 12554 59d2 CD270000 		.4byte	.LASF978
 12555 59d6 10       		.byte	0x10
 12556 59d7 4D02     		.2byte	0x24d
 12557 59d9 DD590000 		.4byte	0x59dd
 12558 59dd 09       		.uleb128 0x9
 12559 59de C13A0000 		.4byte	0x3ac1
 12560 59e2 56       		.uleb128 0x56
ARM GAS  C:\Users\jrdia\AppData\Local\Temp\ccFTvYyK.s 			page 252


 12561 59e3 F75C0000 		.4byte	.LASF979
 12562 59e7 10       		.byte	0x10
 12563 59e8 4E02     		.2byte	0x24e
 12564 59ea EE590000 		.4byte	0x59ee
 12565 59ee 09       		.uleb128 0x9
 12566 59ef C13A0000 		.4byte	0x3ac1
 12567 59f3 56       		.uleb128 0x56
 12568 59f4 84240000 		.4byte	.LASF980
 12569 59f8 10       		.byte	0x10
 12570 59f9 4F02     		.2byte	0x24f
 12571 59fb FF590000 		.4byte	0x59ff
 12572 59ff 09       		.uleb128 0x9
 12573 5a00 8D380000 		.4byte	0x388d
 12574 5a04 56       		.uleb128 0x56
 12575 5a05 92020000 		.4byte	.LASF981
 12576 5a09 10       		.byte	0x10
 12577 5a0a 5002     		.2byte	0x250
 12578 5a0c 105A0000 		.4byte	0x5a10
 12579 5a10 09       		.uleb128 0x9
 12580 5a11 41360000 		.4byte	0x3641
 12581 5a15 56       		.uleb128 0x56
 12582 5a16 B4220000 		.4byte	.LASF982
 12583 5a1a 10       		.byte	0x10
 12584 5a1b 5102     		.2byte	0x251
 12585 5a1d 215A0000 		.4byte	0x5a21
 12586 5a21 09       		.uleb128 0x9
 12587 5a22 3B370000 		.4byte	0x373b
 12588 5a26 56       		.uleb128 0x56
 12589 5a27 0E3A0000 		.4byte	.LASF983
 12590 5a2b 10       		.byte	0x10
 12591 5a2c 5202     		.2byte	0x252
 12592 5a2e 325A0000 		.4byte	0x5a32
 12593 5a32 09       		.uleb128 0x9
 12594 5a33 0F360000 		.4byte	0x360f
 12595 5a37 56       		.uleb128 0x56
 12596 5a38 E75A0000 		.4byte	.LASF984
 12597 5a3c 10       		.byte	0x10
 12598 5a3d 5302     		.2byte	0x253
 12599 5a3f 435A0000 		.4byte	0x5a43
 12600 5a43 09       		.uleb128 0x9
 12601 5a44 0F360000 		.4byte	0x360f
 12602 5a48 56       		.uleb128 0x56
 12603 5a49 872E0000 		.4byte	.LASF985
 12604 5a4d 10       		.byte	0x10
 12605 5a4e 5402     		.2byte	0x254
 12606 5a50 545A0000 		.4byte	0x5a54
 12607 5a54 09       		.uleb128 0x9
 12608 5a55 0F360000 		.4byte	0x360f
 12609 5a59 56       		.uleb128 0x56
 12610 5a5a 542E0000 		.4byte	.LASF986
 12611 5a5e 10       		.byte	0x10
 12612 5a5f 5502     		.2byte	0x255
 12613 5a61 655A0000 		.4byte	0x5a65
 12614 5a65 09       		.uleb128 0x9
 12615 5a66 EE350000 		.4byte	0x35ee
 12616 5a6a 56       		.uleb128 0x56
 12617 5a6b 174C0000 		.4byte	.LASF987
ARM GAS  C:\Users\jrdia\AppData\Local\Temp\ccFTvYyK.s 			page 253


 12618 5a6f 10       		.byte	0x10
 12619 5a70 5602     		.2byte	0x256
 12620 5a72 765A0000 		.4byte	0x5a76
 12621 5a76 09       		.uleb128 0x9
 12622 5a77 F8360000 		.4byte	0x36f8
 12623 5a7b 56       		.uleb128 0x56
 12624 5a7c 3B650000 		.4byte	.LASF988
 12625 5a80 10       		.byte	0x10
 12626 5a81 5702     		.2byte	0x257
 12627 5a83 875A0000 		.4byte	0x5a87
 12628 5a87 09       		.uleb128 0x9
 12629 5a88 8D380000 		.4byte	0x388d
 12630 5a8c 56       		.uleb128 0x56
 12631 5a8d 9B5F0000 		.4byte	.LASF989
 12632 5a91 10       		.byte	0x10
 12633 5a92 5802     		.2byte	0x258
 12634 5a94 985A0000 		.4byte	0x5a98
 12635 5a98 09       		.uleb128 0x9
 12636 5a99 B1370000 		.4byte	0x37b1
 12637 5a9d 56       		.uleb128 0x56
 12638 5a9e D2630000 		.4byte	.LASF990
 12639 5aa2 10       		.byte	0x10
 12640 5aa3 5902     		.2byte	0x259
 12641 5aa5 A95A0000 		.4byte	0x5aa9
 12642 5aa9 09       		.uleb128 0x9
 12643 5aaa 0F360000 		.4byte	0x360f
 12644 5aae 56       		.uleb128 0x56
 12645 5aaf CC2A0000 		.4byte	.LASF991
 12646 5ab3 10       		.byte	0x10
 12647 5ab4 5A02     		.2byte	0x25a
 12648 5ab6 BA5A0000 		.4byte	0x5aba
 12649 5aba 09       		.uleb128 0x9
 12650 5abb CD350000 		.4byte	0x35cd
 12651 5abf 56       		.uleb128 0x56
 12652 5ac0 ED5D0000 		.4byte	.LASF992
 12653 5ac4 10       		.byte	0x10
 12654 5ac5 5B02     		.2byte	0x25b
 12655 5ac7 CB5A0000 		.4byte	0x5acb
 12656 5acb 09       		.uleb128 0x9
 12657 5acc 0F360000 		.4byte	0x360f
 12658 5ad0 56       		.uleb128 0x56
 12659 5ad1 A91B0000 		.4byte	.LASF993
 12660 5ad5 10       		.byte	0x10
 12661 5ad6 5C02     		.2byte	0x25c
 12662 5ad8 DC5A0000 		.4byte	0x5adc
 12663 5adc 09       		.uleb128 0x9
 12664 5add CD350000 		.4byte	0x35cd
 12665 5ae1 56       		.uleb128 0x56
 12666 5ae2 093F0000 		.4byte	.LASF994
 12667 5ae6 10       		.byte	0x10
 12668 5ae7 5D02     		.2byte	0x25d
 12669 5ae9 ED5A0000 		.4byte	0x5aed
 12670 5aed 09       		.uleb128 0x9
 12671 5aee 0F360000 		.4byte	0x360f
 12672 5af2 56       		.uleb128 0x56
 12673 5af3 F9040000 		.4byte	.LASF995
 12674 5af7 10       		.byte	0x10
ARM GAS  C:\Users\jrdia\AppData\Local\Temp\ccFTvYyK.s 			page 254


 12675 5af8 5E02     		.2byte	0x25e
 12676 5afa FE5A0000 		.4byte	0x5afe
 12677 5afe 09       		.uleb128 0x9
 12678 5aff 0F360000 		.4byte	0x360f
 12679 5b03 56       		.uleb128 0x56
 12680 5b04 2C070000 		.4byte	.LASF996
 12681 5b08 10       		.byte	0x10
 12682 5b09 5F02     		.2byte	0x25f
 12683 5b0b 0F5B0000 		.4byte	0x5b0f
 12684 5b0f 09       		.uleb128 0x9
 12685 5b10 AC350000 		.4byte	0x35ac
 12686 5b14 56       		.uleb128 0x56
 12687 5b15 802F0000 		.4byte	.LASF997
 12688 5b19 10       		.byte	0x10
 12689 5b1a 6002     		.2byte	0x260
 12690 5b1c 205B0000 		.4byte	0x5b20
 12691 5b20 09       		.uleb128 0x9
 12692 5b21 0F360000 		.4byte	0x360f
 12693 5b25 56       		.uleb128 0x56
 12694 5b26 74180000 		.4byte	.LASF998
 12695 5b2a 10       		.byte	0x10
 12696 5b2b 6102     		.2byte	0x261
 12697 5b2d 315B0000 		.4byte	0x5b31
 12698 5b31 09       		.uleb128 0x9
 12699 5b32 B5360000 		.4byte	0x36b5
 12700 5b36 56       		.uleb128 0x56
 12701 5b37 6D340000 		.4byte	.LASF999
 12702 5b3b 10       		.byte	0x10
 12703 5b3c 6202     		.2byte	0x262
 12704 5b3e 425B0000 		.4byte	0x5b42
 12705 5b42 09       		.uleb128 0x9
 12706 5b43 EE350000 		.4byte	0x35ee
 12707 5b47 56       		.uleb128 0x56
 12708 5b48 F15F0000 		.4byte	.LASF1000
 12709 5b4c 10       		.byte	0x10
 12710 5b4d 6302     		.2byte	0x263
 12711 5b4f 535B0000 		.4byte	0x5b53
 12712 5b53 09       		.uleb128 0x9
 12713 5b54 B5360000 		.4byte	0x36b5
 12714 5b58 56       		.uleb128 0x56
 12715 5b59 E01C0000 		.4byte	.LASF1001
 12716 5b5d 10       		.byte	0x10
 12717 5b5e 6402     		.2byte	0x264
 12718 5b60 645B0000 		.4byte	0x5b64
 12719 5b64 09       		.uleb128 0x9
 12720 5b65 CD350000 		.4byte	0x35cd
 12721 5b69 56       		.uleb128 0x56
 12722 5b6a 7C640000 		.4byte	.LASF1002
 12723 5b6e 10       		.byte	0x10
 12724 5b6f 6502     		.2byte	0x265
 12725 5b71 755B0000 		.4byte	0x5b75
 12726 5b75 09       		.uleb128 0x9
 12727 5b76 7E3A0000 		.4byte	0x3a7e
 12728 5b7a 56       		.uleb128 0x56
 12729 5b7b A4090000 		.4byte	.LASF1003
 12730 5b7f 10       		.byte	0x10
 12731 5b80 6602     		.2byte	0x266
ARM GAS  C:\Users\jrdia\AppData\Local\Temp\ccFTvYyK.s 			page 255


 12732 5b82 865B0000 		.4byte	0x5b86
 12733 5b86 09       		.uleb128 0x9
 12734 5b87 0F360000 		.4byte	0x360f
 12735 5b8b 56       		.uleb128 0x56
 12736 5b8c 50510000 		.4byte	.LASF1004
 12737 5b90 10       		.byte	0x10
 12738 5b91 6702     		.2byte	0x267
 12739 5b93 975B0000 		.4byte	0x5b97
 12740 5b97 09       		.uleb128 0x9
 12741 5b98 8D380000 		.4byte	0x388d
 12742 5b9c 56       		.uleb128 0x56
 12743 5b9d 5A350000 		.4byte	.LASF1005
 12744 5ba1 10       		.byte	0x10
 12745 5ba2 6802     		.2byte	0x268
 12746 5ba4 A85B0000 		.4byte	0x5ba8
 12747 5ba8 09       		.uleb128 0x9
 12748 5ba9 41360000 		.4byte	0x3641
 12749 5bad 56       		.uleb128 0x56
 12750 5bae 6A220000 		.4byte	.LASF1006
 12751 5bb2 10       		.byte	0x10
 12752 5bb3 6902     		.2byte	0x269
 12753 5bb5 B95B0000 		.4byte	0x5bb9
 12754 5bb9 09       		.uleb128 0x9
 12755 5bba 3B370000 		.4byte	0x373b
 12756 5bbe 56       		.uleb128 0x56
 12757 5bbf 9A3B0000 		.4byte	.LASF1007
 12758 5bc3 10       		.byte	0x10
 12759 5bc4 6A02     		.2byte	0x26a
 12760 5bc6 CA5B0000 		.4byte	0x5bca
 12761 5bca 09       		.uleb128 0x9
 12762 5bcb CD350000 		.4byte	0x35cd
 12763 5bcf 56       		.uleb128 0x56
 12764 5bd0 F5380000 		.4byte	.LASF1008
 12765 5bd4 10       		.byte	0x10
 12766 5bd5 6B02     		.2byte	0x26b
 12767 5bd7 DB5B0000 		.4byte	0x5bdb
 12768 5bdb 09       		.uleb128 0x9
 12769 5bdc CD350000 		.4byte	0x35cd
 12770 5be0 56       		.uleb128 0x56
 12771 5be1 FB4A0000 		.4byte	.LASF1009
 12772 5be5 10       		.byte	0x10
 12773 5be6 6C02     		.2byte	0x26c
 12774 5be8 EC5B0000 		.4byte	0x5bec
 12775 5bec 09       		.uleb128 0x9
 12776 5bed F8360000 		.4byte	0x36f8
 12777 5bf1 56       		.uleb128 0x56
 12778 5bf2 BE4F0000 		.4byte	.LASF1010
 12779 5bf6 10       		.byte	0x10
 12780 5bf7 6D02     		.2byte	0x26d
 12781 5bf9 FD5B0000 		.4byte	0x5bfd
 12782 5bfd 09       		.uleb128 0x9
 12783 5bfe EE350000 		.4byte	0x35ee
 12784 5c02 56       		.uleb128 0x56
 12785 5c03 FB1A0000 		.4byte	.LASF1011
 12786 5c07 10       		.byte	0x10
 12787 5c08 6E02     		.2byte	0x26e
 12788 5c0a 0E5C0000 		.4byte	0x5c0e
ARM GAS  C:\Users\jrdia\AppData\Local\Temp\ccFTvYyK.s 			page 256


 12789 5c0e 09       		.uleb128 0x9
 12790 5c0f 7E3A0000 		.4byte	0x3a7e
 12791 5c13 56       		.uleb128 0x56
 12792 5c14 812B0000 		.4byte	.LASF1012
 12793 5c18 10       		.byte	0x10
 12794 5c19 6F02     		.2byte	0x26f
 12795 5c1b 1F5C0000 		.4byte	0x5c1f
 12796 5c1f 09       		.uleb128 0x9
 12797 5c20 CD350000 		.4byte	0x35cd
 12798 5c24 56       		.uleb128 0x56
 12799 5c25 B74A0000 		.4byte	.LASF1013
 12800 5c29 10       		.byte	0x10
 12801 5c2a 7002     		.2byte	0x270
 12802 5c2c 305C0000 		.4byte	0x5c30
 12803 5c30 09       		.uleb128 0x9
 12804 5c31 0F360000 		.4byte	0x360f
 12805 5c35 56       		.uleb128 0x56
 12806 5c36 D4280000 		.4byte	.LASF1014
 12807 5c3a 10       		.byte	0x10
 12808 5c3b 7102     		.2byte	0x271
 12809 5c3d 415C0000 		.4byte	0x5c41
 12810 5c41 09       		.uleb128 0x9
 12811 5c42 0F360000 		.4byte	0x360f
 12812 5c46 56       		.uleb128 0x56
 12813 5c47 A64F0000 		.4byte	.LASF1015
 12814 5c4b 10       		.byte	0x10
 12815 5c4c 7202     		.2byte	0x272
 12816 5c4e 525C0000 		.4byte	0x5c52
 12817 5c52 09       		.uleb128 0x9
 12818 5c53 0F360000 		.4byte	0x360f
 12819 5c57 56       		.uleb128 0x56
 12820 5c58 BC350000 		.4byte	.LASF1016
 12821 5c5c 10       		.byte	0x10
 12822 5c5d 7302     		.2byte	0x273
 12823 5c5f 635C0000 		.4byte	0x5c63
 12824 5c63 09       		.uleb128 0x9
 12825 5c64 AC350000 		.4byte	0x35ac
 12826 5c68 56       		.uleb128 0x56
 12827 5c69 635D0000 		.4byte	.LASF1017
 12828 5c6d 10       		.byte	0x10
 12829 5c6e 7402     		.2byte	0x274
 12830 5c70 745C0000 		.4byte	0x5c74
 12831 5c74 09       		.uleb128 0x9
 12832 5c75 41360000 		.4byte	0x3641
 12833 5c79 56       		.uleb128 0x56
 12834 5c7a 241D0000 		.4byte	.LASF1018
 12835 5c7e 10       		.byte	0x10
 12836 5c7f 7502     		.2byte	0x275
 12837 5c81 855C0000 		.4byte	0x5c85
 12838 5c85 09       		.uleb128 0x9
 12839 5c86 0F360000 		.4byte	0x360f
 12840 5c8a 56       		.uleb128 0x56
 12841 5c8b 63300000 		.4byte	.LASF1019
 12842 5c8f 10       		.byte	0x10
 12843 5c90 7602     		.2byte	0x276
 12844 5c92 965C0000 		.4byte	0x5c96
 12845 5c96 09       		.uleb128 0x9
ARM GAS  C:\Users\jrdia\AppData\Local\Temp\ccFTvYyK.s 			page 257


 12846 5c97 C13A0000 		.4byte	0x3ac1
 12847 5c9b 56       		.uleb128 0x56
 12848 5c9c A52C0000 		.4byte	.LASF1020
 12849 5ca0 10       		.byte	0x10
 12850 5ca1 7702     		.2byte	0x277
 12851 5ca3 A75C0000 		.4byte	0x5ca7
 12852 5ca7 09       		.uleb128 0x9
 12853 5ca8 CD350000 		.4byte	0x35cd
 12854 5cac 56       		.uleb128 0x56
 12855 5cad 234B0000 		.4byte	.LASF1021
 12856 5cb1 10       		.byte	0x10
 12857 5cb2 7802     		.2byte	0x278
 12858 5cb4 B85C0000 		.4byte	0x5cb8
 12859 5cb8 09       		.uleb128 0x9
 12860 5cb9 41360000 		.4byte	0x3641
 12861 5cbd 56       		.uleb128 0x56
 12862 5cbe E9560000 		.4byte	.LASF1022
 12863 5cc2 10       		.byte	0x10
 12864 5cc3 7902     		.2byte	0x279
 12865 5cc5 C95C0000 		.4byte	0x5cc9
 12866 5cc9 09       		.uleb128 0x9
 12867 5cca C13A0000 		.4byte	0x3ac1
 12868 5cce 56       		.uleb128 0x56
 12869 5ccf D4380000 		.4byte	.LASF1023
 12870 5cd3 10       		.byte	0x10
 12871 5cd4 7A02     		.2byte	0x27a
 12872 5cd6 DA5C0000 		.4byte	0x5cda
 12873 5cda 09       		.uleb128 0x9
 12874 5cdb AE380000 		.4byte	0x38ae
 12875 5cdf 56       		.uleb128 0x56
 12876 5ce0 BD570000 		.4byte	.LASF1024
 12877 5ce4 10       		.byte	0x10
 12878 5ce5 7B02     		.2byte	0x27b
 12879 5ce7 EB5C0000 		.4byte	0x5ceb
 12880 5ceb 09       		.uleb128 0x9
 12881 5cec C13A0000 		.4byte	0x3ac1
 12882 5cf0 56       		.uleb128 0x56
 12883 5cf1 BA200000 		.4byte	.LASF1025
 12884 5cf5 10       		.byte	0x10
 12885 5cf6 7C02     		.2byte	0x27c
 12886 5cf8 FC5C0000 		.4byte	0x5cfc
 12887 5cfc 09       		.uleb128 0x9
 12888 5cfd 3B370000 		.4byte	0x373b
 12889 5d01 56       		.uleb128 0x56
 12890 5d02 9E1F0000 		.4byte	.LASF1026
 12891 5d06 10       		.byte	0x10
 12892 5d07 7D02     		.2byte	0x27d
 12893 5d09 0D5D0000 		.4byte	0x5d0d
 12894 5d0d 09       		.uleb128 0x9
 12895 5d0e 013D0000 		.4byte	0x3d01
 12896 5d12 56       		.uleb128 0x56
 12897 5d13 45340000 		.4byte	.LASF1027
 12898 5d17 10       		.byte	0x10
 12899 5d18 7E02     		.2byte	0x27e
 12900 5d1a 1E5D0000 		.4byte	0x5d1e
 12901 5d1e 09       		.uleb128 0x9
 12902 5d1f CB3E0000 		.4byte	0x3ecb
ARM GAS  C:\Users\jrdia\AppData\Local\Temp\ccFTvYyK.s 			page 258


 12903 5d23 56       		.uleb128 0x56
 12904 5d24 65290000 		.4byte	.LASF1028
 12905 5d28 10       		.byte	0x10
 12906 5d29 7F02     		.2byte	0x27f
 12907 5d2b 2F5D0000 		.4byte	0x5d2f
 12908 5d2f 09       		.uleb128 0x9
 12909 5d30 3B370000 		.4byte	0x373b
 12910 5d34 56       		.uleb128 0x56
 12911 5d35 8B000000 		.4byte	.LASF1029
 12912 5d39 10       		.byte	0x10
 12913 5d3a 8002     		.2byte	0x280
 12914 5d3c 405D0000 		.4byte	0x5d40
 12915 5d40 09       		.uleb128 0x9
 12916 5d41 41360000 		.4byte	0x3641
 12917 5d45 56       		.uleb128 0x56
 12918 5d46 C2140000 		.4byte	.LASF1030
 12919 5d4a 10       		.byte	0x10
 12920 5d4b 8102     		.2byte	0x281
 12921 5d4d 515D0000 		.4byte	0x5d51
 12922 5d51 09       		.uleb128 0x9
 12923 5d52 C13A0000 		.4byte	0x3ac1
 12924 5d56 56       		.uleb128 0x56
 12925 5d57 352A0000 		.4byte	.LASF1031
 12926 5d5b 10       		.byte	0x10
 12927 5d5c 8202     		.2byte	0x282
 12928 5d5e 625D0000 		.4byte	0x5d62
 12929 5d62 09       		.uleb128 0x9
 12930 5d63 94360000 		.4byte	0x3694
 12931 5d67 56       		.uleb128 0x56
 12932 5d68 905C0000 		.4byte	.LASF1032
 12933 5d6c 10       		.byte	0x10
 12934 5d6d 8302     		.2byte	0x283
 12935 5d6f 735D0000 		.4byte	0x5d73
 12936 5d73 09       		.uleb128 0x9
 12937 5d74 B5360000 		.4byte	0x36b5
 12938 5d78 56       		.uleb128 0x56
 12939 5d79 46570000 		.4byte	.LASF1033
 12940 5d7d 10       		.byte	0x10
 12941 5d7e 8402     		.2byte	0x284
 12942 5d80 845D0000 		.4byte	0x5d84
 12943 5d84 09       		.uleb128 0x9
 12944 5d85 EE350000 		.4byte	0x35ee
 12945 5d89 56       		.uleb128 0x56
 12946 5d8a 2F3B0000 		.4byte	.LASF1034
 12947 5d8e 10       		.byte	0x10
 12948 5d8f 8502     		.2byte	0x285
 12949 5d91 955D0000 		.4byte	0x5d95
 12950 5d95 09       		.uleb128 0x9
 12951 5d96 B5360000 		.4byte	0x36b5
 12952 5d9a 56       		.uleb128 0x56
 12953 5d9b 2D4D0000 		.4byte	.LASF1035
 12954 5d9f 10       		.byte	0x10
 12955 5da0 8602     		.2byte	0x286
 12956 5da2 A65D0000 		.4byte	0x5da6
 12957 5da6 09       		.uleb128 0x9
 12958 5da7 94360000 		.4byte	0x3694
 12959 5dab 56       		.uleb128 0x56
ARM GAS  C:\Users\jrdia\AppData\Local\Temp\ccFTvYyK.s 			page 259


 12960 5dac 680B0000 		.4byte	.LASF1036
 12961 5db0 10       		.byte	0x10
 12962 5db1 8702     		.2byte	0x287
 12963 5db3 B75D0000 		.4byte	0x5db7
 12964 5db7 09       		.uleb128 0x9
 12965 5db8 94360000 		.4byte	0x3694
 12966 5dbc 56       		.uleb128 0x56
 12967 5dbd 43410000 		.4byte	.LASF1037
 12968 5dc1 10       		.byte	0x10
 12969 5dc2 8802     		.2byte	0x288
 12970 5dc4 C85D0000 		.4byte	0x5dc8
 12971 5dc8 09       		.uleb128 0x9
 12972 5dc9 B5360000 		.4byte	0x36b5
 12973 5dcd 56       		.uleb128 0x56
 12974 5dce F00D0000 		.4byte	.LASF1038
 12975 5dd2 10       		.byte	0x10
 12976 5dd3 8902     		.2byte	0x289
 12977 5dd5 D95D0000 		.4byte	0x5dd9
 12978 5dd9 09       		.uleb128 0x9
 12979 5dda EE350000 		.4byte	0x35ee
 12980 5dde 56       		.uleb128 0x56
 12981 5ddf A6190000 		.4byte	.LASF1039
 12982 5de3 10       		.byte	0x10
 12983 5de4 8A02     		.2byte	0x28a
 12984 5de6 EA5D0000 		.4byte	0x5dea
 12985 5dea 09       		.uleb128 0x9
 12986 5deb B5360000 		.4byte	0x36b5
 12987 5def 56       		.uleb128 0x56
 12988 5df0 B4390000 		.4byte	.LASF1040
 12989 5df4 10       		.byte	0x10
 12990 5df5 8B02     		.2byte	0x28b
 12991 5df7 FB5D0000 		.4byte	0x5dfb
 12992 5dfb 09       		.uleb128 0x9
 12993 5dfc B5360000 		.4byte	0x36b5
 12994 5e00 56       		.uleb128 0x56
 12995 5e01 4F110000 		.4byte	.LASF1041
 12996 5e05 10       		.byte	0x10
 12997 5e06 8C02     		.2byte	0x28c
 12998 5e08 0C5E0000 		.4byte	0x5e0c
 12999 5e0c 09       		.uleb128 0x9
 13000 5e0d B5360000 		.4byte	0x36b5
 13001 5e11 56       		.uleb128 0x56
 13002 5e12 AA240000 		.4byte	.LASF1042
 13003 5e16 10       		.byte	0x10
 13004 5e17 8D02     		.2byte	0x28d
 13005 5e19 1D5E0000 		.4byte	0x5e1d
 13006 5e1d 09       		.uleb128 0x9
 13007 5e1e 94360000 		.4byte	0x3694
 13008 5e22 56       		.uleb128 0x56
 13009 5e23 4B280000 		.4byte	.LASF1043
 13010 5e27 10       		.byte	0x10
 13011 5e28 8E02     		.2byte	0x28e
 13012 5e2a 2E5E0000 		.4byte	0x5e2e
 13013 5e2e 09       		.uleb128 0x9
 13014 5e2f EE350000 		.4byte	0x35ee
 13015 5e33 56       		.uleb128 0x56
 13016 5e34 00000000 		.4byte	.LASF1044
ARM GAS  C:\Users\jrdia\AppData\Local\Temp\ccFTvYyK.s 			page 260


 13017 5e38 10       		.byte	0x10
 13018 5e39 8F02     		.2byte	0x28f
 13019 5e3b 3F5E0000 		.4byte	0x5e3f
 13020 5e3f 09       		.uleb128 0x9
 13021 5e40 CD350000 		.4byte	0x35cd
 13022 5e44 56       		.uleb128 0x56
 13023 5e45 D2670000 		.4byte	.LASF1045
 13024 5e49 10       		.byte	0x10
 13025 5e4a 9002     		.2byte	0x290
 13026 5e4c 505E0000 		.4byte	0x5e50
 13027 5e50 09       		.uleb128 0x9
 13028 5e51 B5360000 		.4byte	0x36b5
 13029 5e55 56       		.uleb128 0x56
 13030 5e56 C9580000 		.4byte	.LASF1046
 13031 5e5a 10       		.byte	0x10
 13032 5e5b 9102     		.2byte	0x291
 13033 5e5d 615E0000 		.4byte	0x5e61
 13034 5e61 09       		.uleb128 0x9
 13035 5e62 8D380000 		.4byte	0x388d
 13036 5e66 56       		.uleb128 0x56
 13037 5e67 47260000 		.4byte	.LASF1047
 13038 5e6b 10       		.byte	0x10
 13039 5e6c 9202     		.2byte	0x292
 13040 5e6e 725E0000 		.4byte	0x5e72
 13041 5e72 09       		.uleb128 0x9
 13042 5e73 F8360000 		.4byte	0x36f8
 13043 5e77 56       		.uleb128 0x56
 13044 5e78 C1100000 		.4byte	.LASF1048
 13045 5e7c 10       		.byte	0x10
 13046 5e7d 9302     		.2byte	0x293
 13047 5e7f 835E0000 		.4byte	0x5e83
 13048 5e83 09       		.uleb128 0x9
 13049 5e84 B5360000 		.4byte	0x36b5
 13050 5e88 56       		.uleb128 0x56
 13051 5e89 5D360000 		.4byte	.LASF1049
 13052 5e8d 10       		.byte	0x10
 13053 5e8e 9402     		.2byte	0x294
 13054 5e90 945E0000 		.4byte	0x5e94
 13055 5e94 09       		.uleb128 0x9
 13056 5e95 B5360000 		.4byte	0x36b5
 13057 5e99 56       		.uleb128 0x56
 13058 5e9a 7C0B0000 		.4byte	.LASF1050
 13059 5e9e 10       		.byte	0x10
 13060 5e9f 9502     		.2byte	0x295
 13061 5ea1 A55E0000 		.4byte	0x5ea5
 13062 5ea5 09       		.uleb128 0x9
 13063 5ea6 B5360000 		.4byte	0x36b5
 13064 5eaa 56       		.uleb128 0x56
 13065 5eab 065F0000 		.4byte	.LASF1051
 13066 5eaf 10       		.byte	0x10
 13067 5eb0 9602     		.2byte	0x296
 13068 5eb2 B65E0000 		.4byte	0x5eb6
 13069 5eb6 09       		.uleb128 0x9
 13070 5eb7 94360000 		.4byte	0x3694
 13071 5ebb 56       		.uleb128 0x56
 13072 5ebc 9A240000 		.4byte	.LASF1052
 13073 5ec0 10       		.byte	0x10
ARM GAS  C:\Users\jrdia\AppData\Local\Temp\ccFTvYyK.s 			page 261


 13074 5ec1 9702     		.2byte	0x297
 13075 5ec3 C75E0000 		.4byte	0x5ec7
 13076 5ec7 09       		.uleb128 0x9
 13077 5ec8 B5360000 		.4byte	0x36b5
 13078 5ecc 56       		.uleb128 0x56
 13079 5ecd 80370000 		.4byte	.LASF1053
 13080 5ed1 10       		.byte	0x10
 13081 5ed2 9802     		.2byte	0x298
 13082 5ed4 D85E0000 		.4byte	0x5ed8
 13083 5ed8 09       		.uleb128 0x9
 13084 5ed9 CD350000 		.4byte	0x35cd
 13085 5edd 56       		.uleb128 0x56
 13086 5ede B55F0000 		.4byte	.LASF1054
 13087 5ee2 10       		.byte	0x10
 13088 5ee3 9902     		.2byte	0x299
 13089 5ee5 E95E0000 		.4byte	0x5ee9
 13090 5ee9 09       		.uleb128 0x9
 13091 5eea 7E3A0000 		.4byte	0x3a7e
 13092 5eee 56       		.uleb128 0x56
 13093 5eef 50520000 		.4byte	.LASF1055
 13094 5ef3 10       		.byte	0x10
 13095 5ef4 9A02     		.2byte	0x29a
 13096 5ef6 FA5E0000 		.4byte	0x5efa
 13097 5efa 09       		.uleb128 0x9
 13098 5efb 7E3A0000 		.4byte	0x3a7e
 13099 5eff 56       		.uleb128 0x56
 13100 5f00 8A4F0000 		.4byte	.LASF1056
 13101 5f04 10       		.byte	0x10
 13102 5f05 9B02     		.2byte	0x29b
 13103 5f07 0B5F0000 		.4byte	0x5f0b
 13104 5f0b 09       		.uleb128 0x9
 13105 5f0c CD350000 		.4byte	0x35cd
 13106 5f10 56       		.uleb128 0x56
 13107 5f11 3D510000 		.4byte	.LASF1057
 13108 5f15 10       		.byte	0x10
 13109 5f16 9C02     		.2byte	0x29c
 13110 5f18 1C5F0000 		.4byte	0x5f1c
 13111 5f1c 09       		.uleb128 0x9
 13112 5f1d B5360000 		.4byte	0x36b5
 13113 5f21 56       		.uleb128 0x56
 13114 5f22 161E0000 		.4byte	.LASF1058
 13115 5f26 10       		.byte	0x10
 13116 5f27 9D02     		.2byte	0x29d
 13117 5f29 2D5F0000 		.4byte	0x5f2d
 13118 5f2d 09       		.uleb128 0x9
 13119 5f2e F8360000 		.4byte	0x36f8
 13120 5f32 56       		.uleb128 0x56
 13121 5f33 990D0000 		.4byte	.LASF1059
 13122 5f37 10       		.byte	0x10
 13123 5f38 9E02     		.2byte	0x29e
 13124 5f3a 3E5F0000 		.4byte	0x5f3e
 13125 5f3e 09       		.uleb128 0x9
 13126 5f3f CD350000 		.4byte	0x35cd
 13127 5f43 56       		.uleb128 0x56
 13128 5f44 2D100000 		.4byte	.LASF1060
 13129 5f48 10       		.byte	0x10
 13130 5f49 9F02     		.2byte	0x29f
ARM GAS  C:\Users\jrdia\AppData\Local\Temp\ccFTvYyK.s 			page 262


 13131 5f4b 4F5F0000 		.4byte	0x5f4f
 13132 5f4f 09       		.uleb128 0x9
 13133 5f50 0F360000 		.4byte	0x360f
 13134 5f54 56       		.uleb128 0x56
 13135 5f55 FB180000 		.4byte	.LASF1061
 13136 5f59 10       		.byte	0x10
 13137 5f5a A002     		.2byte	0x2a0
 13138 5f5c 605F0000 		.4byte	0x5f60
 13139 5f60 09       		.uleb128 0x9
 13140 5f61 B5360000 		.4byte	0x36b5
 13141 5f65 56       		.uleb128 0x56
 13142 5f66 38610000 		.4byte	.LASF1062
 13143 5f6a 10       		.byte	0x10
 13144 5f6b A102     		.2byte	0x2a1
 13145 5f6d 715F0000 		.4byte	0x5f71
 13146 5f71 09       		.uleb128 0x9
 13147 5f72 0F360000 		.4byte	0x360f
 13148 5f76 56       		.uleb128 0x56
 13149 5f77 F73C0000 		.4byte	.LASF1063
 13150 5f7b 10       		.byte	0x10
 13151 5f7c A202     		.2byte	0x2a2
 13152 5f7e 825F0000 		.4byte	0x5f82
 13153 5f82 09       		.uleb128 0x9
 13154 5f83 7E3A0000 		.4byte	0x3a7e
 13155 5f87 56       		.uleb128 0x56
 13156 5f88 A3300000 		.4byte	.LASF1064
 13157 5f8c 10       		.byte	0x10
 13158 5f8d A302     		.2byte	0x2a3
 13159 5f8f 935F0000 		.4byte	0x5f93
 13160 5f93 09       		.uleb128 0x9
 13161 5f94 0F360000 		.4byte	0x360f
 13162 5f98 56       		.uleb128 0x56
 13163 5f99 435B0000 		.4byte	.LASF1065
 13164 5f9d 10       		.byte	0x10
 13165 5f9e A402     		.2byte	0x2a4
 13166 5fa0 A45F0000 		.4byte	0x5fa4
 13167 5fa4 09       		.uleb128 0x9
 13168 5fa5 7E3A0000 		.4byte	0x3a7e
 13169 5fa9 56       		.uleb128 0x56
 13170 5faa 6C160000 		.4byte	.LASF1066
 13171 5fae 10       		.byte	0x10
 13172 5faf A502     		.2byte	0x2a5
 13173 5fb1 B55F0000 		.4byte	0x5fb5
 13174 5fb5 09       		.uleb128 0x9
 13175 5fb6 3B370000 		.4byte	0x373b
 13176 5fba 56       		.uleb128 0x56
 13177 5fbb E3520000 		.4byte	.LASF1067
 13178 5fbf 10       		.byte	0x10
 13179 5fc0 A602     		.2byte	0x2a6
 13180 5fc2 C65F0000 		.4byte	0x5fc6
 13181 5fc6 09       		.uleb128 0x9
 13182 5fc7 F8360000 		.4byte	0x36f8
 13183 5fcb 56       		.uleb128 0x56
 13184 5fcc 47490000 		.4byte	.LASF1068
 13185 5fd0 10       		.byte	0x10
 13186 5fd1 A702     		.2byte	0x2a7
 13187 5fd3 D75F0000 		.4byte	0x5fd7
ARM GAS  C:\Users\jrdia\AppData\Local\Temp\ccFTvYyK.s 			page 263


 13188 5fd7 09       		.uleb128 0x9
 13189 5fd8 0F360000 		.4byte	0x360f
 13190 5fdc 56       		.uleb128 0x56
 13191 5fdd 1C5A0000 		.4byte	.LASF1069
 13192 5fe1 10       		.byte	0x10
 13193 5fe2 A802     		.2byte	0x2a8
 13194 5fe4 E85F0000 		.4byte	0x5fe8
 13195 5fe8 09       		.uleb128 0x9
 13196 5fe9 7E3A0000 		.4byte	0x3a7e
 13197 5fed 56       		.uleb128 0x56
 13198 5fee 401D0000 		.4byte	.LASF1070
 13199 5ff2 10       		.byte	0x10
 13200 5ff3 A902     		.2byte	0x2a9
 13201 5ff5 F95F0000 		.4byte	0x5ff9
 13202 5ff9 09       		.uleb128 0x9
 13203 5ffa 94360000 		.4byte	0x3694
 13204 5ffe 56       		.uleb128 0x56
 13205 5fff 2F160000 		.4byte	.LASF1071
 13206 6003 10       		.byte	0x10
 13207 6004 AA02     		.2byte	0x2aa
 13208 6006 0A600000 		.4byte	0x600a
 13209 600a 09       		.uleb128 0x9
 13210 600b CD350000 		.4byte	0x35cd
 13211 600f 56       		.uleb128 0x56
 13212 6010 D6600000 		.4byte	.LASF1072
 13213 6014 10       		.byte	0x10
 13214 6015 AB02     		.2byte	0x2ab
 13215 6017 1B600000 		.4byte	0x601b
 13216 601b 09       		.uleb128 0x9
 13217 601c 41360000 		.4byte	0x3641
 13218 6020 56       		.uleb128 0x56
 13219 6021 66210000 		.4byte	.LASF1073
 13220 6025 10       		.byte	0x10
 13221 6026 AC02     		.2byte	0x2ac
 13222 6028 2C600000 		.4byte	0x602c
 13223 602c 09       		.uleb128 0x9
 13224 602d 7E3A0000 		.4byte	0x3a7e
 13225 6031 56       		.uleb128 0x56
 13226 6032 880F0000 		.4byte	.LASF1074
 13227 6036 10       		.byte	0x10
 13228 6037 AD02     		.2byte	0x2ad
 13229 6039 3D600000 		.4byte	0x603d
 13230 603d 09       		.uleb128 0x9
 13231 603e B5360000 		.4byte	0x36b5
 13232 6042 56       		.uleb128 0x56
 13233 6043 3E480000 		.4byte	.LASF1075
 13234 6047 10       		.byte	0x10
 13235 6048 AE02     		.2byte	0x2ae
 13236 604a 4E600000 		.4byte	0x604e
 13237 604e 09       		.uleb128 0x9
 13238 604f B5360000 		.4byte	0x36b5
 13239 6053 56       		.uleb128 0x56
 13240 6054 84400000 		.4byte	.LASF1076
 13241 6058 10       		.byte	0x10
 13242 6059 AF02     		.2byte	0x2af
 13243 605b 5F600000 		.4byte	0x605f
 13244 605f 09       		.uleb128 0x9
ARM GAS  C:\Users\jrdia\AppData\Local\Temp\ccFTvYyK.s 			page 264


 13245 6060 B5360000 		.4byte	0x36b5
 13246 6064 56       		.uleb128 0x56
 13247 6065 7B1A0000 		.4byte	.LASF1077
 13248 6069 10       		.byte	0x10
 13249 606a B002     		.2byte	0x2b0
 13250 606c 70600000 		.4byte	0x6070
 13251 6070 09       		.uleb128 0x9
 13252 6071 B5360000 		.4byte	0x36b5
 13253 6075 56       		.uleb128 0x56
 13254 6076 C1480000 		.4byte	.LASF1078
 13255 607a 10       		.byte	0x10
 13256 607b B102     		.2byte	0x2b1
 13257 607d 81600000 		.4byte	0x6081
 13258 6081 09       		.uleb128 0x9
 13259 6082 EE350000 		.4byte	0x35ee
 13260 6086 56       		.uleb128 0x56
 13261 6087 5F110000 		.4byte	.LASF1079
 13262 608b 10       		.byte	0x10
 13263 608c B202     		.2byte	0x2b2
 13264 608e 92600000 		.4byte	0x6092
 13265 6092 09       		.uleb128 0x9
 13266 6093 F8360000 		.4byte	0x36f8
 13267 6097 56       		.uleb128 0x56
 13268 6098 8E420000 		.4byte	.LASF1080
 13269 609c 10       		.byte	0x10
 13270 609d B302     		.2byte	0x2b3
 13271 609f A3600000 		.4byte	0x60a3
 13272 60a3 09       		.uleb128 0x9
 13273 60a4 94360000 		.4byte	0x3694
 13274 60a8 56       		.uleb128 0x56
 13275 60a9 71630000 		.4byte	.LASF1081
 13276 60ad 10       		.byte	0x10
 13277 60ae B402     		.2byte	0x2b4
 13278 60b0 B4600000 		.4byte	0x60b4
 13279 60b4 09       		.uleb128 0x9
 13280 60b5 EE350000 		.4byte	0x35ee
 13281 60b9 56       		.uleb128 0x56
 13282 60ba D3620000 		.4byte	.LASF1082
 13283 60be 10       		.byte	0x10
 13284 60bf B502     		.2byte	0x2b5
 13285 60c1 C5600000 		.4byte	0x60c5
 13286 60c5 09       		.uleb128 0x9
 13287 60c6 0F360000 		.4byte	0x360f
 13288 60ca 56       		.uleb128 0x56
 13289 60cb 571F0000 		.4byte	.LASF1083
 13290 60cf 10       		.byte	0x10
 13291 60d0 B602     		.2byte	0x2b6
 13292 60d2 D6600000 		.4byte	0x60d6
 13293 60d6 09       		.uleb128 0x9
 13294 60d7 F8360000 		.4byte	0x36f8
 13295 60db 56       		.uleb128 0x56
 13296 60dc 5F3A0000 		.4byte	.LASF1084
 13297 60e0 10       		.byte	0x10
 13298 60e1 B702     		.2byte	0x2b7
 13299 60e3 E7600000 		.4byte	0x60e7
 13300 60e7 09       		.uleb128 0x9
 13301 60e8 F8360000 		.4byte	0x36f8
ARM GAS  C:\Users\jrdia\AppData\Local\Temp\ccFTvYyK.s 			page 265


 13302 60ec 56       		.uleb128 0x56
 13303 60ed 0D570000 		.4byte	.LASF1085
 13304 60f1 10       		.byte	0x10
 13305 60f2 B802     		.2byte	0x2b8
 13306 60f4 F8600000 		.4byte	0x60f8
 13307 60f8 09       		.uleb128 0x9
 13308 60f9 EE350000 		.4byte	0x35ee
 13309 60fd 56       		.uleb128 0x56
 13310 60fe CE300000 		.4byte	.LASF1086
 13311 6102 10       		.byte	0x10
 13312 6103 B902     		.2byte	0x2b9
 13313 6105 09610000 		.4byte	0x6109
 13314 6109 09       		.uleb128 0x9
 13315 610a EE350000 		.4byte	0x35ee
 13316 610e 56       		.uleb128 0x56
 13317 610f BC560000 		.4byte	.LASF1087
 13318 6113 10       		.byte	0x10
 13319 6114 BA02     		.2byte	0x2ba
 13320 6116 1A610000 		.4byte	0x611a
 13321 611a 09       		.uleb128 0x9
 13322 611b EE350000 		.4byte	0x35ee
 13323 611f 56       		.uleb128 0x56
 13324 6120 C25D0000 		.4byte	.LASF1088
 13325 6124 10       		.byte	0x10
 13326 6125 BB02     		.2byte	0x2bb
 13327 6127 2B610000 		.4byte	0x612b
 13328 612b 09       		.uleb128 0x9
 13329 612c EE350000 		.4byte	0x35ee
 13330 6130 56       		.uleb128 0x56
 13331 6131 BC670000 		.4byte	.LASF1089
 13332 6135 10       		.byte	0x10
 13333 6136 BC02     		.2byte	0x2bc
 13334 6138 3C610000 		.4byte	0x613c
 13335 613c 09       		.uleb128 0x9
 13336 613d CD350000 		.4byte	0x35cd
 13337 6141 56       		.uleb128 0x56
 13338 6142 74550000 		.4byte	.LASF1090
 13339 6146 10       		.byte	0x10
 13340 6147 BD02     		.2byte	0x2bd
 13341 6149 4D610000 		.4byte	0x614d
 13342 614d 09       		.uleb128 0x9
 13343 614e CD350000 		.4byte	0x35cd
 13344 6152 56       		.uleb128 0x56
 13345 6153 9C680000 		.4byte	.LASF1091
 13346 6157 10       		.byte	0x10
 13347 6158 BE02     		.2byte	0x2be
 13348 615a 5E610000 		.4byte	0x615e
 13349 615e 09       		.uleb128 0x9
 13350 615f 0F360000 		.4byte	0x360f
 13351 6163 56       		.uleb128 0x56
 13352 6164 6C660000 		.4byte	.LASF1092
 13353 6168 10       		.byte	0x10
 13354 6169 BF02     		.2byte	0x2bf
 13355 616b 6F610000 		.4byte	0x616f
 13356 616f 09       		.uleb128 0x9
 13357 6170 7E3A0000 		.4byte	0x3a7e
 13358 6174 56       		.uleb128 0x56
ARM GAS  C:\Users\jrdia\AppData\Local\Temp\ccFTvYyK.s 			page 266


 13359 6175 BB610000 		.4byte	.LASF1093
 13360 6179 10       		.byte	0x10
 13361 617a C002     		.2byte	0x2c0
 13362 617c 80610000 		.4byte	0x6180
 13363 6180 09       		.uleb128 0x9
 13364 6181 3B370000 		.4byte	0x373b
 13365 6185 56       		.uleb128 0x56
 13366 6186 15270000 		.4byte	.LASF1094
 13367 618a 10       		.byte	0x10
 13368 618b C102     		.2byte	0x2c1
 13369 618d 91610000 		.4byte	0x6191
 13370 6191 09       		.uleb128 0x9
 13371 6192 41360000 		.4byte	0x3641
 13372 6196 56       		.uleb128 0x56
 13373 6197 06220000 		.4byte	.LASF1095
 13374 619b 10       		.byte	0x10
 13375 619c C202     		.2byte	0x2c2
 13376 619e A2610000 		.4byte	0x61a2
 13377 61a2 09       		.uleb128 0x9
 13378 61a3 8D380000 		.4byte	0x388d
 13379 61a7 56       		.uleb128 0x56
 13380 61a8 30540000 		.4byte	.LASF1096
 13381 61ac 10       		.byte	0x10
 13382 61ad C302     		.2byte	0x2c3
 13383 61af B3610000 		.4byte	0x61b3
 13384 61b3 09       		.uleb128 0x9
 13385 61b4 0F360000 		.4byte	0x360f
 13386 61b8 56       		.uleb128 0x56
 13387 61b9 A93F0000 		.4byte	.LASF1097
 13388 61bd 10       		.byte	0x10
 13389 61be C402     		.2byte	0x2c4
 13390 61c0 C4610000 		.4byte	0x61c4
 13391 61c4 09       		.uleb128 0x9
 13392 61c5 3B370000 		.4byte	0x373b
 13393 61c9 56       		.uleb128 0x56
 13394 61ca EF2B0000 		.4byte	.LASF1098
 13395 61ce 10       		.byte	0x10
 13396 61cf C502     		.2byte	0x2c5
 13397 61d1 D5610000 		.4byte	0x61d5
 13398 61d5 09       		.uleb128 0x9
 13399 61d6 0F360000 		.4byte	0x360f
 13400 61da 56       		.uleb128 0x56
 13401 61db 94200000 		.4byte	.LASF1099
 13402 61df 10       		.byte	0x10
 13403 61e0 C602     		.2byte	0x2c6
 13404 61e2 E6610000 		.4byte	0x61e6
 13405 61e6 09       		.uleb128 0x9
 13406 61e7 8D380000 		.4byte	0x388d
 13407 61eb 56       		.uleb128 0x56
 13408 61ec 9B400000 		.4byte	.LASF1100
 13409 61f0 10       		.byte	0x10
 13410 61f1 C702     		.2byte	0x2c7
 13411 61f3 F7610000 		.4byte	0x61f7
 13412 61f7 09       		.uleb128 0x9
 13413 61f8 41360000 		.4byte	0x3641
 13414 61fc 56       		.uleb128 0x56
 13415 61fd 1E080000 		.4byte	.LASF1101
ARM GAS  C:\Users\jrdia\AppData\Local\Temp\ccFTvYyK.s 			page 267


 13416 6201 10       		.byte	0x10
 13417 6202 C802     		.2byte	0x2c8
 13418 6204 08620000 		.4byte	0x6208
 13419 6208 09       		.uleb128 0x9
 13420 6209 41360000 		.4byte	0x3641
 13421 620d 56       		.uleb128 0x56
 13422 620e A0040000 		.4byte	.LASF1102
 13423 6212 10       		.byte	0x10
 13424 6213 C902     		.2byte	0x2c9
 13425 6215 19620000 		.4byte	0x6219
 13426 6219 09       		.uleb128 0x9
 13427 621a 0F360000 		.4byte	0x360f
 13428 621e 56       		.uleb128 0x56
 13429 621f E5150000 		.4byte	.LASF1103
 13430 6223 10       		.byte	0x10
 13431 6224 CA02     		.2byte	0x2ca
 13432 6226 2A620000 		.4byte	0x622a
 13433 622a 09       		.uleb128 0x9
 13434 622b CD350000 		.4byte	0x35cd
 13435 622f 56       		.uleb128 0x56
 13436 6230 5C100000 		.4byte	.LASF1104
 13437 6234 10       		.byte	0x10
 13438 6235 CB02     		.2byte	0x2cb
 13439 6237 3B620000 		.4byte	0x623b
 13440 623b 09       		.uleb128 0x9
 13441 623c 0F360000 		.4byte	0x360f
 13442 6240 56       		.uleb128 0x56
 13443 6241 8D040000 		.4byte	.LASF1105
 13444 6245 10       		.byte	0x10
 13445 6246 CC02     		.2byte	0x2cc
 13446 6248 4C620000 		.4byte	0x624c
 13447 624c 09       		.uleb128 0x9
 13448 624d CD350000 		.4byte	0x35cd
 13449 6251 56       		.uleb128 0x56
 13450 6252 CC3E0000 		.4byte	.LASF1106
 13451 6256 10       		.byte	0x10
 13452 6257 CD02     		.2byte	0x2cd
 13453 6259 5D620000 		.4byte	0x625d
 13454 625d 09       		.uleb128 0x9
 13455 625e F8360000 		.4byte	0x36f8
 13456 6262 56       		.uleb128 0x56
 13457 6263 93370000 		.4byte	.LASF1107
 13458 6267 10       		.byte	0x10
 13459 6268 CE02     		.2byte	0x2ce
 13460 626a 6E620000 		.4byte	0x626e
 13461 626e 09       		.uleb128 0x9
 13462 626f 94360000 		.4byte	0x3694
 13463 6273 56       		.uleb128 0x56
 13464 6274 6F1F0000 		.4byte	.LASF1108
 13465 6278 10       		.byte	0x10
 13466 6279 CF02     		.2byte	0x2cf
 13467 627b 7F620000 		.4byte	0x627f
 13468 627f 09       		.uleb128 0x9
 13469 6280 8B350000 		.4byte	0x358b
 13470 6284 56       		.uleb128 0x56
 13471 6285 B23D0000 		.4byte	.LASF1109
 13472 6289 10       		.byte	0x10
ARM GAS  C:\Users\jrdia\AppData\Local\Temp\ccFTvYyK.s 			page 268


 13473 628a D002     		.2byte	0x2d0
 13474 628c 90620000 		.4byte	0x6290
 13475 6290 09       		.uleb128 0x9
 13476 6291 F8360000 		.4byte	0x36f8
 13477 6295 56       		.uleb128 0x56
 13478 6296 53210000 		.4byte	.LASF1110
 13479 629a 10       		.byte	0x10
 13480 629b D102     		.2byte	0x2d1
 13481 629d A1620000 		.4byte	0x62a1
 13482 62a1 09       		.uleb128 0x9
 13483 62a2 B5360000 		.4byte	0x36b5
 13484 62a6 56       		.uleb128 0x56
 13485 62a7 445F0000 		.4byte	.LASF1111
 13486 62ab 10       		.byte	0x10
 13487 62ac D202     		.2byte	0x2d2
 13488 62ae B2620000 		.4byte	0x62b2
 13489 62b2 09       		.uleb128 0x9
 13490 62b3 94360000 		.4byte	0x3694
 13491 62b7 56       		.uleb128 0x56
 13492 62b8 77120000 		.4byte	.LASF1112
 13493 62bc 10       		.byte	0x10
 13494 62bd D302     		.2byte	0x2d3
 13495 62bf C3620000 		.4byte	0x62c3
 13496 62c3 09       		.uleb128 0x9
 13497 62c4 0F360000 		.4byte	0x360f
 13498 62c8 56       		.uleb128 0x56
 13499 62c9 1B370000 		.4byte	.LASF1113
 13500 62cd 10       		.byte	0x10
 13501 62ce D402     		.2byte	0x2d4
 13502 62d0 D4620000 		.4byte	0x62d4
 13503 62d4 09       		.uleb128 0x9
 13504 62d5 B5360000 		.4byte	0x36b5
 13505 62d9 56       		.uleb128 0x56
 13506 62da D7310000 		.4byte	.LASF1114
 13507 62de 10       		.byte	0x10
 13508 62df D502     		.2byte	0x2d5
 13509 62e1 E5620000 		.4byte	0x62e5
 13510 62e5 09       		.uleb128 0x9
 13511 62e6 7E3A0000 		.4byte	0x3a7e
 13512 62ea 56       		.uleb128 0x56
 13513 62eb 73310000 		.4byte	.LASF1115
 13514 62ef 10       		.byte	0x10
 13515 62f0 D602     		.2byte	0x2d6
 13516 62f2 F6620000 		.4byte	0x62f6
 13517 62f6 09       		.uleb128 0x9
 13518 62f7 0F360000 		.4byte	0x360f
 13519 62fb 56       		.uleb128 0x56
 13520 62fc 9D390000 		.4byte	.LASF1116
 13521 6300 10       		.byte	0x10
 13522 6301 D702     		.2byte	0x2d7
 13523 6303 07630000 		.4byte	0x6307
 13524 6307 09       		.uleb128 0x9
 13525 6308 8D380000 		.4byte	0x388d
 13526 630c 56       		.uleb128 0x56
 13527 630d 30230000 		.4byte	.LASF1117
 13528 6311 10       		.byte	0x10
 13529 6312 D802     		.2byte	0x2d8
ARM GAS  C:\Users\jrdia\AppData\Local\Temp\ccFTvYyK.s 			page 269


 13530 6314 18630000 		.4byte	0x6318
 13531 6318 09       		.uleb128 0x9
 13532 6319 7E3A0000 		.4byte	0x3a7e
 13533 631d 56       		.uleb128 0x56
 13534 631e 49050000 		.4byte	.LASF1118
 13535 6322 10       		.byte	0x10
 13536 6323 D902     		.2byte	0x2d9
 13537 6325 29630000 		.4byte	0x6329
 13538 6329 09       		.uleb128 0x9
 13539 632a 41360000 		.4byte	0x3641
 13540 632e 56       		.uleb128 0x56
 13541 632f EA090000 		.4byte	.LASF1119
 13542 6333 10       		.byte	0x10
 13543 6334 DA02     		.2byte	0x2da
 13544 6336 3A630000 		.4byte	0x633a
 13545 633a 09       		.uleb128 0x9
 13546 633b 0F360000 		.4byte	0x360f
 13547 633f 56       		.uleb128 0x56
 13548 6340 A8600000 		.4byte	.LASF1120
 13549 6344 10       		.byte	0x10
 13550 6345 DB02     		.2byte	0x2db
 13551 6347 4B630000 		.4byte	0x634b
 13552 634b 09       		.uleb128 0x9
 13553 634c 94360000 		.4byte	0x3694
 13554 6350 56       		.uleb128 0x56
 13555 6351 E01E0000 		.4byte	.LASF1121
 13556 6355 10       		.byte	0x10
 13557 6356 DC02     		.2byte	0x2dc
 13558 6358 5C630000 		.4byte	0x635c
 13559 635c 09       		.uleb128 0x9
 13560 635d B5360000 		.4byte	0x36b5
 13561 6361 56       		.uleb128 0x56
 13562 6362 E92C0000 		.4byte	.LASF1122
 13563 6366 10       		.byte	0x10
 13564 6367 DD02     		.2byte	0x2dd
 13565 6369 6D630000 		.4byte	0x636d
 13566 636d 09       		.uleb128 0x9
 13567 636e F8360000 		.4byte	0x36f8
 13568 6372 56       		.uleb128 0x56
 13569 6373 E0130000 		.4byte	.LASF1123
 13570 6377 10       		.byte	0x10
 13571 6378 DE02     		.2byte	0x2de
 13572 637a 7E630000 		.4byte	0x637e
 13573 637e 09       		.uleb128 0x9
 13574 637f B5360000 		.4byte	0x36b5
 13575 6383 56       		.uleb128 0x56
 13576 6384 2E3F0000 		.4byte	.LASF1124
 13577 6388 10       		.byte	0x10
 13578 6389 DF02     		.2byte	0x2df
 13579 638b 8F630000 		.4byte	0x638f
 13580 638f 09       		.uleb128 0x9
 13581 6390 F8360000 		.4byte	0x36f8
 13582 6394 56       		.uleb128 0x56
 13583 6395 45240000 		.4byte	.LASF1125
 13584 6399 10       		.byte	0x10
 13585 639a E002     		.2byte	0x2e0
 13586 639c A0630000 		.4byte	0x63a0
ARM GAS  C:\Users\jrdia\AppData\Local\Temp\ccFTvYyK.s 			page 270


 13587 63a0 09       		.uleb128 0x9
 13588 63a1 3B370000 		.4byte	0x373b
 13589 63a5 56       		.uleb128 0x56
 13590 63a6 514A0000 		.4byte	.LASF1126
 13591 63aa 10       		.byte	0x10
 13592 63ab E102     		.2byte	0x2e1
 13593 63ad B1630000 		.4byte	0x63b1
 13594 63b1 09       		.uleb128 0x9
 13595 63b2 0F360000 		.4byte	0x360f
 13596 63b6 56       		.uleb128 0x56
 13597 63b7 98570000 		.4byte	.LASF1127
 13598 63bb 10       		.byte	0x10
 13599 63bc E202     		.2byte	0x2e2
 13600 63be C2630000 		.4byte	0x63c2
 13601 63c2 09       		.uleb128 0x9
 13602 63c3 7E3A0000 		.4byte	0x3a7e
 13603 63c7 56       		.uleb128 0x56
 13604 63c8 92600000 		.4byte	.LASF1128
 13605 63cc 10       		.byte	0x10
 13606 63cd E302     		.2byte	0x2e3
 13607 63cf D3630000 		.4byte	0x63d3
 13608 63d3 09       		.uleb128 0x9
 13609 63d4 0F360000 		.4byte	0x360f
 13610 63d8 56       		.uleb128 0x56
 13611 63d9 DC350000 		.4byte	.LASF1129
 13612 63dd 10       		.byte	0x10
 13613 63de E402     		.2byte	0x2e4
 13614 63e0 E4630000 		.4byte	0x63e4
 13615 63e4 09       		.uleb128 0x9
 13616 63e5 0F360000 		.4byte	0x360f
 13617 63e9 56       		.uleb128 0x56
 13618 63ea 6C520000 		.4byte	.LASF1130
 13619 63ee 10       		.byte	0x10
 13620 63ef E502     		.2byte	0x2e5
 13621 63f1 F5630000 		.4byte	0x63f5
 13622 63f5 09       		.uleb128 0x9
 13623 63f6 0F360000 		.4byte	0x360f
 13624 63fa 56       		.uleb128 0x56
 13625 63fb 2D350000 		.4byte	.LASF1131
 13626 63ff 10       		.byte	0x10
 13627 6400 E602     		.2byte	0x2e6
 13628 6402 06640000 		.4byte	0x6406
 13629 6406 09       		.uleb128 0x9
 13630 6407 CD350000 		.4byte	0x35cd
 13631 640b 56       		.uleb128 0x56
 13632 640c E50E0000 		.4byte	.LASF1132
 13633 6410 10       		.byte	0x10
 13634 6411 E702     		.2byte	0x2e7
 13635 6413 17640000 		.4byte	0x6417
 13636 6417 09       		.uleb128 0x9
 13637 6418 CD350000 		.4byte	0x35cd
 13638 641c 56       		.uleb128 0x56
 13639 641d 0B5E0000 		.4byte	.LASF1133
 13640 6421 10       		.byte	0x10
 13641 6422 E802     		.2byte	0x2e8
 13642 6424 28640000 		.4byte	0x6428
 13643 6428 09       		.uleb128 0x9
ARM GAS  C:\Users\jrdia\AppData\Local\Temp\ccFTvYyK.s 			page 271


 13644 6429 CD350000 		.4byte	0x35cd
 13645 642d 56       		.uleb128 0x56
 13646 642e B7230000 		.4byte	.LASF1134
 13647 6432 10       		.byte	0x10
 13648 6433 E902     		.2byte	0x2e9
 13649 6435 39640000 		.4byte	0x6439
 13650 6439 09       		.uleb128 0x9
 13651 643a CD350000 		.4byte	0x35cd
 13652 643e 56       		.uleb128 0x56
 13653 643f E9500000 		.4byte	.LASF1135
 13654 6443 10       		.byte	0x10
 13655 6444 EA02     		.2byte	0x2ea
 13656 6446 4A640000 		.4byte	0x644a
 13657 644a 09       		.uleb128 0x9
 13658 644b B5360000 		.4byte	0x36b5
 13659 644f 56       		.uleb128 0x56
 13660 6450 8B5F0000 		.4byte	.LASF1136
 13661 6454 10       		.byte	0x10
 13662 6455 EB02     		.2byte	0x2eb
 13663 6457 5B640000 		.4byte	0x645b
 13664 645b 09       		.uleb128 0x9
 13665 645c B5360000 		.4byte	0x36b5
 13666 6460 56       		.uleb128 0x56
 13667 6461 AB280000 		.4byte	.LASF1137
 13668 6465 10       		.byte	0x10
 13669 6466 EC02     		.2byte	0x2ec
 13670 6468 6C640000 		.4byte	0x646c
 13671 646c 09       		.uleb128 0x9
 13672 646d 0F360000 		.4byte	0x360f
 13673 6471 56       		.uleb128 0x56
 13674 6472 BD120000 		.4byte	.LASF1138
 13675 6476 10       		.byte	0x10
 13676 6477 ED02     		.2byte	0x2ed
 13677 6479 7D640000 		.4byte	0x647d
 13678 647d 09       		.uleb128 0x9
 13679 647e 7E3A0000 		.4byte	0x3a7e
 13680 6482 56       		.uleb128 0x56
 13681 6483 0D3D0000 		.4byte	.LASF1139
 13682 6487 10       		.byte	0x10
 13683 6488 EE02     		.2byte	0x2ee
 13684 648a 8E640000 		.4byte	0x648e
 13685 648e 09       		.uleb128 0x9
 13686 648f B5360000 		.4byte	0x36b5
 13687 6493 56       		.uleb128 0x56
 13688 6494 06690000 		.4byte	.LASF1140
 13689 6498 10       		.byte	0x10
 13690 6499 EF02     		.2byte	0x2ef
 13691 649b 9F640000 		.4byte	0x649f
 13692 649f 09       		.uleb128 0x9
 13693 64a0 CD350000 		.4byte	0x35cd
 13694 64a4 56       		.uleb128 0x56
 13695 64a5 532A0000 		.4byte	.LASF1141
 13696 64a9 10       		.byte	0x10
 13697 64aa F002     		.2byte	0x2f0
 13698 64ac B0640000 		.4byte	0x64b0
 13699 64b0 09       		.uleb128 0x9
 13700 64b1 0F360000 		.4byte	0x360f
ARM GAS  C:\Users\jrdia\AppData\Local\Temp\ccFTvYyK.s 			page 272


 13701 64b5 56       		.uleb128 0x56
 13702 64b6 92470000 		.4byte	.LASF1142
 13703 64ba 10       		.byte	0x10
 13704 64bb F102     		.2byte	0x2f1
 13705 64bd C1640000 		.4byte	0x64c1
 13706 64c1 09       		.uleb128 0x9
 13707 64c2 41360000 		.4byte	0x3641
 13708 64c6 56       		.uleb128 0x56
 13709 64c7 7F4E0000 		.4byte	.LASF1143
 13710 64cb 10       		.byte	0x10
 13711 64cc F202     		.2byte	0x2f2
 13712 64ce D2640000 		.4byte	0x64d2
 13713 64d2 09       		.uleb128 0x9
 13714 64d3 41360000 		.4byte	0x3641
 13715 64d7 56       		.uleb128 0x56
 13716 64d8 13550000 		.4byte	.LASF1144
 13717 64dc 10       		.byte	0x10
 13718 64dd F302     		.2byte	0x2f3
 13719 64df E3640000 		.4byte	0x64e3
 13720 64e3 09       		.uleb128 0x9
 13721 64e4 CD350000 		.4byte	0x35cd
 13722 64e8 56       		.uleb128 0x56
 13723 64e9 90560000 		.4byte	.LASF1145
 13724 64ed 10       		.byte	0x10
 13725 64ee F402     		.2byte	0x2f4
 13726 64f0 F4640000 		.4byte	0x64f4
 13727 64f4 09       		.uleb128 0x9
 13728 64f5 CD350000 		.4byte	0x35cd
 13729 64f9 56       		.uleb128 0x56
 13730 64fa 24450000 		.4byte	.LASF1146
 13731 64fe 10       		.byte	0x10
 13732 64ff F502     		.2byte	0x2f5
 13733 6501 05650000 		.4byte	0x6505
 13734 6505 09       		.uleb128 0x9
 13735 6506 CD350000 		.4byte	0x35cd
 13736 650a 56       		.uleb128 0x56
 13737 650b 441B0000 		.4byte	.LASF1147
 13738 650f 10       		.byte	0x10
 13739 6510 F602     		.2byte	0x2f6
 13740 6512 16650000 		.4byte	0x6516
 13741 6516 09       		.uleb128 0x9
 13742 6517 CD350000 		.4byte	0x35cd
 13743 651b 56       		.uleb128 0x56
 13744 651c 1D140000 		.4byte	.LASF1148
 13745 6520 10       		.byte	0x10
 13746 6521 F702     		.2byte	0x2f7
 13747 6523 27650000 		.4byte	0x6527
 13748 6527 09       		.uleb128 0x9
 13749 6528 B5360000 		.4byte	0x36b5
 13750 652c 56       		.uleb128 0x56
 13751 652d F3220000 		.4byte	.LASF1149
 13752 6531 10       		.byte	0x10
 13753 6532 F802     		.2byte	0x2f8
 13754 6534 38650000 		.4byte	0x6538
 13755 6538 09       		.uleb128 0x9
 13756 6539 CD350000 		.4byte	0x35cd
 13757 653d 56       		.uleb128 0x56
ARM GAS  C:\Users\jrdia\AppData\Local\Temp\ccFTvYyK.s 			page 273


 13758 653e 3D110000 		.4byte	.LASF1150
 13759 6542 10       		.byte	0x10
 13760 6543 F902     		.2byte	0x2f9
 13761 6545 49650000 		.4byte	0x6549
 13762 6549 09       		.uleb128 0x9
 13763 654a F8360000 		.4byte	0x36f8
 13764 654e 56       		.uleb128 0x56
 13765 654f 420E0000 		.4byte	.LASF1151
 13766 6553 10       		.byte	0x10
 13767 6554 FA02     		.2byte	0x2fa
 13768 6556 5A650000 		.4byte	0x655a
 13769 655a 09       		.uleb128 0x9
 13770 655b EE350000 		.4byte	0x35ee
 13771 655f 56       		.uleb128 0x56
 13772 6560 1F2B0000 		.4byte	.LASF1152
 13773 6564 10       		.byte	0x10
 13774 6565 FB02     		.2byte	0x2fb
 13775 6567 6B650000 		.4byte	0x656b
 13776 656b 09       		.uleb128 0x9
 13777 656c 7E3A0000 		.4byte	0x3a7e
 13778 6570 56       		.uleb128 0x56
 13779 6571 9C5E0000 		.4byte	.LASF1153
 13780 6575 10       		.byte	0x10
 13781 6576 FC02     		.2byte	0x2fc
 13782 6578 7C650000 		.4byte	0x657c
 13783 657c 09       		.uleb128 0x9
 13784 657d CD350000 		.4byte	0x35cd
 13785 6581 56       		.uleb128 0x56
 13786 6582 115C0000 		.4byte	.LASF1154
 13787 6586 10       		.byte	0x10
 13788 6587 FD02     		.2byte	0x2fd
 13789 6589 8D650000 		.4byte	0x658d
 13790 658d 09       		.uleb128 0x9
 13791 658e 94360000 		.4byte	0x3694
 13792 6592 56       		.uleb128 0x56
 13793 6593 F01E0000 		.4byte	.LASF1155
 13794 6597 10       		.byte	0x10
 13795 6598 FE02     		.2byte	0x2fe
 13796 659a 9E650000 		.4byte	0x659e
 13797 659e 09       		.uleb128 0x9
 13798 659f 0F360000 		.4byte	0x360f
 13799 65a3 56       		.uleb128 0x56
 13800 65a4 97130000 		.4byte	.LASF1156
 13801 65a8 10       		.byte	0x10
 13802 65a9 FF02     		.2byte	0x2ff
 13803 65ab AF650000 		.4byte	0x65af
 13804 65af 09       		.uleb128 0x9
 13805 65b0 B5360000 		.4byte	0x36b5
 13806 65b4 56       		.uleb128 0x56
 13807 65b5 83130000 		.4byte	.LASF1157
 13808 65b9 10       		.byte	0x10
 13809 65ba 0003     		.2byte	0x300
 13810 65bc C0650000 		.4byte	0x65c0
 13811 65c0 09       		.uleb128 0x9
 13812 65c1 B5360000 		.4byte	0x36b5
 13813 65c5 56       		.uleb128 0x56
 13814 65c6 E6300000 		.4byte	.LASF1158
ARM GAS  C:\Users\jrdia\AppData\Local\Temp\ccFTvYyK.s 			page 274


 13815 65ca 10       		.byte	0x10
 13816 65cb 0103     		.2byte	0x301
 13817 65cd D1650000 		.4byte	0x65d1
 13818 65d1 09       		.uleb128 0x9
 13819 65d2 CD350000 		.4byte	0x35cd
 13820 65d6 56       		.uleb128 0x56
 13821 65d7 BD150000 		.4byte	.LASF1159
 13822 65db 10       		.byte	0x10
 13823 65dc 0203     		.2byte	0x302
 13824 65de E2650000 		.4byte	0x65e2
 13825 65e2 09       		.uleb128 0x9
 13826 65e3 CD350000 		.4byte	0x35cd
 13827 65e7 56       		.uleb128 0x56
 13828 65e8 64640000 		.4byte	.LASF1160
 13829 65ec 10       		.byte	0x10
 13830 65ed 0303     		.2byte	0x303
 13831 65ef F3650000 		.4byte	0x65f3
 13832 65f3 09       		.uleb128 0x9
 13833 65f4 CD350000 		.4byte	0x35cd
 13834 65f8 56       		.uleb128 0x56
 13835 65f9 F31C0000 		.4byte	.LASF1161
 13836 65fd 10       		.byte	0x10
 13837 65fe 0403     		.2byte	0x304
 13838 6600 04660000 		.4byte	0x6604
 13839 6604 09       		.uleb128 0x9
 13840 6605 0F360000 		.4byte	0x360f
 13841 6609 56       		.uleb128 0x56
 13842 660a D6030000 		.4byte	.LASF1162
 13843 660e 10       		.byte	0x10
 13844 660f 0503     		.2byte	0x305
 13845 6611 15660000 		.4byte	0x6615
 13846 6615 09       		.uleb128 0x9
 13847 6616 CD350000 		.4byte	0x35cd
 13848 661a 56       		.uleb128 0x56
 13849 661b 2D530000 		.4byte	.LASF1163
 13850 661f 10       		.byte	0x10
 13851 6620 0603     		.2byte	0x306
 13852 6622 26660000 		.4byte	0x6626
 13853 6626 09       		.uleb128 0x9
 13854 6627 CD350000 		.4byte	0x35cd
 13855 662b 56       		.uleb128 0x56
 13856 662c 294C0000 		.4byte	.LASF1164
 13857 6630 10       		.byte	0x10
 13858 6631 0703     		.2byte	0x307
 13859 6633 37660000 		.4byte	0x6637
 13860 6637 09       		.uleb128 0x9
 13861 6638 CD350000 		.4byte	0x35cd
 13862 663c 56       		.uleb128 0x56
 13863 663d 3B060000 		.4byte	.LASF1165
 13864 6641 10       		.byte	0x10
 13865 6642 0803     		.2byte	0x308
 13866 6644 48660000 		.4byte	0x6648
 13867 6648 09       		.uleb128 0x9
 13868 6649 CD350000 		.4byte	0x35cd
 13869 664d 56       		.uleb128 0x56
 13870 664e 15110000 		.4byte	.LASF1166
 13871 6652 10       		.byte	0x10
ARM GAS  C:\Users\jrdia\AppData\Local\Temp\ccFTvYyK.s 			page 275


 13872 6653 0903     		.2byte	0x309
 13873 6655 59660000 		.4byte	0x6659
 13874 6659 09       		.uleb128 0x9
 13875 665a F8360000 		.4byte	0x36f8
 13876 665e 56       		.uleb128 0x56
 13877 665f 0B460000 		.4byte	.LASF1167
 13878 6663 10       		.byte	0x10
 13879 6664 0A03     		.2byte	0x30a
 13880 6666 6A660000 		.4byte	0x666a
 13881 666a 09       		.uleb128 0x9
 13882 666b EE350000 		.4byte	0x35ee
 13883 666f 56       		.uleb128 0x56
 13884 6670 E0210000 		.4byte	.LASF1168
 13885 6674 10       		.byte	0x10
 13886 6675 0B03     		.2byte	0x30b
 13887 6677 7B660000 		.4byte	0x667b
 13888 667b 09       		.uleb128 0x9
 13889 667c EE350000 		.4byte	0x35ee
 13890 6680 56       		.uleb128 0x56
 13891 6681 9E410000 		.4byte	.LASF1169
 13892 6685 10       		.byte	0x10
 13893 6686 0C03     		.2byte	0x30c
 13894 6688 8C660000 		.4byte	0x668c
 13895 668c 09       		.uleb128 0x9
 13896 668d 0F360000 		.4byte	0x360f
 13897 6691 56       		.uleb128 0x56
 13898 6692 27550000 		.4byte	.LASF1170
 13899 6696 10       		.byte	0x10
 13900 6697 0D03     		.2byte	0x30d
 13901 6699 9D660000 		.4byte	0x669d
 13902 669d 09       		.uleb128 0x9
 13903 669e 0F360000 		.4byte	0x360f
 13904 66a2 56       		.uleb128 0x56
 13905 66a3 FC640000 		.4byte	.LASF1171
 13906 66a7 10       		.byte	0x10
 13907 66a8 1003     		.2byte	0x310
 13908 66aa AE660000 		.4byte	0x66ae
 13909 66ae 09       		.uleb128 0x9
 13910 66af F8360000 		.4byte	0x36f8
 13911 66b3 56       		.uleb128 0x56
 13912 66b4 605C0000 		.4byte	.LASF1172
 13913 66b8 10       		.byte	0x10
 13914 66b9 1103     		.2byte	0x311
 13915 66bb BF660000 		.4byte	0x66bf
 13916 66bf 09       		.uleb128 0x9
 13917 66c0 6A350000 		.4byte	0x356a
 13918 66c4 56       		.uleb128 0x56
 13919 66c5 60420000 		.4byte	.LASF1173
 13920 66c9 10       		.byte	0x10
 13921 66ca 1203     		.2byte	0x312
 13922 66cc D0660000 		.4byte	0x66d0
 13923 66d0 09       		.uleb128 0x9
 13924 66d1 F8360000 		.4byte	0x36f8
 13925 66d5 56       		.uleb128 0x56
 13926 66d6 D42D0000 		.4byte	.LASF1174
 13927 66da 10       		.byte	0x10
 13928 66db 1303     		.2byte	0x313
ARM GAS  C:\Users\jrdia\AppData\Local\Temp\ccFTvYyK.s 			page 276


 13929 66dd E1660000 		.4byte	0x66e1
 13930 66e1 09       		.uleb128 0x9
 13931 66e2 F8360000 		.4byte	0x36f8
 13932 66e6 56       		.uleb128 0x56
 13933 66e7 79080000 		.4byte	.LASF1175
 13934 66eb 10       		.byte	0x10
 13935 66ec 1403     		.2byte	0x314
 13936 66ee F2660000 		.4byte	0x66f2
 13937 66f2 09       		.uleb128 0x9
 13938 66f3 F8360000 		.4byte	0x36f8
 13939 66f7 56       		.uleb128 0x56
 13940 66f8 BD470000 		.4byte	.LASF1176
 13941 66fc 10       		.byte	0x10
 13942 66fd 1503     		.2byte	0x315
 13943 66ff 03670000 		.4byte	0x6703
 13944 6703 09       		.uleb128 0x9
 13945 6704 F8360000 		.4byte	0x36f8
 13946 6708 56       		.uleb128 0x56
 13947 6709 C80A0000 		.4byte	.LASF1177
 13948 670d 10       		.byte	0x10
 13949 670e 1603     		.2byte	0x316
 13950 6710 14670000 		.4byte	0x6714
 13951 6714 09       		.uleb128 0x9
 13952 6715 8D380000 		.4byte	0x388d
 13953 6719 56       		.uleb128 0x56
 13954 671a 27030000 		.4byte	.LASF1178
 13955 671e 10       		.byte	0x10
 13956 671f 1703     		.2byte	0x317
 13957 6721 25670000 		.4byte	0x6725
 13958 6725 09       		.uleb128 0x9
 13959 6726 B5360000 		.4byte	0x36b5
 13960 672a 56       		.uleb128 0x56
 13961 672b 6B4D0000 		.4byte	.LASF1179
 13962 672f 10       		.byte	0x10
 13963 6730 1803     		.2byte	0x318
 13964 6732 36670000 		.4byte	0x6736
 13965 6736 09       		.uleb128 0x9
 13966 6737 0F360000 		.4byte	0x360f
 13967 673b 56       		.uleb128 0x56
 13968 673c 17410000 		.4byte	.LASF1180
 13969 6740 10       		.byte	0x10
 13970 6741 1903     		.2byte	0x319
 13971 6743 47670000 		.4byte	0x6747
 13972 6747 09       		.uleb128 0x9
 13973 6748 B5360000 		.4byte	0x36b5
 13974 674c 56       		.uleb128 0x56
 13975 674d 53410000 		.4byte	.LASF1181
 13976 6751 10       		.byte	0x10
 13977 6752 1A03     		.2byte	0x31a
 13978 6754 58670000 		.4byte	0x6758
 13979 6758 09       		.uleb128 0x9
 13980 6759 EE350000 		.4byte	0x35ee
 13981 675d 56       		.uleb128 0x56
 13982 675e 5A560000 		.4byte	.LASF1182
 13983 6762 10       		.byte	0x10
 13984 6763 1B03     		.2byte	0x31b
 13985 6765 69670000 		.4byte	0x6769
ARM GAS  C:\Users\jrdia\AppData\Local\Temp\ccFTvYyK.s 			page 277


 13986 6769 09       		.uleb128 0x9
 13987 676a C13A0000 		.4byte	0x3ac1
 13988 676e 56       		.uleb128 0x56
 13989 676f 1F220000 		.4byte	.LASF1183
 13990 6773 10       		.byte	0x10
 13991 6774 1C03     		.2byte	0x31c
 13992 6776 7A670000 		.4byte	0x677a
 13993 677a 09       		.uleb128 0x9
 13994 677b 8D380000 		.4byte	0x388d
 13995 677f 56       		.uleb128 0x56
 13996 6780 134B0000 		.4byte	.LASF1184
 13997 6784 10       		.byte	0x10
 13998 6785 1D03     		.2byte	0x31d
 13999 6787 8B670000 		.4byte	0x678b
 14000 678b 09       		.uleb128 0x9
 14001 678c 94360000 		.4byte	0x3694
 14002 6790 56       		.uleb128 0x56
 14003 6791 664B0000 		.4byte	.LASF1185
 14004 6795 10       		.byte	0x10
 14005 6796 1E03     		.2byte	0x31e
 14006 6798 9C670000 		.4byte	0x679c
 14007 679c 09       		.uleb128 0x9
 14008 679d 73360000 		.4byte	0x3673
 14009 67a1 56       		.uleb128 0x56
 14010 67a2 69230000 		.4byte	.LASF1186
 14011 67a6 10       		.byte	0x10
 14012 67a7 1F03     		.2byte	0x31f
 14013 67a9 AD670000 		.4byte	0x67ad
 14014 67ad 09       		.uleb128 0x9
 14015 67ae 94360000 		.4byte	0x3694
 14016 67b2 56       		.uleb128 0x56
 14017 67b3 F0160000 		.4byte	.LASF1187
 14018 67b7 10       		.byte	0x10
 14019 67b8 2003     		.2byte	0x320
 14020 67ba BE670000 		.4byte	0x67be
 14021 67be 09       		.uleb128 0x9
 14022 67bf F8360000 		.4byte	0x36f8
 14023 67c3 56       		.uleb128 0x56
 14024 67c4 B2500000 		.4byte	.LASF1188
 14025 67c8 10       		.byte	0x10
 14026 67c9 2103     		.2byte	0x321
 14027 67cb CF670000 		.4byte	0x67cf
 14028 67cf 09       		.uleb128 0x9
 14029 67d0 F8360000 		.4byte	0x36f8
 14030 67d4 56       		.uleb128 0x56
 14031 67d5 43030000 		.4byte	.LASF1189
 14032 67d9 10       		.byte	0x10
 14033 67da 2203     		.2byte	0x322
 14034 67dc E0670000 		.4byte	0x67e0
 14035 67e0 09       		.uleb128 0x9
 14036 67e1 EE350000 		.4byte	0x35ee
 14037 67e5 56       		.uleb128 0x56
 14038 67e6 DE040000 		.4byte	.LASF1190
 14039 67ea 10       		.byte	0x10
 14040 67eb 2303     		.2byte	0x323
 14041 67ed F1670000 		.4byte	0x67f1
 14042 67f1 09       		.uleb128 0x9
ARM GAS  C:\Users\jrdia\AppData\Local\Temp\ccFTvYyK.s 			page 278


 14043 67f2 8B350000 		.4byte	0x358b
 14044 67f6 56       		.uleb128 0x56
 14045 67f7 E2420000 		.4byte	.LASF1191
 14046 67fb 10       		.byte	0x10
 14047 67fc 2403     		.2byte	0x324
 14048 67fe 02680000 		.4byte	0x6802
 14049 6802 09       		.uleb128 0x9
 14050 6803 B5360000 		.4byte	0x36b5
 14051 6807 56       		.uleb128 0x56
 14052 6808 FE140000 		.4byte	.LASF1192
 14053 680c 10       		.byte	0x10
 14054 680d 2503     		.2byte	0x325
 14055 680f 13680000 		.4byte	0x6813
 14056 6813 09       		.uleb128 0x9
 14057 6814 6A350000 		.4byte	0x356a
 14058 6818 56       		.uleb128 0x56
 14059 6819 04530000 		.4byte	.LASF1193
 14060 681d 10       		.byte	0x10
 14061 681e 2603     		.2byte	0x326
 14062 6820 24680000 		.4byte	0x6824
 14063 6824 09       		.uleb128 0x9
 14064 6825 73360000 		.4byte	0x3673
 14065 6829 56       		.uleb128 0x56
 14066 682a E8180000 		.4byte	.LASF1194
 14067 682e 10       		.byte	0x10
 14068 682f 2703     		.2byte	0x327
 14069 6831 35680000 		.4byte	0x6835
 14070 6835 09       		.uleb128 0x9
 14071 6836 CD350000 		.4byte	0x35cd
 14072 683a 56       		.uleb128 0x56
 14073 683b 1C460000 		.4byte	.LASF1195
 14074 683f 10       		.byte	0x10
 14075 6840 2803     		.2byte	0x328
 14076 6842 46680000 		.4byte	0x6846
 14077 6846 09       		.uleb128 0x9
 14078 6847 3B370000 		.4byte	0x373b
 14079 684b 56       		.uleb128 0x56
 14080 684c 5A650000 		.4byte	.LASF1196
 14081 6850 10       		.byte	0x10
 14082 6851 2903     		.2byte	0x329
 14083 6853 57680000 		.4byte	0x6857
 14084 6857 09       		.uleb128 0x9
 14085 6858 3B370000 		.4byte	0x373b
 14086 685c 56       		.uleb128 0x56
 14087 685d FC410000 		.4byte	.LASF1197
 14088 6861 10       		.byte	0x10
 14089 6862 2A03     		.2byte	0x32a
 14090 6864 68680000 		.4byte	0x6868
 14091 6868 09       		.uleb128 0x9
 14092 6869 41360000 		.4byte	0x3641
 14093 686d 56       		.uleb128 0x56
 14094 686e 2E330000 		.4byte	.LASF1198
 14095 6872 10       		.byte	0x10
 14096 6873 2C03     		.2byte	0x32c
 14097 6875 79680000 		.4byte	0x6879
 14098 6879 09       		.uleb128 0x9
 14099 687a 94360000 		.4byte	0x3694
ARM GAS  C:\Users\jrdia\AppData\Local\Temp\ccFTvYyK.s 			page 279


 14100 687e 56       		.uleb128 0x56
 14101 687f 8A1D0000 		.4byte	.LASF1199
 14102 6883 10       		.byte	0x10
 14103 6884 2D03     		.2byte	0x32d
 14104 6886 8A680000 		.4byte	0x688a
 14105 688a 09       		.uleb128 0x9
 14106 688b 94360000 		.4byte	0x3694
 14107 688f 56       		.uleb128 0x56
 14108 6890 3C3E0000 		.4byte	.LASF1200
 14109 6894 10       		.byte	0x10
 14110 6895 2E03     		.2byte	0x32e
 14111 6897 9B680000 		.4byte	0x689b
 14112 689b 09       		.uleb128 0x9
 14113 689c 94360000 		.4byte	0x3694
 14114 68a0 56       		.uleb128 0x56
 14115 68a1 365D0000 		.4byte	.LASF1201
 14116 68a5 10       		.byte	0x10
 14117 68a6 2F03     		.2byte	0x32f
 14118 68a8 AC680000 		.4byte	0x68ac
 14119 68ac 09       		.uleb128 0x9
 14120 68ad B5360000 		.4byte	0x36b5
 14121 68b1 56       		.uleb128 0x56
 14122 68b2 20560000 		.4byte	.LASF1202
 14123 68b6 10       		.byte	0x10
 14124 68b7 3003     		.2byte	0x330
 14125 68b9 BD680000 		.4byte	0x68bd
 14126 68bd 09       		.uleb128 0x9
 14127 68be EE350000 		.4byte	0x35ee
 14128 68c2 56       		.uleb128 0x56
 14129 68c3 62010000 		.4byte	.LASF1203
 14130 68c7 10       		.byte	0x10
 14131 68c8 3103     		.2byte	0x331
 14132 68ca CE680000 		.4byte	0x68ce
 14133 68ce 09       		.uleb128 0x9
 14134 68cf 8B350000 		.4byte	0x358b
 14135 68d3 56       		.uleb128 0x56
 14136 68d4 F3490000 		.4byte	.LASF1204
 14137 68d8 10       		.byte	0x10
 14138 68d9 3203     		.2byte	0x332
 14139 68db DF680000 		.4byte	0x68df
 14140 68df 09       		.uleb128 0x9
 14141 68e0 94360000 		.4byte	0x3694
 14142 68e4 56       		.uleb128 0x56
 14143 68e5 634E0000 		.4byte	.LASF1205
 14144 68e9 10       		.byte	0x10
 14145 68ea 3303     		.2byte	0x333
 14146 68ec F0680000 		.4byte	0x68f0
 14147 68f0 09       		.uleb128 0x9
 14148 68f1 0F360000 		.4byte	0x360f
 14149 68f5 56       		.uleb128 0x56
 14150 68f6 652D0000 		.4byte	.LASF1206
 14151 68fa 10       		.byte	0x10
 14152 68fb 3403     		.2byte	0x334
 14153 68fd 01690000 		.4byte	0x6901
 14154 6901 09       		.uleb128 0x9
 14155 6902 94360000 		.4byte	0x3694
 14156 6906 56       		.uleb128 0x56
ARM GAS  C:\Users\jrdia\AppData\Local\Temp\ccFTvYyK.s 			page 280


 14157 6907 0B280000 		.4byte	.LASF1207
 14158 690b 10       		.byte	0x10
 14159 690c 3503     		.2byte	0x335
 14160 690e 12690000 		.4byte	0x6912
 14161 6912 09       		.uleb128 0x9
 14162 6913 94360000 		.4byte	0x3694
 14163 6917 56       		.uleb128 0x56
 14164 6918 222F0000 		.4byte	.LASF1208
 14165 691c 10       		.byte	0x10
 14166 691d 3603     		.2byte	0x336
 14167 691f 23690000 		.4byte	0x6923
 14168 6923 09       		.uleb128 0x9
 14169 6924 EE350000 		.4byte	0x35ee
 14170 6928 56       		.uleb128 0x56
 14171 6929 39580000 		.4byte	.LASF1209
 14172 692d 10       		.byte	0x10
 14173 692e 3903     		.2byte	0x339
 14174 6930 34690000 		.4byte	0x6934
 14175 6934 09       		.uleb128 0x9
 14176 6935 41360000 		.4byte	0x3641
 14177 6939 56       		.uleb128 0x56
 14178 693a 82360000 		.4byte	.LASF1210
 14179 693e 10       		.byte	0x10
 14180 693f 3A03     		.2byte	0x33a
 14181 6941 45690000 		.4byte	0x6945
 14182 6945 09       		.uleb128 0x9
 14183 6946 EE350000 		.4byte	0x35ee
 14184 694a 56       		.uleb128 0x56
 14185 694b 91500000 		.4byte	.LASF1211
 14186 694f 10       		.byte	0x10
 14187 6950 3B03     		.2byte	0x33b
 14188 6952 56690000 		.4byte	0x6956
 14189 6956 09       		.uleb128 0x9
 14190 6957 41360000 		.4byte	0x3641
 14191 695b 56       		.uleb128 0x56
 14192 695c 89270000 		.4byte	.LASF1212
 14193 6960 10       		.byte	0x10
 14194 6961 3C03     		.2byte	0x33c
 14195 6963 67690000 		.4byte	0x6967
 14196 6967 09       		.uleb128 0x9
 14197 6968 0F360000 		.4byte	0x360f
 14198 696c 56       		.uleb128 0x56
 14199 696d A2000000 		.4byte	.LASF1213
 14200 6971 10       		.byte	0x10
 14201 6972 3D03     		.2byte	0x33d
 14202 6974 78690000 		.4byte	0x6978
 14203 6978 09       		.uleb128 0x9
 14204 6979 7E3A0000 		.4byte	0x3a7e
 14205 697d 56       		.uleb128 0x56
 14206 697e 865E0000 		.4byte	.LASF1214
 14207 6982 10       		.byte	0x10
 14208 6983 3E03     		.2byte	0x33e
 14209 6985 89690000 		.4byte	0x6989
 14210 6989 09       		.uleb128 0x9
 14211 698a 0F360000 		.4byte	0x360f
 14212 698e 56       		.uleb128 0x56
 14213 698f 745A0000 		.4byte	.LASF1215
ARM GAS  C:\Users\jrdia\AppData\Local\Temp\ccFTvYyK.s 			page 281


 14214 6993 10       		.byte	0x10
 14215 6994 3F03     		.2byte	0x33f
 14216 6996 9A690000 		.4byte	0x699a
 14217 699a 09       		.uleb128 0x9
 14218 699b 41360000 		.4byte	0x3641
 14219 699f 56       		.uleb128 0x56
 14220 69a0 7A560000 		.4byte	.LASF1216
 14221 69a4 10       		.byte	0x10
 14222 69a5 4003     		.2byte	0x340
 14223 69a7 AB690000 		.4byte	0x69ab
 14224 69ab 09       		.uleb128 0x9
 14225 69ac EE350000 		.4byte	0x35ee
 14226 69b0 56       		.uleb128 0x56
 14227 69b1 32020000 		.4byte	.LASF1217
 14228 69b5 10       		.byte	0x10
 14229 69b6 4203     		.2byte	0x342
 14230 69b8 BC690000 		.4byte	0x69bc
 14231 69bc 09       		.uleb128 0x9
 14232 69bd 41360000 		.4byte	0x3641
 14233 69c1 56       		.uleb128 0x56
 14234 69c2 4F220000 		.4byte	.LASF1218
 14235 69c6 10       		.byte	0x10
 14236 69c7 4303     		.2byte	0x343
 14237 69c9 CD690000 		.4byte	0x69cd
 14238 69cd 09       		.uleb128 0x9
 14239 69ce 7E3A0000 		.4byte	0x3a7e
 14240 69d2 56       		.uleb128 0x56
 14241 69d3 D73D0000 		.4byte	.LASF1219
 14242 69d7 10       		.byte	0x10
 14243 69d8 4403     		.2byte	0x344
 14244 69da DE690000 		.4byte	0x69de
 14245 69de 09       		.uleb128 0x9
 14246 69df EE350000 		.4byte	0x35ee
 14247 69e3 56       		.uleb128 0x56
 14248 69e4 583D0000 		.4byte	.LASF1220
 14249 69e8 10       		.byte	0x10
 14250 69e9 4503     		.2byte	0x345
 14251 69eb EF690000 		.4byte	0x69ef
 14252 69ef 09       		.uleb128 0x9
 14253 69f0 EE350000 		.4byte	0x35ee
 14254 69f4 56       		.uleb128 0x56
 14255 69f5 DF3A0000 		.4byte	.LASF1221
 14256 69f9 10       		.byte	0x10
 14257 69fa 4603     		.2byte	0x346
 14258 69fc 006A0000 		.4byte	0x6a00
 14259 6a00 09       		.uleb128 0x9
 14260 6a01 EE350000 		.4byte	0x35ee
 14261 6a05 56       		.uleb128 0x56
 14262 6a06 7E450000 		.4byte	.LASF1222
 14263 6a0a 10       		.byte	0x10
 14264 6a0b 4703     		.2byte	0x347
 14265 6a0d 116A0000 		.4byte	0x6a11
 14266 6a11 09       		.uleb128 0x9
 14267 6a12 F8360000 		.4byte	0x36f8
 14268 6a16 56       		.uleb128 0x56
 14269 6a17 B54B0000 		.4byte	.LASF1223
 14270 6a1b 10       		.byte	0x10
ARM GAS  C:\Users\jrdia\AppData\Local\Temp\ccFTvYyK.s 			page 282


 14271 6a1c 4803     		.2byte	0x348
 14272 6a1e 226A0000 		.4byte	0x6a22
 14273 6a22 09       		.uleb128 0x9
 14274 6a23 F8360000 		.4byte	0x36f8
 14275 6a27 56       		.uleb128 0x56
 14276 6a28 121B0000 		.4byte	.LASF1224
 14277 6a2c 10       		.byte	0x10
 14278 6a2d 4903     		.2byte	0x349
 14279 6a2f 336A0000 		.4byte	0x6a33
 14280 6a33 09       		.uleb128 0x9
 14281 6a34 0F360000 		.4byte	0x360f
 14282 6a38 56       		.uleb128 0x56
 14283 6a39 FA510000 		.4byte	.LASF1225
 14284 6a3d 10       		.byte	0x10
 14285 6a3e 4A03     		.2byte	0x34a
 14286 6a40 446A0000 		.4byte	0x6a44
 14287 6a44 09       		.uleb128 0x9
 14288 6a45 CD350000 		.4byte	0x35cd
 14289 6a49 56       		.uleb128 0x56
 14290 6a4a 0F1C0000 		.4byte	.LASF1226
 14291 6a4e 10       		.byte	0x10
 14292 6a4f 4B03     		.2byte	0x34b
 14293 6a51 556A0000 		.4byte	0x6a55
 14294 6a55 09       		.uleb128 0x9
 14295 6a56 8D380000 		.4byte	0x388d
 14296 6a5a 56       		.uleb128 0x56
 14297 6a5b D4060000 		.4byte	.LASF1227
 14298 6a5f 10       		.byte	0x10
 14299 6a60 4C03     		.2byte	0x34c
 14300 6a62 666A0000 		.4byte	0x6a66
 14301 6a66 09       		.uleb128 0x9
 14302 6a67 8D380000 		.4byte	0x388d
 14303 6a6b 56       		.uleb128 0x56
 14304 6a6c 51540000 		.4byte	.LASF1228
 14305 6a70 10       		.byte	0x10
 14306 6a71 4D03     		.2byte	0x34d
 14307 6a73 776A0000 		.4byte	0x6a77
 14308 6a77 09       		.uleb128 0x9
 14309 6a78 0F360000 		.4byte	0x360f
 14310 6a7c 56       		.uleb128 0x56
 14311 6a7d 2E190000 		.4byte	.LASF1229
 14312 6a81 10       		.byte	0x10
 14313 6a82 4E03     		.2byte	0x34e
 14314 6a84 886A0000 		.4byte	0x6a88
 14315 6a88 09       		.uleb128 0x9
 14316 6a89 6A350000 		.4byte	0x356a
 14317 6a8d 56       		.uleb128 0x56
 14318 6a8e 4F450000 		.4byte	.LASF1230
 14319 6a92 10       		.byte	0x10
 14320 6a93 4F03     		.2byte	0x34f
 14321 6a95 996A0000 		.4byte	0x6a99
 14322 6a99 09       		.uleb128 0x9
 14323 6a9a 6A350000 		.4byte	0x356a
 14324 6a9e 56       		.uleb128 0x56
 14325 6a9f 3E2D0000 		.4byte	.LASF1231
 14326 6aa3 10       		.byte	0x10
 14327 6aa4 5003     		.2byte	0x350
ARM GAS  C:\Users\jrdia\AppData\Local\Temp\ccFTvYyK.s 			page 283


 14328 6aa6 AA6A0000 		.4byte	0x6aaa
 14329 6aaa 09       		.uleb128 0x9
 14330 6aab 73360000 		.4byte	0x3673
 14331 6aaf 56       		.uleb128 0x56
 14332 6ab0 8D440000 		.4byte	.LASF1232
 14333 6ab4 10       		.byte	0x10
 14334 6ab5 5103     		.2byte	0x351
 14335 6ab7 BB6A0000 		.4byte	0x6abb
 14336 6abb 09       		.uleb128 0x9
 14337 6abc 73360000 		.4byte	0x3673
 14338 6ac0 56       		.uleb128 0x56
 14339 6ac1 254E0000 		.4byte	.LASF1233
 14340 6ac5 10       		.byte	0x10
 14341 6ac6 5203     		.2byte	0x352
 14342 6ac8 CC6A0000 		.4byte	0x6acc
 14343 6acc 09       		.uleb128 0x9
 14344 6acd 0F360000 		.4byte	0x360f
 14345 6ad1 56       		.uleb128 0x56
 14346 6ad2 D0660000 		.4byte	.LASF1234
 14347 6ad6 10       		.byte	0x10
 14348 6ad7 5303     		.2byte	0x353
 14349 6ad9 DD6A0000 		.4byte	0x6add
 14350 6add 09       		.uleb128 0x9
 14351 6ade EE350000 		.4byte	0x35ee
 14352 6ae2 56       		.uleb128 0x56
 14353 6ae3 3B190000 		.4byte	.LASF1235
 14354 6ae7 10       		.byte	0x10
 14355 6ae8 5403     		.2byte	0x354
 14356 6aea EE6A0000 		.4byte	0x6aee
 14357 6aee 09       		.uleb128 0x9
 14358 6aef EE350000 		.4byte	0x35ee
 14359 6af3 56       		.uleb128 0x56
 14360 6af4 E4110000 		.4byte	.LASF1236
 14361 6af8 10       		.byte	0x10
 14362 6af9 5503     		.2byte	0x355
 14363 6afb FF6A0000 		.4byte	0x6aff
 14364 6aff 09       		.uleb128 0x9
 14365 6b00 EE350000 		.4byte	0x35ee
 14366 6b04 56       		.uleb128 0x56
 14367 6b05 8C3F0000 		.4byte	.LASF1237
 14368 6b09 10       		.byte	0x10
 14369 6b0a 5603     		.2byte	0x356
 14370 6b0c 106B0000 		.4byte	0x6b10
 14371 6b10 09       		.uleb128 0x9
 14372 6b11 B5360000 		.4byte	0x36b5
 14373 6b15 56       		.uleb128 0x56
 14374 6b16 15030000 		.4byte	.LASF1238
 14375 6b1a 10       		.byte	0x10
 14376 6b1b 5703     		.2byte	0x357
 14377 6b1d 216B0000 		.4byte	0x6b21
 14378 6b21 09       		.uleb128 0x9
 14379 6b22 EE350000 		.4byte	0x35ee
 14380 6b26 56       		.uleb128 0x56
 14381 6b27 17680000 		.4byte	.LASF1239
 14382 6b2b 10       		.byte	0x10
 14383 6b2c 5803     		.2byte	0x358
 14384 6b2e 326B0000 		.4byte	0x6b32
ARM GAS  C:\Users\jrdia\AppData\Local\Temp\ccFTvYyK.s 			page 284


 14385 6b32 09       		.uleb128 0x9
 14386 6b33 F8360000 		.4byte	0x36f8
 14387 6b37 56       		.uleb128 0x56
 14388 6b38 5A0C0000 		.4byte	.LASF1240
 14389 6b3c 10       		.byte	0x10
 14390 6b3d 5903     		.2byte	0x359
 14391 6b3f 436B0000 		.4byte	0x6b43
 14392 6b43 09       		.uleb128 0x9
 14393 6b44 F8360000 		.4byte	0x36f8
 14394 6b48 56       		.uleb128 0x56
 14395 6b49 1F660000 		.4byte	.LASF1241
 14396 6b4d 10       		.byte	0x10
 14397 6b4e 5A03     		.2byte	0x35a
 14398 6b50 546B0000 		.4byte	0x6b54
 14399 6b54 09       		.uleb128 0x9
 14400 6b55 7E3A0000 		.4byte	0x3a7e
 14401 6b59 56       		.uleb128 0x56
 14402 6b5a 04620000 		.4byte	.LASF1242
 14403 6b5e 10       		.byte	0x10
 14404 6b5f 5B03     		.2byte	0x35b
 14405 6b61 656B0000 		.4byte	0x6b65
 14406 6b65 09       		.uleb128 0x9
 14407 6b66 7E3A0000 		.4byte	0x3a7e
 14408 6b6a 56       		.uleb128 0x56
 14409 6b6b BC2D0000 		.4byte	.LASF1243
 14410 6b6f 10       		.byte	0x10
 14411 6b70 5C03     		.2byte	0x35c
 14412 6b72 766B0000 		.4byte	0x6b76
 14413 6b76 09       		.uleb128 0x9
 14414 6b77 7E3A0000 		.4byte	0x3a7e
 14415 6b7b 56       		.uleb128 0x56
 14416 6b7c F0230000 		.4byte	.LASF1244
 14417 6b80 10       		.byte	0x10
 14418 6b81 5D03     		.2byte	0x35d
 14419 6b83 876B0000 		.4byte	0x6b87
 14420 6b87 09       		.uleb128 0x9
 14421 6b88 F8360000 		.4byte	0x36f8
 14422 6b8c 56       		.uleb128 0x56
 14423 6b8d 824D0000 		.4byte	.LASF1245
 14424 6b91 10       		.byte	0x10
 14425 6b92 5E03     		.2byte	0x35e
 14426 6b94 986B0000 		.4byte	0x6b98
 14427 6b98 09       		.uleb128 0x9
 14428 6b99 F8360000 		.4byte	0x36f8
 14429 6b9d 56       		.uleb128 0x56
 14430 6b9e 58460000 		.4byte	.LASF1246
 14431 6ba2 10       		.byte	0x10
 14432 6ba3 5F03     		.2byte	0x35f
 14433 6ba5 A96B0000 		.4byte	0x6ba9
 14434 6ba9 09       		.uleb128 0x9
 14435 6baa CD350000 		.4byte	0x35cd
 14436 6bae 56       		.uleb128 0x56
 14437 6baf F90C0000 		.4byte	.LASF1247
 14438 6bb3 10       		.byte	0x10
 14439 6bb4 6003     		.2byte	0x360
 14440 6bb6 BA6B0000 		.4byte	0x6bba
 14441 6bba 09       		.uleb128 0x9
ARM GAS  C:\Users\jrdia\AppData\Local\Temp\ccFTvYyK.s 			page 285


 14442 6bbb CD350000 		.4byte	0x35cd
 14443 6bbf 56       		.uleb128 0x56
 14444 6bc0 2A0B0000 		.4byte	.LASF1248
 14445 6bc4 10       		.byte	0x10
 14446 6bc5 6103     		.2byte	0x361
 14447 6bc7 CB6B0000 		.4byte	0x6bcb
 14448 6bcb 09       		.uleb128 0x9
 14449 6bcc 0F360000 		.4byte	0x360f
 14450 6bd0 56       		.uleb128 0x56
 14451 6bd1 2E260000 		.4byte	.LASF1249
 14452 6bd5 10       		.byte	0x10
 14453 6bd6 6203     		.2byte	0x362
 14454 6bd8 DC6B0000 		.4byte	0x6bdc
 14455 6bdc 09       		.uleb128 0x9
 14456 6bdd 0F360000 		.4byte	0x360f
 14457 6be1 56       		.uleb128 0x56
 14458 6be2 BA600000 		.4byte	.LASF1250
 14459 6be6 10       		.byte	0x10
 14460 6be7 6303     		.2byte	0x363
 14461 6be9 ED6B0000 		.4byte	0x6bed
 14462 6bed 09       		.uleb128 0x9
 14463 6bee F8360000 		.4byte	0x36f8
 14464 6bf2 56       		.uleb128 0x56
 14465 6bf3 6E0E0000 		.4byte	.LASF1251
 14466 6bf7 10       		.byte	0x10
 14467 6bf8 6403     		.2byte	0x364
 14468 6bfa FE6B0000 		.4byte	0x6bfe
 14469 6bfe 09       		.uleb128 0x9
 14470 6bff 0F360000 		.4byte	0x360f
 14471 6c03 56       		.uleb128 0x56
 14472 6c04 09560000 		.4byte	.LASF1252
 14473 6c08 10       		.byte	0x10
 14474 6c09 6503     		.2byte	0x365
 14475 6c0b 0F6C0000 		.4byte	0x6c0f
 14476 6c0f 09       		.uleb128 0x9
 14477 6c10 F8360000 		.4byte	0x36f8
 14478 6c14 56       		.uleb128 0x56
 14479 6c15 57330000 		.4byte	.LASF1253
 14480 6c19 10       		.byte	0x10
 14481 6c1a 6603     		.2byte	0x366
 14482 6c1c 206C0000 		.4byte	0x6c20
 14483 6c20 09       		.uleb128 0x9
 14484 6c21 41360000 		.4byte	0x3641
 14485 6c25 56       		.uleb128 0x56
 14486 6c26 FF120000 		.4byte	.LASF1254
 14487 6c2a 10       		.byte	0x10
 14488 6c2b 6703     		.2byte	0x367
 14489 6c2d 316C0000 		.4byte	0x6c31
 14490 6c31 09       		.uleb128 0x9
 14491 6c32 3B370000 		.4byte	0x373b
 14492 6c36 56       		.uleb128 0x56
 14493 6c37 E6190000 		.4byte	.LASF1255
 14494 6c3b 10       		.byte	0x10
 14495 6c3c 6803     		.2byte	0x368
 14496 6c3e 426C0000 		.4byte	0x6c42
 14497 6c42 09       		.uleb128 0x9
 14498 6c43 3B370000 		.4byte	0x373b
ARM GAS  C:\Users\jrdia\AppData\Local\Temp\ccFTvYyK.s 			page 286


 14499 6c47 56       		.uleb128 0x56
 14500 6c48 403C0000 		.4byte	.LASF1256
 14501 6c4c 10       		.byte	0x10
 14502 6c4d 6903     		.2byte	0x369
 14503 6c4f 536C0000 		.4byte	0x6c53
 14504 6c53 09       		.uleb128 0x9
 14505 6c54 CD350000 		.4byte	0x35cd
 14506 6c58 56       		.uleb128 0x56
 14507 6c59 553C0000 		.4byte	.LASF1257
 14508 6c5d 10       		.byte	0x10
 14509 6c5e 6A03     		.2byte	0x36a
 14510 6c60 646C0000 		.4byte	0x6c64
 14511 6c64 09       		.uleb128 0x9
 14512 6c65 CD350000 		.4byte	0x35cd
 14513 6c69 56       		.uleb128 0x56
 14514 6c6a 15530000 		.4byte	.LASF1258
 14515 6c6e 10       		.byte	0x10
 14516 6c6f 6B03     		.2byte	0x36b
 14517 6c71 756C0000 		.4byte	0x6c75
 14518 6c75 09       		.uleb128 0x9
 14519 6c76 7E3A0000 		.4byte	0x3a7e
 14520 6c7a 56       		.uleb128 0x56
 14521 6c7b 1C050000 		.4byte	.LASF1259
 14522 6c7f 10       		.byte	0x10
 14523 6c80 6C03     		.2byte	0x36c
 14524 6c82 866C0000 		.4byte	0x6c86
 14525 6c86 09       		.uleb128 0x9
 14526 6c87 F8360000 		.4byte	0x36f8
 14527 6c8b 56       		.uleb128 0x56
 14528 6c8c 92050000 		.4byte	.LASF1260
 14529 6c90 10       		.byte	0x10
 14530 6c91 6D03     		.2byte	0x36d
 14531 6c93 976C0000 		.4byte	0x6c97
 14532 6c97 09       		.uleb128 0x9
 14533 6c98 B5360000 		.4byte	0x36b5
 14534 6c9c 56       		.uleb128 0x56
 14535 6c9d 94550000 		.4byte	.LASF1261
 14536 6ca1 10       		.byte	0x10
 14537 6ca2 6E03     		.2byte	0x36e
 14538 6ca4 A86C0000 		.4byte	0x6ca8
 14539 6ca8 09       		.uleb128 0x9
 14540 6ca9 41360000 		.4byte	0x3641
 14541 6cad 56       		.uleb128 0x56
 14542 6cae 28640000 		.4byte	.LASF1262
 14543 6cb2 10       		.byte	0x10
 14544 6cb3 6F03     		.2byte	0x36f
 14545 6cb5 B96C0000 		.4byte	0x6cb9
 14546 6cb9 09       		.uleb128 0x9
 14547 6cba 7E3A0000 		.4byte	0x3a7e
 14548 6cbe 56       		.uleb128 0x56
 14549 6cbf 660A0000 		.4byte	.LASF1263
 14550 6cc3 10       		.byte	0x10
 14551 6cc4 7003     		.2byte	0x370
 14552 6cc6 CA6C0000 		.4byte	0x6cca
 14553 6cca 09       		.uleb128 0x9
 14554 6ccb EE350000 		.4byte	0x35ee
 14555 6ccf 56       		.uleb128 0x56
ARM GAS  C:\Users\jrdia\AppData\Local\Temp\ccFTvYyK.s 			page 287


 14556 6cd0 0B190000 		.4byte	.LASF1264
 14557 6cd4 10       		.byte	0x10
 14558 6cd5 7103     		.2byte	0x371
 14559 6cd7 DB6C0000 		.4byte	0x6cdb
 14560 6cdb 09       		.uleb128 0x9
 14561 6cdc EE350000 		.4byte	0x35ee
 14562 6ce0 56       		.uleb128 0x56
 14563 6ce1 0C480000 		.4byte	.LASF1265
 14564 6ce5 10       		.byte	0x10
 14565 6ce6 7203     		.2byte	0x372
 14566 6ce8 EC6C0000 		.4byte	0x6cec
 14567 6cec 09       		.uleb128 0x9
 14568 6ced 7E3A0000 		.4byte	0x3a7e
 14569 6cf1 56       		.uleb128 0x56
 14570 6cf2 064A0000 		.4byte	.LASF1266
 14571 6cf6 10       		.byte	0x10
 14572 6cf7 7303     		.2byte	0x373
 14573 6cf9 FD6C0000 		.4byte	0x6cfd
 14574 6cfd 09       		.uleb128 0x9
 14575 6cfe 7E3A0000 		.4byte	0x3a7e
 14576 6d02 56       		.uleb128 0x56
 14577 6d03 25480000 		.4byte	.LASF1267
 14578 6d07 10       		.byte	0x10
 14579 6d08 7403     		.2byte	0x374
 14580 6d0a 0E6D0000 		.4byte	0x6d0e
 14581 6d0e 09       		.uleb128 0x9
 14582 6d0f 7E3A0000 		.4byte	0x3a7e
 14583 6d13 56       		.uleb128 0x56
 14584 6d14 1F4A0000 		.4byte	.LASF1268
 14585 6d18 10       		.byte	0x10
 14586 6d19 7503     		.2byte	0x375
 14587 6d1b 1F6D0000 		.4byte	0x6d1f
 14588 6d1f 09       		.uleb128 0x9
 14589 6d20 7E3A0000 		.4byte	0x3a7e
 14590 6d24 56       		.uleb128 0x56
 14591 6d25 D95E0000 		.4byte	.LASF1269
 14592 6d29 10       		.byte	0x10
 14593 6d2a 7603     		.2byte	0x376
 14594 6d2c 306D0000 		.4byte	0x6d30
 14595 6d30 09       		.uleb128 0x9
 14596 6d31 F8360000 		.4byte	0x36f8
 14597 6d35 56       		.uleb128 0x56
 14598 6d36 E4020000 		.4byte	.LASF1270
 14599 6d3a 10       		.byte	0x10
 14600 6d3b 7703     		.2byte	0x377
 14601 6d3d 416D0000 		.4byte	0x6d41
 14602 6d41 09       		.uleb128 0x9
 14603 6d42 EE350000 		.4byte	0x35ee
 14604 6d46 56       		.uleb128 0x56
 14605 6d47 6A000000 		.4byte	.LASF1271
 14606 6d4b 10       		.byte	0x10
 14607 6d4c 7803     		.2byte	0x378
 14608 6d4e 526D0000 		.4byte	0x6d52
 14609 6d52 09       		.uleb128 0x9
 14610 6d53 0F360000 		.4byte	0x360f
 14611 6d57 56       		.uleb128 0x56
 14612 6d58 DF3C0000 		.4byte	.LASF1272
ARM GAS  C:\Users\jrdia\AppData\Local\Temp\ccFTvYyK.s 			page 288


 14613 6d5c 10       		.byte	0x10
 14614 6d5d 7903     		.2byte	0x379
 14615 6d5f 636D0000 		.4byte	0x6d63
 14616 6d63 09       		.uleb128 0x9
 14617 6d64 41360000 		.4byte	0x3641
 14618 6d68 56       		.uleb128 0x56
 14619 6d69 3F3B0000 		.4byte	.LASF1273
 14620 6d6d 10       		.byte	0x10
 14621 6d6e 7A03     		.2byte	0x37a
 14622 6d70 746D0000 		.4byte	0x6d74
 14623 6d74 09       		.uleb128 0x9
 14624 6d75 41360000 		.4byte	0x3641
 14625 6d79 56       		.uleb128 0x56
 14626 6d7a 675F0000 		.4byte	.LASF1274
 14627 6d7e 10       		.byte	0x10
 14628 6d7f 7B03     		.2byte	0x37b
 14629 6d81 856D0000 		.4byte	0x6d85
 14630 6d85 09       		.uleb128 0x9
 14631 6d86 41360000 		.4byte	0x3641
 14632 6d8a 56       		.uleb128 0x56
 14633 6d8b A3420000 		.4byte	.LASF1275
 14634 6d8f 10       		.byte	0x10
 14635 6d90 7C03     		.2byte	0x37c
 14636 6d92 966D0000 		.4byte	0x6d96
 14637 6d96 09       		.uleb128 0x9
 14638 6d97 7E3A0000 		.4byte	0x3a7e
 14639 6d9b 56       		.uleb128 0x56
 14640 6d9c 04330000 		.4byte	.LASF1276
 14641 6da0 10       		.byte	0x10
 14642 6da1 7F03     		.2byte	0x37f
 14643 6da3 A76D0000 		.4byte	0x6da7
 14644 6da7 09       		.uleb128 0x9
 14645 6da8 7E3A0000 		.4byte	0x3a7e
 14646 6dac 56       		.uleb128 0x56
 14647 6dad D44E0000 		.4byte	.LASF1277
 14648 6db1 10       		.byte	0x10
 14649 6db2 8003     		.2byte	0x380
 14650 6db4 B86D0000 		.4byte	0x6db8
 14651 6db8 09       		.uleb128 0x9
 14652 6db9 B5360000 		.4byte	0x36b5
 14653 6dbd 56       		.uleb128 0x56
 14654 6dbe 8F300000 		.4byte	.LASF1278
 14655 6dc2 10       		.byte	0x10
 14656 6dc3 8103     		.2byte	0x381
 14657 6dc5 C96D0000 		.4byte	0x6dc9
 14658 6dc9 09       		.uleb128 0x9
 14659 6dca 94360000 		.4byte	0x3694
 14660 6dce 56       		.uleb128 0x56
 14661 6dcf 2E380000 		.4byte	.LASF1279
 14662 6dd3 10       		.byte	0x10
 14663 6dd4 8203     		.2byte	0x382
 14664 6dd6 DA6D0000 		.4byte	0x6dda
 14665 6dda 09       		.uleb128 0x9
 14666 6ddb CD350000 		.4byte	0x35cd
 14667 6ddf 56       		.uleb128 0x56
 14668 6de0 69580000 		.4byte	.LASF1280
 14669 6de4 10       		.byte	0x10
ARM GAS  C:\Users\jrdia\AppData\Local\Temp\ccFTvYyK.s 			page 289


 14670 6de5 8303     		.2byte	0x383
 14671 6de7 EB6D0000 		.4byte	0x6deb
 14672 6deb 09       		.uleb128 0x9
 14673 6dec 94360000 		.4byte	0x3694
 14674 6df0 56       		.uleb128 0x56
 14675 6df1 79230000 		.4byte	.LASF1281
 14676 6df5 10       		.byte	0x10
 14677 6df6 8403     		.2byte	0x384
 14678 6df8 FC6D0000 		.4byte	0x6dfc
 14679 6dfc 09       		.uleb128 0x9
 14680 6dfd 73360000 		.4byte	0x3673
 14681 6e01 56       		.uleb128 0x56
 14682 6e02 41380000 		.4byte	.LASF1282
 14683 6e06 10       		.byte	0x10
 14684 6e07 8503     		.2byte	0x385
 14685 6e09 0D6E0000 		.4byte	0x6e0d
 14686 6e0d 09       		.uleb128 0x9
 14687 6e0e 73360000 		.4byte	0x3673
 14688 6e12 56       		.uleb128 0x56
 14689 6e13 BD420000 		.4byte	.LASF1283
 14690 6e17 10       		.byte	0x10
 14691 6e18 8603     		.2byte	0x386
 14692 6e1a 1E6E0000 		.4byte	0x6e1e
 14693 6e1e 09       		.uleb128 0x9
 14694 6e1f 8B350000 		.4byte	0x358b
 14695 6e23 56       		.uleb128 0x56
 14696 6e24 C61E0000 		.4byte	.LASF1284
 14697 6e28 10       		.byte	0x10
 14698 6e29 8703     		.2byte	0x387
 14699 6e2b 2F6E0000 		.4byte	0x6e2f
 14700 6e2f 09       		.uleb128 0x9
 14701 6e30 EE350000 		.4byte	0x35ee
 14702 6e34 56       		.uleb128 0x56
 14703 6e35 45210000 		.4byte	.LASF1285
 14704 6e39 10       		.byte	0x10
 14705 6e3a 8803     		.2byte	0x388
 14706 6e3c 406E0000 		.4byte	0x6e40
 14707 6e40 09       		.uleb128 0x9
 14708 6e41 73360000 		.4byte	0x3673
 14709 6e45 56       		.uleb128 0x56
 14710 6e46 A6120000 		.4byte	.LASF1286
 14711 6e4a 10       		.byte	0x10
 14712 6e4b 8903     		.2byte	0x389
 14713 6e4d 516E0000 		.4byte	0x6e51
 14714 6e51 09       		.uleb128 0x9
 14715 6e52 F8360000 		.4byte	0x36f8
 14716 6e56 56       		.uleb128 0x56
 14717 6e57 6D130000 		.4byte	.LASF1287
 14718 6e5b 10       		.byte	0x10
 14719 6e5c 8B03     		.2byte	0x38b
 14720 6e5e 626E0000 		.4byte	0x6e62
 14721 6e62 09       		.uleb128 0x9
 14722 6e63 8B350000 		.4byte	0x358b
 14723 6e67 56       		.uleb128 0x56
 14724 6e68 45010000 		.4byte	.LASF1288
 14725 6e6c 10       		.byte	0x10
 14726 6e6d 8C03     		.2byte	0x38c
ARM GAS  C:\Users\jrdia\AppData\Local\Temp\ccFTvYyK.s 			page 290


 14727 6e6f 736E0000 		.4byte	0x6e73
 14728 6e73 09       		.uleb128 0x9
 14729 6e74 8B350000 		.4byte	0x358b
 14730 6e78 56       		.uleb128 0x56
 14731 6e79 D70D0000 		.4byte	.LASF1289
 14732 6e7d 10       		.byte	0x10
 14733 6e7e 8D03     		.2byte	0x38d
 14734 6e80 846E0000 		.4byte	0x6e84
 14735 6e84 09       		.uleb128 0x9
 14736 6e85 7E3A0000 		.4byte	0x3a7e
 14737 6e89 56       		.uleb128 0x56
 14738 6e8a 1B0A0000 		.4byte	.LASF1290
 14739 6e8e 10       		.byte	0x10
 14740 6e8f 8E03     		.2byte	0x38e
 14741 6e91 956E0000 		.4byte	0x6e95
 14742 6e95 09       		.uleb128 0x9
 14743 6e96 7E3A0000 		.4byte	0x3a7e
 14744 6e9a 56       		.uleb128 0x56
 14745 6e9b E6570000 		.4byte	.LASF1291
 14746 6e9f 10       		.byte	0x10
 14747 6ea0 8F03     		.2byte	0x38f
 14748 6ea2 A66E0000 		.4byte	0x6ea6
 14749 6ea6 09       		.uleb128 0x9
 14750 6ea7 3B370000 		.4byte	0x373b
 14751 6eab 56       		.uleb128 0x56
 14752 6eac 03410000 		.4byte	.LASF1292
 14753 6eb0 10       		.byte	0x10
 14754 6eb1 9003     		.2byte	0x390
 14755 6eb3 B76E0000 		.4byte	0x6eb7
 14756 6eb7 09       		.uleb128 0x9
 14757 6eb8 EE350000 		.4byte	0x35ee
 14758 6ebc 56       		.uleb128 0x56
 14759 6ebd 780D0000 		.4byte	.LASF1293
 14760 6ec1 10       		.byte	0x10
 14761 6ec2 9103     		.2byte	0x391
 14762 6ec4 C86E0000 		.4byte	0x6ec8
 14763 6ec8 09       		.uleb128 0x9
 14764 6ec9 EE350000 		.4byte	0x35ee
 14765 6ecd 56       		.uleb128 0x56
 14766 6ece 40300000 		.4byte	.LASF1294
 14767 6ed2 10       		.byte	0x10
 14768 6ed3 9203     		.2byte	0x392
 14769 6ed5 D96E0000 		.4byte	0x6ed9
 14770 6ed9 09       		.uleb128 0x9
 14771 6eda AC350000 		.4byte	0x35ac
 14772 6ede 56       		.uleb128 0x56
 14773 6edf 6F050000 		.4byte	.LASF1295
 14774 6ee3 10       		.byte	0x10
 14775 6ee4 9303     		.2byte	0x393
 14776 6ee6 EA6E0000 		.4byte	0x6eea
 14777 6eea 09       		.uleb128 0x9
 14778 6eeb AC350000 		.4byte	0x35ac
 14779 6eef 56       		.uleb128 0x56
 14780 6ef0 B2630000 		.4byte	.LASF1296
 14781 6ef4 10       		.byte	0x10
 14782 6ef5 9403     		.2byte	0x394
 14783 6ef7 FB6E0000 		.4byte	0x6efb
ARM GAS  C:\Users\jrdia\AppData\Local\Temp\ccFTvYyK.s 			page 291


 14784 6efb 09       		.uleb128 0x9
 14785 6efc CB3E0000 		.4byte	0x3ecb
 14786 6f00 56       		.uleb128 0x56
 14787 6f01 803A0000 		.4byte	.LASF1297
 14788 6f05 10       		.byte	0x10
 14789 6f06 9503     		.2byte	0x395
 14790 6f08 0C6F0000 		.4byte	0x6f0c
 14791 6f0c 09       		.uleb128 0x9
 14792 6f0d CB3E0000 		.4byte	0x3ecb
 14793 6f11 56       		.uleb128 0x56
 14794 6f12 21650000 		.4byte	.LASF1298
 14795 6f16 10       		.byte	0x10
 14796 6f17 9603     		.2byte	0x396
 14797 6f19 1D6F0000 		.4byte	0x6f1d
 14798 6f1d 09       		.uleb128 0x9
 14799 6f1e 8D380000 		.4byte	0x388d
 14800 6f22 56       		.uleb128 0x56
 14801 6f23 87230000 		.4byte	.LASF1299
 14802 6f27 10       		.byte	0x10
 14803 6f28 9703     		.2byte	0x397
 14804 6f2a 2E6F0000 		.4byte	0x6f2e
 14805 6f2e 09       		.uleb128 0x9
 14806 6f2f 8D380000 		.4byte	0x388d
 14807 6f33 56       		.uleb128 0x56
 14808 6f34 FA080000 		.4byte	.LASF1300
 14809 6f38 10       		.byte	0x10
 14810 6f39 9803     		.2byte	0x398
 14811 6f3b 3F6F0000 		.4byte	0x6f3f
 14812 6f3f 09       		.uleb128 0x9
 14813 6f40 0F360000 		.4byte	0x360f
 14814 6f44 56       		.uleb128 0x56
 14815 6f45 711B0000 		.4byte	.LASF1301
 14816 6f49 10       		.byte	0x10
 14817 6f4a 9903     		.2byte	0x399
 14818 6f4c 506F0000 		.4byte	0x6f50
 14819 6f50 09       		.uleb128 0x9
 14820 6f51 0F360000 		.4byte	0x360f
 14821 6f55 56       		.uleb128 0x56
 14822 6f56 730C0000 		.4byte	.LASF1302
 14823 6f5a 10       		.byte	0x10
 14824 6f5b 9A03     		.2byte	0x39a
 14825 6f5d 616F0000 		.4byte	0x6f61
 14826 6f61 09       		.uleb128 0x9
 14827 6f62 41360000 		.4byte	0x3641
 14828 6f66 56       		.uleb128 0x56
 14829 6f67 FA250000 		.4byte	.LASF1303
 14830 6f6b 10       		.byte	0x10
 14831 6f6c 9B03     		.2byte	0x39b
 14832 6f6e 726F0000 		.4byte	0x6f72
 14833 6f72 09       		.uleb128 0x9
 14834 6f73 41360000 		.4byte	0x3641
 14835 6f77 2F       		.uleb128 0x2f
 14836 6f78 EA0E0000 		.4byte	0xeea
 14837 6f7c 876F0000 		.4byte	0x6f87
 14838 6f80 30       		.uleb128 0x30
 14839 6f81 01010000 		.4byte	0x101
 14840 6f85 11       		.byte	0x11
ARM GAS  C:\Users\jrdia\AppData\Local\Temp\ccFTvYyK.s 			page 292


 14841 6f86 00       		.byte	0
 14842 6f87 8601     		.uleb128 0x86
 14843 6f89 3D1F0000 		.4byte	.LASF1304
 14844 6f8d 03       		.byte	0x3
 14845 6f8e 19       		.byte	0x19
 14846 6f8f A66F0000 		.4byte	0x6fa6
 14847 6f93 12       		.byte	0x12
 14848 6f94 00       		.byte	0
 14849 6f95 01       		.byte	0x1
 14850 6f96 02       		.byte	0x2
 14851 6f97 03       		.byte	0x3
 14852 6f98 0C       		.byte	0xc
 14853 6f99 0D       		.byte	0xd
 14854 6f9a 0E       		.byte	0xe
 14855 6f9b 0F       		.byte	0xf
 14856 6f9c 0A       		.byte	0xa
 14857 6f9d 0B       		.byte	0xb
 14858 6f9e 08       		.byte	0x8
 14859 6f9f 09       		.byte	0x9
 14860 6fa0 07       		.byte	0x7
 14861 6fa1 06       		.byte	0x6
 14862 6fa2 05       		.byte	0x5
 14863 6fa3 04       		.byte	0x4
 14864 6fa4 10       		.byte	0x10
 14865 6fa5 11       		.byte	0x11
 14866 6fa6 09       		.uleb128 0x9
 14867 6fa7 776F0000 		.4byte	0x6f77
 14868 6fab 8201     		.uleb128 0x82
 14869 6fad 55736200 		.ascii	"Usb\000"
 14870 6fb1 05       		.byte	0x5
 14871 6fb2 47       		.byte	0x47
 14872 6fb3 1F070000 		.4byte	0x71f
 14873 6fb7 05       		.uleb128 0x5
 14874 6fb8 03       		.byte	0x3
 14875 6fb9 00000000 		.4byte	Usb
 14876 6fbd 8201     		.uleb128 0x82
 14877 6fbf 42746400 		.ascii	"Btd\000"
 14878 6fc3 05       		.byte	0x5
 14879 6fc4 48       		.byte	0x48
 14880 6fc5 511A0000 		.4byte	0x1a51
 14881 6fc9 05       		.uleb128 0x5
 14882 6fca 03       		.byte	0x3
 14883 6fcb 00000000 		.4byte	Btd
 14884 6fcf 8201     		.uleb128 0x82
 14885 6fd1 50533400 		.ascii	"PS4\000"
 14886 6fd5 05       		.byte	0x5
 14887 6fd6 49       		.byte	0x49
 14888 6fd7 6F140000 		.4byte	0x146f
 14889 6fdb 05       		.uleb128 0x5
 14890 6fdc 03       		.byte	0x3
 14891 6fdd 00000000 		.4byte	PS4
 14892 6fe1 8101     		.uleb128 0x81
 14893 6fe3 91680000 		.4byte	.LASF1305
 14894 6fe7 05       		.byte	0x5
 14895 6fe8 4B       		.byte	0x4b
 14896 6fe9 1C010000 		.4byte	0x11c
 14897 6fed 05       		.uleb128 0x5
ARM GAS  C:\Users\jrdia\AppData\Local\Temp\ccFTvYyK.s 			page 293


 14898 6fee 03       		.byte	0x3
 14899 6fef 00000000 		.4byte	printAngle
 14900 6ff3 8101     		.uleb128 0x81
 14901 6ff5 BE360000 		.4byte	.LASF1306
 14902 6ff9 05       		.byte	0x5
 14903 6ffa 4B       		.byte	0x4b
 14904 6ffb 1C010000 		.4byte	0x11c
 14905 6fff 05       		.uleb128 0x5
 14906 7000 03       		.byte	0x3
 14907 7001 00000000 		.4byte	printTouch
 14908 7005 8101     		.uleb128 0x81
 14909 7007 D6480000 		.4byte	.LASF1307
 14910 700b 05       		.byte	0x5
 14911 700c 4C       		.byte	0x4c
 14912 700d AD000000 		.4byte	0xad
 14913 7011 05       		.uleb128 0x5
 14914 7012 03       		.byte	0x3
 14915 7013 00000000 		.4byte	oldL2Value
 14916 7017 8101     		.uleb128 0x81
 14917 7019 0F3B0000 		.4byte	.LASF1308
 14918 701d 05       		.byte	0x5
 14919 701e 4C       		.byte	0x4c
 14920 701f AD000000 		.4byte	0xad
 14921 7023 05       		.uleb128 0x5
 14922 7024 03       		.byte	0x3
 14923 7025 00000000 		.4byte	oldR2Value
 14924 7029 8701     		.uleb128 0x87
 14925 702b DF040000 		.4byte	0x4df
 14926 702f D7390000 		.4byte	.LASF1337
 14927 7033 05       		.uleb128 0x5
 14928 7034 03       		.byte	0x3
 14929 7035 00000000 		.4byte	_ZN8MAX3421eI4TPinI5PortbLh2EES0_IS1_Lh1EEE9vbusStateE
 14930 7039 8801     		.uleb128 0x88
 14931 703b A7340000 		.4byte	.LASF1338
 14932 703f A7340000 		.4byte	.LASF1338
 14933 7043 8901     		.uleb128 0x89
 14934 7045 494B0000 		.4byte	.LASF1309
 14935 7049 494B0000 		.4byte	.LASF1309
 14936 704d 11       		.byte	0x11
 14937 704e DA       		.byte	0xda
 14938 704f 8901     		.uleb128 0x89
 14939 7051 D7210000 		.4byte	.LASF1310
 14940 7055 D7210000 		.4byte	.LASF1310
 14941 7059 12       		.byte	0x12
 14942 705a 33       		.byte	0x33
 14943 705b 8901     		.uleb128 0x89
 14944 705d C4280000 		.4byte	.LASF1311
 14945 7061 C4280000 		.4byte	.LASF1311
 14946 7065 13       		.byte	0x13
 14947 7066 5E       		.byte	0x5e
 14948 7067 8901     		.uleb128 0x89
 14949 7069 29060000 		.4byte	.LASF1312
 14950 706d 29060000 		.4byte	.LASF1312
 14951 7071 13       		.byte	0x13
 14952 7072 64       		.byte	0x64
 14953 7073 8901     		.uleb128 0x89
 14954 7075 9A0F0000 		.4byte	.LASF1313
ARM GAS  C:\Users\jrdia\AppData\Local\Temp\ccFTvYyK.s 			page 294


 14955 7079 9A0F0000 		.4byte	.LASF1313
 14956 707d 13       		.byte	0x13
 14957 707e 62       		.byte	0x62
 14958 707f 8901     		.uleb128 0x89
 14959 7081 690D0000 		.4byte	.LASF1314
 14960 7085 690D0000 		.4byte	.LASF1314
 14961 7089 13       		.byte	0x13
 14962 708a 60       		.byte	0x60
 14963 708b 8A01     		.uleb128 0x8a
 14964 708d 744B0000 		.4byte	.LASF1315
 14965 7091 744B0000 		.4byte	.LASF1315
 14966 7095 14       		.byte	0x14
 14967 7096 2103     		.2byte	0x321
 14968 7098 8A01     		.uleb128 0x8a
 14969 709a 4D130000 		.4byte	.LASF1316
 14970 709e 4D130000 		.4byte	.LASF1316
 14971 70a2 15       		.byte	0x15
 14972 70a3 4601     		.2byte	0x146
 14973 70a5 8A01     		.uleb128 0x8a
 14974 70a7 40100000 		.4byte	.LASF1317
 14975 70ab 40100000 		.4byte	.LASF1317
 14976 70af 15       		.byte	0x15
 14977 70b0 4701     		.2byte	0x147
 14978 70b2 8901     		.uleb128 0x89
 14979 70b4 5A500000 		.4byte	.LASF1318
 14980 70b8 5A500000 		.4byte	.LASF1318
 14981 70bc 13       		.byte	0x13
 14982 70bd 4D       		.byte	0x4d
 14983 70be 8A01     		.uleb128 0x8a
 14984 70c0 9C090000 		.4byte	.LASF1319
 14985 70c4 9C090000 		.4byte	.LASF1319
 14986 70c8 16       		.byte	0x16
 14987 70c9 1D01     		.2byte	0x11d
 14988 70cb 8A01     		.uleb128 0x8a
 14989 70cd 11440000 		.4byte	.LASF1320
 14990 70d1 11440000 		.4byte	.LASF1320
 14991 70d5 15       		.byte	0x15
 14992 70d6 3201     		.2byte	0x132
 14993 70d8 8901     		.uleb128 0x89
 14994 70da 89550000 		.4byte	.LASF1321
 14995 70de 89550000 		.4byte	.LASF1321
 14996 70e2 17       		.byte	0x17
 14997 70e3 6E       		.byte	0x6e
 14998 70e4 00       		.byte	0
 14999              		.section	.debug_abbrev,"",%progbits
 15000              	.Ldebug_abbrev0:
 15001 0000 01       		.uleb128 0x1
 15002 0001 11       		.uleb128 0x11
 15003 0002 01       		.byte	0x1
 15004 0003 25       		.uleb128 0x25
 15005 0004 0E       		.uleb128 0xe
 15006 0005 13       		.uleb128 0x13
 15007 0006 0B       		.uleb128 0xb
 15008 0007 03       		.uleb128 0x3
 15009 0008 0E       		.uleb128 0xe
 15010 0009 1B       		.uleb128 0x1b
 15011 000a 0E       		.uleb128 0xe
ARM GAS  C:\Users\jrdia\AppData\Local\Temp\ccFTvYyK.s 			page 295


 15012 000b 55       		.uleb128 0x55
 15013 000c 17       		.uleb128 0x17
 15014 000d 11       		.uleb128 0x11
 15015 000e 01       		.uleb128 0x1
 15016 000f 10       		.uleb128 0x10
 15017 0010 17       		.uleb128 0x17
 15018 0011 00       		.byte	0
 15019 0012 00       		.byte	0
 15020 0013 02       		.uleb128 0x2
 15021 0014 16       		.uleb128 0x16
 15022 0015 00       		.byte	0
 15023 0016 03       		.uleb128 0x3
 15024 0017 0E       		.uleb128 0xe
 15025 0018 3A       		.uleb128 0x3a
 15026 0019 0B       		.uleb128 0xb
 15027 001a 3B       		.uleb128 0x3b
 15028 001b 0B       		.uleb128 0xb
 15029 001c 49       		.uleb128 0x49
 15030 001d 13       		.uleb128 0x13
 15031 001e 00       		.byte	0
 15032 001f 00       		.byte	0
 15033 0020 03       		.uleb128 0x3
 15034 0021 24       		.uleb128 0x24
 15035 0022 00       		.byte	0
 15036 0023 0B       		.uleb128 0xb
 15037 0024 0B       		.uleb128 0xb
 15038 0025 3E       		.uleb128 0x3e
 15039 0026 0B       		.uleb128 0xb
 15040 0027 03       		.uleb128 0x3
 15041 0028 0E       		.uleb128 0xe
 15042 0029 00       		.byte	0
 15043 002a 00       		.byte	0
 15044 002b 04       		.uleb128 0x4
 15045 002c 24       		.uleb128 0x24
 15046 002d 00       		.byte	0
 15047 002e 0B       		.uleb128 0xb
 15048 002f 0B       		.uleb128 0xb
 15049 0030 3E       		.uleb128 0x3e
 15050 0031 0B       		.uleb128 0xb
 15051 0032 03       		.uleb128 0x3
 15052 0033 08       		.uleb128 0x8
 15053 0034 00       		.byte	0
 15054 0035 00       		.byte	0
 15055 0036 05       		.uleb128 0x5
 15056 0037 16       		.uleb128 0x16
 15057 0038 00       		.byte	0
 15058 0039 03       		.uleb128 0x3
 15059 003a 0E       		.uleb128 0xe
 15060 003b 3A       		.uleb128 0x3a
 15061 003c 0B       		.uleb128 0xb
 15062 003d 3B       		.uleb128 0x3b
 15063 003e 05       		.uleb128 0x5
 15064 003f 49       		.uleb128 0x49
 15065 0040 13       		.uleb128 0x13
 15066 0041 00       		.byte	0
 15067 0042 00       		.byte	0
 15068 0043 06       		.uleb128 0x6
ARM GAS  C:\Users\jrdia\AppData\Local\Temp\ccFTvYyK.s 			page 296


 15069 0044 0F       		.uleb128 0xf
 15070 0045 00       		.byte	0
 15071 0046 0B       		.uleb128 0xb
 15072 0047 0B       		.uleb128 0xb
 15073 0048 49       		.uleb128 0x49
 15074 0049 13       		.uleb128 0x13
 15075 004a 00       		.byte	0
 15076 004b 00       		.byte	0
 15077 004c 07       		.uleb128 0x7
 15078 004d 15       		.uleb128 0x15
 15079 004e 00       		.byte	0
 15080 004f 00       		.byte	0
 15081 0050 00       		.byte	0
 15082 0051 08       		.uleb128 0x8
 15083 0052 0F       		.uleb128 0xf
 15084 0053 00       		.byte	0
 15085 0054 0B       		.uleb128 0xb
 15086 0055 0B       		.uleb128 0xb
 15087 0056 00       		.byte	0
 15088 0057 00       		.byte	0
 15089 0058 09       		.uleb128 0x9
 15090 0059 26       		.uleb128 0x26
 15091 005a 00       		.byte	0
 15092 005b 49       		.uleb128 0x49
 15093 005c 13       		.uleb128 0x13
 15094 005d 00       		.byte	0
 15095 005e 00       		.byte	0
 15096 005f 0A       		.uleb128 0xa
 15097 0060 04       		.uleb128 0x4
 15098 0061 01       		.byte	0x1
 15099 0062 03       		.uleb128 0x3
 15100 0063 0E       		.uleb128 0xe
 15101 0064 0B       		.uleb128 0xb
 15102 0065 0B       		.uleb128 0xb
 15103 0066 49       		.uleb128 0x49
 15104 0067 13       		.uleb128 0x13
 15105 0068 3A       		.uleb128 0x3a
 15106 0069 0B       		.uleb128 0xb
 15107 006a 3B       		.uleb128 0x3b
 15108 006b 0B       		.uleb128 0xb
 15109 006c 01       		.uleb128 0x1
 15110 006d 13       		.uleb128 0x13
 15111 006e 00       		.byte	0
 15112 006f 00       		.byte	0
 15113 0070 0B       		.uleb128 0xb
 15114 0071 28       		.uleb128 0x28
 15115 0072 00       		.byte	0
 15116 0073 03       		.uleb128 0x3
 15117 0074 0E       		.uleb128 0xe
 15118 0075 1C       		.uleb128 0x1c
 15119 0076 0B       		.uleb128 0xb
 15120 0077 00       		.byte	0
 15121 0078 00       		.byte	0
 15122 0079 0C       		.uleb128 0xc
 15123 007a 13       		.uleb128 0x13
 15124 007b 01       		.byte	0x1
 15125 007c 03       		.uleb128 0x3
ARM GAS  C:\Users\jrdia\AppData\Local\Temp\ccFTvYyK.s 			page 297


 15126 007d 0E       		.uleb128 0xe
 15127 007e 0B       		.uleb128 0xb
 15128 007f 0B       		.uleb128 0xb
 15129 0080 3A       		.uleb128 0x3a
 15130 0081 0B       		.uleb128 0xb
 15131 0082 3B       		.uleb128 0x3b
 15132 0083 0B       		.uleb128 0xb
 15133 0084 01       		.uleb128 0x1
 15134 0085 13       		.uleb128 0x13
 15135 0086 00       		.byte	0
 15136 0087 00       		.byte	0
 15137 0088 0D       		.uleb128 0xd
 15138 0089 17       		.uleb128 0x17
 15139 008a 01       		.byte	0x1
 15140 008b 0B       		.uleb128 0xb
 15141 008c 0B       		.uleb128 0xb
 15142 008d 3A       		.uleb128 0x3a
 15143 008e 0B       		.uleb128 0xb
 15144 008f 3B       		.uleb128 0x3b
 15145 0090 0B       		.uleb128 0xb
 15146 0091 01       		.uleb128 0x1
 15147 0092 13       		.uleb128 0x13
 15148 0093 00       		.byte	0
 15149 0094 00       		.byte	0
 15150 0095 0E       		.uleb128 0xe
 15151 0096 13       		.uleb128 0x13
 15152 0097 01       		.byte	0x1
 15153 0098 0B       		.uleb128 0xb
 15154 0099 0B       		.uleb128 0xb
 15155 009a 3A       		.uleb128 0x3a
 15156 009b 0B       		.uleb128 0xb
 15157 009c 3B       		.uleb128 0x3b
 15158 009d 0B       		.uleb128 0xb
 15159 009e 01       		.uleb128 0x1
 15160 009f 13       		.uleb128 0x13
 15161 00a0 00       		.byte	0
 15162 00a1 00       		.byte	0
 15163 00a2 0F       		.uleb128 0xf
 15164 00a3 0D       		.uleb128 0xd
 15165 00a4 00       		.byte	0
 15166 00a5 03       		.uleb128 0x3
 15167 00a6 0E       		.uleb128 0xe
 15168 00a7 3A       		.uleb128 0x3a
 15169 00a8 0B       		.uleb128 0xb
 15170 00a9 3B       		.uleb128 0x3b
 15171 00aa 0B       		.uleb128 0xb
 15172 00ab 49       		.uleb128 0x49
 15173 00ac 13       		.uleb128 0x13
 15174 00ad 0B       		.uleb128 0xb
 15175 00ae 0B       		.uleb128 0xb
 15176 00af 0D       		.uleb128 0xd
 15177 00b0 0B       		.uleb128 0xb
 15178 00b1 0C       		.uleb128 0xc
 15179 00b2 0B       		.uleb128 0xb
 15180 00b3 38       		.uleb128 0x38
 15181 00b4 0B       		.uleb128 0xb
 15182 00b5 00       		.byte	0
ARM GAS  C:\Users\jrdia\AppData\Local\Temp\ccFTvYyK.s 			page 298


 15183 00b6 00       		.byte	0
 15184 00b7 10       		.uleb128 0x10
 15185 00b8 0D       		.uleb128 0xd
 15186 00b9 00       		.byte	0
 15187 00ba 03       		.uleb128 0x3
 15188 00bb 0E       		.uleb128 0xe
 15189 00bc 3A       		.uleb128 0x3a
 15190 00bd 0B       		.uleb128 0xb
 15191 00be 3B       		.uleb128 0x3b
 15192 00bf 0B       		.uleb128 0xb
 15193 00c0 49       		.uleb128 0x49
 15194 00c1 13       		.uleb128 0x13
 15195 00c2 00       		.byte	0
 15196 00c3 00       		.byte	0
 15197 00c4 11       		.uleb128 0x11
 15198 00c5 0D       		.uleb128 0xd
 15199 00c6 00       		.byte	0
 15200 00c7 49       		.uleb128 0x49
 15201 00c8 13       		.uleb128 0x13
 15202 00c9 00       		.byte	0
 15203 00ca 00       		.byte	0
 15204 00cb 12       		.uleb128 0x12
 15205 00cc 0D       		.uleb128 0xd
 15206 00cd 00       		.byte	0
 15207 00ce 03       		.uleb128 0x3
 15208 00cf 0E       		.uleb128 0xe
 15209 00d0 3A       		.uleb128 0x3a
 15210 00d1 0B       		.uleb128 0xb
 15211 00d2 3B       		.uleb128 0x3b
 15212 00d3 0B       		.uleb128 0xb
 15213 00d4 49       		.uleb128 0x49
 15214 00d5 13       		.uleb128 0x13
 15215 00d6 38       		.uleb128 0x38
 15216 00d7 0B       		.uleb128 0xb
 15217 00d8 00       		.byte	0
 15218 00d9 00       		.byte	0
 15219 00da 13       		.uleb128 0x13
 15220 00db 0D       		.uleb128 0xd
 15221 00dc 00       		.byte	0
 15222 00dd 49       		.uleb128 0x49
 15223 00de 13       		.uleb128 0x13
 15224 00df 38       		.uleb128 0x38
 15225 00e0 0B       		.uleb128 0xb
 15226 00e1 00       		.byte	0
 15227 00e2 00       		.byte	0
 15228 00e3 14       		.uleb128 0x14
 15229 00e4 15       		.uleb128 0x15
 15230 00e5 01       		.byte	0x1
 15231 00e6 01       		.uleb128 0x1
 15232 00e7 13       		.uleb128 0x13
 15233 00e8 00       		.byte	0
 15234 00e9 00       		.byte	0
 15235 00ea 15       		.uleb128 0x15
 15236 00eb 05       		.uleb128 0x5
 15237 00ec 00       		.byte	0
 15238 00ed 49       		.uleb128 0x49
 15239 00ee 13       		.uleb128 0x13
ARM GAS  C:\Users\jrdia\AppData\Local\Temp\ccFTvYyK.s 			page 299


 15240 00ef 00       		.byte	0
 15241 00f0 00       		.byte	0
 15242 00f1 16       		.uleb128 0x16
 15243 00f2 02       		.uleb128 0x2
 15244 00f3 01       		.byte	0x1
 15245 00f4 03       		.uleb128 0x3
 15246 00f5 0E       		.uleb128 0xe
 15247 00f6 0B       		.uleb128 0xb
 15248 00f7 0B       		.uleb128 0xb
 15249 00f8 3A       		.uleb128 0x3a
 15250 00f9 0B       		.uleb128 0xb
 15251 00fa 3B       		.uleb128 0x3b
 15252 00fb 0B       		.uleb128 0xb
 15253 00fc 01       		.uleb128 0x1
 15254 00fd 13       		.uleb128 0x13
 15255 00fe 00       		.byte	0
 15256 00ff 00       		.byte	0
 15257 0100 17       		.uleb128 0x17
 15258 0101 16       		.uleb128 0x16
 15259 0102 00       		.byte	0
 15260 0103 03       		.uleb128 0x3
 15261 0104 0E       		.uleb128 0xe
 15262 0105 3A       		.uleb128 0x3a
 15263 0106 0B       		.uleb128 0xb
 15264 0107 3B       		.uleb128 0x3b
 15265 0108 0B       		.uleb128 0xb
 15266 0109 49       		.uleb128 0x49
 15267 010a 13       		.uleb128 0x13
 15268 010b 32       		.uleb128 0x32
 15269 010c 0B       		.uleb128 0xb
 15270 010d 00       		.byte	0
 15271 010e 00       		.byte	0
 15272 010f 18       		.uleb128 0x18
 15273 0110 2E       		.uleb128 0x2e
 15274 0111 01       		.byte	0x1
 15275 0112 3F       		.uleb128 0x3f
 15276 0113 19       		.uleb128 0x19
 15277 0114 03       		.uleb128 0x3
 15278 0115 0E       		.uleb128 0xe
 15279 0116 3A       		.uleb128 0x3a
 15280 0117 0B       		.uleb128 0xb
 15281 0118 3B       		.uleb128 0x3b
 15282 0119 0B       		.uleb128 0xb
 15283 011a 6E       		.uleb128 0x6e
 15284 011b 0E       		.uleb128 0xe
 15285 011c 32       		.uleb128 0x32
 15286 011d 0B       		.uleb128 0xb
 15287 011e 3C       		.uleb128 0x3c
 15288 011f 19       		.uleb128 0x19
 15289 0120 01       		.uleb128 0x1
 15290 0121 13       		.uleb128 0x13
 15291 0122 00       		.byte	0
 15292 0123 00       		.byte	0
 15293 0124 19       		.uleb128 0x19
 15294 0125 2E       		.uleb128 0x2e
 15295 0126 00       		.byte	0
 15296 0127 3F       		.uleb128 0x3f
ARM GAS  C:\Users\jrdia\AppData\Local\Temp\ccFTvYyK.s 			page 300


 15297 0128 19       		.uleb128 0x19
 15298 0129 03       		.uleb128 0x3
 15299 012a 0E       		.uleb128 0xe
 15300 012b 3A       		.uleb128 0x3a
 15301 012c 0B       		.uleb128 0xb
 15302 012d 3B       		.uleb128 0x3b
 15303 012e 0B       		.uleb128 0xb
 15304 012f 6E       		.uleb128 0x6e
 15305 0130 0E       		.uleb128 0xe
 15306 0131 49       		.uleb128 0x49
 15307 0132 13       		.uleb128 0x13
 15308 0133 32       		.uleb128 0x32
 15309 0134 0B       		.uleb128 0xb
 15310 0135 3C       		.uleb128 0x3c
 15311 0136 19       		.uleb128 0x19
 15312 0137 00       		.byte	0
 15313 0138 00       		.byte	0
 15314 0139 1A       		.uleb128 0x1a
 15315 013a 2E       		.uleb128 0x2e
 15316 013b 01       		.byte	0x1
 15317 013c 3F       		.uleb128 0x3f
 15318 013d 19       		.uleb128 0x19
 15319 013e 03       		.uleb128 0x3
 15320 013f 08       		.uleb128 0x8
 15321 0140 3A       		.uleb128 0x3a
 15322 0141 0B       		.uleb128 0xb
 15323 0142 3B       		.uleb128 0x3b
 15324 0143 0B       		.uleb128 0xb
 15325 0144 6E       		.uleb128 0x6e
 15326 0145 0E       		.uleb128 0xe
 15327 0146 32       		.uleb128 0x32
 15328 0147 0B       		.uleb128 0xb
 15329 0148 3C       		.uleb128 0x3c
 15330 0149 19       		.uleb128 0x19
 15331 014a 01       		.uleb128 0x1
 15332 014b 13       		.uleb128 0x13
 15333 014c 00       		.byte	0
 15334 014d 00       		.byte	0
 15335 014e 1B       		.uleb128 0x1b
 15336 014f 02       		.uleb128 0x2
 15337 0150 00       		.byte	0
 15338 0151 03       		.uleb128 0x3
 15339 0152 0E       		.uleb128 0xe
 15340 0153 3C       		.uleb128 0x3c
 15341 0154 19       		.uleb128 0x19
 15342 0155 00       		.byte	0
 15343 0156 00       		.byte	0
 15344 0157 1C       		.uleb128 0x1c
 15345 0158 2E       		.uleb128 0x2e
 15346 0159 00       		.byte	0
 15347 015a 3F       		.uleb128 0x3f
 15348 015b 19       		.uleb128 0x19
 15349 015c 03       		.uleb128 0x3
 15350 015d 08       		.uleb128 0x8
 15351 015e 3A       		.uleb128 0x3a
 15352 015f 0B       		.uleb128 0xb
 15353 0160 3B       		.uleb128 0x3b
ARM GAS  C:\Users\jrdia\AppData\Local\Temp\ccFTvYyK.s 			page 301


 15354 0161 0B       		.uleb128 0xb
 15355 0162 6E       		.uleb128 0x6e
 15356 0163 0E       		.uleb128 0xe
 15357 0164 32       		.uleb128 0x32
 15358 0165 0B       		.uleb128 0xb
 15359 0166 3C       		.uleb128 0x3c
 15360 0167 19       		.uleb128 0x19
 15361 0168 00       		.byte	0
 15362 0169 00       		.byte	0
 15363 016a 1D       		.uleb128 0x1d
 15364 016b 2E       		.uleb128 0x2e
 15365 016c 00       		.byte	0
 15366 016d 3F       		.uleb128 0x3f
 15367 016e 19       		.uleb128 0x19
 15368 016f 03       		.uleb128 0x3
 15369 0170 0E       		.uleb128 0xe
 15370 0171 3A       		.uleb128 0x3a
 15371 0172 0B       		.uleb128 0xb
 15372 0173 3B       		.uleb128 0x3b
 15373 0174 0B       		.uleb128 0xb
 15374 0175 6E       		.uleb128 0x6e
 15375 0176 0E       		.uleb128 0xe
 15376 0177 32       		.uleb128 0x32
 15377 0178 0B       		.uleb128 0xb
 15378 0179 3C       		.uleb128 0x3c
 15379 017a 19       		.uleb128 0x19
 15380 017b 00       		.byte	0
 15381 017c 00       		.byte	0
 15382 017d 1E       		.uleb128 0x1e
 15383 017e 2F       		.uleb128 0x2f
 15384 017f 00       		.byte	0
 15385 0180 03       		.uleb128 0x3
 15386 0181 0E       		.uleb128 0xe
 15387 0182 49       		.uleb128 0x49
 15388 0183 13       		.uleb128 0x13
 15389 0184 00       		.byte	0
 15390 0185 00       		.byte	0
 15391 0186 1F       		.uleb128 0x1f
 15392 0187 30       		.uleb128 0x30
 15393 0188 00       		.byte	0
 15394 0189 03       		.uleb128 0x3
 15395 018a 08       		.uleb128 0x8
 15396 018b 49       		.uleb128 0x49
 15397 018c 13       		.uleb128 0x13
 15398 018d 1C       		.uleb128 0x1c
 15399 018e 0B       		.uleb128 0xb
 15400 018f 00       		.byte	0
 15401 0190 00       		.byte	0
 15402 0191 20       		.uleb128 0x20
 15403 0192 04       		.uleb128 0x4
 15404 0193 01       		.byte	0x1
 15405 0194 0B       		.uleb128 0xb
 15406 0195 0B       		.uleb128 0xb
 15407 0196 49       		.uleb128 0x49
 15408 0197 13       		.uleb128 0x13
 15409 0198 3A       		.uleb128 0x3a
 15410 0199 0B       		.uleb128 0xb
ARM GAS  C:\Users\jrdia\AppData\Local\Temp\ccFTvYyK.s 			page 302


 15411 019a 3B       		.uleb128 0x3b
 15412 019b 0B       		.uleb128 0xb
 15413 019c 6E       		.uleb128 0x6e
 15414 019d 0E       		.uleb128 0xe
 15415 019e 01       		.uleb128 0x1
 15416 019f 13       		.uleb128 0x13
 15417 01a0 00       		.byte	0
 15418 01a1 00       		.byte	0
 15419 01a2 21       		.uleb128 0x21
 15420 01a3 0D       		.uleb128 0xd
 15421 01a4 00       		.byte	0
 15422 01a5 03       		.uleb128 0x3
 15423 01a6 0E       		.uleb128 0xe
 15424 01a7 3A       		.uleb128 0x3a
 15425 01a8 0B       		.uleb128 0xb
 15426 01a9 3B       		.uleb128 0x3b
 15427 01aa 0B       		.uleb128 0xb
 15428 01ab 49       		.uleb128 0x49
 15429 01ac 13       		.uleb128 0x13
 15430 01ad 3F       		.uleb128 0x3f
 15431 01ae 19       		.uleb128 0x19
 15432 01af 3C       		.uleb128 0x3c
 15433 01b0 19       		.uleb128 0x19
 15434 01b1 00       		.byte	0
 15435 01b2 00       		.byte	0
 15436 01b3 22       		.uleb128 0x22
 15437 01b4 2E       		.uleb128 0x2e
 15438 01b5 01       		.byte	0x1
 15439 01b6 3F       		.uleb128 0x3f
 15440 01b7 19       		.uleb128 0x19
 15441 01b8 03       		.uleb128 0x3
 15442 01b9 0E       		.uleb128 0xe
 15443 01ba 3A       		.uleb128 0x3a
 15444 01bb 0B       		.uleb128 0xb
 15445 01bc 3B       		.uleb128 0x3b
 15446 01bd 0B       		.uleb128 0xb
 15447 01be 6E       		.uleb128 0x6e
 15448 01bf 0E       		.uleb128 0xe
 15449 01c0 49       		.uleb128 0x49
 15450 01c1 13       		.uleb128 0x13
 15451 01c2 32       		.uleb128 0x32
 15452 01c3 0B       		.uleb128 0xb
 15453 01c4 3C       		.uleb128 0x3c
 15454 01c5 19       		.uleb128 0x19
 15455 01c6 64       		.uleb128 0x64
 15456 01c7 13       		.uleb128 0x13
 15457 01c8 01       		.uleb128 0x1
 15458 01c9 13       		.uleb128 0x13
 15459 01ca 00       		.byte	0
 15460 01cb 00       		.byte	0
 15461 01cc 23       		.uleb128 0x23
 15462 01cd 05       		.uleb128 0x5
 15463 01ce 00       		.byte	0
 15464 01cf 49       		.uleb128 0x49
 15465 01d0 13       		.uleb128 0x13
 15466 01d1 34       		.uleb128 0x34
 15467 01d2 19       		.uleb128 0x19
ARM GAS  C:\Users\jrdia\AppData\Local\Temp\ccFTvYyK.s 			page 303


 15468 01d3 00       		.byte	0
 15469 01d4 00       		.byte	0
 15470 01d5 24       		.uleb128 0x24
 15471 01d6 2E       		.uleb128 0x2e
 15472 01d7 01       		.byte	0x1
 15473 01d8 3F       		.uleb128 0x3f
 15474 01d9 19       		.uleb128 0x19
 15475 01da 03       		.uleb128 0x3
 15476 01db 0E       		.uleb128 0xe
 15477 01dc 3A       		.uleb128 0x3a
 15478 01dd 0B       		.uleb128 0xb
 15479 01de 3B       		.uleb128 0x3b
 15480 01df 0B       		.uleb128 0xb
 15481 01e0 6E       		.uleb128 0x6e
 15482 01e1 0E       		.uleb128 0xe
 15483 01e2 32       		.uleb128 0x32
 15484 01e3 0B       		.uleb128 0xb
 15485 01e4 3C       		.uleb128 0x3c
 15486 01e5 19       		.uleb128 0x19
 15487 01e6 64       		.uleb128 0x64
 15488 01e7 13       		.uleb128 0x13
 15489 01e8 01       		.uleb128 0x1
 15490 01e9 13       		.uleb128 0x13
 15491 01ea 00       		.byte	0
 15492 01eb 00       		.byte	0
 15493 01ec 25       		.uleb128 0x25
 15494 01ed 2E       		.uleb128 0x2e
 15495 01ee 01       		.byte	0x1
 15496 01ef 3F       		.uleb128 0x3f
 15497 01f0 19       		.uleb128 0x19
 15498 01f1 03       		.uleb128 0x3
 15499 01f2 0E       		.uleb128 0xe
 15500 01f3 3A       		.uleb128 0x3a
 15501 01f4 0B       		.uleb128 0xb
 15502 01f5 3B       		.uleb128 0x3b
 15503 01f6 05       		.uleb128 0x5
 15504 01f7 6E       		.uleb128 0x6e
 15505 01f8 0E       		.uleb128 0xe
 15506 01f9 32       		.uleb128 0x32
 15507 01fa 0B       		.uleb128 0xb
 15508 01fb 3C       		.uleb128 0x3c
 15509 01fc 19       		.uleb128 0x19
 15510 01fd 64       		.uleb128 0x64
 15511 01fe 13       		.uleb128 0x13
 15512 01ff 01       		.uleb128 0x1
 15513 0200 13       		.uleb128 0x13
 15514 0201 00       		.byte	0
 15515 0202 00       		.byte	0
 15516 0203 26       		.uleb128 0x26
 15517 0204 2E       		.uleb128 0x2e
 15518 0205 01       		.byte	0x1
 15519 0206 3F       		.uleb128 0x3f
 15520 0207 19       		.uleb128 0x19
 15521 0208 03       		.uleb128 0x3
 15522 0209 0E       		.uleb128 0xe
 15523 020a 3A       		.uleb128 0x3a
 15524 020b 0B       		.uleb128 0xb
ARM GAS  C:\Users\jrdia\AppData\Local\Temp\ccFTvYyK.s 			page 304


 15525 020c 3B       		.uleb128 0x3b
 15526 020d 05       		.uleb128 0x5
 15527 020e 6E       		.uleb128 0x6e
 15528 020f 0E       		.uleb128 0xe
 15529 0210 49       		.uleb128 0x49
 15530 0211 13       		.uleb128 0x13
 15531 0212 32       		.uleb128 0x32
 15532 0213 0B       		.uleb128 0xb
 15533 0214 3C       		.uleb128 0x3c
 15534 0215 19       		.uleb128 0x19
 15535 0216 64       		.uleb128 0x64
 15536 0217 13       		.uleb128 0x13
 15537 0218 01       		.uleb128 0x1
 15538 0219 13       		.uleb128 0x13
 15539 021a 00       		.byte	0
 15540 021b 00       		.byte	0
 15541 021c 27       		.uleb128 0x27
 15542 021d 02       		.uleb128 0x2
 15543 021e 01       		.byte	0x1
 15544 021f 03       		.uleb128 0x3
 15545 0220 08       		.uleb128 0x8
 15546 0221 0B       		.uleb128 0xb
 15547 0222 0B       		.uleb128 0xb
 15548 0223 3A       		.uleb128 0x3a
 15549 0224 0B       		.uleb128 0xb
 15550 0225 3B       		.uleb128 0x3b
 15551 0226 0B       		.uleb128 0xb
 15552 0227 01       		.uleb128 0x1
 15553 0228 13       		.uleb128 0x13
 15554 0229 00       		.byte	0
 15555 022a 00       		.byte	0
 15556 022b 28       		.uleb128 0x28
 15557 022c 1C       		.uleb128 0x1c
 15558 022d 00       		.byte	0
 15559 022e 49       		.uleb128 0x49
 15560 022f 13       		.uleb128 0x13
 15561 0230 38       		.uleb128 0x38
 15562 0231 0B       		.uleb128 0xb
 15563 0232 32       		.uleb128 0x32
 15564 0233 0B       		.uleb128 0xb
 15565 0234 00       		.byte	0
 15566 0235 00       		.byte	0
 15567 0236 29       		.uleb128 0x29
 15568 0237 2E       		.uleb128 0x2e
 15569 0238 01       		.byte	0x1
 15570 0239 3F       		.uleb128 0x3f
 15571 023a 19       		.uleb128 0x19
 15572 023b 03       		.uleb128 0x3
 15573 023c 08       		.uleb128 0x8
 15574 023d 3A       		.uleb128 0x3a
 15575 023e 0B       		.uleb128 0xb
 15576 023f 3B       		.uleb128 0x3b
 15577 0240 0B       		.uleb128 0xb
 15578 0241 6E       		.uleb128 0x6e
 15579 0242 0E       		.uleb128 0xe
 15580 0243 49       		.uleb128 0x49
 15581 0244 13       		.uleb128 0x13
ARM GAS  C:\Users\jrdia\AppData\Local\Temp\ccFTvYyK.s 			page 305


 15582 0245 32       		.uleb128 0x32
 15583 0246 0B       		.uleb128 0xb
 15584 0247 3C       		.uleb128 0x3c
 15585 0248 19       		.uleb128 0x19
 15586 0249 64       		.uleb128 0x64
 15587 024a 13       		.uleb128 0x13
 15588 024b 01       		.uleb128 0x1
 15589 024c 13       		.uleb128 0x13
 15590 024d 00       		.byte	0
 15591 024e 00       		.byte	0
 15592 024f 2A       		.uleb128 0x2a
 15593 0250 2E       		.uleb128 0x2e
 15594 0251 01       		.byte	0x1
 15595 0252 3F       		.uleb128 0x3f
 15596 0253 19       		.uleb128 0x19
 15597 0254 03       		.uleb128 0x3
 15598 0255 0E       		.uleb128 0xe
 15599 0256 3A       		.uleb128 0x3a
 15600 0257 0B       		.uleb128 0xb
 15601 0258 3B       		.uleb128 0x3b
 15602 0259 05       		.uleb128 0x5
 15603 025a 6E       		.uleb128 0x6e
 15604 025b 0E       		.uleb128 0xe
 15605 025c 3C       		.uleb128 0x3c
 15606 025d 19       		.uleb128 0x19
 15607 025e 64       		.uleb128 0x64
 15608 025f 13       		.uleb128 0x13
 15609 0260 01       		.uleb128 0x1
 15610 0261 13       		.uleb128 0x13
 15611 0262 00       		.byte	0
 15612 0263 00       		.byte	0
 15613 0264 2B       		.uleb128 0x2b
 15614 0265 2E       		.uleb128 0x2e
 15615 0266 01       		.byte	0x1
 15616 0267 3F       		.uleb128 0x3f
 15617 0268 19       		.uleb128 0x19
 15618 0269 03       		.uleb128 0x3
 15619 026a 0E       		.uleb128 0xe
 15620 026b 3A       		.uleb128 0x3a
 15621 026c 0B       		.uleb128 0xb
 15622 026d 3B       		.uleb128 0x3b
 15623 026e 05       		.uleb128 0x5
 15624 026f 6E       		.uleb128 0x6e
 15625 0270 0E       		.uleb128 0xe
 15626 0271 49       		.uleb128 0x49
 15627 0272 13       		.uleb128 0x13
 15628 0273 3C       		.uleb128 0x3c
 15629 0274 19       		.uleb128 0x19
 15630 0275 64       		.uleb128 0x64
 15631 0276 13       		.uleb128 0x13
 15632 0277 01       		.uleb128 0x1
 15633 0278 13       		.uleb128 0x13
 15634 0279 00       		.byte	0
 15635 027a 00       		.byte	0
 15636 027b 2C       		.uleb128 0x2c
 15637 027c 2E       		.uleb128 0x2e
 15638 027d 01       		.byte	0x1
ARM GAS  C:\Users\jrdia\AppData\Local\Temp\ccFTvYyK.s 			page 306


 15639 027e 3F       		.uleb128 0x3f
 15640 027f 19       		.uleb128 0x19
 15641 0280 03       		.uleb128 0x3
 15642 0281 0E       		.uleb128 0xe
 15643 0282 3A       		.uleb128 0x3a
 15644 0283 0B       		.uleb128 0xb
 15645 0284 3B       		.uleb128 0x3b
 15646 0285 05       		.uleb128 0x5
 15647 0286 6E       		.uleb128 0x6e
 15648 0287 0E       		.uleb128 0xe
 15649 0288 49       		.uleb128 0x49
 15650 0289 13       		.uleb128 0x13
 15651 028a 3C       		.uleb128 0x3c
 15652 028b 19       		.uleb128 0x19
 15653 028c 64       		.uleb128 0x64
 15654 028d 13       		.uleb128 0x13
 15655 028e 00       		.byte	0
 15656 028f 00       		.byte	0
 15657 0290 2D       		.uleb128 0x2d
 15658 0291 02       		.uleb128 0x2
 15659 0292 01       		.byte	0x1
 15660 0293 03       		.uleb128 0x3
 15661 0294 0E       		.uleb128 0xe
 15662 0295 3C       		.uleb128 0x3c
 15663 0296 19       		.uleb128 0x19
 15664 0297 01       		.uleb128 0x1
 15665 0298 13       		.uleb128 0x13
 15666 0299 00       		.byte	0
 15667 029a 00       		.byte	0
 15668 029b 2E       		.uleb128 0x2e
 15669 029c 30       		.uleb128 0x30
 15670 029d 00       		.byte	0
 15671 029e 03       		.uleb128 0x3
 15672 029f 0E       		.uleb128 0xe
 15673 02a0 49       		.uleb128 0x49
 15674 02a1 13       		.uleb128 0x13
 15675 02a2 1C       		.uleb128 0x1c
 15676 02a3 0B       		.uleb128 0xb
 15677 02a4 00       		.byte	0
 15678 02a5 00       		.byte	0
 15679 02a6 2F       		.uleb128 0x2f
 15680 02a7 01       		.uleb128 0x1
 15681 02a8 01       		.byte	0x1
 15682 02a9 49       		.uleb128 0x49
 15683 02aa 13       		.uleb128 0x13
 15684 02ab 01       		.uleb128 0x1
 15685 02ac 13       		.uleb128 0x13
 15686 02ad 00       		.byte	0
 15687 02ae 00       		.byte	0
 15688 02af 30       		.uleb128 0x30
 15689 02b0 21       		.uleb128 0x21
 15690 02b1 00       		.byte	0
 15691 02b2 49       		.uleb128 0x49
 15692 02b3 13       		.uleb128 0x13
 15693 02b4 2F       		.uleb128 0x2f
 15694 02b5 0B       		.uleb128 0xb
 15695 02b6 00       		.byte	0
ARM GAS  C:\Users\jrdia\AppData\Local\Temp\ccFTvYyK.s 			page 307


 15696 02b7 00       		.byte	0
 15697 02b8 31       		.uleb128 0x31
 15698 02b9 02       		.uleb128 0x2
 15699 02ba 01       		.byte	0x1
 15700 02bb 03       		.uleb128 0x3
 15701 02bc 0E       		.uleb128 0xe
 15702 02bd 0B       		.uleb128 0xb
 15703 02be 0B       		.uleb128 0xb
 15704 02bf 3A       		.uleb128 0x3a
 15705 02c0 0B       		.uleb128 0xb
 15706 02c1 3B       		.uleb128 0x3b
 15707 02c2 0B       		.uleb128 0xb
 15708 02c3 1D       		.uleb128 0x1d
 15709 02c4 13       		.uleb128 0x13
 15710 02c5 01       		.uleb128 0x1
 15711 02c6 13       		.uleb128 0x13
 15712 02c7 00       		.byte	0
 15713 02c8 00       		.byte	0
 15714 02c9 32       		.uleb128 0x32
 15715 02ca 0D       		.uleb128 0xd
 15716 02cb 00       		.byte	0
 15717 02cc 03       		.uleb128 0x3
 15718 02cd 0E       		.uleb128 0xe
 15719 02ce 49       		.uleb128 0x49
 15720 02cf 13       		.uleb128 0x13
 15721 02d0 38       		.uleb128 0x38
 15722 02d1 0B       		.uleb128 0xb
 15723 02d2 34       		.uleb128 0x34
 15724 02d3 19       		.uleb128 0x19
 15725 02d4 32       		.uleb128 0x32
 15726 02d5 0B       		.uleb128 0xb
 15727 02d6 00       		.byte	0
 15728 02d7 00       		.byte	0
 15729 02d8 33       		.uleb128 0x33
 15730 02d9 2E       		.uleb128 0x2e
 15731 02da 01       		.byte	0x1
 15732 02db 3F       		.uleb128 0x3f
 15733 02dc 19       		.uleb128 0x19
 15734 02dd 03       		.uleb128 0x3
 15735 02de 0E       		.uleb128 0xe
 15736 02df 6E       		.uleb128 0x6e
 15737 02e0 0E       		.uleb128 0xe
 15738 02e1 49       		.uleb128 0x49
 15739 02e2 13       		.uleb128 0x13
 15740 02e3 34       		.uleb128 0x34
 15741 02e4 19       		.uleb128 0x19
 15742 02e5 32       		.uleb128 0x32
 15743 02e6 0B       		.uleb128 0xb
 15744 02e7 3C       		.uleb128 0x3c
 15745 02e8 19       		.uleb128 0x19
 15746 02e9 64       		.uleb128 0x64
 15747 02ea 13       		.uleb128 0x13
 15748 02eb 01       		.uleb128 0x1
 15749 02ec 13       		.uleb128 0x13
 15750 02ed 00       		.byte	0
 15751 02ee 00       		.byte	0
 15752 02ef 34       		.uleb128 0x34
ARM GAS  C:\Users\jrdia\AppData\Local\Temp\ccFTvYyK.s 			page 308


 15753 02f0 2E       		.uleb128 0x2e
 15754 02f1 01       		.byte	0x1
 15755 02f2 3F       		.uleb128 0x3f
 15756 02f3 19       		.uleb128 0x19
 15757 02f4 03       		.uleb128 0x3
 15758 02f5 0E       		.uleb128 0xe
 15759 02f6 3A       		.uleb128 0x3a
 15760 02f7 0B       		.uleb128 0xb
 15761 02f8 3B       		.uleb128 0x3b
 15762 02f9 0B       		.uleb128 0xb
 15763 02fa 6E       		.uleb128 0x6e
 15764 02fb 0E       		.uleb128 0xe
 15765 02fc 49       		.uleb128 0x49
 15766 02fd 13       		.uleb128 0x13
 15767 02fe 4C       		.uleb128 0x4c
 15768 02ff 0B       		.uleb128 0xb
 15769 0300 4D       		.uleb128 0x4d
 15770 0301 18       		.uleb128 0x18
 15771 0302 1D       		.uleb128 0x1d
 15772 0303 13       		.uleb128 0x13
 15773 0304 32       		.uleb128 0x32
 15774 0305 0B       		.uleb128 0xb
 15775 0306 3C       		.uleb128 0x3c
 15776 0307 19       		.uleb128 0x19
 15777 0308 64       		.uleb128 0x64
 15778 0309 13       		.uleb128 0x13
 15779 030a 01       		.uleb128 0x1
 15780 030b 13       		.uleb128 0x13
 15781 030c 00       		.byte	0
 15782 030d 00       		.byte	0
 15783 030e 35       		.uleb128 0x35
 15784 030f 2E       		.uleb128 0x2e
 15785 0310 01       		.byte	0x1
 15786 0311 3F       		.uleb128 0x3f
 15787 0312 19       		.uleb128 0x19
 15788 0313 03       		.uleb128 0x3
 15789 0314 0E       		.uleb128 0xe
 15790 0315 3A       		.uleb128 0x3a
 15791 0316 0B       		.uleb128 0xb
 15792 0317 3B       		.uleb128 0x3b
 15793 0318 0B       		.uleb128 0xb
 15794 0319 6E       		.uleb128 0x6e
 15795 031a 0E       		.uleb128 0xe
 15796 031b 4C       		.uleb128 0x4c
 15797 031c 0B       		.uleb128 0xb
 15798 031d 4D       		.uleb128 0x4d
 15799 031e 18       		.uleb128 0x18
 15800 031f 1D       		.uleb128 0x1d
 15801 0320 13       		.uleb128 0x13
 15802 0321 32       		.uleb128 0x32
 15803 0322 0B       		.uleb128 0xb
 15804 0323 3C       		.uleb128 0x3c
 15805 0324 19       		.uleb128 0x19
 15806 0325 64       		.uleb128 0x64
 15807 0326 13       		.uleb128 0x13
 15808 0327 01       		.uleb128 0x1
 15809 0328 13       		.uleb128 0x13
ARM GAS  C:\Users\jrdia\AppData\Local\Temp\ccFTvYyK.s 			page 309


 15810 0329 00       		.byte	0
 15811 032a 00       		.byte	0
 15812 032b 36       		.uleb128 0x36
 15813 032c 2E       		.uleb128 0x2e
 15814 032d 01       		.byte	0x1
 15815 032e 3F       		.uleb128 0x3f
 15816 032f 19       		.uleb128 0x19
 15817 0330 03       		.uleb128 0x3
 15818 0331 0E       		.uleb128 0xe
 15819 0332 3A       		.uleb128 0x3a
 15820 0333 0B       		.uleb128 0xb
 15821 0334 3B       		.uleb128 0x3b
 15822 0335 0B       		.uleb128 0xb
 15823 0336 6E       		.uleb128 0x6e
 15824 0337 0E       		.uleb128 0xe
 15825 0338 49       		.uleb128 0x49
 15826 0339 13       		.uleb128 0x13
 15827 033a 4C       		.uleb128 0x4c
 15828 033b 0B       		.uleb128 0xb
 15829 033c 4D       		.uleb128 0x4d
 15830 033d 18       		.uleb128 0x18
 15831 033e 1D       		.uleb128 0x1d
 15832 033f 13       		.uleb128 0x13
 15833 0340 32       		.uleb128 0x32
 15834 0341 0B       		.uleb128 0xb
 15835 0342 3C       		.uleb128 0x3c
 15836 0343 19       		.uleb128 0x19
 15837 0344 64       		.uleb128 0x64
 15838 0345 13       		.uleb128 0x13
 15839 0346 00       		.byte	0
 15840 0347 00       		.byte	0
 15841 0348 37       		.uleb128 0x37
 15842 0349 10       		.uleb128 0x10
 15843 034a 00       		.byte	0
 15844 034b 0B       		.uleb128 0xb
 15845 034c 0B       		.uleb128 0xb
 15846 034d 49       		.uleb128 0x49
 15847 034e 13       		.uleb128 0x13
 15848 034f 00       		.byte	0
 15849 0350 00       		.byte	0
 15850 0351 38       		.uleb128 0x38
 15851 0352 28       		.uleb128 0x28
 15852 0353 00       		.byte	0
 15853 0354 03       		.uleb128 0x3
 15854 0355 08       		.uleb128 0x8
 15855 0356 1C       		.uleb128 0x1c
 15856 0357 06       		.uleb128 0x6
 15857 0358 00       		.byte	0
 15858 0359 00       		.byte	0
 15859 035a 39       		.uleb128 0x39
 15860 035b 28       		.uleb128 0x28
 15861 035c 00       		.byte	0
 15862 035d 03       		.uleb128 0x3
 15863 035e 0E       		.uleb128 0xe
 15864 035f 1C       		.uleb128 0x1c
 15865 0360 05       		.uleb128 0x5
 15866 0361 00       		.byte	0
ARM GAS  C:\Users\jrdia\AppData\Local\Temp\ccFTvYyK.s 			page 310


 15867 0362 00       		.byte	0
 15868 0363 3A       		.uleb128 0x3a
 15869 0364 28       		.uleb128 0x28
 15870 0365 00       		.byte	0
 15871 0366 03       		.uleb128 0x3
 15872 0367 0E       		.uleb128 0xe
 15873 0368 1C       		.uleb128 0x1c
 15874 0369 06       		.uleb128 0x6
 15875 036a 00       		.byte	0
 15876 036b 00       		.byte	0
 15877 036c 3B       		.uleb128 0x3b
 15878 036d 28       		.uleb128 0x28
 15879 036e 00       		.byte	0
 15880 036f 03       		.uleb128 0x3
 15881 0370 08       		.uleb128 0x8
 15882 0371 1C       		.uleb128 0x1c
 15883 0372 0B       		.uleb128 0xb
 15884 0373 00       		.byte	0
 15885 0374 00       		.byte	0
 15886 0375 3C       		.uleb128 0x3c
 15887 0376 17       		.uleb128 0x17
 15888 0377 01       		.byte	0x1
 15889 0378 03       		.uleb128 0x3
 15890 0379 0E       		.uleb128 0xe
 15891 037a 0B       		.uleb128 0xb
 15892 037b 0B       		.uleb128 0xb
 15893 037c 3A       		.uleb128 0x3a
 15894 037d 0B       		.uleb128 0xb
 15895 037e 3B       		.uleb128 0x3b
 15896 037f 0B       		.uleb128 0xb
 15897 0380 01       		.uleb128 0x1
 15898 0381 13       		.uleb128 0x13
 15899 0382 00       		.byte	0
 15900 0383 00       		.byte	0
 15901 0384 3D       		.uleb128 0x3d
 15902 0385 0D       		.uleb128 0xd
 15903 0386 00       		.byte	0
 15904 0387 03       		.uleb128 0x3
 15905 0388 08       		.uleb128 0x8
 15906 0389 3A       		.uleb128 0x3a
 15907 038a 0B       		.uleb128 0xb
 15908 038b 3B       		.uleb128 0x3b
 15909 038c 0B       		.uleb128 0xb
 15910 038d 49       		.uleb128 0x49
 15911 038e 13       		.uleb128 0x13
 15912 038f 0B       		.uleb128 0xb
 15913 0390 0B       		.uleb128 0xb
 15914 0391 0D       		.uleb128 0xd
 15915 0392 0B       		.uleb128 0xb
 15916 0393 0C       		.uleb128 0xc
 15917 0394 0B       		.uleb128 0xb
 15918 0395 38       		.uleb128 0x38
 15919 0396 0B       		.uleb128 0xb
 15920 0397 00       		.byte	0
 15921 0398 00       		.byte	0
 15922 0399 3E       		.uleb128 0x3e
 15923 039a 0D       		.uleb128 0xd
ARM GAS  C:\Users\jrdia\AppData\Local\Temp\ccFTvYyK.s 			page 311


 15924 039b 00       		.byte	0
 15925 039c 03       		.uleb128 0x3
 15926 039d 08       		.uleb128 0x8
 15927 039e 3A       		.uleb128 0x3a
 15928 039f 0B       		.uleb128 0xb
 15929 03a0 3B       		.uleb128 0x3b
 15930 03a1 0B       		.uleb128 0xb
 15931 03a2 49       		.uleb128 0x49
 15932 03a3 13       		.uleb128 0x13
 15933 03a4 0B       		.uleb128 0xb
 15934 03a5 0B       		.uleb128 0xb
 15935 03a6 0D       		.uleb128 0xd
 15936 03a7 0B       		.uleb128 0xb
 15937 03a8 0C       		.uleb128 0xc
 15938 03a9 0B       		.uleb128 0xb
 15939 03aa 00       		.byte	0
 15940 03ab 00       		.byte	0
 15941 03ac 3F       		.uleb128 0x3f
 15942 03ad 0D       		.uleb128 0xd
 15943 03ae 00       		.byte	0
 15944 03af 03       		.uleb128 0x3
 15945 03b0 08       		.uleb128 0x8
 15946 03b1 3A       		.uleb128 0x3a
 15947 03b2 0B       		.uleb128 0xb
 15948 03b3 3B       		.uleb128 0x3b
 15949 03b4 0B       		.uleb128 0xb
 15950 03b5 49       		.uleb128 0x49
 15951 03b6 13       		.uleb128 0x13
 15952 03b7 0B       		.uleb128 0xb
 15953 03b8 0B       		.uleb128 0xb
 15954 03b9 0D       		.uleb128 0xd
 15955 03ba 0B       		.uleb128 0xb
 15956 03bb 0C       		.uleb128 0xc
 15957 03bc 0D       		.uleb128 0xd
 15958 03bd 38       		.uleb128 0x38
 15959 03be 0B       		.uleb128 0xb
 15960 03bf 00       		.byte	0
 15961 03c0 00       		.byte	0
 15962 03c1 40       		.uleb128 0x40
 15963 03c2 0D       		.uleb128 0xd
 15964 03c3 00       		.byte	0
 15965 03c4 03       		.uleb128 0x3
 15966 03c5 08       		.uleb128 0x8
 15967 03c6 3A       		.uleb128 0x3a
 15968 03c7 0B       		.uleb128 0xb
 15969 03c8 3B       		.uleb128 0x3b
 15970 03c9 0B       		.uleb128 0xb
 15971 03ca 49       		.uleb128 0x49
 15972 03cb 13       		.uleb128 0x13
 15973 03cc 38       		.uleb128 0x38
 15974 03cd 0B       		.uleb128 0xb
 15975 03ce 00       		.byte	0
 15976 03cf 00       		.byte	0
 15977 03d0 41       		.uleb128 0x41
 15978 03d1 2E       		.uleb128 0x2e
 15979 03d2 01       		.byte	0x1
 15980 03d3 3F       		.uleb128 0x3f
ARM GAS  C:\Users\jrdia\AppData\Local\Temp\ccFTvYyK.s 			page 312


 15981 03d4 19       		.uleb128 0x19
 15982 03d5 03       		.uleb128 0x3
 15983 03d6 0E       		.uleb128 0xe
 15984 03d7 3A       		.uleb128 0x3a
 15985 03d8 0B       		.uleb128 0xb
 15986 03d9 3B       		.uleb128 0x3b
 15987 03da 0B       		.uleb128 0xb
 15988 03db 6E       		.uleb128 0x6e
 15989 03dc 0E       		.uleb128 0xe
 15990 03dd 3C       		.uleb128 0x3c
 15991 03de 19       		.uleb128 0x19
 15992 03df 64       		.uleb128 0x64
 15993 03e0 13       		.uleb128 0x13
 15994 03e1 01       		.uleb128 0x1
 15995 03e2 13       		.uleb128 0x13
 15996 03e3 00       		.byte	0
 15997 03e4 00       		.byte	0
 15998 03e5 42       		.uleb128 0x42
 15999 03e6 2E       		.uleb128 0x2e
 16000 03e7 01       		.byte	0x1
 16001 03e8 3F       		.uleb128 0x3f
 16002 03e9 19       		.uleb128 0x19
 16003 03ea 03       		.uleb128 0x3
 16004 03eb 0E       		.uleb128 0xe
 16005 03ec 3A       		.uleb128 0x3a
 16006 03ed 0B       		.uleb128 0xb
 16007 03ee 3B       		.uleb128 0x3b
 16008 03ef 0B       		.uleb128 0xb
 16009 03f0 6E       		.uleb128 0x6e
 16010 03f1 0E       		.uleb128 0xe
 16011 03f2 3C       		.uleb128 0x3c
 16012 03f3 19       		.uleb128 0x19
 16013 03f4 64       		.uleb128 0x64
 16014 03f5 13       		.uleb128 0x13
 16015 03f6 00       		.byte	0
 16016 03f7 00       		.byte	0
 16017 03f8 43       		.uleb128 0x43
 16018 03f9 2E       		.uleb128 0x2e
 16019 03fa 00       		.byte	0
 16020 03fb 3F       		.uleb128 0x3f
 16021 03fc 19       		.uleb128 0x19
 16022 03fd 3C       		.uleb128 0x3c
 16023 03fe 19       		.uleb128 0x19
 16024 03ff 6E       		.uleb128 0x6e
 16025 0400 0E       		.uleb128 0xe
 16026 0401 03       		.uleb128 0x3
 16027 0402 0E       		.uleb128 0xe
 16028 0403 3A       		.uleb128 0x3a
 16029 0404 0B       		.uleb128 0xb
 16030 0405 3B       		.uleb128 0x3b
 16031 0406 0B       		.uleb128 0xb
 16032 0407 6E       		.uleb128 0x6e
 16033 0408 0E       		.uleb128 0xe
 16034 0409 00       		.byte	0
 16035 040a 00       		.byte	0
 16036 040b 44       		.uleb128 0x44
 16037 040c 0D       		.uleb128 0xd
ARM GAS  C:\Users\jrdia\AppData\Local\Temp\ccFTvYyK.s 			page 313


 16038 040d 00       		.byte	0
 16039 040e 03       		.uleb128 0x3
 16040 040f 0E       		.uleb128 0xe
 16041 0410 3A       		.uleb128 0x3a
 16042 0411 0B       		.uleb128 0xb
 16043 0412 3B       		.uleb128 0x3b
 16044 0413 05       		.uleb128 0x5
 16045 0414 49       		.uleb128 0x49
 16046 0415 13       		.uleb128 0x13
 16047 0416 38       		.uleb128 0x38
 16048 0417 0B       		.uleb128 0xb
 16049 0418 00       		.byte	0
 16050 0419 00       		.byte	0
 16051 041a 45       		.uleb128 0x45
 16052 041b 2E       		.uleb128 0x2e
 16053 041c 01       		.byte	0x1
 16054 041d 3F       		.uleb128 0x3f
 16055 041e 19       		.uleb128 0x19
 16056 041f 03       		.uleb128 0x3
 16057 0420 0E       		.uleb128 0xe
 16058 0421 3A       		.uleb128 0x3a
 16059 0422 0B       		.uleb128 0xb
 16060 0423 3B       		.uleb128 0x3b
 16061 0424 05       		.uleb128 0x5
 16062 0425 6E       		.uleb128 0x6e
 16063 0426 0E       		.uleb128 0xe
 16064 0427 4C       		.uleb128 0x4c
 16065 0428 0B       		.uleb128 0xb
 16066 0429 4D       		.uleb128 0x4d
 16067 042a 18       		.uleb128 0x18
 16068 042b 1D       		.uleb128 0x1d
 16069 042c 13       		.uleb128 0x13
 16070 042d 32       		.uleb128 0x32
 16071 042e 0B       		.uleb128 0xb
 16072 042f 3C       		.uleb128 0x3c
 16073 0430 19       		.uleb128 0x19
 16074 0431 64       		.uleb128 0x64
 16075 0432 13       		.uleb128 0x13
 16076 0433 01       		.uleb128 0x1
 16077 0434 13       		.uleb128 0x13
 16078 0435 00       		.byte	0
 16079 0436 00       		.byte	0
 16080 0437 46       		.uleb128 0x46
 16081 0438 02       		.uleb128 0x2
 16082 0439 01       		.byte	0x1
 16083 043a 03       		.uleb128 0x3
 16084 043b 08       		.uleb128 0x8
 16085 043c 3C       		.uleb128 0x3c
 16086 043d 19       		.uleb128 0x19
 16087 043e 01       		.uleb128 0x1
 16088 043f 13       		.uleb128 0x13
 16089 0440 00       		.byte	0
 16090 0441 00       		.byte	0
 16091 0442 47       		.uleb128 0x47
 16092 0443 0D       		.uleb128 0xd
 16093 0444 00       		.byte	0
 16094 0445 03       		.uleb128 0x3
ARM GAS  C:\Users\jrdia\AppData\Local\Temp\ccFTvYyK.s 			page 314


 16095 0446 0E       		.uleb128 0xe
 16096 0447 3A       		.uleb128 0x3a
 16097 0448 0B       		.uleb128 0xb
 16098 0449 3B       		.uleb128 0x3b
 16099 044a 05       		.uleb128 0x5
 16100 044b 49       		.uleb128 0x49
 16101 044c 13       		.uleb128 0x13
 16102 044d 3F       		.uleb128 0x3f
 16103 044e 19       		.uleb128 0x19
 16104 044f 32       		.uleb128 0x32
 16105 0450 0B       		.uleb128 0xb
 16106 0451 3C       		.uleb128 0x3c
 16107 0452 19       		.uleb128 0x19
 16108 0453 00       		.byte	0
 16109 0454 00       		.byte	0
 16110 0455 48       		.uleb128 0x48
 16111 0456 2E       		.uleb128 0x2e
 16112 0457 00       		.byte	0
 16113 0458 3F       		.uleb128 0x3f
 16114 0459 19       		.uleb128 0x19
 16115 045a 3C       		.uleb128 0x3c
 16116 045b 19       		.uleb128 0x19
 16117 045c 6E       		.uleb128 0x6e
 16118 045d 0E       		.uleb128 0xe
 16119 045e 03       		.uleb128 0x3
 16120 045f 0E       		.uleb128 0xe
 16121 0460 3A       		.uleb128 0x3a
 16122 0461 0B       		.uleb128 0xb
 16123 0462 3B       		.uleb128 0x3b
 16124 0463 05       		.uleb128 0x5
 16125 0464 6E       		.uleb128 0x6e
 16126 0465 0E       		.uleb128 0xe
 16127 0466 00       		.byte	0
 16128 0467 00       		.byte	0
 16129 0468 49       		.uleb128 0x49
 16130 0469 02       		.uleb128 0x2
 16131 046a 01       		.byte	0x1
 16132 046b 03       		.uleb128 0x3
 16133 046c 0E       		.uleb128 0xe
 16134 046d 0B       		.uleb128 0xb
 16135 046e 0B       		.uleb128 0xb
 16136 046f 3A       		.uleb128 0x3a
 16137 0470 0B       		.uleb128 0xb
 16138 0471 3B       		.uleb128 0x3b
 16139 0472 05       		.uleb128 0x5
 16140 0473 1D       		.uleb128 0x1d
 16141 0474 13       		.uleb128 0x13
 16142 0475 01       		.uleb128 0x1
 16143 0476 13       		.uleb128 0x13
 16144 0477 00       		.byte	0
 16145 0478 00       		.byte	0
 16146 0479 4A       		.uleb128 0x4a
 16147 047a 0D       		.uleb128 0xd
 16148 047b 00       		.byte	0
 16149 047c 03       		.uleb128 0x3
 16150 047d 0E       		.uleb128 0xe
 16151 047e 3A       		.uleb128 0x3a
ARM GAS  C:\Users\jrdia\AppData\Local\Temp\ccFTvYyK.s 			page 315


 16152 047f 0B       		.uleb128 0xb
 16153 0480 3B       		.uleb128 0x3b
 16154 0481 05       		.uleb128 0x5
 16155 0482 49       		.uleb128 0x49
 16156 0483 13       		.uleb128 0x13
 16157 0484 38       		.uleb128 0x38
 16158 0485 0B       		.uleb128 0xb
 16159 0486 32       		.uleb128 0x32
 16160 0487 0B       		.uleb128 0xb
 16161 0488 00       		.byte	0
 16162 0489 00       		.byte	0
 16163 048a 4B       		.uleb128 0x4b
 16164 048b 2E       		.uleb128 0x2e
 16165 048c 01       		.byte	0x1
 16166 048d 3F       		.uleb128 0x3f
 16167 048e 19       		.uleb128 0x19
 16168 048f 03       		.uleb128 0x3
 16169 0490 08       		.uleb128 0x8
 16170 0491 3A       		.uleb128 0x3a
 16171 0492 0B       		.uleb128 0xb
 16172 0493 3B       		.uleb128 0x3b
 16173 0494 05       		.uleb128 0x5
 16174 0495 6E       		.uleb128 0x6e
 16175 0496 0E       		.uleb128 0xe
 16176 0497 4C       		.uleb128 0x4c
 16177 0498 0B       		.uleb128 0xb
 16178 0499 4D       		.uleb128 0x4d
 16179 049a 18       		.uleb128 0x18
 16180 049b 1D       		.uleb128 0x1d
 16181 049c 13       		.uleb128 0x13
 16182 049d 32       		.uleb128 0x32
 16183 049e 0B       		.uleb128 0xb
 16184 049f 3C       		.uleb128 0x3c
 16185 04a0 19       		.uleb128 0x19
 16186 04a1 64       		.uleb128 0x64
 16187 04a2 13       		.uleb128 0x13
 16188 04a3 01       		.uleb128 0x1
 16189 04a4 13       		.uleb128 0x13
 16190 04a5 00       		.byte	0
 16191 04a6 00       		.byte	0
 16192 04a7 4C       		.uleb128 0x4c
 16193 04a8 2E       		.uleb128 0x2e
 16194 04a9 01       		.byte	0x1
 16195 04aa 3F       		.uleb128 0x3f
 16196 04ab 19       		.uleb128 0x19
 16197 04ac 03       		.uleb128 0x3
 16198 04ad 0E       		.uleb128 0xe
 16199 04ae 3A       		.uleb128 0x3a
 16200 04af 0B       		.uleb128 0xb
 16201 04b0 3B       		.uleb128 0x3b
 16202 04b1 05       		.uleb128 0x5
 16203 04b2 6E       		.uleb128 0x6e
 16204 04b3 0E       		.uleb128 0xe
 16205 04b4 49       		.uleb128 0x49
 16206 04b5 13       		.uleb128 0x13
 16207 04b6 32       		.uleb128 0x32
 16208 04b7 0B       		.uleb128 0xb
ARM GAS  C:\Users\jrdia\AppData\Local\Temp\ccFTvYyK.s 			page 316


 16209 04b8 3C       		.uleb128 0x3c
 16210 04b9 19       		.uleb128 0x19
 16211 04ba 64       		.uleb128 0x64
 16212 04bb 13       		.uleb128 0x13
 16213 04bc 00       		.byte	0
 16214 04bd 00       		.byte	0
 16215 04be 4D       		.uleb128 0x4d
 16216 04bf 15       		.uleb128 0x15
 16217 04c0 01       		.byte	0x1
 16218 04c1 49       		.uleb128 0x49
 16219 04c2 13       		.uleb128 0x13
 16220 04c3 01       		.uleb128 0x1
 16221 04c4 13       		.uleb128 0x13
 16222 04c5 00       		.byte	0
 16223 04c6 00       		.byte	0
 16224 04c7 4E       		.uleb128 0x4e
 16225 04c8 18       		.uleb128 0x18
 16226 04c9 00       		.byte	0
 16227 04ca 00       		.byte	0
 16228 04cb 00       		.byte	0
 16229 04cc 4F       		.uleb128 0x4f
 16230 04cd 0F       		.uleb128 0xf
 16231 04ce 00       		.byte	0
 16232 04cf 0B       		.uleb128 0xb
 16233 04d0 0B       		.uleb128 0xb
 16234 04d1 03       		.uleb128 0x3
 16235 04d2 0E       		.uleb128 0xe
 16236 04d3 49       		.uleb128 0x49
 16237 04d4 13       		.uleb128 0x13
 16238 04d5 00       		.byte	0
 16239 04d6 00       		.byte	0
 16240 04d7 50       		.uleb128 0x50
 16241 04d8 2E       		.uleb128 0x2e
 16242 04d9 01       		.byte	0x1
 16243 04da 47       		.uleb128 0x47
 16244 04db 13       		.uleb128 0x13
 16245 04dc 20       		.uleb128 0x20
 16246 04dd 0B       		.uleb128 0xb
 16247 04de 64       		.uleb128 0x64
 16248 04df 13       		.uleb128 0x13
 16249 04e0 01       		.uleb128 0x1
 16250 04e1 13       		.uleb128 0x13
 16251 04e2 00       		.byte	0
 16252 04e3 00       		.byte	0
 16253 04e4 51       		.uleb128 0x51
 16254 04e5 05       		.uleb128 0x5
 16255 04e6 00       		.byte	0
 16256 04e7 03       		.uleb128 0x3
 16257 04e8 0E       		.uleb128 0xe
 16258 04e9 49       		.uleb128 0x49
 16259 04ea 13       		.uleb128 0x13
 16260 04eb 34       		.uleb128 0x34
 16261 04ec 19       		.uleb128 0x19
 16262 04ed 00       		.byte	0
 16263 04ee 00       		.byte	0
 16264 04ef 52       		.uleb128 0x52
 16265 04f0 05       		.uleb128 0x5
ARM GAS  C:\Users\jrdia\AppData\Local\Temp\ccFTvYyK.s 			page 317


 16266 04f1 00       		.byte	0
 16267 04f2 03       		.uleb128 0x3
 16268 04f3 0E       		.uleb128 0xe
 16269 04f4 3A       		.uleb128 0x3a
 16270 04f5 0B       		.uleb128 0xb
 16271 04f6 3B       		.uleb128 0x3b
 16272 04f7 05       		.uleb128 0x5
 16273 04f8 49       		.uleb128 0x49
 16274 04f9 13       		.uleb128 0x13
 16275 04fa 00       		.byte	0
 16276 04fb 00       		.byte	0
 16277 04fc 53       		.uleb128 0x53
 16278 04fd 05       		.uleb128 0x5
 16279 04fe 00       		.byte	0
 16280 04ff 03       		.uleb128 0x3
 16281 0500 08       		.uleb128 0x8
 16282 0501 3A       		.uleb128 0x3a
 16283 0502 0B       		.uleb128 0xb
 16284 0503 3B       		.uleb128 0x3b
 16285 0504 05       		.uleb128 0x5
 16286 0505 49       		.uleb128 0x49
 16287 0506 13       		.uleb128 0x13
 16288 0507 00       		.byte	0
 16289 0508 00       		.byte	0
 16290 0509 54       		.uleb128 0x54
 16291 050a 05       		.uleb128 0x5
 16292 050b 00       		.byte	0
 16293 050c 03       		.uleb128 0x3
 16294 050d 0E       		.uleb128 0xe
 16295 050e 3A       		.uleb128 0x3a
 16296 050f 0B       		.uleb128 0xb
 16297 0510 3B       		.uleb128 0x3b
 16298 0511 0B       		.uleb128 0xb
 16299 0512 49       		.uleb128 0x49
 16300 0513 13       		.uleb128 0x13
 16301 0514 00       		.byte	0
 16302 0515 00       		.byte	0
 16303 0516 55       		.uleb128 0x55
 16304 0517 05       		.uleb128 0x5
 16305 0518 00       		.byte	0
 16306 0519 03       		.uleb128 0x3
 16307 051a 08       		.uleb128 0x8
 16308 051b 3A       		.uleb128 0x3a
 16309 051c 0B       		.uleb128 0xb
 16310 051d 3B       		.uleb128 0x3b
 16311 051e 0B       		.uleb128 0xb
 16312 051f 49       		.uleb128 0x49
 16313 0520 13       		.uleb128 0x13
 16314 0521 00       		.byte	0
 16315 0522 00       		.byte	0
 16316 0523 56       		.uleb128 0x56
 16317 0524 34       		.uleb128 0x34
 16318 0525 00       		.byte	0
 16319 0526 03       		.uleb128 0x3
 16320 0527 0E       		.uleb128 0xe
 16321 0528 3A       		.uleb128 0x3a
 16322 0529 0B       		.uleb128 0xb
ARM GAS  C:\Users\jrdia\AppData\Local\Temp\ccFTvYyK.s 			page 318


 16323 052a 3B       		.uleb128 0x3b
 16324 052b 05       		.uleb128 0x5
 16325 052c 49       		.uleb128 0x49
 16326 052d 13       		.uleb128 0x13
 16327 052e 00       		.byte	0
 16328 052f 00       		.byte	0
 16329 0530 57       		.uleb128 0x57
 16330 0531 34       		.uleb128 0x34
 16331 0532 00       		.byte	0
 16332 0533 03       		.uleb128 0x3
 16333 0534 08       		.uleb128 0x8
 16334 0535 3A       		.uleb128 0x3a
 16335 0536 0B       		.uleb128 0xb
 16336 0537 3B       		.uleb128 0x3b
 16337 0538 05       		.uleb128 0x5
 16338 0539 49       		.uleb128 0x49
 16339 053a 13       		.uleb128 0x13
 16340 053b 00       		.byte	0
 16341 053c 00       		.byte	0
 16342 053d 58       		.uleb128 0x58
 16343 053e 2E       		.uleb128 0x2e
 16344 053f 01       		.byte	0x1
 16345 0540 47       		.uleb128 0x47
 16346 0541 13       		.uleb128 0x13
 16347 0542 20       		.uleb128 0x20
 16348 0543 0B       		.uleb128 0xb
 16349 0544 01       		.uleb128 0x1
 16350 0545 13       		.uleb128 0x13
 16351 0546 00       		.byte	0
 16352 0547 00       		.byte	0
 16353 0548 59       		.uleb128 0x59
 16354 0549 2E       		.uleb128 0x2e
 16355 054a 00       		.byte	0
 16356 054b 47       		.uleb128 0x47
 16357 054c 13       		.uleb128 0x13
 16358 054d 20       		.uleb128 0x20
 16359 054e 0B       		.uleb128 0xb
 16360 054f 00       		.byte	0
 16361 0550 00       		.byte	0
 16362 0551 5A       		.uleb128 0x5a
 16363 0552 2E       		.uleb128 0x2e
 16364 0553 01       		.byte	0x1
 16365 0554 03       		.uleb128 0x3
 16366 0555 0E       		.uleb128 0xe
 16367 0556 34       		.uleb128 0x34
 16368 0557 19       		.uleb128 0x19
 16369 0558 20       		.uleb128 0x20
 16370 0559 0B       		.uleb128 0xb
 16371 055a 01       		.uleb128 0x1
 16372 055b 13       		.uleb128 0x13
 16373 055c 00       		.byte	0
 16374 055d 00       		.byte	0
 16375 055e 5B       		.uleb128 0x5b
 16376 055f 2E       		.uleb128 0x2e
 16377 0560 01       		.byte	0x1
 16378 0561 47       		.uleb128 0x47
 16379 0562 13       		.uleb128 0x13
ARM GAS  C:\Users\jrdia\AppData\Local\Temp\ccFTvYyK.s 			page 319


 16380 0563 11       		.uleb128 0x11
 16381 0564 01       		.uleb128 0x1
 16382 0565 12       		.uleb128 0x12
 16383 0566 06       		.uleb128 0x6
 16384 0567 40       		.uleb128 0x40
 16385 0568 18       		.uleb128 0x18
 16386 0569 64       		.uleb128 0x64
 16387 056a 13       		.uleb128 0x13
 16388 056b 9642     		.uleb128 0x2116
 16389 056d 19       		.uleb128 0x19
 16390 056e 01       		.uleb128 0x1
 16391 056f 13       		.uleb128 0x13
 16392 0570 00       		.byte	0
 16393 0571 00       		.byte	0
 16394 0572 5C       		.uleb128 0x5c
 16395 0573 05       		.uleb128 0x5
 16396 0574 00       		.byte	0
 16397 0575 03       		.uleb128 0x3
 16398 0576 0E       		.uleb128 0xe
 16399 0577 49       		.uleb128 0x49
 16400 0578 13       		.uleb128 0x13
 16401 0579 34       		.uleb128 0x34
 16402 057a 19       		.uleb128 0x19
 16403 057b 02       		.uleb128 0x2
 16404 057c 17       		.uleb128 0x17
 16405 057d 00       		.byte	0
 16406 057e 00       		.byte	0
 16407 057f 5D       		.uleb128 0x5d
 16408 0580 898201   		.uleb128 0x4109
 16409 0583 01       		.byte	0x1
 16410 0584 11       		.uleb128 0x11
 16411 0585 01       		.uleb128 0x1
 16412 0586 00       		.byte	0
 16413 0587 00       		.byte	0
 16414 0588 5E       		.uleb128 0x5e
 16415 0589 8A8201   		.uleb128 0x410a
 16416 058c 00       		.byte	0
 16417 058d 02       		.uleb128 0x2
 16418 058e 18       		.uleb128 0x18
 16419 058f 9142     		.uleb128 0x2111
 16420 0591 18       		.uleb128 0x18
 16421 0592 00       		.byte	0
 16422 0593 00       		.byte	0
 16423 0594 5F       		.uleb128 0x5f
 16424 0595 2E       		.uleb128 0x2e
 16425 0596 01       		.byte	0x1
 16426 0597 47       		.uleb128 0x47
 16427 0598 13       		.uleb128 0x13
 16428 0599 11       		.uleb128 0x11
 16429 059a 01       		.uleb128 0x1
 16430 059b 12       		.uleb128 0x12
 16431 059c 06       		.uleb128 0x6
 16432 059d 40       		.uleb128 0x40
 16433 059e 18       		.uleb128 0x18
 16434 059f 64       		.uleb128 0x64
 16435 05a0 13       		.uleb128 0x13
 16436 05a1 9742     		.uleb128 0x2117
ARM GAS  C:\Users\jrdia\AppData\Local\Temp\ccFTvYyK.s 			page 320


 16437 05a3 19       		.uleb128 0x19
 16438 05a4 01       		.uleb128 0x1
 16439 05a5 13       		.uleb128 0x13
 16440 05a6 00       		.byte	0
 16441 05a7 00       		.byte	0
 16442 05a8 60       		.uleb128 0x60
 16443 05a9 898201   		.uleb128 0x4109
 16444 05ac 01       		.byte	0x1
 16445 05ad 11       		.uleb128 0x11
 16446 05ae 01       		.uleb128 0x1
 16447 05af 31       		.uleb128 0x31
 16448 05b0 13       		.uleb128 0x13
 16449 05b1 00       		.byte	0
 16450 05b2 00       		.byte	0
 16451 05b3 61       		.uleb128 0x61
 16452 05b4 05       		.uleb128 0x5
 16453 05b5 00       		.byte	0
 16454 05b6 03       		.uleb128 0x3
 16455 05b7 0E       		.uleb128 0xe
 16456 05b8 3A       		.uleb128 0x3a
 16457 05b9 0B       		.uleb128 0xb
 16458 05ba 3B       		.uleb128 0x3b
 16459 05bb 0B       		.uleb128 0xb
 16460 05bc 49       		.uleb128 0x49
 16461 05bd 13       		.uleb128 0x13
 16462 05be 02       		.uleb128 0x2
 16463 05bf 17       		.uleb128 0x17
 16464 05c0 00       		.byte	0
 16465 05c1 00       		.byte	0
 16466 05c2 62       		.uleb128 0x62
 16467 05c3 34       		.uleb128 0x34
 16468 05c4 00       		.byte	0
 16469 05c5 03       		.uleb128 0x3
 16470 05c6 08       		.uleb128 0x8
 16471 05c7 3A       		.uleb128 0x3a
 16472 05c8 0B       		.uleb128 0xb
 16473 05c9 3B       		.uleb128 0x3b
 16474 05ca 0B       		.uleb128 0xb
 16475 05cb 49       		.uleb128 0x49
 16476 05cc 13       		.uleb128 0x13
 16477 05cd 02       		.uleb128 0x2
 16478 05ce 18       		.uleb128 0x18
 16479 05cf 00       		.byte	0
 16480 05d0 00       		.byte	0
 16481 05d1 63       		.uleb128 0x63
 16482 05d2 1D       		.uleb128 0x1d
 16483 05d3 01       		.byte	0x1
 16484 05d4 31       		.uleb128 0x31
 16485 05d5 13       		.uleb128 0x13
 16486 05d6 52       		.uleb128 0x52
 16487 05d7 01       		.uleb128 0x1
 16488 05d8 55       		.uleb128 0x55
 16489 05d9 17       		.uleb128 0x17
 16490 05da 58       		.uleb128 0x58
 16491 05db 0B       		.uleb128 0xb
 16492 05dc 59       		.uleb128 0x59
 16493 05dd 0B       		.uleb128 0xb
ARM GAS  C:\Users\jrdia\AppData\Local\Temp\ccFTvYyK.s 			page 321


 16494 05de 01       		.uleb128 0x1
 16495 05df 13       		.uleb128 0x13
 16496 05e0 00       		.byte	0
 16497 05e1 00       		.byte	0
 16498 05e2 64       		.uleb128 0x64
 16499 05e3 05       		.uleb128 0x5
 16500 05e4 00       		.byte	0
 16501 05e5 31       		.uleb128 0x31
 16502 05e6 13       		.uleb128 0x13
 16503 05e7 02       		.uleb128 0x2
 16504 05e8 17       		.uleb128 0x17
 16505 05e9 00       		.byte	0
 16506 05ea 00       		.byte	0
 16507 05eb 65       		.uleb128 0x65
 16508 05ec 34       		.uleb128 0x34
 16509 05ed 00       		.byte	0
 16510 05ee 03       		.uleb128 0x3
 16511 05ef 08       		.uleb128 0x8
 16512 05f0 3A       		.uleb128 0x3a
 16513 05f1 0B       		.uleb128 0xb
 16514 05f2 3B       		.uleb128 0x3b
 16515 05f3 0B       		.uleb128 0xb
 16516 05f4 49       		.uleb128 0x49
 16517 05f5 13       		.uleb128 0x13
 16518 05f6 00       		.byte	0
 16519 05f7 00       		.byte	0
 16520 05f8 66       		.uleb128 0x66
 16521 05f9 1D       		.uleb128 0x1d
 16522 05fa 01       		.byte	0x1
 16523 05fb 31       		.uleb128 0x31
 16524 05fc 13       		.uleb128 0x13
 16525 05fd 11       		.uleb128 0x11
 16526 05fe 01       		.uleb128 0x1
 16527 05ff 12       		.uleb128 0x12
 16528 0600 06       		.uleb128 0x6
 16529 0601 58       		.uleb128 0x58
 16530 0602 0B       		.uleb128 0xb
 16531 0603 59       		.uleb128 0x59
 16532 0604 0B       		.uleb128 0xb
 16533 0605 01       		.uleb128 0x1
 16534 0606 13       		.uleb128 0x13
 16535 0607 00       		.byte	0
 16536 0608 00       		.byte	0
 16537 0609 67       		.uleb128 0x67
 16538 060a 0B       		.uleb128 0xb
 16539 060b 01       		.byte	0x1
 16540 060c 11       		.uleb128 0x11
 16541 060d 01       		.uleb128 0x1
 16542 060e 12       		.uleb128 0x12
 16543 060f 06       		.uleb128 0x6
 16544 0610 00       		.byte	0
 16545 0611 00       		.byte	0
 16546 0612 68       		.uleb128 0x68
 16547 0613 34       		.uleb128 0x34
 16548 0614 00       		.byte	0
 16549 0615 31       		.uleb128 0x31
 16550 0616 13       		.uleb128 0x13
ARM GAS  C:\Users\jrdia\AppData\Local\Temp\ccFTvYyK.s 			page 322


 16551 0617 02       		.uleb128 0x2
 16552 0618 18       		.uleb128 0x18
 16553 0619 00       		.byte	0
 16554 061a 00       		.byte	0
 16555 061b 69       		.uleb128 0x69
 16556 061c 1D       		.uleb128 0x1d
 16557 061d 01       		.byte	0x1
 16558 061e 31       		.uleb128 0x31
 16559 061f 13       		.uleb128 0x13
 16560 0620 11       		.uleb128 0x11
 16561 0621 01       		.uleb128 0x1
 16562 0622 12       		.uleb128 0x12
 16563 0623 06       		.uleb128 0x6
 16564 0624 58       		.uleb128 0x58
 16565 0625 0B       		.uleb128 0xb
 16566 0626 59       		.uleb128 0x59
 16567 0627 0B       		.uleb128 0xb
 16568 0628 00       		.byte	0
 16569 0629 00       		.byte	0
 16570 062a 6A       		.uleb128 0x6a
 16571 062b 05       		.uleb128 0x5
 16572 062c 00       		.byte	0
 16573 062d 31       		.uleb128 0x31
 16574 062e 13       		.uleb128 0x13
 16575 062f 1C       		.uleb128 0x1c
 16576 0630 0B       		.uleb128 0xb
 16577 0631 00       		.byte	0
 16578 0632 00       		.byte	0
 16579 0633 6B       		.uleb128 0x6b
 16580 0634 1D       		.uleb128 0x1d
 16581 0635 01       		.byte	0x1
 16582 0636 31       		.uleb128 0x31
 16583 0637 13       		.uleb128 0x13
 16584 0638 11       		.uleb128 0x11
 16585 0639 01       		.uleb128 0x1
 16586 063a 12       		.uleb128 0x12
 16587 063b 06       		.uleb128 0x6
 16588 063c 58       		.uleb128 0x58
 16589 063d 0B       		.uleb128 0xb
 16590 063e 59       		.uleb128 0x59
 16591 063f 05       		.uleb128 0x5
 16592 0640 00       		.byte	0
 16593 0641 00       		.byte	0
 16594 0642 6C       		.uleb128 0x6c
 16595 0643 05       		.uleb128 0x5
 16596 0644 00       		.byte	0
 16597 0645 03       		.uleb128 0x3
 16598 0646 08       		.uleb128 0x8
 16599 0647 3A       		.uleb128 0x3a
 16600 0648 0B       		.uleb128 0xb
 16601 0649 3B       		.uleb128 0x3b
 16602 064a 0B       		.uleb128 0xb
 16603 064b 49       		.uleb128 0x49
 16604 064c 13       		.uleb128 0x13
 16605 064d 02       		.uleb128 0x2
 16606 064e 17       		.uleb128 0x17
 16607 064f 00       		.byte	0
ARM GAS  C:\Users\jrdia\AppData\Local\Temp\ccFTvYyK.s 			page 323


 16608 0650 00       		.byte	0
 16609 0651 6D       		.uleb128 0x6d
 16610 0652 2E       		.uleb128 0x2e
 16611 0653 01       		.byte	0x1
 16612 0654 31       		.uleb128 0x31
 16613 0655 13       		.uleb128 0x13
 16614 0656 11       		.uleb128 0x11
 16615 0657 01       		.uleb128 0x1
 16616 0658 12       		.uleb128 0x12
 16617 0659 06       		.uleb128 0x6
 16618 065a 40       		.uleb128 0x40
 16619 065b 18       		.uleb128 0x18
 16620 065c 9742     		.uleb128 0x2117
 16621 065e 19       		.uleb128 0x19
 16622 065f 01       		.uleb128 0x1
 16623 0660 13       		.uleb128 0x13
 16624 0661 00       		.byte	0
 16625 0662 00       		.byte	0
 16626 0663 6E       		.uleb128 0x6e
 16627 0664 05       		.uleb128 0x5
 16628 0665 00       		.byte	0
 16629 0666 31       		.uleb128 0x31
 16630 0667 13       		.uleb128 0x13
 16631 0668 02       		.uleb128 0x2
 16632 0669 18       		.uleb128 0x18
 16633 066a 00       		.byte	0
 16634 066b 00       		.byte	0
 16635 066c 6F       		.uleb128 0x6f
 16636 066d 898201   		.uleb128 0x4109
 16637 0670 01       		.byte	0x1
 16638 0671 11       		.uleb128 0x11
 16639 0672 01       		.uleb128 0x1
 16640 0673 31       		.uleb128 0x31
 16641 0674 13       		.uleb128 0x13
 16642 0675 01       		.uleb128 0x1
 16643 0676 13       		.uleb128 0x13
 16644 0677 00       		.byte	0
 16645 0678 00       		.byte	0
 16646 0679 70       		.uleb128 0x70
 16647 067a 34       		.uleb128 0x34
 16648 067b 00       		.byte	0
 16649 067c 31       		.uleb128 0x31
 16650 067d 13       		.uleb128 0x13
 16651 067e 02       		.uleb128 0x2
 16652 067f 17       		.uleb128 0x17
 16653 0680 00       		.byte	0
 16654 0681 00       		.byte	0
 16655 0682 71       		.uleb128 0x71
 16656 0683 34       		.uleb128 0x34
 16657 0684 00       		.byte	0
 16658 0685 31       		.uleb128 0x31
 16659 0686 13       		.uleb128 0x13
 16660 0687 1C       		.uleb128 0x1c
 16661 0688 0B       		.uleb128 0xb
 16662 0689 00       		.byte	0
 16663 068a 00       		.byte	0
 16664 068b 72       		.uleb128 0x72
ARM GAS  C:\Users\jrdia\AppData\Local\Temp\ccFTvYyK.s 			page 324


 16665 068c 898201   		.uleb128 0x4109
 16666 068f 00       		.byte	0
 16667 0690 11       		.uleb128 0x11
 16668 0691 01       		.uleb128 0x1
 16669 0692 31       		.uleb128 0x31
 16670 0693 13       		.uleb128 0x13
 16671 0694 00       		.byte	0
 16672 0695 00       		.byte	0
 16673 0696 73       		.uleb128 0x73
 16674 0697 2E       		.uleb128 0x2e
 16675 0698 01       		.byte	0x1
 16676 0699 3F       		.uleb128 0x3f
 16677 069a 19       		.uleb128 0x19
 16678 069b 03       		.uleb128 0x3
 16679 069c 0E       		.uleb128 0xe
 16680 069d 3A       		.uleb128 0x3a
 16681 069e 0B       		.uleb128 0xb
 16682 069f 3B       		.uleb128 0x3b
 16683 06a0 0B       		.uleb128 0xb
 16684 06a1 6E       		.uleb128 0x6e
 16685 06a2 0E       		.uleb128 0xe
 16686 06a3 11       		.uleb128 0x11
 16687 06a4 01       		.uleb128 0x1
 16688 06a5 12       		.uleb128 0x12
 16689 06a6 06       		.uleb128 0x6
 16690 06a7 40       		.uleb128 0x40
 16691 06a8 18       		.uleb128 0x18
 16692 06a9 9742     		.uleb128 0x2117
 16693 06ab 19       		.uleb128 0x19
 16694 06ac 01       		.uleb128 0x1
 16695 06ad 13       		.uleb128 0x13
 16696 06ae 00       		.byte	0
 16697 06af 00       		.byte	0
 16698 06b0 74       		.uleb128 0x74
 16699 06b1 2E       		.uleb128 0x2e
 16700 06b2 01       		.byte	0x1
 16701 06b3 31       		.uleb128 0x31
 16702 06b4 13       		.uleb128 0x13
 16703 06b5 6E       		.uleb128 0x6e
 16704 06b6 0E       		.uleb128 0xe
 16705 06b7 11       		.uleb128 0x11
 16706 06b8 01       		.uleb128 0x1
 16707 06b9 12       		.uleb128 0x12
 16708 06ba 06       		.uleb128 0x6
 16709 06bb 40       		.uleb128 0x40
 16710 06bc 18       		.uleb128 0x18
 16711 06bd 64       		.uleb128 0x64
 16712 06be 13       		.uleb128 0x13
 16713 06bf 9742     		.uleb128 0x2117
 16714 06c1 19       		.uleb128 0x19
 16715 06c2 01       		.uleb128 0x1
 16716 06c3 13       		.uleb128 0x13
 16717 06c4 00       		.byte	0
 16718 06c5 00       		.byte	0
 16719 06c6 75       		.uleb128 0x75
 16720 06c7 0B       		.uleb128 0xb
 16721 06c8 01       		.byte	0x1
ARM GAS  C:\Users\jrdia\AppData\Local\Temp\ccFTvYyK.s 			page 325


 16722 06c9 11       		.uleb128 0x11
 16723 06ca 01       		.uleb128 0x1
 16724 06cb 12       		.uleb128 0x12
 16725 06cc 06       		.uleb128 0x6
 16726 06cd 01       		.uleb128 0x1
 16727 06ce 13       		.uleb128 0x13
 16728 06cf 00       		.byte	0
 16729 06d0 00       		.byte	0
 16730 06d1 76       		.uleb128 0x76
 16731 06d2 34       		.uleb128 0x34
 16732 06d3 00       		.byte	0
 16733 06d4 31       		.uleb128 0x31
 16734 06d5 13       		.uleb128 0x13
 16735 06d6 00       		.byte	0
 16736 06d7 00       		.byte	0
 16737 06d8 77       		.uleb128 0x77
 16738 06d9 8A8201   		.uleb128 0x410a
 16739 06dc 00       		.byte	0
 16740 06dd 31       		.uleb128 0x31
 16741 06de 13       		.uleb128 0x13
 16742 06df 9142     		.uleb128 0x2111
 16743 06e1 18       		.uleb128 0x18
 16744 06e2 00       		.byte	0
 16745 06e3 00       		.byte	0
 16746 06e4 78       		.uleb128 0x78
 16747 06e5 1D       		.uleb128 0x1d
 16748 06e6 01       		.byte	0x1
 16749 06e7 31       		.uleb128 0x31
 16750 06e8 13       		.uleb128 0x13
 16751 06e9 52       		.uleb128 0x52
 16752 06ea 01       		.uleb128 0x1
 16753 06eb 55       		.uleb128 0x55
 16754 06ec 17       		.uleb128 0x17
 16755 06ed 58       		.uleb128 0x58
 16756 06ee 0B       		.uleb128 0xb
 16757 06ef 59       		.uleb128 0x59
 16758 06f0 05       		.uleb128 0x5
 16759 06f1 01       		.uleb128 0x1
 16760 06f2 13       		.uleb128 0x13
 16761 06f3 00       		.byte	0
 16762 06f4 00       		.byte	0
 16763 06f5 79       		.uleb128 0x79
 16764 06f6 1D       		.uleb128 0x1d
 16765 06f7 01       		.byte	0x1
 16766 06f8 31       		.uleb128 0x31
 16767 06f9 13       		.uleb128 0x13
 16768 06fa 52       		.uleb128 0x52
 16769 06fb 01       		.uleb128 0x1
 16770 06fc 55       		.uleb128 0x55
 16771 06fd 17       		.uleb128 0x17
 16772 06fe 58       		.uleb128 0x58
 16773 06ff 0B       		.uleb128 0xb
 16774 0700 59       		.uleb128 0x59
 16775 0701 0B       		.uleb128 0xb
 16776 0702 00       		.byte	0
 16777 0703 00       		.byte	0
 16778 0704 7A       		.uleb128 0x7a
ARM GAS  C:\Users\jrdia\AppData\Local\Temp\ccFTvYyK.s 			page 326


 16779 0705 0B       		.uleb128 0xb
 16780 0706 01       		.byte	0x1
 16781 0707 55       		.uleb128 0x55
 16782 0708 17       		.uleb128 0x17
 16783 0709 00       		.byte	0
 16784 070a 00       		.byte	0
 16785 070b 7B       		.uleb128 0x7b
 16786 070c 2E       		.uleb128 0x2e
 16787 070d 01       		.byte	0x1
 16788 070e 3F       		.uleb128 0x3f
 16789 070f 19       		.uleb128 0x19
 16790 0710 03       		.uleb128 0x3
 16791 0711 0E       		.uleb128 0xe
 16792 0712 3A       		.uleb128 0x3a
 16793 0713 0B       		.uleb128 0xb
 16794 0714 3B       		.uleb128 0x3b
 16795 0715 0B       		.uleb128 0xb
 16796 0716 49       		.uleb128 0x49
 16797 0717 13       		.uleb128 0x13
 16798 0718 8701     		.uleb128 0x87
 16799 071a 19       		.uleb128 0x19
 16800 071b 11       		.uleb128 0x11
 16801 071c 01       		.uleb128 0x1
 16802 071d 12       		.uleb128 0x12
 16803 071e 06       		.uleb128 0x6
 16804 071f 40       		.uleb128 0x40
 16805 0720 18       		.uleb128 0x18
 16806 0721 9742     		.uleb128 0x2117
 16807 0723 19       		.uleb128 0x19
 16808 0724 01       		.uleb128 0x1
 16809 0725 13       		.uleb128 0x13
 16810 0726 00       		.byte	0
 16811 0727 00       		.byte	0
 16812 0728 7C       		.uleb128 0x7c
 16813 0729 05       		.uleb128 0x5
 16814 072a 00       		.byte	0
 16815 072b 31       		.uleb128 0x31
 16816 072c 13       		.uleb128 0x13
 16817 072d 00       		.byte	0
 16818 072e 00       		.byte	0
 16819 072f 7D       		.uleb128 0x7d
 16820 0730 34       		.uleb128 0x34
 16821 0731 00       		.byte	0
 16822 0732 03       		.uleb128 0x3
 16823 0733 08       		.uleb128 0x8
 16824 0734 3A       		.uleb128 0x3a
 16825 0735 0B       		.uleb128 0xb
 16826 0736 3B       		.uleb128 0x3b
 16827 0737 0B       		.uleb128 0xb
 16828 0738 49       		.uleb128 0x49
 16829 0739 13       		.uleb128 0x13
 16830 073a 02       		.uleb128 0x2
 16831 073b 17       		.uleb128 0x17
 16832 073c 00       		.byte	0
 16833 073d 00       		.byte	0
 16834 073e 7E       		.uleb128 0x7e
 16835 073f 2E       		.uleb128 0x2e
ARM GAS  C:\Users\jrdia\AppData\Local\Temp\ccFTvYyK.s 			page 327


 16836 0740 01       		.byte	0x1
 16837 0741 03       		.uleb128 0x3
 16838 0742 0E       		.uleb128 0xe
 16839 0743 34       		.uleb128 0x34
 16840 0744 19       		.uleb128 0x19
 16841 0745 11       		.uleb128 0x11
 16842 0746 01       		.uleb128 0x1
 16843 0747 12       		.uleb128 0x12
 16844 0748 06       		.uleb128 0x6
 16845 0749 40       		.uleb128 0x40
 16846 074a 18       		.uleb128 0x18
 16847 074b 9742     		.uleb128 0x2117
 16848 074d 19       		.uleb128 0x19
 16849 074e 01       		.uleb128 0x1
 16850 074f 13       		.uleb128 0x13
 16851 0750 00       		.byte	0
 16852 0751 00       		.byte	0
 16853 0752 7F       		.uleb128 0x7f
 16854 0753 898201   		.uleb128 0x4109
 16855 0756 01       		.byte	0x1
 16856 0757 11       		.uleb128 0x11
 16857 0758 01       		.uleb128 0x1
 16858 0759 01       		.uleb128 0x1
 16859 075a 13       		.uleb128 0x13
 16860 075b 00       		.byte	0
 16861 075c 00       		.byte	0
 16862 075d 8001     		.uleb128 0x80
 16863 075f 34       		.uleb128 0x34
 16864 0760 00       		.byte	0
 16865 0761 03       		.uleb128 0x3
 16866 0762 0E       		.uleb128 0xe
 16867 0763 3A       		.uleb128 0x3a
 16868 0764 0B       		.uleb128 0xb
 16869 0765 3B       		.uleb128 0x3b
 16870 0766 0B       		.uleb128 0xb
 16871 0767 49       		.uleb128 0x49
 16872 0768 13       		.uleb128 0x13
 16873 0769 1C       		.uleb128 0x1c
 16874 076a 0B       		.uleb128 0xb
 16875 076b 00       		.byte	0
 16876 076c 00       		.byte	0
 16877 076d 8101     		.uleb128 0x81
 16878 076f 34       		.uleb128 0x34
 16879 0770 00       		.byte	0
 16880 0771 03       		.uleb128 0x3
 16881 0772 0E       		.uleb128 0xe
 16882 0773 3A       		.uleb128 0x3a
 16883 0774 0B       		.uleb128 0xb
 16884 0775 3B       		.uleb128 0x3b
 16885 0776 0B       		.uleb128 0xb
 16886 0777 49       		.uleb128 0x49
 16887 0778 13       		.uleb128 0x13
 16888 0779 3F       		.uleb128 0x3f
 16889 077a 19       		.uleb128 0x19
 16890 077b 02       		.uleb128 0x2
 16891 077c 18       		.uleb128 0x18
 16892 077d 00       		.byte	0
ARM GAS  C:\Users\jrdia\AppData\Local\Temp\ccFTvYyK.s 			page 328


 16893 077e 00       		.byte	0
 16894 077f 8201     		.uleb128 0x82
 16895 0781 34       		.uleb128 0x34
 16896 0782 00       		.byte	0
 16897 0783 03       		.uleb128 0x3
 16898 0784 08       		.uleb128 0x8
 16899 0785 3A       		.uleb128 0x3a
 16900 0786 0B       		.uleb128 0xb
 16901 0787 3B       		.uleb128 0x3b
 16902 0788 0B       		.uleb128 0xb
 16903 0789 49       		.uleb128 0x49
 16904 078a 13       		.uleb128 0x13
 16905 078b 3F       		.uleb128 0x3f
 16906 078c 19       		.uleb128 0x19
 16907 078d 02       		.uleb128 0x2
 16908 078e 18       		.uleb128 0x18
 16909 078f 00       		.byte	0
 16910 0790 00       		.byte	0
 16911 0791 8301     		.uleb128 0x83
 16912 0793 34       		.uleb128 0x34
 16913 0794 00       		.byte	0
 16914 0795 03       		.uleb128 0x3
 16915 0796 0E       		.uleb128 0xe
 16916 0797 3A       		.uleb128 0x3a
 16917 0798 0B       		.uleb128 0xb
 16918 0799 3B       		.uleb128 0x3b
 16919 079a 0B       		.uleb128 0xb
 16920 079b 49       		.uleb128 0x49
 16921 079c 13       		.uleb128 0x13
 16922 079d 3F       		.uleb128 0x3f
 16923 079e 19       		.uleb128 0x19
 16924 079f 3C       		.uleb128 0x3c
 16925 07a0 19       		.uleb128 0x19
 16926 07a1 00       		.byte	0
 16927 07a2 00       		.byte	0
 16928 07a3 8401     		.uleb128 0x84
 16929 07a5 34       		.uleb128 0x34
 16930 07a6 00       		.byte	0
 16931 07a7 03       		.uleb128 0x3
 16932 07a8 0E       		.uleb128 0xe
 16933 07a9 3A       		.uleb128 0x3a
 16934 07aa 0B       		.uleb128 0xb
 16935 07ab 3B       		.uleb128 0x3b
 16936 07ac 0B       		.uleb128 0xb
 16937 07ad 49       		.uleb128 0x49
 16938 07ae 13       		.uleb128 0x13
 16939 07af 00       		.byte	0
 16940 07b0 00       		.byte	0
 16941 07b1 8501     		.uleb128 0x85
 16942 07b3 34       		.uleb128 0x34
 16943 07b4 00       		.byte	0
 16944 07b5 03       		.uleb128 0x3
 16945 07b6 0E       		.uleb128 0xe
 16946 07b7 3A       		.uleb128 0x3a
 16947 07b8 0B       		.uleb128 0xb
 16948 07b9 3B       		.uleb128 0x3b
 16949 07ba 0B       		.uleb128 0xb
ARM GAS  C:\Users\jrdia\AppData\Local\Temp\ccFTvYyK.s 			page 329


 16950 07bb 49       		.uleb128 0x49
 16951 07bc 13       		.uleb128 0x13
 16952 07bd 02       		.uleb128 0x2
 16953 07be 18       		.uleb128 0x18
 16954 07bf 00       		.byte	0
 16955 07c0 00       		.byte	0
 16956 07c1 8601     		.uleb128 0x86
 16957 07c3 34       		.uleb128 0x34
 16958 07c4 00       		.byte	0
 16959 07c5 03       		.uleb128 0x3
 16960 07c6 0E       		.uleb128 0xe
 16961 07c7 3A       		.uleb128 0x3a
 16962 07c8 0B       		.uleb128 0xb
 16963 07c9 3B       		.uleb128 0x3b
 16964 07ca 0B       		.uleb128 0xb
 16965 07cb 49       		.uleb128 0x49
 16966 07cc 13       		.uleb128 0x13
 16967 07cd 1C       		.uleb128 0x1c
 16968 07ce 0A       		.uleb128 0xa
 16969 07cf 00       		.byte	0
 16970 07d0 00       		.byte	0
 16971 07d1 8701     		.uleb128 0x87
 16972 07d3 34       		.uleb128 0x34
 16973 07d4 00       		.byte	0
 16974 07d5 47       		.uleb128 0x47
 16975 07d6 13       		.uleb128 0x13
 16976 07d7 6E       		.uleb128 0x6e
 16977 07d8 0E       		.uleb128 0xe
 16978 07d9 02       		.uleb128 0x2
 16979 07da 18       		.uleb128 0x18
 16980 07db 00       		.byte	0
 16981 07dc 00       		.byte	0
 16982 07dd 8801     		.uleb128 0x88
 16983 07df 2E       		.uleb128 0x2e
 16984 07e0 00       		.byte	0
 16985 07e1 3F       		.uleb128 0x3f
 16986 07e2 19       		.uleb128 0x19
 16987 07e3 3C       		.uleb128 0x3c
 16988 07e4 19       		.uleb128 0x19
 16989 07e5 6E       		.uleb128 0x6e
 16990 07e6 0E       		.uleb128 0xe
 16991 07e7 03       		.uleb128 0x3
 16992 07e8 0E       		.uleb128 0xe
 16993 07e9 00       		.byte	0
 16994 07ea 00       		.byte	0
 16995 07eb 8901     		.uleb128 0x89
 16996 07ed 2E       		.uleb128 0x2e
 16997 07ee 00       		.byte	0
 16998 07ef 3F       		.uleb128 0x3f
 16999 07f0 19       		.uleb128 0x19
 17000 07f1 3C       		.uleb128 0x3c
 17001 07f2 19       		.uleb128 0x19
 17002 07f3 6E       		.uleb128 0x6e
 17003 07f4 0E       		.uleb128 0xe
 17004 07f5 03       		.uleb128 0x3
 17005 07f6 0E       		.uleb128 0xe
 17006 07f7 3A       		.uleb128 0x3a
ARM GAS  C:\Users\jrdia\AppData\Local\Temp\ccFTvYyK.s 			page 330


 17007 07f8 0B       		.uleb128 0xb
 17008 07f9 3B       		.uleb128 0x3b
 17009 07fa 0B       		.uleb128 0xb
 17010 07fb 00       		.byte	0
 17011 07fc 00       		.byte	0
 17012 07fd 8A01     		.uleb128 0x8a
 17013 07ff 2E       		.uleb128 0x2e
 17014 0800 00       		.byte	0
 17015 0801 3F       		.uleb128 0x3f
 17016 0802 19       		.uleb128 0x19
 17017 0803 3C       		.uleb128 0x3c
 17018 0804 19       		.uleb128 0x19
 17019 0805 6E       		.uleb128 0x6e
 17020 0806 0E       		.uleb128 0xe
 17021 0807 03       		.uleb128 0x3
 17022 0808 0E       		.uleb128 0xe
 17023 0809 3A       		.uleb128 0x3a
 17024 080a 0B       		.uleb128 0xb
 17025 080b 3B       		.uleb128 0x3b
 17026 080c 05       		.uleb128 0x5
 17027 080d 00       		.byte	0
 17028 080e 00       		.byte	0
 17029 080f 00       		.byte	0
 17030              		.section	.debug_loc,"",%progbits
 17031              	.Ldebug_loc0:
 17032              	.LLST0:
 17033 0000 00000000 		.4byte	.LVL0
 17034 0004 0B000000 		.4byte	.LVL1-1
 17035 0008 0100     		.2byte	0x1
 17036 000a 50       		.byte	0x50
 17037 000b 0B000000 		.4byte	.LVL1-1
 17038 000f 14000000 		.4byte	.LVL3
 17039 0013 0100     		.2byte	0x1
 17040 0015 54       		.byte	0x54
 17041 0016 14000000 		.4byte	.LVL3
 17042 001a 16000000 		.4byte	.LFE276
 17043 001e 0400     		.2byte	0x4
 17044 0020 F3       		.byte	0xf3
 17045 0021 01       		.uleb128 0x1
 17046 0022 50       		.byte	0x50
 17047 0023 9F       		.byte	0x9f
 17048 0024 00000000 		.4byte	0
 17049 0028 00000000 		.4byte	0
 17050              	.LLST1:
 17051 002c 00000000 		.4byte	.LVL4
 17052 0030 04000000 		.4byte	.LVL5
 17053 0034 0100     		.2byte	0x1
 17054 0036 50       		.byte	0x50
 17055 0037 04000000 		.4byte	.LVL5
 17056 003b 07000000 		.4byte	.LVL6-1
 17057 003f 0300     		.2byte	0x3
 17058 0041 70       		.byte	0x70
 17059 0042 54       		.sleb128 -44
 17060 0043 9F       		.byte	0x9f
 17061 0044 07000000 		.4byte	.LVL6-1
 17062 0048 0A000000 		.4byte	.LFE307
 17063 004c 0400     		.2byte	0x4
ARM GAS  C:\Users\jrdia\AppData\Local\Temp\ccFTvYyK.s 			page 331


 17064 004e F3       		.byte	0xf3
 17065 004f 01       		.uleb128 0x1
 17066 0050 50       		.byte	0x50
 17067 0051 9F       		.byte	0x9f
 17068 0052 00000000 		.4byte	0
 17069 0056 00000000 		.4byte	0
 17070              	.LLST2:
 17071 005a 00000000 		.4byte	.LVL7
 17072 005e 10000000 		.4byte	.LVL9
 17073 0062 0100     		.2byte	0x1
 17074 0064 50       		.byte	0x50
 17075 0065 10000000 		.4byte	.LVL9
 17076 0069 5A000000 		.4byte	.LVL14
 17077 006d 0100     		.2byte	0x1
 17078 006f 56       		.byte	0x56
 17079 0070 5A000000 		.4byte	.LVL14
 17080 0074 5C000000 		.4byte	.LFE308
 17081 0078 0400     		.2byte	0x4
 17082 007a F3       		.byte	0xf3
 17083 007b 01       		.uleb128 0x1
 17084 007c 50       		.byte	0x50
 17085 007d 9F       		.byte	0x9f
 17086 007e 00000000 		.4byte	0
 17087 0082 00000000 		.4byte	0
 17088              	.LLST3:
 17089 0086 00000000 		.4byte	.LVL7
 17090 008a 0E000000 		.4byte	.LVL8
 17091 008e 0100     		.2byte	0x1
 17092 0090 51       		.byte	0x51
 17093 0091 0E000000 		.4byte	.LVL8
 17094 0095 5A000000 		.4byte	.LVL13
 17095 0099 0100     		.2byte	0x1
 17096 009b 55       		.byte	0x55
 17097 009c 5A000000 		.4byte	.LVL13
 17098 00a0 5C000000 		.4byte	.LFE308
 17099 00a4 0400     		.2byte	0x4
 17100 00a6 F3       		.byte	0xf3
 17101 00a7 01       		.uleb128 0x1
 17102 00a8 51       		.byte	0x51
 17103 00a9 9F       		.byte	0x9f
 17104 00aa 00000000 		.4byte	0
 17105 00ae 00000000 		.4byte	0
 17106              	.LLST4:
 17107 00b2 4A000000 		.4byte	.LVL11
 17108 00b6 5A000000 		.4byte	.LVL14
 17109 00ba 0100     		.2byte	0x1
 17110 00bc 56       		.byte	0x56
 17111 00bd 5A000000 		.4byte	.LVL14
 17112 00c1 5C000000 		.4byte	.LFE308
 17113 00c5 0400     		.2byte	0x4
 17114 00c7 F3       		.byte	0xf3
 17115 00c8 01       		.uleb128 0x1
 17116 00c9 50       		.byte	0x50
 17117 00ca 9F       		.byte	0x9f
 17118 00cb 00000000 		.4byte	0
 17119 00cf 00000000 		.4byte	0
 17120              	.LLST5:
ARM GAS  C:\Users\jrdia\AppData\Local\Temp\ccFTvYyK.s 			page 332


 17121 00d3 4A000000 		.4byte	.LVL11
 17122 00d7 5A000000 		.4byte	.LVL14
 17123 00db 0100     		.2byte	0x1
 17124 00dd 56       		.byte	0x56
 17125 00de 5A000000 		.4byte	.LVL14
 17126 00e2 5C000000 		.4byte	.LFE308
 17127 00e6 0400     		.2byte	0x4
 17128 00e8 F3       		.byte	0xf3
 17129 00e9 01       		.uleb128 0x1
 17130 00ea 50       		.byte	0x50
 17131 00eb 9F       		.byte	0x9f
 17132 00ec 00000000 		.4byte	0
 17133 00f0 00000000 		.4byte	0
 17134              	.LLST6:
 17135 00f4 4A000000 		.4byte	.LVL11
 17136 00f8 5A000000 		.4byte	.LVL14
 17137 00fc 0100     		.2byte	0x1
 17138 00fe 56       		.byte	0x56
 17139 00ff 5A000000 		.4byte	.LVL14
 17140 0103 5C000000 		.4byte	.LFE308
 17141 0107 0400     		.2byte	0x4
 17142 0109 F3       		.byte	0xf3
 17143 010a 01       		.uleb128 0x1
 17144 010b 50       		.byte	0x50
 17145 010c 9F       		.byte	0x9f
 17146 010d 00000000 		.4byte	0
 17147 0111 00000000 		.4byte	0
 17148              	.LLST7:
 17149 0115 4A000000 		.4byte	.LVL11
 17150 0119 5A000000 		.4byte	.LVL14
 17151 011d 0100     		.2byte	0x1
 17152 011f 56       		.byte	0x56
 17153 0120 5A000000 		.4byte	.LVL14
 17154 0124 5C000000 		.4byte	.LFE308
 17155 0128 0400     		.2byte	0x4
 17156 012a F3       		.byte	0xf3
 17157 012b 01       		.uleb128 0x1
 17158 012c 50       		.byte	0x50
 17159 012d 9F       		.byte	0x9f
 17160 012e 00000000 		.4byte	0
 17161 0132 00000000 		.4byte	0
 17162              	.LLST8:
 17163 0136 4A000000 		.4byte	.LVL11
 17164 013a 58000000 		.4byte	.LVL12
 17165 013e 0300     		.2byte	0x3
 17166 0140 08       		.byte	0x8
 17167 0141 4F       		.byte	0x4f
 17168 0142 9F       		.byte	0x9f
 17169 0143 00000000 		.4byte	0
 17170 0147 00000000 		.4byte	0
 17171              	.LLST9:
 17172 014b 4A000000 		.4byte	.LVL11
 17173 014f 58000000 		.4byte	.LVL12
 17174 0153 0100     		.2byte	0x1
 17175 0155 54       		.byte	0x54
 17176 0156 00000000 		.4byte	0
 17177 015a 00000000 		.4byte	0
ARM GAS  C:\Users\jrdia\AppData\Local\Temp\ccFTvYyK.s 			page 333


 17178              	.LLST10:
 17179 015e 00000000 		.4byte	.LVL15
 17180 0162 08000000 		.4byte	.LVL16
 17181 0166 0100     		.2byte	0x1
 17182 0168 50       		.byte	0x50
 17183 0169 08000000 		.4byte	.LVL16
 17184 016d 30000000 		.4byte	.LVL20
 17185 0171 0100     		.2byte	0x1
 17186 0173 54       		.byte	0x54
 17187 0174 30000000 		.4byte	.LVL20
 17188 0178 34000000 		.4byte	.LVL21
 17189 017c 0400     		.2byte	0x4
 17190 017e F3       		.byte	0xf3
 17191 017f 01       		.uleb128 0x1
 17192 0180 50       		.byte	0x50
 17193 0181 9F       		.byte	0x9f
 17194 0182 34000000 		.4byte	.LVL21
 17195 0186 48000000 		.4byte	.LVL22
 17196 018a 0100     		.2byte	0x1
 17197 018c 54       		.byte	0x54
 17198 018d 48000000 		.4byte	.LVL22
 17199 0191 4C000000 		.4byte	.LFE306
 17200 0195 0400     		.2byte	0x4
 17201 0197 F3       		.byte	0xf3
 17202 0198 01       		.uleb128 0x1
 17203 0199 50       		.byte	0x50
 17204 019a 9F       		.byte	0x9f
 17205 019b 00000000 		.4byte	0
 17206 019f 00000000 		.4byte	0
 17207              	.LLST11:
 17208 01a3 0C000000 		.4byte	.LVL17
 17209 01a7 28000000 		.4byte	.LVL19
 17210 01ab 0100     		.2byte	0x1
 17211 01ad 54       		.byte	0x54
 17212 01ae 00000000 		.4byte	0
 17213 01b2 00000000 		.4byte	0
 17214              	.LLST12:
 17215 01b6 16000000 		.4byte	.LVL18
 17216 01ba 30000000 		.4byte	.LVL20
 17217 01be 0100     		.2byte	0x1
 17218 01c0 54       		.byte	0x54
 17219 01c1 30000000 		.4byte	.LVL20
 17220 01c5 34000000 		.4byte	.LVL21
 17221 01c9 0400     		.2byte	0x4
 17222 01cb F3       		.byte	0xf3
 17223 01cc 01       		.uleb128 0x1
 17224 01cd 50       		.byte	0x50
 17225 01ce 9F       		.byte	0x9f
 17226 01cf 34000000 		.4byte	.LVL21
 17227 01d3 48000000 		.4byte	.LVL22
 17228 01d7 0100     		.2byte	0x1
 17229 01d9 54       		.byte	0x54
 17230 01da 48000000 		.4byte	.LVL22
 17231 01de 4C000000 		.4byte	.LFE306
 17232 01e2 0400     		.2byte	0x4
 17233 01e4 F3       		.byte	0xf3
 17234 01e5 01       		.uleb128 0x1
ARM GAS  C:\Users\jrdia\AppData\Local\Temp\ccFTvYyK.s 			page 334


 17235 01e6 50       		.byte	0x50
 17236 01e7 9F       		.byte	0x9f
 17237 01e8 00000000 		.4byte	0
 17238 01ec 00000000 		.4byte	0
 17239              	.LLST13:
 17240 01f0 16000000 		.4byte	.LVL18
 17241 01f4 30000000 		.4byte	.LVL20
 17242 01f8 0100     		.2byte	0x1
 17243 01fa 54       		.byte	0x54
 17244 01fb 30000000 		.4byte	.LVL20
 17245 01ff 34000000 		.4byte	.LVL21
 17246 0203 0400     		.2byte	0x4
 17247 0205 F3       		.byte	0xf3
 17248 0206 01       		.uleb128 0x1
 17249 0207 50       		.byte	0x50
 17250 0208 9F       		.byte	0x9f
 17251 0209 34000000 		.4byte	.LVL21
 17252 020d 48000000 		.4byte	.LVL22
 17253 0211 0100     		.2byte	0x1
 17254 0213 54       		.byte	0x54
 17255 0214 48000000 		.4byte	.LVL22
 17256 0218 4C000000 		.4byte	.LFE306
 17257 021c 0400     		.2byte	0x4
 17258 021e F3       		.byte	0xf3
 17259 021f 01       		.uleb128 0x1
 17260 0220 50       		.byte	0x50
 17261 0221 9F       		.byte	0x9f
 17262 0222 00000000 		.4byte	0
 17263 0226 00000000 		.4byte	0
 17264              	.LLST14:
 17265 022a 16000000 		.4byte	.LVL18
 17266 022e 30000000 		.4byte	.LVL20
 17267 0232 0100     		.2byte	0x1
 17268 0234 54       		.byte	0x54
 17269 0235 30000000 		.4byte	.LVL20
 17270 0239 34000000 		.4byte	.LVL21
 17271 023d 0400     		.2byte	0x4
 17272 023f F3       		.byte	0xf3
 17273 0240 01       		.uleb128 0x1
 17274 0241 50       		.byte	0x50
 17275 0242 9F       		.byte	0x9f
 17276 0243 34000000 		.4byte	.LVL21
 17277 0247 48000000 		.4byte	.LVL22
 17278 024b 0100     		.2byte	0x1
 17279 024d 54       		.byte	0x54
 17280 024e 48000000 		.4byte	.LVL22
 17281 0252 4C000000 		.4byte	.LFE306
 17282 0256 0400     		.2byte	0x4
 17283 0258 F3       		.byte	0xf3
 17284 0259 01       		.uleb128 0x1
 17285 025a 50       		.byte	0x50
 17286 025b 9F       		.byte	0x9f
 17287 025c 00000000 		.4byte	0
 17288 0260 00000000 		.4byte	0
 17289              	.LLST15:
 17290 0264 16000000 		.4byte	.LVL18
 17291 0268 30000000 		.4byte	.LVL20
ARM GAS  C:\Users\jrdia\AppData\Local\Temp\ccFTvYyK.s 			page 335


 17292 026c 0100     		.2byte	0x1
 17293 026e 54       		.byte	0x54
 17294 026f 30000000 		.4byte	.LVL20
 17295 0273 34000000 		.4byte	.LVL21
 17296 0277 0400     		.2byte	0x4
 17297 0279 F3       		.byte	0xf3
 17298 027a 01       		.uleb128 0x1
 17299 027b 50       		.byte	0x50
 17300 027c 9F       		.byte	0x9f
 17301 027d 34000000 		.4byte	.LVL21
 17302 0281 48000000 		.4byte	.LVL22
 17303 0285 0100     		.2byte	0x1
 17304 0287 54       		.byte	0x54
 17305 0288 48000000 		.4byte	.LVL22
 17306 028c 4C000000 		.4byte	.LFE306
 17307 0290 0400     		.2byte	0x4
 17308 0292 F3       		.byte	0xf3
 17309 0293 01       		.uleb128 0x1
 17310 0294 50       		.byte	0x50
 17311 0295 9F       		.byte	0x9f
 17312 0296 00000000 		.4byte	0
 17313 029a 00000000 		.4byte	0
 17314              	.LLST16:
 17315 029e 16000000 		.4byte	.LVL18
 17316 02a2 28000000 		.4byte	.LVL19
 17317 02a6 0200     		.2byte	0x2
 17318 02a8 32       		.byte	0x32
 17319 02a9 9F       		.byte	0x9f
 17320 02aa 00000000 		.4byte	0
 17321 02ae 00000000 		.4byte	0
 17322              	.LLST17:
 17323 02b2 16000000 		.4byte	.LVL18
 17324 02b6 27000000 		.4byte	.LVL19-1
 17325 02ba 0100     		.2byte	0x1
 17326 02bc 52       		.byte	0x52
 17327 02bd 27000000 		.4byte	.LVL19-1
 17328 02c1 28000000 		.4byte	.LVL19
 17329 02c5 0300     		.2byte	0x3
 17330 02c7 91       		.byte	0x91
 17331 02c8 74       		.sleb128 -12
 17332 02c9 9F       		.byte	0x9f
 17333 02ca 00000000 		.4byte	0
 17334 02ce 00000000 		.4byte	0
 17335              	.LLST18:
 17336 02d2 34000000 		.4byte	.LVL21
 17337 02d6 48000000 		.4byte	.LVL22
 17338 02da 0300     		.2byte	0x3
 17339 02dc 74       		.byte	0x74
 17340 02dd 2C       		.sleb128 44
 17341 02de 9F       		.byte	0x9f
 17342 02df 48000000 		.4byte	.LVL22
 17343 02e3 4C000000 		.4byte	.LFE306
 17344 02e7 0400     		.2byte	0x4
 17345 02e9 74       		.byte	0x74
 17346 02ea B37F     		.sleb128 -77
 17347 02ec 9F       		.byte	0x9f
 17348 02ed 00000000 		.4byte	0
ARM GAS  C:\Users\jrdia\AppData\Local\Temp\ccFTvYyK.s 			page 336


 17349 02f1 00000000 		.4byte	0
 17350              	.LLST19:
 17351 02f5 34000000 		.4byte	.LVL21
 17352 02f9 4A000000 		.4byte	.LVL23
 17353 02fd 0300     		.2byte	0x3
 17354 02ff 09       		.byte	0x9
 17355 0300 FF       		.byte	0xff
 17356 0301 9F       		.byte	0x9f
 17357 0302 00000000 		.4byte	0
 17358 0306 00000000 		.4byte	0
 17359              	.LLST20:
 17360 030a 34000000 		.4byte	.LVL21
 17361 030e 4A000000 		.4byte	.LVL23
 17362 0312 0200     		.2byte	0x2
 17363 0314 30       		.byte	0x30
 17364 0315 9F       		.byte	0x9f
 17365 0316 00000000 		.4byte	0
 17366 031a 00000000 		.4byte	0
 17367              	.LLST22:
 17368 031e 34000000 		.4byte	.LVL21
 17369 0322 48000000 		.4byte	.LVL22
 17370 0326 0300     		.2byte	0x3
 17371 0328 74       		.byte	0x74
 17372 0329 2C       		.sleb128 44
 17373 032a 9F       		.byte	0x9f
 17374 032b 48000000 		.4byte	.LVL22
 17375 032f 4A000000 		.4byte	.LVL23
 17376 0333 0400     		.2byte	0x4
 17377 0335 74       		.byte	0x74
 17378 0336 B37F     		.sleb128 -77
 17379 0338 9F       		.byte	0x9f
 17380 0339 00000000 		.4byte	0
 17381 033d 00000000 		.4byte	0
 17382              	.LLST23:
 17383 0341 00000000 		.4byte	.LVL24
 17384 0345 04000000 		.4byte	.LVL25
 17385 0349 0100     		.2byte	0x1
 17386 034b 50       		.byte	0x50
 17387 034c 04000000 		.4byte	.LVL25
 17388 0350 07000000 		.4byte	.LVL26-1
 17389 0354 0300     		.2byte	0x3
 17390 0356 70       		.byte	0x70
 17391 0357 54       		.sleb128 -44
 17392 0358 9F       		.byte	0x9f
 17393 0359 07000000 		.4byte	.LVL26-1
 17394 035d 0A000000 		.4byte	.LFE305
 17395 0361 0400     		.2byte	0x4
 17396 0363 F3       		.byte	0xf3
 17397 0364 01       		.uleb128 0x1
 17398 0365 50       		.byte	0x50
 17399 0366 9F       		.byte	0x9f
 17400 0367 00000000 		.4byte	0
 17401 036b 00000000 		.4byte	0
 17402              	.LLST24:
 17403 036f 00000000 		.4byte	.LVL24
 17404 0373 07000000 		.4byte	.LVL26-1
 17405 0377 0100     		.2byte	0x1
ARM GAS  C:\Users\jrdia\AppData\Local\Temp\ccFTvYyK.s 			page 337


 17406 0379 51       		.byte	0x51
 17407 037a 07000000 		.4byte	.LVL26-1
 17408 037e 0A000000 		.4byte	.LFE305
 17409 0382 0400     		.2byte	0x4
 17410 0384 F3       		.byte	0xf3
 17411 0385 01       		.uleb128 0x1
 17412 0386 51       		.byte	0x51
 17413 0387 9F       		.byte	0x9f
 17414 0388 00000000 		.4byte	0
 17415 038c 00000000 		.4byte	0
 17416              	.LLST25:
 17417 0390 00000000 		.4byte	.LVL24
 17418 0394 07000000 		.4byte	.LVL26-1
 17419 0398 0100     		.2byte	0x1
 17420 039a 52       		.byte	0x52
 17421 039b 07000000 		.4byte	.LVL26-1
 17422 039f 0A000000 		.4byte	.LFE305
 17423 03a3 0400     		.2byte	0x4
 17424 03a5 F3       		.byte	0xf3
 17425 03a6 01       		.uleb128 0x1
 17426 03a7 52       		.byte	0x52
 17427 03a8 9F       		.byte	0x9f
 17428 03a9 00000000 		.4byte	0
 17429 03ad 00000000 		.4byte	0
 17430              	.LLST26:
 17431 03b1 00000000 		.4byte	.LVL27
 17432 03b5 06000000 		.4byte	.LVL28
 17433 03b9 0100     		.2byte	0x1
 17434 03bb 50       		.byte	0x50
 17435 03bc 06000000 		.4byte	.LVL28
 17436 03c0 2E000000 		.4byte	.LFE337
 17437 03c4 0400     		.2byte	0x4
 17438 03c6 F3       		.byte	0xf3
 17439 03c7 01       		.uleb128 0x1
 17440 03c8 50       		.byte	0x50
 17441 03c9 9F       		.byte	0x9f
 17442 03ca 00000000 		.4byte	0
 17443 03ce 00000000 		.4byte	0
 17444              	.LLST27:
 17445 03d2 00000000 		.4byte	.LVL27
 17446 03d6 0B000000 		.4byte	.LVL29-1
 17447 03da 0100     		.2byte	0x1
 17448 03dc 51       		.byte	0x51
 17449 03dd 0B000000 		.4byte	.LVL29-1
 17450 03e1 2E000000 		.4byte	.LFE337
 17451 03e5 0400     		.2byte	0x4
 17452 03e7 F3       		.byte	0xf3
 17453 03e8 01       		.uleb128 0x1
 17454 03e9 51       		.byte	0x51
 17455 03ea 9F       		.byte	0x9f
 17456 03eb 00000000 		.4byte	0
 17457 03ef 00000000 		.4byte	0
 17458              	.LLST28:
 17459 03f3 00000000 		.4byte	.LVL35
 17460 03f7 06000000 		.4byte	.LVL36
 17461 03fb 0100     		.2byte	0x1
 17462 03fd 50       		.byte	0x50
ARM GAS  C:\Users\jrdia\AppData\Local\Temp\ccFTvYyK.s 			page 338


 17463 03fe 06000000 		.4byte	.LVL36
 17464 0402 4A000000 		.4byte	.LFE338
 17465 0406 0400     		.2byte	0x4
 17466 0408 F3       		.byte	0xf3
 17467 0409 01       		.uleb128 0x1
 17468 040a 50       		.byte	0x50
 17469 040b 9F       		.byte	0x9f
 17470 040c 00000000 		.4byte	0
 17471 0410 00000000 		.4byte	0
 17472              	.LLST29:
 17473 0414 32000000 		.4byte	.LVL44
 17474 0418 48000000 		.4byte	.LVL50
 17475 041c 0100     		.2byte	0x1
 17476 041e 54       		.byte	0x54
 17477 041f 00000000 		.4byte	0
 17478 0423 00000000 		.4byte	0
 17479              	.LLST30:
 17480 0427 00000000 		.4byte	.LVL54
 17481 042b 04000000 		.4byte	.LVL55
 17482 042f 0100     		.2byte	0x1
 17483 0431 50       		.byte	0x50
 17484 0432 04000000 		.4byte	.LVL55
 17485 0436 70000000 		.4byte	.LFE329
 17486 043a 0400     		.2byte	0x4
 17487 043c F3       		.byte	0xf3
 17488 043d 01       		.uleb128 0x1
 17489 043e 50       		.byte	0x50
 17490 043f 9F       		.byte	0x9f
 17491 0440 00000000 		.4byte	0
 17492 0444 00000000 		.4byte	0
 17493              	.LLST31:
 17494 0448 08000000 		.4byte	.LVL56
 17495 044c 0C000000 		.4byte	.LVL57
 17496 0450 0600     		.2byte	0x6
 17497 0452 70       		.byte	0x70
 17498 0453 00       		.sleb128 0
 17499 0454 09       		.byte	0x9
 17500 0455 C0       		.byte	0xc0
 17501 0456 1A       		.byte	0x1a
 17502 0457 9F       		.byte	0x9f
 17503 0458 00000000 		.4byte	0
 17504 045c 00000000 		.4byte	0
 17505              	.LLST32:
 17506 0460 3E000000 		.4byte	.LVL60
 17507 0464 48000000 		.4byte	.LVL62
 17508 0468 0400     		.2byte	0x4
 17509 046a F3       		.byte	0xf3
 17510 046b 01       		.uleb128 0x1
 17511 046c 50       		.byte	0x50
 17512 046d 9F       		.byte	0x9f
 17513 046e 00000000 		.4byte	0
 17514 0472 00000000 		.4byte	0
 17515              	.LLST33:
 17516 0476 00000000 		.4byte	.LVL65
 17517 047a 07000000 		.4byte	.LVL66-1
 17518 047e 0100     		.2byte	0x1
 17519 0480 50       		.byte	0x50
ARM GAS  C:\Users\jrdia\AppData\Local\Temp\ccFTvYyK.s 			page 339


 17520 0481 07000000 		.4byte	.LVL66-1
 17521 0485 84000000 		.4byte	.LVL84
 17522 0489 0100     		.2byte	0x1
 17523 048b 56       		.byte	0x56
 17524 048c 84000000 		.4byte	.LVL84
 17525 0490 86000000 		.4byte	.LVL85
 17526 0494 0400     		.2byte	0x4
 17527 0496 F3       		.byte	0xf3
 17528 0497 01       		.uleb128 0x1
 17529 0498 50       		.byte	0x50
 17530 0499 9F       		.byte	0x9f
 17531 049a 86000000 		.4byte	.LVL85
 17532 049e 94000000 		.4byte	.LFE324
 17533 04a2 0100     		.2byte	0x1
 17534 04a4 56       		.byte	0x56
 17535 04a5 00000000 		.4byte	0
 17536 04a9 00000000 		.4byte	0
 17537              	.LLST34:
 17538 04ad 08000000 		.4byte	.LVL66
 17539 04b1 16000000 		.4byte	.LVL67
 17540 04b5 0200     		.2byte	0x2
 17541 04b7 34       		.byte	0x34
 17542 04b8 9F       		.byte	0x9f
 17543 04b9 00000000 		.4byte	0
 17544 04bd 00000000 		.4byte	0
 17545              	.LLST35:
 17546 04c1 16000000 		.4byte	.LVL67
 17547 04c5 20000000 		.4byte	.LVL68
 17548 04c9 0200     		.2byte	0x2
 17549 04cb 34       		.byte	0x34
 17550 04cc 9F       		.byte	0x9f
 17551 04cd 00000000 		.4byte	0
 17552 04d1 00000000 		.4byte	0
 17553              	.LLST36:
 17554 04d5 24000000 		.4byte	.LVL69
 17555 04d9 84000000 		.4byte	.LVL84
 17556 04dd 0100     		.2byte	0x1
 17557 04df 56       		.byte	0x56
 17558 04e0 84000000 		.4byte	.LVL84
 17559 04e4 86000000 		.4byte	.LVL85
 17560 04e8 0400     		.2byte	0x4
 17561 04ea F3       		.byte	0xf3
 17562 04eb 01       		.uleb128 0x1
 17563 04ec 50       		.byte	0x50
 17564 04ed 9F       		.byte	0x9f
 17565 04ee 86000000 		.4byte	.LVL85
 17566 04f2 94000000 		.4byte	.LFE324
 17567 04f6 0100     		.2byte	0x1
 17568 04f8 56       		.byte	0x56
 17569 04f9 00000000 		.4byte	0
 17570 04fd 00000000 		.4byte	0
 17571              	.LLST37:
 17572 0501 24000000 		.4byte	.LVL69
 17573 0505 34000000 		.4byte	.LVL71
 17574 0509 0200     		.2byte	0x2
 17575 050b 30       		.byte	0x30
 17576 050c 9F       		.byte	0x9f
ARM GAS  C:\Users\jrdia\AppData\Local\Temp\ccFTvYyK.s 			page 340


 17577 050d 34000000 		.4byte	.LVL71
 17578 0511 36000000 		.4byte	.LVL72
 17579 0515 0200     		.2byte	0x2
 17580 0517 31       		.byte	0x31
 17581 0518 9F       		.byte	0x9f
 17582 0519 36000000 		.4byte	.LVL72
 17583 051d 38000000 		.4byte	.LVL73
 17584 0521 0500     		.2byte	0x5
 17585 0523 31       		.byte	0x31
 17586 0524 74       		.byte	0x74
 17587 0525 00       		.sleb128 0
 17588 0526 1C       		.byte	0x1c
 17589 0527 9F       		.byte	0x9f
 17590 0528 3E000000 		.4byte	.LVL74
 17591 052c 48000000 		.4byte	.LVL76
 17592 0530 0400     		.2byte	0x4
 17593 0532 74       		.byte	0x74
 17594 0533 00       		.sleb128 0
 17595 0534 1F       		.byte	0x1f
 17596 0535 9F       		.byte	0x9f
 17597 0536 00000000 		.4byte	0
 17598 053a 00000000 		.4byte	0
 17599              	.LLST38:
 17600 053e 60000000 		.4byte	.LVL79
 17601 0542 82000000 		.4byte	.LVL83
 17602 0546 0100     		.2byte	0x1
 17603 0548 56       		.byte	0x56
 17604 0549 00000000 		.4byte	0
 17605 054d 00000000 		.4byte	0
 17606              	.LLST39:
 17607 0551 1E010000 		.4byte	.LVL114
 17608 0555 32010000 		.4byte	.LVL115
 17609 0559 0100     		.2byte	0x1
 17610 055b 50       		.byte	0x50
 17611 055c 00000000 		.4byte	0
 17612 0560 00000000 		.4byte	0
 17613              	.LLST40:
 17614 0564 1E010000 		.4byte	.LVL114
 17615 0568 32010000 		.4byte	.LVL115
 17616 056c 0100     		.2byte	0x1
 17617 056e 57       		.byte	0x57
 17618 056f 00000000 		.4byte	0
 17619 0573 00000000 		.4byte	0
 17620              	.LLST41:
 17621 0577 1E010000 		.4byte	.LVL114
 17622 057b 32010000 		.4byte	.LVL115
 17623 057f 0600     		.2byte	0x6
 17624 0581 03       		.byte	0x3
 17625 0582 2C000000 		.4byte	PS4+44
 17626 0586 9F       		.byte	0x9f
 17627 0587 00000000 		.4byte	0
 17628 058b 00000000 		.4byte	0
 17629              	.LLST42:
 17630 058f 5E020000 		.4byte	.LVL136
 17631 0593 68020000 		.4byte	.LVL137
 17632 0597 0200     		.2byte	0x2
 17633 0599 30       		.byte	0x30
ARM GAS  C:\Users\jrdia\AppData\Local\Temp\ccFTvYyK.s 			page 341


 17634 059a 9F       		.byte	0x9f
 17635 059b 68020000 		.4byte	.LVL137
 17636 059f 78020000 		.4byte	.LVL138
 17637 05a3 0300     		.2byte	0x3
 17638 05a5 78       		.byte	0x78
 17639 05a6 01       		.sleb128 1
 17640 05a7 9F       		.byte	0x9f
 17641 05a8 78020000 		.4byte	.LVL138
 17642 05ac 7A020000 		.4byte	.LVL139
 17643 05b0 0100     		.2byte	0x1
 17644 05b2 58       		.byte	0x58
 17645 05b3 7A020000 		.4byte	.LVL139
 17646 05b7 7C020000 		.4byte	.LVL140
 17647 05bb 0100     		.2byte	0x1
 17648 05bd 57       		.byte	0x57
 17649 05be 00000000 		.4byte	0
 17650 05c2 00000000 		.4byte	0
 17651              	.LLST43:
 17652 05c6 1E040000 		.4byte	.LVL169
 17653 05ca 3E040000 		.4byte	.LVL171
 17654 05ce 0400     		.2byte	0x4
 17655 05d0 0A       		.byte	0xa
 17656 05d1 00FF     		.2byte	0xff00
 17657 05d3 9F       		.byte	0x9f
 17658 05d4 00000000 		.4byte	0
 17659 05d8 00000000 		.4byte	0
 17660              	.LLST44:
 17661 05dc 1E040000 		.4byte	.LVL169
 17662 05e0 3E040000 		.4byte	.LVL171
 17663 05e4 0600     		.2byte	0x6
 17664 05e6 03       		.byte	0x3
 17665 05e7 2C000000 		.4byte	PS4+44
 17666 05eb 9F       		.byte	0x9f
 17667 05ec 00000000 		.4byte	0
 17668 05f0 00000000 		.4byte	0
 17669              	.LLST45:
 17670 05f4 1E040000 		.4byte	.LVL169
 17671 05f8 3C040000 		.4byte	.LVL170
 17672 05fc 0200     		.2byte	0x2
 17673 05fe 30       		.byte	0x30
 17674 05ff 9F       		.byte	0x9f
 17675 0600 00000000 		.4byte	0
 17676 0604 00000000 		.4byte	0
 17677              	.LLST46:
 17678 0608 1E040000 		.4byte	.LVL169
 17679 060c 3C040000 		.4byte	.LVL170
 17680 0610 0300     		.2byte	0x3
 17681 0612 09       		.byte	0x9
 17682 0613 FF       		.byte	0xff
 17683 0614 9F       		.byte	0x9f
 17684 0615 00000000 		.4byte	0
 17685 0619 00000000 		.4byte	0
 17686              	.LLST48:
 17687 061d 1E040000 		.4byte	.LVL169
 17688 0621 3C040000 		.4byte	.LVL170
 17689 0625 0600     		.2byte	0x6
 17690 0627 03       		.byte	0x3
ARM GAS  C:\Users\jrdia\AppData\Local\Temp\ccFTvYyK.s 			page 342


 17691 0628 2C000000 		.4byte	PS4+44
 17692 062c 9F       		.byte	0x9f
 17693 062d 00000000 		.4byte	0
 17694 0631 00000000 		.4byte	0
 17695              	.LLST49:
 17696 0635 44040000 		.4byte	.LVL172
 17697 0639 66040000 		.4byte	.LVL174
 17698 063d 0600     		.2byte	0x6
 17699 063f 0C       		.byte	0xc
 17700 0640 04EBFF00 		.4byte	0xffeb04
 17701 0644 9F       		.byte	0x9f
 17702 0645 00000000 		.4byte	0
 17703 0649 00000000 		.4byte	0
 17704              	.LLST50:
 17705 064d 44040000 		.4byte	.LVL172
 17706 0651 66040000 		.4byte	.LVL174
 17707 0655 0600     		.2byte	0x6
 17708 0657 03       		.byte	0x3
 17709 0658 2C000000 		.4byte	PS4+44
 17710 065c 9F       		.byte	0x9f
 17711 065d 00000000 		.4byte	0
 17712 0661 00000000 		.4byte	0
 17713              	.LLST51:
 17714 0665 44040000 		.4byte	.LVL172
 17715 0669 64040000 		.4byte	.LVL173
 17716 066d 0200     		.2byte	0x2
 17717 066f 34       		.byte	0x34
 17718 0670 9F       		.byte	0x9f
 17719 0671 00000000 		.4byte	0
 17720 0675 00000000 		.4byte	0
 17721              	.LLST52:
 17722 0679 44040000 		.4byte	.LVL172
 17723 067d 64040000 		.4byte	.LVL173
 17724 0681 0300     		.2byte	0x3
 17725 0683 09       		.byte	0x9
 17726 0684 EB       		.byte	0xeb
 17727 0685 9F       		.byte	0x9f
 17728 0686 00000000 		.4byte	0
 17729 068a 00000000 		.4byte	0
 17730              	.LLST53:
 17731 068e 44040000 		.4byte	.LVL172
 17732 0692 64040000 		.4byte	.LVL173
 17733 0696 0300     		.2byte	0x3
 17734 0698 09       		.byte	0x9
 17735 0699 FF       		.byte	0xff
 17736 069a 9F       		.byte	0x9f
 17737 069b 00000000 		.4byte	0
 17738 069f 00000000 		.4byte	0
 17739              	.LLST54:
 17740 06a3 44040000 		.4byte	.LVL172
 17741 06a7 64040000 		.4byte	.LVL173
 17742 06ab 0600     		.2byte	0x6
 17743 06ad 03       		.byte	0x3
 17744 06ae 2C000000 		.4byte	PS4+44
 17745 06b2 9F       		.byte	0x9f
 17746 06b3 00000000 		.4byte	0
 17747 06b7 00000000 		.4byte	0
ARM GAS  C:\Users\jrdia\AppData\Local\Temp\ccFTvYyK.s 			page 343


 17748              	.LLST55:
 17749 06bb 6C040000 		.4byte	.LVL175
 17750 06bf 8C040000 		.4byte	.LVL177
 17751 06c3 0300     		.2byte	0x3
 17752 06c5 08       		.byte	0x8
 17753 06c6 FF       		.byte	0xff
 17754 06c7 9F       		.byte	0x9f
 17755 06c8 00000000 		.4byte	0
 17756 06cc 00000000 		.4byte	0
 17757              	.LLST56:
 17758 06d0 6C040000 		.4byte	.LVL175
 17759 06d4 8C040000 		.4byte	.LVL177
 17760 06d8 0600     		.2byte	0x6
 17761 06da 03       		.byte	0x3
 17762 06db 2C000000 		.4byte	PS4+44
 17763 06df 9F       		.byte	0x9f
 17764 06e0 00000000 		.4byte	0
 17765 06e4 00000000 		.4byte	0
 17766              	.LLST57:
 17767 06e8 6C040000 		.4byte	.LVL175
 17768 06ec 8A040000 		.4byte	.LVL176
 17769 06f0 0300     		.2byte	0x3
 17770 06f2 09       		.byte	0x9
 17771 06f3 FF       		.byte	0xff
 17772 06f4 9F       		.byte	0x9f
 17773 06f5 00000000 		.4byte	0
 17774 06f9 00000000 		.4byte	0
 17775              	.LLST58:
 17776 06fd 6C040000 		.4byte	.LVL175
 17777 0701 8A040000 		.4byte	.LVL176
 17778 0705 0200     		.2byte	0x2
 17779 0707 30       		.byte	0x30
 17780 0708 9F       		.byte	0x9f
 17781 0709 00000000 		.4byte	0
 17782 070d 00000000 		.4byte	0
 17783              	.LLST60:
 17784 0711 6C040000 		.4byte	.LVL175
 17785 0715 8A040000 		.4byte	.LVL176
 17786 0719 0600     		.2byte	0x6
 17787 071b 03       		.byte	0x3
 17788 071c 2C000000 		.4byte	PS4+44
 17789 0720 9F       		.byte	0x9f
 17790 0721 00000000 		.4byte	0
 17791 0725 00000000 		.4byte	0
 17792              	.LLST61:
 17793 0729 92040000 		.4byte	.LVL178
 17794 072d B2040000 		.4byte	.LVL180
 17795 0731 0500     		.2byte	0x5
 17796 0733 08       		.byte	0x8
 17797 0734 FF       		.byte	0xff
 17798 0735 40       		.byte	0x40
 17799 0736 24       		.byte	0x24
 17800 0737 9F       		.byte	0x9f
 17801 0738 00000000 		.4byte	0
 17802 073c 00000000 		.4byte	0
 17803              	.LLST62:
 17804 0740 92040000 		.4byte	.LVL178
ARM GAS  C:\Users\jrdia\AppData\Local\Temp\ccFTvYyK.s 			page 344


 17805 0744 B2040000 		.4byte	.LVL180
 17806 0748 0600     		.2byte	0x6
 17807 074a 03       		.byte	0x3
 17808 074b 2C000000 		.4byte	PS4+44
 17809 074f 9F       		.byte	0x9f
 17810 0750 00000000 		.4byte	0
 17811 0754 00000000 		.4byte	0
 17812              	.LLST63:
 17813 0758 92040000 		.4byte	.LVL178
 17814 075c B0040000 		.4byte	.LVL179
 17815 0760 0200     		.2byte	0x2
 17816 0762 30       		.byte	0x30
 17817 0763 9F       		.byte	0x9f
 17818 0764 00000000 		.4byte	0
 17819 0768 00000000 		.4byte	0
 17820              	.LLST65:
 17821 076c 92040000 		.4byte	.LVL178
 17822 0770 B0040000 		.4byte	.LVL179
 17823 0774 0300     		.2byte	0x3
 17824 0776 09       		.byte	0x9
 17825 0777 FF       		.byte	0xff
 17826 0778 9F       		.byte	0x9f
 17827 0779 00000000 		.4byte	0
 17828 077d 00000000 		.4byte	0
 17829              	.LLST66:
 17830 0781 92040000 		.4byte	.LVL178
 17831 0785 B0040000 		.4byte	.LVL179
 17832 0789 0600     		.2byte	0x6
 17833 078b 03       		.byte	0x3
 17834 078c 2C000000 		.4byte	PS4+44
 17835 0790 9F       		.byte	0x9f
 17836 0791 00000000 		.4byte	0
 17837 0795 00000000 		.4byte	0
 17838              	.LLST67:
 17839 0799 B8040000 		.4byte	.LVL181
 17840 079d D0040000 		.4byte	.LVL182
 17841 07a1 0200     		.2byte	0x2
 17842 07a3 30       		.byte	0x30
 17843 07a4 9F       		.byte	0x9f
 17844 07a5 00000000 		.4byte	0
 17845 07a9 00000000 		.4byte	0
 17846              	.LLST69:
 17847 07ad B8040000 		.4byte	.LVL181
 17848 07b1 D0040000 		.4byte	.LVL182
 17849 07b5 0600     		.2byte	0x6
 17850 07b7 03       		.byte	0x3
 17851 07b8 2C000000 		.4byte	PS4+44
 17852 07bc 9F       		.byte	0x9f
 17853 07bd 00000000 		.4byte	0
 17854 07c1 00000000 		.4byte	0
 17855              	.LLST70:
 17856 07c5 D6040000 		.4byte	.LVL183
 17857 07c9 EE040000 		.4byte	.LVL184
 17858 07cd 0200     		.2byte	0x2
 17859 07cf 3A       		.byte	0x3a
 17860 07d0 9F       		.byte	0x9f
 17861 07d1 00000000 		.4byte	0
ARM GAS  C:\Users\jrdia\AppData\Local\Temp\ccFTvYyK.s 			page 345


 17862 07d5 00000000 		.4byte	0
 17863              	.LLST72:
 17864 07d9 D6040000 		.4byte	.LVL183
 17865 07dd EE040000 		.4byte	.LVL184
 17866 07e1 0600     		.2byte	0x6
 17867 07e3 03       		.byte	0x3
 17868 07e4 2C000000 		.4byte	PS4+44
 17869 07e8 9F       		.byte	0x9f
 17870 07e9 00000000 		.4byte	0
 17871 07ed 00000000 		.4byte	0
 17872              	.LLST73:
 17873 07f1 F4040000 		.4byte	.LVL185
 17874 07f5 0E050000 		.4byte	.LVL186
 17875 07f9 0200     		.2byte	0x2
 17876 07fb 40       		.byte	0x40
 17877 07fc 9F       		.byte	0x9f
 17878 07fd 00000000 		.4byte	0
 17879 0801 00000000 		.4byte	0
 17880              	.LLST74:
 17881 0805 F4040000 		.4byte	.LVL185
 17882 0809 0E050000 		.4byte	.LVL186
 17883 080d 0600     		.2byte	0x6
 17884 080f 03       		.byte	0x3
 17885 0810 2C000000 		.4byte	PS4+44
 17886 0814 9F       		.byte	0x9f
 17887 0815 00000000 		.4byte	0
 17888 0819 00000000 		.4byte	0
 17889              	.LLST75:
 17890 081d F4040000 		.4byte	.LVL185
 17891 0821 0E050000 		.4byte	.LVL186
 17892 0825 0200     		.2byte	0x2
 17893 0827 30       		.byte	0x30
 17894 0828 9F       		.byte	0x9f
 17895 0829 00000000 		.4byte	0
 17896 082d 00000000 		.4byte	0
 17897              	.LLST76:
 17898 0831 F4040000 		.4byte	.LVL185
 17899 0835 0E050000 		.4byte	.LVL186
 17900 0839 0300     		.2byte	0x3
 17901 083b 09       		.byte	0x9
 17902 083c FF       		.byte	0xff
 17903 083d 9F       		.byte	0x9f
 17904 083e 00000000 		.4byte	0
 17905 0842 00000000 		.4byte	0
 17906              	.LLST78:
 17907 0846 14050000 		.4byte	.LVL187
 17908 084a 2C050000 		.4byte	.LVL188
 17909 084e 0300     		.2byte	0x3
 17910 0850 08       		.byte	0x8
 17911 0851 20       		.byte	0x20
 17912 0852 9F       		.byte	0x9f
 17913 0853 00000000 		.4byte	0
 17914 0857 00000000 		.4byte	0
 17915              	.LLST79:
 17916 085b 14050000 		.4byte	.LVL187
 17917 085f 2C050000 		.4byte	.LVL188
 17918 0863 0600     		.2byte	0x6
ARM GAS  C:\Users\jrdia\AppData\Local\Temp\ccFTvYyK.s 			page 346


 17919 0865 03       		.byte	0x3
 17920 0866 2C000000 		.4byte	PS4+44
 17921 086a 9F       		.byte	0x9f
 17922 086b 00000000 		.4byte	0
 17923 086f 00000000 		.4byte	0
 17924              	.LLST80:
 17925 0873 14050000 		.4byte	.LVL187
 17926 0877 2C050000 		.4byte	.LVL188
 17927 087b 0300     		.2byte	0x3
 17928 087d 09       		.byte	0x9
 17929 087e FF       		.byte	0xff
 17930 087f 9F       		.byte	0x9f
 17931 0880 00000000 		.4byte	0
 17932 0884 00000000 		.4byte	0
 17933              	.LLST81:
 17934 0888 14050000 		.4byte	.LVL187
 17935 088c 2C050000 		.4byte	.LVL188
 17936 0890 0200     		.2byte	0x2
 17937 0892 30       		.byte	0x30
 17938 0893 9F       		.byte	0x9f
 17939 0894 00000000 		.4byte	0
 17940 0898 00000000 		.4byte	0
 17941              	.LLST83:
 17942 089c 00000000 		.4byte	.LVL192
 17943 08a0 44000000 		.4byte	.LVL197
 17944 08a4 0200     		.2byte	0x2
 17945 08a6 31       		.byte	0x31
 17946 08a7 9F       		.byte	0x9f
 17947 08a8 00000000 		.4byte	0
 17948 08ac 00000000 		.4byte	0
 17949              	.LLST84:
 17950 08b0 00000000 		.4byte	.LVL192
 17951 08b4 44000000 		.4byte	.LVL197
 17952 08b8 0400     		.2byte	0x4
 17953 08ba 0A       		.byte	0xa
 17954 08bb FFFF     		.2byte	0xffff
 17955 08bd 9F       		.byte	0x9f
 17956 08be 00000000 		.4byte	0
 17957 08c2 00000000 		.4byte	0
 17958              	.LLST85:
 17959 08c6 18000000 		.4byte	.LVL194
 17960 08ca 44000000 		.4byte	.LVL197
 17961 08ce 0600     		.2byte	0x6
 17962 08d0 03       		.byte	0x3
 17963 08d1 50010000 		.4byte	.LC86
 17964 08d5 9F       		.byte	0x9f
 17965 08d6 00000000 		.4byte	0
 17966 08da 00000000 		.4byte	0
 17967              	.LLST86:
 17968 08de 18000000 		.4byte	.LVL194
 17969 08e2 44000000 		.4byte	.LVL197
 17970 08e6 0200     		.2byte	0x2
 17971 08e8 31       		.byte	0x31
 17972 08e9 9F       		.byte	0x9f
 17973 08ea 00000000 		.4byte	0
 17974 08ee 00000000 		.4byte	0
 17975              	.LLST87:
ARM GAS  C:\Users\jrdia\AppData\Local\Temp\ccFTvYyK.s 			page 347


 17976 08f2 18000000 		.4byte	.LVL194
 17977 08f6 44000000 		.4byte	.LVL197
 17978 08fa 0600     		.2byte	0x6
 17979 08fc 03       		.byte	0x3
 17980 08fd 00000000 		.4byte	Btd
 17981 0901 9F       		.byte	0x9f
 17982 0902 00000000 		.4byte	0
 17983 0906 00000000 		.4byte	0
 17984              	.LLST88:
 17985 090a 18000000 		.4byte	.LVL194
 17986 090e 44000000 		.4byte	.LVL197
 17987 0912 0600     		.2byte	0x6
 17988 0914 03       		.byte	0x3
 17989 0915 00000000 		.4byte	PS4
 17990 0919 9F       		.byte	0x9f
 17991 091a 00000000 		.4byte	0
 17992 091e 00000000 		.4byte	0
 17993              	.LLST89:
 17994 0922 2A000000 		.4byte	.LVL195
 17995 0926 36000000 		.4byte	.LVL196
 17996 092a 0600     		.2byte	0x6
 17997 092c 03       		.byte	0x3
 17998 092d 2C000000 		.4byte	PS4+44
 17999 0931 9F       		.byte	0x9f
 18000 0932 00000000 		.4byte	0
 18001 0936 00000000 		.4byte	0
 18002              		.section	.debug_aranges,"",%progbits
 18003 0000 7C000000 		.4byte	0x7c
 18004 0004 0200     		.2byte	0x2
 18005 0006 00000000 		.4byte	.Ldebug_info0
 18006 000a 04       		.byte	0x4
 18007 000b 00       		.byte	0
 18008 000c 0000     		.2byte	0
 18009 000e 0000     		.2byte	0
 18010 0010 00000000 		.4byte	.LFB276
 18011 0014 16000000 		.4byte	.LFE276-.LFB276
 18012 0018 00000000 		.4byte	.LFB307
 18013 001c 0A000000 		.4byte	.LFE307-.LFB307
 18014 0020 00000000 		.4byte	.LFB308
 18015 0024 5C000000 		.4byte	.LFE308-.LFB308
 18016 0028 5C000000 		.4byte	.LFB343
 18017 002c 10000000 		.4byte	.LFE343-.LFB343
 18018 0030 00000000 		.4byte	.LFB306
 18019 0034 4C000000 		.4byte	.LFE306-.LFB306
 18020 0038 00000000 		.4byte	.LFB305
 18021 003c 0A000000 		.4byte	.LFE305-.LFB305
 18022 0040 00000000 		.4byte	.LFB337
 18023 0044 2E000000 		.4byte	.LFE337-.LFB337
 18024 0048 00000000 		.4byte	.LFB338
 18025 004c 4A000000 		.4byte	.LFE338-.LFB338
 18026 0050 00000000 		.4byte	.LFB321
 18027 0054 18000000 		.4byte	.LFE321-.LFB321
 18028 0058 00000000 		.4byte	.LFB329
 18029 005c 70000000 		.4byte	.LFE329-.LFB329
 18030 0060 00000000 		.4byte	.LFB324
 18031 0064 94000000 		.4byte	.LFE324-.LFB324
 18032 0068 00000000 		.4byte	.LFB322
ARM GAS  C:\Users\jrdia\AppData\Local\Temp\ccFTvYyK.s 			page 348


 18033 006c 8C050000 		.4byte	.LFE322-.LFB322
 18034 0070 00000000 		.4byte	.LFB334
 18035 0074 60000000 		.4byte	.LFE334-.LFB334
 18036 0078 00000000 		.4byte	0
 18037 007c 00000000 		.4byte	0
 18038              		.section	.debug_ranges,"",%progbits
 18039              	.Ldebug_ranges0:
 18040 0000 26000000 		.4byte	.LBB101
 18041 0004 28000000 		.4byte	.LBE101
 18042 0008 2C000000 		.4byte	.LBB106
 18043 000c 2E000000 		.4byte	.LBE106
 18044 0010 32000000 		.4byte	.LBB107
 18045 0014 34000000 		.4byte	.LBE107
 18046 0018 4A000000 		.4byte	.LBB108
 18047 001c 58000000 		.4byte	.LBE108
 18048 0020 00000000 		.4byte	0
 18049 0024 00000000 		.4byte	0
 18050 0028 08000000 		.4byte	.LBB145
 18051 002c 0C000000 		.4byte	.LBE145
 18052 0030 0E000000 		.4byte	.LBB164
 18053 0034 10000000 		.4byte	.LBE164
 18054 0038 12000000 		.4byte	.LBB169
 18055 003c 18000000 		.4byte	.LBE169
 18056 0040 1A000000 		.4byte	.LBB171
 18057 0044 1C000000 		.4byte	.LBE171
 18058 0048 1E000000 		.4byte	.LBB172
 18059 004c 20000000 		.4byte	.LBE172
 18060 0050 00000000 		.4byte	0
 18061 0054 00000000 		.4byte	0
 18062 0058 08000000 		.4byte	.LBB146
 18063 005c 0C000000 		.4byte	.LBE146
 18064 0060 0E000000 		.4byte	.LBB153
 18065 0064 10000000 		.4byte	.LBE153
 18066 0068 12000000 		.4byte	.LBB154
 18067 006c 16000000 		.4byte	.LBE154
 18068 0070 00000000 		.4byte	0
 18069 0074 00000000 		.4byte	0
 18070 0078 16000000 		.4byte	.LBB155
 18071 007c 18000000 		.4byte	.LBE155
 18072 0080 1A000000 		.4byte	.LBB162
 18073 0084 1C000000 		.4byte	.LBE162
 18074 0088 1E000000 		.4byte	.LBB163
 18075 008c 20000000 		.4byte	.LBE163
 18076 0090 00000000 		.4byte	0
 18077 0094 00000000 		.4byte	0
 18078 0098 10000000 		.4byte	.LBB165
 18079 009c 12000000 		.4byte	.LBE165
 18080 00a0 18000000 		.4byte	.LBB170
 18081 00a4 1A000000 		.4byte	.LBE170
 18082 00a8 24000000 		.4byte	.LBB173
 18083 00ac 48000000 		.4byte	.LBE173
 18084 00b0 00000000 		.4byte	0
 18085 00b4 00000000 		.4byte	0
 18086 00b8 90020000 		.4byte	.LBB190
 18087 00bc A2020000 		.4byte	.LBE190
 18088 00c0 A4020000 		.4byte	.LBB193
 18089 00c4 A8020000 		.4byte	.LBE193
ARM GAS  C:\Users\jrdia\AppData\Local\Temp\ccFTvYyK.s 			page 349


 18090 00c8 00000000 		.4byte	0
 18091 00cc 00000000 		.4byte	0
 18092 00d0 02000000 		.4byte	.LBB233
 18093 00d4 04000000 		.4byte	.LBE233
 18094 00d8 04000000 		.4byte	.LBB242
 18095 00dc 44000000 		.4byte	.LBE242
 18096 00e0 00000000 		.4byte	0
 18097 00e4 00000000 		.4byte	0
 18098 00e8 1E000000 		.4byte	.LBB237
 18099 00ec 20000000 		.4byte	.LBE237
 18100 00f0 2A000000 		.4byte	.LBB240
 18101 00f4 36000000 		.4byte	.LBE240
 18102 00f8 00000000 		.4byte	0
 18103 00fc 00000000 		.4byte	0
 18104 0100 00000000 		.4byte	.LFB276
 18105 0104 16000000 		.4byte	.LFE276
 18106 0108 00000000 		.4byte	.LFB307
 18107 010c 0A000000 		.4byte	.LFE307
 18108 0110 00000000 		.4byte	.LFB308
 18109 0114 5C000000 		.4byte	.LFE308
 18110 0118 5C000000 		.4byte	.LFB343
 18111 011c 6C000000 		.4byte	.LFE343
 18112 0120 00000000 		.4byte	.LFB306
 18113 0124 4C000000 		.4byte	.LFE306
 18114 0128 00000000 		.4byte	.LFB305
 18115 012c 0A000000 		.4byte	.LFE305
 18116 0130 00000000 		.4byte	.LFB337
 18117 0134 2E000000 		.4byte	.LFE337
 18118 0138 00000000 		.4byte	.LFB338
 18119 013c 4A000000 		.4byte	.LFE338
 18120 0140 00000000 		.4byte	.LFB321
 18121 0144 18000000 		.4byte	.LFE321
 18122 0148 00000000 		.4byte	.LFB329
 18123 014c 70000000 		.4byte	.LFE329
 18124 0150 00000000 		.4byte	.LFB324
 18125 0154 94000000 		.4byte	.LFE324
 18126 0158 00000000 		.4byte	.LFB322
 18127 015c 8C050000 		.4byte	.LFE322
 18128 0160 00000000 		.4byte	.LFB334
 18129 0164 60000000 		.4byte	.LFE334
 18130 0168 00000000 		.4byte	0
 18131 016c 00000000 		.4byte	0
 18132              		.section	.debug_line,"",%progbits
 18133              	.Ldebug_line0:
 18134 0000 E9050000 		.section	.debug_str,"MS",%progbits,1
 18134      0200B902 
 18134      00000201 
 18134      FB0E0D00 
 18134      01010101 
 18135              	.LASF1044:
 18136 0000 70737472 		.ascii	"pstrUsageACSelectAll\000"
 18136      55736167 
 18136      65414353 
 18136      656C6563 
 18136      74416C6C 
 18137              	.LASF434:
 18138 0015 696E7446 		.ascii	"intFunc\000"
ARM GAS  C:\Users\jrdia\AppData\Local\Temp\ccFTvYyK.s 			page 350


 18138      756E6300 
 18139              	.LASF620:
 18140 001d 70737472 		.ascii	"pstrUsageStickFollowThough\000"
 18140      55736167 
 18140      65537469 
 18140      636B466F 
 18140      6C6C6F77 
 18141              	.LASF725:
 18142 0038 70737472 		.ascii	"pstrUsagePaperJam\000"
 18142      55736167 
 18142      65506170 
 18142      65724A61 
 18142      6D00
 18143              	.LASF926:
 18144 004a 70737472 		.ascii	"pstrUsageLightIlluminationLevel\000"
 18144      55736167 
 18144      654C6967 
 18144      6874496C 
 18144      6C756D69 
 18145              	.LASF1271:
 18146 006a 70737472 		.ascii	"pstrUsageSoftButtonID\000"
 18146      55736167 
 18146      65536F66 
 18146      74427574 
 18146      746F6E49 
 18147              	.LASF357:
 18148 0080 6973546F 		.ascii	"isTouching\000"
 18148      75636869 
 18148      6E6700
 18149              	.LASF1029:
 18150 008b 70737472 		.ascii	"pstrUsageALAudioPlayer\000"
 18150      55736167 
 18150      65414C41 
 18150      7564696F 
 18150      506C6179 
 18151              	.LASF1213:
 18152 00a2 70737472 		.ascii	"pstrUsageDataReadBack\000"
 18152      55736167 
 18152      65446174 
 18152      61526561 
 18152      64426163 
 18153              	.LASF962:
 18154 00b8 70737472 		.ascii	"pstrUsageALConsumerControlConfig\000"
 18154      55736167 
 18154      65414C43 
 18154      6F6E7375 
 18154      6D657243 
 18155              	.LASF731:
 18156 00d9 70737472 		.ascii	"pstrUsageFastForward\000"
 18156      55736167 
 18156      65466173 
 18156      74466F72 
 18156      77617264 
 18157              	.LASF621:
 18158 00ee 70737472 		.ascii	"pstrUsageStickTempo\000"
 18158      55736167 
 18158      65537469 
ARM GAS  C:\Users\jrdia\AppData\Local\Temp\ccFTvYyK.s 			page 351


 18158      636B5465 
 18158      6D706F00 
 18159              	.LASF642:
 18160 0102 70737472 		.ascii	"pstrUsage7Wood\000"
 18160      55736167 
 18160      6537576F 
 18160      6F6400
 18161              	.LASF445:
 18162 0111 70737472 		.ascii	"pstrSpace\000"
 18162      53706163 
 18162      6500
 18163              	.LASF504:
 18164 011b 70737472 		.ascii	"pstrUsageVbrx\000"
 18164      55736167 
 18164      65566272 
 18164      7800
 18165              	.LASF505:
 18166 0129 70737472 		.ascii	"pstrUsageVbry\000"
 18166      55736167 
 18166      65566272 
 18166      7900
 18167              	.LASF506:
 18168 0137 70737472 		.ascii	"pstrUsageVbrz\000"
 18168      55736167 
 18168      65566272 
 18168      7A00
 18169              	.LASF1288:
 18170 0145 70737472 		.ascii	"pstrUsageDepth\000"
 18170      55736167 
 18170      65446570 
 18170      746800
 18171              	.LASF616:
 18172 0154 70737472 		.ascii	"pstrUsageRate\000"
 18172      55736167 
 18172      65526174 
 18172      6500
 18173              	.LASF1203:
 18174 0162 70737472 		.ascii	"pstrUsageTwist\000"
 18174      55736167 
 18174      65547769 
 18174      737400
 18175              	.LASF199:
 18176 0171 55534244 		.ascii	"USBDeviceConfig\000"
 18176      65766963 
 18176      65436F6E 
 18176      66696700 
 18177              	.LASF653:
 18178 0181 70737472 		.ascii	"pstrUsageMoveUpDown\000"
 18178      55736167 
 18178      654D6F76 
 18178      65557044 
 18178      6F776E00 
 18179              	.LASF801:
 18180 0195 70737472 		.ascii	"pstrUsageRinger\000"
 18180      55736167 
 18180      6552696E 
 18180      67657200 
ARM GAS  C:\Users\jrdia\AppData\Local\Temp\ccFTvYyK.s 			page 352


 18181              	.LASF693:
 18182 01a5 70737472 		.ascii	"pstrUsageSurroundOn\000"
 18182      55736167 
 18182      65537572 
 18182      726F756E 
 18182      644F6E00 
 18183              	.LASF769:
 18184 01b9 70737472 		.ascii	"pstrUsagePark\000"
 18184      55736167 
 18184      65506172 
 18184      6B00
 18185              	.LASF200:
 18186 01c7 5F5A4E31 		.ascii	"_ZN15USBDeviceConfigD4Ev\000"
 18186      35555342 
 18186      44657669 
 18186      6365436F 
 18186      6E666967 
 18187              	.LASF763:
 18188 01e0 70737472 		.ascii	"pstrUsageHookSwitch\000"
 18188      55736167 
 18188      65486F6F 
 18188      6B537769 
 18188      74636800 
 18189              	.LASF698:
 18190 01f4 70737472 		.ascii	"pstrUsageCAV\000"
 18190      55736167 
 18190      65434156 
 18190      00
 18191              	.LASF756:
 18192 0201 70737472 		.ascii	"pstrUsagePhone\000"
 18192      55736167 
 18192      6550686F 
 18192      6E6500
 18193              	.LASF960:
 18194 0210 70737472 		.ascii	"pstrUsageALLaunchButtonConfigTool\000"
 18194      55736167 
 18194      65414C4C 
 18194      61756E63 
 18194      68427574 
 18195              	.LASF1217:
 18196 0232 70737472 		.ascii	"pstrUsageScreenSaverDelay\000"
 18196      55736167 
 18196      65536372 
 18196      65656E53 
 18196      61766572 
 18197              	.LASF242:
 18198 024c 53544152 		.ascii	"START\000"
 18198      5400
 18199              	.LASF961:
 18200 0252 70737472 		.ascii	"pstrUsageALProgrammableButton\000"
 18200      55736167 
 18200      65414C50 
 18200      726F6772 
 18200      616D6D61 
 18201              	.LASF759:
 18202 0270 70737472 		.ascii	"pstrUsageHandset\000"
 18202      55736167 
ARM GAS  C:\Users\jrdia\AppData\Local\Temp\ccFTvYyK.s 			page 353


 18202      6548616E 
 18202      64736574 
 18202      00
 18203              	.LASF765:
 18204 0281 70737472 		.ascii	"pstrUsageFeature\000"
 18204      55736167 
 18204      65466561 
 18204      74757265 
 18204      00
 18205              	.LASF981:
 18206 0292 70737472 		.ascii	"pstrUsageALInternetBrowser\000"
 18206      55736167 
 18206      65414C49 
 18206      6E746572 
 18206      6E657442 
 18207              	.LASF459:
 18208 02ad 70737472 		.ascii	"pstrUsagePageButton\000"
 18208      55736167 
 18208      65506167 
 18208      65427574 
 18208      746F6E00 
 18209              	.LASF684:
 18210 02c1 70737472 		.ascii	"pstrUsagePower\000"
 18210      55736167 
 18210      65506F77 
 18210      657200
 18211              	.LASF318:
 18212 02d0 636F6E6E 		.ascii	"connected\000"
 18212      65637465 
 18212      6400
 18213              	.LASF1:
 18214 02da 5F5F7569 		.ascii	"__uint8_t\000"
 18214      6E74385F 
 18214      7400
 18215              	.LASF1270:
 18216 02e4 70737472 		.ascii	"pstrUsageSoftButton\000"
 18216      55736167 
 18216      65536F66 
 18216      74427574 
 18216      746F6E00 
 18217              	.LASF437:
 18218 02f8 50494E5F 		.ascii	"PIN_SPI_SS\000"
 18218      5350495F 
 18218      535300
 18219              	.LASF174:
 18220 0303 6F757454 		.ascii	"outTransfer\000"
 18220      72616E73 
 18220      66657200 
 18221              	.LASF38:
 18222 030f 626D4875 		.ascii	"bmHub\000"
 18222      6200
 18223              	.LASF1238:
 18224 0315 70737472 		.ascii	"pstrUsageFontData\000"
 18224      55736167 
 18224      65466F6E 
 18224      74446174 
 18224      6100
ARM GAS  C:\Users\jrdia\AppData\Local\Temp\ccFTvYyK.s 			page 354


 18225              	.LASF1178:
 18226 0327 70737472 		.ascii	"pstrUsage3DDigitizer\000"
 18226      55736167 
 18226      65334444 
 18226      69676974 
 18226      697A6572 
 18227              	.LASF102:
 18228 033c 56425553 		.ascii	"VBUS_t\000"
 18228      5F7400
 18229              	.LASF1189:
 18230 0343 70737472 		.ascii	"pstrUsageInRange\000"
 18230      55736167 
 18230      65496E52 
 18230      616E6765 
 18230      00
 18231              	.LASF531:
 18232 0354 70737472 		.ascii	"pstrUsageSystemUndock\000"
 18232      55736167 
 18232      65537973 
 18232      74656D55 
 18232      6E646F63 
 18233              	.LASF337:
 18234 036a 6F6C6442 		.ascii	"oldButtonState\000"
 18234      7574746F 
 18234      6E537461 
 18234      746500
 18235              	.LASF549:
 18236 0379 70737472 		.ascii	"pstrUsageTankSimulationDevice\000"
 18236      55736167 
 18236      6554616E 
 18236      6B53696D 
 18236      756C6174 
 18237              	.LASF296:
 18238 0397 756E6B6E 		.ascii	"unknown\000"
 18238      6F776E00 
 18239              	.LASF411:
 18240 039f 5F5A4E31 		.ascii	"_ZN16BluetoothServiceC4ERKS_\000"
 18240      36426C75 
 18240      65746F6F 
 18240      74685365 
 18240      72766963 
 18241              	.LASF870:
 18242 03bc 70737472 		.ascii	"pstrUsageMediaSelectCable\000"
 18242      55736167 
 18242      654D6564 
 18242      69615365 
 18242      6C656374 
 18243              	.LASF1162:
 18244 03d6 70737472 		.ascii	"pstrUsageACInsertPicture\000"
 18244      55736167 
 18244      65414349 
 18244      6E736572 
 18244      74506963 
 18245              	.LASF790:
 18246 03ef 70737472 		.ascii	"pstrUsageOutsideRingTone\000"
 18246      55736167 
 18246      654F7574 
ARM GAS  C:\Users\jrdia\AppData\Local\Temp\ccFTvYyK.s 			page 355


 18246      73696465 
 18246      52696E67 
 18247              	.LASF678:
 18248 0408 70737472 		.ascii	"pstrUsageSecurityCodeCleared\000"
 18248      55736167 
 18248      65536563 
 18248      75726974 
 18248      79436F64 
 18249              	.LASF705:
 18250 0425 70737472 		.ascii	"pstrUsageBatteryOperation\000"
 18250      55736167 
 18250      65426174 
 18250      74657279 
 18250      4F706572 
 18251              	.LASF813:
 18252 043f 70737472 		.ascii	"pstrUsagePhoneKeyPound\000"
 18252      55736167 
 18252      6550686F 
 18252      6E654B65 
 18252      79506F75 
 18253              	.LASF600:
 18254 0456 70737472 		.ascii	"pstrUsageFlexor\000"
 18254      55736167 
 18254      65466C65 
 18254      786F7200 
 18255              	.LASF105:
 18256 0466 62797465 		.ascii	"bytesWr\000"
 18256      73577200 
 18257              	.LASF480:
 18258 046e 70737472 		.ascii	"pstrUsageJoystick\000"
 18258      55736167 
 18258      654A6F79 
 18258      73746963 
 18258      6B00
 18259              	.LASF268:
 18260 0480 61596D6F 		.ascii	"aYmove\000"
 18260      766500
 18261              	.LASF110:
 18262 0487 72656752 		.ascii	"regRd\000"
 18262      6400
 18263              	.LASF1105:
 18264 048d 70737472 		.ascii	"pstrUsageACPromote\000"
 18264      55736167 
 18264      65414350 
 18264      726F6D6F 
 18264      746500
 18265              	.LASF1102:
 18266 04a0 70737472 		.ascii	"pstrUsageACNumberedList\000"
 18266      55736167 
 18266      6541434E 
 18266      756D6265 
 18266      7265644C 
 18267              	.LASF91:
 18268 04b8 5450696E 		.ascii	"TPin<Portb, 5u>\000"
 18268      3C506F72 
 18268      74622C20 
 18268      35753E00 
ARM GAS  C:\Users\jrdia\AppData\Local\Temp\ccFTvYyK.s 			page 356


 18269              	.LASF945:
 18270 04c8 70737472 		.ascii	"pstrUsageChannelRight\000"
 18270      55736167 
 18270      65436861 
 18270      6E6E656C 
 18270      52696768 
 18271              	.LASF1190:
 18272 04de 70737472 		.ascii	"pstrUsageTouch\000"
 18272      55736167 
 18272      65546F75 
 18272      636800
 18273              	.LASF1330:
 18274 04ed 4849445F 		.ascii	"HID_Command\000"
 18274      436F6D6D 
 18274      616E6400 
 18275              	.LASF995:
 18276 04f9 70737472 		.ascii	"pstrUsageALPreviousTaskApplication\000"
 18276      55736167 
 18276      65414C50 
 18276      72657669 
 18276      6F757354 
 18277              	.LASF1259:
 18278 051c 70737472 		.ascii	"pstrUsageDisplayOrientation\000"
 18278      55736167 
 18278      65446973 
 18278      706C6179 
 18278      4F726965 
 18279              	.LASF664:
 18280 0538 70737472 		.ascii	"pstrUsageGunClip\000"
 18280      55736167 
 18280      6547756E 
 18280      436C6970 
 18280      00
 18281              	.LASF1118:
 18282 0549 70737472 		.ascii	"pstrUsageACPasteSpecial\000"
 18282      55736167 
 18282      65414350 
 18282      61737465 
 18282      53706563 
 18283              	.LASF306:
 18284 0561 64756D6D 		.ascii	"dummy2\000"
 18284      793200
 18285              	.LASF308:
 18286 0568 64756D6D 		.ascii	"dummy3\000"
 18286      793300
 18287              	.LASF1295:
 18288 056f 70737472 		.ascii	"pstrUsageSpectralDopplerModeAdjust\000"
 18288      55736167 
 18288      65537065 
 18288      63747261 
 18288      6C446F70 
 18289              	.LASF1260:
 18290 0592 70737472 		.ascii	"pstrUsagePaletteReport\000"
 18290      55736167 
 18290      6550616C 
 18290      65747465 
 18290      5265706F 
ARM GAS  C:\Users\jrdia\AppData\Local\Temp\ccFTvYyK.s 			page 357


 18291              	.LASF866:
 18292 05a9 70737472 		.ascii	"pstrUsageMediaSelectTuner\000"
 18292      55736167 
 18292      654D6564 
 18292      69615365 
 18292      6C656374 
 18293              	.LASF127:
 18294 05c3 5F5A4E38 		.ascii	"_ZN8MAX3421eI4TPinI5PortbLh2EES0_IS1_Lh1EEE6gpioWrE"
 18294      4D415833 
 18294      34323165 
 18294      49345450 
 18294      696E4935 
 18295 05f6 6800     		.ascii	"h\000"
 18296              	.LASF928:
 18297 05f8 70737472 		.ascii	"pstrUsageRoomTemperature\000"
 18297      55736167 
 18297      65526F6F 
 18297      6D54656D 
 18297      70657261 
 18298              	.LASF133:
 18299 0611 5461736B 		.ascii	"Task\000"
 18299      00
 18300              	.LASF706:
 18301 0616 70737472 		.ascii	"pstrUsageBatteryOK\000"
 18301      55736167 
 18301      65426174 
 18301      74657279 
 18301      4F4B00
 18302              	.LASF1312:
 18303 0629 5350495F 		.ascii	"SPI_ClearRxBuffer\000"
 18303      436C6561 
 18303      72527842 
 18303      75666665 
 18303      7200
 18304              	.LASF1165:
 18305 063b 70737472 		.ascii	"pstrUsageACSaveAndClose\000"
 18305      55736167 
 18305      65414353 
 18305      61766541 
 18305      6E64436C 
 18306              	.LASF17:
 18307 0653 75696E74 		.ascii	"uint16_t\000"
 18307      31365F74 
 18307      00
 18308              	.LASF381:
 18309 065c 5F5A4E39 		.ascii	"_ZN9PS4Parser9setLedOffEv\000"
 18309      50533450 
 18309      61727365 
 18309      72397365 
 18309      744C6564 
 18310              	.LASF478:
 18311 0676 70737472 		.ascii	"pstrUsagePointer\000"
 18311      55736167 
 18311      65506F69 
 18311      6E746572 
 18311      00
 18312              	.LASF180:
ARM GAS  C:\Users\jrdia\AppData\Local\Temp\ccFTvYyK.s 			page 358


 18313 0687 5F5A4E33 		.ascii	"_ZN3USB17DefaultAddressingEhhb\000"
 18313      55534231 
 18313      37446566 
 18313      61756C74 
 18313      41646472 
 18314              	.LASF578:
 18315 06a6 70737472 		.ascii	"pstrUsageFlareRelease\000"
 18315      55736167 
 18315      65466C61 
 18315      72655265 
 18315      6C656173 
 18316              	.LASF752:
 18317 06bc 70737472 		.ascii	"pstrUsageIndicatorAmber\000"
 18317      55736167 
 18317      65496E64 
 18317      69636174 
 18317      6F72416D 
 18318              	.LASF1227:
 18319 06d4 70737472 		.ascii	"pstrUsageErrorFotDataCanNotBeRead\000"
 18319      55736167 
 18319      65457272 
 18319      6F72466F 
 18319      74446174 
 18320              	.LASF173:
 18321 06f6 5F5A4E33 		.ascii	"_ZN3USB10inTransferEhhPtPhh\000"
 18321      55534231 
 18321      30696E54 
 18321      72616E73 
 18321      66657245 
 18322              	.LASF374:
 18323 0712 5F5A4E39 		.ascii	"_ZN9PS4Parser9setAllOffEv\000"
 18323      50533450 
 18323      61727365 
 18323      72397365 
 18323      74416C6C 
 18324              	.LASF996:
 18325 072c 70737472 		.ascii	"pstrUsageALPreemptiveHaltTaskApp\000"
 18325      55736167 
 18325      65414C50 
 18325      7265656D 
 18325      70746976 
 18326              	.LASF456:
 18327 074d 70737472 		.ascii	"pstrUsagePageGenericDeviceControls\000"
 18327      55736167 
 18327      65506167 
 18327      6547656E 
 18327      65726963 
 18328              	.LASF1336:
 18329 0770 5F474C4F 		.ascii	"_GLOBAL__sub_I_PORTB\000"
 18329      42414C5F 
 18329      5F737562 
 18329      5F495F50 
 18329      4F525442 
 18330              	.LASF844:
 18331 0785 70737472 		.ascii	"pstrUsageBroadcastMode\000"
 18331      55736167 
 18331      6542726F 
ARM GAS  C:\Users\jrdia\AppData\Local\Temp\ccFTvYyK.s 			page 359


 18331      61646361 
 18331      73744D6F 
 18332              	.LASF793:
 18333 079c 70737472 		.ascii	"pstrUsagePriorityRingback\000"
 18333      55736167 
 18333      65507269 
 18333      6F726974 
 18333      7952696E 
 18334              	.LASF151:
 18335 07b6 73657455 		.ascii	"setUsbTaskState\000"
 18335      73625461 
 18335      736B5374 
 18335      61746500 
 18336              	.LASF486:
 18337 07c6 70737472 		.ascii	"pstrUsageX\000"
 18337      55736167 
 18337      655800
 18338              	.LASF588:
 18339 07d1 70737472 		.ascii	"pstrUsageShifter\000"
 18339      55736167 
 18339      65536869 
 18339      66746572 
 18339      00
 18340              	.LASF289:
 18341 07e2 636F756E 		.ascii	"counter\000"
 18341      74657200 
 18342              	.LASF554:
 18343 07ea 70737472 		.ascii	"pstrUsageSportsSimulationDevice\000"
 18343      55736167 
 18343      6553706F 
 18343      72747353 
 18343      696D756C 
 18344              	.LASF716:
 18345 080a 70737472 		.ascii	"pstrUsageConference\000"
 18345      55736167 
 18345      65436F6E 
 18345      66657265 
 18345      6E636500 
 18346              	.LASF1101:
 18347 081e 70737472 		.ascii	"pstrUsageACIndentIncrease\000"
 18347      55736167 
 18347      65414349 
 18347      6E64656E 
 18347      74496E63 
 18348              	.LASF469:
 18349 0838 70737472 		.ascii	"pstrUsagePagePower\000"
 18349      55736167 
 18349      65506167 
 18349      65506F77 
 18349      657200
 18350              	.LASF31:
 18351 084b 626D4E61 		.ascii	"bmNakPower\000"
 18351      6B506F77 
 18351      657200
 18352              	.LASF206:
 18353 0856 52656C65 		.ascii	"Release\000"
 18353      61736500 
ARM GAS  C:\Users\jrdia\AppData\Local\Temp\ccFTvYyK.s 			page 360


 18354              	.LASF898:
 18355 085e 70737472 		.ascii	"pstrUsageSearchMarkForward\000"
 18355      55736167 
 18355      65536561 
 18355      7263684D 
 18355      61726B46 
 18356              	.LASF1175:
 18357 0879 70737472 		.ascii	"pstrUsageTouchPad\000"
 18357      55736167 
 18357      65546F75 
 18357      63685061 
 18357      6400
 18358              	.LASF655:
 18359 088b 70737472 		.ascii	"pstrUsageLeanForwardBackward\000"
 18359      55736167 
 18359      654C6561 
 18359      6E466F72 
 18359      77617264 
 18360              	.LASF518:
 18361 08a8 70737472 		.ascii	"pstrUsageSystemMenuExit\000"
 18361      55736167 
 18361      65537973 
 18361      74656D4D 
 18361      656E7545 
 18362              	.LASF920:
 18363 08c0 70737472 		.ascii	"pstrUsageLongPlay\000"
 18363      55736167 
 18363      654C6F6E 
 18363      67506C61 
 18363      7900
 18364              	.LASF315:
 18365 08d2 50533442 		.ascii	"PS4BT\000"
 18365      5400
 18366              	.LASF797:
 18367 08d8 70737472 		.ascii	"pstrUsageConfirmationTone1\000"
 18367      55736167 
 18367      65436F6E 
 18367      6669726D 
 18367      6174696F 
 18368              	.LASF256:
 18369 08f3 59454C4C 		.ascii	"YELLOW\000"
 18369      4F5700
 18370              	.LASF1300:
 18371 08fa 70737472 		.ascii	"pstrUsage2DModeSelect\000"
 18371      55736167 
 18371      6532444D 
 18371      6F646553 
 18371      656C6563 
 18372              	.LASF701:
 18373 0910 70737472 		.ascii	"pstrUsageOffHook\000"
 18373      55736167 
 18373      654F6666 
 18373      486F6F6B 
 18373      00
 18374              	.LASF328:
 18375 0921 656E6162 		.ascii	"enable_sixaxis\000"
 18375      6C655F73 
ARM GAS  C:\Users\jrdia\AppData\Local\Temp\ccFTvYyK.s 			page 361


 18375      69786178 
 18375      697300
 18376              	.LASF958:
 18377 0930 70737472 		.ascii	"pstrUsageAlternateAudioDecrement\000"
 18377      55736167 
 18377      65416C74 
 18377      65726E61 
 18377      74654175 
 18378              	.LASF584:
 18379 0951 70737472 		.ascii	"pstrUsageWingFlaps\000"
 18379      55736167 
 18379      6557696E 
 18379      67466C61 
 18379      707300
 18380              	.LASF968:
 18381 0964 70737472 		.ascii	"pstrUsageALDatabaseApp\000"
 18381      55736167 
 18381      65414C44 
 18381      61746162 
 18381      61736541 
 18382              	.LASF460:
 18383 097b 70737472 		.ascii	"pstrUsagePageOrdinal\000"
 18383      55736167 
 18383      65506167 
 18383      654F7264 
 18383      696E616C 
 18384              	.LASF435:
 18385 0990 5F5A3769 		.ascii	"_Z7intFuncv\000"
 18385      6E744675 
 18385      6E637600 
 18386              	.LASF1319:
 18387 099c 69707269 		.ascii	"iprintf\000"
 18387      6E746600 
 18388              	.LASF1003:
 18389 09a4 70737472 		.ascii	"pstrUsageALGrammarCheck\000"
 18389      55736167 
 18389      65414C47 
 18389      72616D6D 
 18389      61724368 
 18390              	.LASF389:
 18391 09bc 52657365 		.ascii	"Reset\000"
 18391      7400
 18392              	.LASF651:
 18393 09c2 70737472 		.ascii	"pstrUsageMoveRightLeft\000"
 18393      55736167 
 18393      654D6F76 
 18393      65526967 
 18393      68744C65 
 18394              	.LASF728:
 18395 09d9 70737472 		.ascii	"pstrUsageReverse\000"
 18395      55736167 
 18395      65526576 
 18395      65727365 
 18395      00
 18396              	.LASF1119:
 18397 09ea 70737472 		.ascii	"pstrUsageACInsertMode\000"
 18397      55736167 
ARM GAS  C:\Users\jrdia\AppData\Local\Temp\ccFTvYyK.s 			page 362


 18397      65414349 
 18397      6E736572 
 18397      744D6F64 
 18398              	.LASF514:
 18399 0a00 70737472 		.ascii	"pstrUsageSystemContextMenu\000"
 18399      55736167 
 18399      65537973 
 18399      74656D43 
 18399      6F6E7465 
 18400              	.LASF1290:
 18401 0a1b 70737472 		.ascii	"pstrUsageSoftStepSecondary\000"
 18401      55736167 
 18401      65536F66 
 18401      74537465 
 18401      70536563 
 18402              	.LASF950:
 18403 0a36 70737472 		.ascii	"pstrUsageChannelSurround\000"
 18403      55736167 
 18403      65436861 
 18403      6E6E656C 
 18403      53757272 
 18404              	.LASF856:
 18405 0a4f 70737472 		.ascii	"pstrUsageMediaSelectTV\000"
 18405      55736167 
 18405      654D6564 
 18405      69615365 
 18405      6C656374 
 18406              	.LASF1263:
 18407 0a66 70737472 		.ascii	"pstrUsagePaletteData\000"
 18407      55736167 
 18407      6550616C 
 18407      65747465 
 18407      44617461 
 18408              	.LASF295:
 18409 0a7b 61756469 		.ascii	"audio\000"
 18409      6F00
 18410              	.LASF536:
 18411 0a81 70737472 		.ascii	"pstrUsageApplicationDebuggerBreak\000"
 18411      55736167 
 18411      65417070 
 18411      6C696361 
 18411      74696F6E 
 18412              	.LASF905:
 18413 0aa3 70737472 		.ascii	"pstrUsagePlayPause\000"
 18413      55736167 
 18413      65506C61 
 18413      79506175 
 18413      736500
 18414              	.LASF913:
 18415 0ab6 70737472 		.ascii	"pstrUsageLoudness\000"
 18415      55736167 
 18415      654C6F75 
 18415      646E6573 
 18415      7300
 18416              	.LASF1177:
 18417 0ac8 70737472 		.ascii	"pstrUsageCoordinateMeasuringMachine\000"
 18417      55736167 
ARM GAS  C:\Users\jrdia\AppData\Local\Temp\ccFTvYyK.s 			page 363


 18417      65436F6F 
 18417      7264696E 
 18417      6174654D 
 18418              	.LASF29:
 18419 0aec 626D536E 		.ascii	"bmSndToggle\000"
 18419      64546F67 
 18419      676C6500 
 18420              	.LASF316:
 18421 0af8 5F5A4E35 		.ascii	"_ZN5PS4BTC4ERKS_\000"
 18421      50533442 
 18421      54433445 
 18421      524B535F 
 18421      00
 18422              	.LASF605:
 18423 0b09 70737472 		.ascii	"pstrUsageOculometer\000"
 18423      55736167 
 18423      654F6375 
 18423      6C6F6D65 
 18423      74657200 
 18424              	.LASF418:
 18425 0b1d 61747461 		.ascii	"attachOnInit\000"
 18425      63684F6E 
 18425      496E6974 
 18425      00
 18426              	.LASF1248:
 18427 0b2a 70737472 		.ascii	"pstrUsageDisplayBrightness\000"
 18427      55736167 
 18427      65446973 
 18427      706C6179 
 18427      42726967 
 18428              	.LASF494:
 18429 0b45 70737472 		.ascii	"pstrUsageWheel\000"
 18429      55736167 
 18429      65576865 
 18429      656C00
 18430              	.LASF369:
 18431 0b54 67657441 		.ascii	"getAudioStatus\000"
 18431      7564696F 
 18431      53746174 
 18431      757300
 18432              	.LASF25:
 18433 0b63 626F6F6C 		.ascii	"bool\000"
 18433      00
 18434              	.LASF1036:
 18435 0b68 70737472 		.ascii	"pstrUsageACMinimize\000"
 18435      55736167 
 18435      6541434D 
 18435      696E696D 
 18435      697A6500 
 18436              	.LASF1050:
 18437 0b7c 70737472 		.ascii	"pstrUsageACBack\000"
 18437      55736167 
 18437      65414342 
 18437      61636B00 
 18438              	.LASF193:
 18439 0b8c 41747465 		.ascii	"AttemptConfig\000"
 18439      6D707443 
ARM GAS  C:\Users\jrdia\AppData\Local\Temp\ccFTvYyK.s 			page 364


 18439      6F6E6669 
 18439      6700
 18440              	.LASF370:
 18441 0b9a 5F5A4E39 		.ascii	"_ZN9PS4Parser14getAudioStatusEv\000"
 18441      50533450 
 18441      61727365 
 18441      72313467 
 18441      65744175 
 18442              	.LASF561:
 18443 0bba 70737472 		.ascii	"pstrUsageCyclicControl\000"
 18443      55736167 
 18443      65437963 
 18443      6C696343 
 18443      6F6E7472 
 18444              	.LASF681:
 18445 0bd1 70737472 		.ascii	"pstrUsageScrollLock\000"
 18445      55736167 
 18445      65536372 
 18445      6F6C6C4C 
 18445      6F636B00 
 18446              	.LASF269:
 18447 0be5 67586D6F 		.ascii	"gXmove\000"
 18447      766500
 18448              	.LASF878:
 18449 0bec 70737472 		.ascii	"pstrUsageVCRPlus\000"
 18449      55736167 
 18449      65564352 
 18449      506C7573 
 18449      00
 18450              	.LASF146:
 18451 0bfd 5F5A4E33 		.ascii	"_ZN3USB19RegisterDeviceClassEP15USBDeviceConfig\000"
 18451      55534231 
 18451      39526567 
 18451      69737465 
 18451      72446576 
 18452              	.LASF887:
 18453 0c2d 70737472 		.ascii	"pstrUsageSelectDisk\000"
 18453      55736167 
 18453      6553656C 
 18453      65637444 
 18453      69736B00 
 18454              	.LASF140:
 18455 0c41 5F5A4E33 		.ascii	"_ZN3USB13SetHubPreMaskEv\000"
 18455      55534231 
 18455      33536574 
 18455      48756250 
 18455      72654D61 
 18456              	.LASF1240:
 18457 0c5a 70737472 		.ascii	"pstrUsageCharacterHeight\000"
 18457      55736167 
 18457      65436861 
 18457      72616374 
 18457      65724865 
 18458              	.LASF1302:
 18459 0c73 70737472 		.ascii	"pstrUsageSoftControlSelect\000"
 18459      55736167 
 18459      65536F66 
ARM GAS  C:\Users\jrdia\AppData\Local\Temp\ccFTvYyK.s 			page 365


 18459      74436F6E 
 18459      74726F6C 
 18460              	.LASF842:
 18461 0c8e 70737472 		.ascii	"pstrUsageClosedCaptionSelect\000"
 18461      55736167 
 18461      65436C6F 
 18461      73656443 
 18461      61707469 
 18462              	.LASF657:
 18463 0cab 70737472 		.ascii	"pstrUsageFlipper\000"
 18463      55736167 
 18463      65466C69 
 18463      70706572 
 18463      00
 18464              	.LASF743:
 18465 0cbc 70737472 		.ascii	"pstrUsageIndicatorOff\000"
 18465      55736167 
 18465      65496E64 
 18465      69636174 
 18465      6F724F66 
 18466              	.LASF388:
 18467 0cd2 5F5A4E39 		.ascii	"_ZN9PS4Parser5ParseEhPh\000"
 18467      50533450 
 18467      61727365 
 18467      72355061 
 18467      72736545 
 18468              	.LASF479:
 18469 0cea 70737472 		.ascii	"pstrUsageMouse\000"
 18469      55736167 
 18469      654D6F75 
 18469      736500
 18470              	.LASF1247:
 18471 0cf9 70737472 		.ascii	"pstrUsage14SegmentDirectMap\000"
 18471      55736167 
 18471      65313453 
 18471      65676D65 
 18471      6E744469 
 18472              	.LASF770:
 18473 0d15 70737472 		.ascii	"pstrUsageForwardCalls\000"
 18473      55736167 
 18473      65466F72 
 18473      77617264 
 18473      43616C6C 
 18474              	.LASF123:
 18475 0d2b 5F5A4E38 		.ascii	"_ZN8MAX3421eI4TPinI5PortbLh2EES0_IS1_Lh1EEE9vbusPow"
 18475      4D415833 
 18475      34323165 
 18475      49345450 
 18475      696E4935 
 18476 0d5e 65724536 		.ascii	"erE6VBUS_t\000"
 18476      56425553 
 18476      5F7400
 18477              	.LASF1314:
 18478 0d69 5350495F 		.ascii	"SPI_ReadRxData\000"
 18478      52656164 
 18478      52784461 
 18478      746100
ARM GAS  C:\Users\jrdia\AppData\Local\Temp\ccFTvYyK.s 			page 366


 18479              	.LASF1293:
 18480 0d78 70737472 		.ascii	"pstrUsageZoomAdjust\000"
 18480      55736167 
 18480      655A6F6F 
 18480      6D41646A 
 18480      75737400 
 18481              	.LASF371:
 18482 0d8c 6765744D 		.ascii	"getMicStatus\000"
 18482      69635374 
 18482      61747573 
 18482      00
 18483              	.LASF1059:
 18484 0d99 70737472 		.ascii	"pstrUsageACZoomIn\000"
 18484      55736167 
 18484      6541435A 
 18484      6F6F6D49 
 18484      6E00
 18485              	.LASF96:
 18486 0dab 5350495F 		.ascii	"SPI_CLK\000"
 18486      434C4B00 
 18487              	.LASF65:
 18488 0db3 5F5A4E35 		.ascii	"_ZN5Portb8DirClearEh\000"
 18488      506F7274 
 18488      62384469 
 18488      72436C65 
 18488      61724568 
 18489              	.LASF639:
 18490 0dc8 70737472 		.ascii	"pstrUsage1Wood\000"
 18490      55736167 
 18490      6531576F 
 18490      6F6400
 18491              	.LASF1289:
 18492 0dd7 70737472 		.ascii	"pstrUsageSoftStepPrimary\000"
 18492      55736167 
 18492      65536F66 
 18492      74537465 
 18492      70507269 
 18493              	.LASF1038:
 18494 0df0 70737472 		.ascii	"pstrUsageACPrint\000"
 18494      55736167 
 18494      65414350 
 18494      72696E74 
 18494      00
 18495              	.LASF646:
 18496 0e01 70737472 		.ascii	"pstrUsageGunDevice\000"
 18496      55736167 
 18496      6547756E 
 18496      44657669 
 18496      636500
 18497              	.LASF875:
 18498 0e14 70737472 		.ascii	"pstrUsageChannelIncrement\000"
 18498      55736167 
 18498      65436861 
 18498      6E6E656C 
 18498      496E6372 
 18499              	.LASF595:
 18500 0e2e 70737472 		.ascii	"pstrUsageHandleBars\000"
ARM GAS  C:\Users\jrdia\AppData\Local\Temp\ccFTvYyK.s 			page 367


 18500      55736167 
 18500      6548616E 
 18500      646C6542 
 18500      61727300 
 18501              	.LASF1151:
 18502 0e42 70737472 		.ascii	"pstrUsageACReply\000"
 18502      55736167 
 18502      65414352 
 18502      65706C79 
 18502      00
 18503              	.LASF142:
 18504 0e53 5F5A4E33 		.ascii	"_ZN3USB15ResetHubPreMaskEv\000"
 18504      55534231 
 18504      35526573 
 18504      65744875 
 18504      62507265 
 18505              	.LASF1251:
 18506 0e6e 70737472 		.ascii	"pstrUsageAttributeReadback\000"
 18506      55736167 
 18506      65417474 
 18506      72696275 
 18506      74655265 
 18507              	.LASF299:
 18508 0e89 74726967 		.ascii	"trigger\000"
 18508      67657200 
 18509              	.LASF543:
 18510 0e91 70737472 		.ascii	"pstrUsageSystemDisplayDual\000"
 18510      55736167 
 18510      65537973 
 18510      74656D44 
 18510      6973706C 
 18511              	.LASF108:
 18512 0eac 72656757 		.ascii	"regWr\000"
 18512      7200
 18513              	.LASF798:
 18514 0eb2 70737472 		.ascii	"pstrUsageConfirmationTone2\000"
 18514      55736167 
 18514      65436F6E 
 18514      6669726D 
 18514      6174696F 
 18515              	.LASF703:
 18516 0ecd 70737472 		.ascii	"pstrUsageMessageWaiting\000"
 18516      55736167 
 18516      654D6573 
 18516      73616765 
 18516      57616974 
 18517              	.LASF1132:
 18518 0ee5 70737472 		.ascii	"pstrUsageACSelectRow\000"
 18518      55736167 
 18518      65414353 
 18518      656C6563 
 18518      74526F77 
 18519              	.LASF747:
 18520 0efa 70737472 		.ascii	"pstrUsageFastBlinkOnTime\000"
 18520      55736167 
 18520      65466173 
 18520      74426C69 
ARM GAS  C:\Users\jrdia\AppData\Local\Temp\ccFTvYyK.s 			page 368


 18520      6E6B4F6E 
 18521              	.LASF1324:
 18522 0f13 433A5C55 		.ascii	"C:\\Users\\jrdia\\OneDrive\\Sync\\Documents\\GitHub"
 18522      73657273 
 18522      5C6A7264 
 18522      69615C4F 
 18522      6E654472 
 18523 0f40 5C50536F 		.ascii	"\\PSoC-Bluetooth-Dualshock\\Bluetooth_Dev.cydsn\000"
 18523      432D426C 
 18523      7565746F 
 18523      6F74682D 
 18523      4475616C 
 18524              	.LASF236:
 18525 0f6e 444F574E 		.ascii	"DOWN\000"
 18525      00
 18526              	.LASF780:
 18527 0f73 70737472 		.ascii	"pstrUsageStoreNumber\000"
 18527      55736167 
 18527      6553746F 
 18527      72654E75 
 18527      6D626572 
 18528              	.LASF1074:
 18529 0f88 70737472 		.ascii	"pstrUsageACFormat\000"
 18529      55736167 
 18529      65414346 
 18529      6F726D61 
 18529      7400
 18530              	.LASF1313:
 18531 0f9a 5350495F 		.ascii	"SPI_GetRxBufferSize\000"
 18531      47657452 
 18531      78427566 
 18531      66657253 
 18531      697A6500 
 18532              	.LASF610:
 18533 0fae 70737472 		.ascii	"pstrUsageBaseballBat\000"
 18533      55736167 
 18533      65426173 
 18533      6562616C 
 18533      6C426174 
 18534              	.LASF124:
 18535 0fc3 67657456 		.ascii	"getVbusState\000"
 18535      62757353 
 18535      74617465 
 18535      00
 18536              	.LASF239:
 18537 0fd0 4D494E55 		.ascii	"MINUS\000"
 18537      5300
 18538              	.LASF160:
 18539 0fd6 5F5A4E33 		.ascii	"_ZN3USB12getConfDescrEhhthPh\000"
 18539      55534231 
 18539      32676574 
 18539      436F6E66 
 18539      44657363 
 18540              	.LASF603:
 18541 0ff3 70737472 		.ascii	"pstrUsageHeadMountedDisplay\000"
 18541      55736167 
 18541      65486561 
ARM GAS  C:\Users\jrdia\AppData\Local\Temp\ccFTvYyK.s 			page 369


 18541      644D6F75 
 18541      6E746564 
 18542              	.LASF368:
 18543 100f 5F5A4E39 		.ascii	"_ZN9PS4Parser12getUsbStatusEv\000"
 18543      50533450 
 18543      61727365 
 18543      72313267 
 18543      65745573 
 18544              	.LASF1060:
 18545 102d 70737472 		.ascii	"pstrUsageACZoomOut\000"
 18545      55736167 
 18545      6541435A 
 18545      6F6F6D4F 
 18545      757400
 18546              	.LASF1317:
 18547 1040 4D696C6C 		.ascii	"Millis_Timer_ClearInterrupt\000"
 18547      69735F54 
 18547      696D6572 
 18547      5F436C65 
 18547      6172496E 
 18548              	.LASF1104:
 18549 105c 70737472 		.ascii	"pstrUsageACBulletedList\000"
 18549      55736167 
 18549      65414342 
 18549      756C6C65 
 18549      7465644C 
 18550              	.LASF218:
 18551 1074 5F5A4E31 		.ascii	"_ZN15USBDeviceConfig12ResetHubPortEh\000"
 18551      35555342 
 18551      44657669 
 18551      6365436F 
 18551      6E666967 
 18552              	.LASF938:
 18553 1099 70737472 		.ascii	"pstrUsageBalanceLeft\000"
 18553      55736167 
 18553      6542616C 
 18553      616E6365 
 18553      4C656674 
 18554              	.LASF636:
 18555 10ae 70737472 		.ascii	"pstrUsageSandWedge\000"
 18555      55736167 
 18555      6553616E 
 18555      64576564 
 18555      676500
 18556              	.LASF1048:
 18557 10c1 70737472 		.ascii	"pstrUsageACGoto\000"
 18557      55736167 
 18557      65414347 
 18557      6F746F00 
 18558              	.LASF666:
 18559 10d1 70737472 		.ascii	"pstrUsageGunSingleShot\000"
 18559      55736167 
 18559      6547756E 
 18559      53696E67 
 18559      6C655368 
 18560              	.LASF183:
 18561 10e8 52656C65 		.ascii	"ReleaseDevice\000"
ARM GAS  C:\Users\jrdia\AppData\Local\Temp\ccFTvYyK.s 			page 370


 18561      61736544 
 18561      65766963 
 18561      6500
 18562              	.LASF908:
 18563 10f6 70737472 		.ascii	"pstrUsageBalance\000"
 18563      55736167 
 18563      6542616C 
 18563      616E6365 
 18563      00
 18564              	.LASF314:
 18565 1107 7265706F 		.ascii	"reportChanged\000"
 18565      72744368 
 18565      616E6765 
 18565      6400
 18566              	.LASF1166:
 18567 1115 70737472 		.ascii	"pstrUsageACRename\000"
 18567      55736167 
 18567      65414352 
 18567      656E616D 
 18567      6500
 18568              	.LASF354:
 18569 1127 5F5A4E39 		.ascii	"_ZN9PS4Parser4getXEhh\000"
 18569      50533450 
 18569      61727365 
 18569      72346765 
 18569      74584568 
 18570              	.LASF1150:
 18571 113d 70737472 		.ascii	"pstrUsageACSendTo\000"
 18571      55736167 
 18571      65414353 
 18571      656E6454 
 18571      6F00
 18572              	.LASF1041:
 18573 114f 70737472 		.ascii	"pstrUsageACCopy\000"
 18573      55736167 
 18573      65414343 
 18573      6F707900 
 18574              	.LASF1079:
 18575 115f 70737472 		.ascii	"pstrUsageACStrikethrough\000"
 18575      55736167 
 18575      65414353 
 18575      7472696B 
 18575      65746872 
 18576              	.LASF755:
 18577 1178 70737472 		.ascii	"pstrUsageExternalPowerConnected\000"
 18577      55736167 
 18577      65457874 
 18577      65726E61 
 18577      6C506F77 
 18578              	.LASF137:
 18579 1198 64657643 		.ascii	"devConfig\000"
 18579      6F6E6669 
 18579      6700
 18580              	.LASF902:
 18581 11a2 70737472 		.ascii	"pstrUsageTrackingIncrement\000"
 18581      55736167 
 18581      65547261 
ARM GAS  C:\Users\jrdia\AppData\Local\Temp\ccFTvYyK.s 			page 371


 18581      636B696E 
 18581      67496E63 
 18582              	.LASF407:
 18583 11bd 6C326361 		.ascii	"l2cap_event_flag\000"
 18583      705F6576 
 18583      656E745F 
 18583      666C6167 
 18583      00
 18584              	.LASF498:
 18585 11ce 70737472 		.ascii	"pstrUsageMotionWakeup\000"
 18585      55736167 
 18585      654D6F74 
 18585      696F6E57 
 18585      616B6575 
 18586              	.LASF1236:
 18587 11e4 70737472 		.ascii	"pstrUsageCursorBlink\000"
 18587      55736167 
 18587      65437572 
 18587      736F7242 
 18587      6C696E6B 
 18588              	.LASF713:
 18589 11f9 70737472 		.ascii	"pstrUsageNightMode\000"
 18589      55736167 
 18589      654E6967 
 18589      68744D6F 
 18589      646500
 18590              	.LASF226:
 18591 120c 59656C6C 		.ascii	"Yellow\000"
 18591      6F7700
 18592              	.LASF757:
 18593 1213 70737472 		.ascii	"pstrUsageAnsweringMachine\000"
 18593      55736167 
 18593      65416E73 
 18593      77657269 
 18593      6E674D61 
 18594              	.LASF606:
 18595 122d 70737472 		.ascii	"pstrUsageVest\000"
 18595      55736167 
 18595      65566573 
 18595      7400
 18596              	.LASF222:
 18597 123b 4C6F6F6B 		.ascii	"LookaheadMode\000"
 18597      61686561 
 18597      644D6F64 
 18597      6500
 18598              	.LASF136:
 18599 1249 61646472 		.ascii	"addrPool\000"
 18599      506F6F6C 
 18599      00
 18600              	.LASF557:
 18601 1252 70737472 		.ascii	"pstrUsageMagicCarpetSimulationDevice\000"
 18601      55736167 
 18601      654D6167 
 18601      69634361 
 18601      72706574 
 18602              	.LASF1112:
 18603 1277 70737472 		.ascii	"pstrUsageACAddToCart\000"
ARM GAS  C:\Users\jrdia\AppData\Local\Temp\ccFTvYyK.s 			page 372


 18603      55736167 
 18603      65414341 
 18603      6464546F 
 18603      43617274 
 18604              	.LASF164:
 18605 128c 73657441 		.ascii	"setAddr\000"
 18605      64647200 
 18606              	.LASF458:
 18607 1294 70737472 		.ascii	"pstrUsagePageLEDs\000"
 18607      55736167 
 18607      65506167 
 18607      654C4544 
 18607      7300
 18608              	.LASF1286:
 18609 12a6 70737472 		.ascii	"pstrUsageTransmitPower\000"
 18609      55736167 
 18609      65547261 
 18609      6E736D69 
 18609      74506F77 
 18610              	.LASF1138:
 18611 12bd 70737472 		.ascii	"pstrUsageACSortDescending\000"
 18611      55736167 
 18611      65414353 
 18611      6F727444 
 18611      65736365 
 18612              	.LASF828:
 18613 12d7 70737472 		.ascii	"pstrUsageSleepMode\000"
 18613      55736167 
 18613      65536C65 
 18613      65704D6F 
 18613      646500
 18614              	.LASF931:
 18615 12ea 70737472 		.ascii	"pstrUsagePoliceAlarm\000"
 18615      55736167 
 18615      65506F6C 
 18615      69636541 
 18615      6C61726D 
 18616              	.LASF1254:
 18617 12ff 70737472 		.ascii	"pstrUsageCharAttributeUnderline\000"
 18617      55736167 
 18617      65436861 
 18617      72417474 
 18617      72696275 
 18618              	.LASF431:
 18619 131f 5F5F696E 		.ascii	"__initialize_p\000"
 18619      69746961 
 18619      6C697A65 
 18619      5F7000
 18620              	.LASF48:
 18621 132e 57726974 		.ascii	"Write\000"
 18621      6500
 18622              	.LASF403:
 18623 1334 76627573 		.ascii	"vbusState\000"
 18623      53746174 
 18623      6500
 18624              	.LASF633:
 18625 133e 70737472 		.ascii	"pstrUsage9Iron\000"
ARM GAS  C:\Users\jrdia\AppData\Local\Temp\ccFTvYyK.s 			page 373


 18625      55736167 
 18625      65394972 
 18625      6F6E00
 18626              	.LASF1316:
 18627 134d 4D696C6C 		.ascii	"Millis_Timer_GetInterruptSource\000"
 18627      69735F54 
 18627      696D6572 
 18627      5F476574 
 18627      496E7465 
 18628              	.LASF1287:
 18629 136d 70737472 		.ascii	"pstrUsageFocus\000"
 18629      55736167 
 18629      65466F63 
 18629      757300
 18630              	.LASF270:
 18631 137c 675A6D6F 		.ascii	"gZmove\000"
 18631      766500
 18632              	.LASF1157:
 18633 1383 70737472 		.ascii	"pstrUsageACDownload\000"
 18633      55736167 
 18633      65414344 
 18633      6F776E6C 
 18633      6F616400 
 18634              	.LASF1156:
 18635 1397 70737472 		.ascii	"pstrUsageACUpload\000"
 18635      55736167 
 18635      65414355 
 18635      706C6F61 
 18635      6400
 18636              	.LASF128:
 18637 13a9 5F5A4E38 		.ascii	"_ZN8MAX3421eI4TPinI5PortbLh2EES0_IS1_Lh1EEE8busprob"
 18637      4D415833 
 18637      34323165 
 18637      49345450 
 18637      696E4935 
 18638 13dc 65457600 		.ascii	"eEv\000"
 18639              	.LASF1123:
 18640 13e0 70737472 		.ascii	"pstrUsageACProtect\000"
 18640      55736167 
 18640      65414350 
 18640      726F7465 
 18640      637400
 18641              	.LASF419:
 18642 13f3 5F5A4E31 		.ascii	"_ZN16BluetoothService12attachOnInitEPFvvE\000"
 18642      36426C75 
 18642      65746F6F 
 18642      74685365 
 18642      72766963 
 18643              	.LASF1148:
 18644 141d 70737472 		.ascii	"pstrUsageACSyncronize\000"
 18644      55736167 
 18644      65414353 
 18644      796E6372 
 18644      6F6E697A 
 18645              	.LASF54:
 18646 1433 52656164 		.ascii	"Read\000"
 18646      00
ARM GAS  C:\Users\jrdia\AppData\Local\Temp\ccFTvYyK.s 			page 374


 18647              	.LASF373:
 18648 1438 73657441 		.ascii	"setAllOff\000"
 18648      6C6C4F66 
 18648      6600
 18649              	.LASF253:
 18650 1442 53594E43 		.ascii	"SYNC\000"
 18650      00
 18651              	.LASF524:
 18652 1447 70737472 		.ascii	"pstrUsageSystemColdRestart\000"
 18652      55736167 
 18652      65537973 
 18652      74656D43 
 18652      6F6C6452 
 18653              	.LASF443:
 18654 1462 50494E42 		.ascii	"PINB\000"
 18654      00
 18655              	.LASF558:
 18656 1467 70737472 		.ascii	"pstrUsageBicycleSimulationDevice\000"
 18656      55736167 
 18656      65426963 
 18656      79636C65 
 18656      53696D75 
 18657              	.LASF132:
 18658 1488 5F5A4E38 		.ascii	"_ZN8MAX3421eI4TPinI5PortbLh2EES0_IS1_Lh1EEE10IntHan"
 18658      4D415833 
 18658      34323165 
 18658      49345450 
 18658      696E4935 
 18659 14bb 646C6572 		.ascii	"dlerEv\000"
 18659      457600
 18660              	.LASF1030:
 18661 14c2 70737472 		.ascii	"pstrUsageGenericGUIAppControls\000"
 18661      55736167 
 18661      6547656E 
 18661      65726963 
 18661      47554941 
 18662              	.LASF99:
 18663 14e1 5350495F 		.ascii	"SPI_SS\000"
 18663      535300
 18664              	.LASF462:
 18665 14e8 70737472 		.ascii	"pstrUsagePageConsumer\000"
 18665      55736167 
 18665      65506167 
 18665      65436F6E 
 18665      73756D65 
 18666              	.LASF1192:
 18667 14fe 70737472 		.ascii	"pstrUsageTap\000"
 18667      55736167 
 18667      65546170 
 18667      00
 18668              	.LASF522:
 18669 150b 70737472 		.ascii	"pstrUsageSystemMenuUp\000"
 18669      55736167 
 18669      65537973 
 18669      74656D4D 
 18669      656E7555 
 18670              	.LASF965:
ARM GAS  C:\Users\jrdia\AppData\Local\Temp\ccFTvYyK.s 			page 375


 18671 1521 70737472 		.ascii	"pstrUsageALSpreadsheet\000"
 18671      55736167 
 18671      65414C53 
 18671      70726561 
 18671      64736865 
 18672              	.LASF117:
 18673 1538 5F5A4E38 		.ascii	"_ZN8MAX3421eI4TPinI5PortbLh2EES0_IS1_Lh1EEE5resetEv"
 18673      4D415833 
 18673      34323165 
 18673      49345450 
 18673      696E4935 
 18674 156b 00       		.ascii	"\000"
 18675              	.LASF98:
 18676 156c 5350495F 		.ascii	"SPI_MISO\000"
 18676      4D49534F 
 18676      00
 18677              	.LASF512:
 18678 1575 70737472 		.ascii	"pstrUsageSystemSleep\000"
 18678      55736167 
 18678      65537973 
 18678      74656D53 
 18678      6C656570 
 18679              	.LASF390:
 18680 158a 5F5A4E39 		.ascii	"_ZN9PS4Parser5ResetEv\000"
 18680      50533450 
 18680      61727365 
 18680      72355265 
 18680      73657445 
 18681              	.LASF484:
 18682 15a0 70737472 		.ascii	"pstrUsageMultiAxisController\000"
 18682      55736167 
 18682      654D756C 
 18682      74694178 
 18682      6973436F 
 18683              	.LASF1159:
 18684 15bd 70737472 		.ascii	"pstrUsageACInsertRow\000"
 18684      55736167 
 18684      65414349 
 18684      6E736572 
 18684      74526F77 
 18685              	.LASF888:
 18686 15d2 70737472 		.ascii	"pstrUsageEnterDisk\000"
 18686      55736167 
 18686      65456E74 
 18686      65724469 
 18686      736B00
 18687              	.LASF1103:
 18688 15e5 70737472 		.ascii	"pstrUsageACRestartNumbering\000"
 18688      55736167 
 18688      65414352 
 18688      65737461 
 18688      72744E75 
 18689              	.LASF689:
 18690 1601 70737472 		.ascii	"pstrUsageHighCutFilter\000"
 18690      55736167 
 18690      65486967 
 18690      68437574 
ARM GAS  C:\Users\jrdia\AppData\Local\Temp\ccFTvYyK.s 			page 376


 18690      46696C74 
 18691              	.LASF939:
 18692 1618 70737472 		.ascii	"pstrUsageBassIncrement\000"
 18692      55736167 
 18692      65426173 
 18692      73496E63 
 18692      72656D65 
 18693              	.LASF1071:
 18694 162f 70737472 		.ascii	"pstrUsageACNewWindow\000"
 18694      55736167 
 18694      6541434E 
 18694      65775769 
 18694      6E646F77 
 18695              	.LASF234:
 18696 1644 42757474 		.ascii	"ButtonEnum\000"
 18696      6F6E456E 
 18696      756D00
 18697              	.LASF4:
 18698 164f 5F5F696E 		.ascii	"__int16_t\000"
 18698      7431365F 
 18698      7400
 18699              	.LASF471:
 18700 1659 70737472 		.ascii	"pstrUsagePageScale\000"
 18700      55736167 
 18700      65506167 
 18700      65536361 
 18700      6C6500
 18701              	.LASF1066:
 18702 166c 70737472 		.ascii	"pstrUsageACScrollDown\000"
 18702      55736167 
 18702      65414353 
 18702      63726F6C 
 18702      6C446F77 
 18703              	.LASF6:
 18704 1682 5F5F7569 		.ascii	"__uint16_t\000"
 18704      6E743136 
 18704      5F7400
 18705              	.LASF677:
 18706 168d 70737472 		.ascii	"pstrUsageSecurityCodeCharErased\000"
 18706      55736167 
 18706      65536563 
 18706      75726974 
 18706      79436F64 
 18707              	.LASF263:
 18708 16ad 52696768 		.ascii	"RightHatX\000"
 18708      74486174 
 18708      5800
 18709              	.LASF264:
 18710 16b7 52696768 		.ascii	"RightHatY\000"
 18710      74486174 
 18710      5900
 18711              	.LASF850:
 18712 16c1 70737472 		.ascii	"pstrUsageRecallLast\000"
 18712      55736167 
 18712      65526563 
 18712      616C6C4C 
 18712      61737400 
ARM GAS  C:\Users\jrdia\AppData\Local\Temp\ccFTvYyK.s 			page 377


 18713              	.LASF175:
 18714 16d5 5F5A4E33 		.ascii	"_ZN3USB11outTransferEhhtPh\000"
 18714      55534231 
 18714      316F7574 
 18714      5472616E 
 18714      73666572 
 18715              	.LASF1187:
 18716 16f0 70737472 		.ascii	"pstrUsageTipPressure\000"
 18716      55736167 
 18716      65546970 
 18716      50726573 
 18716      73757265 
 18717              	.LASF567:
 18718 1705 70737472 		.ascii	"pstrUsageAntiTorqueControl\000"
 18718      55736167 
 18718      65416E74 
 18718      69546F72 
 18718      71756543 
 18719              	.LASF547:
 18720 1720 70737472 		.ascii	"pstrUsageFlightSimulationDevice\000"
 18720      55736167 
 18720      65466C69 
 18720      67687453 
 18720      696D756C 
 18721              	.LASF722:
 18722 1740 70737472 		.ascii	"pstrUsageBusy\000"
 18722      55736167 
 18722      65427573 
 18722      7900
 18723              	.LASF525:
 18724 174e 70737472 		.ascii	"pstrUsageSystemWarmRestart\000"
 18724      55736167 
 18724      65537973 
 18724      74656D57 
 18724      61726D52 
 18725              	.LASF922:
 18726 1769 70737472 		.ascii	"pstrUsageSlow\000"
 18726      55736167 
 18726      65536C6F 
 18726      7700
 18727              	.LASF233:
 18728 1777 52756D62 		.ascii	"RumbleLow\000"
 18728      6C654C6F 
 18728      7700
 18729              	.LASF186:
 18730 1781 5F5A4E33 		.ascii	"_ZN3USB7ctrlReqEhhhhhhtttPhP13USBReadParser\000"
 18730      55534237 
 18730      6374726C 
 18730      52657145 
 18730      68686868 
 18731              	.LASF341:
 18732 17ad 7E505334 		.ascii	"~PS4Parser\000"
 18732      50617273 
 18732      657200
 18733              	.LASF228:
 18734 17b8 50757270 		.ascii	"Purple\000"
 18734      6C6500
ARM GAS  C:\Users\jrdia\AppData\Local\Temp\ccFTvYyK.s 			page 378


 18735              	.LASF662:
 18736 17bf 70737472 		.ascii	"pstrUsagePlayer\000"
 18736      55736167 
 18736      65506C61 
 18736      79657200 
 18737              	.LASF220:
 18738 17cf 41646472 		.ascii	"AddressPool\000"
 18738      65737350 
 18738      6F6F6C00 
 18739              	.LASF331:
 18740 17db 42544849 		.ascii	"BTHID\000"
 18740      4400
 18741              	.LASF429:
 18742 17e1 6D6F6465 		.ascii	"mode\000"
 18742      00
 18743              	.LASF107:
 18744 17e6 5F5A4E38 		.ascii	"_ZN8MAX3421eI4TPinI5PortbLh2EES0_IS1_Lh1EEE7bytesWr"
 18744      4D415833 
 18744      34323165 
 18744      49345450 
 18744      696E4935 
 18745 1819 45686850 		.ascii	"EhhPh\000"
 18745      6800
 18746              	.LASF76:
 18747 181f 5F5A4E34 		.ascii	"_ZN4TPinI5PortbLh2EE5ClearEv\000"
 18747      5450696E 
 18747      4935506F 
 18747      7274624C 
 18747      68324545 
 18748              	.LASF26:
 18749 183c 534B4950 		.ascii	"SKIP_ALL\000"
 18749      5F414C4C 
 18749      00
 18750              	.LASF830:
 18751 1845 70737472 		.ascii	"pstrUsageFunctionButtons\000"
 18751      55736167 
 18751      6546756E 
 18751      6374696F 
 18751      6E427574 
 18752              	.LASF781:
 18753 185e 70737472 		.ascii	"pstrUsageRecallNumber\000"
 18753      55736167 
 18753      65526563 
 18753      616C6C4E 
 18753      756D6265 
 18754              	.LASF998:
 18755 1874 70737472 		.ascii	"pstrUsageALDocuments\000"
 18755      55736167 
 18755      65414C44 
 18755      6F63756D 
 18755      656E7473 
 18756              	.LASF970:
 18757 1889 70737472 		.ascii	"pstrUsageALNewsreader\000"
 18757      55736167 
 18757      65414C4E 
 18757      65777372 
 18757      65616465 
ARM GAS  C:\Users\jrdia\AppData\Local\Temp\ccFTvYyK.s 			page 379


 18758              	.LASF948:
 18759 189f 70737472 		.ascii	"pstrUsageChannelCenterFront\000"
 18759      55736167 
 18759      65436861 
 18759      6E6E656C 
 18759      43656E74 
 18760              	.LASF166:
 18761 18bb 73657443 		.ascii	"setConf\000"
 18761      6F6E6600 
 18762              	.LASF839:
 18763 18c3 70737472 		.ascii	"pstrUsageMenuValueDecrease\000"
 18763      55736167 
 18763      654D656E 
 18763      7556616C 
 18763      75654465 
 18764              	.LASF276:
 18765 18de 416E676C 		.ascii	"AngleEnum\000"
 18765      65456E75 
 18765      6D00
 18766              	.LASF1194:
 18767 18e8 70737472 		.ascii	"pstrUsageDataValid\000"
 18767      55736167 
 18767      65446174 
 18767      6156616C 
 18767      696400
 18768              	.LASF1061:
 18769 18fb 70737472 		.ascii	"pstrUsageACZoom\000"
 18769      55736167 
 18769      6541435A 
 18769      6F6F6D00 
 18770              	.LASF1264:
 18771 190b 70737472 		.ascii	"pstrUsageBlitReport\000"
 18771      55736167 
 18771      65426C69 
 18771      74526570 
 18771      6F727400 
 18772              	.LASF248:
 18773 191f 53484152 		.ascii	"SHARE\000"
 18773      4500
 18774              	.LASF212:
 18775 1925 56494450 		.ascii	"VIDPIDOK\000"
 18775      49444F4B 
 18775      00
 18776              	.LASF1229:
 18777 192e 70737472 		.ascii	"pstrUsageRow\000"
 18777      55736167 
 18777      65526F77 
 18777      00
 18778              	.LASF1235:
 18779 193b 70737472 		.ascii	"pstrUsageCursorEnable\000"
 18779      55736167 
 18779      65437572 
 18779      736F7245 
 18779      6E61626C 
 18780              	.LASF914:
 18781 1951 70737472 		.ascii	"pstrUsageMPX\000"
 18781      55736167 
ARM GAS  C:\Users\jrdia\AppData\Local\Temp\ccFTvYyK.s 			page 380


 18781      654D5058 
 18781      00
 18782              	.LASF630:
 18783 195e 70737472 		.ascii	"pstrUsage6Iron\000"
 18783      55736167 
 18783      65364972 
 18783      6F6E00
 18784              	.LASF627:
 18785 196d 70737472 		.ascii	"pstrUsage3Iron\000"
 18785      55736167 
 18785      65334972 
 18785      6F6E00
 18786              	.LASF171:
 18787 197c 5F5A4E33 		.ascii	"_ZN3USB10ctrlStatusEhbt\000"
 18787      55534231 
 18787      30637472 
 18787      6C537461 
 18787      74757345 
 18788              	.LASF799:
 18789 1994 70737472 		.ascii	"pstrUsageTonesOff\000"
 18789      55736167 
 18789      65546F6E 
 18789      65734F66 
 18789      6600
 18790              	.LASF1039:
 18791 19a6 70737472 		.ascii	"pstrUsageACProperties\000"
 18791      55736167 
 18791      65414350 
 18791      726F7065 
 18791      72746965 
 18792              	.LASF686:
 18793 19bc 70737472 		.ascii	"pstrUsageDoNotDisturb\000"
 18793      55736167 
 18793      65446F4E 
 18793      6F744469 
 18793      73747572 
 18794              	.LASF711:
 18795 19d2 70737472 		.ascii	"pstrUsageMicrophone\000"
 18795      55736167 
 18795      654D6963 
 18795      726F7068 
 18795      6F6E6500 
 18796              	.LASF1255:
 18797 19e6 70737472 		.ascii	"pstrUsageCharAttributeBlink\000"
 18797      55736167 
 18797      65436861 
 18797      72417474 
 18797      72696275 
 18798              	.LASF321:
 18799 1a02 5F5A4E35 		.ascii	"_ZN5PS4BT14ParseBTHIDDataEhPh\000"
 18799      50533442 
 18799      54313450 
 18799      61727365 
 18799      42544849 
 18800              	.LASF333:
 18801 1a20 5F5A4E35 		.ascii	"_ZN5BTHID6onInitEv\000"
 18801      42544849 
ARM GAS  C:\Users\jrdia\AppData\Local\Temp\ccFTvYyK.s 			page 381


 18801      44366F6E 
 18801      496E6974 
 18801      457600
 18802              	.LASF379:
 18803 1a33 5F5A4E39 		.ascii	"_ZN9PS4Parser11setRumbleOnEhh\000"
 18803      50533450 
 18803      61727365 
 18803      72313173 
 18803      65745275 
 18804              	.LASF470:
 18805 1a51 70737472 		.ascii	"pstrUsagePageBarCodeScanner\000"
 18805      55736167 
 18805      65506167 
 18805      65426172 
 18805      436F6465 
 18806              	.LASF3:
 18807 1a6d 756E7369 		.ascii	"unsigned char\000"
 18807      676E6564 
 18807      20636861 
 18807      7200
 18808              	.LASF1077:
 18809 1a7b 70737472 		.ascii	"pstrUsageACItalics\000"
 18809      55736167 
 18809      65414349 
 18809      74616C69 
 18809      637300
 18810              	.LASF604:
 18811 1a8e 70737472 		.ascii	"pstrUsageHandTracker\000"
 18811      55736167 
 18811      6548616E 
 18811      64547261 
 18811      636B6572 
 18812              	.LASF754:
 18813 1aa3 70737472 		.ascii	"pstrUsageSystemSuspend\000"
 18813      55736167 
 18813      65537973 
 18813      74656D53 
 18813      75737065 
 18814              	.LASF862:
 18815 1aba 70737472 		.ascii	"pstrUsageMediaSelectGames\000"
 18815      55736167 
 18815      654D6564 
 18815      69615365 
 18815      6C656374 
 18816              	.LASF744:
 18817 1ad4 70737472 		.ascii	"pstrUsageFlashOnTime\000"
 18817      55736167 
 18817      65466C61 
 18817      73684F6E 
 18817      54696D65 
 18818              	.LASF589:
 18819 1ae9 70737472 		.ascii	"pstrUsageSteering\000"
 18819      55736167 
 18819      65537465 
 18819      6572696E 
 18819      6700
 18820              	.LASF1011:
ARM GAS  C:\Users\jrdia\AppData\Local\Temp\ccFTvYyK.s 			page 382


 18821 1afb 70737472 		.ascii	"pstrUsageALFileBrowser\000"
 18821      55736167 
 18821      65414C46 
 18821      696C6542 
 18821      726F7773 
 18822              	.LASF1224:
 18823 1b12 70737472 		.ascii	"pstrUsageStatusNotReady\000"
 18823      55736167 
 18823      65537461 
 18823      7475734E 
 18823      6F745265 
 18824              	.LASF658:
 18825 1b2a 70737472 		.ascii	"pstrUsageSecondaryFlipper\000"
 18825      55736167 
 18825      65536563 
 18825      6F6E6461 
 18825      7279466C 
 18826              	.LASF1147:
 18827 1b44 70737472 		.ascii	"pstrUsageACResetAlarm\000"
 18827      55736167 
 18827      65414352 
 18827      65736574 
 18827      416C6172 
 18828              	.LASF510:
 18829 1b5a 70737472 		.ascii	"pstrUsageSystemControl\000"
 18829      55736167 
 18829      65537973 
 18829      74656D43 
 18829      6F6E7472 
 18830              	.LASF1301:
 18831 1b71 70737472 		.ascii	"pstrUsage2DModeAdjust\000"
 18831      55736167 
 18831      6532444D 
 18831      6F646541 
 18831      646A7573 
 18832              	.LASF188:
 18833 1b87 5F5A4E33 		.ascii	"_ZN3USB10SetAddressEhhPP6EpInfoPt\000"
 18833      55534231 
 18833      30536574 
 18833      41646472 
 18833      65737345 
 18834              	.LASF993:
 18835 1ba9 70737472 		.ascii	"pstrUsageALSelectTaskApplication\000"
 18835      55736167 
 18835      65414C53 
 18835      656C6563 
 18835      74546173 
 18836              	.LASF20:
 18837 1bca 666C6F61 		.ascii	"float\000"
 18837      7400
 18838              	.LASF895:
 18839 1bd0 70737472 		.ascii	"pstrUsageClearMark\000"
 18839      55736167 
 18839      65436C65 
 18839      61724D61 
 18839      726B00
 18840              	.LASF685:
ARM GAS  C:\Users\jrdia\AppData\Local\Temp\ccFTvYyK.s 			page 383


 18841 1be3 70737472 		.ascii	"pstrUsageShift\000"
 18841      55736167 
 18841      65536869 
 18841      667400
 18842              	.LASF345:
 18843 1bf2 67657442 		.ascii	"getButtonPress\000"
 18843      7574746F 
 18843      6E507265 
 18843      737300
 18844              	.LASF729:
 18845 1c01 70737472 		.ascii	"pstrUsageStop\000"
 18845      55736167 
 18845      6553746F 
 18845      7000
 18846              	.LASF1226:
 18847 1c0f 70737472 		.ascii	"pstrUsageErrorNotALoadableCharacter\000"
 18847      55736167 
 18847      65457272 
 18847      6F724E6F 
 18847      74414C6F 
 18848              	.LASF833:
 18849 1c33 70737472 		.ascii	"pstrUsageMenuUp\000"
 18849      55736167 
 18849      654D656E 
 18849      75557000 
 18850              	.LASF303:
 18851 1c43 61636358 		.ascii	"accX\000"
 18851      00
 18852              	.LASF305:
 18853 1c48 61636359 		.ascii	"accY\000"
 18853      00
 18854              	.LASF304:
 18855 1c4d 6163635A 		.ascii	"accZ\000"
 18855      00
 18856              	.LASF155:
 18857 1c52 73657445 		.ascii	"setEpInfoEntry\000"
 18857      70496E66 
 18857      6F456E74 
 18857      727900
 18858              	.LASF52:
 18859 1c61 44697257 		.ascii	"DirWrite\000"
 18859      72697465 
 18859      00
 18860              	.LASF79:
 18861 1c6a 5F5A4E34 		.ascii	"_ZN4TPinI5PortbLh2EE10SetDirReadEv\000"
 18861      5450696E 
 18861      4935506F 
 18861      7274624C 
 18861      68324545 
 18862              	.LASF800:
 18863 1c8d 70737472 		.ascii	"pstrUsageOutsideRingback\000"
 18863      55736167 
 18863      654F7574 
 18863      73696465 
 18863      52696E67 
 18864              	.LASF158:
 18865 1ca6 5F5A4E33 		.ascii	"_ZN3USB11getDevDescrEhhtPh\000"
ARM GAS  C:\Users\jrdia\AppData\Local\Temp\ccFTvYyK.s 			page 384


 18865      55534231 
 18865      31676574 
 18865      44657644 
 18865      65736372 
 18866              	.LASF359:
 18867 1cc1 67657454 		.ascii	"getTouchCounter\000"
 18867      6F756368 
 18867      436F756E 
 18867      74657200 
 18868              	.LASF601:
 18869 1cd1 70737472 		.ascii	"pstrUsageGlove\000"
 18869      55736167 
 18869      65476C6F 
 18869      766500
 18870              	.LASF1001:
 18871 1ce0 70737472 		.ascii	"pstrUsageALDesktop\000"
 18871      55736167 
 18871      65414C44 
 18871      65736B74 
 18871      6F7000
 18872              	.LASF1161:
 18873 1cf3 70737472 		.ascii	"pstrUsageACInsertFile\000"
 18873      55736167 
 18873      65414349 
 18873      6E736572 
 18873      7446696C 
 18874              	.LASF74:
 18875 1d09 53657444 		.ascii	"SetDir\000"
 18875      697200
 18876              	.LASF707:
 18877 1d10 70737472 		.ascii	"pstrUsageBatteryLow\000"
 18877      55736167 
 18877      65426174 
 18877      74657279 
 18877      4C6F7700 
 18878              	.LASF1018:
 18879 1d24 70737472 		.ascii	"pstrUsageALInstantMessaging\000"
 18879      55736167 
 18879      65414C49 
 18879      6E737461 
 18879      6E744D65 
 18880              	.LASF1070:
 18881 1d40 70737472 		.ascii	"pstrUsageACPan\000"
 18881      55736167 
 18881      65414350 
 18881      616E00
 18882              	.LASF553:
 18883 1d4f 70737472 		.ascii	"pstrUsageMotocicleSimulationDevice\000"
 18883      55736167 
 18883      654D6F74 
 18883      6F636963 
 18883      6C655369 
 18884              	.LASF877:
 18885 1d72 70737472 		.ascii	"pstrUsageMediaSelectSAP\000"
 18885      55736167 
 18885      654D6564 
 18885      69615365 
ARM GAS  C:\Users\jrdia\AppData\Local\Temp\ccFTvYyK.s 			page 385


 18885      6C656374 
 18886              	.LASF1199:
 18887 1d8a 70737472 		.ascii	"pstrUsageXTilt\000"
 18887      55736167 
 18887      65585469 
 18887      6C7400
 18888              	.LASF773:
 18889 1d99 70737472 		.ascii	"pstrUsageSpeakerPhone\000"
 18889      55736167 
 18889      65537065 
 18889      616B6572 
 18889      50686F6E 
 18890              	.LASF654:
 18891 1daf 70737472 		.ascii	"pstrUsageLeanRightLeft\000"
 18891      55736167 
 18891      654C6561 
 18891      6E526967 
 18891      68744C65 
 18892              	.LASF836:
 18893 1dc6 70737472 		.ascii	"pstrUsageMenuRight\000"
 18893      55736167 
 18893      654D656E 
 18893      75526967 
 18893      687400
 18894              	.LASF364:
 18895 1dd9 5F5A4E39 		.ascii	"_ZN9PS4Parser9getSensorE10SensorEnum\000"
 18895      50533450 
 18895      61727365 
 18895      72396765 
 18895      7453656E 
 18896              	.LASF618:
 18897 1dfe 70737472 		.ascii	"pstrUsageStickFaceAngle\000"
 18897      55736167 
 18897      65537469 
 18897      636B4661 
 18897      6365416E 
 18898              	.LASF1058:
 18899 1e16 70737472 		.ascii	"pstrUsageACSubscriptions\000"
 18899      55736167 
 18899      65414353 
 18899      75627363 
 18899      72697074 
 18900              	.LASF432:
 18901 1e2f 5F5F7072 		.ascii	"__priority\000"
 18901      696F7269 
 18901      747900
 18902              	.LASF753:
 18903 1e3a 70737472 		.ascii	"pstrUsageGenericIndicator\000"
 18903      55736167 
 18903      6547656E 
 18903      65726963 
 18903      496E6469 
 18904              	.LASF67:
 18905 1e54 5F5A4E35 		.ascii	"_ZN5Portb9DirToggleEh\000"
 18905      506F7274 
 18905      62394469 
 18905      72546F67 
ARM GAS  C:\Users\jrdia\AppData\Local\Temp\ccFTvYyK.s 			page 386


 18905      676C6545 
 18906              	.LASF195:
 18907 1e6a 5F5A4E33 		.ascii	"_ZN3USB13AttemptConfigEhhhb\000"
 18907      55534231 
 18907      33417474 
 18907      656D7074 
 18907      436F6E66 
 18908              	.LASF880:
 18909 1e86 70737472 		.ascii	"pstrUsageDaily\000"
 18909      55736167 
 18909      65446169 
 18909      6C7900
 18910              	.LASF740:
 18911 1e95 70737472 		.ascii	"pstrUsageIndicatorFlash\000"
 18911      55736167 
 18911      65496E64 
 18911      69636174 
 18911      6F72466C 
 18912              	.LASF848:
 18913 1ead 70737472 		.ascii	"pstrUsageAssignSelection\000"
 18913      55736167 
 18913      65417373 
 18913      69676E53 
 18913      656C6563 
 18914              	.LASF1284:
 18915 1ec6 70737472 		.ascii	"pstrUsageMicrophoneEnable\000"
 18915      55736167 
 18915      654D6963 
 18915      726F7068 
 18915      6F6E6545 
 18916              	.LASF1121:
 18917 1ee0 70737472 		.ascii	"pstrUsageACLock\000"
 18917      55736167 
 18917      6541434C 
 18917      6F636B00 
 18918              	.LASF1155:
 18919 1ef0 70737472 		.ascii	"pstrUsageACAttachFile\000"
 18919      55736167 
 18919      65414341 
 18919      74746163 
 18919      6846696C 
 18920              	.LASF909:
 18921 1f06 70737472 		.ascii	"pstrUsageBass\000"
 18921      55736167 
 18921      65426173 
 18921      7300
 18922              	.LASF824:
 18923 1f14 70737472 		.ascii	"pstrUsageAMPM\000"
 18923      55736167 
 18923      65414D50 
 18923      4D00
 18924              	.LASF93:
 18925 1f22 696E6974 		.ascii	"init\000"
 18925      00
 18926              	.LASF900:
 18927 1f27 70737472 		.ascii	"pstrUsageCounterReset\000"
 18927      55736167 
ARM GAS  C:\Users\jrdia\AppData\Local\Temp\ccFTvYyK.s 			page 387


 18927      65436F75 
 18927      6E746572 
 18927      52657365 
 18928              	.LASF1304:
 18929 1f3d 5053345F 		.ascii	"PS4_BUTTONS\000"
 18929      42555454 
 18929      4F4E5300 
 18930              	.LASF867:
 18931 1f49 70737472 		.ascii	"pstrUsageQuit\000"
 18931      55736167 
 18931      65517569 
 18931      7400
 18932              	.LASF1083:
 18933 1f57 70737472 		.ascii	"pstrUsageACRotate\000"
 18933      55736167 
 18933      65414352 
 18933      6F746174 
 18933      6500
 18934              	.LASF255:
 18935 1f69 57484954 		.ascii	"WHITE\000"
 18935      4500
 18936              	.LASF1108:
 18937 1f6f 70737472 		.ascii	"pstrUsageACNo\000"
 18937      55736167 
 18937      6541434E 
 18937      6F00
 18938              	.LASF466:
 18939 1f7d 70737472 		.ascii	"pstrUsagePageAlphaNumericDisplay\000"
 18939      55736167 
 18939      65506167 
 18939      65416C70 
 18939      68614E75 
 18940              	.LASF1026:
 18941 1f9e 70737472 		.ascii	"pstrUsageALCustomCorpNewsBrowser\000"
 18941      55736167 
 18941      65414C43 
 18941      7573746F 
 18941      6D436F72 
 18942              	.LASF955:
 18943 1fbf 70737472 		.ascii	"pstrUsageSubChannelIncrement\000"
 18943      55736167 
 18943      65537562 
 18943      4368616E 
 18943      6E656C49 
 18944              	.LASF843:
 18945 1fdc 70737472 		.ascii	"pstrUsageVCRTV\000"
 18945      55736167 
 18945      65564352 
 18945      545600
 18946              	.LASF292:
 18947 1feb 66696E67 		.ascii	"finger\000"
 18947      657200
 18948              	.LASF61:
 18949 1ff2 5F5A4E35 		.ascii	"_ZN5Portb6ToggleEh\000"
 18949      506F7274 
 18949      6236546F 
 18949      67676C65 
ARM GAS  C:\Users\jrdia\AppData\Local\Temp\ccFTvYyK.s 			page 388


 18949      456800
 18950              	.LASF565:
 18951 2005 70737472 		.ascii	"pstrUsageAileron\000"
 18951      55736167 
 18951      6541696C 
 18951      65726F6E 
 18951      00
 18952              	.LASF115:
 18953 2016 5F5A4E38 		.ascii	"_ZN8MAX3421eI4TPinI5PortbLh2EES0_IS1_Lh1EEE6gpioRdE"
 18953      4D415833 
 18953      34323165 
 18953      49345450 
 18953      696E4935 
 18954 2049 7600     		.ascii	"v\000"
 18955              	.LASF611:
 18956 204b 70737472 		.ascii	"pstrUsageGolfClub\000"
 18956      55736167 
 18956      65476F6C 
 18956      66436C75 
 18956      6200
 18957              	.LASF594:
 18958 205d 70737472 		.ascii	"pstrUsageBicycleCrank\000"
 18958      55736167 
 18958      65426963 
 18958      79636C65 
 18958      4372616E 
 18959              	.LASF401:
 18960 2073 426C7565 		.ascii	"BluetoothService\000"
 18960      746F6F74 
 18960      68536572 
 18960      76696365 
 18960      00
 18961              	.LASF483:
 18962 2084 70737472 		.ascii	"pstrUsageKeypad\000"
 18962      55736167 
 18962      654B6579 
 18962      70616400 
 18963              	.LASF1099:
 18964 2094 70737472 		.ascii	"pstrUsageACJustifyBlockV\000"
 18964      55736167 
 18964      6541434A 
 18964      75737469 
 18964      6679426C 
 18965              	.LASF159:
 18966 20ad 67657443 		.ascii	"getConfDescr\000"
 18966      6F6E6644 
 18966      65736372 
 18966      00
 18967              	.LASF1025:
 18968 20ba 70737472 		.ascii	"pstrUsageALMarketMonitorFinBrowser\000"
 18968      55736167 
 18968      65414C4D 
 18968      61726B65 
 18968      744D6F6E 
 18969              	.LASF969:
 18970 20dd 70737472 		.ascii	"pstrUsageALEmailReader\000"
 18970      55736167 
ARM GAS  C:\Users\jrdia\AppData\Local\Temp\ccFTvYyK.s 			page 389


 18970      65414C45 
 18970      6D61696C 
 18970      52656164 
 18971              	.LASF362:
 18972 20f4 5F5A4E39 		.ascii	"_ZN9PS4Parser8getAngleE9AngleEnum\000"
 18972      50533450 
 18972      61727365 
 18972      72386765 
 18972      74416E67 
 18973              	.LASF249:
 18974 2116 4F505449 		.ascii	"OPTIONS\000"
 18974      4F4E5300 
 18975              	.LASF232:
 18976 211e 52756D62 		.ascii	"RumbleHigh\000"
 18976      6C654869 
 18976      676800
 18977              	.LASF1328:
 18978 2129 5F5A4E33 		.ascii	"_ZN3USBC4Ev\000"
 18978      55534243 
 18978      34457600 
 18979              	.LASF587:
 18980 2135 70737472 		.ascii	"pstrUsageClutch\000"
 18980      55736167 
 18980      65436C75 
 18980      74636800 
 18981              	.LASF1285:
 18982 2145 70737472 		.ascii	"pstrUsageCine\000"
 18982      55736167 
 18982      6543696E 
 18982      6500
 18983              	.LASF1110:
 18984 2153 70737472 		.ascii	"pstrUsageACCatalog\000"
 18984      55736167 
 18984      65414343 
 18984      6174616C 
 18984      6F6700
 18985              	.LASF1073:
 18986 2166 70737472 		.ascii	"pstrUsageACTileVert\000"
 18986      55736167 
 18986      65414354 
 18986      696C6556 
 18986      65727400 
 18987              	.LASF477:
 18988 217a 70737472 		.ascii	"pstrUsagePageVendorDefined\000"
 18988      55736167 
 18988      65506167 
 18988      6556656E 
 18988      646F7244 
 18989              	.LASF288:
 18990 2195 746F7563 		.ascii	"touchpadXY\000"
 18990      68706164 
 18990      585900
 18991              	.LASF273:
 18992 21a0 6D586D6F 		.ascii	"mXmove\000"
 18992      766500
 18993              	.LASF59:
 18994 21a7 5F5A4E35 		.ascii	"_ZN5Portb5ClearEh\000"
ARM GAS  C:\Users\jrdia\AppData\Local\Temp\ccFTvYyK.s 			page 390


 18994      506F7274 
 18994      6235436C 
 18994      65617245 
 18994      6800
 18995              	.LASF386:
 18996 21b9 5F5A4E39 		.ascii	"_ZN9PS4Parser11setLedFlashEhh\000"
 18996      50533450 
 18996      61727365 
 18996      72313173 
 18996      65744C65 
 18997              	.LASF1310:
 18998 21d7 53535F57 		.ascii	"SS_Write\000"
 18998      72697465 
 18998      00
 18999              	.LASF1168:
 19000 21e0 70737472 		.ascii	"pstrUsageACSplit\000"
 19000      55736167 
 19000      65414353 
 19000      706C6974 
 19000      00
 19001              	.LASF647:
 19002 21f1 70737472 		.ascii	"pstrUsagePointOfView\000"
 19002      55736167 
 19002      65506F69 
 19002      6E744F66 
 19002      56696577 
 19003              	.LASF1095:
 19004 2206 70737472 		.ascii	"pstrUsageACJustifyBlockH\000"
 19004      55736167 
 19004      6541434A 
 19004      75737469 
 19004      6679426C 
 19005              	.LASF1183:
 19006 221f 70737472 		.ascii	"pstrUsageFreeSpaceWand\000"
 19006      55736167 
 19006      65467265 
 19006      65537061 
 19006      63655761 
 19007              	.LASF745:
 19008 2236 70737472 		.ascii	"pstrUsageSlowBlinkOnTime\000"
 19008      55736167 
 19008      65536C6F 
 19008      77426C69 
 19008      6E6B4F6E 
 19009              	.LASF1218:
 19010 224f 70737472 		.ascii	"pstrUsageScreenSaverEnable\000"
 19010      55736167 
 19010      65536372 
 19010      65656E53 
 19010      61766572 
 19011              	.LASF1006:
 19012 226a 70737472 		.ascii	"pstrUsageALVirusProtection\000"
 19012      55736167 
 19012      65414C56 
 19012      69727573 
 19012      50726F74 
 19013              	.LASF440:
ARM GAS  C:\Users\jrdia\AppData\Local\Temp\ccFTvYyK.s 			page 391


 19014 2285 50494E5F 		.ascii	"PIN_SPI_SCK\000"
 19014      5350495F 
 19014      53434B00 
 19015              	.LASF487:
 19016 2291 70737472 		.ascii	"pstrUsageY\000"
 19016      55736167 
 19016      655900
 19017              	.LASF488:
 19018 229c 70737472 		.ascii	"pstrUsageZ\000"
 19018      55736167 
 19018      655A00
 19019              	.LASF438:
 19020 22a7 50494E5F 		.ascii	"PIN_SPI_MOSI\000"
 19020      5350495F 
 19020      4D4F5349 
 19020      00
 19021              	.LASF982:
 19022 22b4 70737472 		.ascii	"pstrUsageALRemoteNetISPConnect\000"
 19022      55736167 
 19022      65414C52 
 19022      656D6F74 
 19022      654E6574 
 19023              	.LASF344:
 19024 22d3 5F5A4E39 		.ascii	"_ZN9PS4ParserC4Ev\000"
 19024      50533450 
 19024      61727365 
 19024      72433445 
 19024      7600
 19025              	.LASF86:
 19026 22e5 57616974 		.ascii	"WaiteForClear\000"
 19026      65466F72 
 19026      436C6561 
 19026      7200
 19027              	.LASF1149:
 19028 22f3 70737472 		.ascii	"pstrUsageACSendReceive\000"
 19028      55736167 
 19028      65414353 
 19028      656E6452 
 19028      65636569 
 19029              	.LASF528:
 19030 230a 70737472 		.ascii	"pstrUsageDPadRight\000"
 19030      55736167 
 19030      65445061 
 19030      64526967 
 19030      687400
 19031              	.LASF571:
 19032 231d 70737472 		.ascii	"pstrUsageDiveBrake\000"
 19032      55736167 
 19032      65446976 
 19032      65427261 
 19032      6B6500
 19033              	.LASF1117:
 19034 2330 70737472 		.ascii	"pstrUsageACPrintPreview\000"
 19034      55736167 
 19034      65414350 
 19034      72696E74 
 19034      50726576 
ARM GAS  C:\Users\jrdia\AppData\Local\Temp\ccFTvYyK.s 			page 392


 19035              	.LASF58:
 19036 2348 436C6561 		.ascii	"Clear\000"
 19036      7200
 19037              	.LASF586:
 19038 234e 70737472 		.ascii	"pstrUsageBrake\000"
 19038      55736167 
 19038      65427261 
 19038      6B6500
 19039              	.LASF84:
 19040 235d 57616974 		.ascii	"WaiteForSet\000"
 19040      65466F72 
 19040      53657400 
 19041              	.LASF1186:
 19042 2369 70737472 		.ascii	"pstrUsageFinger\000"
 19042      55736167 
 19042      6546696E 
 19042      67657200 
 19043              	.LASF1281:
 19044 2379 70737472 		.ascii	"pstrUsageNext\000"
 19044      55736167 
 19044      654E6578 
 19044      7400
 19045              	.LASF1299:
 19046 2387 70737472 		.ascii	"pstrUsageMotionModeAdjust\000"
 19046      55736167 
 19046      654D6F74 
 19046      696F6E4D 
 19046      6F646541 
 19047              	.LASF964:
 19048 23a1 70737472 		.ascii	"pstrUsageALTextEditor\000"
 19048      55736167 
 19048      65414C54 
 19048      65787445 
 19048      6469746F 
 19049              	.LASF1134:
 19050 23b7 70737472 		.ascii	"pstrUsageACSelectObject\000"
 19050      55736167 
 19050      65414353 
 19050      656C6563 
 19050      744F626A 
 19051              	.LASF767:
 19052 23cf 70737472 		.ascii	"pstrUsageTransfer\000"
 19052      55736167 
 19052      65547261 
 19052      6E736665 
 19052      7200
 19053              	.LASF347:
 19054 23e1 67657442 		.ascii	"getButtonClick\000"
 19054      7574746F 
 19054      6E436C69 
 19054      636B00
 19055              	.LASF1244:
 19056 23f0 70737472 		.ascii	"pstrUsageFont7Segment\000"
 19056      55736167 
 19056      65466F6E 
 19056      74375365 
 19056      676D656E 
ARM GAS  C:\Users\jrdia\AppData\Local\Temp\ccFTvYyK.s 			page 393


 19057              	.LASF720:
 19058 2406 70737472 		.ascii	"pstrUsageOnLine\000"
 19058      55736167 
 19058      654F6E4C 
 19058      696E6500 
 19059              	.LASF515:
 19060 2416 70737472 		.ascii	"pstrUsageSystemMainMenu\000"
 19060      55736167 
 19060      65537973 
 19060      74656D4D 
 19060      61696E4D 
 19061              	.LASF599:
 19062 242e 70737472 		.ascii	"pstrUsageBodySuit\000"
 19062      55736167 
 19062      65426F64 
 19062      79537569 
 19062      7400
 19063              	.LASF278:
 19064 2440 526F6C6C 		.ascii	"Roll\000"
 19064      00
 19065              	.LASF1125:
 19066 2445 70737472 		.ascii	"pstrUsageACAttachComment\000"
 19066      55736167 
 19066      65414341 
 19066      74746163 
 19066      68436F6D 
 19067              	.LASF660:
 19068 245e 70737472 		.ascii	"pstrUsageNewGame\000"
 19068      55736167 
 19068      654E6577 
 19068      47616D65 
 19068      00
 19069              	.LASF784:
 19070 246f 70737472 		.ascii	"pstrUsageScreenCalls\000"
 19070      55736167 
 19070      65536372 
 19070      65656E43 
 19070      616C6C73 
 19071              	.LASF980:
 19072 2484 70737472 		.ascii	"pstrUsageALLANWANBrow\000"
 19072      55736167 
 19072      65414C4C 
 19072      414E5741 
 19072      4E42726F 
 19073              	.LASF1052:
 19074 249a 70737472 		.ascii	"pstrUsageACStop\000"
 19074      55736167 
 19074      65414353 
 19074      746F7000 
 19075              	.LASF1042:
 19076 24aa 70737472 		.ascii	"pstrUsageACCut\000"
 19076      55736167 
 19076      65414343 
 19076      757400
 19077              	.LASF802:
 19078 24b9 70737472 		.ascii	"pstrUsagePhoneKey0\000"
 19078      55736167 
ARM GAS  C:\Users\jrdia\AppData\Local\Temp\ccFTvYyK.s 			page 394


 19078      6550686F 
 19078      6E654B65 
 19078      793000
 19079              	.LASF803:
 19080 24cc 70737472 		.ascii	"pstrUsagePhoneKey1\000"
 19080      55736167 
 19080      6550686F 
 19080      6E654B65 
 19080      793100
 19081              	.LASF804:
 19082 24df 70737472 		.ascii	"pstrUsagePhoneKey2\000"
 19082      55736167 
 19082      6550686F 
 19082      6E654B65 
 19082      793200
 19083              	.LASF805:
 19084 24f2 70737472 		.ascii	"pstrUsagePhoneKey3\000"
 19084      55736167 
 19084      6550686F 
 19084      6E654B65 
 19084      793300
 19085              	.LASF806:
 19086 2505 70737472 		.ascii	"pstrUsagePhoneKey4\000"
 19086      55736167 
 19086      6550686F 
 19086      6E654B65 
 19086      793400
 19087              	.LASF807:
 19088 2518 70737472 		.ascii	"pstrUsagePhoneKey5\000"
 19088      55736167 
 19088      6550686F 
 19088      6E654B65 
 19088      793500
 19089              	.LASF808:
 19090 252b 70737472 		.ascii	"pstrUsagePhoneKey6\000"
 19090      55736167 
 19090      6550686F 
 19090      6E654B65 
 19090      793600
 19091              	.LASF809:
 19092 253e 70737472 		.ascii	"pstrUsagePhoneKey7\000"
 19092      55736167 
 19092      6550686F 
 19092      6E654B65 
 19092      793700
 19093              	.LASF810:
 19094 2551 70737472 		.ascii	"pstrUsagePhoneKey8\000"
 19094      55736167 
 19094      6550686F 
 19094      6E654B65 
 19094      793800
 19095              	.LASF714:
 19096 2564 70737472 		.ascii	"pstrUsageSendCalls\000"
 19096      55736167 
 19096      6553656E 
 19096      6443616C 
 19096      6C7300
ARM GAS  C:\Users\jrdia\AppData\Local\Temp\ccFTvYyK.s 			page 395


 19097              	.LASF559:
 19098 2577 70737472 		.ascii	"pstrUsageFlightControlStick\000"
 19098      55736167 
 19098      65466C69 
 19098      67687443 
 19098      6F6E7472 
 19099              	.LASF319:
 19100 2593 5F5A4E35 		.ascii	"_ZN5PS4BT9connectedEv\000"
 19100      50533442 
 19100      5439636F 
 19100      6E6E6563 
 19100      74656445 
 19101              	.LASF527:
 19102 25a9 70737472 		.ascii	"pstrUsageDPadDown\000"
 19102      55736167 
 19102      65445061 
 19102      64446F77 
 19102      6E00
 19103              	.LASF814:
 19104 25bb 70737472 		.ascii	"pstrUsagePhoneKeyA\000"
 19104      55736167 
 19104      6550686F 
 19104      6E654B65 
 19104      794100
 19105              	.LASF441:
 19106 25ce 504F5254 		.ascii	"PORTB\000"
 19106      4200
 19107              	.LASF816:
 19108 25d4 70737472 		.ascii	"pstrUsagePhoneKeyC\000"
 19108      55736167 
 19108      6550686F 
 19108      6E654B65 
 19108      794300
 19109              	.LASF817:
 19110 25e7 70737472 		.ascii	"pstrUsagePhoneKeyD\000"
 19110      55736167 
 19110      6550686F 
 19110      6E654B65 
 19110      794400
 19111              	.LASF1303:
 19112 25fa 70737472 		.ascii	"pstrUsageSoftControlAdjust\000"
 19112      55736167 
 19112      65536F66 
 19112      74436F6E 
 19112      74726F6C 
 19113              	.LASF538:
 19114 2615 70737472 		.ascii	"pstrUsageSystemHibernate\000"
 19114      55736167 
 19114      65537973 
 19114      74656D48 
 19114      69626572 
 19115              	.LASF1249:
 19116 262e 70737472 		.ascii	"pstrUsageDisplayContrast\000"
 19116      55736167 
 19116      65446973 
 19116      706C6179 
 19116      436F6E74 
ARM GAS  C:\Users\jrdia\AppData\Local\Temp\ccFTvYyK.s 			page 396


 19117              	.LASF1047:
 19118 2647 70737472 		.ascii	"pstrUsageACSearch\000"
 19118      55736167 
 19118      65414353 
 19118      65617263 
 19118      6800
 19119              	.LASF104:
 19120 2659 4D415833 		.ascii	"MAX3421e\000"
 19120      34323165 
 19120      00
 19121              	.LASF302:
 19122 2662 6779726F 		.ascii	"gyroX\000"
 19122      5800
 19123              	.LASF300:
 19124 2668 6779726F 		.ascii	"gyroY\000"
 19124      5900
 19125              	.LASF301:
 19126 266e 6779726F 		.ascii	"gyroZ\000"
 19126      5A00
 19127              	.LASF475:
 19128 2674 70737472 		.ascii	"pstrUsagePageArcade\000"
 19128      55736167 
 19128      65506167 
 19128      65417263 
 19128      61646500 
 19129              	.LASF207:
 19130 2688 5F5A4E31 		.ascii	"_ZN15USBDeviceConfig7ReleaseEv\000"
 19130      35555342 
 19130      44657669 
 19130      6365436F 
 19130      6E666967 
 19131              	.LASF751:
 19132 26a7 70737472 		.ascii	"pstrUsageIndicatorGreen\000"
 19132      55736167 
 19132      65496E64 
 19132      69636174 
 19132      6F724772 
 19133              	.LASF230:
 19134 26bf 57686974 		.ascii	"White\000"
 19134      6500
 19135              	.LASF746:
 19136 26c5 70737472 		.ascii	"pstrUsageSlowBlinkOffTime\000"
 19136      55736167 
 19136      65536C6F 
 19136      77426C69 
 19136      6E6B4F66 
 19137              	.LASF516:
 19138 26df 70737472 		.ascii	"pstrUsageSystemAppMenu\000"
 19138      55736167 
 19138      65537973 
 19138      74656D41 
 19138      70704D65 
 19139              	.LASF408:
 19140 26f6 6964656E 		.ascii	"identifier\000"
 19140      74696669 
 19140      657200
 19141              	.LASF15:
ARM GAS  C:\Users\jrdia\AppData\Local\Temp\ccFTvYyK.s 			page 397


 19142 2701 75696E74 		.ascii	"uint8_t\000"
 19142      385F7400 
 19143              	.LASF80:
 19144 2709 53657444 		.ascii	"SetDirWrite\000"
 19144      69725772 
 19144      69746500 
 19145              	.LASF1094:
 19146 2715 70737472 		.ascii	"pstrUsageACJustifyRight\000"
 19146      55736167 
 19146      6541434A 
 19146      75737469 
 19146      66795269 
 19147              	.LASF644:
 19148 272d 70737472 		.ascii	"pstrUsage3DGameController\000"
 19148      55736167 
 19148      65334447 
 19148      616D6543 
 19148      6F6E7472 
 19149              	.LASF145:
 19150 2747 52656769 		.ascii	"RegisterDeviceClass\000"
 19150      73746572 
 19150      44657669 
 19150      6365436C 
 19150      61737300 
 19151              	.LASF267:
 19152 275b 615A6D6F 		.ascii	"aZmove\000"
 19152      766500
 19153              	.LASF41:
 19154 2762 64657641 		.ascii	"devAddress\000"
 19154      64647265 
 19154      737300
 19155              	.LASF738:
 19156 276d 70737472 		.ascii	"pstrUsageMultiModeIndicator\000"
 19156      55736167 
 19156      654D756C 
 19156      74694D6F 
 19156      6465496E 
 19157              	.LASF1212:
 19158 2789 70737472 		.ascii	"pstrUsageASCIICharacterSet\000"
 19158      55736167 
 19158      65415343 
 19158      49494368 
 19158      61726163 
 19159              	.LASF918:
 19160 27a4 70737472 		.ascii	"pstrUsagePlaybackSpeed\000"
 19160      55736167 
 19160      65506C61 
 19160      79626163 
 19160      6B537065 
 19161              	.LASF324:
 19162 27bb 52657365 		.ascii	"ResetBTHID\000"
 19162      74425448 
 19162      494400
 19163              	.LASF280:
 19164 27c6 73717561 		.ascii	"square\000"
 19164      726500
 19165              	.LASF978:
ARM GAS  C:\Users\jrdia\AppData\Local\Temp\ccFTvYyK.s 			page 398


 19166 27cd 70737472 		.ascii	"pstrUsageALAVCapturePlayback\000"
 19166      55736167 
 19166      65414C41 
 19166      56436170 
 19166      74757265 
 19167              	.LASF377:
 19168 27ea 73657452 		.ascii	"setRumbleOn\000"
 19168      756D626C 
 19168      654F6E00 
 19169              	.LASF917:
 19170 27f6 70737472 		.ascii	"pstrUsageSpeedSelect\000"
 19170      55736167 
 19170      65537065 
 19170      65645365 
 19170      6C656374 
 19171              	.LASF1207:
 19172 280b 70737472 		.ascii	"pstrUsageEraser\000"
 19172      55736167 
 19172      65457261 
 19172      73657200 
 19173              	.LASF427:
 19174 281b 6275735F 		.ascii	"bus_sample\000"
 19174      73616D70 
 19174      6C6500
 19175              	.LASF886:
 19176 2826 70737472 		.ascii	"pstrUsageRandomPlay\000"
 19176      55736167 
 19176      6552616E 
 19176      646F6D50 
 19176      6C617900 
 19177              	.LASF322:
 19178 283a 4F6E496E 		.ascii	"OnInitBTHID\000"
 19178      69744254 
 19178      48494400 
 19179              	.LASF208:
 19180 2846 506F6C6C 		.ascii	"Poll\000"
 19180      00
 19181              	.LASF1043:
 19182 284b 70737472 		.ascii	"pstrUsageACPaste\000"
 19182      55736167 
 19182      65414350 
 19182      61737465 
 19182      00
 19183              	.LASF467:
 19184 285c 70737472 		.ascii	"pstrUsagePageMedicalInstruments\000"
 19184      55736167 
 19184      65506167 
 19184      654D6564 
 19184      6963616C 
 19185              	.LASF246:
 19186 287c 53515541 		.ascii	"SQUARE\000"
 19186      524500
 19187              	.LASF695:
 19188 2883 70737472 		.ascii	"pstrUsageStereo\000"
 19188      55736167 
 19188      65537465 
 19188      72656F00 
ARM GAS  C:\Users\jrdia\AppData\Local\Temp\ccFTvYyK.s 			page 399


 19189              	.LASF453:
 19190 2893 70737472 		.ascii	"pstrUsagePageVRControls\000"
 19190      55736167 
 19190      65506167 
 19190      65565243 
 19190      6F6E7472 
 19191              	.LASF1137:
 19192 28ab 70737472 		.ascii	"pstrUsageACSortAscending\000"
 19192      55736167 
 19192      65414353 
 19192      6F727441 
 19192      7363656E 
 19193              	.LASF1311:
 19194 28c4 5350495F 		.ascii	"SPI_WriteTxData\000"
 19194      57726974 
 19194      65547844 
 19194      61746100 
 19195              	.LASF1014:
 19196 28d4 70737472 		.ascii	"pstrUsageALAudioBrowser\000"
 19196      55736167 
 19196      65414C41 
 19196      7564696F 
 19196      42726F77 
 19197              	.LASF372:
 19198 28ec 5F5A4E39 		.ascii	"_ZN9PS4Parser12getMicStatusEv\000"
 19198      50533450 
 19198      61727365 
 19198      72313267 
 19198      65744D69 
 19199              	.LASF214:
 19200 290a 44455643 		.ascii	"DEVCLASSOK\000"
 19200      4C415353 
 19200      4F4B00
 19201              	.LASF574:
 19202 2915 70737472 		.ascii	"pstrUsageElevatorTrim\000"
 19202      55736167 
 19202      65456C65 
 19202      7661746F 
 19202      72547269 
 19203              	.LASF641:
 19204 292b 70737472 		.ascii	"pstrUsage5Wood\000"
 19204      55736167 
 19204      6535576F 
 19204      6F6400
 19205              	.LASF893:
 19206 293a 70737472 		.ascii	"pstrUsageFrameBackwards\000"
 19206      55736167 
 19206      65467261 
 19206      6D654261 
 19206      636B7761 
 19207              	.LASF930:
 19208 2952 70737472 		.ascii	"pstrUsageFireAlarm\000"
 19208      55736167 
 19208      65466972 
 19208      65416C61 
 19208      726D00
 19209              	.LASF1028:
ARM GAS  C:\Users\jrdia\AppData\Local\Temp\ccFTvYyK.s 			page 400


 19210 2965 70737472 		.ascii	"pstrUsageALResearchSearchBrowser\000"
 19210      55736167 
 19210      65414C52 
 19210      65736561 
 19210      72636853 
 19211              	.LASF57:
 19212 2986 5F5A4E35 		.ascii	"_ZN5Portb7DirReadEv\000"
 19212      506F7274 
 19212      62374469 
 19212      72526561 
 19212      64457600 
 19213              	.LASF169:
 19214 299a 5F5A4E33 		.ascii	"_ZN3USB8ctrlDataEhhtPhb\000"
 19214      55534238 
 19214      6374726C 
 19214      44617461 
 19214      45686874 
 19215              	.LASF75:
 19216 29b2 5F5A4E34 		.ascii	"_ZN4TPinI5PortbLh2EE6SetDirEh\000"
 19216      5450696E 
 19216      4935506F 
 19216      7274624C 
 19216      68324545 
 19217              	.LASF972:
 19218 29d0 70737472 		.ascii	"pstrUsageALContactsAddressBook\000"
 19218      55736167 
 19218      65414C43 
 19218      6F6E7461 
 19218      63747341 
 19219              	.LASF94:
 19220 29ef 5F5A4E33 		.ascii	"_ZN3SPiI4TPinI5PortbLh5EES0_IS1_Lh3EES0_IS1_Lh4EES0"
 19220      53506949 
 19220      34545069 
 19220      6E493550 
 19220      6F727462 
 19221 2a22 5F495331 		.ascii	"_IS1_Lh2EEE4initEv\000"
 19221      5F4C6832 
 19221      45454534 
 19221      696E6974 
 19221      457600
 19222              	.LASF1031:
 19223 2a35 70737472 		.ascii	"pstrUsageACNew\000"
 19223      55736167 
 19223      6541434E 
 19223      657700
 19224              	.LASF320:
 19225 2a44 50617273 		.ascii	"ParseBTHIDData\000"
 19225      65425448 
 19225      49444461 
 19225      746100
 19226              	.LASF1141:
 19227 2a53 70737472 		.ascii	"pstrUsageACViewClock\000"
 19227      55736167 
 19227      65414356 
 19227      69657743 
 19227      6C6F636B 
 19228              	.LASF907:
ARM GAS  C:\Users\jrdia\AppData\Local\Temp\ccFTvYyK.s 			page 401


 19229 2a68 70737472 		.ascii	"pstrUsageVolume\000"
 19229      55736167 
 19229      65566F6C 
 19229      756D6500 
 19230              	.LASF541:
 19231 2a78 70737472 		.ascii	"pstrUsageSystemDisplayExternal\000"
 19231      55736167 
 19231      65537973 
 19231      74656D44 
 19231      6973706C 
 19232              	.LASF409:
 19233 2a97 7E426C75 		.ascii	"~BluetoothService\000"
 19233      65746F6F 
 19233      74685365 
 19233      72766963 
 19233      6500
 19234              	.LASF951:
 19235 2aa9 70737472 		.ascii	"pstrUsageChannelLowFreqEnhancement\000"
 19235      55736167 
 19235      65436861 
 19235      6E6E656C 
 19235      4C6F7746 
 19236              	.LASF991:
 19237 2acc 70737472 		.ascii	"pstrUsageALCommandLineProcessorRun\000"
 19237      55736167 
 19237      65414C43 
 19237      6F6D6D61 
 19237      6E644C69 
 19238              	.LASF885:
 19239 2aef 70737472 		.ascii	"pstrUsageEject\000"
 19239      55736167 
 19239      65456A65 
 19239      637400
 19240              	.LASF252:
 19241 2afe 58424F58 		.ascii	"XBOX\000"
 19241      00
 19242              	.LASF329:
 19243 2b03 5F5A4E35 		.ascii	"_ZN5PS4BT14enable_sixaxisEv\000"
 19243      50533442 
 19243      54313465 
 19243      6E61626C 
 19243      655F7369 
 19244              	.LASF1152:
 19245 2b1f 70737472 		.ascii	"pstrUsageACReplyAll\000"
 19245      55736167 
 19245      65414352 
 19245      65706C79 
 19245      416C6C00 
 19246              	.LASF375:
 19247 2b33 73657452 		.ascii	"setRumbleOff\000"
 19247      756D626C 
 19247      654F6666 
 19247      00
 19248              	.LASF786:
 19249 2b40 70737472 		.ascii	"pstrUsageAnswerOnOff\000"
 19249      55736167 
 19249      65416E73 
ARM GAS  C:\Users\jrdia\AppData\Local\Temp\ccFTvYyK.s 			page 402


 19249      7765724F 
 19249      6E4F6666 
 19250              	.LASF576:
 19251 2b55 70737472 		.ascii	"pstrUsageThrottle\000"
 19251      55736167 
 19251      65546872 
 19251      6F74746C 
 19251      6500
 19252              	.LASF391:
 19253 2b67 63686563 		.ascii	"checkDpad\000"
 19253      6B447061 
 19253      6400
 19254              	.LASF72:
 19255 2b71 5F5A4E35 		.ascii	"_ZN5Portb3SetEh\000"
 19255      506F7274 
 19255      62335365 
 19255      74456800 
 19256              	.LASF1012:
 19257 2b81 70737472 		.ascii	"pstrUsageALPowerStatus\000"
 19257      55736167 
 19257      65414C50 
 19257      6F776572 
 19257      53746174 
 19258              	.LASF929:
 19259 2b98 70737472 		.ascii	"pstrUsageSecurityEnable\000"
 19259      55736167 
 19259      65536563 
 19259      75726974 
 19259      79456E61 
 19260              	.LASF135:
 19261 2bb0 494E5452 		.ascii	"INTR\000"
 19261      00
 19262              	.LASF819:
 19263 2bb5 70737472 		.ascii	"pstrUsageNumericKeyPad\000"
 19263      55736167 
 19263      654E756D 
 19263      65726963 
 19263      4B657950 
 19264              	.LASF852:
 19265 2bcc 70737472 		.ascii	"pstrUsageOrderMovie\000"
 19265      55736167 
 19265      654F7264 
 19265      65724D6F 
 19265      76696500 
 19266              	.LASF70:
 19267 2be0 506F7274 		.ascii	"Portb\000"
 19267      6200
 19268              	.LASF64:
 19269 2be6 44697243 		.ascii	"DirClear\000"
 19269      6C656172 
 19269      00
 19270              	.LASF1098:
 19271 2bef 70737472 		.ascii	"pstrUsageACJustifyBottom\000"
 19271      55736167 
 19271      6541434A 
 19271      75737469 
 19271      6679426F 
ARM GAS  C:\Users\jrdia\AppData\Local\Temp\ccFTvYyK.s 			page 403


 19272              	.LASF421:
 19273 2c08 63686563 		.ascii	"checkHciHandle\000"
 19273      6B486369 
 19273      48616E64 
 19273      6C6500
 19274              	.LASF656:
 19275 2c17 70737472 		.ascii	"pstrUsageHeightOfPOV\000"
 19275      55736167 
 19275      65486569 
 19275      6768744F 
 19275      66504F56 
 19276              	.LASF35:
 19277 2c2c 55736244 		.ascii	"UsbDeviceAddress\000"
 19277      65766963 
 19277      65416464 
 19277      72657373 
 19277      00
 19278              	.LASF721:
 19279 2c3d 70737472 		.ascii	"pstrUsageOffLine\000"
 19279      55736167 
 19279      654F6666 
 19279      4C696E65 
 19279      00
 19280              	.LASF198:
 19281 2c4e 7E555342 		.ascii	"~USBDeviceConfig\000"
 19281      44657669 
 19281      6365436F 
 19281      6E666967 
 19281      00
 19282              	.LASF710:
 19283 2c5f 70737472 		.ascii	"pstrUsageHold\000"
 19283      55736167 
 19283      65486F6C 
 19283      6400
 19284              	.LASF342:
 19285 2c6d 5F5A4E39 		.ascii	"_ZN9PS4ParserD4Ev\000"
 19285      50533450 
 19285      61727365 
 19285      72443445 
 19285      7600
 19286              	.LASF219:
 19287 2c7f 5F5A4E31 		.ascii	"_ZN15USBDeviceConfig13DEVSUBCLASSOKEh\000"
 19287      35555342 
 19287      44657669 
 19287      6365436F 
 19287      6E666967 
 19288              	.LASF1020:
 19289 2ca5 70737472 		.ascii	"pstrUsageALOEMHelp\000"
 19289      55736167 
 19289      65414C4F 
 19289      454D4865 
 19289      6C7000
 19290              	.LASF634:
 19291 2cb8 70737472 		.ascii	"pstrUsage10Iron\000"
 19291      55736167 
 19291      65313049 
 19291      726F6E00 
ARM GAS  C:\Users\jrdia\AppData\Local\Temp\ccFTvYyK.s 			page 404


 19292              	.LASF245:
 19293 2cc8 43524F53 		.ascii	"CROSS\000"
 19293      5300
 19294              	.LASF903:
 19295 2cce 70737472 		.ascii	"pstrUsageTrackingDecrement\000"
 19295      55736167 
 19295      65547261 
 19295      636B696E 
 19295      67446563 
 19296              	.LASF1122:
 19297 2ce9 70737472 		.ascii	"pstrUsageACUnlock\000"
 19297      55736167 
 19297      65414355 
 19297      6E6C6F63 
 19297      6B00
 19298              	.LASF580:
 19299 2cfb 70737472 		.ascii	"pstrUsageToeBrake\000"
 19299      55736167 
 19299      65546F65 
 19299      4272616B 
 19299      6500
 19300              	.LASF936:
 19301 2d0d 70737472 		.ascii	"pstrUsageMedicalAlarm\000"
 19301      55736167 
 19301      654D6564 
 19301      6963616C 
 19301      416C6172 
 19302              	.LASF196:
 19303 2d23 4D41585F 		.ascii	"MAX_DEVICES_ALLOWED\000"
 19303      44455649 
 19303      4345535F 
 19303      414C4C4F 
 19303      57454400 
 19304              	.LASF241:
 19305 2d37 53454C45 		.ascii	"SELECT\000"
 19305      435400
 19306              	.LASF1231:
 19307 2d3e 70737472 		.ascii	"pstrUsageRows\000"
 19307      55736167 
 19307      65526F77 
 19307      7300
 19308              	.LASF822:
 19309 2d4c 70737472 		.ascii	"pstrUsagePlus10\000"
 19309      55736167 
 19309      65506C75 
 19309      73313000 
 19310              	.LASF243:
 19311 2d5c 54524941 		.ascii	"TRIANGLE\000"
 19311      4E474C45 
 19311      00
 19312              	.LASF1206:
 19313 2d65 70737472 		.ascii	"pstrUsageBarrelSwitch\000"
 19313      55736167 
 19313      65426172 
 19313      72656C53 
 19313      77697463 
 19314              	.LASF556:
ARM GAS  C:\Users\jrdia\AppData\Local\Temp\ccFTvYyK.s 			page 405


 19315 2d7b 70737472 		.ascii	"pstrUsageHelicopterSimulationDevice\000"
 19315      55736167 
 19315      6548656C 
 19315      69636F70 
 19315      74657253 
 19316              	.LASF476:
 19317 2d9f 70737472 		.ascii	"pstrUsagePageReserved\000"
 19317      55736167 
 19317      65506167 
 19317      65526573 
 19317      65727665 
 19318              	.LASF425:
 19319 2db5 6E627974 		.ascii	"nbytes\000"
 19319      657300
 19320              	.LASF1243:
 19321 2dbc 70737472 		.ascii	"pstrUsageUnicodeCharset\000"
 19321      55736167 
 19321      65556E69 
 19321      636F6465 
 19321      43686172 
 19322              	.LASF1174:
 19323 2dd4 70737472 		.ascii	"pstrUsageTouchScreen\000"
 19323      55736167 
 19323      65546F75 
 19323      63685363 
 19323      7265656E 
 19324              	.LASF927:
 19325 2de9 70737472 		.ascii	"pstrUsageClimateControlEnable\000"
 19325      55736167 
 19325      65436C69 
 19325      6D617465 
 19325      436F6E74 
 19326              	.LASF277:
 19327 2e07 50697463 		.ascii	"Pitch\000"
 19327      6800
 19328              	.LASF101:
 19329 2e0d 76627573 		.ascii	"vbus_off\000"
 19329      5F6F6666 
 19329      00
 19330              	.LASF428:
 19331 2e16 76616C75 		.ascii	"value\000"
 19331      6500
 19332              	.LASF669:
 19333 2e1c 70737472 		.ascii	"pstrUsageGunSafety\000"
 19333      55736167 
 19333      6547756E 
 19333      53616665 
 19333      747900
 19334              	.LASF575:
 19335 2e2f 70737472 		.ascii	"pstrUsageRudder\000"
 19335      55736167 
 19335      65527564 
 19335      64657200 
 19336              	.LASF623:
 19337 2e3f 70737472 		.ascii	"pstrUsageStickHeight\000"
 19337      55736167 
 19337      65537469 
ARM GAS  C:\Users\jrdia\AppData\Local\Temp\ccFTvYyK.s 			page 406


 19337      636B4865 
 19337      69676874 
 19338              	.LASF986:
 19339 2e54 70737472 		.ascii	"pstrUsageALLogon\000"
 19339      55736167 
 19339      65414C4C 
 19339      6F676F6E 
 19339      00
 19340              	.LASF959:
 19341 2e65 70737472 		.ascii	"pstrUsageApplicationLaunchButtons\000"
 19341      55736167 
 19341      65417070 
 19341      6C696361 
 19341      74696F6E 
 19342              	.LASF985:
 19343 2e87 70737472 		.ascii	"pstrUsageALTelephonyDialer\000"
 19343      55736167 
 19343      65414C54 
 19343      656C6570 
 19343      686F6E79 
 19344              	.LASF213:
 19345 2ea2 5F5A4E31 		.ascii	"_ZN15USBDeviceConfig8VIDPIDOKEtt\000"
 19345      35555342 
 19345      44657669 
 19345      6365436F 
 19345      6E666967 
 19346              	.LASF49:
 19347 2ec3 436C6561 		.ascii	"ClearAndSet\000"
 19347      72416E64 
 19347      53657400 
 19348              	.LASF457:
 19349 2ecf 70737472 		.ascii	"pstrUsagePageKeyboardKeypad\000"
 19349      55736167 
 19349      65506167 
 19349      654B6579 
 19349      626F6172 
 19350              	.LASF44:
 19351 2eeb 61646472 		.ascii	"address\000"
 19351      65737300 
 19352              	.LASF845:
 19353 2ef3 70737472 		.ascii	"pstrUsageSnapshot\000"
 19353      55736167 
 19353      65536E61 
 19353      7073686F 
 19353      7400
 19354              	.LASF34:
 19355 2f05 4570496E 		.ascii	"EpInfo\000"
 19355      666F00
 19356              	.LASF977:
 19357 2f0c 70737472 		.ascii	"pstrUsageALCalculator\000"
 19357      55736167 
 19357      65414C43 
 19357      616C6375 
 19357      6C61746F 
 19358              	.LASF1208:
 19359 2f22 70737472 		.ascii	"pstrUsageTabletPick\000"
 19359      55736167 
ARM GAS  C:\Users\jrdia\AppData\Local\Temp\ccFTvYyK.s 			page 407


 19359      65546162 
 19359      6C657450 
 19359      69636B00 
 19360              	.LASF841:
 19361 2f36 70737472 		.ascii	"pstrUsageClosedCaption\000"
 19361      55736167 
 19361      65436C6F 
 19361      73656443 
 19361      61707469 
 19362              	.LASF492:
 19363 2f4d 70737472 		.ascii	"pstrUsageSlider\000"
 19363      55736167 
 19363      65536C69 
 19363      64657200 
 19364              	.LASF952:
 19365 2f5d 70737472 		.ascii	"pstrUsageChannelTop\000"
 19365      55736167 
 19365      65436861 
 19365      6E6E656C 
 19365      546F7000 
 19366              	.LASF825:
 19367 2f71 70737472 		.ascii	"pstrUsageReset\000"
 19367      55736167 
 19367      65526573 
 19367      657400
 19368              	.LASF997:
 19369 2f80 70737472 		.ascii	"pstrUsageALIntegratedHelpCenter\000"
 19369      55736167 
 19369      65414C49 
 19369      6E746567 
 19369      72617465 
 19370              	.LASF423:
 19371 2fa0 74686973 		.ascii	"this\000"
 19371      00
 19372              	.LASF336:
 19373 2fa5 70733444 		.ascii	"ps4Data\000"
 19373      61746100 
 19374              	.LASF551:
 19375 2fad 70737472 		.ascii	"pstrUsageSubmarineSimulationDevice\000"
 19375      55736167 
 19375      65537562 
 19375      6D617269 
 19375      6E655369 
 19376              	.LASF868:
 19377 2fd0 70737472 		.ascii	"pstrUsageHelp\000"
 19377      55736167 
 19377      6548656C 
 19377      7000
 19378              	.LASF724:
 19379 2fde 70737472 		.ascii	"pstrUsagePaperOut\000"
 19379      55736167 
 19379      65506170 
 19379      65724F75 
 19379      7400
 19380              	.LASF737:
 19381 2ff0 70737472 		.ascii	"pstrUsageInUseIndicator\000"
 19381      55736167 
ARM GAS  C:\Users\jrdia\AppData\Local\Temp\ccFTvYyK.s 			page 408


 19381      65496E55 
 19381      7365496E 
 19381      64696361 
 19382              	.LASF129:
 19383 3008 47707848 		.ascii	"GpxHandler\000"
 19383      616E646C 
 19383      657200
 19384              	.LASF420:
 19385 3013 5F5A4E31 		.ascii	"_ZN16BluetoothService6onInitEv\000"
 19385      36426C75 
 19385      65746F6F 
 19385      74685365 
 19385      72766963 
 19386              	.LASF287:
 19387 3032 7265706F 		.ascii	"reportCounter\000"
 19387      7274436F 
 19387      756E7465 
 19387      7200
 19388              	.LASF1294:
 19389 3040 70737472 		.ascii	"pstrUsageSpectralDopplerModeSelect\000"
 19389      55736167 
 19389      65537065 
 19389      63747261 
 19389      6C446F70 
 19390              	.LASF1019:
 19391 3063 70737472 		.ascii	"pstrUsageALOEMFeaturesBrowser\000"
 19391      55736167 
 19391      65414C4F 
 19391      454D4665 
 19391      61747572 
 19392              	.LASF221:
 19393 3081 55534252 		.ascii	"USBReadParser\000"
 19393      65616450 
 19393      61727365 
 19393      7200
 19394              	.LASF1278:
 19395 308f 70737472 		.ascii	"pstrUsageFreezeThaw\000"
 19395      55736167 
 19395      65467265 
 19395      657A6554 
 19395      68617700 
 19396              	.LASF1064:
 19397 30a3 70737472 		.ascii	"pstrUsageACViewToggle\000"
 19397      55736167 
 19397      65414356 
 19397      69657754 
 19397      6F67676C 
 19398              	.LASF935:
 19399 30b9 70737472 		.ascii	"pstrUsageHoldupAlarm\000"
 19399      55736167 
 19399      65486F6C 
 19399      64757041 
 19399      6C61726D 
 19400              	.LASF1086:
 19401 30ce 70737472 		.ascii	"pstrUsageACFlipVertical\000"
 19401      55736167 
 19401      65414346 
ARM GAS  C:\Users\jrdia\AppData\Local\Temp\ccFTvYyK.s 			page 409


 19401      6C697056 
 19401      65727469 
 19402              	.LASF1158:
 19403 30e6 70737472 		.ascii	"pstrUsageACSetBorders\000"
 19403      55736167 
 19403      65414353 
 19403      6574426F 
 19403      72646572 
 19404              	.LASF66:
 19405 30fc 44697254 		.ascii	"DirToggle\000"
 19405      6F67676C 
 19405      6500
 19406              	.LASF247:
 19407 3106 4D4F5645 		.ascii	"MOVE\000"
 19407      00
 19408              	.LASF787:
 19409 310b 70737472 		.ascii	"pstrUsageInsideDialTone\000"
 19409      55736167 
 19409      65496E73 
 19409      69646544 
 19409      69616C54 
 19410              	.LASF545:
 19411 3123 70737472 		.ascii	"pstrUsageSystemDisplaySwapPriSec\000"
 19411      55736167 
 19411      65537973 
 19411      74656D44 
 19411      6973706C 
 19412              	.LASF539:
 19413 3144 70737472 		.ascii	"pstrUsageSystemDisplayInvert\000"
 19413      55736167 
 19413      65537973 
 19413      74656D44 
 19413      6973706C 
 19414              	.LASF889:
 19415 3161 70737472 		.ascii	"pstrUsageTracking\000"
 19415      55736167 
 19415      65547261 
 19415      636B696E 
 19415      6700
 19416              	.LASF1115:
 19417 3173 70737472 		.ascii	"pstrUsageACCollapse\000"
 19417      55736167 
 19417      65414343 
 19417      6F6C6C61 
 19417      70736500 
 19418              	.LASF499:
 19419 3187 70737472 		.ascii	"pstrUsageStart\000"
 19419      55736167 
 19419      65537461 
 19419      727400
 19420              	.LASF330:
 19421 3196 41646472 		.ascii	"AddressPoolImpl<16u>\000"
 19421      65737350 
 19421      6F6F6C49 
 19421      6D706C3C 
 19421      3136753E 
 19422              	.LASF593:
ARM GAS  C:\Users\jrdia\AppData\Local\Temp\ccFTvYyK.s 			page 410


 19423 31ab 70737472 		.ascii	"pstrUsageBallast\000"
 19423      55736167 
 19423      6542616C 
 19423      6C617374 
 19423      00
 19424              	.LASF154:
 19425 31bc 5F5A4E33 		.ascii	"_ZN3USB14getEpInfoEntryEhh\000"
 19425      55534231 
 19425      34676574 
 19425      4570496E 
 19425      666F456E 
 19426              	.LASF1114:
 19427 31d7 70737472 		.ascii	"pstrUsageACExpandAll\000"
 19427      55736167 
 19427      65414345 
 19427      7870616E 
 19427      64416C6C 
 19428              	.LASF821:
 19429 31ec 70737472 		.ascii	"pstrUsageGraphicEqualizer\000"
 19429      55736167 
 19429      65477261 
 19429      70686963 
 19429      45717561 
 19430              	.LASF290:
 19431 3206 746F7563 		.ascii	"touching\000"
 19431      68696E67 
 19431      00
 19432              	.LASF406:
 19433 320f 6863695F 		.ascii	"hci_handle\000"
 19433      68616E64 
 19433      6C6500
 19434              	.LASF257:
 19435 321a 47524545 		.ascii	"GREEN\000"
 19435      4E00
 19436              	.LASF327:
 19437 3220 5F5A4E35 		.ascii	"_ZN5PS4BT16sendOutputReportEP9PS4Output\000"
 19437      50533442 
 19437      54313673 
 19437      656E644F 
 19437      75747075 
 19438              	.LASF461:
 19439 3248 70737472 		.ascii	"pstrUsagePageTelephone\000"
 19439      55736167 
 19439      65506167 
 19439      6554656C 
 19439      6570686F 
 19440              	.LASF225:
 19441 325f 426C7565 		.ascii	"Blue\000"
 19441      00
 19442              	.LASF668:
 19443 3264 70737472 		.ascii	"pstrUsageGunAutomatic\000"
 19443      55736167 
 19443      6547756E 
 19443      4175746F 
 19443      6D617469 
 19444              	.LASF690:
 19445 327a 70737472 		.ascii	"pstrUsageLowCutFilter\000"
ARM GAS  C:\Users\jrdia\AppData\Local\Temp\ccFTvYyK.s 			page 411


 19445      55736167 
 19445      654C6F77 
 19445      43757446 
 19445      696C7465 
 19446              	.LASF876:
 19447 3290 70737472 		.ascii	"pstrUsageChannelDecrement\000"
 19447      55736167 
 19447      65436861 
 19447      6E6E656C 
 19447      44656372 
 19448              	.LASF758:
 19449 32aa 70737472 		.ascii	"pstrUsageMessageControls\000"
 19449      55736167 
 19449      654D6573 
 19449      73616765 
 19449      436F6E74 
 19450              	.LASF976:
 19451 32c3 70737472 		.ascii	"pstrUsageALCheckbookFinance\000"
 19451      55736167 
 19451      65414C43 
 19451      6865636B 
 19451      626F6F6B 
 19452              	.LASF597:
 19453 32df 70737472 		.ascii	"pstrUsageRearBrake\000"
 19453      55736167 
 19453      65526561 
 19453      72427261 
 19453      6B6500
 19454              	.LASF777:
 19455 32f2 70737472 		.ascii	"pstrUsageCallerID\000"
 19455      55736167 
 19455      6543616C 
 19455      6C657249 
 19455      4400
 19456              	.LASF1276:
 19457 3304 70737472 		.ascii	"pstrUsageMedicalUltrasound\000"
 19457      55736167 
 19457      654D6564 
 19457      6963616C 
 19457      556C7472 
 19458              	.LASF178:
 19459 331f 5F5A4E33 		.ascii	"_ZN3USB4TaskEv\000"
 19459      55534234 
 19459      5461736B 
 19459      457600
 19460              	.LASF1198:
 19461 332e 70737472 		.ascii	"pstrUsageInvert\000"
 19461      55736167 
 19461      65496E76 
 19461      65727400 
 19462              	.LASF672:
 19463 333e 70737472 		.ascii	"pstrUsageBatteryStrength\000"
 19463      55736167 
 19463      65426174 
 19463      74657279 
 19463      53747265 
 19464              	.LASF1253:
ARM GAS  C:\Users\jrdia\AppData\Local\Temp\ccFTvYyK.s 			page 412


 19465 3357 70737472 		.ascii	"pstrUsageCharAttributeEnhance\000"
 19465      55736167 
 19465      65436861 
 19465      72417474 
 19465      72696275 
 19466              	.LASF1322:
 19467 3375 474E5520 		.ascii	"GNU C++ 5.4.1 20160609 (release) [ARM/embedded-5-br"
 19467      432B2B20 
 19467      352E342E 
 19467      31203230 
 19467      31363036 
 19468 33a8 616E6368 		.ascii	"anch revision 237715] -mcpu=cortex-m0 -mthumb -g -O"
 19468      20726576 
 19468      6973696F 
 19468      6E203233 
 19468      37373135 
 19469 33db 32202D66 		.ascii	"2 -ffunction-sections -ffat-lto-objects\000"
 19469      66756E63 
 19469      74696F6E 
 19469      2D736563 
 19469      74696F6E 
 19470              	.LASF251:
 19471 3403 4241434B 		.ascii	"BACK\000"
 19471      00
 19472              	.LASF872:
 19473 3408 70737472 		.ascii	"pstrUsageMediaSelectSecurity\000"
 19473      55736167 
 19473      654D6564 
 19473      69615365 
 19473      6C656374 
 19474              	.LASF382:
 19475 3425 7365744C 		.ascii	"setLed\000"
 19475      656400
 19476              	.LASF942:
 19477 342c 70737472 		.ascii	"pstrUsageTrebleDecrement\000"
 19477      55736167 
 19477      65547265 
 19477      626C6544 
 19477      65637265 
 19478              	.LASF1027:
 19479 3445 70737472 		.ascii	"pstrUsageALOnlineActivityBrowser\000"
 19479      55736167 
 19479      65414C4F 
 19479      6E6C696E 
 19479      65416374 
 19480              	.LASF32:
 19481 3466 65704164 		.ascii	"epAddr\000"
 19481      647200
 19482              	.LASF999:
 19483 346d 70737472 		.ascii	"pstrUsageALThesaurus\000"
 19483      55736167 
 19483      65414C54 
 19483      68657361 
 19483      75727573 
 19484              	.LASF430:
 19485 3482 78794964 		.ascii	"xyId\000"
 19485      00
ARM GAS  C:\Users\jrdia\AppData\Local\Temp\ccFTvYyK.s 			page 413


 19486              	.LASF452:
 19487 3487 70737472 		.ascii	"pstrUsagePageSimulationControls\000"
 19487      55736167 
 19487      65506167 
 19487      6553696D 
 19487      756C6174 
 19488              	.LASF1338:
 19489 34a7 6D656D73 		.ascii	"memset\000"
 19489      657400
 19490              	.LASF139:
 19491 34ae 53657448 		.ascii	"SetHubPreMask\000"
 19491      75625072 
 19491      654D6173 
 19491      6B00
 19492              	.LASF261:
 19493 34bc 4C656674 		.ascii	"LeftHatX\000"
 19493      48617458 
 19493      00
 19494              	.LASF262:
 19495 34c5 4C656674 		.ascii	"LeftHatY\000"
 19495      48617459 
 19495      00
 19496              	.LASF619:
 19497 34ce 70737472 		.ascii	"pstrUsageStickHeelToe\000"
 19497      55736167 
 19497      65537469 
 19497      636B4865 
 19497      656C546F 
 19498              	.LASF472:
 19499 34e4 70737472 		.ascii	"pstrUsagePageMSRDevices\000"
 19499      55736167 
 19499      65506167 
 19499      654D5352 
 19499      44657669 
 19500              	.LASF281:
 19501 34fc 63726F73 		.ascii	"cross\000"
 19501      7300
 19502              	.LASF726:
 19503 3502 70737472 		.ascii	"pstrUsageRemote\000"
 19503      55736167 
 19503      6552656D 
 19503      6F746500 
 19504              	.LASF150:
 19505 3512 5F5A4E33 		.ascii	"_ZN3USB15getUsbTaskStateEv\000"
 19505      55534231 
 19505      35676574 
 19505      55736254 
 19505      61736B53 
 19506              	.LASF1131:
 19507 352d 70737472 		.ascii	"pstrUsageACSelectColumn\000"
 19507      55736167 
 19507      65414353 
 19507      656C6563 
 19507      74436F6C 
 19508              	.LASF533:
 19509 3545 70737472 		.ascii	"pstrUsageSystemBreak\000"
 19509      55736167 
ARM GAS  C:\Users\jrdia\AppData\Local\Temp\ccFTvYyK.s 			page 414


 19509      65537973 
 19509      74656D42 
 19509      7265616B 
 19510              	.LASF1005:
 19511 355a 70737472 		.ascii	"pstrUsageALKeyboardLayout\000"
 19511      55736167 
 19511      65414C4B 
 19511      6579626F 
 19511      6172644C 
 19512              	.LASF14:
 19513 3574 696E7438 		.ascii	"int8_t\000"
 19513      5F7400
 19514              	.LASF47:
 19515 357b 55736244 		.ascii	"UsbDeviceHandleFunc\000"
 19515      65766963 
 19515      6548616E 
 19515      646C6546 
 19515      756E6300 
 19516              	.LASF645:
 19517 358f 70737472 		.ascii	"pstrUsagePinballDevice\000"
 19517      55736167 
 19517      6550696E 
 19517      62616C6C 
 19517      44657669 
 19518              	.LASF947:
 19519 35a6 70737472 		.ascii	"pstrUsageChannelFront\000"
 19519      55736167 
 19519      65436861 
 19519      6E6E656C 
 19519      46726F6E 
 19520              	.LASF1016:
 19521 35bc 70737472 		.ascii	"pstrUsageALDigitalRightsManager\000"
 19521      55736167 
 19521      65414C44 
 19521      69676974 
 19521      616C5269 
 19522              	.LASF1129:
 19523 35dc 70737472 		.ascii	"pstrUsageACSelectSentence\000"
 19523      55736167 
 19523      65414353 
 19523      656C6563 
 19523      7453656E 
 19524              	.LASF591:
 19525 35f6 70737472 		.ascii	"pstrUsageBarrelElevation\000"
 19525      55736167 
 19525      65426172 
 19525      72656C45 
 19525      6C657661 
 19526              	.LASF325:
 19527 360f 5F5A4E35 		.ascii	"_ZN5PS4BT10ResetBTHIDEv\000"
 19527      50533442 
 19527      54313052 
 19527      65736574 
 19527      42544849 
 19528              	.LASF883:
 19529 3627 70737472 		.ascii	"pstrUsageScanNextTrack\000"
 19529      55736167 
ARM GAS  C:\Users\jrdia\AppData\Local\Temp\ccFTvYyK.s 			page 415


 19529      65536361 
 19529      6E4E6578 
 19529      74547261 
 19530              	.LASF42:
 19531 363e 55736244 		.ascii	"UsbDevice\000"
 19531      65766963 
 19531      6500
 19532              	.LASF532:
 19533 3648 70737472 		.ascii	"pstrUsageSystemSetup\000"
 19533      55736167 
 19533      65537973 
 19533      74656D53 
 19533      65747570 
 19534              	.LASF1049:
 19535 365d 70737472 		.ascii	"pstrUsageACHome\000"
 19535      55736167 
 19535      65414348 
 19535      6F6D6500 
 19536              	.LASF343:
 19537 366d 5F5A4E39 		.ascii	"_ZN9PS4ParserC4ERKS_\000"
 19537      50533450 
 19537      61727365 
 19537      72433445 
 19537      524B535F 
 19538              	.LASF1210:
 19539 3682 70737472 		.ascii	"pstrUsageBitmappedDisplay\000"
 19539      55736167 
 19539      65426974 
 19539      6D617070 
 19539      65644469 
 19540              	.LASF399:
 19541 369c 64697363 		.ascii	"disconnect\000"
 19541      6F6E6E65 
 19541      637400
 19542              	.LASF450:
 19543 36a7 70737472 		.ascii	"pstrUsagePageUndefined\000"
 19543      55736167 
 19543      65506167 
 19543      65556E64 
 19543      6566696E 
 19544              	.LASF1306:
 19545 36be 7072696E 		.ascii	"printTouch\000"
 19545      74546F75 
 19545      636800
 19546              	.LASF422:
 19547 36c9 5F5A4E31 		.ascii	"_ZN16BluetoothService14checkHciHandleEPht\000"
 19547      36426C75 
 19547      65746F6F 
 19547      74685365 
 19547      72766963 
 19548              	.LASF378:
 19549 36f3 5F5A4E39 		.ascii	"_ZN9PS4Parser11setRumbleOnE10RumbleEnum\000"
 19549      50533450 
 19549      61727365 
 19549      72313173 
 19549      65745275 
 19550              	.LASF1113:
ARM GAS  C:\Users\jrdia\AppData\Local\Temp\ccFTvYyK.s 			page 416


 19551 371b 70737472 		.ascii	"pstrUsageACExpand\000"
 19551      55736167 
 19551      65414345 
 19551      7870616E 
 19551      6400
 19552              	.LASF114:
 19553 372d 6770696F 		.ascii	"gpioRd\000"
 19553      526400
 19554              	.LASF474:
 19555 3734 70737472 		.ascii	"pstrUsagePageCameraControl\000"
 19555      55736167 
 19555      65506167 
 19555      6543616D 
 19555      65726143 
 19556              	.LASF857:
 19557 374f 70737472 		.ascii	"pstrUsageMediaSelectWWW\000"
 19557      55736167 
 19557      654D6564 
 19557      69615365 
 19557      6C656374 
 19558              	.LASF260:
 19559 3767 416E616C 		.ascii	"AnalogHatEnum\000"
 19559      6F674861 
 19559      74456E75 
 19559      6D00
 19560              	.LASF170:
 19561 3775 6374726C 		.ascii	"ctrlStatus\000"
 19561      53746174 
 19561      757300
 19562              	.LASF1053:
 19563 3780 70737472 		.ascii	"pstrUsageACRefresh\000"
 19563      55736167 
 19563      65414352 
 19563      65667265 
 19563      736800
 19564              	.LASF1107:
 19565 3793 70737472 		.ascii	"pstrUsageACYes\000"
 19565      55736167 
 19565      65414359 
 19565      657300
 19566              	.LASF125:
 19567 37a2 5F5A4E38 		.ascii	"_ZN8MAX3421eI4TPinI5PortbLh2EES0_IS1_Lh1EEE12getVbu"
 19567      4D415833 
 19567      34323165 
 19567      49345450 
 19567      696E4935 
 19568 37d5 73537461 		.ascii	"sStateEv\000"
 19568      74654576 
 19568      00
 19569              	.LASF481:
 19570 37de 70737472 		.ascii	"pstrUsageGamePad\000"
 19570      55736167 
 19570      6547616D 
 19570      65506164 
 19570      00
 19571              	.LASF116:
 19572 37ef 72657365 		.ascii	"reset\000"
ARM GAS  C:\Users\jrdia\AppData\Local\Temp\ccFTvYyK.s 			page 417


 19572      7400
 19573              	.LASF189:
 19574 37f5 4F757454 		.ascii	"OutTransfer\000"
 19574      72616E73 
 19574      66657200 
 19575              	.LASF871:
 19576 3801 70737472 		.ascii	"pstrUsageMediaSelectSatellite\000"
 19576      55736167 
 19576      654D6564 
 19576      69615365 
 19576      6C656374 
 19577              	.LASF394:
 19578 381f 4254445F 		.ascii	"BTD_EVENT_PIPE\000"
 19578      4556454E 
 19578      545F5049 
 19578      504500
 19579              	.LASF1279:
 19580 382e 70737472 		.ascii	"pstrUsageClipStore\000"
 19580      55736167 
 19580      65436C69 
 19580      7053746F 
 19580      726500
 19581              	.LASF1282:
 19582 3841 70737472 		.ascii	"pstrUsageSave\000"
 19582      55736167 
 19582      65536176 
 19582      6500
 19583              	.LASF925:
 19584 384f 70737472 		.ascii	"pstrUsageLightEnable\000"
 19584      55736167 
 19584      654C6967 
 19584      6874456E 
 19584      61626C65 
 19585              	.LASF534:
 19586 3864 70737472 		.ascii	"pstrUsageSystemDebuggerBreak\000"
 19586      55736167 
 19586      65537973 
 19586      74656D44 
 19586      65627567 
 19587              	.LASF23:
 19588 3881 73697A65 		.ascii	"sizetype\000"
 19588      74797065 
 19588      00
 19589              	.LASF688:
 19590 388a 70737472 		.ascii	"pstrUsageToneEnable\000"
 19590      55736167 
 19590      65546F6E 
 19590      65456E61 
 19590      626C6500 
 19591              	.LASF818:
 19592 389e 70737472 		.ascii	"pstrUsageConsumerControl\000"
 19592      55736167 
 19592      65436F6E 
 19592      73756D65 
 19592      72436F6E 
 19593              	.LASF224:
 19594 38b7 47726565 		.ascii	"Green\000"
ARM GAS  C:\Users\jrdia\AppData\Local\Temp\ccFTvYyK.s 			page 418


 19594      6E00
 19595              	.LASF699:
 19596 38bd 70737472 		.ascii	"pstrUsageCLV\000"
 19596      55736167 
 19596      65434C56 
 19596      00
 19597              	.LASF309:
 19598 38ca 5053344F 		.ascii	"PS4Output\000"
 19598      75747075 
 19598      7400
 19599              	.LASF1023:
 19600 38d4 70737472 		.ascii	"pstrUsageALOnlineShoppingBrowser\000"
 19600      55736167 
 19600      65414C4F 
 19600      6E6C696E 
 19600      6553686F 
 19601              	.LASF1008:
 19602 38f5 70737472 		.ascii	"pstrUsageALScreenSaver\000"
 19602      55736167 
 19602      65414C53 
 19602      63726565 
 19602      6E536176 
 19603              	.LASF202:
 19604 390c 5F5A4E31 		.ascii	"_ZN15USBDeviceConfigC4Ev\000"
 19604      35555342 
 19604      44657669 
 19604      6365436F 
 19604      6E666967 
 19605              	.LASF687:
 19606 3925 70737472 		.ascii	"pstrUsageMute\000"
 19606      55736167 
 19606      654D7574 
 19606      6500
 19607              	.LASF16:
 19608 3933 696E7431 		.ascii	"int16_t\000"
 19608      365F7400 
 19609              	.LASF683:
 19610 393b 70737472 		.ascii	"pstrUsageKana\000"
 19610      55736167 
 19610      654B616E 
 19610      6100
 19611              	.LASF397:
 19612 3949 5F5A4E35 		.ascii	"_ZN5BTHID10disconnectEv\000"
 19612      42544849 
 19612      44313064 
 19612      6973636F 
 19612      6E6E6563 
 19613              	.LASF7:
 19614 3961 73686F72 		.ascii	"short unsigned int\000"
 19614      7420756E 
 19614      7369676E 
 19614      65642069 
 19614      6E7400
 19615              	.LASF100:
 19616 3974 76627573 		.ascii	"vbus_on\000"
 19616      5F6F6E00 
 19617              	.LASF2:
ARM GAS  C:\Users\jrdia\AppData\Local\Temp\ccFTvYyK.s 			page 419


 19618 397c 7369676E 		.ascii	"signed char\000"
 19618      65642063 
 19618      68617200 
 19619              	.LASF971:
 19620 3988 70737472 		.ascii	"pstrUsageALVoicemail\000"
 19620      55736167 
 19620      65414C56 
 19620      6F696365 
 19620      6D61696C 
 19621              	.LASF1116:
 19622 399d 70737472 		.ascii	"pstrUsageACCollapseAll\000"
 19622      55736167 
 19622      65414343 
 19622      6F6C6C61 
 19622      70736541 
 19623              	.LASF1040:
 19624 39b4 70737472 		.ascii	"pstrUsageACUndo\000"
 19624      55736167 
 19624      65414355 
 19624      6E646F00 
 19625              	.LASF661:
 19626 39c4 70737472 		.ascii	"pstrUsageShootBall\000"
 19626      55736167 
 19626      6553686F 
 19626      6F744261 
 19626      6C6C00
 19627              	.LASF1337:
 19628 39d7 5F5A4E38 		.ascii	"_ZN8MAX3421eI4TPinI5PortbLh2EES0_IS1_Lh1EEE9vbusSta"
 19628      4D415833 
 19628      34323165 
 19628      49345450 
 19628      696E4935 
 19629 3a0a 74654500 		.ascii	"teE\000"
 19630              	.LASF983:
 19631 3a0e 70737472 		.ascii	"pstrUsageALNetworkConference\000"
 19631      55736167 
 19631      65414C4E 
 19631      6574776F 
 19631      726B436F 
 19632              	.LASF879:
 19633 3a2b 70737472 		.ascii	"pstrUsageOnce\000"
 19633      55736167 
 19633      654F6E63 
 19633      6500
 19634              	.LASF764:
 19635 3a39 70737472 		.ascii	"pstrUsageFlash\000"
 19635      55736167 
 19635      65466C61 
 19635      736800
 19636              	.LASF60:
 19637 3a48 546F6767 		.ascii	"Toggle\000"
 19637      6C6500
 19638              	.LASF933:
 19639 3a4f 70737472 		.ascii	"pstrUsageMotion\000"
 19639      55736167 
 19639      654D6F74 
 19639      696F6E00 
ARM GAS  C:\Users\jrdia\AppData\Local\Temp\ccFTvYyK.s 			page 420


 19640              	.LASF1084:
 19641 3a5f 70737472 		.ascii	"pstrUsageACResize\000"
 19641      55736167 
 19641      65414352 
 19641      6573697A 
 19641      6500
 19642              	.LASF631:
 19643 3a71 70737472 		.ascii	"pstrUsage7Iron\000"
 19643      55736167 
 19643      65374972 
 19643      6F6E00
 19644              	.LASF1297:
 19645 3a80 70737472 		.ascii	"pstrUsageColorDopplerModeAdjust\000"
 19645      55736167 
 19645      65436F6C 
 19645      6F72446F 
 19645      70706C65 
 19646              	.LASF209:
 19647 3aa0 5F5A4E31 		.ascii	"_ZN15USBDeviceConfig4PollEv\000"
 19647      35555342 
 19647      44657669 
 19647      6365436F 
 19647      6E666967 
 19648              	.LASF307:
 19649 3abc 73746174 		.ascii	"status\000"
 19649      757300
 19650              	.LASF742:
 19651 3ac3 70737472 		.ascii	"pstrUsageIndicatorFastBlink\000"
 19651      55736167 
 19651      65496E64 
 19651      69636174 
 19651      6F724661 
 19652              	.LASF1221:
 19653 3adf 70737472 		.ascii	"pstrUsageCharacterReport\000"
 19653      55736167 
 19653      65436861 
 19653      72616374 
 19653      65725265 
 19654              	.LASF940:
 19655 3af8 70737472 		.ascii	"pstrUsageBassDecrement\000"
 19655      55736167 
 19655      65426173 
 19655      73446563 
 19655      72656D65 
 19656              	.LASF1308:
 19657 3b0f 6F6C6452 		.ascii	"oldR2Value\000"
 19657      3256616C 
 19657      756500
 19658              	.LASF282:
 19659 3b1a 63697263 		.ascii	"circle\000"
 19659      6C6500
 19660              	.LASF598:
 19661 3b21 70737472 		.ascii	"pstrUsageBelt\000"
 19661      55736167 
 19661      6542656C 
 19661      7400
 19662              	.LASF1034:
ARM GAS  C:\Users\jrdia\AppData\Local\Temp\ccFTvYyK.s 			page 421


 19663 3b2f 70737472 		.ascii	"pstrUsageACExit\000"
 19663      55736167 
 19663      65414345 
 19663      78697400 
 19664              	.LASF1273:
 19665 3b3f 70737472 		.ascii	"pstrUsageSoftButtonOffset1\000"
 19665      55736167 
 19665      65536F66 
 19665      74427574 
 19665      746F6E4F 
 19666              	.LASF153:
 19667 3b5a 67657445 		.ascii	"getEpInfoEntry\000"
 19667      70496E66 
 19667      6F456E74 
 19667      727900
 19668              	.LASF546:
 19669 3b69 70737472 		.ascii	"pstrUsageSystemDisplayLCDAutoscale\000"
 19669      55736167 
 19669      65537973 
 19669      74656D44 
 19669      6973706C 
 19670              	.LASF448:
 19671 3b8c 70737472 		.ascii	"pstrDoubleTab\000"
 19671      446F7562 
 19671      6C655461 
 19671      6200
 19672              	.LASF1007:
 19673 3b9a 70737472 		.ascii	"pstrUsageALEncryption\000"
 19673      55736167 
 19673      65414C45 
 19673      6E637279 
 19673      7074696F 
 19674              	.LASF244:
 19675 3bb0 43495243 		.ascii	"CIRCLE\000"
 19675      4C4500
 19676              	.LASF573:
 19677 3bb7 70737472 		.ascii	"pstrUsageElevator\000"
 19677      55736167 
 19677      65456C65 
 19677      7661746F 
 19677      7200
 19678              	.LASF148:
 19679 3bc9 5F5A4E33 		.ascii	"_ZN3USB16ForEachUsbDeviceEPFvP9UsbDeviceE\000"
 19679      55534231 
 19679      36466F72 
 19679      45616368 
 19679      55736244 
 19680              	.LASF211:
 19681 3bf3 5F5A4E31 		.ascii	"_ZN15USBDeviceConfig10GetAddressEv\000"
 19681      35555342 
 19681      44657669 
 19681      6365436F 
 19681      6E666967 
 19682              	.LASF69:
 19683 3c16 5F5A4E35 		.ascii	"_ZN5Portb7PinReadEv\000"
 19683      506F7274 
 19683      62375069 
ARM GAS  C:\Users\jrdia\AppData\Local\Temp\ccFTvYyK.s 			page 422


 19683      6E526561 
 19683      64457600 
 19684              	.LASF840:
 19685 3c2a 70737472 		.ascii	"pstrUsageDataOnScreen\000"
 19685      55736167 
 19685      65446174 
 19685      614F6E53 
 19685      63726565 
 19686              	.LASF1256:
 19687 3c40 70737472 		.ascii	"pstrUsageBitmapSizeX\000"
 19687      55736167 
 19687      65426974 
 19687      6D617053 
 19687      697A6558 
 19688              	.LASF1257:
 19689 3c55 70737472 		.ascii	"pstrUsageBitmapSizeY\000"
 19689      55736167 
 19689      65426974 
 19689      6D617053 
 19689      697A6559 
 19690              	.LASF521:
 19691 3c6a 70737472 		.ascii	"pstrUsageSystemMenuLeft\000"
 19691      55736167 
 19691      65537973 
 19691      74656D4D 
 19691      656E754C 
 19692              	.LASF649:
 19693 3c82 70737472 		.ascii	"pstrUsagePitchForwardBackward\000"
 19693      55736167 
 19693      65506974 
 19693      6368466F 
 19693      72776172 
 19694              	.LASF637:
 19695 3ca0 70737472 		.ascii	"pstrUsageLoftWedge\000"
 19695      55736167 
 19695      654C6F66 
 19695      74576564 
 19695      676500
 19696              	.LASF894:
 19697 3cb3 70737472 		.ascii	"pstrUsageMark\000"
 19697      55736167 
 19697      654D6172 
 19697      6B00
 19698              	.LASF77:
 19699 3cc1 5F5A4E34 		.ascii	"_ZN4TPinI5PortbLh2EE6ToggleEv\000"
 19699      5450696E 
 19699      4935506F 
 19699      7274624C 
 19699      68324545 
 19700              	.LASF1272:
 19701 3cdf 70737472 		.ascii	"pstrUsageSoftButtonSide\000"
 19701      55736167 
 19701      65536F66 
 19701      74427574 
 19701      746F6E53 
 19702              	.LASF1063:
 19703 3cf7 70737472 		.ascii	"pstrUsageACNormalView\000"
ARM GAS  C:\Users\jrdia\AppData\Local\Temp\ccFTvYyK.s 			page 423


 19703      55736167 
 19703      6541434E 
 19703      6F726D61 
 19703      6C566965 
 19704              	.LASF1139:
 19705 3d0d 70737472 		.ascii	"pstrUsageACFilter\000"
 19705      55736167 
 19705      65414346 
 19705      696C7465 
 19705      7200
 19706              	.LASF45:
 19707 3d1f 6570636F 		.ascii	"epcount\000"
 19707      756E7400 
 19708              	.LASF231:
 19709 3d27 52756D62 		.ascii	"RumbleEnum\000"
 19709      6C65456E 
 19709      756D00
 19710              	.LASF283:
 19711 3d32 74726961 		.ascii	"triangle\000"
 19711      6E676C65 
 19711      00
 19712              	.LASF358:
 19713 3d3b 5F5A4E39 		.ascii	"_ZN9PS4Parser10isTouchingEhh\000"
 19713      50533450 
 19713      61727365 
 19713      72313069 
 19713      73546F75 
 19714              	.LASF1220:
 19715 3d58 70737472 		.ascii	"pstrUsageHorizontalScroll\000"
 19715      55736167 
 19715      65486F72 
 19715      697A6F6E 
 19715      74616C53 
 19716              	.LASF829:
 19717 3d72 70737472 		.ascii	"pstrUsageIllumination\000"
 19717      55736167 
 19717      65496C6C 
 19717      756D696E 
 19717      6174696F 
 19718              	.LASF782:
 19719 3d88 70737472 		.ascii	"pstrUsagePhoneDirectory\000"
 19719      55736167 
 19719      6550686F 
 19719      6E654469 
 19719      72656374 
 19720              	.LASF680:
 19721 3da0 70737472 		.ascii	"pstrUsageCapsLock\000"
 19721      55736167 
 19721      65436170 
 19721      734C6F63 
 19721      6B00
 19722              	.LASF1109:
 19723 3db2 70737472 		.ascii	"pstrUsageACCancel\000"
 19723      55736167 
 19723      65414343 
 19723      616E6365 
 19723      6C00
ARM GAS  C:\Users\jrdia\AppData\Local\Temp\ccFTvYyK.s 			page 424


 19724              	.LASF932:
 19725 3dc4 70737472 		.ascii	"pstrUsageProximity\000"
 19725      55736167 
 19725      6550726F 
 19725      78696D69 
 19725      747900
 19726              	.LASF1219:
 19727 3dd7 70737472 		.ascii	"pstrUsageVerticalScroll\000"
 19727      55736167 
 19727      65566572 
 19727      74696361 
 19727      6C536372 
 19728              	.LASF405:
 19729 3def 70427464 		.ascii	"pBtd\000"
 19729      00
 19730              	.LASF489:
 19731 3df4 70737472 		.ascii	"pstrUsageRx\000"
 19731      55736167 
 19731      65527800 
 19732              	.LASF490:
 19733 3e00 70737472 		.ascii	"pstrUsageRy\000"
 19733      55736167 
 19733      65527900 
 19734              	.LASF491:
 19735 3e0c 70737472 		.ascii	"pstrUsageRz\000"
 19735      55736167 
 19735      65527A00 
 19736              	.LASF526:
 19737 3e18 70737472 		.ascii	"pstrUsageDPadUp\000"
 19737      55736167 
 19737      65445061 
 19737      64557000 
 19738              	.LASF68:
 19739 3e28 50696E52 		.ascii	"PinRead\000"
 19739      65616400 
 19740              	.LASF176:
 19741 3e30 64697370 		.ascii	"dispatchPkt\000"
 19741      61746368 
 19741      506B7400 
 19742              	.LASF1200:
 19743 3e3c 70737472 		.ascii	"pstrUsageYTilt\000"
 19743      55736167 
 19743      65595469 
 19743      6C7400
 19744              	.LASF346:
 19745 3e4b 5F5A4E39 		.ascii	"_ZN9PS4Parser14getButtonPressE10ButtonEnum\000"
 19745      50533450 
 19745      61727365 
 19745      72313467 
 19745      65744275 
 19746              	.LASF56:
 19747 3e76 5F5A4E35 		.ascii	"_ZN5Portb4ReadEv\000"
 19747      506F7274 
 19747      62345265 
 19747      61644576 
 19747      00
 19748              	.LASF835:
ARM GAS  C:\Users\jrdia\AppData\Local\Temp\ccFTvYyK.s 			page 425


 19749 3e87 70737472 		.ascii	"pstrUsageMenuLeft\000"
 19749      55736167 
 19749      654D656E 
 19749      754C6566 
 19749      7400
 19750              	.LASF415:
 19751 3e99 5F5A4E31 		.ascii	"_ZN16BluetoothService7ACLDataEPh\000"
 19751      36426C75 
 19751      65746F6F 
 19751      74685365 
 19751      72766963 
 19752              	.LASF704:
 19753 3eba 70737472 		.ascii	"pstrUsageDataMode\000"
 19753      55736167 
 19753      65446174 
 19753      614D6F64 
 19753      6500
 19754              	.LASF1106:
 19755 3ecc 70737472 		.ascii	"pstrUsageACDemote\000"
 19755      55736167 
 19755      65414344 
 19755      656D6F74 
 19755      6500
 19756              	.LASF400:
 19757 3ede 4C324341 		.ascii	"L2CAP_Command\000"
 19757      505F436F 
 19757      6D6D616E 
 19757      6400
 19758              	.LASF652:
 19759 3eec 70737472 		.ascii	"pstrUsageMoveForwardBackward\000"
 19759      55736167 
 19759      654D6F76 
 19759      65466F72 
 19759      77617264 
 19760              	.LASF994:
 19761 3f09 70737472 		.ascii	"pstrUsageALNextTaskApplication\000"
 19761      55736167 
 19761      65414C4E 
 19761      65787454 
 19761      61736B41 
 19762              	.LASF254:
 19763 3f28 424C4143 		.ascii	"BLACK\000"
 19763      4B00
 19764              	.LASF1124:
 19765 3f2e 70737472 		.ascii	"pstrUsageACUnprotect\000"
 19765      55736167 
 19765      65414355 
 19765      6E70726F 
 19765      74656374 
 19766              	.LASF849:
 19767 3f43 70737472 		.ascii	"pstrUsageModeStep\000"
 19767      55736167 
 19767      654D6F64 
 19767      65537465 
 19767      7000
 19768              	.LASF613:
 19769 3f55 70737472 		.ascii	"pstrUsageTreadmill\000"
ARM GAS  C:\Users\jrdia\AppData\Local\Temp\ccFTvYyK.s 			page 426


 19769      55736167 
 19769      65547265 
 19769      61646D69 
 19769      6C6C00
 19770              	.LASF81:
 19771 3f68 5F5A4E34 		.ascii	"_ZN4TPinI5PortbLh2EE11SetDirWriteEv\000"
 19771      5450696E 
 19771      4935506F 
 19771      7274624C 
 19771      68324545 
 19772              	.LASF1237:
 19773 3f8c 70737472 		.ascii	"pstrUsageFontReport\000"
 19773      55736167 
 19773      65466F6E 
 19773      74526570 
 19773      6F727400 
 19774              	.LASF46:
 19775 3fa0 6C6F7773 		.ascii	"lowspeed\000"
 19775      70656564 
 19775      00
 19776              	.LASF1097:
 19777 3fa9 70737472 		.ascii	"pstrUsageACJustifyCenterV\000"
 19777      55736167 
 19777      6541434A 
 19777      75737469 
 19777      66794365 
 19778              	.LASF464:
 19779 3fc3 70737472 		.ascii	"pstrUsagePagePID\000"
 19779      55736167 
 19779      65506167 
 19779      65504944 
 19779      00
 19780              	.LASF915:
 19781 3fd4 70737472 		.ascii	"pstrUsageVolumeIncrement\000"
 19781      55736167 
 19781      65566F6C 
 19781      756D6549 
 19781      6E637265 
 19782              	.LASF612:
 19783 3fed 70737472 		.ascii	"pstrUsageRowingMachine\000"
 19783      55736167 
 19783      65526F77 
 19783      696E674D 
 19783      61636869 
 19784              	.LASF366:
 19785 4004 5F5A4E39 		.ascii	"_ZN9PS4Parser15getBatteryLevelEv\000"
 19785      50533450 
 19785      61727365 
 19785      72313567 
 19785      65744261 
 19786              	.LASF555:
 19787 4025 70737472 		.ascii	"pstrUsageAirplaneSimulationDevice\000"
 19787      55736167 
 19787      65416972 
 19787      706C616E 
 19787      6553696D 
 19788              	.LASF507:
ARM GAS  C:\Users\jrdia\AppData\Local\Temp\ccFTvYyK.s 			page 427


 19789 4047 70737472 		.ascii	"pstrUsageVno\000"
 19789      55736167 
 19789      65566E6F 
 19789      00
 19790              	.LASF238:
 19791 4054 504C5553 		.ascii	"PLUS\000"
 19791      00
 19792              	.LASF348:
 19793 4059 5F5A4E39 		.ascii	"_ZN9PS4Parser14getButtonClickE10ButtonEnum\000"
 19793      50533450 
 19793      61727365 
 19793      72313467 
 19793      65744275 
 19794              	.LASF1076:
 19795 4084 70737472 		.ascii	"pstrUsageACBold\000"
 19795      55736167 
 19795      65414342 
 19795      6F6C6400 
 19796              	.LASF109:
 19797 4094 6770696F 		.ascii	"gpioWr\000"
 19797      577200
 19798              	.LASF1100:
 19799 409b 70737472 		.ascii	"pstrUsageACIndentDecrease\000"
 19799      55736167 
 19799      65414349 
 19799      6E64656E 
 19799      74446563 
 19800              	.LASF360:
 19801 40b5 5F5A4E39 		.ascii	"_ZN9PS4Parser15getTouchCounterEhh\000"
 19801      50533450 
 19801      61727365 
 19801      72313567 
 19801      6574546F 
 19802              	.LASF863:
 19803 40d7 70737472 		.ascii	"pstrUsageMediaSelectMessages\000"
 19803      55736167 
 19803      654D6564 
 19803      69615365 
 19803      6C656374 
 19804              	.LASF628:
 19805 40f4 70737472 		.ascii	"pstrUsage4Iron\000"
 19805      55736167 
 19805      65344972 
 19805      6F6E00
 19806              	.LASF1292:
 19807 4103 70737472 		.ascii	"pstrUsageZoomSelect\000"
 19807      55736167 
 19807      655A6F6F 
 19807      6D53656C 
 19807      65637400 
 19808              	.LASF1180:
 19809 4117 70737472 		.ascii	"pstrUsageArticulatedArm\000"
 19809      55736167 
 19809      65417274 
 19809      6963756C 
 19809      61746564 
 19810              	.LASF8:
ARM GAS  C:\Users\jrdia\AppData\Local\Temp\ccFTvYyK.s 			page 428


 19811 412f 6C6F6E67 		.ascii	"long int\000"
 19811      20696E74 
 19811      00
 19812              	.LASF172:
 19813 4138 696E5472 		.ascii	"inTransfer\000"
 19813      616E7366 
 19813      657200
 19814              	.LASF1037:
 19815 4143 70737472 		.ascii	"pstrUsageACSave\000"
 19815      55736167 
 19815      65414353 
 19815      61766500 
 19816              	.LASF1181:
 19817 4153 70737472 		.ascii	"pstrUsageArmature\000"
 19817      55736167 
 19817      6541726D 
 19817      61747572 
 19817      6500
 19818              	.LASF113:
 19819 4165 5F5A4E38 		.ascii	"_ZN8MAX3421eI4TPinI5PortbLh2EES0_IS1_Lh1EEE7bytesRd"
 19819      4D415833 
 19819      34323165 
 19819      49345450 
 19819      696E4935 
 19820 4198 45686850 		.ascii	"EhhPh\000"
 19820      6800
 19821              	.LASF1169:
 19822 419e 70737472 		.ascii	"pstrUsageACDistributeHorizontaly\000"
 19822      55736167 
 19822      65414344 
 19822      69737472 
 19822      69627574 
 19823              	.LASF120:
 19824 41bf 5F5A4E38 		.ascii	"_ZN8MAX3421eI4TPinI5PortbLh2EES0_IS1_Lh1EEE4InitEi\000"
 19824      4D415833 
 19824      34323165 
 19824      49345450 
 19824      696E4935 
 19825              	.LASF36:
 19826 41f2 626D4164 		.ascii	"bmAddress\000"
 19826      64726573 
 19826      7300
 19827              	.LASF1197:
 19828 41fc 70737472 		.ascii	"pstrUsageProgramChangeKeys\000"
 19828      55736167 
 19828      6550726F 
 19828      6772616D 
 19828      4368616E 
 19829              	.LASF937:
 19830 4217 70737472 		.ascii	"pstrUsageBalanceRight\000"
 19830      55736167 
 19830      6542616C 
 19830      616E6365 
 19830      52696768 
 19831              	.LASF119:
 19832 422d 5F5A4E38 		.ascii	"_ZN8MAX3421eI4TPinI5PortbLh2EES0_IS1_Lh1EEE4InitEv\000"
 19832      4D415833 
ARM GAS  C:\Users\jrdia\AppData\Local\Temp\ccFTvYyK.s 			page 429


 19832      34323165 
 19832      49345450 
 19832      696E4935 
 19833              	.LASF1173:
 19834 4260 70737472 		.ascii	"pstrUsageLightPen\000"
 19834      55736167 
 19834      654C6967 
 19834      68745065 
 19834      6E00
 19835              	.LASF1329:
 19836 4272 50533442 		.ascii	"PS4Buttons\000"
 19836      7574746F 
 19836      6E7300
 19837              	.LASF353:
 19838 427d 67657458 		.ascii	"getX\000"
 19838      00
 19839              	.LASF355:
 19840 4282 67657459 		.ascii	"getY\000"
 19840      00
 19841              	.LASF275:
 19842 4287 6D596D6F 		.ascii	"mYmove\000"
 19842      766500
 19843              	.LASF1080:
 19844 428e 70737472 		.ascii	"pstrUsageACSubscript\000"
 19844      55736167 
 19844      65414353 
 19844      75627363 
 19844      72697074 
 19845              	.LASF1275:
 19846 42a3 70737472 		.ascii	"pstrUsageSoftButtonReport\000"
 19846      55736167 
 19846      65536F66 
 19846      74427574 
 19846      746F6E52 
 19847              	.LASF1283:
 19848 42bd 70737472 		.ascii	"pstrUsagePrint\000"
 19848      55736167 
 19848      65507269 
 19848      6E7400
 19849              	.LASF197:
 19850 42cc 5F767074 		.ascii	"_vptr.USBDeviceConfig\000"
 19850      722E5553 
 19850      42446576 
 19850      69636543 
 19850      6F6E6669 
 19851              	.LASF1191:
 19852 42e2 70737472 		.ascii	"pstrUsageUntouch\000"
 19852      55736167 
 19852      65556E74 
 19852      6F756368 
 19852      00
 19853              	.LASF156:
 19854 42f3 5F5A4E33 		.ascii	"_ZN3USB14setEpInfoEntryEhhP6EpInfo\000"
 19854      55534231 
 19854      34736574 
 19854      4570496E 
 19854      666F456E 
ARM GAS  C:\Users\jrdia\AppData\Local\Temp\ccFTvYyK.s 			page 430


 19855              	.LASF967:
 19856 4316 70737472 		.ascii	"pstrUsageALPresentationApp\000"
 19856      55736167 
 19856      65414C50 
 19856      72657365 
 19856      6E746174 
 19857              	.LASF564:
 19858 4331 70737472 		.ascii	"pstrUsageTrackControl\000"
 19858      55736167 
 19858      65547261 
 19858      636B436F 
 19858      6E74726F 
 19859              	.LASF643:
 19860 4347 70737472 		.ascii	"pstrUsage9Wood\000"
 19860      55736167 
 19860      6539576F 
 19860      6F6400
 19861              	.LASF760:
 19862 4356 70737472 		.ascii	"pstrUsageHeadset\000"
 19862      55736167 
 19862      65486561 
 19862      64736574 
 19862      00
 19863              	.LASF340:
 19864 4367 6F6C6444 		.ascii	"oldDpad\000"
 19864      70616400 
 19865              	.LASF385:
 19866 436f 7365744C 		.ascii	"setLedFlash\000"
 19866      6564466C 
 19866      61736800 
 19867              	.LASF590:
 19868 437b 70737472 		.ascii	"pstrUsageTurretDirection\000"
 19868      55736167 
 19868      65547572 
 19868      72657444 
 19868      69726563 
 19869              	.LASF356:
 19870 4394 5F5A4E39 		.ascii	"_ZN9PS4Parser4getYEhh\000"
 19870      50533450 
 19870      61727365 
 19870      72346765 
 19870      74594568 
 19871              	.LASF387:
 19872 43aa 50617273 		.ascii	"Parse\000"
 19872      6500
 19873              	.LASF941:
 19874 43b0 70737472 		.ascii	"pstrUsageTrebleIncrement\000"
 19874      55736167 
 19874      65547265 
 19874      626C6549 
 19874      6E637265 
 19875              	.LASF414:
 19876 43c9 5F5A4E39 		.ascii	"_ZN9PS4Parser16sendOutputReportEP9PS4Output\000"
 19876      50533450 
 19876      61727365 
 19876      72313673 
 19876      656E644F 
ARM GAS  C:\Users\jrdia\AppData\Local\Temp\ccFTvYyK.s 			page 431


 19877              	.LASF310:
 19878 43f5 62696752 		.ascii	"bigRumble\000"
 19878      756D626C 
 19878      6500
 19879              	.LASF924:
 19880 43ff 70737472 		.ascii	"pstrUsageFanSpeed\000"
 19880      55736167 
 19880      6546616E 
 19880      53706565 
 19880      6400
 19881              	.LASF1320:
 19882 4411 4D696C6C 		.ascii	"Millis_Timer_Start\000"
 19882      69735F54 
 19882      696D6572 
 19882      5F537461 
 19882      727400
 19883              	.LASF904:
 19884 4424 70737472 		.ascii	"pstrUsageStopEject\000"
 19884      55736167 
 19884      6553746F 
 19884      70456A65 
 19884      637400
 19885              	.LASF18:
 19886 4437 75696E74 		.ascii	"uint32_t\000"
 19886      33325F74 
 19886      00
 19887              	.LASF956:
 19888 4440 70737472 		.ascii	"pstrUsageSubChannelDecrement\000"
 19888      55736167 
 19888      65537562 
 19888      4368616E 
 19888      6E656C44 
 19889              	.LASF953:
 19890 445d 70737472 		.ascii	"pstrUsageChannelUnknown\000"
 19890      55736167 
 19890      65436861 
 19890      6E6E656C 
 19890      556E6B6E 
 19891              	.LASF789:
 19892 4475 70737472 		.ascii	"pstrUsageInsideRingTone\000"
 19892      55736167 
 19892      65496E73 
 19892      69646552 
 19892      696E6754 
 19893              	.LASF1232:
 19894 448d 70737472 		.ascii	"pstrUsageColumns\000"
 19894      55736167 
 19894      65436F6C 
 19894      756D6E73 
 19894      00
 19895              	.LASF622:
 19896 449e 70737472 		.ascii	"pstrUsageStickType\000"
 19896      55736167 
 19896      65537469 
 19896      636B5479 
 19896      706500
 19897              	.LASF730:
ARM GAS  C:\Users\jrdia\AppData\Local\Temp\ccFTvYyK.s 			page 432


 19898 44b1 70737472 		.ascii	"pstrUsageRewind\000"
 19898      55736167 
 19898      65526577 
 19898      696E6400 
 19899              	.LASF734:
 19900 44c1 70737472 		.ascii	"pstrUsageRecord\000"
 19900      55736167 
 19900      65526563 
 19900      6F726400 
 19901              	.LASF501:
 19902 44d1 70737472 		.ascii	"pstrUsageVx\000"
 19902      55736167 
 19902      65567800 
 19903              	.LASF502:
 19904 44dd 70737472 		.ascii	"pstrUsageVy\000"
 19904      55736167 
 19904      65567900 
 19905              	.LASF503:
 19906 44e9 70737472 		.ascii	"pstrUsageVz\000"
 19906      55736167 
 19906      65567A00 
 19907              	.LASF1332:
 19908 44f5 5F5A4E31 		.ascii	"_ZN16BluetoothService3RunEv\000"
 19908      36426C75 
 19908      65746F6F 
 19908      74685365 
 19908      72766963 
 19909              	.LASF911:
 19910 4511 70737472 		.ascii	"pstrUsageBassBoost\000"
 19910      55736167 
 19910      65426173 
 19910      73426F6F 
 19910      737400
 19911              	.LASF1146:
 19912 4524 70737472 		.ascii	"pstrUsageACSnoozeAlarm\000"
 19912      55736167 
 19912      65414353 
 19912      6E6F6F7A 
 19912      65416C61 
 19913              	.LASF562:
 19914 453b 70737472 		.ascii	"pstrUsageCyclicTrim\000"
 19914      55736167 
 19914      65437963 
 19914      6C696354 
 19914      72696D00 
 19915              	.LASF1230:
 19916 454f 70737472 		.ascii	"pstrUsageColumn\000"
 19916      55736167 
 19916      65436F6C 
 19916      756D6E00 
 19917              	.LASF560:
 19918 455f 70737472 		.ascii	"pstrUsageFlightStick\000"
 19918      55736167 
 19918      65466C69 
 19918      67687453 
 19918      7469636B 
 19919              	.LASF339:
ARM GAS  C:\Users\jrdia\AppData\Local\Temp\ccFTvYyK.s 			page 433


 19920 4574 7073344F 		.ascii	"ps4Output\000"
 19920      75747075 
 19920      7400
 19921              	.LASF1222:
 19922 457e 70737472 		.ascii	"pstrUsageDisplayData\000"
 19922      55736167 
 19922      65446973 
 19922      706C6179 
 19922      44617461 
 19923              	.LASF223:
 19924 4593 436F6C6F 		.ascii	"ColorsEnum\000"
 19924      7273456E 
 19924      756D00
 19925              	.LASF24:
 19926 459e 6C6F6E67 		.ascii	"long double\000"
 19926      20646F75 
 19926      626C6500 
 19927              	.LASF874:
 19928 45aa 70737472 		.ascii	"pstrUsageMediaSelectCall\000"
 19928      55736167 
 19928      654D6564 
 19928      69615365 
 19928      6C656374 
 19929              	.LASF134:
 19930 45c3 5F5A4E38 		.ascii	"_ZN8MAX3421eI4TPinI5PortbLh2EES0_IS1_Lh1EEE4TaskEv\000"
 19930      4D415833 
 19930      34323165 
 19930      49345450 
 19930      696E4935 
 19931              	.LASF890:
 19932 45f6 70737472 		.ascii	"pstrUsageTrackNormal\000"
 19932      55736167 
 19932      65547261 
 19932      636B4E6F 
 19932      726D616C 
 19933              	.LASF1167:
 19934 460b 70737472 		.ascii	"pstrUsageACMerge\000"
 19934      55736167 
 19934      6541434D 
 19934      65726765 
 19934      00
 19935              	.LASF1195:
 19936 461c 70737472 		.ascii	"pstrUsageTransducerIndex\000"
 19936      55736167 
 19936      65547261 
 19936      6E736475 
 19936      63657249 
 19937              	.LASF572:
 19938 4635 70737472 		.ascii	"pstrUsageElectronicCountermeasures\000"
 19938      55736167 
 19938      65456C65 
 19938      6374726F 
 19938      6E696343 
 19939              	.LASF1246:
 19940 4658 70737472 		.ascii	"pstrUsageFont14Segment\000"
 19940      55736167 
 19940      65466F6E 
ARM GAS  C:\Users\jrdia\AppData\Local\Temp\ccFTvYyK.s 			page 434


 19940      74313453 
 19940      65676D65 
 19941              	.LASF294:
 19942 466f 62617474 		.ascii	"battery\000"
 19942      65727900 
 19943              	.LASF832:
 19944 4677 70737472 		.ascii	"pstrUsageMenuPick\000"
 19944      55736167 
 19944      654D656E 
 19944      75506963 
 19944      6B00
 19945              	.LASF205:
 19946 4689 5F5A4E31 		.ascii	"_ZN15USBDeviceConfig15ConfigureDeviceEhhb\000"
 19946      35555342 
 19946      44657669 
 19946      6365436F 
 19946      6E666967 
 19947              	.LASF449:
 19948 46b3 70737472 		.ascii	"pstrTripleTab\000"
 19948      54726970 
 19948      6C655461 
 19948      6200
 19949              	.LASF334:
 19950 46c1 50533450 		.ascii	"PS4Parser\000"
 19950      61727365 
 19950      7200
 19951              	.LASF10:
 19952 46cb 6C6F6E67 		.ascii	"long unsigned int\000"
 19952      20756E73 
 19952      69676E65 
 19952      6420696E 
 19952      7400
 19953              	.LASF88:
 19954 46dd 5450696E 		.ascii	"TPin<Portb, 1u>\000"
 19954      3C506F72 
 19954      74622C20 
 19954      31753E00 
 19955              	.LASF697:
 19956 46ed 70737472 		.ascii	"pstrUsageSpinning\000"
 19956      55736167 
 19956      65537069 
 19956      6E6E696E 
 19956      6700
 19957              	.LASF946:
 19958 46ff 70737472 		.ascii	"pstrUsageChannelCenter\000"
 19958      55736167 
 19958      65436861 
 19958      6E6E656C 
 19958      43656E74 
 19959              	.LASF168:
 19960 4716 6374726C 		.ascii	"ctrlData\000"
 19960      44617461 
 19960      00
 19961              	.LASF750:
 19962 471f 70737472 		.ascii	"pstrUsageIndicatorRed\000"
 19962      55736167 
 19962      65496E64 
ARM GAS  C:\Users\jrdia\AppData\Local\Temp\ccFTvYyK.s 			page 435


 19962      69636174 
 19962      6F725265 
 19963              	.LASF648:
 19964 4735 70737472 		.ascii	"pstrUsageTurnRightLeft\000"
 19964      55736167 
 19964      65547572 
 19964      6E526967 
 19964      68744C65 
 19965              	.LASF625:
 19966 474c 70737472 		.ascii	"pstrUsage1Iron\000"
 19966      55736167 
 19966      65314972 
 19966      6F6E00
 19967              	.LASF215:
 19968 475b 5F5A4E31 		.ascii	"_ZN15USBDeviceConfig10DEVCLASSOKEh\000"
 19968      35555342 
 19968      44657669 
 19968      6365436F 
 19968      6E666967 
 19969              	.LASF596:
 19970 477e 70737472 		.ascii	"pstrUsageFrontBrake\000"
 19970      55736167 
 19970      6546726F 
 19970      6E744272 
 19970      616B6500 
 19971              	.LASF1142:
 19972 4792 70737472 		.ascii	"pstrUsageACSelectTimeZone\000"
 19972      55736167 
 19972      65414353 
 19972      656C6563 
 19972      7454696D 
 19973              	.LASF709:
 19974 47ac 70737472 		.ascii	"pstrUsageHeadSet\000"
 19974      55736167 
 19974      65486561 
 19974      64536574 
 19974      00
 19975              	.LASF1176:
 19976 47bd 70737472 		.ascii	"pstrUsageWhiteBoard\000"
 19976      55736167 
 19976      65576869 
 19976      7465426F 
 19976      61726400 
 19977              	.LASF313:
 19978 47d1 666C6173 		.ascii	"flashOff\000"
 19978      684F6666 
 19978      00
 19979              	.LASF482:
 19980 47da 70737472 		.ascii	"pstrUsageKeyboard\000"
 19980      55736167 
 19980      654B6579 
 19980      626F6172 
 19980      6400
 19981              	.LASF181:
 19982 47ec 436F6E66 		.ascii	"Configuring\000"
 19982      69677572 
 19982      696E6700 
ARM GAS  C:\Users\jrdia\AppData\Local\Temp\ccFTvYyK.s 			page 436


 19983              	.LASF774:
 19984 47f8 70737472 		.ascii	"pstrUsageRingEnable\000"
 19984      55736167 
 19984      6552696E 
 19984      67456E61 
 19984      626C6500 
 19985              	.LASF1265:
 19986 480c 70737472 		.ascii	"pstrUsageBlitRectangleX1\000"
 19986      55736167 
 19986      65426C69 
 19986      74526563 
 19986      74616E67 
 19987              	.LASF1267:
 19988 4825 70737472 		.ascii	"pstrUsageBlitRectangleX2\000"
 19988      55736167 
 19988      65426C69 
 19988      74526563 
 19988      74616E67 
 19989              	.LASF1075:
 19990 483e 70737472 		.ascii	"pstrUsageACEdit\000"
 19990      55736167 
 19990      65414345 
 19990      64697400 
 19991              	.LASF963:
 19992 484e 70737472 		.ascii	"pstrUsageALWordProcessor\000"
 19992      55736167 
 19992      65414C57 
 19992      6F726450 
 19992      726F6365 
 19993              	.LASF581:
 19994 4867 70737472 		.ascii	"pstrUsageTrigger\000"
 19994      55736167 
 19994      65547269 
 19994      67676572 
 19994      00
 19995              	.LASF165:
 19996 4878 5F5A4E33 		.ascii	"_ZN3USB7setAddrEhhh\000"
 19996      55534237 
 19996      73657441 
 19996      64647245 
 19996      68686800 
 19997              	.LASF22:
 19998 488c 63686172 		.ascii	"char\000"
 19998      00
 19999              	.LASF185:
 20000 4891 6374726C 		.ascii	"ctrlReq\000"
 20000      52657100 
 20001              	.LASF203:
 20002 4899 436F6E66 		.ascii	"ConfigureDevice\000"
 20002      69677572 
 20002      65446576 
 20002      69636500 
 20003              	.LASF404:
 20004 48a9 7046756E 		.ascii	"pFuncOnInit\000"
 20004      634F6E49 
 20004      6E697400 
 20005              	.LASF30:
ARM GAS  C:\Users\jrdia\AppData\Local\Temp\ccFTvYyK.s 			page 437


 20006 48b5 626D5263 		.ascii	"bmRcvToggle\000"
 20006      76546F67 
 20006      676C6500 
 20007              	.LASF1078:
 20008 48c1 70737472 		.ascii	"pstrUsageACUnderline\000"
 20008      55736167 
 20008      65414355 
 20008      6E646572 
 20008      6C696E65 
 20009              	.LASF1307:
 20010 48d6 6F6C644C 		.ascii	"oldL2Value\000"
 20010      3256616C 
 20010      756500
 20011              	.LASF544:
 20012 48e1 70737472 		.ascii	"pstrUsageSystemDisplayToggleIntExt\000"
 20012      55736167 
 20012      65537973 
 20012      74656D44 
 20012      6973706C 
 20013              	.LASF138:
 20014 4904 626D4875 		.ascii	"bmHubPre\000"
 20014      62507265 
 20014      00
 20015              	.LASF130:
 20016 490d 5F5A4E38 		.ascii	"_ZN8MAX3421eI4TPinI5PortbLh2EES0_IS1_Lh1EEE10GpxHan"
 20016      4D415833 
 20016      34323165 
 20016      49345450 
 20016      696E4935 
 20017 4940 646C6572 		.ascii	"dlerEv\000"
 20017      457600
 20018              	.LASF1068:
 20019 4947 70737472 		.ascii	"pstrUsageACPanLeft\000"
 20019      55736167 
 20019      65414350 
 20019      616E4C65 
 20019      667400
 20020              	.LASF1334:
 20021 495a 5F5F7374 		.ascii	"__static_initialization_and_destruction_0\000"
 20021      61746963 
 20021      5F696E69 
 20021      7469616C 
 20021      697A6174 
 20022              	.LASF723:
 20023 4984 70737472 		.ascii	"pstrUsageReady\000"
 20023      55736167 
 20023      65526561 
 20023      647900
 20024              	.LASF19:
 20025 4993 75696E74 		.ascii	"uint32\000"
 20025      333200
 20026              	.LASF761:
 20027 499a 70737472 		.ascii	"pstrUsageTelephonyKeyPad\000"
 20027      55736167 
 20027      6554656C 
 20027      6570686F 
 20027      6E794B65 
ARM GAS  C:\Users\jrdia\AppData\Local\Temp\ccFTvYyK.s 			page 438


 20028              	.LASF855:
 20029 49b3 70737472 		.ascii	"pstrUsageMediaSelectComputer\000"
 20029      55736167 
 20029      654D6564 
 20029      69615365 
 20029      6C656374 
 20030              	.LASF702:
 20031 49d0 70737472 		.ascii	"pstrUsageRing\000"
 20031      55736167 
 20031      6552696E 
 20031      6700
 20032              	.LASF944:
 20033 49de 70737472 		.ascii	"pstrUsageChannelLeft\000"
 20033      55736167 
 20033      65436861 
 20033      6E6E656C 
 20033      4C656674 
 20034              	.LASF1204:
 20035 49f3 70737472 		.ascii	"pstrUsageTipSwitch\000"
 20035      55736167 
 20035      65546970 
 20035      53776974 
 20035      636800
 20036              	.LASF1266:
 20037 4a06 70737472 		.ascii	"pstrUsageBlitRectangleY1\000"
 20037      55736167 
 20037      65426C69 
 20037      74526563 
 20037      74616E67 
 20038              	.LASF1268:
 20039 4a1f 70737472 		.ascii	"pstrUsageBlitRectangleY2\000"
 20039      55736167 
 20039      65426C69 
 20039      74526563 
 20039      74616E67 
 20040              	.LASF670:
 20041 4a38 70737472 		.ascii	"pstrUsageGamepadFireJump\000"
 20041      55736167 
 20041      6547616D 
 20041      65706164 
 20041      46697265 
 20042              	.LASF1126:
 20043 4a51 70737472 		.ascii	"pstrUsageACDeleteComment\000"
 20043      55736167 
 20043      65414344 
 20043      656C6574 
 20043      65436F6D 
 20044              	.LASF187:
 20045 4a6a 53657441 		.ascii	"SetAddress\000"
 20045      64647265 
 20045      737300
 20046              	.LASF141:
 20047 4a75 52657365 		.ascii	"ResetHubPreMask\000"
 20047      74487562 
 20047      5072654D 
 20047      61736B00 
 20048              	.LASF974:
ARM GAS  C:\Users\jrdia\AppData\Local\Temp\ccFTvYyK.s 			page 439


 20049 4a85 70737472 		.ascii	"pstrUsageALTaskProjectManager\000"
 20049      55736167 
 20049      65414C54 
 20049      61736B50 
 20049      726F6A65 
 20050              	.LASF617:
 20051 4aa3 70737472 		.ascii	"pstrUsageStickSpeed\000"
 20051      55736167 
 20051      65537469 
 20051      636B5370 
 20051      65656400 
 20052              	.LASF1013:
 20053 4ab7 70737472 		.ascii	"pstrUsageALImageBrowser\000"
 20053      55736167 
 20053      65414C49 
 20053      6D616765 
 20053      42726F77 
 20054              	.LASF326:
 20055 4acf 73656E64 		.ascii	"sendOutputReport\000"
 20055      4F757470 
 20055      75745265 
 20055      706F7274 
 20055      00
 20056              	.LASF838:
 20057 4ae0 70737472 		.ascii	"pstrUsageMenuValueIncrease\000"
 20057      55736167 
 20057      654D656E 
 20057      7556616C 
 20057      7565496E 
 20058              	.LASF1009:
 20059 4afb 70737472 		.ascii	"pstrUsageALAlarms\000"
 20059      55736167 
 20059      65414C41 
 20059      6C61726D 
 20059      7300
 20060              	.LASF426:
 20061 4b0d 636F6C6F 		.ascii	"color\000"
 20061      7200
 20062              	.LASF1184:
 20063 4b13 70737472 		.ascii	"pstrUsageStylus\000"
 20063      55736167 
 20063      65537479 
 20063      6C757300 
 20064              	.LASF1021:
 20065 4b23 70737472 		.ascii	"pstrUsageALOnlineCommunity\000"
 20065      55736167 
 20065      65414C4F 
 20065      6E6C696E 
 20065      65436F6D 
 20066              	.LASF39:
 20067 4b3e 626D5265 		.ascii	"bmReserved\000"
 20067      73657276 
 20067      656400
 20068              	.LASF1309:
 20069 4b49 43794465 		.ascii	"CyDelayUs\000"
 20069      6C617955 
 20069      7300
ARM GAS  C:\Users\jrdia\AppData\Local\Temp\ccFTvYyK.s 			page 440


 20070              	.LASF923:
 20071 4b53 70737472 		.ascii	"pstrUsageFanEnable\000"
 20071      55736167 
 20071      6546616E 
 20071      456E6162 
 20071      6C6500
 20072              	.LASF1185:
 20073 4b66 70737472 		.ascii	"pstrUsagePuck\000"
 20073      55736167 
 20073      65507563 
 20073      6B00
 20074              	.LASF1315:
 20075 4b74 55415254 		.ascii	"UART_UartPutString\000"
 20075      5F556172 
 20075      74507574 
 20075      53747269 
 20075      6E6700
 20076              	.LASF735:
 20077 4b87 70737472 		.ascii	"pstrUsageError\000"
 20077      55736167 
 20077      65457272 
 20077      6F7200
 20078              	.LASF579:
 20079 4b96 70737472 		.ascii	"pstrUsageLandingGear\000"
 20079      55736167 
 20079      654C616E 
 20079      64696E67 
 20079      47656172 
 20080              	.LASF121:
 20081 4bab 76627573 		.ascii	"vbusPower\000"
 20081      506F7765 
 20081      7200
 20082              	.LASF1223:
 20083 4bb5 70737472 		.ascii	"pstrUsageDisplayStatus\000"
 20083      55736167 
 20083      65446973 
 20083      706C6179 
 20083      53746174 
 20084              	.LASF454:
 20085 4bcc 70737472 		.ascii	"pstrUsagePageSportControls\000"
 20085      55736167 
 20085      65506167 
 20085      6553706F 
 20085      7274436F 
 20086              	.LASF192:
 20087 4be7 5F5A4E33 		.ascii	"_ZN3USB10InTransferEP6EpInfotPtPhh\000"
 20087      55534231 
 20087      30496E54 
 20087      72616E73 
 20087      66657245 
 20088              	.LASF614:
 20089 4c0a 70737472 		.ascii	"pstrUsageOar\000"
 20089      55736167 
 20089      654F6172 
 20089      00
 20090              	.LASF987:
 20091 4c17 70737472 		.ascii	"pstrUsageALLogoff\000"
ARM GAS  C:\Users\jrdia\AppData\Local\Temp\ccFTvYyK.s 			page 441


 20091      55736167 
 20091      65414C4C 
 20091      6F676F66 
 20091      6600
 20092              	.LASF1164:
 20093 4c29 70737472 		.ascii	"pstrUsageACInsertSymbol\000"
 20093      55736167 
 20093      65414349 
 20093      6E736572 
 20093      7453796D 
 20094              	.LASF122:
 20095 4c41 5F5A4E38 		.ascii	"_ZN8MAX3421eI4TPinI5PortbLh2EES0_IS1_Lh1EEE5regWrEh"
 20095      4D415833 
 20095      34323165 
 20095      49345450 
 20095      696E4935 
 20096 4c74 6800     		.ascii	"h\000"
 20097              	.LASF131:
 20098 4c76 496E7448 		.ascii	"IntHandler\000"
 20098      616E646C 
 20098      657200
 20099              	.LASF1327:
 20100 4c81 36564255 		.ascii	"6VBUS_t\000"
 20100      535F7400 
 20101              	.LASF513:
 20102 4c89 70737472 		.ascii	"pstrUsageSystemWakeup\000"
 20102      55736167 
 20102      65537973 
 20102      74656D57 
 20102      616B6575 
 20103              	.LASF190:
 20104 4c9f 5F5A4E33 		.ascii	"_ZN3USB11OutTransferEP6EpInfottPh\000"
 20104      55534231 
 20104      314F7574 
 20104      5472616E 
 20104      73666572 
 20105              	.LASF897:
 20106 4cc1 70737472 		.ascii	"pstrUsageReturnToMark\000"
 20106      55736167 
 20106      65526574 
 20106      75726E54 
 20106      6F4D6172 
 20107              	.LASF455:
 20108 4cd7 70737472 		.ascii	"pstrUsagePageGameControls\000"
 20108      55736167 
 20108      65506167 
 20108      6547616D 
 20108      65436F6E 
 20109              	.LASF859:
 20110 4cf1 70737472 		.ascii	"pstrUsageMediaSelectTelephone\000"
 20110      55736167 
 20110      654D6564 
 20110      69615365 
 20110      6C656374 
 20111              	.LASF204:
 20112 4d0f 5F5A4E31 		.ascii	"_ZN15USBDeviceConfig4InitEhhb\000"
 20112      35555342 
ARM GAS  C:\Users\jrdia\AppData\Local\Temp\ccFTvYyK.s 			page 442


 20112      44657669 
 20112      6365436F 
 20112      6E666967 
 20113              	.LASF1035:
 20114 4d2d 70737472 		.ascii	"pstrUsageACMaximize\000"
 20114      55736167 
 20114      6541434D 
 20114      6178696D 
 20114      697A6500 
 20115              	.LASF624:
 20116 4d41 70737472 		.ascii	"pstrUsagePutter\000"
 20116      55736167 
 20116      65507574 
 20116      74657200 
 20117              	.LASF966:
 20118 4d51 70737472 		.ascii	"pstrUsageALGraphicsEditor\000"
 20118      55736167 
 20118      65414C47 
 20118      72617068 
 20118      69637345 
 20119              	.LASF1179:
 20120 4d6b 70737472 		.ascii	"pstrUsageStereoPlotter\000"
 20120      55736167 
 20120      65537465 
 20120      72656F50 
 20120      6C6F7474 
 20121              	.LASF1245:
 20122 4d82 70737472 		.ascii	"pstrUsage7SegmentDirectMap\000"
 20122      55736167 
 20122      65375365 
 20122      676D656E 
 20122      74446972 
 20123              	.LASF191:
 20124 4d9d 496E5472 		.ascii	"InTransfer\000"
 20124      616E7366 
 20124      657200
 20125              	.LASF112:
 20126 4da8 5F5A4E38 		.ascii	"_ZN8MAX3421eI4TPinI5PortbLh2EES0_IS1_Lh1EEE5regRdEh"
 20126      4D415833 
 20126      34323165 
 20126      49345450 
 20126      696E4935 
 20127 4ddb 00       		.ascii	"\000"
 20128              	.LASF493:
 20129 4ddc 70737472 		.ascii	"pstrUsageDial\000"
 20129      55736167 
 20129      65446961 
 20129      6C00
 20130              	.LASF609:
 20131 4dea 70737472 		.ascii	"pstrUsageDisplayEnable\000"
 20131      55736167 
 20131      65446973 
 20131      706C6179 
 20131      456E6162 
 20132              	.LASF380:
 20133 4e01 7365744C 		.ascii	"setLedOff\000"
 20133      65644F66 
ARM GAS  C:\Users\jrdia\AppData\Local\Temp\ccFTvYyK.s 			page 443


 20133      6600
 20134              	.LASF51:
 20135 4e0b 5F5A4E35 		.ascii	"_ZN5Portb11ClearAndSetEhh\000"
 20135      506F7274 
 20135      62313143 
 20135      6C656172 
 20135      416E6453 
 20136              	.LASF1233:
 20137 4e25 70737472 		.ascii	"pstrUsageCursorPixelPosition\000"
 20137      55736167 
 20137      65437572 
 20137      736F7250 
 20137      6978656C 
 20138              	.LASF396:
 20139 4e42 4254445F 		.ascii	"BTD_DATAOUT_PIPE\000"
 20139      44415441 
 20139      4F55545F 
 20139      50495045 
 20139      00
 20140              	.LASF635:
 20141 4e53 70737472 		.ascii	"pstrUsage11Iron\000"
 20141      55736167 
 20141      65313149 
 20141      726F6E00 
 20142              	.LASF1205:
 20143 4e63 70737472 		.ascii	"pstrUsageSecondaryTipSwitch\000"
 20143      55736167 
 20143      65536563 
 20143      6F6E6461 
 20143      72795469 
 20144              	.LASF1143:
 20145 4e7f 70737472 		.ascii	"pstrUsageACEditTimeZone\000"
 20145      55736167 
 20145      65414345 
 20145      64697454 
 20145      696D655A 
 20146              	.LASF837:
 20147 4e97 70737472 		.ascii	"pstrUsageMenuEscape\000"
 20147      55736167 
 20147      654D656E 
 20147      75457363 
 20147      61706500 
 20148              	.LASF892:
 20149 4eab 70737472 		.ascii	"pstrUsageFrameForward\000"
 20149      55736167 
 20149      65467261 
 20149      6D65466F 
 20149      72776172 
 20150              	.LASF783:
 20151 4ec1 70737472 		.ascii	"pstrUsageVoiceMail\000"
 20151      55736167 
 20151      65566F69 
 20151      63654D61 
 20151      696C00
 20152              	.LASF1277:
 20153 4ed4 70737472 		.ascii	"pstrUsageVCRAcquisition\000"
 20153      55736167 
ARM GAS  C:\Users\jrdia\AppData\Local\Temp\ccFTvYyK.s 			page 444


 20153      65564352 
 20153      41637175 
 20153      69736974 
 20154              	.LASF708:
 20155 4eec 70737472 		.ascii	"pstrUsageSpeaker\000"
 20155      55736167 
 20155      65537065 
 20155      616B6572 
 20155      00
 20156              	.LASF766:
 20157 4efd 70737472 		.ascii	"pstrUsageRedial\000"
 20157      55736167 
 20157      65526564 
 20157      69616C00 
 20158              	.LASF520:
 20159 4f0d 70737472 		.ascii	"pstrUsageSystemMenuRight\000"
 20159      55736167 
 20159      65537973 
 20159      74656D4D 
 20159      656E7552 
 20160              	.LASF910:
 20161 4f26 70737472 		.ascii	"pstrUsageTreble\000"
 20161      55736167 
 20161      65547265 
 20161      626C6500 
 20162              	.LASF433:
 20163 4f36 6F757470 		.ascii	"output\000"
 20163      757400
 20164              	.LASF266:
 20165 4f3d 61586D6F 		.ascii	"aXmove\000"
 20165      766500
 20166              	.LASF957:
 20167 4f44 70737472 		.ascii	"pstrUsageAlternateAudioIncrement\000"
 20167      55736167 
 20167      65416C74 
 20167      65726E61 
 20167      74654175 
 20168              	.LASF517:
 20169 4f65 70737472 		.ascii	"pstrUsageSystemMenuHelp\000"
 20169      55736167 
 20169      65537973 
 20169      74656D4D 
 20169      656E7548 
 20170              	.LASF439:
 20171 4f7d 50494E5F 		.ascii	"PIN_SPI_MISO\000"
 20171      5350495F 
 20171      4D49534F 
 20171      00
 20172              	.LASF1056:
 20173 4f8a 70737472 		.ascii	"pstrUsageACBookmarks\000"
 20173      55736167 
 20173      65414342 
 20173      6F6F6B6D 
 20173      61726B73 
 20174              	.LASF258:
 20175 4f9f 4F52414E 		.ascii	"ORANGE\000"
 20175      474500
ARM GAS  C:\Users\jrdia\AppData\Local\Temp\ccFTvYyK.s 			page 445


 20176              	.LASF1015:
 20177 4fa6 70737472 		.ascii	"pstrUsageALMovieBrowser\000"
 20177      55736167 
 20177      65414C4D 
 20177      6F766965 
 20177      42726F77 
 20178              	.LASF1010:
 20179 4fbe 70737472 		.ascii	"pstrUsageALClock\000"
 20179      55736167 
 20179      65414C43 
 20179      6C6F636B 
 20179      00
 20180              	.LASF891:
 20181 4fcf 70737472 		.ascii	"pstrUsageSlowTracking\000"
 20181      55736167 
 20181      65536C6F 
 20181      77547261 
 20181      636B696E 
 20182              	.LASF63:
 20183 4fe5 5F5A4E35 		.ascii	"_ZN5Portb6DirSetEh\000"
 20183      506F7274 
 20183      62364469 
 20183      72536574 
 20183      456800
 20184              	.LASF335:
 20185 4ff8 5F767074 		.ascii	"_vptr.PS4Parser\000"
 20185      722E5053 
 20185      34506172 
 20185      73657200 
 20186              	.LASF675:
 20187 5008 70737472 		.ascii	"pstrUsageDiscoverWirelessControl\000"
 20187      55736167 
 20187      65446973 
 20187      636F7665 
 20187      72576972 
 20188              	.LASF566:
 20189 5029 70737472 		.ascii	"pstrUsageAileronTrim\000"
 20189      55736167 
 20189      6541696C 
 20189      65726F6E 
 20189      5472696D 
 20190              	.LASF237:
 20191 503e 4C454654 		.ascii	"LEFT\000"
 20191      00
 20192              	.LASF284:
 20193 5043 73686172 		.ascii	"share\000"
 20193      6500
 20194              	.LASF147:
 20195 5049 466F7245 		.ascii	"ForEachUsbDevice\000"
 20195      61636855 
 20195      73624465 
 20195      76696365 
 20195      00
 20196              	.LASF1318:
 20197 505a 5350495F 		.ascii	"SPI_Start\000"
 20197      53746172 
 20197      7400
ARM GAS  C:\Users\jrdia\AppData\Local\Temp\ccFTvYyK.s 			page 446


 20198              	.LASF640:
 20199 5064 70737472 		.ascii	"pstrUsage3Wood\000"
 20199      55736167 
 20199      6533576F 
 20199      6F6400
 20200              	.LASF398:
 20201 5073 5F5A4E33 		.ascii	"_ZN3BTD13L2CAP_CommandEtPhhhh\000"
 20201      42544431 
 20201      334C3243 
 20201      41505F43 
 20201      6F6D6D61 
 20202              	.LASF1211:
 20203 5091 70737472 		.ascii	"pstrUsageDisplayAttributesReport\000"
 20203      55736167 
 20203      65446973 
 20203      706C6179 
 20203      41747472 
 20204              	.LASF1188:
 20205 50b2 70737472 		.ascii	"pstrUsageBarrelPressure\000"
 20205      55736167 
 20205      65426172 
 20205      72656C50 
 20205      72657373 
 20206              	.LASF71:
 20207 50ca 5450696E 		.ascii	"TPin<Portb, 2u>\000"
 20207      3C506F72 
 20207      74622C20 
 20207      32753E00 
 20208              	.LASF27:
 20209 50da 534B4950 		.ascii	"SKIP_NONE\000"
 20209      5F4E4F4E 
 20209      4500
 20210              	.LASF436:
 20211 50e4 70616972 		.ascii	"pair\000"
 20211      00
 20212              	.LASF1135:
 20213 50e9 70737472 		.ascii	"pstrUsageACRedoRepeat\000"
 20213      55736167 
 20213      65414352 
 20213      65646F52 
 20213      65706561 
 20214              	.LASF500:
 20215 50ff 70737472 		.ascii	"pstrUsageSelect\000"
 20215      55736167 
 20215      6553656C 
 20215      65637400 
 20216              	.LASF83:
 20217 510f 5F5A4E34 		.ascii	"_ZN4TPinI5PortbLh2EE5IsSetEv\000"
 20217      5450696E 
 20217      4935506F 
 20217      7274624C 
 20217      68324545 
 20218              	.LASF679:
 20219 512c 70737472 		.ascii	"pstrUsageNumLock\000"
 20219      55736167 
 20219      654E756D 
 20219      4C6F636B 
ARM GAS  C:\Users\jrdia\AppData\Local\Temp\ccFTvYyK.s 			page 447


 20219      00
 20220              	.LASF1057:
 20221 513d 70737472 		.ascii	"pstrUsageACHistory\000"
 20221      55736167 
 20221      65414348 
 20221      6973746F 
 20221      727900
 20222              	.LASF1004:
 20223 5150 70737472 		.ascii	"pstrUsageALWirelessStatus\000"
 20223      55736167 
 20223      65414C57 
 20223      6972656C 
 20223      65737353 
 20224              	.LASF1333:
 20225 516a 5F5F7674 		.ascii	"__vtbl_ptr_type\000"
 20225      626C5F70 
 20225      74725F74 
 20225      79706500 
 20226              	.LASF550:
 20227 517a 70737472 		.ascii	"pstrUsageSpaceshipSimulationDevice\000"
 20227      55736167 
 20227      65537061 
 20227      63657368 
 20227      69705369 
 20228              	.LASF585:
 20229 519d 70737472 		.ascii	"pstrUsageAccelerator\000"
 20229      55736167 
 20229      65416363 
 20229      656C6572 
 20229      61746F72 
 20230              	.LASF473:
 20231 51b2 70737472 		.ascii	"pstrUsagePagePointOfSale\000"
 20231      55736167 
 20231      65506167 
 20231      65506F69 
 20231      6E744F66 
 20232              	.LASF40:
 20233 51cb 65704174 		.ascii	"epAttribs\000"
 20233      74726962 
 20233      7300
 20234              	.LASF361:
 20235 51d5 67657441 		.ascii	"getAngle\000"
 20235      6E676C65 
 20235      00
 20236              	.LASF21:
 20237 51de 646F7562 		.ascii	"double\000"
 20237      6C6500
 20238              	.LASF468:
 20239 51e5 70737472 		.ascii	"pstrUsagePageMonitor\000"
 20239      55736167 
 20239      65506167 
 20239      654D6F6E 
 20239      69746F72 
 20240              	.LASF1225:
 20241 51fa 70737472 		.ascii	"pstrUsageStatusReady\000"
 20241      55736167 
 20241      65537461 
ARM GAS  C:\Users\jrdia\AppData\Local\Temp\ccFTvYyK.s 			page 448


 20241      74757352 
 20241      65616479 
 20242              	.LASF53:
 20243 520f 5F5A4E35 		.ascii	"_ZN5Portb8DirWriteEh\000"
 20243      506F7274 
 20243      62384469 
 20243      72577269 
 20243      74654568 
 20244              	.LASF87:
 20245 5224 5F5A4E34 		.ascii	"_ZN4TPinI5PortbLh2EE13WaiteForClearEv\000"
 20245      5450696E 
 20245      4935506F 
 20245      7274624C 
 20245      68324545 
 20246              	.LASF1325:
 20247 524a 44617461 		.ascii	"DataT\000"
 20247      5400
 20248              	.LASF1055:
 20249 5250 70737472 		.ascii	"pstrUsageACNextLink\000"
 20249      55736167 
 20249      6541434E 
 20249      6578744C 
 20249      696E6B00 
 20250              	.LASF413:
 20251 5264 41434C44 		.ascii	"ACLData\000"
 20251      61746100 
 20252              	.LASF1130:
 20253 526c 70737472 		.ascii	"pstrUsageACSelectParagraph\000"
 20253      55736167 
 20253      65414353 
 20253      656C6563 
 20253      74506172 
 20254              	.LASF568:
 20255 5287 70737472 		.ascii	"pstrUsageAutopilotEnable\000"
 20255      55736167 
 20255      65417574 
 20255      6F70696C 
 20255      6F74456E 
 20256              	.LASF73:
 20257 52a0 5F5A4E34 		.ascii	"_ZN4TPinI5PortbLh2EE3SetEh\000"
 20257      5450696E 
 20257      4935506F 
 20257      7274624C 
 20257      68324545 
 20258              	.LASF608:
 20259 52bb 70737472 		.ascii	"pstrUsageStereoEnable\000"
 20259      55736167 
 20259      65537465 
 20259      72656F45 
 20259      6E61626C 
 20260              	.LASF126:
 20261 52d1 62757370 		.ascii	"busprobe\000"
 20261      726F6265 
 20261      00
 20262              	.LASF97:
 20263 52da 5350495F 		.ascii	"SPI_MOSI\000"
 20263      4D4F5349 
ARM GAS  C:\Users\jrdia\AppData\Local\Temp\ccFTvYyK.s 			page 449


 20263      00
 20264              	.LASF1067:
 20265 52e3 70737472 		.ascii	"pstrUsageACScroll\000"
 20265      55736167 
 20265      65414353 
 20265      63726F6C 
 20265      6C00
 20266              	.LASF826:
 20267 52f5 70737472 		.ascii	"pstrUsageSleep\000"
 20267      55736167 
 20267      65536C65 
 20267      657000
 20268              	.LASF1193:
 20269 5304 70737472 		.ascii	"pstrUsageQuality\000"
 20269      55736167 
 20269      65517561 
 20269      6C697479 
 20269      00
 20270              	.LASF1258:
 20271 5315 70737472 		.ascii	"pstrUsageBitDepthFormat\000"
 20271      55736167 
 20271      65426974 
 20271      44657074 
 20271      68466F72 
 20272              	.LASF1163:
 20273 532d 70737472 		.ascii	"pstrUsageACInsertObject\000"
 20273      55736167 
 20273      65414349 
 20273      6E736572 
 20273      744F626A 
 20274              	.LASF873:
 20275 5345 70737472 		.ascii	"pstrUsageMediaSelectHome\000"
 20275      55736167 
 20275      654D6564 
 20275      69615365 
 20275      6C656374 
 20276              	.LASF1326:
 20277 535e 5F5A4E34 		.ascii	"_ZN4TPinI5PortbLh2EE3SetEv\000"
 20277      5450696E 
 20277      4935506F 
 20277      7274624C 
 20277      68324545 
 20278              	.LASF834:
 20279 5379 70737472 		.ascii	"pstrUsageMenuDown\000"
 20279      55736167 
 20279      654D656E 
 20279      75446F77 
 20279      6E00
 20280              	.LASF771:
 20281 538b 70737472 		.ascii	"pstrUsageAlternateFunction\000"
 20281      55736167 
 20281      65416C74 
 20281      65726E61 
 20281      74654675 
 20282              	.LASF250:
 20283 53a6 544F5543 		.ascii	"TOUCHPAD\000"
 20283      48504144 
ARM GAS  C:\Users\jrdia\AppData\Local\Temp\ccFTvYyK.s 			page 450


 20283      00
 20284              	.LASF570:
 20285 53af 70737472 		.ascii	"pstrUsageCollectiveControl\000"
 20285      55736167 
 20285      65436F6C 
 20285      6C656374 
 20285      69766543 
 20286              	.LASF43:
 20287 53ca 6570696E 		.ascii	"epinfo\000"
 20287      666F00
 20288              	.LASF776:
 20289 53d1 70737472 		.ascii	"pstrUsagePhoneMute\000"
 20289      55736167 
 20289      6550686F 
 20289      6E654D75 
 20289      746500
 20290              	.LASF973:
 20291 53e4 70737472 		.ascii	"pstrUsageALCalendarSchedule\000"
 20291      55736167 
 20291      65414C43 
 20291      616C656E 
 20291      64617253 
 20292              	.LASF351:
 20293 5400 67657441 		.ascii	"getAnalogHat\000"
 20293      6E616C6F 
 20293      67486174 
 20293      00
 20294              	.LASF78:
 20295 540d 53657444 		.ascii	"SetDirRead\000"
 20295      69725265 
 20295      616400
 20296              	.LASF749:
 20297 5418 70737472 		.ascii	"pstrUsageIndicatorColor\000"
 20297      55736167 
 20297      65496E64 
 20297      69636174 
 20297      6F72436F 
 20298              	.LASF1096:
 20299 5430 70737472 		.ascii	"pstrUsageACJustifyTop\000"
 20299      55736167 
 20299      6541434A 
 20299      75737469 
 20299      6679546F 
 20300              	.LASF9:
 20301 5446 5F5F7569 		.ascii	"__uint32_t\000"
 20301      6E743332 
 20301      5F7400
 20302              	.LASF1228:
 20303 5451 70737472 		.ascii	"pstrUsageCursorPositionReport\000"
 20303      55736167 
 20303      65437572 
 20303      736F7250 
 20303      6F736974 
 20304              	.LASF795:
 20305 546f 70737472 		.ascii	"pstrUsageReorderTone\000"
 20305      55736167 
 20305      6552656F 
ARM GAS  C:\Users\jrdia\AppData\Local\Temp\ccFTvYyK.s 			page 451


 20305      72646572 
 20305      546F6E65 
 20306              	.LASF509:
 20307 5484 70737472 		.ascii	"pstrUsageResolutionMultiplier\000"
 20307      55736167 
 20307      65526573 
 20307      6F6C7574 
 20307      696F6E4D 
 20308              	.LASF424:
 20309 54a2 64617461 		.ascii	"data\000"
 20309      00
 20310              	.LASF696:
 20311 54a7 70737472 		.ascii	"pstrUsageSamplingRateDetect\000"
 20311      55736167 
 20311      6553616D 
 20311      706C696E 
 20311      67526174 
 20312              	.LASF865:
 20313 54c3 70737472 		.ascii	"pstrUsageMediaSelectVCR\000"
 20313      55736167 
 20313      654D6564 
 20313      69615365 
 20313      6C656374 
 20314              	.LASF772:
 20315 54db 70737472 		.ascii	"pstrUsageLine\000"
 20315      55736167 
 20315      654C696E 
 20315      6500
 20316              	.LASF496:
 20317 54e9 70737472 		.ascii	"pstrUsageCountedBuffer\000"
 20317      55736167 
 20317      65436F75 
 20317      6E746564 
 20317      42756666 
 20318              	.LASF719:
 20319 5500 70737472 		.ascii	"pstrUsageCameraOff\000"
 20319      55736167 
 20319      6543616D 
 20319      6572614F 
 20319      666600
 20320              	.LASF1144:
 20321 5513 70737472 		.ascii	"pstrUsageACSetAlarm\000"
 20321      55736167 
 20321      65414353 
 20321      6574416C 
 20321      61726D00 
 20322              	.LASF1170:
 20323 5527 70737472 		.ascii	"pstrUsageACDistributeVerticaly\000"
 20323      55736167 
 20323      65414344 
 20323      69737472 
 20323      69627574 
 20324              	.LASF691:
 20325 5546 70737472 		.ascii	"pstrUsageEqualizerEnable\000"
 20325      55736167 
 20325      65457175 
 20325      616C697A 
ARM GAS  C:\Users\jrdia\AppData\Local\Temp\ccFTvYyK.s 			page 452


 20325      6572456E 
 20326              	.LASF465:
 20327 555f 70737472 		.ascii	"pstrUsagePageUnicode\000"
 20327      55736167 
 20327      65506167 
 20327      65556E69 
 20327      636F6465 
 20328              	.LASF1090:
 20329 5574 70737472 		.ascii	"pstrUsageACFontColor\000"
 20329      55736167 
 20329      65414346 
 20329      6F6E7443 
 20329      6F6C6F72 
 20330              	.LASF1321:
 20331 5589 55415254 		.ascii	"UART_Start\000"
 20331      5F537461 
 20331      727400
 20332              	.LASF1261:
 20333 5594 70737472 		.ascii	"pstrUsagePaletteDataSize\000"
 20333      55736167 
 20333      6550616C 
 20333      65747465 
 20333      44617461 
 20334              	.LASF827:
 20335 55ad 70737472 		.ascii	"pstrUsageSleepAfter\000"
 20335      55736167 
 20335      65536C65 
 20335      65704166 
 20335      74657200 
 20336              	.LASF732:
 20337 55c1 70737472 		.ascii	"pstrUsagePlay\000"
 20337      55736167 
 20337      65506C61 
 20337      7900
 20338              	.LASF311:
 20339 55cf 736D616C 		.ascii	"smallRumble\000"
 20339      6C52756D 
 20339      626C6500 
 20340              	.LASF864:
 20341 55db 70737472 		.ascii	"pstrUsageMediaSelectCD\000"
 20341      55736167 
 20341      654D6564 
 20341      69615365 
 20341      6C656374 
 20342              	.LASF402:
 20343 55f2 5F767074 		.ascii	"_vptr.BluetoothService\000"
 20343      722E426C 
 20343      7565746F 
 20343      6F746853 
 20343      65727669 
 20344              	.LASF1252:
 20345 5609 70737472 		.ascii	"pstrUsageAttributeData\000"
 20345      55736167 
 20345      65417474 
 20345      72696275 
 20345      74654461 
 20346              	.LASF1202:
ARM GAS  C:\Users\jrdia\AppData\Local\Temp\ccFTvYyK.s 			page 453


 20347 5620 70737472 		.ascii	"pstrUsageAltitude\000"
 20347      55736167 
 20347      65416C74 
 20347      69747564 
 20347      6500
 20348              	.LASF741:
 20349 5632 70737472 		.ascii	"pstrUsageIndicatorSlowBlink\000"
 20349      55736167 
 20349      65496E64 
 20349      69636174 
 20349      6F72536C 
 20350              	.LASF157:
 20351 564e 67657444 		.ascii	"getDevDescr\000"
 20351      65764465 
 20351      73637200 
 20352              	.LASF1182:
 20353 565a 70737472 		.ascii	"pstrUsageMultiplePointDigitizer\000"
 20353      55736167 
 20353      654D756C 
 20353      7469706C 
 20353      65506F69 
 20354              	.LASF1216:
 20355 567a 70737472 		.ascii	"pstrUsageClearDisplay\000"
 20355      55736167 
 20355      65436C65 
 20355      61724469 
 20355      73706C61 
 20356              	.LASF1145:
 20357 5690 70737472 		.ascii	"pstrUsageACClearAlarm\000"
 20357      55736167 
 20357      65414343 
 20357      6C656172 
 20357      416C6172 
 20358              	.LASF812:
 20359 56a6 70737472 		.ascii	"pstrUsagePhoneKeyStar\000"
 20359      55736167 
 20359      6550686F 
 20359      6E654B65 
 20359      79537461 
 20360              	.LASF1087:
 20361 56bc 70737472 		.ascii	"pstrUsageACMirrorHorizontal\000"
 20361      55736167 
 20361      6541434D 
 20361      6972726F 
 20361      72486F72 
 20362              	.LASF682:
 20363 56d8 70737472 		.ascii	"pstrUsageCompose\000"
 20363      55736167 
 20363      65436F6D 
 20363      706F7365 
 20363      00
 20364              	.LASF1022:
 20365 56e9 70737472 		.ascii	"pstrUsageALEntertainmentContentBrow\000"
 20365      55736167 
 20365      65414C45 
 20365      6E746572 
 20365      7461696E 
ARM GAS  C:\Users\jrdia\AppData\Local\Temp\ccFTvYyK.s 			page 454


 20366              	.LASF1085:
 20367 570d 70737472 		.ascii	"pstrUsageACFlipHorizontal\000"
 20367      55736167 
 20367      65414346 
 20367      6C697048 
 20367      6F72697A 
 20368              	.LASF227:
 20369 5727 4C696768 		.ascii	"Lightblue\000"
 20369      74626C75 
 20369      6500
 20370              	.LASF846:
 20371 5731 70737472 		.ascii	"pstrUsageStill\000"
 20371      55736167 
 20371      65537469 
 20371      6C6C00
 20372              	.LASF235:
 20373 5740 52494748 		.ascii	"RIGHT\000"
 20373      5400
 20374              	.LASF1033:
 20375 5746 70737472 		.ascii	"pstrUsageACClose\000"
 20375      55736167 
 20375      65414343 
 20375      6C6F7365 
 20375      00
 20376              	.LASF412:
 20377 5757 5F5A4E31 		.ascii	"_ZN16BluetoothServiceC4EP3BTD\000"
 20377      36426C75 
 20377      65746F6F 
 20377      74685365 
 20377      72766963 
 20378              	.LASF293:
 20379 5775 50533453 		.ascii	"PS4Status\000"
 20379      74617475 
 20379      7300
 20380              	.LASF177:
 20381 577f 5F5A4E33 		.ascii	"_ZN3USB11dispatchPktEhht\000"
 20381      55534231 
 20381      31646973 
 20381      70617463 
 20381      68506B74 
 20382              	.LASF1127:
 20383 5798 70737472 		.ascii	"pstrUsageACViewComment\000"
 20383      55736167 
 20383      65414356 
 20383      69657743 
 20383      6F6D6D65 
 20384              	.LASF768:
 20385 57af 70737472 		.ascii	"pstrUsageDrop\000"
 20385      55736167 
 20385      6544726F 
 20385      7000
 20386              	.LASF1024:
 20387 57bd 70737472 		.ascii	"pstrUsageALSmartCardInfoHelp\000"
 20387      55736167 
 20387      65414C53 
 20387      6D617274 
 20387      43617264 
ARM GAS  C:\Users\jrdia\AppData\Local\Temp\ccFTvYyK.s 			page 455


 20388              	.LASF444:
 20389 57da 55736244 		.ascii	"UsbDEBUGlvl\000"
 20389      45425547 
 20389      6C766C00 
 20390              	.LASF1291:
 20391 57e6 70737472 		.ascii	"pstrUsageDepthGainCompensation\000"
 20391      55736167 
 20391      65446570 
 20391      74684761 
 20391      696E436F 
 20392              	.LASF665:
 20393 5805 70737472 		.ascii	"pstrUsageGunSelector\000"
 20393      55736167 
 20393      6547756E 
 20393      53656C65 
 20393      63746F72 
 20394              	.LASF700:
 20395 581a 70737472 		.ascii	"pstrUsageRecordingFormatDetect\000"
 20395      55736167 
 20395      65526563 
 20395      6F726469 
 20395      6E67466F 
 20396              	.LASF1209:
 20397 5839 70737472 		.ascii	"pstrUsageAlphanumericDisplay\000"
 20397      55736167 
 20397      65416C70 
 20397      68616E75 
 20397      6D657269 
 20398              	.LASF811:
 20399 5856 70737472 		.ascii	"pstrUsagePhoneKey9\000"
 20399      55736167 
 20399      6550686F 
 20399      6E654B65 
 20399      793900
 20400              	.LASF1280:
 20401 5869 70737472 		.ascii	"pstrUsageUpdate\000"
 20401      55736167 
 20401      65557064 
 20401      61746500 
 20402              	.LASF271:
 20403 5879 67596D6F 		.ascii	"gYmove\000"
 20403      766500
 20404              	.LASF92:
 20405 5880 5350693C 		.ascii	"SPi<TPin<Portb, 5u>, TPin<Portb, 3u>, TPin<Portb, 4"
 20405      5450696E 
 20405      3C506F72 
 20405      74622C20 
 20405      35753E2C 
 20406 58b3 753E2C20 		.ascii	"u>, TPin<Portb, 2u> >\000"
 20406      5450696E 
 20406      3C506F72 
 20406      74622C20 
 20406      32753E20 
 20407              	.LASF1046:
 20408 58c9 70737472 		.ascii	"pstrUsageACFindAndReplace\000"
 20408      55736167 
 20408      65414346 
ARM GAS  C:\Users\jrdia\AppData\Local\Temp\ccFTvYyK.s 			page 456


 20408      696E6441 
 20408      6E645265 
 20409              	.LASF12:
 20410 58e3 6C6F6E67 		.ascii	"long long unsigned int\000"
 20410      206C6F6E 
 20410      6720756E 
 20410      7369676E 
 20410      65642069 
 20411              	.LASF676:
 20412 58fa 70737472 		.ascii	"pstrUsageSecurityCodeCharEntered\000"
 20412      55736167 
 20412      65536563 
 20412      75726974 
 20412      79436F64 
 20413              	.LASF367:
 20414 591b 67657455 		.ascii	"getUsbStatus\000"
 20414      73625374 
 20414      61747573 
 20414      00
 20415              	.LASF882:
 20416 5928 70737472 		.ascii	"pstrUsageMonthly\000"
 20416      55736167 
 20416      654D6F6E 
 20416      74686C79 
 20416      00
 20417              	.LASF162:
 20418 5939 67657453 		.ascii	"getStrDescr\000"
 20418      74724465 
 20418      73637200 
 20419              	.LASF376:
 20420 5945 5F5A4E39 		.ascii	"_ZN9PS4Parser12setRumbleOffEv\000"
 20420      50533450 
 20420      61727365 
 20420      72313273 
 20420      65745275 
 20421              	.LASF55:
 20422 5963 44697252 		.ascii	"DirRead\000"
 20422      65616400 
 20423              	.LASF949:
 20424 596b 70737472 		.ascii	"pstrUsageChannelSide\000"
 20424      55736167 
 20424      65436861 
 20424      6E6E656C 
 20424      53696465 
 20425              	.LASF847:
 20426 5980 70737472 		.ascii	"pstrUsageSelection\000"
 20426      55736167 
 20426      6553656C 
 20426      65637469 
 20426      6F6E00
 20427              	.LASF815:
 20428 5993 70737472 		.ascii	"pstrUsagePhoneKeyB\000"
 20428      55736167 
 20428      6550686F 
 20428      6E654B65 
 20428      794200
 20429              	.LASF95:
ARM GAS  C:\Users\jrdia\AppData\Local\Temp\ccFTvYyK.s 			page 457


 20430 59a6 504F5254 		.ascii	"PORT\000"
 20430      00
 20431              	.LASF392:
 20432 59ab 5F5A4E39 		.ascii	"_ZN9PS4Parser9checkDpadE10ButtonEnum\000"
 20432      50533450 
 20432      61727365 
 20432      72396368 
 20432      65636B44 
 20433              	.LASF727:
 20434 59d0 70737472 		.ascii	"pstrUsageForward\000"
 20434      55736167 
 20434      65466F72 
 20434      77617264 
 20434      00
 20435              	.LASF410:
 20436 59e1 5F5A4E31 		.ascii	"_ZN16BluetoothServiceD4Ev\000"
 20436      36426C75 
 20436      65746F6F 
 20436      74685365 
 20436      72766963 
 20437              	.LASF297:
 20438 59fb 50533444 		.ascii	"PS4Data\000"
 20438      61746100 
 20439              	.LASF674:
 20440 5a03 70737472 		.ascii	"pstrUsageWirelessID\000"
 20440      55736167 
 20440      65576972 
 20440      656C6573 
 20440      73494400 
 20441              	.LASF259:
 20442 5a17 424C5545 		.ascii	"BLUE\000"
 20442      00
 20443              	.LASF1069:
 20444 5a1c 70737472 		.ascii	"pstrUsageACPanRight\000"
 20444      55736167 
 20444      65414350 
 20444      616E5269 
 20444      67687400 
 20445              	.LASF638:
 20446 5a30 70737472 		.ascii	"pstrUsagePowerWedge\000"
 20446      55736167 
 20446      65506F77 
 20446      65725765 
 20446      64676500 
 20447              	.LASF823:
 20448 5a44 70737472 		.ascii	"pstrUsagePlus100\000"
 20448      55736167 
 20448      65506C75 
 20448      73313030 
 20448      00
 20449              	.LASF791:
 20450 5a55 70737472 		.ascii	"pstrUsagePriorityRingTone\000"
 20450      55736167 
 20450      65507269 
 20450      6F726974 
 20450      7952696E 
 20451              	.LASF118:
ARM GAS  C:\Users\jrdia\AppData\Local\Temp\ccFTvYyK.s 			page 458


 20452 5a6f 496E6974 		.ascii	"Init\000"
 20452      00
 20453              	.LASF1215:
 20454 5a74 70737472 		.ascii	"pstrUsageDisplayControlReport\000"
 20454      55736167 
 20454      65446973 
 20454      706C6179 
 20454      436F6E74 
 20455              	.LASF775:
 20456 5a92 70737472 		.ascii	"pstrUsageRingSelect\000"
 20456      55736167 
 20456      6552696E 
 20456      6753656C 
 20456      65637400 
 20457              	.LASF1331:
 20458 5aa6 5F5A4E35 		.ascii	"_ZN5PS4BT11HID_CommandEPhh\000"
 20458      50533442 
 20458      54313148 
 20458      49445F43 
 20458      6F6D6D61 
 20459              	.LASF89:
 20460 5ac1 5450696E 		.ascii	"TPin<Portb, 3u>\000"
 20460      3C506F72 
 20460      74622C20 
 20460      33753E00 
 20461              	.LASF919:
 20462 5ad1 70737472 		.ascii	"pstrUsageStandardPlay\000"
 20462      55736167 
 20462      65537461 
 20462      6E646172 
 20462      64506C61 
 20463              	.LASF984:
 20464 5ae7 70737472 		.ascii	"pstrUsageALNetworkChat\000"
 20464      55736167 
 20464      65414C4E 
 20464      6574776F 
 20464      726B4368 
 20465              	.LASF788:
 20466 5afe 70737472 		.ascii	"pstrUsageOutsideDialTone\000"
 20466      55736167 
 20466      654F7574 
 20466      73696465 
 20466      4469616C 
 20467              	.LASF943:
 20468 5b17 70737472 		.ascii	"pstrUsageSpeakerSystem\000"
 20468      55736167 
 20468      65537065 
 20468      616B6572 
 20468      53797374 
 20469              	.LASF739:
 20470 5b2e 70737472 		.ascii	"pstrUsageIndicatorOn\000"
 20470      55736167 
 20470      65496E64 
 20470      69636174 
 20470      6F724F6E 
 20471              	.LASF1065:
 20472 5b43 70737472 		.ascii	"pstrUsageACScrollUp\000"
ARM GAS  C:\Users\jrdia\AppData\Local\Temp\ccFTvYyK.s 			page 459


 20472      55736167 
 20472      65414353 
 20472      63726F6C 
 20472      6C557000 
 20473              	.LASF352:
 20474 5b57 5F5A4E39 		.ascii	"_ZN9PS4Parser12getAnalogHatE13AnalogHatEnum\000"
 20474      50533450 
 20474      61727365 
 20474      72313267 
 20474      6574416E 
 20475              	.LASF592:
 20476 5b83 70737472 		.ascii	"pstrUsageDivePlane\000"
 20476      55736167 
 20476      65446976 
 20476      65506C61 
 20476      6E6500
 20477              	.LASF632:
 20478 5b96 70737472 		.ascii	"pstrUsage8Iron\000"
 20478      55736167 
 20478      65384972 
 20478      6F6E00
 20479              	.LASF792:
 20480 5ba5 70737472 		.ascii	"pstrUsageInsideRingback\000"
 20480      55736167 
 20480      65496E73 
 20480      69646552 
 20480      696E6762 
 20481              	.LASF762:
 20482 5bbd 70737472 		.ascii	"pstrUsageProgrammableButton\000"
 20482      55736167 
 20482      6550726F 
 20482      6772616D 
 20482      6D61626C 
 20483              	.LASF149:
 20484 5bd9 67657455 		.ascii	"getUsbTaskState\000"
 20484      73625461 
 20484      736B5374 
 20484      61746500 
 20485              	.LASF896:
 20486 5be9 70737472 		.ascii	"pstrUsageRepeatFromMark\000"
 20486      55736167 
 20486      65526570 
 20486      65617446 
 20486      726F6D4D 
 20487              	.LASF37:
 20488 5c01 626D5061 		.ascii	"bmParent\000"
 20488      72656E74 
 20488      00
 20489              	.LASF229:
 20490 5c0a 50757262 		.ascii	"Purble\000"
 20490      6C6500
 20491              	.LASF1154:
 20492 5c11 70737472 		.ascii	"pstrUsageACSend\000"
 20492      55736167 
 20492      65414353 
 20492      656E6400 
 20493              	.LASF349:
ARM GAS  C:\Users\jrdia\AppData\Local\Temp\ccFTvYyK.s 			page 460


 20494 5c21 67657441 		.ascii	"getAnalogButton\000"
 20494      6E616C6F 
 20494      67427574 
 20494      746F6E00 
 20495              	.LASF796:
 20496 5c31 70737472 		.ascii	"pstrUsageCallWaitingTone\000"
 20496      55736167 
 20496      6543616C 
 20496      6C576169 
 20496      74696E67 
 20497              	.LASF794:
 20498 5c4a 70737472 		.ascii	"pstrUsageLineBusyTone\000"
 20498      55736167 
 20498      654C696E 
 20498      65427573 
 20498      79546F6E 
 20499              	.LASF1172:
 20500 5c60 70737472 		.ascii	"pstrUsagePen\000"
 20500      55736167 
 20500      6550656E 
 20500      00
 20501              	.LASF446:
 20502 5c6d 70737472 		.ascii	"pstrCRLF\000"
 20502      43524C46 
 20502      00
 20503              	.LASF535:
 20504 5c76 70737472 		.ascii	"pstrUsageApplicationBreak\000"
 20504      55736167 
 20504      65417070 
 20504      6C696361 
 20504      74696F6E 
 20505              	.LASF1032:
 20506 5c90 70737472 		.ascii	"pstrUsageACOpen\000"
 20506      55736167 
 20506      6541434F 
 20506      70656E00 
 20507              	.LASF350:
 20508 5ca0 5F5A4E39 		.ascii	"_ZN9PS4Parser15getAnalogButtonE10ButtonEnum\000"
 20508      50533450 
 20508      61727365 
 20508      72313567 
 20508      6574416E 
 20509              	.LASF384:
 20510 5ccc 5F5A4E39 		.ascii	"_ZN9PS4Parser6setLedE10ColorsEnum\000"
 20510      50533450 
 20510      61727365 
 20510      72367365 
 20510      744C6564 
 20511              	.LASF298:
 20512 5cee 68617456 		.ascii	"hatValue\000"
 20512      616C7565 
 20512      00
 20513              	.LASF979:
 20514 5cf7 70737472 		.ascii	"pstrUsageALLocalMachineBrowser\000"
 20514      55736167 
 20514      65414C4C 
 20514      6F63616C 
ARM GAS  C:\Users\jrdia\AppData\Local\Temp\ccFTvYyK.s 			page 461


 20514      4D616368 
 20515              	.LASF485:
 20516 5d16 70737472 		.ascii	"pstrUsageTabletPCSystemControls\000"
 20516      55736167 
 20516      65546162 
 20516      6C657450 
 20516      43537973 
 20517              	.LASF1201:
 20518 5d36 70737472 		.ascii	"pstrUsageAzimuth\000"
 20518      55736167 
 20518      65417A69 
 20518      6D757468 
 20518      00
 20519              	.LASF265:
 20520 5d47 53656E73 		.ascii	"SensorEnum\000"
 20520      6F72456E 
 20520      756D00
 20521              	.LASF717:
 20522 5d52 70737472 		.ascii	"pstrUsageStandBy\000"
 20522      55736167 
 20522      65537461 
 20522      6E644279 
 20522      00
 20523              	.LASF1017:
 20524 5d63 70737472 		.ascii	"pstrUsageALDigitalWallet\000"
 20524      55736167 
 20524      65414C44 
 20524      69676974 
 20524      616C5761 
 20525              	.LASF607:
 20526 5d7c 70737472 		.ascii	"pstrUsageAnimatronicDevice\000"
 20526      55736167 
 20526      65416E69 
 20526      6D617472 
 20526      6F6E6963 
 20527              	.LASF217:
 20528 5d97 44455653 		.ascii	"DEVSUBCLASSOK\000"
 20528      5542434C 
 20528      4153534F 
 20528      4B00
 20529              	.LASF508:
 20530 5da5 70737472 		.ascii	"pstrUsageFeatureNotification\000"
 20530      55736167 
 20530      65466561 
 20530      74757265 
 20530      4E6F7469 
 20531              	.LASF1088:
 20532 5dc2 70737472 		.ascii	"pstrUsageACMirrorVertical\000"
 20532      55736167 
 20532      6541434D 
 20532      6972726F 
 20532      72566572 
 20533              	.LASF393:
 20534 5ddc 4254445F 		.ascii	"BTD_CONTROL_PIPE\000"
 20534      434F4E54 
 20534      524F4C5F 
 20534      50495045 
ARM GAS  C:\Users\jrdia\AppData\Local\Temp\ccFTvYyK.s 			page 462


 20534      00
 20535              	.LASF992:
 20536 5ded 70737472 		.ascii	"pstrUsageALProcessTaskManager\000"
 20536      55736167 
 20536      65414C50 
 20536      726F6365 
 20536      73735461 
 20537              	.LASF1133:
 20538 5e0b 70737472 		.ascii	"pstrUsageACSelectTable\000"
 20538      55736167 
 20538      65414353 
 20538      656C6563 
 20538      74546162 
 20539              	.LASF583:
 20540 5e22 70737472 		.ascii	"pstrUsageWeaponsSelect\000"
 20540      55736167 
 20540      65576561 
 20540      706F6E73 
 20540      53656C65 
 20541              	.LASF143:
 20542 5e39 47657441 		.ascii	"GetAddressPool\000"
 20542      64647265 
 20542      7373506F 
 20542      6F6C00
 20543              	.LASF495:
 20544 5e48 70737472 		.ascii	"pstrUsageHatSwitch\000"
 20544      55736167 
 20544      65486174 
 20544      53776974 
 20544      636800
 20545              	.LASF899:
 20546 5e5b 70737472 		.ascii	"pstrUsageSearchMarkBackwards\000"
 20546      55736167 
 20546      65536561 
 20546      7263684D 
 20546      61726B42 
 20547              	.LASF831:
 20548 5e78 70737472 		.ascii	"pstrUsageMenu\000"
 20548      55736167 
 20548      654D656E 
 20548      7500
 20549              	.LASF1214:
 20550 5e86 70737472 		.ascii	"pstrUsageFontReadBack\000"
 20550      55736167 
 20550      65466F6E 
 20550      74526561 
 20550      64426163 
 20551              	.LASF1153:
 20552 5e9c 70737472 		.ascii	"pstrUsageACForwardMessage\000"
 20552      55736167 
 20552      65414346 
 20552      6F727761 
 20552      72644D65 
 20553              	.LASF820:
 20554 5eb6 70737472 		.ascii	"pstrUsageHeadphone\000"
 20554      55736167 
 20554      65486561 
ARM GAS  C:\Users\jrdia\AppData\Local\Temp\ccFTvYyK.s 			page 463


 20554      6470686F 
 20554      6E6500
 20555              	.LASF28:
 20556 5ec9 534B4950 		.ascii	"SKIP_WHITESPACE\000"
 20556      5F574849 
 20556      54455350 
 20556      41434500 
 20557              	.LASF1269:
 20558 5ed9 70737472 		.ascii	"pstrUsageBlitData\000"
 20558      55736167 
 20558      65426C69 
 20558      74446174 
 20558      6100
 20559              	.LASF542:
 20560 5eeb 70737472 		.ascii	"pstrUsageSystemDisplayBoth\000"
 20560      55736167 
 20560      65537973 
 20560      74656D44 
 20560      6973706C 
 20561              	.LASF1051:
 20562 5f06 70737472 		.ascii	"pstrUsageACForward\000"
 20562      55736167 
 20562      65414346 
 20562      6F727761 
 20562      726400
 20563              	.LASF240:
 20564 5f19 484F4D45 		.ascii	"HOME\000"
 20564      00
 20565              	.LASF718:
 20566 5f1e 70737472 		.ascii	"pstrUsageCameraOn\000"
 20566      55736167 
 20566      6543616D 
 20566      6572614F 
 20566      6E00
 20567              	.LASF82:
 20568 5f30 49735365 		.ascii	"IsSet\000"
 20568      7400
 20569              	.LASF447:
 20570 5f36 70737472 		.ascii	"pstrSingleTab\000"
 20570      53696E67 
 20570      6C655461 
 20570      6200
 20571              	.LASF1111:
 20572 5f44 70737472 		.ascii	"pstrUsageACBuyChkout\000"
 20572      55736167 
 20572      65414342 
 20572      75794368 
 20572      6B6F7574 
 20573              	.LASF11:
 20574 5f59 6C6F6E67 		.ascii	"long long int\000"
 20574      206C6F6E 
 20574      6720696E 
 20574      7400
 20575              	.LASF1274:
 20576 5f67 70737472 		.ascii	"pstrUsageSoftButtonOffset2\000"
 20576      55736167 
 20576      65536F66 
ARM GAS  C:\Users\jrdia\AppData\Local\Temp\ccFTvYyK.s 			page 464


 20576      74427574 
 20576      746F6E4F 
 20577              	.LASF272:
 20578 5f82 74656D70 		.ascii	"tempMove\000"
 20578      4D6F7665 
 20578      00
 20579              	.LASF1136:
 20580 5f8b 70737472 		.ascii	"pstrUsageACSort\000"
 20580      55736167 
 20580      65414353 
 20580      6F727400 
 20581              	.LASF989:
 20582 5f9b 70737472 		.ascii	"pstrUsageALTermLockScrSav\000"
 20582      55736167 
 20582      65414C54 
 20582      65726D4C 
 20582      6F636B53 
 20583              	.LASF1054:
 20584 5fb5 70737472 		.ascii	"pstrUsageACPreviousLink\000"
 20584      55736167 
 20584      65414350 
 20584      72657669 
 20584      6F75734C 
 20585              	.LASF548:
 20586 5fcd 70737472 		.ascii	"pstrUsageAutomobileSimulationDevice\000"
 20586      55736167 
 20586      65417574 
 20586      6F6D6F62 
 20586      696C6553 
 20587              	.LASF1000:
 20588 5ff1 70737472 		.ascii	"pstrUsageALDictionary\000"
 20588      55736167 
 20588      65414C44 
 20588      69637469 
 20588      6F6E6172 
 20589              	.LASF858:
 20590 6007 70737472 		.ascii	"pstrUsageMediaSelectDVD\000"
 20590      55736167 
 20590      654D6564 
 20590      69615365 
 20590      6C656374 
 20591              	.LASF692:
 20592 601f 70737472 		.ascii	"pstrUsageSoundFieldOn\000"
 20592      55736167 
 20592      65536F75 
 20592      6E644669 
 20592      656C644F 
 20593              	.LASF663:
 20594 6035 70737472 		.ascii	"pstrUsageGunBolt\000"
 20594      55736167 
 20594      6547756E 
 20594      426F6C74 
 20594      00
 20595              	.LASF167:
 20596 6046 5F5A4E33 		.ascii	"_ZN3USB7setConfEhhh\000"
 20596      55534237 
 20596      73657443 
ARM GAS  C:\Users\jrdia\AppData\Local\Temp\ccFTvYyK.s 			page 465


 20596      6F6E6645 
 20596      68686800 
 20597              	.LASF540:
 20598 605a 70737472 		.ascii	"pstrUsageSystemDisplayInternal\000"
 20598      55736167 
 20598      65537973 
 20598      74656D44 
 20598      6973706C 
 20599              	.LASF673:
 20600 6079 70737472 		.ascii	"pstrUsageWirelessChannel\000"
 20600      55736167 
 20600      65576972 
 20600      656C6573 
 20600      73436861 
 20601              	.LASF1128:
 20602 6092 70737472 		.ascii	"pstrUsageACSelectWord\000"
 20602      55736167 
 20602      65414353 
 20602      656C6563 
 20602      74576F72 
 20603              	.LASF1120:
 20604 60a8 70737472 		.ascii	"pstrUsageACDelete\000"
 20604      55736167 
 20604      65414344 
 20604      656C6574 
 20604      6500
 20605              	.LASF1250:
 20606 60ba 70737472 		.ascii	"pstrUsageCharacterAttribute\000"
 20606      55736167 
 20606      65436861 
 20606      72616374 
 20606      65724174 
 20607              	.LASF1072:
 20608 60d6 70737472 		.ascii	"pstrUsageACTileHoriz\000"
 20608      55736167 
 20608      65414354 
 20608      696C6548 
 20608      6F72697A 
 20609              	.LASF194:
 20610 60eb 5F5A4E33 		.ascii	"_ZN3USB4initEv\000"
 20610      55534234 
 20610      696E6974 
 20610      457600
 20611              	.LASF629:
 20612 60fa 70737472 		.ascii	"pstrUsage5Iron\000"
 20612      55736167 
 20612      65354972 
 20612      6F6E00
 20613              	.LASF615:
 20614 6109 70737472 		.ascii	"pstrUsageSlope\000"
 20614      55736167 
 20614      65536C6F 
 20614      706500
 20615              	.LASF733:
 20616 6118 70737472 		.ascii	"pstrUsagePause\000"
 20616      55736167 
 20616      65506175 
ARM GAS  C:\Users\jrdia\AppData\Local\Temp\ccFTvYyK.s 			page 466


 20616      736500
 20617              	.LASF363:
 20618 6127 67657453 		.ascii	"getSensor\000"
 20618      656E736F 
 20618      7200
 20619              	.LASF1323:
 20620 6131 6D61696E 		.ascii	"main.c\000"
 20620      2E6300
 20621              	.LASF1062:
 20622 6138 70737472 		.ascii	"pstrUsageACFullScreenView\000"
 20622      55736167 
 20622      65414346 
 20622      756C6C53 
 20622      63726565 
 20623              	.LASF323:
 20624 6152 5F5A4E35 		.ascii	"_ZN5PS4BT11OnInitBTHIDEv\000"
 20624      50533442 
 20624      5431314F 
 20624      6E496E69 
 20624      74425448 
 20625              	.LASF537:
 20626 616b 70737472 		.ascii	"pstrUsageSystemSpeakerMute\000"
 20626      55736167 
 20626      65537973 
 20626      74656D53 
 20626      7065616B 
 20627              	.LASF416:
 20628 6186 5F5A4E31 		.ascii	"_ZN16BluetoothService5ResetEv\000"
 20628      36426C75 
 20628      65746F6F 
 20628      74685365 
 20628      72766963 
 20629              	.LASF463:
 20630 61a4 70737472 		.ascii	"pstrUsagePageDigitizer\000"
 20630      55736167 
 20630      65506167 
 20630      65446967 
 20630      6974697A 
 20631              	.LASF1093:
 20632 61bb 70737472 		.ascii	"pstrUsageACJustifyCenterH\000"
 20632      55736167 
 20632      6541434A 
 20632      75737469 
 20632      66794365 
 20633              	.LASF602:
 20634 61d5 70737472 		.ascii	"pstrUsageHeadTracker\000"
 20634      55736167 
 20634      65486561 
 20634      64547261 
 20634      636B6572 
 20635              	.LASF519:
 20636 61ea 70737472 		.ascii	"pstrUsageSystemMenuSelect\000"
 20636      55736167 
 20636      65537973 
 20636      74656D4D 
 20636      656E7553 
 20637              	.LASF1242:
ARM GAS  C:\Users\jrdia\AppData\Local\Temp\ccFTvYyK.s 			page 467


 20638 6204 70737472 		.ascii	"pstrUsageCharacterSpacingVertical\000"
 20638      55736167 
 20638      65436861 
 20638      72616374 
 20638      65725370 
 20639              	.LASF975:
 20640 6226 70737472 		.ascii	"pstrUsageALLogJournalTimecard\000"
 20640      55736167 
 20640      65414C4C 
 20640      6F674A6F 
 20640      75726E61 
 20641              	.LASF881:
 20642 6244 70737472 		.ascii	"pstrUsageWeekly\000"
 20642      55736167 
 20642      65576565 
 20642      6B6C7900 
 20643              	.LASF184:
 20644 6254 5F5A4E33 		.ascii	"_ZN3USB13ReleaseDeviceEh\000"
 20644      55534231 
 20644      3352656C 
 20644      65617365 
 20644      44657669 
 20645              	.LASF279:
 20646 626d 64706164 		.ascii	"dpad\000"
 20646      00
 20647              	.LASF216:
 20648 6272 52657365 		.ascii	"ResetHubPort\000"
 20648      74487562 
 20648      506F7274 
 20648      00
 20649              	.LASF286:
 20650 627f 746F7563 		.ascii	"touchpad\000"
 20650      68706164 
 20650      00
 20651              	.LASF861:
 20652 6288 70737472 		.ascii	"pstrUsageMediaSelectVideoPhone\000"
 20652      55736167 
 20652      654D6564 
 20652      69615365 
 20652      6C656374 
 20653              	.LASF854:
 20654 62a7 70737472 		.ascii	"pstrUsageMediaSelection\000"
 20654      55736167 
 20654      654D6564 
 20654      69615365 
 20654      6C656374 
 20655              	.LASF954:
 20656 62bf 70737472 		.ascii	"pstrUsageSubChannel\000"
 20656      55736167 
 20656      65537562 
 20656      4368616E 
 20656      6E656C00 
 20657              	.LASF1082:
 20658 62d3 70737472 		.ascii	"pstrUsageACAllCaps\000"
 20658      55736167 
 20658      65414341 
 20658      6C6C4361 
ARM GAS  C:\Users\jrdia\AppData\Local\Temp\ccFTvYyK.s 			page 468


 20658      707300
 20659              	.LASF274:
 20660 62e6 6D5A6D6F 		.ascii	"mZmove\000"
 20660      766500
 20661              	.LASF530:
 20662 62ed 70737472 		.ascii	"pstrUsageSystemDock\000"
 20662      55736167 
 20662      65537973 
 20662      74656D44 
 20662      6F636B00 
 20663              	.LASF667:
 20664 6301 70737472 		.ascii	"pstrUsageGunBurst\000"
 20664      55736167 
 20664      6547756E 
 20664      42757273 
 20664      7400
 20665              	.LASF85:
 20666 6313 5F5A4E34 		.ascii	"_ZN4TPinI5PortbLh2EE11WaiteForSetEv\000"
 20666      5450696E 
 20666      4935506F 
 20666      7274624C 
 20666      68324545 
 20667              	.LASF912:
 20668 6337 70737472 		.ascii	"pstrUsageSurroundMode\000"
 20668      55736167 
 20668      65537572 
 20668      726F756E 
 20668      644D6F64 
 20669              	.LASF451:
 20670 634d 70737472 		.ascii	"pstrUsagePageGenericDesktopControls\000"
 20670      55736167 
 20670      65506167 
 20670      6547656E 
 20670      65726963 
 20671              	.LASF1081:
 20672 6371 70737472 		.ascii	"pstrUsageACSuperscript\000"
 20672      55736167 
 20672      65414353 
 20672      75706572 
 20672      73637269 
 20673              	.LASF332:
 20674 6388 6F6E496E 		.ascii	"onInit\000"
 20674      697400
 20675              	.LASF884:
 20676 638f 70737472 		.ascii	"pstrUsageScanPreviousTrack\000"
 20676      55736167 
 20676      65536361 
 20676      6E507265 
 20676      76696F75 
 20677              	.LASF312:
 20678 63aa 666C6173 		.ascii	"flashOn\000"
 20678      684F6E00 
 20679              	.LASF1296:
 20680 63b2 70737472 		.ascii	"pstrUsageColorDopplerModeSelect\000"
 20680      55736167 
 20680      65436F6C 
 20680      6F72446F 
ARM GAS  C:\Users\jrdia\AppData\Local\Temp\ccFTvYyK.s 			page 469


 20680      70706C65 
 20681              	.LASF990:
 20682 63d2 70737472 		.ascii	"pstrUsageALControlPannel\000"
 20682      55736167 
 20682      65414C43 
 20682      6F6E7472 
 20682      6F6C5061 
 20683              	.LASF916:
 20684 63eb 70737472 		.ascii	"pstrUsageVolumeDecrement\000"
 20684      55736167 
 20684      65566F6C 
 20684      756D6544 
 20684      65637265 
 20685              	.LASF417:
 20686 6404 5F5A4E31 		.ascii	"_ZN16BluetoothService10disconnectEv\000"
 20686      36426C75 
 20686      65746F6F 
 20686      74685365 
 20686      72766963 
 20687              	.LASF1262:
 20688 6428 70737472 		.ascii	"pstrUsagePaletteDataOffset\000"
 20688      55736167 
 20688      6550616C 
 20688      65747465 
 20688      44617461 
 20689              	.LASF552:
 20690 6443 70737472 		.ascii	"pstrUsageSailingSimulationDevice\000"
 20690      55736167 
 20690      65536169 
 20690      6C696E67 
 20690      53696D75 
 20691              	.LASF1160:
 20692 6464 70737472 		.ascii	"pstrUsageACInsertColumn\000"
 20692      55736167 
 20692      65414349 
 20692      6E736572 
 20692      74436F6C 
 20693              	.LASF1002:
 20694 647c 70737472 		.ascii	"pstrUsageALSpellCheck\000"
 20694      55736167 
 20694      65414C53 
 20694      70656C6C 
 20694      43686563 
 20695              	.LASF659:
 20696 6492 70737472 		.ascii	"pstrUsageBump\000"
 20696      55736167 
 20696      6542756D 
 20696      7000
 20697              	.LASF0:
 20698 64a0 5F5F696E 		.ascii	"__int8_t\000"
 20698      74385F74 
 20698      00
 20699              	.LASF523:
 20700 64a9 70737472 		.ascii	"pstrUsageSystemMenuDown\000"
 20700      55736167 
 20700      65537973 
 20700      74656D4D 
ARM GAS  C:\Users\jrdia\AppData\Local\Temp\ccFTvYyK.s 			page 470


 20700      656E7544 
 20701              	.LASF90:
 20702 64c1 5450696E 		.ascii	"TPin<Portb, 4u>\000"
 20702      3C506F72 
 20702      74622C20 
 20702      34753E00 
 20703              	.LASF50:
 20704 64d1 5F5A4E35 		.ascii	"_ZN5Portb5WriteEh\000"
 20704      506F7274 
 20704      62355772 
 20704      69746545 
 20704      6800
 20705              	.LASF1335:
 20706 64e3 6D61696E 		.ascii	"main\000"
 20706      00
 20707              	.LASF934:
 20708 64e8 70737472 		.ascii	"pstrUsageDuresAlarm\000"
 20708      55736167 
 20708      65447572 
 20708      6573416C 
 20708      61726D00 
 20709              	.LASF1171:
 20710 64fc 70737472 		.ascii	"pstrUsageDigitizer\000"
 20710      55736167 
 20710      65446967 
 20710      6974697A 
 20710      657200
 20711              	.LASF529:
 20712 650f 70737472 		.ascii	"pstrUsageDPadLeft\000"
 20712      55736167 
 20712      65445061 
 20712      644C6566 
 20712      7400
 20713              	.LASF1298:
 20714 6521 70737472 		.ascii	"pstrUsageMotionModeSelect\000"
 20714      55736167 
 20714      654D6F74 
 20714      696F6E4D 
 20714      6F646553 
 20715              	.LASF988:
 20716 653b 70737472 		.ascii	"pstrUsageALLogonLogoff\000"
 20716      55736167 
 20716      65414C4C 
 20716      6F676F6E 
 20716      4C6F676F 
 20717              	.LASF111:
 20718 6552 62797465 		.ascii	"bytesRd\000"
 20718      73526400 
 20719              	.LASF1196:
 20720 655a 70737472 		.ascii	"pstrUsageTabletFunctionKeys\000"
 20720      55736167 
 20720      65546162 
 20720      6C657446 
 20720      756E6374 
 20721              	.LASF569:
 20722 6576 70737472 		.ascii	"pstrUsageChaffRelease\000"
 20722      55736167 
ARM GAS  C:\Users\jrdia\AppData\Local\Temp\ccFTvYyK.s 			page 471


 20722      65436861 
 20722      66665265 
 20722      6C656173 
 20723              	.LASF901:
 20724 658c 70737472 		.ascii	"pstrUsageShowCounter\000"
 20724      55736167 
 20724      6553686F 
 20724      77436F75 
 20724      6E746572 
 20725              	.LASF13:
 20726 65a1 756E7369 		.ascii	"unsigned int\000"
 20726      676E6564 
 20726      20696E74 
 20726      00
 20727              	.LASF921:
 20728 65ae 70737472 		.ascii	"pstrUsageExtendedPlay\000"
 20728      55736167 
 20728      65457874 
 20728      656E6465 
 20728      64506C61 
 20729              	.LASF152:
 20730 65c4 5F5A4E33 		.ascii	"_ZN3USB15setUsbTaskStateEh\000"
 20730      55534231 
 20730      35736574 
 20730      55736254 
 20730      61736B53 
 20731              	.LASF577:
 20732 65df 70737472 		.ascii	"pstrUsageFlightCommunications\000"
 20732      55736167 
 20732      65466C69 
 20732      67687443 
 20732      6F6D6D75 
 20733              	.LASF694:
 20734 65fd 70737472 		.ascii	"pstrUsageRepeat\000"
 20734      55736167 
 20734      65526570 
 20734      65617400 
 20735              	.LASF906:
 20736 660d 70737472 		.ascii	"pstrUsagePlaySkip\000"
 20736      55736167 
 20736      65506C61 
 20736      79536B69 
 20736      7000
 20737              	.LASF1241:
 20738 661f 70737472 		.ascii	"pstrUsageCharacterSpacingHorizontal\000"
 20738      55736167 
 20738      65436861 
 20738      72616374 
 20738      65725370 
 20739              	.LASF210:
 20740 6643 47657441 		.ascii	"GetAddress\000"
 20740      64647265 
 20740      737300
 20741              	.LASF671:
 20742 664e 70737472 		.ascii	"pstrUsageGamepadTrigger\000"
 20742      55736167 
 20742      6547616D 
ARM GAS  C:\Users\jrdia\AppData\Local\Temp\ccFTvYyK.s 			page 472


 20742      65706164 
 20742      54726967 
 20743              	.LASF291:
 20744 6666 64756D6D 		.ascii	"dummy\000"
 20744      7900
 20745              	.LASF1092:
 20746 666c 70737472 		.ascii	"pstrUsageACJustifyLeft\000"
 20746      55736167 
 20746      6541434A 
 20746      75737469 
 20746      66794C65 
 20747              	.LASF62:
 20748 6683 44697253 		.ascii	"DirSet\000"
 20748      657400
 20749              	.LASF748:
 20750 668a 70737472 		.ascii	"pstrUsageFastBlinkOffTime\000"
 20750      55736167 
 20750      65466173 
 20750      74426C69 
 20750      6E6B4F66 
 20751              	.LASF779:
 20752 66a4 70737472 		.ascii	"pstrUsageSpeedDial\000"
 20752      55736167 
 20752      65537065 
 20752      65644469 
 20752      616C00
 20753              	.LASF383:
 20754 66b7 5F5A4E39 		.ascii	"_ZN9PS4Parser6setLedEhhh\000"
 20754      50533450 
 20754      61727365 
 20754      72367365 
 20754      744C6564 
 20755              	.LASF1234:
 20756 66d0 70737472 		.ascii	"pstrUsageCursorMode\000"
 20756      55736167 
 20756      65437572 
 20756      736F724D 
 20756      6F646500 
 20757              	.LASF563:
 20758 66e4 70737472 		.ascii	"pstrUsageFlightYoke\000"
 20758      55736167 
 20758      65466C69 
 20758      67687459 
 20758      6F6B6500 
 20759              	.LASF851:
 20760 66f8 70737472 		.ascii	"pstrUsageEnterChannel\000"
 20760      55736167 
 20760      65456E74 
 20760      65724368 
 20760      616E6E65 
 20761              	.LASF497:
 20762 670e 70737472 		.ascii	"pstrUsageByteCount\000"
 20762      55736167 
 20762      65427974 
 20762      65436F75 
 20762      6E7400
 20763              	.LASF163:
ARM GAS  C:\Users\jrdia\AppData\Local\Temp\ccFTvYyK.s 			page 473


 20764 6721 5F5A4E33 		.ascii	"_ZN3USB11getStrDescrEhhthtPh\000"
 20764      55534231 
 20764      31676574 
 20764      53747244 
 20764      65736372 
 20765              	.LASF182:
 20766 673e 5F5A4E33 		.ascii	"_ZN3USB11ConfiguringEhhb\000"
 20766      55534231 
 20766      31436F6E 
 20766      66696775 
 20766      72696E67 
 20767              	.LASF5:
 20768 6757 73686F72 		.ascii	"short int\000"
 20768      7420696E 
 20768      7400
 20769              	.LASF582:
 20770 6761 70737472 		.ascii	"pstrUsageWeaponsArm\000"
 20770      55736167 
 20770      65576561 
 20770      706F6E73 
 20770      41726D00 
 20771              	.LASF715:
 20772 6775 70737472 		.ascii	"pstrUsageCallPickup\000"
 20772      55736167 
 20772      6543616C 
 20772      6C506963 
 20772      6B757000 
 20773              	.LASF33:
 20774 6789 6D617850 		.ascii	"maxPktSize\000"
 20774      6B745369 
 20774      7A6500
 20775              	.LASF626:
 20776 6794 70737472 		.ascii	"pstrUsage2Iron\000"
 20776      55736167 
 20776      65324972 
 20776      6F6E00
 20777              	.LASF869:
 20778 67a3 70737472 		.ascii	"pstrUsageMediaSelectTape\000"
 20778      55736167 
 20778      654D6564 
 20778      69615365 
 20778      6C656374 
 20779              	.LASF1089:
 20780 67bc 70737472 		.ascii	"pstrUsageACFontSelect\000"
 20780      55736167 
 20780      65414346 
 20780      6F6E7453 
 20780      656C6563 
 20781              	.LASF1045:
 20782 67d2 70737472 		.ascii	"pstrUsageACFind\000"
 20782      55736167 
 20782      65414346 
 20782      696E6400 
 20783              	.LASF106:
 20784 67e2 5F5A4E38 		.ascii	"_ZN8MAX3421eI4TPinI5PortbLh2EES0_IS1_Lh1EEEC4Ev\000"
 20784      4D415833 
 20784      34323165 
ARM GAS  C:\Users\jrdia\AppData\Local\Temp\ccFTvYyK.s 			page 474


 20784      49345450 
 20784      696E4935 
 20785              	.LASF442:
 20786 6812 44445242 		.ascii	"DDRB\000"
 20786      00
 20787              	.LASF1239:
 20788 6817 70737472 		.ascii	"pstrUsageCharacterWidth\000"
 20788      55736167 
 20788      65436861 
 20788      72616374 
 20788      65725769 
 20789              	.LASF103:
 20790 682f 4D415833 		.ascii	"MAX3421e<TPin<Portb, 2u>, TPin<Portb, 1u> >\000"
 20790      34323165 
 20790      3C545069 
 20790      6E3C506F 
 20790      7274622C 
 20791              	.LASF144:
 20792 685b 5F5A4E33 		.ascii	"_ZN3USB14GetAddressPoolEv\000"
 20792      55534231 
 20792      34476574 
 20792      41646472 
 20792      65737350 
 20793              	.LASF201:
 20794 6875 5F5A4E31 		.ascii	"_ZN15USBDeviceConfigC4ERKS_\000"
 20794      35555342 
 20794      44657669 
 20794      6365436F 
 20794      6E666967 
 20795              	.LASF1305:
 20796 6891 7072696E 		.ascii	"printAngle\000"
 20796      74416E67 
 20796      6C6500
 20797              	.LASF1091:
 20798 689c 70737472 		.ascii	"pstrUsageACFontSize\000"
 20798      55736167 
 20798      65414346 
 20798      6F6E7453 
 20798      697A6500 
 20799              	.LASF285:
 20800 68b0 6F707469 		.ascii	"options\000"
 20800      6F6E7300 
 20801              	.LASF179:
 20802 68b8 44656661 		.ascii	"DefaultAddressing\000"
 20802      756C7441 
 20802      64647265 
 20802      7373696E 
 20802      6700
 20803              	.LASF395:
 20804 68ca 4254445F 		.ascii	"BTD_DATAIN_PIPE\000"
 20804      44415441 
 20804      494E5F50 
 20804      49504500 
 20805              	.LASF736:
 20806 68da 70737472 		.ascii	"pstrUsageSelectedIndicator\000"
 20806      55736167 
 20806      6553656C 
ARM GAS  C:\Users\jrdia\AppData\Local\Temp\ccFTvYyK.s 			page 475


 20806      65637465 
 20806      64496E64 
 20807              	.LASF785:
 20808 68f5 70737472 		.ascii	"pstrUsageMessage\000"
 20808      55736167 
 20808      654D6573 
 20808      73616765 
 20808      00
 20809              	.LASF1140:
 20810 6906 70737472 		.ascii	"pstrUsageACSetClock\000"
 20810      55736167 
 20810      65414353 
 20810      6574436C 
 20810      6F636B00 
 20811              	.LASF365:
 20812 691a 67657442 		.ascii	"getBatteryLevel\000"
 20812      61747465 
 20812      72794C65 
 20812      76656C00 
 20813              	.LASF778:
 20814 692a 70737472 		.ascii	"pstrUsageSend\000"
 20814      55736167 
 20814      6553656E 
 20814      6400
 20815              	.LASF317:
 20816 6938 5F5A4E35 		.ascii	"_ZN5PS4BTC4EP3BTDbPKc\000"
 20816      50533442 
 20816      54433445 
 20816      50334254 
 20816      4462504B 
 20817              	.LASF650:
 20818 694e 70737472 		.ascii	"pstrUsageRollRightLeft\000"
 20818      55736167 
 20818      65526F6C 
 20818      6C526967 
 20818      68744C65 
 20819              	.LASF853:
 20820 6965 70737472 		.ascii	"pstrUsageChannel\000"
 20820      55736167 
 20820      65436861 
 20820      6E6E656C 
 20820      00
 20821              	.LASF161:
 20822 6976 5F5A4E33 		.ascii	"_ZN3USB12getConfDescrEhhhP13USBReadParser\000"
 20822      55534231 
 20822      32676574 
 20822      436F6E66 
 20822      44657363 
 20823              	.LASF338:
 20824 69a0 62757474 		.ascii	"buttonClickState\000"
 20824      6F6E436C 
 20824      69636B53 
 20824      74617465 
 20824      00
 20825              	.LASF860:
 20826 69b1 70737472 		.ascii	"pstrUsageMediaSelectProgramGuide\000"
 20826      55736167 
ARM GAS  C:\Users\jrdia\AppData\Local\Temp\ccFTvYyK.s 			page 476


 20826      654D6564 
 20826      69615365 
 20826      6C656374 
 20827              	.LASF712:
 20828 69d2 70737472 		.ascii	"pstrUsageCoverage\000"
 20828      55736167 
 20828      65436F76 
 20828      65726167 
 20828      6500
 20829              	.LASF511:
 20830 69e4 70737472 		.ascii	"pstrUsageSystemPowerDown\000"
 20830      55736167 
 20830      65537973 
 20830      74656D50 
 20830      6F776572 
 20831              		.ident	"GCC: (GNU Tools for ARM Embedded Processors) 5.4.1 20160609 (release) [ARM/embedded-5-bran
