ARM GAS  C:\Users\jrdia\AppData\Local\Temp\ccFTvYyK.s 			page 1


   1              		.syntax unified
   2              		.cpu cortex-m0
   3              		.fpu softvfp
   4              		.eabi_attribute 20, 1
   5              		.eabi_attribute 21, 1
   6              		.eabi_attribute 23, 3
   7              		.eabi_attribute 24, 1
   8              		.eabi_attribute 25, 1
   9              		.eabi_attribute 26, 1
  10              		.eabi_attribute 30, 2
  11              		.eabi_attribute 34, 0
  12              		.eabi_attribute 18, 4
  13              		.thumb
  14              		.syntax unified
  15              		.file	"main.c"
  16              		.text
  17              	.Ltext0:
  18              		.cfi_sections	.debug_frame
  19              		.section	.text._ZN5BTHID6onInitEv,"axG",%progbits,_ZN5BTHID6onInitEv,comdat
  20              		.align	2
  21              		.weak	_ZN5BTHID6onInitEv
  22              		.code	16
  23              		.thumb_func
  24              		.type	_ZN5BTHID6onInitEv, %function
  25              	_ZN5BTHID6onInitEv:
  26              		.fnstart
  27              	.LFB276:
  28              		.file 1 "./BTHID.h"
   1:./BTHID.h     **** /* Copyright (C) 2013 Kristian Lauszus, TKJ Electronics. All rights reserved.
   2:./BTHID.h     **** 
   3:./BTHID.h     ****  This software may be distributed and modified under the terms of the GNU
   4:./BTHID.h     ****  General Public License version 2 (GPL2) as published by the Free Software
   5:./BTHID.h     ****  Foundation and appearing in the file GPL2.TXT included in the packaging of
   6:./BTHID.h     ****  this file. Please note that GPL2 Section 2[b] requires that all works based
   7:./BTHID.h     ****  on this software must also be made publicly available under the terms of
   8:./BTHID.h     ****  the GPL2 ("Copyleft").
   9:./BTHID.h     **** 
  10:./BTHID.h     ****  Contact information
  11:./BTHID.h     ****  -------------------
  12:./BTHID.h     **** 
  13:./BTHID.h     ****  Kristian Lauszus, TKJ Electronics
  14:./BTHID.h     ****  Web      :  http://www.tkjelectronics.com
  15:./BTHID.h     ****  e-mail   :  kristianl@tkjelectronics.com
  16:./BTHID.h     ****  */
  17:./BTHID.h     **** 
  18:./BTHID.h     **** #ifndef _bthid_h_
  19:./BTHID.h     **** #define _bthid_h_
  20:./BTHID.h     **** 
  21:./BTHID.h     **** #include "BTD.h"
  22:./BTHID.h     **** #include "hidboot.h"
  23:./BTHID.h     **** 
  24:./BTHID.h     **** #define KEYBOARD_PARSER_ID      0
  25:./BTHID.h     **** #define MOUSE_PARSER_ID         1
  26:./BTHID.h     **** #define NUM_PARSERS             2
  27:./BTHID.h     **** 
  28:./BTHID.h     **** /** This BluetoothService class implements support for Bluetooth HID devices. */
  29:./BTHID.h     **** class BTHID : public BluetoothService {
ARM GAS  C:\Users\jrdia\AppData\Local\Temp\ccFTvYyK.s 			page 2


  30:./BTHID.h     **** public:
  31:./BTHID.h     ****         /**
  32:./BTHID.h     ****          * Constructor for the BTHID class.
  33:./BTHID.h     ****          * @param  p   Pointer to the BTD class instance.
  34:./BTHID.h     ****          * @param  pair   Set this to true in order to pair with the device. If the argument is omi
  35:./BTHID.h     ****          * @param  pin   Write the pin to BTD#btdPin. If argument is omitted, then "0000" will be u
  36:./BTHID.h     ****          */
  37:./BTHID.h     ****         BTHID(BTD *p, bool pair = false, const char *pin = "0000");
  38:./BTHID.h     **** 
  39:./BTHID.h     ****         /** @name BluetoothService implementation */
  40:./BTHID.h     ****         /** Used this to disconnect the devices. */
  41:./BTHID.h     ****         void disconnect();
  42:./BTHID.h     ****         /**@}*/
  43:./BTHID.h     **** 
  44:./BTHID.h     ****         /**
  45:./BTHID.h     ****          * Get HIDReportParser.
  46:./BTHID.h     ****          * @param  id ID of parser.
  47:./BTHID.h     ****          * @return    Returns the corresponding HIDReportParser. Returns NULL if id is not valid.
  48:./BTHID.h     ****          */
  49:./BTHID.h     ****         HIDReportParser *GetReportParser(uint8_t id) {
  50:./BTHID.h     ****                 if (id >= NUM_PARSERS)
  51:./BTHID.h     ****                         return NULL;
  52:./BTHID.h     ****                 return pRptParser[id];
  53:./BTHID.h     ****         };
  54:./BTHID.h     **** 
  55:./BTHID.h     ****         /**
  56:./BTHID.h     ****          * Set HIDReportParser to be used.
  57:./BTHID.h     ****          * @param  id  Id of parser.
  58:./BTHID.h     ****          * @param  prs Pointer to HIDReportParser.
  59:./BTHID.h     ****          * @return     Returns true if the HIDReportParser is set. False otherwise.
  60:./BTHID.h     ****          */
  61:./BTHID.h     ****         bool SetReportParser(uint8_t id, HIDReportParser *prs) {
  62:./BTHID.h     ****                 if (id >= NUM_PARSERS)
  63:./BTHID.h     ****                         return false;
  64:./BTHID.h     ****                 pRptParser[id] = prs;
  65:./BTHID.h     ****                 return true;
  66:./BTHID.h     ****         };
  67:./BTHID.h     **** 
  68:./BTHID.h     ****         /**
  69:./BTHID.h     ****          * Set HID protocol mode.
  70:./BTHID.h     ****          * @param mode HID protocol to use. Either USB_HID_BOOT_PROTOCOL or HID_RPT_PROTOCOL.
  71:./BTHID.h     ****          */
  72:./BTHID.h     ****         void setProtocolMode(uint8_t mode) {
  73:./BTHID.h     ****                 protocolMode = mode;
  74:./BTHID.h     ****         };
  75:./BTHID.h     **** 
  76:./BTHID.h     ****         /**@{*/
  77:./BTHID.h     ****         /**
  78:./BTHID.h     ****          * Used to set the leds on a keyboard.
  79:./BTHID.h     ****          * @param data See ::KBDLEDS in hidboot.h
  80:./BTHID.h     ****          */
  81:./BTHID.h     ****         void setLeds(struct KBDLEDS data) {
  82:./BTHID.h     ****                 setLeds(*((uint8_t*)&data));
  83:./BTHID.h     ****         };
  84:./BTHID.h     ****         void setLeds(uint8_t data);
  85:./BTHID.h     ****         /**@}*/
  86:./BTHID.h     **** 
ARM GAS  C:\Users\jrdia\AppData\Local\Temp\ccFTvYyK.s 			page 3


  87:./BTHID.h     ****         /** True if a device is connected */
  88:./BTHID.h     ****         bool connected;
  89:./BTHID.h     **** 
  90:./BTHID.h     ****         /** Call this to start the pairing sequence with a device */
  91:./BTHID.h     ****         void pair(void) {
  92:./BTHID.h     ****                 if(pBtd)
  93:./BTHID.h     ****                         pBtd->pairWithHID();
  94:./BTHID.h     ****         };
  95:./BTHID.h     **** 
  96:./BTHID.h     **** protected:
  97:./BTHID.h     ****         /** @name BluetoothService implementation */
  98:./BTHID.h     ****         /**
  99:./BTHID.h     ****          * Used to pass acldata to the services.
 100:./BTHID.h     ****          * @param ACLData Incoming acldata.
 101:./BTHID.h     ****          */
 102:./BTHID.h     ****         void ACLData(uint8_t* ACLData);
 103:./BTHID.h     ****         /** Used to run part of the state machine. */
 104:./BTHID.h     ****         void Run();
 105:./BTHID.h     ****         /** Use this to reset the service. */
 106:./BTHID.h     ****         void Reset();
 107:./BTHID.h     ****         /**
 108:./BTHID.h     ****          * Called when a device is successfully initialized.
 109:./BTHID.h     ****          * Use attachOnInit(void (*funcOnInit)(void)) to call your own function.
 110:./BTHID.h     ****          * This is useful for instance if you want to set the LEDs in a specific way.
 111:./BTHID.h     ****          */
 112:./BTHID.h     ****         void onInit() {
  29              		.loc 1 112 0
  30              		.cfi_startproc
  31              		@ args = 0, pretend = 0, frame = 0
  32              		@ frame_needed = 0, uses_anonymous_args = 0
  33              	.LVL0:
 113:./BTHID.h     ****                 if(pFuncOnInit)
  34              		.loc 1 113 0
  35 0000 4368     		ldr	r3, [r0, #4]
 112:./BTHID.h     ****                 if(pFuncOnInit)
  36              		.loc 1 112 0
  37 0002 10B5     		push	{r4, lr}
  38              		.save {r4, lr}
  39              		.cfi_def_cfa_offset 8
  40              		.cfi_offset 4, -8
  41              		.cfi_offset 14, -4
 112:./BTHID.h     ****                 if(pFuncOnInit)
  42              		.loc 1 112 0
  43 0004 0400     		movs	r4, r0
  44              		.loc 1 113 0
  45 0006 002B     		cmp	r3, #0
  46 0008 00D0     		beq	.L2
 114:./BTHID.h     ****                         pFuncOnInit(); // Call the user function
  47              		.loc 1 114 0
  48 000a 9847     		blx	r3
  49              	.LVL1:
  50              	.L2:
 115:./BTHID.h     ****                 OnInitBTHID();
  51              		.loc 1 115 0
  52 000c 2368     		ldr	r3, [r4]
  53 000e 2000     		movs	r0, r4
  54 0010 9B69     		ldr	r3, [r3, #24]
ARM GAS  C:\Users\jrdia\AppData\Local\Temp\ccFTvYyK.s 			page 4


  55 0012 9847     		blx	r3
  56              	.LVL2:
 116:./BTHID.h     ****         };
  57              		.loc 1 116 0
  58              		@ sp needed
  59              	.LVL3:
  60 0014 10BD     		pop	{r4, pc}
  61              		.cfi_endproc
  62              	.LFE276:
  63              		.fnend
  64              		.size	_ZN5BTHID6onInitEv, .-_ZN5BTHID6onInitEv
  65 0016 C046     		.section	.text._ZN5PS4BT10ResetBTHIDEv,"axG",%progbits,_ZN5PS4BT10ResetBTHIDEv,comdat
  66              		.align	2
  67              		.weak	_ZN5PS4BT10ResetBTHIDEv
  68              		.code	16
  69              		.thumb_func
  70              		.type	_ZN5PS4BT10ResetBTHIDEv, %function
  71              	_ZN5PS4BT10ResetBTHIDEv:
  72              		.fnstart
  73              	.LFB307:
  74              		.file 2 "./PS4BT.h"
   1:./PS4BT.h     **** /* Copyright (C) 2014 Kristian Lauszus, TKJ Electronics. All rights reserved.
   2:./PS4BT.h     **** 
   3:./PS4BT.h     ****  This software may be distributed and modified under the terms of the GNU
   4:./PS4BT.h     ****  General Public License version 2 (GPL2) as published by the Free Software
   5:./PS4BT.h     ****  Foundation and appearing in the file GPL2.TXT included in the packaging of
   6:./PS4BT.h     ****  this file. Please note that GPL2 Section 2[b] requires that all works based
   7:./PS4BT.h     ****  on this software must also be made publicly available under the terms of
   8:./PS4BT.h     ****  the GPL2 ("Copyleft").
   9:./PS4BT.h     **** 
  10:./PS4BT.h     ****  Contact information
  11:./PS4BT.h     ****  -------------------
  12:./PS4BT.h     **** 
  13:./PS4BT.h     ****  Kristian Lauszus, TKJ Electronics
  14:./PS4BT.h     ****  Web      :  http://www.tkjelectronics.com
  15:./PS4BT.h     ****  e-mail   :  kristianl@tkjelectronics.com
  16:./PS4BT.h     ****  */
  17:./PS4BT.h     **** 
  18:./PS4BT.h     **** #ifndef _ps4bt_h_
  19:./PS4BT.h     **** #define _ps4bt_h_
  20:./PS4BT.h     **** 
  21:./PS4BT.h     **** #include "BTHID.h"
  22:./PS4BT.h     **** #include "PS4Parser.h"
  23:./PS4BT.h     **** 
  24:./PS4BT.h     **** /**
  25:./PS4BT.h     ****  * This class implements support for the PS4 controller via Bluetooth.
  26:./PS4BT.h     ****  * It uses the BTHID class for all the Bluetooth communication.
  27:./PS4BT.h     ****  */
  28:./PS4BT.h     **** class PS4BT : public BTHID, public PS4Parser {
  29:./PS4BT.h     **** public:
  30:./PS4BT.h     ****         /**
  31:./PS4BT.h     ****          * Constructor for the PS4BT class.
  32:./PS4BT.h     ****          * @param  p     Pointer to the BTD class instance.
  33:./PS4BT.h     ****          * @param  pair  Set this to true in order to pair with the device. If the argument is omit
  34:./PS4BT.h     ****          * @param  pin   Write the pin to BTD#btdPin. If argument is omitted, then "0000" will be u
  35:./PS4BT.h     ****          */
  36:./PS4BT.h     ****         PS4BT(BTD *p, bool pair = false, const char *pin = "0000") :
ARM GAS  C:\Users\jrdia\AppData\Local\Temp\ccFTvYyK.s 			page 5


  37:./PS4BT.h     ****         BTHID(p, pair, pin) {
  38:./PS4BT.h     ****                 PS4Parser::Reset();
  39:./PS4BT.h     ****         };
  40:./PS4BT.h     **** 
  41:./PS4BT.h     ****         /**
  42:./PS4BT.h     ****          * Used to check if a PS4 controller is connected.
  43:./PS4BT.h     ****          * @return Returns true if it is connected.
  44:./PS4BT.h     ****          */
  45:./PS4BT.h     ****         bool connected() {
  46:./PS4BT.h     ****                 return BTHID::connected;
  47:./PS4BT.h     ****         };
  48:./PS4BT.h     **** 
  49:./PS4BT.h     **** protected:
  50:./PS4BT.h     ****         /** @name BTHID implementation */
  51:./PS4BT.h     ****         /**
  52:./PS4BT.h     ****          * Used to parse Bluetooth HID data.
  53:./PS4BT.h     ****          * @param len The length of the incoming data.
  54:./PS4BT.h     ****          * @param buf Pointer to the data buffer.
  55:./PS4BT.h     ****          */
  56:./PS4BT.h     ****         virtual void ParseBTHIDData(uint8_t len, uint8_t *buf) {
  57:./PS4BT.h     ****                 PS4Parser::Parse(len, buf);
  58:./PS4BT.h     ****         };
  59:./PS4BT.h     **** 
  60:./PS4BT.h     ****         /**
  61:./PS4BT.h     ****          * Called when a device is successfully initialized.
  62:./PS4BT.h     ****          * Use attachOnInit(void (*funcOnInit)(void)) to call your own function.
  63:./PS4BT.h     ****          * This is useful for instance if you want to set the LEDs in a specific way.
  64:./PS4BT.h     ****          */
  65:./PS4BT.h     ****         virtual void OnInitBTHID() {
  66:./PS4BT.h     ****                 PS4Parser::Reset();
  67:./PS4BT.h     ****                 enable_sixaxis(); // Make the controller send out the entire output report
  68:./PS4BT.h     ****                 if (pFuncOnInit)
  69:./PS4BT.h     ****                         pFuncOnInit(); // Call the user function
  70:./PS4BT.h     ****                 else
  71:./PS4BT.h     ****                         setLed(Blue);
  72:./PS4BT.h     ****         };
  73:./PS4BT.h     **** 
  74:./PS4BT.h     ****         /** Used to reset the different buffers to there default values */
  75:./PS4BT.h     ****         virtual void ResetBTHID() {
  75              		.loc 2 75 0
  76              		.cfi_startproc
  77              		@ args = 0, pretend = 0, frame = 0
  78              		@ frame_needed = 0, uses_anonymous_args = 0
  79              	.LVL4:
  80 0000 10B5     		push	{r4, lr}
  81              		.save {r4, lr}
  82              		.cfi_def_cfa_offset 8
  83              		.cfi_offset 4, -8
  84              		.cfi_offset 14, -4
  76:./PS4BT.h     ****                 PS4Parser::Reset();
  85              		.loc 2 76 0
  86 0002 2C30     		adds	r0, r0, #44
  87              	.LVL5:
  88 0004 FFF7FEFF 		bl	_ZN9PS4Parser5ResetEv
  89              	.LVL6:
  77:./PS4BT.h     ****         };
  90              		.loc 2 77 0
ARM GAS  C:\Users\jrdia\AppData\Local\Temp\ccFTvYyK.s 			page 6


  91              		@ sp needed
  92 0008 10BD     		pop	{r4, pc}
  93              		.cfi_endproc
  94              	.LFE307:
  95              		.fnend
  96              		.size	_ZN5PS4BT10ResetBTHIDEv, .-_ZN5PS4BT10ResetBTHIDEv
  97 000a C046     		.section	.text._ZN5PS4BT16sendOutputReportEP9PS4Output,"axG",%progbits,_ZN5PS4BT16sendOutputReport
  98              		.align	2
  99              		.weak	_ZN5PS4BT16sendOutputReportEP9PS4Output
 100              		.code	16
 101              		.thumb_func
 102              		.type	_ZN5PS4BT16sendOutputReportEP9PS4Output, %function
 103              	_ZN5PS4BT16sendOutputReportEP9PS4Output:
 104              		.fnstart
 105              	.LFB308:
  78:./PS4BT.h     ****         /**@}*/
  79:./PS4BT.h     **** 
  80:./PS4BT.h     ****         /** @name PS4Parser implementation */
  81:./PS4BT.h     ****         virtual void sendOutputReport(PS4Output *output) { // Source: https://github.com/chrippa/ds
 106              		.loc 2 81 0
 107              		.cfi_startproc
 108              		@ args = 0, pretend = 0, frame = 80
 109              		@ frame_needed = 0, uses_anonymous_args = 0
 110              	.LVL7:
 111 0000 70B5     		push	{r4, r5, r6, lr}
 112              		.save {r4, r5, r6, lr}
 113              		.cfi_def_cfa_offset 16
 114              		.cfi_offset 4, -16
 115              		.cfi_offset 5, -12
 116              		.cfi_offset 6, -8
 117              		.cfi_offset 14, -4
 118              		.pad #88
 119 0002 96B0     		sub	sp, sp, #88
 120              		.cfi_def_cfa_offset 104
  82:./PS4BT.h     ****                 uint8_t buf[79];
  83:./PS4BT.h     ****                 memset(buf, 0, sizeof(buf));
 121              		.loc 2 83 0
 122 0004 02AC     		add	r4, sp, #8
  81:./PS4BT.h     ****                 uint8_t buf[79];
 123              		.loc 2 81 0
 124 0006 0D00     		movs	r5, r1
 125 0008 0600     		movs	r6, r0
 126              		.loc 2 83 0
 127 000a 4F22     		movs	r2, #79
 128 000c 0021     		movs	r1, #0
 129              	.LVL8:
 130 000e 2000     		movs	r0, r4
 131              	.LVL9:
 132 0010 FFF7FEFF 		bl	memset
 133              	.LVL10:
  84:./PS4BT.h     **** 
  85:./PS4BT.h     ****                 buf[0] = 0x52; // HID BT Set_report (0x50) | Report Type (Output 0x02)
 134              		.loc 2 85 0
 135 0014 5223     		movs	r3, #82
 136 0016 2370     		strb	r3, [r4]
  86:./PS4BT.h     ****                 buf[1] = 0x11; // Report ID
 137              		.loc 2 86 0
ARM GAS  C:\Users\jrdia\AppData\Local\Temp\ccFTvYyK.s 			page 7


 138 0018 413B     		subs	r3, r3, #65
 139 001a 6370     		strb	r3, [r4, #1]
  87:./PS4BT.h     ****                 buf[2] = 0x80;
 140              		.loc 2 87 0
 141 001c 6F33     		adds	r3, r3, #111
 142 001e A370     		strb	r3, [r4, #2]
  88:./PS4BT.h     ****                 buf[4]= 0xFF;
 143              		.loc 2 88 0
 144 0020 7F33     		adds	r3, r3, #127
 145 0022 2371     		strb	r3, [r4, #4]
  89:./PS4BT.h     **** 
  90:./PS4BT.h     ****                 buf[7] = output->smallRumble; // Small Rumble
 146              		.loc 2 90 0
 147 0024 6B78     		ldrb	r3, [r5, #1]
 148              	.LBB101:
 149              	.LBB102:
  91:./PS4BT.h     ****                 buf[8] = output->bigRumble; // Big rumble
  92:./PS4BT.h     **** 
  93:./PS4BT.h     ****                 buf[9] = output->r; // Red
  94:./PS4BT.h     ****                 buf[10] = output->g; // Green
  95:./PS4BT.h     ****                 buf[11] = output->b; // Blue
  96:./PS4BT.h     **** 
  97:./PS4BT.h     ****                 buf[12] = output->flashOn; // Time to flash bright (255 = 2.5 seconds)
  98:./PS4BT.h     ****                 buf[13] = output->flashOff; // Time to flash dark (255 = 2.5 seconds)
  99:./PS4BT.h     **** 
 100:./PS4BT.h     ****                 output->reportChanged = false;
 101:./PS4BT.h     **** 
 102:./PS4BT.h     ****                 // The PS4 console actually set the four last bytes to a CRC32 checksum, but it see
 103:./PS4BT.h     **** 
 104:./PS4BT.h     ****                 HID_Command(buf, sizeof(buf));
 105:./PS4BT.h     ****         };
 106:./PS4BT.h     ****         /**@}*/
 107:./PS4BT.h     **** 
 108:./PS4BT.h     **** private:
 109:./PS4BT.h     ****         void enable_sixaxis() { // Command used to make the PS4 controller send out the entire outp
 110:./PS4BT.h     ****                 uint8_t buf[2];
 111:./PS4BT.h     ****                 buf[0] = 0x43; // HID BT Get_report (0x40) | Report Type (Feature 0x03)
 112:./PS4BT.h     ****                 buf[1] = 0x02; // Report ID
 113:./PS4BT.h     **** 
 114:./PS4BT.h     ****                 HID_Command(buf, 2);
 115:./PS4BT.h     ****         };
 116:./PS4BT.h     **** 
 117:./PS4BT.h     ****         void HID_Command(uint8_t *data, uint8_t nbytes) {
 118:./PS4BT.h     ****                 pBtd->L2CAP_Command(hci_handle, data, nbytes, control_scid[0], control_scid[1]);
 150              		.loc 2 118 0
 151 0026 B189     		ldrh	r1, [r6, #12]
 152              	.LBE102:
 153              	.LBE101:
  90:./PS4BT.h     ****                 buf[8] = output->bigRumble; // Big rumble
 154              		.loc 2 90 0
 155 0028 E371     		strb	r3, [r4, #7]
  91:./PS4BT.h     ****                 buf[8] = output->bigRumble; // Big rumble
 156              		.loc 2 91 0
 157 002a 2B78     		ldrb	r3, [r5]
 158              	.LBB106:
 159              	.LBB103:
 160              		.loc 2 118 0
ARM GAS  C:\Users\jrdia\AppData\Local\Temp\ccFTvYyK.s 			page 8


 161 002c B068     		ldr	r0, [r6, #8]
 162              	.LBE103:
 163              	.LBE106:
  91:./PS4BT.h     ****                 buf[8] = output->bigRumble; // Big rumble
 164              		.loc 2 91 0
 165 002e 2372     		strb	r3, [r4, #8]
  93:./PS4BT.h     ****                 buf[10] = output->g; // Green
 166              		.loc 2 93 0
 167 0030 AB78     		ldrb	r3, [r5, #2]
 168              	.LBB107:
 169              	.LBB104:
 170              		.loc 2 118 0
 171 0032 2200     		movs	r2, r4
 172              	.LBE104:
 173              	.LBE107:
  93:./PS4BT.h     ****                 buf[10] = output->g; // Green
 174              		.loc 2 93 0
 175 0034 6372     		strb	r3, [r4, #9]
  94:./PS4BT.h     ****                 buf[11] = output->b; // Blue
 176              		.loc 2 94 0
 177 0036 EB78     		ldrb	r3, [r5, #3]
 178 0038 A372     		strb	r3, [r4, #10]
  95:./PS4BT.h     **** 
 179              		.loc 2 95 0
 180 003a 2B79     		ldrb	r3, [r5, #4]
 181 003c E372     		strb	r3, [r4, #11]
  97:./PS4BT.h     ****                 buf[13] = output->flashOff; // Time to flash dark (255 = 2.5 seconds)
 182              		.loc 2 97 0
 183 003e 6B79     		ldrb	r3, [r5, #5]
 184 0040 2373     		strb	r3, [r4, #12]
  98:./PS4BT.h     **** 
 185              		.loc 2 98 0
 186 0042 AB79     		ldrb	r3, [r5, #6]
 187 0044 6373     		strb	r3, [r4, #13]
 100:./PS4BT.h     **** 
 188              		.loc 2 100 0
 189 0046 0023     		movs	r3, #0
 190 0048 EB71     		strb	r3, [r5, #7]
 191              	.LVL11:
 192              	.LBB108:
 193              	.LBB105:
 194              		.loc 2 118 0
 195 004a F37D     		ldrb	r3, [r6, #23]
 196 004c 0193     		str	r3, [sp, #4]
 197 004e B37D     		ldrb	r3, [r6, #22]
 198 0050 0093     		str	r3, [sp]
 199 0052 4F23     		movs	r3, #79
 200 0054 FFF7FEFF 		bl	_ZN3BTD13L2CAP_CommandEtPhhhh
 201              	.LVL12:
 202              	.LBE105:
 203              	.LBE108:
 105:./PS4BT.h     ****         /**@}*/
 204              		.loc 2 105 0
 205 0058 16B0     		add	sp, sp, #88
 206              		@ sp needed
 207              	.LVL13:
 208              	.LVL14:
ARM GAS  C:\Users\jrdia\AppData\Local\Temp\ccFTvYyK.s 			page 9


 209 005a 70BD     		pop	{r4, r5, r6, pc}
 210              		.cfi_endproc
 211              	.LFE308:
 212              		.fnend
 213              		.size	_ZN5PS4BT16sendOutputReportEP9PS4Output, .-_ZN5PS4BT16sendOutputReportEP9PS4Output
 214              		.thumb_set .LTHUNK0,_ZN5PS4BT16sendOutputReportEP9PS4Output
 215              		.align	2
 216              		.weak	_ZThn44_N5PS4BT16sendOutputReportEP9PS4Output
 217              		.code	16
 218              		.thumb_func
 219              		.type	_ZThn44_N5PS4BT16sendOutputReportEP9PS4Output, %function
 220              	_ZThn44_N5PS4BT16sendOutputReportEP9PS4Output:
 221              		.fnstart
 222              	.LFB343:
  81:./PS4BT.h     ****                 uint8_t buf[79];
 223              		.loc 2 81 0
 224              		.cfi_startproc
 225              		@ args = 0, pretend = 0, frame = 0
 226              		@ frame_needed = 0, uses_anonymous_args = 0
 227 005c 08B4     		push {r3}
 228 005e 024B     		ldr	r3, .LTHUMBFUNC0
 229 0060 9C46     		mov r12, r3
 230 0062 2C38     		subs	r0, r0, #44
 231 0064 08BC     		pop	{r3}
 232 0066 6047     		bx	r12
 233              		.align	2
 234              	.LTHUMBFUNC0:
 235 0068 00000000 		.word	.LTHUNK0
 236              		.cfi_endproc
 237              	.LFE343:
 238              		.fnend
 239              		.size	_ZThn44_N5PS4BT16sendOutputReportEP9PS4Output, .-_ZThn44_N5PS4BT16sendOutputReportEP9PS4Outp
 240              		.section	.text._ZN5PS4BT11OnInitBTHIDEv,"axG",%progbits,_ZN5PS4BT11OnInitBTHIDEv,comdat
 241              		.align	2
 242              		.weak	_ZN5PS4BT11OnInitBTHIDEv
 243              		.code	16
 244              		.thumb_func
 245              		.type	_ZN5PS4BT11OnInitBTHIDEv, %function
 246              	_ZN5PS4BT11OnInitBTHIDEv:
 247              		.fnstart
 248              	.LFB306:
  65:./PS4BT.h     ****                 PS4Parser::Reset();
 249              		.loc 2 65 0
 250              		.cfi_startproc
 251              		@ args = 0, pretend = 0, frame = 8
 252              		@ frame_needed = 0, uses_anonymous_args = 0
 253              	.LVL15:
 254 0000 10B5     		push	{r4, lr}
 255              		.save {r4, lr}
 256              		.cfi_def_cfa_offset 8
 257              		.cfi_offset 4, -8
 258              		.cfi_offset 14, -4
 259 0002 0400     		movs	r4, r0
 260              		.pad #16
 261 0004 84B0     		sub	sp, sp, #16
 262              		.cfi_def_cfa_offset 24
  66:./PS4BT.h     ****                 enable_sixaxis(); // Make the controller send out the entire output report
ARM GAS  C:\Users\jrdia\AppData\Local\Temp\ccFTvYyK.s 			page 10


 263              		.loc 2 66 0
 264 0006 2C30     		adds	r0, r0, #44
 265              	.LVL16:
 266 0008 FFF7FEFF 		bl	_ZN9PS4Parser5ResetEv
 267              	.LVL17:
 268              	.LBB116:
 269              	.LBB117:
 111:./PS4BT.h     ****                 buf[1] = 0x02; // Report ID
 270              		.loc 2 111 0
 271 000c 4323     		movs	r3, #67
 272 000e 03AA     		add	r2, sp, #12
 273 0010 1370     		strb	r3, [r2]
 112:./PS4BT.h     **** 
 274              		.loc 2 112 0
 275 0012 413B     		subs	r3, r3, #65
 276 0014 5370     		strb	r3, [r2, #1]
 277              	.LVL18:
 278              	.LBB118:
 279              	.LBB119:
 280              		.loc 2 118 0
 281 0016 E37D     		ldrb	r3, [r4, #23]
 282 0018 A189     		ldrh	r1, [r4, #12]
 283 001a 0193     		str	r3, [sp, #4]
 284 001c A37D     		ldrb	r3, [r4, #22]
 285 001e 0093     		str	r3, [sp]
 286 0020 A068     		ldr	r0, [r4, #8]
 287 0022 0223     		movs	r3, #2
 288 0024 FFF7FEFF 		bl	_ZN3BTD13L2CAP_CommandEtPhhhh
 289              	.LVL19:
 290              	.LBE119:
 291              	.LBE118:
 292              	.LBE117:
 293              	.LBE116:
  68:./PS4BT.h     ****                         pFuncOnInit(); // Call the user function
 294              		.loc 2 68 0
 295 0028 6368     		ldr	r3, [r4, #4]
 296 002a 002B     		cmp	r3, #0
 297 002c 02D0     		beq	.L10
  69:./PS4BT.h     ****                 else
 298              		.loc 2 69 0
 299 002e 9847     		blx	r3
 300              	.LVL20:
 301              	.L9:
  72:./PS4BT.h     **** 
 302              		.loc 2 72 0
 303 0030 04B0     		add	sp, sp, #16
 304              		@ sp needed
 305 0032 10BD     		pop	{r4, pc}
 306              	.LVL21:
 307              	.L10:
 308              	.LBB120:
 309              	.LBB121:
 310              	.LBB122:
 311              		.file 3 "./PS4Parser.h"
   1:./PS4Parser.h **** /* Copyright (C) 2014 Kristian Lauszus, TKJ Electronics. All rights reserved.
   2:./PS4Parser.h **** 
   3:./PS4Parser.h ****  This software may be distributed and modified under the terms of the GNU
ARM GAS  C:\Users\jrdia\AppData\Local\Temp\ccFTvYyK.s 			page 11


   4:./PS4Parser.h ****  General Public License version 2 (GPL2) as published by the Free Software
   5:./PS4Parser.h ****  Foundation and appearing in the file GPL2.TXT included in the packaging of
   6:./PS4Parser.h ****  this file. Please note that GPL2 Section 2[b] requires that all works based
   7:./PS4Parser.h ****  on this software must also be made publicly available under the terms of
   8:./PS4Parser.h ****  the GPL2 ("Copyleft").
   9:./PS4Parser.h **** 
  10:./PS4Parser.h ****  Contact information
  11:./PS4Parser.h ****  -------------------
  12:./PS4Parser.h **** 
  13:./PS4Parser.h ****  Kristian Lauszus, TKJ Electronics
  14:./PS4Parser.h ****  Web      :  http://www.tkjelectronics.com
  15:./PS4Parser.h ****  e-mail   :  kristianl@tkjelectronics.com
  16:./PS4Parser.h ****  */
  17:./PS4Parser.h **** 
  18:./PS4Parser.h **** #ifndef _ps4parser_h_
  19:./PS4Parser.h **** #define _ps4parser_h_
  20:./PS4Parser.h **** 
  21:./PS4Parser.h **** #include "Usb.h"
  22:./PS4Parser.h **** #include "controllerEnums.h"
  23:./PS4Parser.h **** 
  24:./PS4Parser.h **** /** Buttons on the controller */
  25:./PS4Parser.h **** const uint8_t PS4_BUTTONS[] PROGMEM = {
  26:./PS4Parser.h ****         UP, // UP
  27:./PS4Parser.h ****         RIGHT, // RIGHT
  28:./PS4Parser.h ****         DOWN, // DOWN
  29:./PS4Parser.h ****         LEFT, // LEFT
  30:./PS4Parser.h **** 
  31:./PS4Parser.h ****         0x0C, // SHARE
  32:./PS4Parser.h ****         0x0D, // OPTIONS
  33:./PS4Parser.h ****         0x0E, // L3
  34:./PS4Parser.h ****         0x0F, // R3
  35:./PS4Parser.h **** 
  36:./PS4Parser.h ****         0x0A, // L2
  37:./PS4Parser.h ****         0x0B, // R2
  38:./PS4Parser.h ****         0x08, // L1
  39:./PS4Parser.h ****         0x09, // R1
  40:./PS4Parser.h **** 
  41:./PS4Parser.h ****         0x07, // TRIANGLE
  42:./PS4Parser.h ****         0x06, // CIRCLE
  43:./PS4Parser.h ****         0x05, // CROSS
  44:./PS4Parser.h ****         0x04, // SQUARE
  45:./PS4Parser.h **** 
  46:./PS4Parser.h ****         0x10, // PS
  47:./PS4Parser.h ****         0x11, // TOUCHPAD
  48:./PS4Parser.h **** };
  49:./PS4Parser.h **** 
  50:./PS4Parser.h **** union PS4Buttons {
  51:./PS4Parser.h ****         struct {
  52:./PS4Parser.h ****                 uint8_t dpad : 4;
  53:./PS4Parser.h ****                 uint8_t square : 1;
  54:./PS4Parser.h ****                 uint8_t cross : 1;
  55:./PS4Parser.h ****                 uint8_t circle : 1;
  56:./PS4Parser.h ****                 uint8_t triangle : 1;
  57:./PS4Parser.h **** 
  58:./PS4Parser.h ****                 uint8_t l1 : 1;
  59:./PS4Parser.h ****                 uint8_t r1 : 1;
  60:./PS4Parser.h ****                 uint8_t l2 : 1;
ARM GAS  C:\Users\jrdia\AppData\Local\Temp\ccFTvYyK.s 			page 12


  61:./PS4Parser.h ****                 uint8_t r2 : 1;
  62:./PS4Parser.h ****                 uint8_t share : 1;
  63:./PS4Parser.h ****                 uint8_t options : 1;
  64:./PS4Parser.h ****                 uint8_t l3 : 1;
  65:./PS4Parser.h ****                 uint8_t r3 : 1;
  66:./PS4Parser.h **** 
  67:./PS4Parser.h ****                 uint8_t ps : 1;
  68:./PS4Parser.h ****                 uint8_t touchpad : 1;
  69:./PS4Parser.h ****                 uint8_t reportCounter : 6;
  70:./PS4Parser.h ****         } __attribute__((packed));
  71:./PS4Parser.h ****         uint32_t val : 24;
  72:./PS4Parser.h **** } __attribute__((packed));
  73:./PS4Parser.h **** 
  74:./PS4Parser.h **** struct touchpadXY {
  75:./PS4Parser.h ****         uint8_t dummy; // I can not figure out what this data is for, it seems to change randomly, 
  76:./PS4Parser.h ****         struct {
  77:./PS4Parser.h ****                 uint8_t counter : 7; // Increments every time a finger is touching the touchpad
  78:./PS4Parser.h ****                 uint8_t touching : 1; // The top bit is cleared if the finger is touching the touch
  79:./PS4Parser.h ****                 uint16_t x : 12;
  80:./PS4Parser.h ****                 uint16_t y : 12;
  81:./PS4Parser.h ****         } __attribute__((packed)) finger[2]; // 0 = first finger, 1 = second finger
  82:./PS4Parser.h **** } __attribute__((packed));
  83:./PS4Parser.h **** 
  84:./PS4Parser.h **** struct PS4Status {
  85:./PS4Parser.h ****         uint8_t battery : 4;
  86:./PS4Parser.h ****         uint8_t usb : 1;
  87:./PS4Parser.h ****         uint8_t audio : 1;
  88:./PS4Parser.h ****         uint8_t mic : 1;
  89:./PS4Parser.h ****         uint8_t unknown : 1; // Extension port?
  90:./PS4Parser.h **** } __attribute__((packed));
  91:./PS4Parser.h **** 
  92:./PS4Parser.h **** struct PS4Data {
  93:./PS4Parser.h ****         /* Button and joystick values */
  94:./PS4Parser.h ****         uint8_t hatValue[4];
  95:./PS4Parser.h ****         PS4Buttons btn;
  96:./PS4Parser.h ****         uint8_t trigger[2];
  97:./PS4Parser.h **** 
  98:./PS4Parser.h ****         /* Gyro and accelerometer values */
  99:./PS4Parser.h ****         uint8_t dummy[3]; // First two looks random, while the third one might be some kind of stat
 100:./PS4Parser.h ****         int16_t gyroY, gyroZ, gyroX;
 101:./PS4Parser.h ****         int16_t accX, accZ, accY;
 102:./PS4Parser.h **** 
 103:./PS4Parser.h ****         uint8_t dummy2[5];
 104:./PS4Parser.h ****         PS4Status status;
 105:./PS4Parser.h ****         uint8_t dummy3[3];
 106:./PS4Parser.h **** 
 107:./PS4Parser.h ****         /* The rest is data for the touchpad */
 108:./PS4Parser.h ****         touchpadXY xy[3]; // It looks like it sends out three coordinates each time, this might be 
 109:./PS4Parser.h ****                           // The last data is read from the last position in the array while the ol
 110:./PS4Parser.h ****                           // The first position will also keep it's value after the finger is relea
 111:./PS4Parser.h ****                           // Note that if you read fast enough from the device, then only the first
 112:./PS4Parser.h **** 
 113:./PS4Parser.h ****         // The last three bytes are always: 0x00, 0x80, 0x00
 114:./PS4Parser.h **** } __attribute__((packed));
 115:./PS4Parser.h **** 
 116:./PS4Parser.h **** struct PS4Output {
 117:./PS4Parser.h ****         uint8_t bigRumble, smallRumble; // Rumble
ARM GAS  C:\Users\jrdia\AppData\Local\Temp\ccFTvYyK.s 			page 13


 118:./PS4Parser.h ****         uint8_t r, g, b; // RGB
 119:./PS4Parser.h ****         uint8_t flashOn, flashOff; // Time to flash bright/dark (255 = 2.5 seconds)
 120:./PS4Parser.h ****         bool reportChanged; // The data is send when data is received from the controller
 121:./PS4Parser.h **** } __attribute__((packed));
 122:./PS4Parser.h **** 
 123:./PS4Parser.h **** /** This class parses all the data sent by the PS4 controller */
 124:./PS4Parser.h **** class PS4Parser {
 125:./PS4Parser.h **** public:
 126:./PS4Parser.h ****         /** Constructor for the PS4Parser class. */
 127:./PS4Parser.h ****         PS4Parser() {
 128:./PS4Parser.h ****                 Reset();
 129:./PS4Parser.h ****         };
 130:./PS4Parser.h **** 
 131:./PS4Parser.h ****         /** @name PS4 Controller functions */
 132:./PS4Parser.h ****         /**
 133:./PS4Parser.h ****          * getButtonPress(ButtonEnum b) will return true as long as the button is held down.
 134:./PS4Parser.h ****          *
 135:./PS4Parser.h ****          * While getButtonClick(ButtonEnum b) will only return it once.
 136:./PS4Parser.h ****          *
 137:./PS4Parser.h ****          * So you instance if you need to increase a variable once you would use getButtonClick(But
 138:./PS4Parser.h ****          * but if you need to drive a robot forward you would use getButtonPress(ButtonEnum b).
 139:./PS4Parser.h ****          * @param  b          ::ButtonEnum to read.
 140:./PS4Parser.h ****          * @return            getButtonPress(ButtonEnum b) will return a true as long as a button i
 141:./PS4Parser.h ****          */
 142:./PS4Parser.h ****         bool getButtonPress(ButtonEnum b);
 143:./PS4Parser.h ****         bool getButtonClick(ButtonEnum b);
 144:./PS4Parser.h ****         /**@}*/
 145:./PS4Parser.h ****         /** @name PS4 Controller functions */
 146:./PS4Parser.h ****         /**
 147:./PS4Parser.h ****          * Used to get the analog value from button presses.
 148:./PS4Parser.h ****          * @param  b The ::ButtonEnum to read.
 149:./PS4Parser.h ****          * The supported buttons are:
 150:./PS4Parser.h ****          * ::UP, ::RIGHT, ::DOWN, ::LEFT, ::L1, ::L2, ::R1, ::R2,
 151:./PS4Parser.h ****          * ::TRIANGLE, ::CIRCLE, ::CROSS, ::SQUARE, and ::T.
 152:./PS4Parser.h ****          * @return   Analog value in the range of 0-255.
 153:./PS4Parser.h ****          */
 154:./PS4Parser.h ****         uint8_t getAnalogButton(ButtonEnum b);
 155:./PS4Parser.h **** 
 156:./PS4Parser.h ****         /**
 157:./PS4Parser.h ****          * Used to read the analog joystick.
 158:./PS4Parser.h ****          * @param  a ::LeftHatX, ::LeftHatY, ::RightHatX, and ::RightHatY.
 159:./PS4Parser.h ****          * @return   Return the analog value in the range of 0-255.
 160:./PS4Parser.h ****          */
 161:./PS4Parser.h ****         uint8_t getAnalogHat(AnalogHatEnum a);
 162:./PS4Parser.h **** 
 163:./PS4Parser.h ****         /**
 164:./PS4Parser.h ****          * Get the x-coordinate of the touchpad. Position 0 is in the top left.
 165:./PS4Parser.h ****          * @param  finger 0 = first finger, 1 = second finger. If omitted, then 0 will be used.
 166:./PS4Parser.h ****          * @param  xyId   The controller sends out three packets with the same structure.
 167:./PS4Parser.h ****          *                The third one will contain the last measure, but if you read from the con
 168:./PS4Parser.h ****          *                For that reason it will be set to 0 if the argument is omitted.
 169:./PS4Parser.h ****          * @return        Returns the x-coordinate of the finger.
 170:./PS4Parser.h ****          */
 171:./PS4Parser.h ****         uint16_t getX(uint8_t finger = 0, uint8_t xyId = 0) {
 172:./PS4Parser.h ****                 return ps4Data.xy[xyId].finger[finger].x;
 173:./PS4Parser.h ****         };
 174:./PS4Parser.h **** 
ARM GAS  C:\Users\jrdia\AppData\Local\Temp\ccFTvYyK.s 			page 14


 175:./PS4Parser.h ****         /**
 176:./PS4Parser.h ****          * Get the y-coordinate of the touchpad. Position 0 is in the top left.
 177:./PS4Parser.h ****          * @param  finger 0 = first finger, 1 = second finger. If omitted, then 0 will be used.
 178:./PS4Parser.h ****          * @param  xyId   The controller sends out three packets with the same structure.
 179:./PS4Parser.h ****          *                The third one will contain the last measure, but if you read from the con
 180:./PS4Parser.h ****          *                For that reason it will be set to 0 if the argument is omitted.
 181:./PS4Parser.h ****          * @return        Returns the y-coordinate of the finger.
 182:./PS4Parser.h ****          */
 183:./PS4Parser.h ****         uint16_t getY(uint8_t finger = 0, uint8_t xyId = 0) {
 184:./PS4Parser.h ****                 return ps4Data.xy[xyId].finger[finger].y;
 185:./PS4Parser.h ****         };
 186:./PS4Parser.h **** 
 187:./PS4Parser.h ****         /**
 188:./PS4Parser.h ****          * Returns whenever the user is toucing the touchpad.
 189:./PS4Parser.h ****          * @param  finger 0 = first finger, 1 = second finger. If omitted, then 0 will be used.
 190:./PS4Parser.h ****          * @param  xyId   The controller sends out three packets with the same structure.
 191:./PS4Parser.h ****          *                The third one will contain the last measure, but if you read from the con
 192:./PS4Parser.h ****          *                For that reason it will be set to 0 if the argument is omitted.
 193:./PS4Parser.h ****          * @return        Returns true if the specific finger is touching the touchpad.
 194:./PS4Parser.h ****          */
 195:./PS4Parser.h ****         bool isTouching(uint8_t finger = 0, uint8_t xyId = 0) {
 196:./PS4Parser.h ****                 return !(ps4Data.xy[xyId].finger[finger].touching); // The bit is cleared when a fi
 197:./PS4Parser.h ****         };
 198:./PS4Parser.h **** 
 199:./PS4Parser.h ****         /**
 200:./PS4Parser.h ****          * This counter increments every time a finger touches the touchpad.
 201:./PS4Parser.h ****          * @param  finger 0 = first finger, 1 = second finger. If omitted, then 0 will be used.
 202:./PS4Parser.h ****          * @param  xyId   The controller sends out three packets with the same structure.
 203:./PS4Parser.h ****          *                The third one will contain the last measure, but if you read from the con
 204:./PS4Parser.h ****          *                For that reason it will be set to 0 if the argument is omitted.
 205:./PS4Parser.h ****          * @return        Return the value of the counter, note that it is only a 7-bit value.
 206:./PS4Parser.h ****          */
 207:./PS4Parser.h ****         uint8_t getTouchCounter(uint8_t finger = 0, uint8_t xyId = 0) {
 208:./PS4Parser.h ****                 return ps4Data.xy[xyId].finger[finger].counter;
 209:./PS4Parser.h ****         };
 210:./PS4Parser.h **** 
 211:./PS4Parser.h ****         /**
 212:./PS4Parser.h ****          * Get the angle of the controller calculated using the accelerometer.
 213:./PS4Parser.h ****          * @param  a Either ::Pitch or ::Roll.
 214:./PS4Parser.h ****          * @return   Return the angle in the range of 0-360.
 215:./PS4Parser.h ****          */
 216:./PS4Parser.h ****         float getAngle(AngleEnum a) {
 217:./PS4Parser.h ****                 if (a == Pitch)
 218:./PS4Parser.h ****                         return (atan2f(ps4Data.accY, ps4Data.accZ) + PI) * RAD_TO_DEG;
 219:./PS4Parser.h ****                 else
 220:./PS4Parser.h ****                         return (atan2f(ps4Data.accX, ps4Data.accZ) + PI) * RAD_TO_DEG;
 221:./PS4Parser.h ****         };
 222:./PS4Parser.h **** 
 223:./PS4Parser.h ****         /**
 224:./PS4Parser.h ****          * Used to get the raw values from the 3-axis gyroscope and 3-axis accelerometer inside the
 225:./PS4Parser.h ****          * @param  s The sensor to read.
 226:./PS4Parser.h ****          * @return   Returns the raw sensor reading.
 227:./PS4Parser.h ****          */
 228:./PS4Parser.h ****         int16_t getSensor(SensorEnum s) {
 229:./PS4Parser.h ****                 switch(s) {
 230:./PS4Parser.h ****                         case gX:
 231:./PS4Parser.h ****                                 return ps4Data.gyroX;
ARM GAS  C:\Users\jrdia\AppData\Local\Temp\ccFTvYyK.s 			page 15


 232:./PS4Parser.h ****                         case gY:
 233:./PS4Parser.h ****                                 return ps4Data.gyroY;
 234:./PS4Parser.h ****                         case gZ:
 235:./PS4Parser.h ****                                 return ps4Data.gyroZ;
 236:./PS4Parser.h ****                         case aX:
 237:./PS4Parser.h ****                                 return ps4Data.accX;
 238:./PS4Parser.h ****                         case aY:
 239:./PS4Parser.h ****                                 return ps4Data.accY;
 240:./PS4Parser.h ****                         case aZ:
 241:./PS4Parser.h ****                                 return ps4Data.accZ;
 242:./PS4Parser.h ****                         default:
 243:./PS4Parser.h ****                                 return 0;
 244:./PS4Parser.h ****                 }
 245:./PS4Parser.h ****         };
 246:./PS4Parser.h **** 
 247:./PS4Parser.h ****         /**
 248:./PS4Parser.h ****          * Return the battery level of the PS4 controller.
 249:./PS4Parser.h ****          * @return The battery level in the range 0-15.
 250:./PS4Parser.h ****          */
 251:./PS4Parser.h ****         uint8_t getBatteryLevel() {
 252:./PS4Parser.h ****                 return ps4Data.status.battery;
 253:./PS4Parser.h ****         };
 254:./PS4Parser.h **** 
 255:./PS4Parser.h ****         /**
 256:./PS4Parser.h ****          * Use this to check if an USB cable is connected to the PS4 controller.
 257:./PS4Parser.h ****          * @return Returns true if an USB cable is connected.
 258:./PS4Parser.h ****          */
 259:./PS4Parser.h ****         bool getUsbStatus() {
 260:./PS4Parser.h ****                 return ps4Data.status.usb;
 261:./PS4Parser.h ****         };
 262:./PS4Parser.h **** 
 263:./PS4Parser.h ****         /**
 264:./PS4Parser.h ****          * Use this to check if an audio jack cable is connected to the PS4 controller.
 265:./PS4Parser.h ****          * @return Returns true if an audio jack cable is connected.
 266:./PS4Parser.h ****          */
 267:./PS4Parser.h ****         bool getAudioStatus() {
 268:./PS4Parser.h ****                 return ps4Data.status.audio;
 269:./PS4Parser.h ****         };
 270:./PS4Parser.h **** 
 271:./PS4Parser.h ****         /**
 272:./PS4Parser.h ****          * Use this to check if a microphone is connected to the PS4 controller.
 273:./PS4Parser.h ****          * @return Returns true if a microphone is connected.
 274:./PS4Parser.h ****          */
 275:./PS4Parser.h ****         bool getMicStatus() {
 276:./PS4Parser.h ****                 return ps4Data.status.mic;
 277:./PS4Parser.h ****         };
 278:./PS4Parser.h **** 
 279:./PS4Parser.h ****         /** Turn both rumble and the LEDs off. */
 280:./PS4Parser.h ****         void setAllOff() {
 281:./PS4Parser.h ****                 setRumbleOff();
 282:./PS4Parser.h ****                 setLedOff();
 283:./PS4Parser.h ****         };
 284:./PS4Parser.h **** 
 285:./PS4Parser.h ****         /** Set rumble off. */
 286:./PS4Parser.h ****         void setRumbleOff() {
 287:./PS4Parser.h ****                 setRumbleOn(0, 0);
 288:./PS4Parser.h ****         };
ARM GAS  C:\Users\jrdia\AppData\Local\Temp\ccFTvYyK.s 			page 16


 289:./PS4Parser.h **** 
 290:./PS4Parser.h ****         /**
 291:./PS4Parser.h ****          * Turn on rumble.
 292:./PS4Parser.h ****          * @param mode Either ::RumbleHigh or ::RumbleLow.
 293:./PS4Parser.h ****          */
 294:./PS4Parser.h ****         void setRumbleOn(RumbleEnum mode) {
 295:./PS4Parser.h ****                 if (mode == RumbleLow)
 296:./PS4Parser.h ****                         setRumbleOn(0x00, 0xFF);
 297:./PS4Parser.h ****                 else
 298:./PS4Parser.h ****                         setRumbleOn(0xFF, 0x00);
 299:./PS4Parser.h ****         };
 300:./PS4Parser.h **** 
 301:./PS4Parser.h ****         /**
 302:./PS4Parser.h ****          * Turn on rumble.
 303:./PS4Parser.h ****          * @param bigRumble   Value for big motor.
 304:./PS4Parser.h ****          * @param smallRumble Value for small motor.
 305:./PS4Parser.h ****          */
 306:./PS4Parser.h ****         void setRumbleOn(uint8_t bigRumble, uint8_t smallRumble) {
 307:./PS4Parser.h ****                 ps4Output.bigRumble = bigRumble;
 308:./PS4Parser.h ****                 ps4Output.smallRumble = smallRumble;
 309:./PS4Parser.h ****                 ps4Output.reportChanged = true;
 310:./PS4Parser.h ****         };
 311:./PS4Parser.h **** 
 312:./PS4Parser.h ****         /** Turn all LEDs off. */
 313:./PS4Parser.h ****         void setLedOff() {
 314:./PS4Parser.h ****                 setLed(0, 0, 0);
 315:./PS4Parser.h ****         };
 316:./PS4Parser.h **** 
 317:./PS4Parser.h ****         /**
 318:./PS4Parser.h ****          * Use this to set the color using RGB values.
 319:./PS4Parser.h ****          * @param r,g,b RGB value.
 320:./PS4Parser.h ****          */
 321:./PS4Parser.h ****         void setLed(uint8_t r, uint8_t g, uint8_t b) {
 322:./PS4Parser.h ****                 ps4Output.r = r;
 312              		.loc 3 322 0
 313 0034 2200     		movs	r2, r4
 314 0036 7432     		adds	r2, r2, #116
 315 0038 1370     		strb	r3, [r2]
 323:./PS4Parser.h ****                 ps4Output.g = g;
 316              		.loc 3 323 0
 317 003a 5370     		strb	r3, [r2, #1]
 324:./PS4Parser.h ****                 ps4Output.b = b;
 318              		.loc 3 324 0
 319 003c 2300     		movs	r3, r4
 320 003e FF22     		movs	r2, #255
 321 0040 7633     		adds	r3, r3, #118
 322 0042 1A70     		strb	r2, [r3]
 325:./PS4Parser.h ****                 ps4Output.reportChanged = true;
 323              		.loc 3 325 0
 324 0044 0123     		movs	r3, #1
 325 0046 7934     		adds	r4, r4, #121
 326              	.LVL22:
 327 0048 2370     		strb	r3, [r4]
 328              	.LVL23:
 329              	.LBE122:
 330              	.LBE121:
 331              	.LBE120:
ARM GAS  C:\Users\jrdia\AppData\Local\Temp\ccFTvYyK.s 			page 17


  72:./PS4BT.h     **** 
 332              		.loc 2 72 0
 333 004a F1E7     		b	.L9
 334              		.cfi_endproc
 335              	.LFE306:
 336              		.fnend
 337              		.size	_ZN5PS4BT11OnInitBTHIDEv, .-_ZN5PS4BT11OnInitBTHIDEv
 338              		.section	.text._ZN5PS4BT14ParseBTHIDDataEhPh,"axG",%progbits,_ZN5PS4BT14ParseBTHIDDataEhPh,comdat
 339              		.align	2
 340              		.weak	_ZN5PS4BT14ParseBTHIDDataEhPh
 341              		.code	16
 342              		.thumb_func
 343              		.type	_ZN5PS4BT14ParseBTHIDDataEhPh, %function
 344              	_ZN5PS4BT14ParseBTHIDDataEhPh:
 345              		.fnstart
 346              	.LFB305:
  56:./PS4BT.h     ****                 PS4Parser::Parse(len, buf);
 347              		.loc 2 56 0
 348              		.cfi_startproc
 349              		@ args = 0, pretend = 0, frame = 0
 350              		@ frame_needed = 0, uses_anonymous_args = 0
 351              	.LVL24:
 352 0000 10B5     		push	{r4, lr}
 353              		.save {r4, lr}
 354              		.cfi_def_cfa_offset 8
 355              		.cfi_offset 4, -8
 356              		.cfi_offset 14, -4
  57:./PS4BT.h     ****         };
 357              		.loc 2 57 0
 358 0002 2C30     		adds	r0, r0, #44
 359              	.LVL25:
 360 0004 FFF7FEFF 		bl	_ZN9PS4Parser5ParseEhPh
 361              	.LVL26:
  58:./PS4BT.h     **** 
 362              		.loc 2 58 0
 363              		@ sp needed
 364 0008 10BD     		pop	{r4, pc}
 365              		.cfi_endproc
 366              	.LFE305:
 367              		.fnend
 368              		.size	_ZN5PS4BT14ParseBTHIDDataEhPh, .-_ZN5PS4BT14ParseBTHIDDataEhPh
 369 000a C046     		.section	.text._ZN8MAX3421eI4TPinI5PortbLh2EES0_IS1_Lh1EEE5regWrEhh.isra.2,"ax",%progbits
 370              		.align	2
 371              		.code	16
 372              		.thumb_func
 373              		.type	_ZN8MAX3421eI4TPinI5PortbLh2EES0_IS1_Lh1EEE5regWrEhh.isra.2, %function
 374              	_ZN8MAX3421eI4TPinI5PortbLh2EES0_IS1_Lh1EEE5regWrEhh.isra.2:
 375              		.fnstart
 376              	.LFB337:
 377              		.file 4 "./usbhost.h"
   1:./usbhost.h   **** /* Copyright (C) 2011 Circuits At Home, LTD. All rights reserved.
   2:./usbhost.h   **** 
   3:./usbhost.h   **** This software may be distributed and modified under the terms of the GNU
   4:./usbhost.h   **** General Public License version 2 (GPL2) as published by the Free Software
   5:./usbhost.h   **** Foundation and appearing in the file GPL2.TXT included in the packaging of
   6:./usbhost.h   **** this file. Please note that GPL2 Section 2[b] requires that all works based
   7:./usbhost.h   **** on this software must also be made publicly available under the terms of
ARM GAS  C:\Users\jrdia\AppData\Local\Temp\ccFTvYyK.s 			page 18


   8:./usbhost.h   **** the GPL2 ("Copyleft").
   9:./usbhost.h   **** 
  10:./usbhost.h   **** Contact information
  11:./usbhost.h   **** -------------------
  12:./usbhost.h   **** 
  13:./usbhost.h   **** Circuits At Home, LTD
  14:./usbhost.h   **** Web      :  http://www.circuitsathome.com
  15:./usbhost.h   **** e-mail   :  support@circuitsathome.com
  16:./usbhost.h   ****  */
  17:./usbhost.h   **** /* MAX3421E-based USB Host Library header file */
  18:./usbhost.h   **** 
  19:./usbhost.h   **** 
  20:./usbhost.h   **** #if !defined(_usb_h_) || defined(_USBHOST_H_)
  21:./usbhost.h   **** #error "Never include usbhost.h directly; include Usb.h instead"
  22:./usbhost.h   **** #else
  23:./usbhost.h   **** #define _USBHOST_H_
  24:./usbhost.h   ****     #define SPI_DELAY 25
  25:./usbhost.h   ****     extern "C" {
  26:./usbhost.h   **** 
  27:./usbhost.h   **** 	// PSoC include, this has to be wrapped
  28:./usbhost.h   **** 	#include "project.h"
  29:./usbhost.h   **** }
  30:./usbhost.h   **** #warning "Need to clean up a lot of stuff in usbhost.h"
  31:./usbhost.h   **** #if USING_SPI4TEENSY3
  32:./usbhost.h   **** #include <spi4teensy3.h>
  33:./usbhost.h   **** #include <sys/types.h>
  34:./usbhost.h   **** #endif
  35:./usbhost.h   **** #include "project.h"
  36:./usbhost.h   **** /* SPI initialization */
  37:./usbhost.h   **** template< typename SPI_CLK, typename SPI_MOSI, typename SPI_MISO, typename SPI_SS > class SPi {
  38:./usbhost.h   **** public:
  39:./usbhost.h   **** #if USING_SPI4TEENSY3
  40:./usbhost.h   ****         static void init() {
  41:./usbhost.h   ****                 // spi4teensy3 inits everything for us, except /SS
  42:./usbhost.h   ****                 // CLK, MOSI and MISO are hard coded for now.
  43:./usbhost.h   ****                 // spi4teensy3::init(0,0,0); // full speed, cpol 0, cpha 0
  44:./usbhost.h   ****                 spi4teensy3::init(); // full speed, cpol 0, cpha 0
  45:./usbhost.h   ****                 SPI_SS::SetDirWrite();
  46:./usbhost.h   ****                 SPI_SS::Set();
  47:./usbhost.h   ****         }
  48:./usbhost.h   **** #elif defined(SPI_HAS_TRANSACTION)
  49:./usbhost.h   ****         static void init() {
  50:./usbhost.h   ****                 SPI.begin(); // The SPI library with transaction will take care of setting up the p
  51:./usbhost.h   ****                 SPI_SS::SetDirWrite();
  52:./usbhost.h   ****                 SPI_SS::Set();
  53:./usbhost.h   ****         }
  54:./usbhost.h   **** #elif defined(STM32F4)
  55:./usbhost.h   **** #warning "You need to initialize the SPI interface manually when using the STM32F4 platform"
  56:./usbhost.h   ****         static void init() {
  57:./usbhost.h   ****                 // Should be initialized by the user manually for now
  58:./usbhost.h   ****         }
  59:./usbhost.h   **** #elif !defined(SPDR)
  60:./usbhost.h   ****         static void init() {
  61:./usbhost.h   ****                 SPI_SS::SetDirWrite();
  62:./usbhost.h   ****                 SPI_SS::Set();
  63:./usbhost.h   ****                 //UNC SPI.begin();
  64:./usbhost.h   **** #if defined(__MIPSEL__)
ARM GAS  C:\Users\jrdia\AppData\Local\Temp\ccFTvYyK.s 			page 19


  65:./usbhost.h   ****                 SPI.setClockDivider(1);
  66:./usbhost.h   **** #elif defined(__ARDUINO_X86__)
  67:./usbhost.h   ****                 #ifdef SPI_CLOCK_1M // Hack used to check if setClockSpeed is available
  68:./usbhost.h   ****                     SPI.setClockSpeed(12000000); // The MAX3421E can handle up to 26MHz, but in pra
  69:./usbhost.h   ****                 #else
  70:./usbhost.h   ****                     SPI.setClockDivider(SPI_CLOCK_DIV2); // This will set the SPI frequency to 8MHz
  71:./usbhost.h   ****                 #endif
  72:./usbhost.h   **** #elif !defined(RBL_NRF51822)
  73:./usbhost.h   ****                 //UNC SPI.setClockDivider(4); // Set speed to 84MHz/4=21MHz - the MAX3421E can hand
  74:./usbhost.h   **** #endif
  75:./usbhost.h   ****         }
  76:./usbhost.h   **** #else
  77:./usbhost.h   ****         static void init() {
  78:./usbhost.h   ****                 //uint8_t tmp;
  79:./usbhost.h   ****                 SPI_CLK::SetDirWrite();
  80:./usbhost.h   ****                 SPI_MOSI::SetDirWrite();
  81:./usbhost.h   ****                 SPI_MISO::SetDirRead();
  82:./usbhost.h   ****                 SPI_SS::SetDirWrite();
  83:./usbhost.h   ****                 /* mode 00 (CPOL=0, CPHA=0) master, fclk/2. Mode 11 (CPOL=11, CPHA=11) is also supp
  84:./usbhost.h   ****                 SPCR = 0x50;
  85:./usbhost.h   ****                 SPSR = 0x01; // 0x01
  86:./usbhost.h   ****                 /**/
  87:./usbhost.h   ****                 //tmp = SPSR;
  88:./usbhost.h   ****                 //tmp = SPDR;
  89:./usbhost.h   ****         }
  90:./usbhost.h   **** #endif
  91:./usbhost.h   **** };
  92:./usbhost.h   **** 
  93:./usbhost.h   **** /* SPI pin definitions. see avrpins.h   */
  94:./usbhost.h   **** #if defined(PIN_SPI_SCK) && defined(PIN_SPI_MOSI) && defined(PIN_SPI_MISO) && defined(PIN_SPI_SS)
  95:./usbhost.h   **** // Use pin defines: https://github.com/arduino/Arduino/pull/4814
  96:./usbhost.h   **** // Based on: https://www.mikeash.com/pyblog/friday-qa-2015-03-20-preprocessor-abuse-and-optional-pa
  97:./usbhost.h   **** #define NOTHING_EXTRACT
  98:./usbhost.h   **** #define EXTRACT(...) EXTRACT __VA_ARGS__
  99:./usbhost.h   **** #define PASTE(x, ...) x ## __VA_ARGS__
 100:./usbhost.h   **** #define EVALUATING_PASTE(x, ...) PASTE(x, __VA_ARGS__)
 101:./usbhost.h   **** #define UNPAREN(x) EVALUATING_PASTE(NOTHING_, EXTRACT x)
 102:./usbhost.h   **** #define APPEND_PIN(pin) P ## pin // Appends the pin to 'P', e.g. 1 becomes P1
 103:./usbhost.h   **** #define MAKE_PIN(x) EVALUATING_PASTE(APPEND_, PIN(UNPAREN(x)))
 104:./usbhost.h   **** typedef SPi< MAKE_PIN(PIN_SPI_SCK), MAKE_PIN(PIN_SPI_MOSI), MAKE_PIN(PIN_SPI_MISO), MAKE_PIN(PIN_SP
 105:./usbhost.h   **** #undef MAKE_PIN
 106:./usbhost.h   **** #elif defined(__AVR_ATmega1280__) || (__AVR_ATmega2560__) || defined(__AVR_ATmega32U4__) || defined
 107:./usbhost.h   **** typedef SPi< Pb1, Pb2, Pb3, Pb0 > spi;
 108:./usbhost.h   **** #elif  defined(__AVR_ATmega168__) || defined(__AVR_ATmega328P__)
 109:./usbhost.h   **** typedef SPi< Pb5, Pb3, Pb4, Pb2 > spi;
 110:./usbhost.h   **** #elif defined(__AVR_ATmega644__) || defined(__AVR_ATmega644P__) || defined(__AVR_ATmega1284__) || d
 111:./usbhost.h   **** typedef SPi< Pb7, Pb5, Pb6, Pb4 > spi;
 112:./usbhost.h   **** #elif (defined(CORE_TEENSY) && (defined(__MK20DX128__) || defined(__MK20DX256__) || defined(__MK64F
 113:./usbhost.h   **** typedef SPi< P13, P11, P12, P10 > spi;
 114:./usbhost.h   **** #elif defined(ARDUINO_SAM_DUE) && defined(__SAM3X8E__)
 115:./usbhost.h   **** typedef SPi< P76, P75, P74, P10 > spi;
 116:./usbhost.h   **** #elif defined(RBL_NRF51822)
 117:./usbhost.h   **** typedef SPi< P16, P18, P17, P10 > spi;
 118:./usbhost.h   **** #elif defined(ESP8266)
 119:./usbhost.h   **** typedef SPi< P14, P13, P12, P15 > spi;
 120:./usbhost.h   **** #else
 121:./usbhost.h   **** #error "No SPI entry in usbhost.h"
ARM GAS  C:\Users\jrdia\AppData\Local\Temp\ccFTvYyK.s 			page 20


 122:./usbhost.h   **** #endif
 123:./usbhost.h   **** 
 124:./usbhost.h   **** typedef enum {
 125:./usbhost.h   ****         vbus_on = 0,
 126:./usbhost.h   ****         vbus_off = GPX_VBDET
 127:./usbhost.h   **** } VBUS_t;
 128:./usbhost.h   **** 
 129:./usbhost.h   **** template< typename SPI_SS, typename INTR > class MAX3421e /* : public spi */ {
 130:./usbhost.h   ****         static uint8_t vbusState;
 131:./usbhost.h   **** 
 132:./usbhost.h   **** public:
 133:./usbhost.h   ****         MAX3421e();
 134:./usbhost.h   ****         void regWr(uint8_t reg, uint8_t data);
 135:./usbhost.h   ****         uint8_t* bytesWr(uint8_t reg, uint8_t nbytes, uint8_t* data_p);
 136:./usbhost.h   ****         void gpioWr(uint8_t data);
 137:./usbhost.h   ****         uint8_t regRd(uint8_t reg);
 138:./usbhost.h   ****         uint8_t* bytesRd(uint8_t reg, uint8_t nbytes, uint8_t* data_p);
 139:./usbhost.h   ****         uint8_t gpioRd();
 140:./usbhost.h   ****         uint16_t reset();
 141:./usbhost.h   ****         int8_t Init();
 142:./usbhost.h   ****         int8_t Init(int mseconds);
 143:./usbhost.h   **** 
 144:./usbhost.h   ****         void vbusPower(VBUS_t state) {
 145:./usbhost.h   ****                 regWr(rPINCTL, (bmFDUPSPI | bmINTLEVEL | state));
 146:./usbhost.h   ****         }
 147:./usbhost.h   **** 
 148:./usbhost.h   ****         uint8_t getVbusState(void) {
 149:./usbhost.h   ****                 return vbusState;
 150:./usbhost.h   ****         };
 151:./usbhost.h   ****         void busprobe();
 152:./usbhost.h   ****         uint8_t GpxHandler();
 153:./usbhost.h   ****         uint8_t IntHandler();
 154:./usbhost.h   ****         uint8_t Task();
 155:./usbhost.h   **** };
 156:./usbhost.h   **** 
 157:./usbhost.h   **** template< typename SPI_SS, typename INTR >
 158:./usbhost.h   ****         uint8_t MAX3421e< SPI_SS, INTR >::vbusState = 0;
 159:./usbhost.h   **** 
 160:./usbhost.h   **** /* constructor */
 161:./usbhost.h   **** template< typename SPI_SS, typename INTR >
 162:./usbhost.h   **** MAX3421e< SPI_SS, INTR >::MAX3421e() {
 163:./usbhost.h   ****         // Leaving ADK hardware setup in here, for now. This really belongs with the other parts.
 164:./usbhost.h   **** #ifdef BOARD_MEGA_ADK
 165:./usbhost.h   ****         // For Mega ADK, which has a Max3421e on-board, set MAX_RESET to output mode, and then set 
 166:./usbhost.h   ****         P55::SetDirWrite();
 167:./usbhost.h   ****         P55::Set();
 168:./usbhost.h   **** #endif
 169:./usbhost.h   **** };
 170:./usbhost.h   **** 
 171:./usbhost.h   **** /* write single byte into MAX3421 register */
 172:./usbhost.h   **** template< typename SPI_SS, typename INTR >
 173:./usbhost.h   **** void MAX3421e< SPI_SS, INTR >::regWr(uint8_t reg, uint8_t data) {
 378              		.loc 4 173 0
 379              		.cfi_startproc
 380              		@ args = 0, pretend = 0, frame = 0
 381              		@ frame_needed = 0, uses_anonymous_args = 0
 382              	.LVL27:
ARM GAS  C:\Users\jrdia\AppData\Local\Temp\ccFTvYyK.s 			page 21


 383 0000 70B5     		push	{r4, r5, r6, lr}
 384              		.save {r4, r5, r6, lr}
 385              		.cfi_def_cfa_offset 16
 386              		.cfi_offset 4, -16
 387              		.cfi_offset 5, -12
 388              		.cfi_offset 6, -8
 389              		.cfi_offset 14, -4
 390              		.loc 4 173 0
 391 0002 0500     		movs	r5, r0
 174:./usbhost.h   ****     
 175:./usbhost.h   ****     //Old Code Below
 176:./usbhost.h   ****     CyDelayUs(SPI_DELAY);
 392              		.loc 4 176 0
 393 0004 1920     		movs	r0, #25
 394              	.LVL28:
 173:./usbhost.h   ****     
 395              		.loc 4 173 0
 396 0006 0C00     		movs	r4, r1
 397              		.loc 4 176 0
 398 0008 FFF7FEFF 		bl	CyDelayUs
 399              	.LVL29:
 177:./usbhost.h   ****     SS_Write(0);
 400              		.loc 4 177 0
 401 000c 0020     		movs	r0, #0
 402 000e FFF7FEFF 		bl	SS_Write
 403              	.LVL30:
 178:./usbhost.h   ****     
 179:./usbhost.h   ****     //SPI_PutArray(buffer,2);
 180:./usbhost.h   ****     
 181:./usbhost.h   ****     SPI_WriteTxData(reg | 0x02);
 404              		.loc 4 181 0
 405 0012 0220     		movs	r0, #2
 406 0014 2843     		orrs	r0, r5
 407 0016 FFF7FEFF 		bl	SPI_WriteTxData
 408              	.LVL31:
 182:./usbhost.h   ****     SPI_WriteTxData(data); 
 409              		.loc 4 182 0
 410 001a 2000     		movs	r0, r4
 411 001c FFF7FEFF 		bl	SPI_WriteTxData
 412              	.LVL32:
 183:./usbhost.h   ****     CyDelayUs(SPI_DELAY);
 413              		.loc 4 183 0
 414 0020 1920     		movs	r0, #25
 415 0022 FFF7FEFF 		bl	CyDelayUs
 416              	.LVL33:
 184:./usbhost.h   ****     SS_Write(1);
 417              		.loc 4 184 0
 418 0026 0120     		movs	r0, #1
 419 0028 FFF7FEFF 		bl	SS_Write
 420              	.LVL34:
 185:./usbhost.h   ****     return;
 186:./usbhost.h   ****     
 187:./usbhost.h   ****         //UNC XMEM_ACQUIRE_SPI();
 188:./usbhost.h   **** #if defined(SPI_HAS_TRANSACTION)
 189:./usbhost.h   ****         SPI.beginTransaction(SPISettings(26000000, MSBFIRST, SPI_MODE0)); // The MAX3421E can handl
 190:./usbhost.h   **** #endif
 191:./usbhost.h   ****         SPI_SS::Clear();
ARM GAS  C:\Users\jrdia\AppData\Local\Temp\ccFTvYyK.s 			page 22


 192:./usbhost.h   **** 
 193:./usbhost.h   **** #if USING_SPI4TEENSY3
 194:./usbhost.h   ****         uint8_t c[2];
 195:./usbhost.h   ****         c[0] = reg | 0x02;
 196:./usbhost.h   ****         c[1] = data;
 197:./usbhost.h   ****         spi4teensy3::send(c, 2);
 198:./usbhost.h   **** #elif defined(SPI_HAS_TRANSACTION) && !defined(ESP8266)
 199:./usbhost.h   ****         uint8_t c[2];
 200:./usbhost.h   ****         c[0] = reg | 0x02;
 201:./usbhost.h   ****         c[1] = data;
 202:./usbhost.h   ****         SPI.transfer(c, 2);
 203:./usbhost.h   **** #elif defined(STM32F4)
 204:./usbhost.h   ****         uint8_t c[2];
 205:./usbhost.h   ****         c[0] = reg | 0x02;
 206:./usbhost.h   ****         c[1] = data;
 207:./usbhost.h   ****         HAL_SPI_Transmit(&SPI_Handle, c, 2, HAL_MAX_DELAY);
 208:./usbhost.h   **** #elif !defined(SPDR) // ESP8266
 209:./usbhost.h   ****         //UNC SPI.transfer(reg | 0x02);
 210:./usbhost.h   ****         //UNC SPI.transfer(data);
 211:./usbhost.h   **** #else
 212:./usbhost.h   ****         SPDR = (reg | 0x02);
 213:./usbhost.h   ****         while(!(SPSR & (1 << SPIF)));
 214:./usbhost.h   ****         SPDR = data;
 215:./usbhost.h   ****         while(!(SPSR & (1 << SPIF)));
 216:./usbhost.h   **** #endif
 217:./usbhost.h   **** 
 218:./usbhost.h   ****         SPI_SS::Set();
 219:./usbhost.h   **** #if defined(SPI_HAS_TRANSACTION)
 220:./usbhost.h   ****         SPI.endTransaction();
 221:./usbhost.h   **** #endif
 222:./usbhost.h   ****         //UNC XMEM_RELEASE_SPI();
 223:./usbhost.h   ****         return;
 224:./usbhost.h   **** };
 421              		.loc 4 224 0
 422              		@ sp needed
 423 002c 70BD     		pop	{r4, r5, r6, pc}
 424              		.cfi_endproc
 425              	.LFE337:
 426              		.fnend
 427              		.size	_ZN8MAX3421eI4TPinI5PortbLh2EES0_IS1_Lh1EEE5regWrEhh.isra.2, .-_ZN8MAX3421eI4TPinI5PortbLh2E
 428 002e C046     		.section	.text._ZN8MAX3421eI4TPinI5PortbLh2EES0_IS1_Lh1EEE5regRdEh.isra.3,"ax",%progbits
 429              		.align	2
 430              		.code	16
 431              		.thumb_func
 432              		.type	_ZN8MAX3421eI4TPinI5PortbLh2EES0_IS1_Lh1EEE5regRdEh.isra.3, %function
 433              	_ZN8MAX3421eI4TPinI5PortbLh2EES0_IS1_Lh1EEE5regRdEh.isra.3:
 434              		.fnstart
 435              	.LFB338:
 225:./usbhost.h   **** /* multiple-byte write                            */
 226:./usbhost.h   **** 
 227:./usbhost.h   **** /* returns a pointer to memory position after last written */
 228:./usbhost.h   **** template< typename SPI_SS, typename INTR >
 229:./usbhost.h   **** uint8_t* MAX3421e< SPI_SS, INTR >::bytesWr(uint8_t reg, uint8_t nbytes, uint8_t* data_p) {
 230:./usbhost.h   ****         //UNC XMEM_ACQUIRE_SPI();
 231:./usbhost.h   ****     
 232:./usbhost.h   ****     CyDelayUs(SPI_DELAY);
 233:./usbhost.h   ****     SS_Write(0);
ARM GAS  C:\Users\jrdia\AppData\Local\Temp\ccFTvYyK.s 			page 23


 234:./usbhost.h   ****     SPI_WriteTxData(reg | 0x02);
 235:./usbhost.h   ****             //UNC SPI.transfer(reg | 0x02);
 236:./usbhost.h   ****         while(nbytes) {
 237:./usbhost.h   ****                 //UNC SPI.transfer(*data_p);
 238:./usbhost.h   ****             while(SPI_GetTxBufferSize()==4);
 239:./usbhost.h   ****             SPI_WriteTxData(*data_p);
 240:./usbhost.h   ****             //SPI_ClearRxBuffer();
 241:./usbhost.h   ****                 nbytes--;
 242:./usbhost.h   ****                 data_p++; // advance data pointer
 243:./usbhost.h   ****         }
 244:./usbhost.h   ****         CyDelayUs(SPI_DELAY);
 245:./usbhost.h   ****         SS_Write(1);
 246:./usbhost.h   ****         return ( data_p);
 247:./usbhost.h   ****         //Old Code Below
 248:./usbhost.h   **** #if defined(SPI_HAS_TRANSACTION)
 249:./usbhost.h   ****         SPI.beginTransaction(SPISettings(26000000, MSBFIRST, SPI_MODE0)); // The MAX3421E can handl
 250:./usbhost.h   **** #endif
 251:./usbhost.h   ****         SPI_SS::Clear();
 252:./usbhost.h   **** 
 253:./usbhost.h   **** #if USING_SPI4TEENSY3
 254:./usbhost.h   ****         spi4teensy3::send(reg | 0x02);
 255:./usbhost.h   ****         spi4teensy3::send(data_p, nbytes);
 256:./usbhost.h   ****         data_p += nbytes;
 257:./usbhost.h   **** #elif defined(SPI_HAS_TRANSACTION) && !defined(ESP8266)
 258:./usbhost.h   ****         SPI.transfer(reg | 0x02);
 259:./usbhost.h   ****         SPI.transfer(data_p, nbytes);
 260:./usbhost.h   ****         data_p += nbytes;
 261:./usbhost.h   **** #elif defined(__ARDUINO_X86__)
 262:./usbhost.h   ****         SPI.transfer(reg | 0x02);
 263:./usbhost.h   ****         SPI.transferBuffer(data_p, NULL, nbytes);
 264:./usbhost.h   ****         data_p += nbytes;
 265:./usbhost.h   **** #elif defined(STM32F4)
 266:./usbhost.h   ****         uint8_t data = reg | 0x02;
 267:./usbhost.h   ****         HAL_SPI_Transmit(&SPI_Handle, &data, 1, HAL_MAX_DELAY);
 268:./usbhost.h   ****         HAL_SPI_Transmit(&SPI_Handle, data_p, nbytes, HAL_MAX_DELAY);
 269:./usbhost.h   ****         data_p += nbytes;
 270:./usbhost.h   **** #elif !defined(SPDR) // ESP8266
 271:./usbhost.h   ****         //UNC SPI.transfer(reg | 0x02);
 272:./usbhost.h   ****         while(nbytes) {
 273:./usbhost.h   ****                 //UNC SPI.transfer(*data_p);
 274:./usbhost.h   ****                 nbytes--;
 275:./usbhost.h   ****                 data_p++; // advance data pointer
 276:./usbhost.h   ****         }
 277:./usbhost.h   **** #else
 278:./usbhost.h   ****         SPDR = (reg | 0x02); //set WR bit and send register number
 279:./usbhost.h   ****         while(nbytes) {
 280:./usbhost.h   ****                 while(!(SPSR & (1 << SPIF))); //check if previous byte was sent
 281:./usbhost.h   ****                 SPDR = (*data_p); // send next data byte
 282:./usbhost.h   ****                 nbytes--;
 283:./usbhost.h   ****                 data_p++; // advance data pointer
 284:./usbhost.h   ****         }
 285:./usbhost.h   ****         while(!(SPSR & (1 << SPIF)));
 286:./usbhost.h   **** #endif
 287:./usbhost.h   **** 
 288:./usbhost.h   ****         SPI_SS::Set();
 289:./usbhost.h   **** #if defined(SPI_HAS_TRANSACTION)
 290:./usbhost.h   ****         SPI.endTransaction();
ARM GAS  C:\Users\jrdia\AppData\Local\Temp\ccFTvYyK.s 			page 24


 291:./usbhost.h   **** #endif
 292:./usbhost.h   ****         //UNC XMEM_RELEASE_SPI();
 293:./usbhost.h   ****         return ( data_p);
 294:./usbhost.h   **** }
 295:./usbhost.h   **** /* GPIO write                                           */
 296:./usbhost.h   **** /*GPIO byte is split between 2 registers, so two writes are needed to write one byte */
 297:./usbhost.h   **** 
 298:./usbhost.h   **** /* GPOUT bits are in the low nibble. 0-3 in IOPINS1, 4-7 in IOPINS2 */
 299:./usbhost.h   **** template< typename SPI_SS, typename INTR >
 300:./usbhost.h   **** void MAX3421e< SPI_SS, INTR >::gpioWr(uint8_t data) {
 301:./usbhost.h   ****         regWr(rIOPINS1, data);
 302:./usbhost.h   ****         data >>= 4;
 303:./usbhost.h   ****         regWr(rIOPINS2, data);
 304:./usbhost.h   ****         return;
 305:./usbhost.h   **** }
 306:./usbhost.h   **** 
 307:./usbhost.h   **** /* single host register read    */
 308:./usbhost.h   **** template< typename SPI_SS, typename INTR >
 309:./usbhost.h   **** uint8_t MAX3421e< SPI_SS, INTR >::regRd(uint8_t reg) {
 436              		.loc 4 309 0
 437              		.cfi_startproc
 438              		@ args = 0, pretend = 0, frame = 0
 439              		@ frame_needed = 0, uses_anonymous_args = 0
 440              	.LVL35:
 441 0000 10B5     		push	{r4, lr}
 442              		.save {r4, lr}
 443              		.cfi_def_cfa_offset 8
 444              		.cfi_offset 4, -8
 445              		.cfi_offset 14, -4
 446              		.loc 4 309 0
 447 0002 0400     		movs	r4, r0
 310:./usbhost.h   ****     
 311:./usbhost.h   ****     CyDelayUs(SPI_DELAY);
 448              		.loc 4 311 0
 449 0004 1920     		movs	r0, #25
 450              	.LVL36:
 451 0006 FFF7FEFF 		bl	CyDelayUs
 452              	.LVL37:
 312:./usbhost.h   ****     SS_Write(0);
 453              		.loc 4 312 0
 454 000a 0020     		movs	r0, #0
 455 000c FFF7FEFF 		bl	SS_Write
 456              	.LVL38:
 313:./usbhost.h   ****     
 314:./usbhost.h   ****     SPI_ClearRxBuffer();
 457              		.loc 4 314 0
 458 0010 FFF7FEFF 		bl	SPI_ClearRxBuffer
 459              	.LVL39:
 315:./usbhost.h   ****     //SPI_PutArray(buffer,2);
 316:./usbhost.h   ****     
 317:./usbhost.h   ****     SPI_WriteTxData(reg);
 460              		.loc 4 317 0
 461 0014 2000     		movs	r0, r4
 462 0016 FFF7FEFF 		bl	SPI_WriteTxData
 463              	.LVL40:
 318:./usbhost.h   ****     //SPI_ClearRxBuffer();
 319:./usbhost.h   ****     SPI_WriteTxData(0);
ARM GAS  C:\Users\jrdia\AppData\Local\Temp\ccFTvYyK.s 			page 25


 464              		.loc 4 319 0
 465 001a 0020     		movs	r0, #0
 466 001c FFF7FEFF 		bl	SPI_WriteTxData
 467              	.LVL41:
 320:./usbhost.h   ****     CyDelayUs(SPI_DELAY);
 468              		.loc 4 320 0
 469 0020 1920     		movs	r0, #25
 470 0022 FFF7FEFF 		bl	CyDelayUs
 471              	.LVL42:
 472              	.L15:
 321:./usbhost.h   ****     while(SPI_GetRxBufferSize()==0);
 473              		.loc 4 321 0
 474 0026 FFF7FEFF 		bl	SPI_GetRxBufferSize
 475              	.LVL43:
 476 002a 0028     		cmp	r0, #0
 477 002c FBD0     		beq	.L15
 478 002e 0024     		movs	r4, #0
 479 0030 02E0     		b	.L17
 480              	.LVL44:
 481              	.L20:
 322:./usbhost.h   ****     //uint8_t rv = SPI_ReadRxData();
 323:./usbhost.h   ****     int data = 0;
 324:./usbhost.h   ****     while(SPI_GetRxBufferSize()>0)
 325:./usbhost.h   ****     {
 326:./usbhost.h   ****         data = SPI_ReadRxData();
 482              		.loc 4 326 0
 483 0032 FFF7FEFF 		bl	SPI_ReadRxData
 484              	.LVL45:
 485 0036 0400     		movs	r4, r0
 486              	.LVL46:
 487              	.L17:
 324:./usbhost.h   ****     {
 488              		.loc 4 324 0
 489 0038 FFF7FEFF 		bl	SPI_GetRxBufferSize
 490              	.LVL47:
 491 003c 0028     		cmp	r0, #0
 492 003e F8D1     		bne	.L20
 493              	.LVL48:
 327:./usbhost.h   ****     //iprintf("RV: %d\r\n",data);
 328:./usbhost.h   ****     }
 329:./usbhost.h   ****     //iprintf("Done.\r\n");
 330:./usbhost.h   ****     //while(SPI_GetRxBufferSize()==0);
 331:./usbhost.h   ****     //uint8_t rv2 = 0;
 332:./usbhost.h   ****     uint8_t rv = 0;
 333:./usbhost.h   ****     //iprintf(" %d\r\n",SPI_ReadRxData());
 334:./usbhost.h   ****     SS_Write(1);
 494              		.loc 4 334 0
 495 0040 0120     		movs	r0, #1
 496 0042 FFF7FEFF 		bl	SS_Write
 497              	.LVL49:
 335:./usbhost.h   ****     return (data);
 336:./usbhost.h   ****     
 337:./usbhost.h   ****     //Old COde below
 338:./usbhost.h   ****         //UNC XMEM_ACQUIRE_SPI();
 339:./usbhost.h   **** #if defined(SPI_HAS_TRANSACTION)
 340:./usbhost.h   ****         SPI.beginTransaction(SPISettings(26000000, MSBFIRST, SPI_MODE0)); // The MAX3421E can handl
 341:./usbhost.h   **** #endif
ARM GAS  C:\Users\jrdia\AppData\Local\Temp\ccFTvYyK.s 			page 26


 342:./usbhost.h   ****         SPI_SS::Clear();
 343:./usbhost.h   **** 
 344:./usbhost.h   **** #if USING_SPI4TEENSY3
 345:./usbhost.h   ****         spi4teensy3::send(reg);
 346:./usbhost.h   ****         uint8_t rv = spi4teensy3::receive();
 347:./usbhost.h   ****         SPI_SS::Set();
 348:./usbhost.h   **** #elif defined(STM32F4)
 349:./usbhost.h   ****         HAL_SPI_Transmit(&SPI_Handle, &reg, 1, HAL_MAX_DELAY);
 350:./usbhost.h   ****         uint8_t rv = 0;
 351:./usbhost.h   ****         HAL_SPI_Receive(&SPI_Handle, &rv, 1, HAL_MAX_DELAY);
 352:./usbhost.h   ****         SPI_SS::Set();
 353:./usbhost.h   **** #elif !defined(SPDR) || defined(SPI_HAS_TRANSACTION)
 354:./usbhost.h   ****         //UNC SPI.transfer(reg);
 355:./usbhost.h   ****         //uint8_t rv = 0;//UNC uint8_t rv = SPI.transfer(0); // Send empty byte
 356:./usbhost.h   ****         SPI_SS::Set();
 357:./usbhost.h   **** #else
 358:./usbhost.h   ****         SPDR = reg;
 359:./usbhost.h   ****         while(!(SPSR & (1 << SPIF)));
 360:./usbhost.h   ****         SPDR = 0; // Send empty byte
 361:./usbhost.h   ****         while(!(SPSR & (1 << SPIF)));
 362:./usbhost.h   ****         SPI_SS::Set();
 363:./usbhost.h   ****         uint8_t rv = SPDR;
 364:./usbhost.h   **** #endif
 365:./usbhost.h   **** 
 366:./usbhost.h   **** #if defined(SPI_HAS_TRANSACTION)
 367:./usbhost.h   ****         SPI.endTransaction();
 368:./usbhost.h   **** #endif
 369:./usbhost.h   ****         //UNC XMEM_RELEASE_SPI();
 370:./usbhost.h   ****         return (rv);
 371:./usbhost.h   **** }
 498              		.loc 4 371 0
 499              		@ sp needed
 500 0046 E0B2     		uxtb	r0, r4
 501              	.LVL50:
 502 0048 10BD     		pop	{r4, pc}
 503              		.cfi_endproc
 504              	.LFE338:
 505              		.fnend
 506              		.size	_ZN8MAX3421eI4TPinI5PortbLh2EES0_IS1_Lh1EEE5regRdEh.isra.3, .-_ZN8MAX3421eI4TPinI5PortbLh2EE
 507 004a C046     		.section	.text._Z7intFuncv,"ax",%progbits
 508              		.align	2
 509              		.global	_Z7intFuncv
 510              		.code	16
 511              		.thumb_func
 512              		.type	_Z7intFuncv, %function
 513              	_Z7intFuncv:
 514              		.fnstart
 515              	.LFB321:
 516              		.file 5 "main.c"
   1:main.c        **** /* ========================================
   2:main.c        ****  *
   3:main.c        ****  * Copyright YOUR COMPANY, THE YEAR
   4:main.c        ****  * All Rights Reserved
   5:main.c        ****  * UNPUBLISHED, LICENSED SOFTWARE.
   6:main.c        ****  *
   7:main.c        ****  * CONFIDENTIAL AND PROPRIETARY INFORMATION
   8:main.c        ****  * WHICH IS THE PROPERTY OF your company.
ARM GAS  C:\Users\jrdia\AppData\Local\Temp\ccFTvYyK.s 			page 27


   9:main.c        ****  *
  10:main.c        ****  * ========================================
  11:main.c        **** */
  12:main.c        **** //TODO: Actually Work out SPI
  13:main.c        **** #include <stdint.h>
  14:main.c        **** //#include "iom328p.h"
  15:main.c        **** #define UBRRH
  16:main.c        **** 
  17:main.c        **** //static const uint8_t Pb2;
  18:main.c        **** //static const uint8_t Pb1;
  19:main.c        **** static const uint8_t PIN_SPI_SS   = 53;
  20:main.c        **** static const uint8_t PIN_SPI_MOSI = 51;
  21:main.c        **** static const uint8_t PIN_SPI_MISO = 50;
  22:main.c        **** static const uint8_t PIN_SPI_SCK  = 52;
  23:main.c        **** 
  24:main.c        **** //#define PIN_SPI_SS (4)
  25:main.c        **** //#define ARDUINO 101
  26:main.c        **** //#define __AVR_ATmega328P__
  27:main.c        **** //#define __AVR__
  28:main.c        **** #define __SFR_OFFSET 0x00
  29:main.c        **** #define _SFR_IO8(io_addr) ((io_addr) + __SFR_OFFSET)
  30:main.c        **** //#define USE_PORTB
  31:main.c        **** int PORTB;// _SFR_IO8(0x05)
  32:main.c        **** int DDRB;
  33:main.c        **** int PINB;
  34:main.c        **** #define PORTB0 0
  35:main.c        **** #define PORTB1 1
  36:main.c        **** #define PORTB2 2
  37:main.c        **** #define PORTB3 3
  38:main.c        **** #define PORTB4 4
  39:main.c        **** #define PORTB5 5
  40:main.c        **** #define PORTB6 6
  41:main.c        **** #define PORTB7 7
  42:main.c        **** uint8_t Pd1;
  43:main.c        **** uint8_t Pd2;
  44:main.c        **** uint8_t Pd3;
  45:main.c        **** uint8_t Pd4;
  46:main.c        **** uint8_t Pd5;
  47:main.c        **** uint8_t Pd6;
  48:main.c        **** uint8_t Pd7;
  49:main.c        **** uint8_t Pd8;
  50:main.c        **** uint8_t Pd0;
  51:main.c        **** //#include "iom328p.h"
  52:main.c        **** //#include "USB_HOST_SERIAL.h"
  53:main.c        **** 
  54:main.c        **** #ifdef __cplusplus
  55:main.c        **** extern "C" {
  56:main.c        **** #endif
  57:main.c        **** 
  58:main.c        **** 	// PSoC include, this has to be wrapped
  59:main.c        **** 	#include "project.h"
  60:main.c        **** 
  61:main.c        **** #ifdef __cplusplus
  62:main.c        **** }
  63:main.c        **** #endif
  64:main.c        **** 
  65:main.c        **** //Linker -lstdc++
ARM GAS  C:\Users\jrdia\AppData\Local\Temp\ccFTvYyK.s 			page 28


  66:main.c        **** 
  67:main.c        **** #include <PS4BT.h>
  68:main.c        **** #include "usbhub.h"
  69:main.c        **** 
  70:main.c        **** 
  71:main.c        **** USB Usb;
  72:main.c        **** BTD Btd(&Usb); // You have to create the Bluetooth Dongle instance like so
  73:main.c        **** PS4BT PS4(&Btd, PAIR);
  74:main.c        **** 
  75:main.c        **** bool printAngle, printTouch;
  76:main.c        **** uint8_t oldL2Value, oldR2Value;
  77:main.c        **** 
  78:main.c        **** void intFunc(void)
  79:main.c        **** {
 517              		.loc 5 79 0
 518              		.cfi_startproc
 519              		@ args = 0, pretend = 0, frame = 0
 520              		@ frame_needed = 0, uses_anonymous_args = 0
 521 0000 10B5     		push	{r4, lr}
 522              		.save {r4, lr}
 523              		.cfi_def_cfa_offset 8
 524              		.cfi_offset 4, -8
 525              		.cfi_offset 14, -4
  80:main.c        ****  UART_UartPutString("Terminal Count.");
 526              		.loc 5 80 0
 527 0002 0448     		ldr	r0, .L22
 528 0004 FFF7FEFF 		bl	UART_UartPutString
 529              	.LVL51:
  81:main.c        **** Millis_Timer_GetInterruptSource();
 530              		.loc 5 81 0
 531 0008 FFF7FEFF 		bl	Millis_Timer_GetInterruptSource
 532              	.LVL52:
  82:main.c        **** Millis_Timer_ClearInterrupt(Millis_Timer_INTR_MASK_TC|Millis_Timer_INTR_MASK_CC_MATCH);
 533              		.loc 5 82 0
 534 000c 0320     		movs	r0, #3
 535 000e FFF7FEFF 		bl	Millis_Timer_ClearInterrupt
 536              	.LVL53:
  83:main.c        **** }
 537              		.loc 5 83 0
 538              		@ sp needed
 539 0012 10BD     		pop	{r4, pc}
 540              	.L23:
 541              		.align	2
 542              	.L22:
 543 0014 00000000 		.word	.LC0
 544              		.cfi_endproc
 545              	.LFE321:
 546              		.fnend
 547              		.size	_Z7intFuncv, .-_Z7intFuncv
 548              		.section	.text._ZN8MAX3421eI4TPinI5PortbLh2EES0_IS1_Lh1EEE8busprobeEv,"axG",%progbits,_ZN8MAX3421e
 549              		.align	2
 550              		.weak	_ZN8MAX3421eI4TPinI5PortbLh2EES0_IS1_Lh1EEE8busprobeEv
 551              		.code	16
 552              		.thumb_func
 553              		.type	_ZN8MAX3421eI4TPinI5PortbLh2EES0_IS1_Lh1EEE8busprobeEv, %function
 554              	_ZN8MAX3421eI4TPinI5PortbLh2EES0_IS1_Lh1EEE8busprobeEv:
 555              		.fnstart
ARM GAS  C:\Users\jrdia\AppData\Local\Temp\ccFTvYyK.s 			page 29


 556              	.LFB329:
 372:./usbhost.h   **** /* multiple-byte register read  */
 373:./usbhost.h   **** 
 374:./usbhost.h   **** /* returns a pointer to a memory position after last read   */
 375:./usbhost.h   **** template< typename SPI_SS, typename INTR >
 376:./usbhost.h   **** uint8_t* MAX3421e< SPI_SS, INTR >::bytesRd(uint8_t reg, uint8_t nbytes, uint8_t* data_p) {
 377:./usbhost.h   ****         //UNC XMEM_ACQUIRE_SPI();
 378:./usbhost.h   ****     
 379:./usbhost.h   ****     
 380:./usbhost.h   ****         CyDelayUs(SPI_DELAY);
 381:./usbhost.h   ****     SS_Write(0);
 382:./usbhost.h   ****     SPI_WriteTxData(reg);
 383:./usbhost.h   ****             //UNC SPI.transfer(reg | 0x02);
 384:./usbhost.h   ****             while(SPI_GetRxBufferSize()==0);
 385:./usbhost.h   ****             SPI_ReadRxData();
 386:./usbhost.h   ****         while(nbytes) {
 387:./usbhost.h   ****             //UNC *data_p++ = SPI.transfer(0);
 388:./usbhost.h   ****             SPI_WriteTxData(0);
 389:./usbhost.h   ****             while(SPI_GetRxBufferSize()==0);
 390:./usbhost.h   ****             *data_p++ = SPI_ReadRxData();
 391:./usbhost.h   ****             nbytes--;
 392:./usbhost.h   ****         }
 393:./usbhost.h   ****         CyDelayUs(SPI_DELAY);
 394:./usbhost.h   ****         SS_Write(1);
 395:./usbhost.h   ****         return ( data_p);
 396:./usbhost.h   ****         
 397:./usbhost.h   ****         
 398:./usbhost.h   ****     //Old Code Below
 399:./usbhost.h   ****     
 400:./usbhost.h   ****     
 401:./usbhost.h   **** #if defined(SPI_HAS_TRANSACTION)
 402:./usbhost.h   ****         SPI.beginTransaction(SPISettings(26000000, MSBFIRST, SPI_MODE0)); // The MAX3421E can handl
 403:./usbhost.h   **** #endif
 404:./usbhost.h   ****         SPI_SS::Clear();
 405:./usbhost.h   **** 
 406:./usbhost.h   **** #if USING_SPI4TEENSY3
 407:./usbhost.h   ****         spi4teensy3::send(reg);
 408:./usbhost.h   ****         spi4teensy3::receive(data_p, nbytes);
 409:./usbhost.h   ****         data_p += nbytes;
 410:./usbhost.h   **** #elif defined(SPI_HAS_TRANSACTION) && !defined(ESP8266)
 411:./usbhost.h   ****         SPI.transfer(reg);
 412:./usbhost.h   ****         memset(data_p, 0, nbytes); // Make sure we send out empty bytes
 413:./usbhost.h   ****         SPI.transfer(data_p, nbytes);
 414:./usbhost.h   ****         data_p += nbytes;
 415:./usbhost.h   **** #elif defined(__ARDUINO_X86__)
 416:./usbhost.h   ****         SPI.transfer(reg);
 417:./usbhost.h   ****         SPI.transferBuffer(NULL, data_p, nbytes);
 418:./usbhost.h   ****         data_p += nbytes;
 419:./usbhost.h   **** #elif defined(STM32F4)
 420:./usbhost.h   ****         HAL_SPI_Transmit(&SPI_Handle, &reg, 1, HAL_MAX_DELAY);
 421:./usbhost.h   ****         memset(data_p, 0, nbytes); // Make sure we send out empty bytes
 422:./usbhost.h   ****         HAL_SPI_Receive(&SPI_Handle, data_p, nbytes, HAL_MAX_DELAY);
 423:./usbhost.h   ****         data_p += nbytes;
 424:./usbhost.h   **** #elif !defined(SPDR) // ESP8266
 425:./usbhost.h   ****         //UNC SPI.transfer(reg);
 426:./usbhost.h   ****         while(nbytes) {
 427:./usbhost.h   ****             //UNC *data_p++ = SPI.transfer(0);
ARM GAS  C:\Users\jrdia\AppData\Local\Temp\ccFTvYyK.s 			page 30


 428:./usbhost.h   ****             nbytes--;
 429:./usbhost.h   ****         }
 430:./usbhost.h   **** #else
 431:./usbhost.h   ****         SPDR = reg;
 432:./usbhost.h   ****         while(!(SPSR & (1 << SPIF))); //wait
 433:./usbhost.h   ****         while(nbytes) {
 434:./usbhost.h   ****                 SPDR = 0; // Send empty byte
 435:./usbhost.h   ****                 nbytes--;
 436:./usbhost.h   ****                 while(!(SPSR & (1 << SPIF)));
 437:./usbhost.h   **** #if 0
 438:./usbhost.h   ****                 {
 439:./usbhost.h   ****                         *data_p = SPDR;
 440:./usbhost.h   ****                         printf("%2.2x ", *data_p);
 441:./usbhost.h   ****                 }
 442:./usbhost.h   ****                 data_p++;
 443:./usbhost.h   ****         }
 444:./usbhost.h   ****         printf("\r\n");
 445:./usbhost.h   **** #else
 446:./usbhost.h   ****                 *data_p++ = SPDR;
 447:./usbhost.h   ****         }
 448:./usbhost.h   **** #endif
 449:./usbhost.h   **** #endif
 450:./usbhost.h   **** 
 451:./usbhost.h   ****         SPI_SS::Set();
 452:./usbhost.h   **** #if defined(SPI_HAS_TRANSACTION)
 453:./usbhost.h   ****         SPI.endTransaction();
 454:./usbhost.h   **** #endif
 455:./usbhost.h   ****         //UNC XMEM_RELEASE_SPI();
 456:./usbhost.h   ****         return ( data_p);
 457:./usbhost.h   **** }
 458:./usbhost.h   **** /* GPIO read. See gpioWr for explanation */
 459:./usbhost.h   **** 
 460:./usbhost.h   **** /* GPIN pins are in high nibbles of IOPINS1, IOPINS2    */
 461:./usbhost.h   **** template< typename SPI_SS, typename INTR >
 462:./usbhost.h   **** uint8_t MAX3421e< SPI_SS, INTR >::gpioRd() {
 463:./usbhost.h   ****         uint8_t gpin = 0;
 464:./usbhost.h   ****         gpin = regRd(rIOPINS2); //pins 4-7
 465:./usbhost.h   ****         gpin &= 0xf0; //clean lower nibble
 466:./usbhost.h   ****         gpin |= (regRd(rIOPINS1) >> 4); //shift low bits and OR with upper from previous operation.
 467:./usbhost.h   ****         return ( gpin);
 468:./usbhost.h   **** }
 469:./usbhost.h   **** 
 470:./usbhost.h   **** /* reset MAX3421E. Returns number of cycles it took for PLL to stabilize after reset
 471:./usbhost.h   ****   or zero if PLL haven't stabilized in 65535 cycles */
 472:./usbhost.h   **** template< typename SPI_SS, typename INTR >
 473:./usbhost.h   **** uint16_t MAX3421e< SPI_SS, INTR >::reset() {
 474:./usbhost.h   ****         uint16_t i = 0;
 475:./usbhost.h   ****         regWr(rUSBCTL, bmCHIPRES);
 476:./usbhost.h   ****         regWr(rUSBCTL, 0x00);
 477:./usbhost.h   ****         while(++i) {
 478:./usbhost.h   ****                 if((regRd(rUSBIRQ) & bmOSCOKIRQ)) {
 479:./usbhost.h   ****                         break;
 480:./usbhost.h   ****                 }
 481:./usbhost.h   ****         }
 482:./usbhost.h   ****         return ( i);
 483:./usbhost.h   **** }
 484:./usbhost.h   **** 
ARM GAS  C:\Users\jrdia\AppData\Local\Temp\ccFTvYyK.s 			page 31


 485:./usbhost.h   **** /* initialize MAX3421E. Set Host mode, pullups, and stuff. Returns 0 if success, -1 if not */
 486:./usbhost.h   **** template< typename SPI_SS, typename INTR >
 487:./usbhost.h   **** int8_t MAX3421e< SPI_SS, INTR >::Init() {
 488:./usbhost.h   ****     
 489:./usbhost.h   ****     SPI_Start();
 490:./usbhost.h   ****     //Old Code Below
 491:./usbhost.h   ****         XMEM_ACQUIRE_SPI();
 492:./usbhost.h   ****         // Moved here.
 493:./usbhost.h   ****         // you really should not init hardware in the constructor when it involves locks.
 494:./usbhost.h   ****         // Also avoids the vbus flicker issue confusing some devices.
 495:./usbhost.h   ****         /* pin and peripheral setup */
 496:./usbhost.h   ****         //SPI_SS::SetDirWrite();
 497:./usbhost.h   ****         //SPI_SS::Set();
 498:./usbhost.h   ****         spi::init();
 499:./usbhost.h   ****         //INTR::SetDirRead();
 500:./usbhost.h   ****         //XMEM_RELEASE_SPI();
 501:./usbhost.h   ****         /* MAX3421E - full-duplex SPI, level interrupt */
 502:./usbhost.h   ****         // GPX pin on. Moved here, otherwise we flicker the vbus.
 503:./usbhost.h   ****         regWr(rPINCTL, (bmFDUPSPI | bmINTLEVEL));
 504:./usbhost.h   **** 
 505:./usbhost.h   ****         if(reset() == 0) { //OSCOKIRQ hasn't asserted in time
 506:./usbhost.h   ****                 return ( -1);
 507:./usbhost.h   ****         }
 508:./usbhost.h   **** 
 509:./usbhost.h   ****         regWr(rMODE, bmDPPULLDN | bmDMPULLDN | bmHOST); // set pull-downs, Host
 510:./usbhost.h   **** 
 511:./usbhost.h   ****         regWr(rHIEN, bmCONDETIE | bmFRAMEIE); //connection detection
 512:./usbhost.h   **** 
 513:./usbhost.h   ****         /* check if device is connected */
 514:./usbhost.h   ****         regWr(rHCTL, bmSAMPLEBUS); // sample USB bus
 515:./usbhost.h   ****         while(!(regRd(rHCTL) & bmSAMPLEBUS)); //wait for sample operation to finish
 516:./usbhost.h   **** 
 517:./usbhost.h   ****         busprobe(); //check if anything is connected
 518:./usbhost.h   **** 
 519:./usbhost.h   ****         regWr(rHIRQ, bmCONDETIRQ); //clear connection detect interrupt
 520:./usbhost.h   ****         regWr(rCPUCTL, 0x01); //enable interrupt pin
 521:./usbhost.h   **** 
 522:./usbhost.h   ****         return ( 0);
 523:./usbhost.h   **** }
 524:./usbhost.h   **** 
 525:./usbhost.h   **** /* initialize MAX3421E. Set Host mode, pullups, and stuff. Returns 0 if success, -1 if not */
 526:./usbhost.h   **** template< typename SPI_SS, typename INTR >
 527:./usbhost.h   **** int8_t MAX3421e< SPI_SS, INTR >::Init(int mseconds) {
 528:./usbhost.h   ****         //UNC XMEM_ACQUIRE_SPI();
 529:./usbhost.h   ****         // Moved here.
 530:./usbhost.h   ****         // you really should not init hardware in the constructor when it involves locks.
 531:./usbhost.h   ****         // Also avoids the vbus flicker issue confusing some devices.
 532:./usbhost.h   ****         /* pin and peripheral setup */
 533:./usbhost.h   ****         SPI_SS::SetDirWrite();
 534:./usbhost.h   ****         SPI_SS::Set();
 535:./usbhost.h   ****         //UNC spi::init();
 536:./usbhost.h   ****         INTR::SetDirRead();
 537:./usbhost.h   ****         //UNC XMEM_RELEASE_SPI();
 538:./usbhost.h   ****         /* MAX3421E - full-duplex SPI, level interrupt, vbus off */
 539:./usbhost.h   ****         regWr(rPINCTL, (bmFDUPSPI | bmINTLEVEL | GPX_VBDET));
 540:./usbhost.h   **** 
 541:./usbhost.h   ****         if(reset() == 0) { //OSCOKIRQ hasn't asserted in time
ARM GAS  C:\Users\jrdia\AppData\Local\Temp\ccFTvYyK.s 			page 32


 542:./usbhost.h   ****                 return ( -1);
 543:./usbhost.h   ****         }
 544:./usbhost.h   **** 
 545:./usbhost.h   ****         // Delay a minimum of 1 second to ensure any capacitors are drained.
 546:./usbhost.h   ****         // 1 second is required to make sure we do not smoke a Microdrive!
 547:./usbhost.h   ****         if(mseconds < 1000) mseconds = 1000;
 548:./usbhost.h   ****         delay(mseconds);
 549:./usbhost.h   **** 
 550:./usbhost.h   ****         regWr(rMODE, bmDPPULLDN | bmDMPULLDN | bmHOST); // set pull-downs, Host
 551:./usbhost.h   **** 
 552:./usbhost.h   ****         regWr(rHIEN, bmCONDETIE | bmFRAMEIE); //connection detection
 553:./usbhost.h   **** 
 554:./usbhost.h   ****         /* check if device is connected */
 555:./usbhost.h   ****         regWr(rHCTL, bmSAMPLEBUS); // sample USB bus
 556:./usbhost.h   ****         while(!(regRd(rHCTL) & bmSAMPLEBUS)); //wait for sample operation to finish
 557:./usbhost.h   **** 
 558:./usbhost.h   ****         busprobe(); //check if anything is connected
 559:./usbhost.h   **** 
 560:./usbhost.h   ****         regWr(rHIRQ, bmCONDETIRQ); //clear connection detect interrupt
 561:./usbhost.h   ****         regWr(rCPUCTL, 0x01); //enable interrupt pin
 562:./usbhost.h   **** 
 563:./usbhost.h   ****         // GPX pin on. This is done here so that busprobe will fail if we have a switch connected.
 564:./usbhost.h   ****         regWr(rPINCTL, (bmFDUPSPI | bmINTLEVEL));
 565:./usbhost.h   **** 
 566:./usbhost.h   ****         return ( 0);
 567:./usbhost.h   **** }
 568:./usbhost.h   **** 
 569:./usbhost.h   **** /* probe bus to determine device presence and speed and switch host to this speed */
 570:./usbhost.h   **** template< typename SPI_SS, typename INTR >
 571:./usbhost.h   **** void MAX3421e< SPI_SS, INTR >::busprobe() {
 557              		.loc 4 571 0
 558              		.cfi_startproc
 559              		@ args = 0, pretend = 0, frame = 0
 560              		@ frame_needed = 0, uses_anonymous_args = 0
 561              	.LVL54:
 562 0000 10B5     		push	{r4, lr}
 563              		.save {r4, lr}
 564              		.cfi_def_cfa_offset 8
 565              		.cfi_offset 4, -8
 566              		.cfi_offset 14, -4
 572:./usbhost.h   ****         uint8_t bus_sample;
 573:./usbhost.h   ****         bus_sample = regRd(rHRSL); //Get J,K status
 567              		.loc 4 573 0
 568 0002 F820     		movs	r0, #248
 569              	.LVL55:
 570 0004 FFF7FEFF 		bl	_ZN8MAX3421eI4TPinI5PortbLh2EES0_IS1_Lh1EEE5regRdEh.isra.3
 571              	.LVL56:
 574:./usbhost.h   ****         bus_sample &= (bmJSTATUS | bmKSTATUS); //zero the rest of the byte
 575:./usbhost.h   ****         switch(bus_sample) { //start full-speed or low-speed host
 572              		.loc 4 575 0
 573 0008 C023     		movs	r3, #192
 574 000a 1840     		ands	r0, r3
 575              	.LVL57:
 576 000c 0400     		movs	r4, r0
 577 000e 4028     		cmp	r0, #64
 578 0010 15D0     		beq	.L26
 579 0012 21D9     		bls	.L36
ARM GAS  C:\Users\jrdia\AppData\Local\Temp\ccFTvYyK.s 			page 33


 580 0014 8028     		cmp	r0, #128
 581 0016 05D0     		beq	.L29
 582 0018 C028     		cmp	r0, #192
 583 001a 02D1     		bne	.L24
 576:./usbhost.h   ****                 case( bmJSTATUS):
 577:./usbhost.h   ****                         if((regRd(rMODE) & bmLOWSPEED) == 0) {
 578:./usbhost.h   ****                                 regWr(rMODE, MODE_FS_HOST); //start full-speed host
 579:./usbhost.h   ****                                 vbusState = FSHOST;
 580:./usbhost.h   ****                         } else {
 581:./usbhost.h   ****                                 regWr(rMODE, MODE_LS_HOST); //start low-speed host
 582:./usbhost.h   ****                                 vbusState = LSHOST;
 583:./usbhost.h   ****                         }
 584:./usbhost.h   ****                         break;
 585:./usbhost.h   ****                 case( bmKSTATUS):
 586:./usbhost.h   ****                         if((regRd(rMODE) & bmLOWSPEED) == 0) {
 587:./usbhost.h   ****                                 regWr(rMODE, MODE_LS_HOST); //start low-speed host
 588:./usbhost.h   ****                                 vbusState = LSHOST;
 589:./usbhost.h   ****                         } else {
 590:./usbhost.h   ****                                 regWr(rMODE, MODE_FS_HOST); //start full-speed host
 591:./usbhost.h   ****                                 vbusState = FSHOST;
 592:./usbhost.h   ****                         }
 593:./usbhost.h   ****                         break;
 594:./usbhost.h   ****                 case( bmSE1): //illegal state
 595:./usbhost.h   ****                         vbusState = SE1;
 584              		.loc 4 595 0
 585 001c 0122     		movs	r2, #1
 586 001e 134B     		ldr	r3, .L37
 587 0020 1A70     		strb	r2, [r3]
 588              	.L24:
 596:./usbhost.h   ****                         break;
 597:./usbhost.h   ****                 case( bmSE0): //disconnected state
 598:./usbhost.h   ****                         regWr(rMODE, bmDPPULLDN | bmDMPULLDN | bmHOST | bmSEPIRQ);
 599:./usbhost.h   ****                         vbusState = SE0;
 600:./usbhost.h   ****                         break;
 601:./usbhost.h   ****         }//end switch( bus_sample )
 602:./usbhost.h   **** }
 589              		.loc 4 602 0
 590              		@ sp needed
 591 0022 10BD     		pop	{r4, pc}
 592              	.L29:
 577:./usbhost.h   ****                                 regWr(rMODE, MODE_FS_HOST); //start full-speed host
 593              		.loc 4 577 0
 594 0024 D820     		movs	r0, #216
 595 0026 FFF7FEFF 		bl	_ZN8MAX3421eI4TPinI5PortbLh2EES0_IS1_Lh1EEE5regRdEh.isra.3
 596              	.LVL58:
 597 002a 8307     		lsls	r3, r0, #30
 598 002c 0CD4     		bmi	.L31
 599              	.L32:
 578:./usbhost.h   ****                                 vbusState = FSHOST;
 600              		.loc 4 578 0
 601 002e C921     		movs	r1, #201
 602 0030 D820     		movs	r0, #216
 603 0032 FFF7FEFF 		bl	_ZN8MAX3421eI4TPinI5PortbLh2EES0_IS1_Lh1EEE5regWrEhh.isra.2
 604              	.LVL59:
 579:./usbhost.h   ****                         } else {
 605              		.loc 4 579 0
 606 0036 0222     		movs	r2, #2
ARM GAS  C:\Users\jrdia\AppData\Local\Temp\ccFTvYyK.s 			page 34


 607 0038 0C4B     		ldr	r3, .L37
 608 003a 1A70     		strb	r2, [r3]
 609 003c F1E7     		b	.L24
 610              	.L26:
 611              	.LVL60:
 612              	.LBB125:
 613              	.LBB126:
 586:./usbhost.h   ****                                 regWr(rMODE, MODE_LS_HOST); //start low-speed host
 614              		.loc 4 586 0
 615 003e D820     		movs	r0, #216
 616 0040 FFF7FEFF 		bl	_ZN8MAX3421eI4TPinI5PortbLh2EES0_IS1_Lh1EEE5regRdEh.isra.3
 617              	.LVL61:
 618 0044 8307     		lsls	r3, r0, #30
 619 0046 F2D4     		bmi	.L32
 620              	.LVL62:
 621              	.L31:
 622              	.LBE126:
 623              	.LBE125:
 581:./usbhost.h   ****                                 vbusState = LSHOST;
 624              		.loc 4 581 0
 625 0048 CB21     		movs	r1, #203
 626 004a D820     		movs	r0, #216
 627 004c FFF7FEFF 		bl	_ZN8MAX3421eI4TPinI5PortbLh2EES0_IS1_Lh1EEE5regWrEhh.isra.2
 628              	.LVL63:
 582:./usbhost.h   ****                         }
 629              		.loc 4 582 0
 630 0050 0322     		movs	r2, #3
 631 0052 064B     		ldr	r3, .L37
 632 0054 1A70     		strb	r2, [r3]
 633 0056 E4E7     		b	.L24
 634              	.L36:
 575:./usbhost.h   ****                 case( bmJSTATUS):
 635              		.loc 4 575 0
 636 0058 0028     		cmp	r0, #0
 637 005a E2D1     		bne	.L24
 598:./usbhost.h   ****                         vbusState = SE0;
 638              		.loc 4 598 0
 639 005c D121     		movs	r1, #209
 640 005e D820     		movs	r0, #216
 641 0060 FFF7FEFF 		bl	_ZN8MAX3421eI4TPinI5PortbLh2EES0_IS1_Lh1EEE5regWrEhh.isra.2
 642              	.LVL64:
 599:./usbhost.h   ****                         break;
 643              		.loc 4 599 0
 644 0064 014B     		ldr	r3, .L37
 645 0066 1C70     		strb	r4, [r3]
 646              		.loc 4 602 0
 647 0068 DBE7     		b	.L24
 648              	.L38:
 649 006a C046     		.align	2
 650              	.L37:
 651 006c 00000000 		.word	_ZN8MAX3421eI4TPinI5PortbLh2EES0_IS1_Lh1EEE9vbusStateE
 652              		.cfi_endproc
 653              	.LFE329:
 654              		.fnend
 655              		.size	_ZN8MAX3421eI4TPinI5PortbLh2EES0_IS1_Lh1EEE8busprobeEv, .-_ZN8MAX3421eI4TPinI5PortbLh2EES0_I
 656              		.section	.text._ZN8MAX3421eI4TPinI5PortbLh2EES0_IS1_Lh1EEE4InitEv,"axG",%progbits,_ZN8MAX3421eI4TP
 657              		.align	2
ARM GAS  C:\Users\jrdia\AppData\Local\Temp\ccFTvYyK.s 			page 35


 658              		.weak	_ZN8MAX3421eI4TPinI5PortbLh2EES0_IS1_Lh1EEE4InitEv
 659              		.code	16
 660              		.thumb_func
 661              		.type	_ZN8MAX3421eI4TPinI5PortbLh2EES0_IS1_Lh1EEE4InitEv, %function
 662              	_ZN8MAX3421eI4TPinI5PortbLh2EES0_IS1_Lh1EEE4InitEv:
 663              		.fnstart
 664              	.LFB324:
 487:./usbhost.h   ****     
 665              		.loc 4 487 0
 666              		.cfi_startproc
 667              		@ args = 0, pretend = 0, frame = 0
 668              		@ frame_needed = 0, uses_anonymous_args = 0
 669              	.LVL65:
 670 0000 70B5     		push	{r4, r5, r6, lr}
 671              		.save {r4, r5, r6, lr}
 672              		.cfi_def_cfa_offset 16
 673              		.cfi_offset 4, -16
 674              		.cfi_offset 5, -12
 675              		.cfi_offset 6, -8
 676              		.cfi_offset 14, -4
 487:./usbhost.h   ****     
 677              		.loc 4 487 0
 678 0002 0600     		movs	r6, r0
 489:./usbhost.h   ****     //Old Code Below
 679              		.loc 4 489 0
 680 0004 FFF7FEFF 		bl	SPI_Start
 681              	.LVL66:
 682              	.LBB145:
 683              	.LBB146:
 684              	.LBB147:
 685              	.LBB148:
 686              		.file 6 "./avrpins.h"
   1:./avrpins.h   **** /* Copyright (C) 2011 Circuits At Home, LTD. All rights reserved.
   2:./avrpins.h   **** 
   3:./avrpins.h   **** This software may be distributed and modified under the terms of the GNU
   4:./avrpins.h   **** General Public License version 2 (GPL2) as published by the Free Software
   5:./avrpins.h   **** Foundation and appearing in the file GPL2.TXT included in the packaging of
   6:./avrpins.h   **** this file. Please note that GPL2 Section 2[b] requires that all works based
   7:./avrpins.h   **** on this software must also be made publicly available under the terms of
   8:./avrpins.h   **** the GPL2 ("Copyleft").
   9:./avrpins.h   **** 
  10:./avrpins.h   **** Contact information
  11:./avrpins.h   **** -------------------
  12:./avrpins.h   **** 
  13:./avrpins.h   **** Circuits At Home, LTD
  14:./avrpins.h   **** Web      :  http://www.circuitsathome.com
  15:./avrpins.h   **** e-mail   :  support@circuitsathome.com
  16:./avrpins.h   ****  */
  17:./avrpins.h   **** 
  18:./avrpins.h   **** /* derived from Konstantin Chizhov's AVR port templates */
  19:./avrpins.h   **** 
  20:./avrpins.h   **** #if !defined(_usb_h_) || defined(_avrpins_h_)
  21:./avrpins.h   **** #error "Never include avrpins.h directly; include Usb.h instead"
  22:./avrpins.h   **** #else
  23:./avrpins.h   **** #define _avrpins_h_
  24:./avrpins.h   **** 
  25:./avrpins.h   **** extern    int PORTB;// _SFR_IO8(0x05)
ARM GAS  C:\Users\jrdia\AppData\Local\Temp\ccFTvYyK.s 			page 36


  26:./avrpins.h   **** extern int DDRB;
  27:./avrpins.h   **** extern int PINB;
  28:./avrpins.h   **** #if defined(__AVR__)
  29:./avrpins.h   **** 
  30:./avrpins.h   **** // pointers are 16 bits on AVR
  31:./avrpins.h   **** #define pgm_read_pointer(p) pgm_read_word(p)
  32:./avrpins.h   **** 
  33:./avrpins.h   **** // Support for these boards needs to be manually activated in settings.h or in a makefile
  34:./avrpins.h   **** #if !defined(BOARD_MEGA_ADK) && defined(__AVR_ATmega2560__) && (USE_UHS_MEGA_ADK || defined(ARDUINO
  35:./avrpins.h   **** #define BOARD_MEGA_ADK
  36:./avrpins.h   **** #elif !defined(BOARD_BLACK_WIDDOW) && USE_UHS_BLACK_WIDDOW
  37:./avrpins.h   **** #define BOARD_BLACK_WIDDOW
  38:./avrpins.h   **** #endif
  39:./avrpins.h   **** 
  40:./avrpins.h   **** #ifdef PORTA
  41:./avrpins.h   **** #define USE_PORTA
  42:./avrpins.h   **** #endif
  43:./avrpins.h   **** #ifdef PORTB
  44:./avrpins.h   **** #define USE_PORTB
  45:./avrpins.h   **** #endif
  46:./avrpins.h   **** #ifdef PORTC
  47:./avrpins.h   **** #define USE_PORTC
  48:./avrpins.h   **** #endif
  49:./avrpins.h   **** #ifdef PORTD
  50:./avrpins.h   **** #define USE_PORTD
  51:./avrpins.h   **** #endif
  52:./avrpins.h   **** #ifdef PORTE
  53:./avrpins.h   **** #define USE_PORTE
  54:./avrpins.h   **** #endif
  55:./avrpins.h   **** #ifdef PORTF
  56:./avrpins.h   **** #define USE_PORTF
  57:./avrpins.h   **** #endif
  58:./avrpins.h   **** #ifdef PORTG
  59:./avrpins.h   **** #define USE_PORTG
  60:./avrpins.h   **** #endif
  61:./avrpins.h   **** #ifdef PORTH
  62:./avrpins.h   **** #define USE_PORTH
  63:./avrpins.h   **** #endif
  64:./avrpins.h   **** #ifdef PORTJ
  65:./avrpins.h   **** #define USE_PORTJ
  66:./avrpins.h   **** #endif
  67:./avrpins.h   **** #ifdef PORTK
  68:./avrpins.h   **** #define USE_PORTK
  69:./avrpins.h   **** #endif
  70:./avrpins.h   **** #ifdef PORTL
  71:./avrpins.h   **** #define USE_PORTL
  72:./avrpins.h   **** #endif
  73:./avrpins.h   **** #ifdef PORTQ
  74:./avrpins.h   **** #define USE_PORTQ
  75:./avrpins.h   **** #endif
  76:./avrpins.h   **** #ifdef PORTR
  77:./avrpins.h   **** #define USE_PORTR
  78:./avrpins.h   **** #endif
  79:./avrpins.h   **** 
  80:./avrpins.h   **** #ifdef TCCR0A
  81:./avrpins.h   **** #define USE_TCCR0A
  82:./avrpins.h   **** #endif
ARM GAS  C:\Users\jrdia\AppData\Local\Temp\ccFTvYyK.s 			page 37


  83:./avrpins.h   **** #ifdef TCCR1A
  84:./avrpins.h   **** #define USE_TCCR1A
  85:./avrpins.h   **** #endif
  86:./avrpins.h   **** #ifdef TCCR2A
  87:./avrpins.h   **** #define USE_TCCR2A
  88:./avrpins.h   **** #endif
  89:./avrpins.h   **** 
  90:./avrpins.h   **** //Port definitions for AtTiny, AtMega families.
  91:./avrpins.h   **** //UNC Below
  92:./avrpins.h   **** #define MAKE_PORT(portName, ddrName, pinName, className, ID) \
  93:./avrpins.h   ****     class className{\
  94:./avrpins.h   ****     public:\
  95:./avrpins.h   ****       typedef uint8_t DataT;\
  96:./avrpins.h   ****     public:\
  97:./avrpins.h   ****       static void Write(DataT value){portName = value;}\
  98:./avrpins.h   ****       static void ClearAndSet(DataT clearMask, DataT value){portName = (portName & ~clearMask) | va
  99:./avrpins.h   ****       static DataT Read(){return portName;}\
 100:./avrpins.h   ****       static void DirWrite(DataT value){ddrName = value;}\
 101:./avrpins.h   ****       static DataT DirRead(){return ddrName;}\
 102:./avrpins.h   ****       static void Set(DataT value){portName |= value;}\
 103:./avrpins.h   ****       static void Clear(DataT value){portName &= ~value;}\
 104:./avrpins.h   ****       static void Toggle(DataT value){portName ^= value;}\
 105:./avrpins.h   ****       static void DirSet(DataT value){ddrName |= value;}\
 106:./avrpins.h   ****       static void DirClear(DataT value){ddrName &= ~value;}\
 107:./avrpins.h   ****       static void DirToggle(DataT value){ddrName ^= value;}\
 108:./avrpins.h   ****       static DataT PinRead(){return pinName;}\
 109:./avrpins.h   ****       enum{Id = ID};\
 110:./avrpins.h   ****       enum{Width=sizeof(DataT)*8};\
 111:./avrpins.h   ****     };
 112:./avrpins.h   **** 
 113:./avrpins.h   **** // TCCR registers to set/clear Arduino PWM
 114:./avrpins.h   **** #define MAKE_TCCR(TccrName, className) \
 115:./avrpins.h   ****     class className{\
 116:./avrpins.h   ****     public:\
 117:./avrpins.h   ****       typedef uint8_t DataT;\
 118:./avrpins.h   ****     public:\
 119:./avrpins.h   ****       static void Write(DataT value){TccrName = value;}\
 120:./avrpins.h   ****       static void ClearAndSet(DataT clearMask, DataT value){TccrName = (TccrName & ~clearMask) | va
 121:./avrpins.h   ****       static DataT Read(){return TccrName;}\
 122:./avrpins.h   ****       static void Set(DataT value){TccrName |= value;}\
 123:./avrpins.h   ****       static void Clear(DataT value){TccrName &= ~value;}\
 124:./avrpins.h   ****       static void Toggle(DataT value){TccrName ^= value;}\
 125:./avrpins.h   ****       enum{Width=sizeof(DataT)*8};\
 126:./avrpins.h   ****     };
 127:./avrpins.h   **** 
 128:./avrpins.h   **** #ifdef USE_PORTA
 129:./avrpins.h   **** 
 130:./avrpins.h   **** MAKE_PORT(PORTA, DDRA, PINA, Porta, 'A')
 131:./avrpins.h   **** #endif
 132:./avrpins.h   **** #ifdef USE_PORTB
 133:./avrpins.h   **** MAKE_PORT(PORTB, DDRB, PINB, Portb, 'B')
 687              		.loc 6 133 0
 688 0008 0422     		movs	r2, #4
 689 000a 204B     		ldr	r3, .L51
 690              	.LBE148:
 691              	.LBE147:
 692              	.LBE146:
ARM GAS  C:\Users\jrdia\AppData\Local\Temp\ccFTvYyK.s 			page 38


 693              	.LBE145:
 503:./usbhost.h   **** 
 694              		.loc 4 503 0
 695 000c 8820     		movs	r0, #136
 696              	.LBB164:
 697              	.LBB153:
 698              	.LBB151:
 699              	.LBB149:
 700              		.loc 6 133 0
 701 000e 1968     		ldr	r1, [r3]
 702              	.LBE149:
 703              	.LBE151:
 704              	.LBE153:
 705              	.LBE164:
 706              	.LBB165:
 707              	.LBB166:
 476:./usbhost.h   ****         while(++i) {
 708              		.loc 4 476 0
 709 0010 1F4C     		ldr	r4, .L51+4
 710              	.LBE166:
 711              	.LBE165:
 712              	.LBB169:
 713              	.LBB154:
 714              	.LBB152:
 715              	.LBB150:
 716              		.loc 6 133 0
 717 0012 1143     		orrs	r1, r2
 718 0014 1960     		str	r1, [r3]
 719              	.LVL67:
 720              	.LBE150:
 721              	.LBE152:
 722              	.LBE154:
 723              	.LBB155:
 724              	.LBB156:
 725              	.LBB157:
 726 0016 5968     		ldr	r1, [r3, #4]
 727              	.LBE157:
 728              	.LBE156:
 729              	.LBE155:
 730              	.LBE169:
 731              	.LBB170:
 732              	.LBB167:
 478:./usbhost.h   ****                         break;
 733              		.loc 4 478 0
 734 0018 0125     		movs	r5, #1
 735              	.LBE167:
 736              	.LBE170:
 737              	.LBB171:
 738              	.LBB162:
 739              	.LBB160:
 740              	.LBB158:
 741              		.loc 6 133 0
 742 001a 0A43     		orrs	r2, r1
 743              	.LBE158:
 744              	.LBE160:
 745              	.LBE162:
 746              	.LBE171:
ARM GAS  C:\Users\jrdia\AppData\Local\Temp\ccFTvYyK.s 			page 39


 503:./usbhost.h   **** 
 747              		.loc 4 503 0
 748 001c 1821     		movs	r1, #24
 749              	.LBB172:
 750              	.LBB163:
 751              	.LBB161:
 752              	.LBB159:
 753              		.loc 6 133 0
 754 001e 5A60     		str	r2, [r3, #4]
 755              	.LVL68:
 756              	.LBE159:
 757              	.LBE161:
 758              	.LBE163:
 759              	.LBE172:
 503:./usbhost.h   **** 
 760              		.loc 4 503 0
 761 0020 FFF7FEFF 		bl	_ZN8MAX3421eI4TPinI5PortbLh2EES0_IS1_Lh1EEE5regWrEhh.isra.2
 762              	.LVL69:
 763              	.LBB173:
 764              	.LBB168:
 475:./usbhost.h   ****         regWr(rUSBCTL, 0x00);
 765              		.loc 4 475 0
 766 0024 2021     		movs	r1, #32
 767 0026 7820     		movs	r0, #120
 768 0028 FFF7FEFF 		bl	_ZN8MAX3421eI4TPinI5PortbLh2EES0_IS1_Lh1EEE5regWrEhh.isra.2
 769              	.LVL70:
 476:./usbhost.h   ****         while(++i) {
 770              		.loc 4 476 0
 771 002c 0021     		movs	r1, #0
 772 002e 7820     		movs	r0, #120
 773 0030 FFF7FEFF 		bl	_ZN8MAX3421eI4TPinI5PortbLh2EES0_IS1_Lh1EEE5regWrEhh.isra.2
 774              	.LVL71:
 775 0034 03E0     		b	.L40
 776              	.LVL72:
 777              	.L48:
 778 0036 013C     		subs	r4, r4, #1
 779              	.LVL73:
 780 0038 A4B2     		uxth	r4, r4
 477:./usbhost.h   ****                 if((regRd(rUSBIRQ) & bmOSCOKIRQ)) {
 781              		.loc 4 477 0
 782 003a 002C     		cmp	r4, #0
 783 003c 23D0     		beq	.L45
 784              	.L40:
 785              	.LVL74:
 478:./usbhost.h   ****                         break;
 786              		.loc 4 478 0
 787 003e 6820     		movs	r0, #104
 788 0040 FFF7FEFF 		bl	_ZN8MAX3421eI4TPinI5PortbLh2EES0_IS1_Lh1EEE5regRdEh.isra.3
 789              	.LVL75:
 790 0044 0542     		tst	r5, r0
 791 0046 F6D0     		beq	.L48
 792              	.LVL76:
 793              	.LBE168:
 794              	.LBE173:
 509:./usbhost.h   **** 
 795              		.loc 4 509 0
 796 0048 C121     		movs	r1, #193
ARM GAS  C:\Users\jrdia\AppData\Local\Temp\ccFTvYyK.s 			page 40


 797 004a D820     		movs	r0, #216
 798 004c FFF7FEFF 		bl	_ZN8MAX3421eI4TPinI5PortbLh2EES0_IS1_Lh1EEE5regWrEhh.isra.2
 799              	.LVL77:
 511:./usbhost.h   **** 
 800              		.loc 4 511 0
 801 0050 6021     		movs	r1, #96
 802 0052 D020     		movs	r0, #208
 803 0054 FFF7FEFF 		bl	_ZN8MAX3421eI4TPinI5PortbLh2EES0_IS1_Lh1EEE5regWrEhh.isra.2
 804              	.LVL78:
 514:./usbhost.h   ****         while(!(regRd(rHCTL) & bmSAMPLEBUS)); //wait for sample operation to finish
 805              		.loc 4 514 0
 806 0058 0421     		movs	r1, #4
 807 005a E820     		movs	r0, #232
 808 005c FFF7FEFF 		bl	_ZN8MAX3421eI4TPinI5PortbLh2EES0_IS1_Lh1EEE5regWrEhh.isra.2
 809              	.LVL79:
 810              	.LBB174:
 811              	.LBB175:
 515:./usbhost.h   **** 
 812              		.loc 4 515 0
 813 0060 0424     		movs	r4, #4
 814              	.L44:
 815 0062 E820     		movs	r0, #232
 816 0064 FFF7FEFF 		bl	_ZN8MAX3421eI4TPinI5PortbLh2EES0_IS1_Lh1EEE5regRdEh.isra.3
 817              	.LVL80:
 818 0068 0442     		tst	r4, r0
 819 006a FAD0     		beq	.L44
 517:./usbhost.h   **** 
 820              		.loc 4 517 0
 821 006c 3000     		movs	r0, r6
 822 006e FFF7FEFF 		bl	_ZN8MAX3421eI4TPinI5PortbLh2EES0_IS1_Lh1EEE8busprobeEv
 823              	.LVL81:
 519:./usbhost.h   ****         regWr(rCPUCTL, 0x01); //enable interrupt pin
 824              		.loc 4 519 0
 825 0072 2021     		movs	r1, #32
 826 0074 C820     		movs	r0, #200
 827 0076 FFF7FEFF 		bl	_ZN8MAX3421eI4TPinI5PortbLh2EES0_IS1_Lh1EEE5regWrEhh.isra.2
 828              	.LVL82:
 520:./usbhost.h   **** 
 829              		.loc 4 520 0
 830 007a 8020     		movs	r0, #128
 831 007c 0121     		movs	r1, #1
 832 007e FFF7FEFF 		bl	_ZN8MAX3421eI4TPinI5PortbLh2EES0_IS1_Lh1EEE5regWrEhh.isra.2
 833              	.LVL83:
 834 0082 0020     		movs	r0, #0
 835              	.L49:
 836              	.LBE175:
 837              	.LBE174:
 523:./usbhost.h   **** 
 838              		.loc 4 523 0
 839              		@ sp needed
 840              	.LVL84:
 841 0084 70BD     		pop	{r4, r5, r6, pc}
 842              	.LVL85:
 843              	.L45:
 506:./usbhost.h   ****         }
 844              		.loc 4 506 0
 845 0086 0120     		movs	r0, #1
ARM GAS  C:\Users\jrdia\AppData\Local\Temp\ccFTvYyK.s 			page 41


 846 0088 4042     		rsbs	r0, r0, #0
 847 008a FBE7     		b	.L49
 848              	.L52:
 849              		.align	2
 850              	.L51:
 851 008c 00000000 		.word	.LANCHOR0
 852 0090 FFFF0000 		.word	65535
 853              		.cfi_endproc
 854              	.LFE324:
 855              		.fnend
 856              		.size	_ZN8MAX3421eI4TPinI5PortbLh2EES0_IS1_Lh1EEE4InitEv, .-_ZN8MAX3421eI4TPinI5PortbLh2EES0_IS1_L
 857              		.section	.text.startup.main,"ax",%progbits
 858              		.align	2
 859              		.global	main
 860              		.code	16
 861              		.thumb_func
 862              		.type	main, %function
 863              	main:
 864              		.fnstart
 865              	.LFB322:
  84:main.c        **** int main(void)
  85:main.c        **** {
 866              		.loc 5 85 0
 867              		.cfi_startproc
 868              		@ args = 0, pretend = 0, frame = 0
 869              		@ frame_needed = 0, uses_anonymous_args = 0
 870 0000 F8B5     		push	{r3, r4, r5, r6, r7, lr}
 871              		.save {r3, r4, r5, r6, r7, lr}
 872              		.cfi_def_cfa_offset 24
 873              		.cfi_offset 3, -24
 874              		.cfi_offset 4, -20
 875              		.cfi_offset 5, -16
 876              		.cfi_offset 6, -12
 877              		.cfi_offset 7, -8
 878              		.cfi_offset 14, -4
 879 0002 5F46     		mov	r7, fp
 880 0004 5646     		mov	r6, r10
 881 0006 4D46     		mov	r5, r9
 882 0008 4446     		mov	r4, r8
 883 000a F0B4     		push	{r4, r5, r6, r7}
 884              		.save {r8, r9, r10, fp}
 885              		.cfi_def_cfa_offset 40
 886              		.cfi_offset 8, -40
 887              		.cfi_offset 9, -36
 888              		.cfi_offset 10, -32
 889              		.cfi_offset 11, -28
  86:main.c        ****     
  87:main.c        ****     Millis_Timer_Start();
 890              		.loc 5 87 0
 891 000c FFF7FEFF 		bl	Millis_Timer_Start
 892              	.LVL86:
  88:main.c        ****     
  89:main.c        ****     //isr_1_StartEx(intFunc);
  90:main.c        **** 
  91:main.c        ****     CyGlobalIntEnable; /* Enable global interrupts. */
 893              		.loc 5 91 0
 894              		.syntax divided
ARM GAS  C:\Users\jrdia\AppData\Local\Temp\ccFTvYyK.s 			page 42


 895              	@ 91 "main.c" 1
 896 0010 62B6     		CPSIE   i
 897              	@ 0 "" 2
  92:main.c        **** 
  93:main.c        ****     /* Place your initialization/startup code here (e.g. MyInst_Start()) */
  94:main.c        **** 
  95:main.c        ****     UART_Start();
 898              		.loc 5 95 0
 899              		.thumb
 900              		.syntax unified
 901 0012 FFF7FEFF 		bl	UART_Start
 902              	.LVL87:
  96:main.c        ****     UART_UartPutString("Starting Bluetooth Test.\r\n");
 903              		.loc 5 96 0
 904 0016 D048     		ldr	r0, .L164
 905 0018 FFF7FEFF 		bl	UART_UartPutString
 906              	.LVL88:
  97:main.c        ****     
  98:main.c        ****       if (Usb.Init() == -1) {
 907              		.loc 5 98 0
 908 001c CF48     		ldr	r0, .L164+4
 909 001e 0830     		adds	r0, r0, #8
 910 0020 FFF7FEFF 		bl	_ZN8MAX3421eI4TPinI5PortbLh2EES0_IS1_Lh1EEE4InitEv
 911              	.LVL89:
 912 0024 431C     		adds	r3, r0, #1
 913 0026 00D1     		bne	.LCB756
 914 0028 8BE2     		b	.L144	@long jump
 915              	.LCB756:
  99:main.c        ****     UART_UartPutString(("\r\nOSC did not start\r\n"));
 100:main.c        ****     while (1); // Halt
 101:main.c        ****   }
 102:main.c        ****     else
 103:main.c        ****     {
 104:main.c        ****         UART_UartPutString("USB Initialized.\r\n");
 916              		.loc 5 104 0
 917 002a CD48     		ldr	r0, .L164+8
 918 002c FFF7FEFF 		bl	UART_UartPutString
 919              	.LVL90:
 920 0030 CC4B     		ldr	r3, .L164+12
 921 0032 CD4D     		ldr	r5, .L164+16
 922 0034 9B46     		mov	fp, r3
 923              	.LBB176:
 924              	.LBB177:
 925              	.LBB178:
 105:main.c        ****     }
 106:main.c        ****     for(;;)
 107:main.c        ****     {
 108:main.c        ****           Usb.Task();
 109:main.c        **** 
 110:main.c        ****   if (PS4.connected()) {
 111:main.c        ****         /* Place your application code here. */
 112:main.c        ****         if (PS4.getAnalogHat(LeftHatX) > 137 || PS4.getAnalogHat(LeftHatX) < 117 || PS4.getAnalogHa
 113:main.c        ****       iprintf(("\r\nLeftHatX: "));
 114:main.c        ****       iprintf("%d",PS4.getAnalogHat(LeftHatX));
 115:main.c        ****       iprintf(("\tLeftHatY: "));
 116:main.c        ****       iprintf("%d",PS4.getAnalogHat(LeftHatY));
 117:main.c        ****       iprintf(("\tRightHatX: "));
ARM GAS  C:\Users\jrdia\AppData\Local\Temp\ccFTvYyK.s 			page 43


 118:main.c        ****       iprintf("%d",PS4.getAnalogHat(RightHatX));
 119:main.c        ****       iprintf(("\tRightHatY: "));
 120:main.c        ****       iprintf("%d",PS4.getAnalogHat(RightHatY));
 121:main.c        ****     }
 122:main.c        ****         
 123:main.c        ****         
 124:main.c        ****             if (PS4.getAnalogButton(L2) || PS4.getAnalogButton(R2)) { // These are the only analog 
 125:main.c        ****       iprintf(("\r\nL2: "));
 126:main.c        ****       iprintf("%d",PS4.getAnalogButton(L2));
 127:main.c        ****       iprintf(("\tR2: "));
 128:main.c        ****       iprintf("%d",PS4.getAnalogButton(R2));
 129:main.c        ****     }
 130:main.c        ****     if (PS4.getAnalogButton(L2) != oldL2Value || PS4.getAnalogButton(R2) != oldR2Value) // Only wri
 926              		.loc 5 130 0
 927 0036 4023     		movs	r3, #64
 112:main.c        ****       iprintf(("\r\nLeftHatX: "));
 928              		.loc 5 112 0
 929 0038 2C00     		movs	r4, r5
 930              		.loc 5 130 0
 931 003a 9A46     		mov	r10, r3
 932 003c 0133     		adds	r3, r3, #1
 933 003e 9946     		mov	r9, r3
 934 0040 CA4E     		ldr	r6, .L164+20
 112:main.c        ****       iprintf(("\r\nLeftHatX: "));
 935              		.loc 5 112 0
 936 0042 7034     		adds	r4, r4, #112
 937              	.L56:
 938              	.LBE178:
 939              	.LBE177:
 108:main.c        **** 
 940              		.loc 5 108 0
 941 0044 C54F     		ldr	r7, .L164+4
 942 0046 0837     		adds	r7, r7, #8
 943              	.L57:
 944 0048 3800     		movs	r0, r7
 945 004a FFF7FEFF 		bl	_ZN3USB4TaskEv
 946              	.LVL91:
 947 004e 2B00     		movs	r3, r5
 948 0050 4433     		adds	r3, r3, #68
 949              	.LBB225:
 110:main.c        ****         /* Place your application code here. */
 950              		.loc 5 110 0
 951 0052 5B7D     		ldrb	r3, [r3, #21]
 952 0054 002B     		cmp	r3, #0
 953 0056 F7D0     		beq	.L57
 954              	.LBB224:
 112:main.c        ****       iprintf(("\r\nLeftHatX: "));
 955              		.loc 5 112 0
 956 0058 0021     		movs	r1, #0
 957 005a 2000     		movs	r0, r4
 958 005c FFF7FEFF 		bl	_ZN9PS4Parser12getAnalogHatE13AnalogHatEnum
 959              	.LVL92:
 960 0060 8928     		cmp	r0, #137
 961 0062 00D8     		bhi	.LCB824
 962 0064 3EE1     		b	.L145	@long jump
 963              	.LCB824:
 964              	.L58:
ARM GAS  C:\Users\jrdia\AppData\Local\Temp\ccFTvYyK.s 			page 44


 113:main.c        ****       iprintf("%d",PS4.getAnalogHat(LeftHatX));
 965              		.loc 5 113 0
 966 0066 C248     		ldr	r0, .L164+24
 967 0068 FFF7FEFF 		bl	iprintf
 968              	.LVL93:
 114:main.c        ****       iprintf(("\tLeftHatY: "));
 969              		.loc 5 114 0
 970 006c 0021     		movs	r1, #0
 971 006e 2000     		movs	r0, r4
 972 0070 FFF7FEFF 		bl	_ZN9PS4Parser12getAnalogHatE13AnalogHatEnum
 973              	.LVL94:
 974 0074 0100     		movs	r1, r0
 975 0076 3000     		movs	r0, r6
 976 0078 FFF7FEFF 		bl	iprintf
 977              	.LVL95:
 115:main.c        ****       iprintf("%d",PS4.getAnalogHat(LeftHatY));
 978              		.loc 5 115 0
 979 007c BD48     		ldr	r0, .L164+28
 980 007e FFF7FEFF 		bl	iprintf
 981              	.LVL96:
 116:main.c        ****       iprintf(("\tRightHatX: "));
 982              		.loc 5 116 0
 983 0082 0121     		movs	r1, #1
 984 0084 2000     		movs	r0, r4
 985 0086 FFF7FEFF 		bl	_ZN9PS4Parser12getAnalogHatE13AnalogHatEnum
 986              	.LVL97:
 987 008a 0100     		movs	r1, r0
 988 008c 3000     		movs	r0, r6
 989 008e FFF7FEFF 		bl	iprintf
 990              	.LVL98:
 117:main.c        ****       iprintf("%d",PS4.getAnalogHat(RightHatX));
 991              		.loc 5 117 0
 992 0092 B948     		ldr	r0, .L164+32
 993 0094 FFF7FEFF 		bl	iprintf
 994              	.LVL99:
 118:main.c        ****       iprintf(("\tRightHatY: "));
 995              		.loc 5 118 0
 996 0098 0221     		movs	r1, #2
 997 009a 2000     		movs	r0, r4
 998 009c FFF7FEFF 		bl	_ZN9PS4Parser12getAnalogHatE13AnalogHatEnum
 999              	.LVL100:
 1000 00a0 0100     		movs	r1, r0
 1001 00a2 3000     		movs	r0, r6
 1002 00a4 FFF7FEFF 		bl	iprintf
 1003              	.LVL101:
 119:main.c        ****       iprintf("%d",PS4.getAnalogHat(RightHatY));
 1004              		.loc 5 119 0
 1005 00a8 B448     		ldr	r0, .L164+36
 1006 00aa FFF7FEFF 		bl	iprintf
 1007              	.LVL102:
 120:main.c        ****     }
 1008              		.loc 5 120 0
 1009 00ae 0321     		movs	r1, #3
 1010 00b0 2000     		movs	r0, r4
 1011 00b2 FFF7FEFF 		bl	_ZN9PS4Parser12getAnalogHatE13AnalogHatEnum
 1012              	.LVL103:
 1013 00b6 0100     		movs	r1, r0
ARM GAS  C:\Users\jrdia\AppData\Local\Temp\ccFTvYyK.s 			page 45


 1014 00b8 3000     		movs	r0, r6
 1015 00ba FFF7FEFF 		bl	iprintf
 1016              	.LVL104:
 1017              	.L83:
 124:main.c        ****       iprintf(("\r\nL2: "));
 1018              		.loc 5 124 0
 1019 00be 0821     		movs	r1, #8
 1020 00c0 2000     		movs	r0, r4
 1021 00c2 FFF7FEFF 		bl	_ZN9PS4Parser15getAnalogButtonE10ButtonEnum
 1022              	.LVL105:
 1023 00c6 0028     		cmp	r0, #0
 1024 00c8 00D1     		bne	.LCB877
 1025 00ca 03E1     		b	.L146	@long jump
 1026              	.LCB877:
 1027              	.L59:
 125:main.c        ****       iprintf("%d",PS4.getAnalogButton(L2));
 1028              		.loc 5 125 0
 1029 00cc AC48     		ldr	r0, .L164+40
 1030 00ce FFF7FEFF 		bl	iprintf
 1031              	.LVL106:
 126:main.c        ****       iprintf(("\tR2: "));
 1032              		.loc 5 126 0
 1033 00d2 0821     		movs	r1, #8
 1034 00d4 2000     		movs	r0, r4
 1035 00d6 FFF7FEFF 		bl	_ZN9PS4Parser15getAnalogButtonE10ButtonEnum
 1036              	.LVL107:
 1037 00da 0100     		movs	r1, r0
 1038 00dc 3000     		movs	r0, r6
 1039 00de FFF7FEFF 		bl	iprintf
 1040              	.LVL108:
 127:main.c        ****       iprintf("%d",PS4.getAnalogButton(R2));
 1041              		.loc 5 127 0
 1042 00e2 A848     		ldr	r0, .L164+44
 1043 00e4 FFF7FEFF 		bl	iprintf
 1044              	.LVL109:
 128:main.c        ****     }
 1045              		.loc 5 128 0
 1046 00e8 0921     		movs	r1, #9
 1047 00ea 2000     		movs	r0, r4
 1048 00ec FFF7FEFF 		bl	_ZN9PS4Parser15getAnalogButtonE10ButtonEnum
 1049              	.LVL110:
 1050 00f0 0100     		movs	r1, r0
 1051 00f2 3000     		movs	r0, r6
 1052 00f4 FFF7FEFF 		bl	iprintf
 1053              	.LVL111:
 1054              	.L84:
 1055              		.loc 5 130 0
 1056 00f8 0821     		movs	r1, #8
 1057 00fa 2000     		movs	r0, r4
 1058 00fc FFF7FEFF 		bl	_ZN9PS4Parser15getAnalogButtonE10ButtonEnum
 1059              	.LVL112:
 1060 0100 5B46     		mov	r3, fp
 1061 0102 5246     		mov	r2, r10
 1062 0104 9B5C     		ldrb	r3, [r3, r2]
 1063 0106 8342     		cmp	r3, r0
 1064 0108 00D1     		bne	.LCB911
 1065 010a 0FE2     		b	.L147	@long jump
ARM GAS  C:\Users\jrdia\AppData\Local\Temp\ccFTvYyK.s 			page 46


 1066              	.LCB911:
 1067              	.L60:
 131:main.c        ****       PS4.setRumbleOn(PS4.getAnalogButton(L2), PS4.getAnalogButton(R2));
 1068              		.loc 5 131 0
 1069 010c 0821     		movs	r1, #8
 1070 010e 2000     		movs	r0, r4
 1071 0110 FFF7FEFF 		bl	_ZN9PS4Parser15getAnalogButtonE10ButtonEnum
 1072              	.LVL113:
 1073 0114 0921     		movs	r1, #9
 1074 0116 0700     		movs	r7, r0
 1075 0118 2000     		movs	r0, r4
 1076 011a FFF7FEFF 		bl	_ZN9PS4Parser15getAnalogButtonE10ButtonEnum
 1077              	.LVL114:
 1078              	.LBB179:
 1079              	.LBB180:
 307:./PS4Parser.h ****                 ps4Output.smallRumble = smallRumble;
 1080              		.loc 3 307 0
 1081 011e 2B00     		movs	r3, r5
 1082 0120 B633     		adds	r3, r3, #182
 1083 0122 1F70     		strb	r7, [r3]
 308:./PS4Parser.h ****                 ps4Output.reportChanged = true;
 1084              		.loc 3 308 0
 1085 0124 2B00     		movs	r3, r5
 1086 0126 B733     		adds	r3, r3, #183
 1087 0128 1870     		strb	r0, [r3]
 309:./PS4Parser.h ****         };
 1088              		.loc 3 309 0
 1089 012a 2B00     		movs	r3, r5
 1090 012c 0122     		movs	r2, #1
 1091 012e BD33     		adds	r3, r3, #189
 1092 0130 1A70     		strb	r2, [r3]
 1093              	.LVL115:
 1094              	.L85:
 1095              	.LBE180:
 1096              	.LBE179:
 132:main.c        ****     oldL2Value = PS4.getAnalogButton(L2);
 1097              		.loc 5 132 0
 1098 0132 4423     		movs	r3, #68
 1099 0134 0821     		movs	r1, #8
 1100 0136 2000     		movs	r0, r4
 1101 0138 9846     		mov	r8, r3
 1102 013a FFF7FEFF 		bl	_ZN9PS4Parser15getAnalogButtonE10ButtonEnum
 1103              	.LVL116:
 1104 013e 5B46     		mov	r3, fp
 1105 0140 5246     		mov	r2, r10
 133:main.c        ****     oldR2Value = PS4.getAnalogButton(R2);
 1106              		.loc 5 133 0
 1107 0142 0921     		movs	r1, #9
 132:main.c        ****     oldL2Value = PS4.getAnalogButton(L2);
 1108              		.loc 5 132 0
 1109 0144 9854     		strb	r0, [r3, r2]
 1110              		.loc 5 133 0
 1111 0146 2000     		movs	r0, r4
 1112 0148 FFF7FEFF 		bl	_ZN9PS4Parser15getAnalogButtonE10ButtonEnum
 1113              	.LVL117:
 1114 014c 5B46     		mov	r3, fp
 1115 014e 4A46     		mov	r2, r9
ARM GAS  C:\Users\jrdia\AppData\Local\Temp\ccFTvYyK.s 			page 47


 1116              	.LBB181:
 134:main.c        **** 
 135:main.c        ****     if (PS4.getButtonClick(PS)) {
 1117              		.loc 5 135 0
 1118 0150 1021     		movs	r1, #16
 1119              	.LBE181:
 133:main.c        ****     oldR2Value = PS4.getAnalogButton(R2);
 1120              		.loc 5 133 0
 1121 0152 9854     		strb	r0, [r3, r2]
 1122              	.LBB221:
 1123              		.loc 5 135 0
 1124 0154 2000     		movs	r0, r4
 1125 0156 FFF7FEFF 		bl	_ZN9PS4Parser14getButtonClickE10ButtonEnum
 1126              	.LVL118:
 1127              	.LBE221:
 132:main.c        ****     oldR2Value = PS4.getAnalogButton(R2);
 1128              		.loc 5 132 0
 1129 015a A844     		add	r8, r8, r5
 1130              	.LBB222:
 1131              		.loc 5 135 0
 1132 015c 071E     		subs	r7, r0, #0
 1133 015e 06D0     		beq	.L61
 136:main.c        ****       iprintf(("\r\nPS"));
 1134              		.loc 5 136 0
 1135 0160 8948     		ldr	r0, .L164+48
 1136 0162 FFF7FEFF 		bl	iprintf
 1137              	.LVL119:
 137:main.c        ****       PS4.disconnect();
 1138              		.loc 5 137 0
 1139 0166 4046     		mov	r0, r8
 1140 0168 FFF7FEFF 		bl	_ZN5BTHID10disconnectEv
 1141              	.LVL120:
 1142 016c 6AE7     		b	.L56
 1143              	.L61:
 1144              	.LBB182:
 138:main.c        ****     }
 139:main.c        ****     else {
 140:main.c        ****       if (PS4.getButtonClick(TRIANGLE)) {
 1145              		.loc 5 140 0
 1146 016e 0C21     		movs	r1, #12
 1147 0170 2000     		movs	r0, r4
 1148 0172 FFF7FEFF 		bl	_ZN9PS4Parser14getButtonClickE10ButtonEnum
 1149              	.LVL121:
 1150 0176 0028     		cmp	r0, #0
 1151 0178 00D0     		beq	.LCB989
 1152 017a C8E1     		b	.L148	@long jump
 1153              	.LCB989:
 1154              	.L63:
 141:main.c        ****         iprintf(("\r\nTraingle"));
 142:main.c        ****         PS4.setRumbleOn(RumbleLow);
 143:main.c        ****       }
 144:main.c        ****       if (PS4.getButtonClick(CIRCLE)) {
 1155              		.loc 5 144 0
 1156 017c 0D21     		movs	r1, #13
 1157 017e 2000     		movs	r0, r4
 1158 0180 FFF7FEFF 		bl	_ZN9PS4Parser14getButtonClickE10ButtonEnum
 1159              	.LVL122:
ARM GAS  C:\Users\jrdia\AppData\Local\Temp\ccFTvYyK.s 			page 48


 1160 0184 0028     		cmp	r0, #0
 1161 0186 00D0     		beq	.LCB996
 1162 0188 B1E1     		b	.L149	@long jump
 1163              	.LCB996:
 1164              	.L64:
 145:main.c        ****         iprintf(("\r\nCircle"));
 146:main.c        ****         PS4.setRumbleOn(RumbleHigh);
 147:main.c        ****       }
 148:main.c        ****       if (PS4.getButtonClick(CROSS)) {
 1165              		.loc 5 148 0
 1166 018a 0E21     		movs	r1, #14
 1167 018c 2000     		movs	r0, r4
 1168 018e FFF7FEFF 		bl	_ZN9PS4Parser14getButtonClickE10ButtonEnum
 1169              	.LVL123:
 1170 0192 0028     		cmp	r0, #0
 1171 0194 00D0     		beq	.LCB1003
 1172 0196 9BE1     		b	.L150	@long jump
 1173              	.LCB1003:
 1174              	.L65:
 149:main.c        ****         iprintf(("\r\nCross"));
 150:main.c        ****         PS4.setLedFlash(10, 10); // Set it to blink rapidly
 151:main.c        ****       }
 152:main.c        ****       if (PS4.getButtonClick(SQUARE)) {
 1175              		.loc 5 152 0
 1176 0198 0F21     		movs	r1, #15
 1177 019a 2000     		movs	r0, r4
 1178 019c FFF7FEFF 		bl	_ZN9PS4Parser14getButtonClickE10ButtonEnum
 1179              	.LVL124:
 1180 01a0 0028     		cmp	r0, #0
 1181 01a2 00D0     		beq	.LCB1010
 1182 01a4 85E1     		b	.L151	@long jump
 1183              	.LCB1010:
 1184              	.L66:
 153:main.c        ****         iprintf(("\r\nSquare"));
 154:main.c        ****         PS4.setLedFlash(0, 0); // Turn off blinking
 155:main.c        ****       }
 156:main.c        **** 
 157:main.c        ****       if (PS4.getButtonClick(UP)) {
 1185              		.loc 5 157 0
 1186 01a6 0021     		movs	r1, #0
 1187 01a8 2000     		movs	r0, r4
 1188 01aa FFF7FEFF 		bl	_ZN9PS4Parser14getButtonClickE10ButtonEnum
 1189              	.LVL125:
 1190 01ae 0028     		cmp	r0, #0
 1191 01b0 00D0     		beq	.LCB1017
 1192 01b2 6BE1     		b	.L152	@long jump
 1193              	.LCB1017:
 1194              	.L67:
 158:main.c        ****         iprintf(("\r\nUp"));
 159:main.c        ****         PS4.setLed(Red);
 160:main.c        ****       } if (PS4.getButtonClick(RIGHT)) {
 1195              		.loc 5 160 0
 1196 01b4 0121     		movs	r1, #1
 1197 01b6 2000     		movs	r0, r4
 1198 01b8 FFF7FEFF 		bl	_ZN9PS4Parser14getButtonClickE10ButtonEnum
 1199              	.LVL126:
 1200 01bc 0028     		cmp	r0, #0
ARM GAS  C:\Users\jrdia\AppData\Local\Temp\ccFTvYyK.s 			page 49


 1201 01be 00D0     		beq	.LCB1024
 1202 01c0 51E1     		b	.L153	@long jump
 1203              	.LCB1024:
 1204              	.L68:
 161:main.c        ****         iprintf(("\r\nRight"));
 162:main.c        ****         PS4.setLed(Blue);
 163:main.c        ****       } if (PS4.getButtonClick(DOWN)) {
 1205              		.loc 5 163 0
 1206 01c2 0221     		movs	r1, #2
 1207 01c4 2000     		movs	r0, r4
 1208 01c6 FFF7FEFF 		bl	_ZN9PS4Parser14getButtonClickE10ButtonEnum
 1209              	.LVL127:
 1210 01ca 0028     		cmp	r0, #0
 1211 01cc 00D0     		beq	.LCB1031
 1212 01ce 36E1     		b	.L154	@long jump
 1213              	.LCB1031:
 1214              	.L69:
 164:main.c        ****         iprintf(("\r\nDown"));
 165:main.c        ****         PS4.setLed(Yellow);
 166:main.c        ****       } if (PS4.getButtonClick(LEFT)) {
 1215              		.loc 5 166 0
 1216 01d0 0321     		movs	r1, #3
 1217 01d2 2000     		movs	r0, r4
 1218 01d4 FFF7FEFF 		bl	_ZN9PS4Parser14getButtonClickE10ButtonEnum
 1219              	.LVL128:
 1220 01d8 0028     		cmp	r0, #0
 1221 01da 00D0     		beq	.LCB1038
 1222 01dc 1CE1     		b	.L155	@long jump
 1223              	.LCB1038:
 1224              	.L70:
 167:main.c        ****         iprintf(("\r\nLeft"));
 168:main.c        ****         PS4.setLed(Green);
 169:main.c        ****       }
 170:main.c        **** 
 171:main.c        ****       if (PS4.getButtonClick(L1))
 1225              		.loc 5 171 0
 1226 01de 0A21     		movs	r1, #10
 1227 01e0 2000     		movs	r0, r4
 1228 01e2 FFF7FEFF 		bl	_ZN9PS4Parser14getButtonClickE10ButtonEnum
 1229              	.LVL129:
 1230 01e6 0028     		cmp	r0, #0
 1231 01e8 00D0     		beq	.LCB1045
 1232 01ea 11E1     		b	.L156	@long jump
 1233              	.LCB1045:
 1234              	.L71:
 172:main.c        ****         iprintf(("\r\nL1"));
 173:main.c        ****       if (PS4.getButtonClick(L3))
 1235              		.loc 5 173 0
 1236 01ec 0621     		movs	r1, #6
 1237 01ee 2000     		movs	r0, r4
 1238 01f0 FFF7FEFF 		bl	_ZN9PS4Parser14getButtonClickE10ButtonEnum
 1239              	.LVL130:
 1240 01f4 0028     		cmp	r0, #0
 1241 01f6 00D0     		beq	.LCB1052
 1242 01f8 06E1     		b	.L157	@long jump
 1243              	.LCB1052:
 1244              	.L72:
ARM GAS  C:\Users\jrdia\AppData\Local\Temp\ccFTvYyK.s 			page 50


 174:main.c        ****         iprintf(("\r\nL3"));
 175:main.c        ****       if (PS4.getButtonClick(R1))
 1245              		.loc 5 175 0
 1246 01fa 0B21     		movs	r1, #11
 1247 01fc 2000     		movs	r0, r4
 1248 01fe FFF7FEFF 		bl	_ZN9PS4Parser14getButtonClickE10ButtonEnum
 1249              	.LVL131:
 1250 0202 0028     		cmp	r0, #0
 1251 0204 00D0     		beq	.LCB1059
 1252 0206 FBE0     		b	.L158	@long jump
 1253              	.LCB1059:
 1254              	.L73:
 176:main.c        ****         iprintf(("\r\nR1"));
 177:main.c        ****       if (PS4.getButtonClick(R3))
 1255              		.loc 5 177 0
 1256 0208 0721     		movs	r1, #7
 1257 020a 2000     		movs	r0, r4
 1258 020c FFF7FEFF 		bl	_ZN9PS4Parser14getButtonClickE10ButtonEnum
 1259              	.LVL132:
 1260 0210 0028     		cmp	r0, #0
 1261 0212 00D0     		beq	.LCB1066
 1262 0214 C4E0     		b	.L159	@long jump
 1263              	.LCB1066:
 178:main.c        ****         iprintf(("\r\nR3"));
 179:main.c        **** 
 180:main.c        ****       if (PS4.getButtonClick(SHARE))
 1264              		.loc 5 180 0
 1265 0216 0421     		movs	r1, #4
 1266 0218 2000     		movs	r0, r4
 1267 021a FFF7FEFF 		bl	_ZN9PS4Parser14getButtonClickE10ButtonEnum
 1268              	.LVL133:
 1269 021e 0028     		cmp	r0, #0
 1270 0220 00D0     		beq	.LCB1072
 1271 0222 C7E0     		b	.L160	@long jump
 1272              	.LCB1072:
 1273              	.L75:
 181:main.c        ****         iprintf(("\r\nShare"));
 182:main.c        ****       if (PS4.getButtonClick(OPTIONS)) {
 1274              		.loc 5 182 0
 1275 0224 0521     		movs	r1, #5
 1276 0226 2000     		movs	r0, r4
 1277 0228 FFF7FEFF 		bl	_ZN9PS4Parser14getButtonClickE10ButtonEnum
 1278              	.LVL134:
 1279 022c 0028     		cmp	r0, #0
 1280 022e 00D0     		beq	.LCB1079
 1281 0230 CAE0     		b	.L161	@long jump
 1282              	.LCB1079:
 1283              	.L76:
 183:main.c        ****         iprintf(("\r\nOptions"));
 184:main.c        ****         printAngle = !printAngle;
 185:main.c        ****       }
 186:main.c        ****       if (PS4.getButtonClick(TOUCHPAD)) {
 1284              		.loc 5 186 0
 1285 0232 1121     		movs	r1, #17
 1286 0234 2000     		movs	r0, r4
 1287 0236 FFF7FEFF 		bl	_ZN9PS4Parser14getButtonClickE10ButtonEnum
 1288              	.LVL135:
ARM GAS  C:\Users\jrdia\AppData\Local\Temp\ccFTvYyK.s 			page 51


 1289 023a 0028     		cmp	r0, #0
 1290 023c 00D0     		beq	.LCB1086
 1291 023e D4E0     		b	.L77	@long jump
 1292              	.LCB1086:
 1293              	.L163:
 1294 0240 4323     		movs	r3, #67
 1295 0242 5A46     		mov	r2, fp
 1296 0244 D35C     		ldrb	r3, [r2, r3]
 1297              	.L78:
 1298              	.LBB183:
 187:main.c        ****         iprintf(("\r\nTouchpad"));
 188:main.c        ****         printTouch = !printTouch;
 189:main.c        ****       }
 190:main.c        **** 
 191:main.c        ****       //if (printAngle) { // Print angle calculated using the accelerometer only
 192:main.c        ****       //  iprintf(("\r\nPitch: "));
 193:main.c        ****       //  iprintf("%d",PS4.getAngle(Pitch));
 194:main.c        ****       //  iprintf(("\tRoll: "));
 195:main.c        ****       //  iprintf("%d",PS4.getAngle(Roll));
 196:main.c        ****       //}
 197:main.c        **** 
 198:main.c        ****       if (printTouch) { // Print the x, y coordinates of the touchpad
 1299              		.loc 5 198 0
 1300 0246 002B     		cmp	r3, #0
 1301 0248 00D1     		bne	.LCB1095
 1302 024a FBE6     		b	.L56	@long jump
 1303              	.LCB1095:
 1304              	.LBB184:
 1305              	.LBB185:
 1306              	.LBB186:
 196:./PS4Parser.h ****         };
 1307              		.loc 3 196 0
 1308 024c 9623     		movs	r3, #150
 1309 024e EB5C     		ldrb	r3, [r5, r3]
 1310              	.LBE186:
 1311              	.LBE185:
 199:main.c        ****         if (PS4.isTouching(0) || PS4.isTouching(1)) // Print newline and carriage return if any of 
 1312              		.loc 5 199 0
 1313 0250 DB09     		lsrs	r3, r3, #7
 1314 0252 79D0     		beq	.L80
 1315              	.LBB187:
 1316              	.LBB188:
 196:./PS4Parser.h ****         };
 1317              		.loc 3 196 0
 1318 0254 9A23     		movs	r3, #154
 1319 0256 EB5C     		ldrb	r3, [r5, r3]
 1320              	.LBE188:
 1321              	.LBE187:
 1322              		.loc 5 199 0
 1323 0258 DB09     		lsrs	r3, r3, #7
 1324 025a 75D0     		beq	.L80
 1325 025c 0123     		movs	r3, #1
 1326              	.L86:
 1327              	.LVL136:
 1328 025e 0027     		movs	r7, #0
 1329 0260 7A1C     		adds	r2, r7, #1
 1330 0262 9046     		mov	r8, r2
ARM GAS  C:\Users\jrdia\AppData\Local\Temp\ccFTvYyK.s 			page 52


 1331              	.LBB189:
 200:main.c        ****           iprintf(("\r\n"));
 201:main.c        ****         for (uint8_t i = 0; i < 2; i++) { // The touchpad track two fingers
 202:main.c        ****           if (PS4.isTouching(i)) { // Print the position of the finger if it is touching the touchp
 1332              		.loc 5 202 0 discriminator 1
 1333 0264 002B     		cmp	r3, #0
 1334 0266 09D0     		beq	.L162
 1335              	.LVL137:
 1336              	.L81:
 1337 0268 4746     		mov	r7, r8
 201:main.c        ****           if (PS4.isTouching(i)) { // Print the position of the finger if it is touching the touchp
 1338              		.loc 5 201 0 discriminator 2
 1339 026a 022F     		cmp	r7, #2
 1340 026c 00D1     		bne	.LCB1139
 1341 026e E9E6     		b	.L56	@long jump
 1342              	.LCB1139:
 1343 0270 9A23     		movs	r3, #154
 1344 0272 EB5C     		ldrb	r3, [r5, r3]
 1345 0274 7A1C     		adds	r2, r7, #1
 1346 0276 DB09     		lsrs	r3, r3, #7
 1347              	.LVL138:
 1348 0278 9046     		mov	r8, r2
 1349              	.LVL139:
 1350              		.loc 5 202 0
 1351 027a F5D1     		bne	.L81
 1352              	.LVL140:
 1353              	.L162:
 203:main.c        ****             iprintf(("X")); iprintf("%d",i + 1); iprintf((": "));
 1354              		.loc 5 203 0
 1355 027c 4348     		ldr	r0, .L164+52
 1356 027e FFF7FEFF 		bl	iprintf
 1357              	.LVL141:
 1358 0282 4146     		mov	r1, r8
 1359 0284 3000     		movs	r0, r6
 1360 0286 FFF7FEFF 		bl	iprintf
 1361              	.LVL142:
 1362 028a 4148     		ldr	r0, .L164+56
 1363 028c FFF7FEFF 		bl	iprintf
 1364              	.LVL143:
 1365              	.LBB190:
 1366              	.LBB191:
 172:./PS4Parser.h ****         };
 1367              		.loc 3 172 0
 1368 0290 3323     		movs	r3, #51
 1369 0292 0F22     		movs	r2, #15
 1370 0294 0837     		adds	r7, r7, #8
 1371 0296 BF00     		lsls	r7, r7, #2
 1372 0298 EF19     		adds	r7, r5, r7
 1373 029a 4437     		adds	r7, r7, #68
 1374 029c F95C     		ldrb	r1, [r7, r3]
 1375 029e 0133     		adds	r3, r3, #1
 1376 02a0 FB5C     		ldrb	r3, [r7, r3]
 1377              	.LBE191:
 1378              	.LBE190:
 204:main.c        ****             iprintf("%d",PS4.getX(i));
 1379              		.loc 5 204 0
 1380 02a2 3000     		movs	r0, r6
ARM GAS  C:\Users\jrdia\AppData\Local\Temp\ccFTvYyK.s 			page 53


 1381              	.LBB193:
 1382              	.LBB192:
 172:./PS4Parser.h ****         };
 1383              		.loc 3 172 0
 1384 02a4 1340     		ands	r3, r2
 1385 02a6 1B02     		lsls	r3, r3, #8
 1386              	.LBE192:
 1387              	.LBE193:
 1388              		.loc 5 204 0
 1389 02a8 1943     		orrs	r1, r3
 1390 02aa FFF7FEFF 		bl	iprintf
 1391              	.LVL144:
 205:main.c        ****             iprintf(("\tY")); iprintf("%d",i + 1); iprintf((": "));
 1392              		.loc 5 205 0
 1393 02ae 3948     		ldr	r0, .L164+60
 1394 02b0 FFF7FEFF 		bl	iprintf
 1395              	.LVL145:
 1396 02b4 4146     		mov	r1, r8
 1397 02b6 3000     		movs	r0, r6
 1398 02b8 FFF7FEFF 		bl	iprintf
 1399              	.LVL146:
 1400 02bc 3448     		ldr	r0, .L164+56
 1401 02be FFF7FEFF 		bl	iprintf
 1402              	.LVL147:
 1403              	.LBB194:
 1404              	.LBB195:
 184:./PS4Parser.h ****         };
 1405              		.loc 3 184 0
 1406 02c2 B98E     		ldrh	r1, [r7, #52]
 1407              	.LBE195:
 1408              	.LBE194:
 206:main.c        ****             iprintf("%d",PS4.getY(i));
 1409              		.loc 5 206 0
 1410 02c4 3000     		movs	r0, r6
 1411 02c6 0909     		lsrs	r1, r1, #4
 1412 02c8 FFF7FEFF 		bl	iprintf
 1413              	.LVL148:
 207:main.c        ****             iprintf(("\t"));
 1414              		.loc 5 207 0
 1415 02cc 3248     		ldr	r0, .L164+64
 1416 02ce FFF7FEFF 		bl	iprintf
 1417              	.LVL149:
 1418 02d2 C9E7     		b	.L81
 1419              	.L146:
 1420              	.LBE189:
 1421              	.LBE184:
 1422              	.LBE183:
 1423              	.LBE182:
 1424              	.LBE222:
 124:main.c        ****       iprintf(("\r\nL2: "));
 1425              		.loc 5 124 0 discriminator 2
 1426 02d4 0921     		movs	r1, #9
 1427 02d6 2000     		movs	r0, r4
 1428 02d8 FFF7FEFF 		bl	_ZN9PS4Parser15getAnalogButtonE10ButtonEnum
 1429              	.LVL150:
 1430 02dc 0028     		cmp	r0, #0
 1431 02de 00D0     		beq	.LCB1226
ARM GAS  C:\Users\jrdia\AppData\Local\Temp\ccFTvYyK.s 			page 54


 1432 02e0 F4E6     		b	.L59	@long jump
 1433              	.LCB1226:
 1434 02e2 09E7     		b	.L84
 1435              	.L145:
 112:main.c        ****       iprintf(("\r\nLeftHatX: "));
 1436              		.loc 5 112 0 discriminator 2
 1437 02e4 0021     		movs	r1, #0
 1438 02e6 2000     		movs	r0, r4
 1439 02e8 FFF7FEFF 		bl	_ZN9PS4Parser12getAnalogHatE13AnalogHatEnum
 1440              	.LVL151:
 1441 02ec 7428     		cmp	r0, #116
 1442 02ee 00D8     		bhi	.LCB1236
 1443 02f0 B9E6     		b	.L58	@long jump
 1444              	.LCB1236:
 112:main.c        ****       iprintf(("\r\nLeftHatX: "));
 1445              		.loc 5 112 0 is_stmt 0 discriminator 4
 1446 02f2 0121     		movs	r1, #1
 1447 02f4 2000     		movs	r0, r4
 1448 02f6 FFF7FEFF 		bl	_ZN9PS4Parser12getAnalogHatE13AnalogHatEnum
 1449              	.LVL152:
 1450 02fa 8928     		cmp	r0, #137
 1451 02fc 00D9     		bls	.LCB1242
 1452 02fe B2E6     		b	.L58	@long jump
 1453              	.LCB1242:
 112:main.c        ****       iprintf(("\r\nLeftHatX: "));
 1454              		.loc 5 112 0 discriminator 6
 1455 0300 0121     		movs	r1, #1
 1456 0302 2000     		movs	r0, r4
 1457 0304 FFF7FEFF 		bl	_ZN9PS4Parser12getAnalogHatE13AnalogHatEnum
 1458              	.LVL153:
 1459 0308 7428     		cmp	r0, #116
 1460 030a 00D8     		bhi	.LCB1248
 1461 030c ABE6     		b	.L58	@long jump
 1462              	.LCB1248:
 112:main.c        ****       iprintf(("\r\nLeftHatX: "));
 1463              		.loc 5 112 0 discriminator 8
 1464 030e 0221     		movs	r1, #2
 1465 0310 2000     		movs	r0, r4
 1466 0312 FFF7FEFF 		bl	_ZN9PS4Parser12getAnalogHatE13AnalogHatEnum
 1467              	.LVL154:
 1468 0316 8928     		cmp	r0, #137
 1469 0318 00D9     		bls	.LCB1254
 1470 031a A4E6     		b	.L58	@long jump
 1471              	.LCB1254:
 112:main.c        ****       iprintf(("\r\nLeftHatX: "));
 1472              		.loc 5 112 0 discriminator 10
 1473 031c 0221     		movs	r1, #2
 1474 031e 2000     		movs	r0, r4
 1475 0320 FFF7FEFF 		bl	_ZN9PS4Parser12getAnalogHatE13AnalogHatEnum
 1476              	.LVL155:
 1477 0324 7428     		cmp	r0, #116
 1478 0326 00D8     		bhi	.LCB1260
 1479 0328 9DE6     		b	.L58	@long jump
 1480              	.LCB1260:
 112:main.c        ****       iprintf(("\r\nLeftHatX: "));
 1481              		.loc 5 112 0 discriminator 12
 1482 032a 0321     		movs	r1, #3
ARM GAS  C:\Users\jrdia\AppData\Local\Temp\ccFTvYyK.s 			page 55


 1483 032c 2000     		movs	r0, r4
 1484 032e FFF7FEFF 		bl	_ZN9PS4Parser12getAnalogHatE13AnalogHatEnum
 1485              	.LVL156:
 1486 0332 8928     		cmp	r0, #137
 1487 0334 00D9     		bls	.LCB1266
 1488 0336 96E6     		b	.L58	@long jump
 1489              	.LCB1266:
 112:main.c        ****       iprintf(("\r\nLeftHatX: "));
 1490              		.loc 5 112 0 discriminator 14
 1491 0338 0321     		movs	r1, #3
 1492 033a 2000     		movs	r0, r4
 1493 033c FFF7FEFF 		bl	_ZN9PS4Parser12getAnalogHatE13AnalogHatEnum
 1494              	.LVL157:
 1495 0340 7428     		cmp	r0, #116
 1496 0342 00D8     		bhi	.LCB1272
 1497 0344 8FE6     		b	.L58	@long jump
 1498              	.LCB1272:
 1499 0346 BAE6     		b	.L83
 1500              	.L80:
 1501              	.LBB223:
 1502              	.LBB220:
 1503              	.LBB197:
 1504              	.LBB196:
 200:main.c        ****         for (uint8_t i = 0; i < 2; i++) { // The touchpad track two fingers
 1505              		.loc 5 200 0 is_stmt 1
 1506 0348 1448     		ldr	r0, .L164+68
 1507 034a FFF7FEFF 		bl	iprintf
 1508              	.LVL158:
 1509 034e 9623     		movs	r3, #150
 1510 0350 EB5C     		ldrb	r3, [r5, r3]
 1511 0352 DB09     		lsrs	r3, r3, #7
 1512 0354 83E7     		b	.L86
 1513              	.L165:
 1514 0356 C046     		.align	2
 1515              	.L164:
 1516 0358 10000000 		.word	.LC4
 1517 035c 00000000 		.word	.LANCHOR0
 1518 0360 44000000 		.word	.LC9
 1519 0364 00010000 		.word	.LANCHOR2
 1520 0368 80000000 		.word	.LANCHOR1
 1521 036c F0000000 		.word	.LC47
 1522 0370 00010000 		.word	.LC55
 1523 0374 10010000 		.word	.LC57
 1524 0378 1C010000 		.word	.LC59
 1525 037c 2C010000 		.word	.LC61
 1526 0380 3C010000 		.word	.LC63
 1527 0384 44010000 		.word	.LC65
 1528 0388 58000000 		.word	.LC13
 1529 038c EC000000 		.word	.LC45
 1530 0390 F4000000 		.word	.LC49
 1531 0394 F8000000 		.word	.LC51
 1532 0398 FC000000 		.word	.LC53
 1533 039c 4C010000 		.word	.LC67
 1534              	.L159:
 1535              	.LBE196:
 1536              	.LBE197:
 178:main.c        **** 
ARM GAS  C:\Users\jrdia\AppData\Local\Temp\ccFTvYyK.s 			page 56


 1537              		.loc 5 178 0
 1538 03a0 6A48     		ldr	r0, .L166
 1539 03a2 FFF7FEFF 		bl	iprintf
 1540              	.LVL159:
 180:main.c        ****         iprintf(("\r\nShare"));
 1541              		.loc 5 180 0
 1542 03a6 0421     		movs	r1, #4
 1543 03a8 2000     		movs	r0, r4
 1544 03aa FFF7FEFF 		bl	_ZN9PS4Parser14getButtonClickE10ButtonEnum
 1545              	.LVL160:
 1546 03ae 0028     		cmp	r0, #0
 1547 03b0 00D1     		bne	.LCB1326
 1548 03b2 37E7     		b	.L75	@long jump
 1549              	.LCB1326:
 1550              	.L160:
 181:main.c        ****       if (PS4.getButtonClick(OPTIONS)) {
 1551              		.loc 5 181 0
 1552 03b4 6648     		ldr	r0, .L166+4
 1553 03b6 FFF7FEFF 		bl	iprintf
 1554              	.LVL161:
 182:main.c        ****         iprintf(("\r\nOptions"));
 1555              		.loc 5 182 0
 1556 03ba 0521     		movs	r1, #5
 1557 03bc 2000     		movs	r0, r4
 1558 03be FFF7FEFF 		bl	_ZN9PS4Parser14getButtonClickE10ButtonEnum
 1559              	.LVL162:
 1560 03c2 0028     		cmp	r0, #0
 1561 03c4 00D1     		bne	.LCB1336
 1562 03c6 34E7     		b	.L76	@long jump
 1563              	.LCB1336:
 1564              	.L161:
 183:main.c        ****         printAngle = !printAngle;
 1565              		.loc 5 183 0
 1566 03c8 6248     		ldr	r0, .L166+8
 1567 03ca FFF7FEFF 		bl	iprintf
 1568              	.LVL163:
 184:main.c        ****       }
 1569              		.loc 5 184 0
 1570 03ce 4222     		movs	r2, #66
 1571 03d0 5B46     		mov	r3, fp
 1572 03d2 995C     		ldrb	r1, [r3, r2]
 1573 03d4 0123     		movs	r3, #1
 1574 03d6 4B40     		eors	r3, r1
 1575 03d8 5946     		mov	r1, fp
 186:main.c        ****         iprintf(("\r\nTouchpad"));
 1576              		.loc 5 186 0
 1577 03da 2000     		movs	r0, r4
 184:main.c        ****       }
 1578              		.loc 5 184 0
 1579 03dc 8B54     		strb	r3, [r1, r2]
 186:main.c        ****         iprintf(("\r\nTouchpad"));
 1580              		.loc 5 186 0
 1581 03de 1121     		movs	r1, #17
 1582 03e0 FFF7FEFF 		bl	_ZN9PS4Parser14getButtonClickE10ButtonEnum
 1583              	.LVL164:
 1584 03e4 0028     		cmp	r0, #0
 1585 03e6 00D1     		bne	.LCB1353
ARM GAS  C:\Users\jrdia\AppData\Local\Temp\ccFTvYyK.s 			page 57


 1586 03e8 2AE7     		b	.L163	@long jump
 1587              	.LCB1353:
 1588              	.L77:
 187:main.c        ****         printTouch = !printTouch;
 1589              		.loc 5 187 0
 1590 03ea 5B48     		ldr	r0, .L166+12
 1591 03ec FFF7FEFF 		bl	iprintf
 1592              	.LVL165:
 188:main.c        ****       }
 1593              		.loc 5 188 0
 1594 03f0 4322     		movs	r2, #67
 1595 03f2 5B46     		mov	r3, fp
 1596 03f4 995C     		ldrb	r1, [r3, r2]
 1597 03f6 0123     		movs	r3, #1
 1598 03f8 4B40     		eors	r3, r1
 1599 03fa 5946     		mov	r1, fp
 1600 03fc 8B54     		strb	r3, [r1, r2]
 1601 03fe 22E7     		b	.L78
 1602              	.L158:
 176:main.c        ****       if (PS4.getButtonClick(R3))
 1603              		.loc 5 176 0
 1604 0400 5648     		ldr	r0, .L166+16
 1605 0402 FFF7FEFF 		bl	iprintf
 1606              	.LVL166:
 1607 0406 FFE6     		b	.L73
 1608              	.L157:
 174:main.c        ****       if (PS4.getButtonClick(R1))
 1609              		.loc 5 174 0
 1610 0408 5548     		ldr	r0, .L166+20
 1611 040a FFF7FEFF 		bl	iprintf
 1612              	.LVL167:
 1613 040e F4E6     		b	.L72
 1614              	.L156:
 172:main.c        ****       if (PS4.getButtonClick(L3))
 1615              		.loc 5 172 0
 1616 0410 5448     		ldr	r0, .L166+24
 1617 0412 FFF7FEFF 		bl	iprintf
 1618              	.LVL168:
 1619 0416 E9E6     		b	.L71
 1620              	.L155:
 167:main.c        ****         PS4.setLed(Green);
 1621              		.loc 5 167 0
 1622 0418 5348     		ldr	r0, .L166+28
 1623 041a FFF7FEFF 		bl	iprintf
 1624              	.LVL169:
 1625              	.LBB198:
 1626              	.LBB199:
 1627              	.LBB200:
 322:./PS4Parser.h ****                 ps4Output.g = g;
 1628              		.loc 3 322 0
 1629 041e 2A00     		movs	r2, r5
 1630 0420 0023     		movs	r3, #0
 1631 0422 B832     		adds	r2, r2, #184
 1632 0424 1370     		strb	r3, [r2]
 323:./PS4Parser.h ****                 ps4Output.b = b;
 1633              		.loc 3 323 0
 1634 0426 2A00     		movs	r2, r5
ARM GAS  C:\Users\jrdia\AppData\Local\Temp\ccFTvYyK.s 			page 58


 1635 0428 FF21     		movs	r1, #255
 1636 042a B932     		adds	r2, r2, #185
 1637 042c 1170     		strb	r1, [r2]
 324:./PS4Parser.h ****                 ps4Output.reportChanged = true;
 1638              		.loc 3 324 0
 1639 042e 2A00     		movs	r2, r5
 1640 0430 BA32     		adds	r2, r2, #186
 1641 0432 1370     		strb	r3, [r2]
 1642              		.loc 3 325 0
 1643 0434 2B00     		movs	r3, r5
 1644 0436 0122     		movs	r2, #1
 1645 0438 BD33     		adds	r3, r3, #189
 1646 043a 1A70     		strb	r2, [r3]
 1647              	.LVL170:
 1648 043c CFE6     		b	.L70
 1649              	.LVL171:
 1650              	.L154:
 1651              	.LBE200:
 1652              	.LBE199:
 1653              	.LBE198:
 164:main.c        ****         PS4.setLed(Yellow);
 1654              		.loc 5 164 0
 1655 043e 4B48     		ldr	r0, .L166+32
 1656 0440 FFF7FEFF 		bl	iprintf
 1657              	.LVL172:
 1658              	.LBB201:
 1659              	.LBB202:
 1660              	.LBB203:
 322:./PS4Parser.h ****                 ps4Output.g = g;
 1661              		.loc 3 322 0
 1662 0444 2B00     		movs	r3, r5
 1663 0446 FF22     		movs	r2, #255
 1664 0448 B833     		adds	r3, r3, #184
 1665 044a 1A70     		strb	r2, [r3]
 323:./PS4Parser.h ****                 ps4Output.b = b;
 1666              		.loc 3 323 0
 1667 044c 2B00     		movs	r3, r5
 1668 044e 143A     		subs	r2, r2, #20
 1669 0450 B933     		adds	r3, r3, #185
 1670 0452 1A70     		strb	r2, [r3]
 324:./PS4Parser.h ****                 ps4Output.reportChanged = true;
 1671              		.loc 3 324 0
 1672 0454 2B00     		movs	r3, r5
 1673 0456 E73A     		subs	r2, r2, #231
 1674 0458 BA33     		adds	r3, r3, #186
 1675 045a 1A70     		strb	r2, [r3]
 1676              		.loc 3 325 0
 1677 045c 2B00     		movs	r3, r5
 1678 045e 033A     		subs	r2, r2, #3
 1679 0460 BD33     		adds	r3, r3, #189
 1680 0462 1A70     		strb	r2, [r3]
 1681              	.LVL173:
 1682 0464 B4E6     		b	.L69
 1683              	.LVL174:
 1684              	.L153:
 1685              	.LBE203:
 1686              	.LBE202:
ARM GAS  C:\Users\jrdia\AppData\Local\Temp\ccFTvYyK.s 			page 59


 1687              	.LBE201:
 161:main.c        ****         PS4.setLed(Blue);
 1688              		.loc 5 161 0
 1689 0466 4248     		ldr	r0, .L166+36
 1690 0468 FFF7FEFF 		bl	iprintf
 1691              	.LVL175:
 1692              	.LBB204:
 1693              	.LBB205:
 1694              	.LBB206:
 322:./PS4Parser.h ****                 ps4Output.g = g;
 1695              		.loc 3 322 0
 1696 046c 2A00     		movs	r2, r5
 1697 046e 0023     		movs	r3, #0
 1698 0470 B832     		adds	r2, r2, #184
 1699 0472 1370     		strb	r3, [r2]
 323:./PS4Parser.h ****                 ps4Output.b = b;
 1700              		.loc 3 323 0
 1701 0474 2A00     		movs	r2, r5
 1702 0476 B932     		adds	r2, r2, #185
 1703 0478 1370     		strb	r3, [r2]
 324:./PS4Parser.h ****                 ps4Output.reportChanged = true;
 1704              		.loc 3 324 0
 1705 047a 2B00     		movs	r3, r5
 1706 047c FF22     		movs	r2, #255
 1707 047e BA33     		adds	r3, r3, #186
 1708 0480 1A70     		strb	r2, [r3]
 1709              		.loc 3 325 0
 1710 0482 2B00     		movs	r3, r5
 1711 0484 FE3A     		subs	r2, r2, #254
 1712 0486 BD33     		adds	r3, r3, #189
 1713 0488 1A70     		strb	r2, [r3]
 1714              	.LVL176:
 1715 048a 9AE6     		b	.L68
 1716              	.LVL177:
 1717              	.L152:
 1718              	.LBE206:
 1719              	.LBE205:
 1720              	.LBE204:
 158:main.c        ****         PS4.setLed(Red);
 1721              		.loc 5 158 0
 1722 048c 3948     		ldr	r0, .L166+40
 1723 048e FFF7FEFF 		bl	iprintf
 1724              	.LVL178:
 1725              	.LBB207:
 1726              	.LBB208:
 1727              	.LBB209:
 322:./PS4Parser.h ****                 ps4Output.g = g;
 1728              		.loc 3 322 0
 1729 0492 2B00     		movs	r3, r5
 1730 0494 FF22     		movs	r2, #255
 1731 0496 B833     		adds	r3, r3, #184
 1732 0498 1A70     		strb	r2, [r3]
 323:./PS4Parser.h ****                 ps4Output.b = b;
 1733              		.loc 3 323 0
 1734 049a 2A00     		movs	r2, r5
 1735 049c 0023     		movs	r3, #0
 1736 049e B932     		adds	r2, r2, #185
ARM GAS  C:\Users\jrdia\AppData\Local\Temp\ccFTvYyK.s 			page 60


 1737 04a0 1370     		strb	r3, [r2]
 324:./PS4Parser.h ****                 ps4Output.reportChanged = true;
 1738              		.loc 3 324 0
 1739 04a2 2A00     		movs	r2, r5
 1740 04a4 BA32     		adds	r2, r2, #186
 1741 04a6 1370     		strb	r3, [r2]
 1742              		.loc 3 325 0
 1743 04a8 2B00     		movs	r3, r5
 1744 04aa 0122     		movs	r2, #1
 1745 04ac BD33     		adds	r3, r3, #189
 1746 04ae 1A70     		strb	r2, [r3]
 1747              	.LVL179:
 1748 04b0 80E6     		b	.L67
 1749              	.LVL180:
 1750              	.L151:
 1751              	.LBE209:
 1752              	.LBE208:
 1753              	.LBE207:
 153:main.c        ****         PS4.setLedFlash(0, 0); // Turn off blinking
 1754              		.loc 5 153 0
 1755 04b2 3148     		ldr	r0, .L166+44
 1756 04b4 FFF7FEFF 		bl	iprintf
 1757              	.LVL181:
 1758              	.LBB210:
 1759              	.LBB211:
 326:./PS4Parser.h ****         };
 327:./PS4Parser.h **** 
 328:./PS4Parser.h ****         /**
 329:./PS4Parser.h ****          * Use this to set the color using the predefined colors in ::ColorsEnum.
 330:./PS4Parser.h ****          * @param color The desired color.
 331:./PS4Parser.h ****          */
 332:./PS4Parser.h ****         void setLed(ColorsEnum color) {
 333:./PS4Parser.h ****                 setLed((uint8_t)(color >> 16), (uint8_t)(color >> 8), (uint8_t)(color));
 334:./PS4Parser.h ****         };
 335:./PS4Parser.h **** 
 336:./PS4Parser.h ****         /**
 337:./PS4Parser.h ****          * Set the LEDs flash time.
 338:./PS4Parser.h ****          * @param flashOn  Time to flash bright (255 = 2.5 seconds).
 339:./PS4Parser.h ****          * @param flashOff Time to flash dark (255 = 2.5 seconds).
 340:./PS4Parser.h ****          */
 341:./PS4Parser.h ****         void setLedFlash(uint8_t flashOn, uint8_t flashOff) {
 342:./PS4Parser.h ****                 ps4Output.flashOn = flashOn;
 1760              		.loc 3 342 0
 1761 04b8 2A00     		movs	r2, r5
 1762 04ba 0023     		movs	r3, #0
 1763 04bc BB32     		adds	r2, r2, #187
 1764 04be 1370     		strb	r3, [r2]
 343:./PS4Parser.h ****                 ps4Output.flashOff = flashOff;
 1765              		.loc 3 343 0
 1766 04c0 2A00     		movs	r2, r5
 1767 04c2 BC32     		adds	r2, r2, #188
 1768 04c4 1370     		strb	r3, [r2]
 344:./PS4Parser.h ****                 ps4Output.reportChanged = true;
 1769              		.loc 3 344 0
 1770 04c6 2B00     		movs	r3, r5
 1771 04c8 0122     		movs	r2, #1
 1772 04ca BD33     		adds	r3, r3, #189
ARM GAS  C:\Users\jrdia\AppData\Local\Temp\ccFTvYyK.s 			page 61


 1773 04cc 1A70     		strb	r2, [r3]
 1774 04ce 6AE6     		b	.L66
 1775              	.LVL182:
 1776              	.L150:
 1777              	.LBE211:
 1778              	.LBE210:
 149:main.c        ****         PS4.setLedFlash(10, 10); // Set it to blink rapidly
 1779              		.loc 5 149 0
 1780 04d0 2A48     		ldr	r0, .L166+48
 1781 04d2 FFF7FEFF 		bl	iprintf
 1782              	.LVL183:
 1783              	.LBB212:
 1784              	.LBB213:
 342:./PS4Parser.h ****                 ps4Output.flashOff = flashOff;
 1785              		.loc 3 342 0
 1786 04d6 2A00     		movs	r2, r5
 1787 04d8 0A23     		movs	r3, #10
 1788 04da BB32     		adds	r2, r2, #187
 1789 04dc 1370     		strb	r3, [r2]
 343:./PS4Parser.h ****                 ps4Output.reportChanged = true;
 1790              		.loc 3 343 0
 1791 04de 2A00     		movs	r2, r5
 1792 04e0 BC32     		adds	r2, r2, #188
 1793 04e2 1370     		strb	r3, [r2]
 1794              		.loc 3 344 0
 1795 04e4 2B00     		movs	r3, r5
 1796 04e6 0122     		movs	r2, #1
 1797 04e8 BD33     		adds	r3, r3, #189
 1798 04ea 1A70     		strb	r2, [r3]
 1799 04ec 54E6     		b	.L65
 1800              	.LVL184:
 1801              	.L149:
 1802              	.LBE213:
 1803              	.LBE212:
 145:main.c        ****         PS4.setRumbleOn(RumbleHigh);
 1804              		.loc 5 145 0
 1805 04ee 2448     		ldr	r0, .L166+52
 1806 04f0 FFF7FEFF 		bl	iprintf
 1807              	.LVL185:
 1808              	.LBB214:
 1809              	.LBB215:
 1810              	.LBB216:
 307:./PS4Parser.h ****                 ps4Output.smallRumble = smallRumble;
 1811              		.loc 3 307 0
 1812 04f4 2B00     		movs	r3, r5
 1813 04f6 FF22     		movs	r2, #255
 1814 04f8 B633     		adds	r3, r3, #182
 1815 04fa 1A70     		strb	r2, [r3]
 308:./PS4Parser.h ****                 ps4Output.reportChanged = true;
 1816              		.loc 3 308 0
 1817 04fc 2B00     		movs	r3, r5
 1818 04fe 0022     		movs	r2, #0
 1819 0500 B733     		adds	r3, r3, #183
 1820 0502 1A70     		strb	r2, [r3]
 309:./PS4Parser.h ****         };
 1821              		.loc 3 309 0
 1822 0504 2B00     		movs	r3, r5
ARM GAS  C:\Users\jrdia\AppData\Local\Temp\ccFTvYyK.s 			page 62


 1823 0506 0132     		adds	r2, r2, #1
 1824 0508 BD33     		adds	r3, r3, #189
 1825 050a 1A70     		strb	r2, [r3]
 1826 050c 3DE6     		b	.L64
 1827              	.LVL186:
 1828              	.L148:
 1829              	.LBE216:
 1830              	.LBE215:
 1831              	.LBE214:
 141:main.c        ****         PS4.setRumbleOn(RumbleLow);
 1832              		.loc 5 141 0
 1833 050e 1D48     		ldr	r0, .L166+56
 1834 0510 FFF7FEFF 		bl	iprintf
 1835              	.LVL187:
 1836              	.LBB217:
 1837              	.LBB218:
 1838              	.LBB219:
 307:./PS4Parser.h ****                 ps4Output.smallRumble = smallRumble;
 1839              		.loc 3 307 0
 1840 0514 2B00     		movs	r3, r5
 1841 0516 B633     		adds	r3, r3, #182
 1842 0518 1F70     		strb	r7, [r3]
 308:./PS4Parser.h ****                 ps4Output.reportChanged = true;
 1843              		.loc 3 308 0
 1844 051a 2B00     		movs	r3, r5
 1845 051c FF22     		movs	r2, #255
 1846 051e B733     		adds	r3, r3, #183
 1847 0520 1A70     		strb	r2, [r3]
 309:./PS4Parser.h ****         };
 1848              		.loc 3 309 0
 1849 0522 2B00     		movs	r3, r5
 1850 0524 FE3A     		subs	r2, r2, #254
 1851 0526 BD33     		adds	r3, r3, #189
 1852 0528 1A70     		strb	r2, [r3]
 1853 052a 27E6     		b	.L63
 1854              	.LVL188:
 1855              	.L147:
 1856              	.LBE219:
 1857              	.LBE218:
 1858              	.LBE217:
 1859              	.LBE220:
 1860              	.LBE223:
 130:main.c        ****       PS4.setRumbleOn(PS4.getAnalogButton(L2), PS4.getAnalogButton(R2));
 1861              		.loc 5 130 0 discriminator 2
 1862 052c 0921     		movs	r1, #9
 1863 052e 2000     		movs	r0, r4
 1864 0530 FFF7FEFF 		bl	_ZN9PS4Parser15getAnalogButtonE10ButtonEnum
 1865              	.LVL189:
 1866 0534 5B46     		mov	r3, fp
 1867 0536 4A46     		mov	r2, r9
 1868 0538 9B5C     		ldrb	r3, [r3, r2]
 1869 053a 8342     		cmp	r3, r0
 1870 053c 00D0     		beq	.LCB1687
 1871 053e E5E5     		b	.L60	@long jump
 1872              	.LCB1687:
 1873 0540 F7E5     		b	.L85
 1874              	.LVL190:
ARM GAS  C:\Users\jrdia\AppData\Local\Temp\ccFTvYyK.s 			page 63


 1875              	.L144:
 1876              	.LBE224:
 1877              	.LBE225:
 1878              	.LBE176:
  99:main.c        ****     while (1); // Halt
 1879              		.loc 5 99 0
 1880 0542 1148     		ldr	r0, .L166+60
 1881 0544 FFF7FEFF 		bl	UART_UartPutString
 1882              	.LVL191:
 1883              	.L55:
 1884 0548 FEE7     		b	.L55
 1885              	.L167:
 1886 054a C046     		.align	2
 1887              	.L166:
 1888 054c C4000000 		.word	.LC37
 1889 0550 CC000000 		.word	.LC39
 1890 0554 D4000000 		.word	.LC41
 1891 0558 E0000000 		.word	.LC43
 1892 055c BC000000 		.word	.LC35
 1893 0560 B4000000 		.word	.LC33
 1894 0564 AC000000 		.word	.LC31
 1895 0568 A4000000 		.word	.LC29
 1896 056c 9C000000 		.word	.LC27
 1897 0570 94000000 		.word	.LC25
 1898 0574 8C000000 		.word	.LC23
 1899 0578 80000000 		.word	.LC21
 1900 057c 78000000 		.word	.LC19
 1901 0580 6C000000 		.word	.LC17
 1902 0584 60000000 		.word	.LC15
 1903 0588 2C000000 		.word	.LC7
 1904              		.cfi_endproc
 1905              	.LFE322:
 1906              		.fnend
 1907              		.size	main, .-main
 1908              		.section	.text.startup._GLOBAL__sub_I_PORTB,"ax",%progbits
 1909              		.align	2
 1910              		.code	16
 1911              		.thumb_func
 1912              		.type	_GLOBAL__sub_I_PORTB, %function
 1913              	_GLOBAL__sub_I_PORTB:
 1914              		.fnstart
 1915              	.LFB334:
 208:main.c        ****           }
 209:main.c        ****         }
 210:main.c        ****       }
 211:main.c        ****     }
 212:main.c        ****     }
 213:main.c        ****     }
 214:main.c        **** }
 1916              		.loc 5 214 0
 1917              		.cfi_startproc
 1918              		@ args = 0, pretend = 0, frame = 0
 1919              		@ frame_needed = 0, uses_anonymous_args = 0
 1920              	.LVL192:
 1921 0000 70B5     		push	{r4, r5, r6, lr}
 1922              		.cfi_def_cfa_offset 16
 1923              		.cfi_offset 4, -16
ARM GAS  C:\Users\jrdia\AppData\Local\Temp\ccFTvYyK.s 			page 64


 1924              		.cfi_offset 5, -12
 1925              		.cfi_offset 6, -8
 1926              		.cfi_offset 14, -4
 1927              	.LBB233:
 1928              	.LBB234:
  71:main.c        **** BTD Btd(&Usb); // You have to create the Bluetooth Dongle instance like so
 1929              		.loc 5 71 0
 1930 0002 114C     		ldr	r4, .L169
 1931              	.LBE234:
 1932              	.LBE233:
 1933              		.loc 5 214 0
 1934              		@ sp needed
 1935              	.LBB242:
 1936              	.LBB241:
  71:main.c        **** BTD Btd(&Usb); // You have to create the Bluetooth Dongle instance like so
 1937              		.loc 5 71 0
 1938 0004 0834     		adds	r4, r4, #8
 1939 0006 2000     		movs	r0, r4
 1940 0008 FFF7FEFF 		bl	_ZN3USBC1Ev
 1941              	.LVL193:
  72:main.c        **** PS4BT PS4(&Btd, PAIR);
 1942              		.loc 5 72 0
 1943 000c 0F4D     		ldr	r5, .L169+4
 1944 000e 2100     		movs	r1, r4
 1945 0010 4435     		adds	r5, r5, #68
 1946 0012 2800     		movs	r0, r5
 1947 0014 FFF7FEFF 		bl	_ZN3BTDC1EP3USB
 1948              	.LVL194:
 1949              	.LBB235:
 1950              	.LBB236:
  37:./PS4BT.h     ****                 PS4Parser::Reset();
 1951              		.loc 2 37 0
 1952 0018 0D4C     		ldr	r4, .L169+8
 1953 001a 2900     		movs	r1, r5
 1954 001c 2000     		movs	r0, r4
 1955              	.LBB237:
 1956              	.LBB238:
 128:./PS4Parser.h ****         };
 1957              		.loc 3 128 0
 1958 001e 2500     		movs	r5, r4
 1959              	.LBE238:
 1960              	.LBE237:
  37:./PS4BT.h     ****                 PS4Parser::Reset();
 1961              		.loc 2 37 0
 1962 0020 0122     		movs	r2, #1
 1963 0022 0C4B     		ldr	r3, .L169+12
 1964 0024 4430     		adds	r0, r0, #68
 1965 0026 FFF7FEFF 		bl	_ZN5BTHIDC2EP3BTDbPKc
 1966              	.LVL195:
 1967              	.LBB240:
 1968              	.LBB239:
 127:./PS4Parser.h ****                 Reset();
 1969              		.loc 3 127 0
 1970 002a 0B4B     		ldr	r3, .L169+16
 128:./PS4Parser.h ****         };
 1971              		.loc 3 128 0
 1972 002c 7035     		adds	r5, r5, #112
ARM GAS  C:\Users\jrdia\AppData\Local\Temp\ccFTvYyK.s 			page 65


 1973 002e 2800     		movs	r0, r5
 127:./PS4Parser.h ****                 Reset();
 1974              		.loc 3 127 0
 1975 0030 2367     		str	r3, [r4, #112]
 128:./PS4Parser.h ****         };
 1976              		.loc 3 128 0
 1977 0032 FFF7FEFF 		bl	_ZN9PS4Parser5ResetEv
 1978              	.LVL196:
 1979              	.LBE239:
 1980              	.LBE240:
  37:./PS4BT.h     ****                 PS4Parser::Reset();
 1981              		.loc 2 37 0
 1982 0036 094B     		ldr	r3, .L169+20
  38:./PS4BT.h     ****         };
 1983              		.loc 2 38 0
 1984 0038 2800     		movs	r0, r5
  37:./PS4BT.h     ****                 PS4Parser::Reset();
 1985              		.loc 2 37 0
 1986 003a 6364     		str	r3, [r4, #68]
 1987 003c 2C33     		adds	r3, r3, #44
 1988 003e 2367     		str	r3, [r4, #112]
  38:./PS4BT.h     ****         };
 1989              		.loc 2 38 0
 1990 0040 FFF7FEFF 		bl	_ZN9PS4Parser5ResetEv
 1991              	.LVL197:
 1992              	.LBE236:
 1993              	.LBE235:
 1994              	.LBE241:
 1995              	.LBE242:
 1996              		.loc 5 214 0
 1997 0044 70BD     		pop	{r4, r5, r6, pc}
 1998              	.L170:
 1999 0046 C046     		.align	2
 2000              	.L169:
 2001 0048 00000000 		.word	.LANCHOR0
 2002 004c 00010000 		.word	.LANCHOR2
 2003 0050 80000000 		.word	.LANCHOR1
 2004 0054 50010000 		.word	.LC86
 2005 0058 08000000 		.word	_ZTV9PS4Parser+8
 2006 005c 08000000 		.word	_ZTV5PS4BT+8
 2007              		.cfi_endproc
 2008              	.LFE334:
 2009              		.cantunwind
 2010              		.fnend
 2011              		.size	_GLOBAL__sub_I_PORTB, .-_GLOBAL__sub_I_PORTB
 2012              		.section	.init_array,"aw",%init_array
 2013              		.align	2
 2014 0000 00000000 		.word	_GLOBAL__sub_I_PORTB(target1)
 2015              		.weak	_ZN8MAX3421eI4TPinI5PortbLh2EES0_IS1_Lh1EEE9vbusStateE
 2016              		.section	.bss._ZN8MAX3421eI4TPinI5PortbLh2EES0_IS1_Lh1EEE9vbusStateE,"awG",%nobits,_ZN8MAX3421eI4T
 2017              		.type	_ZN8MAX3421eI4TPinI5PortbLh2EES0_IS1_Lh1EEE9vbusStateE, %object
 2018              		.size	_ZN8MAX3421eI4TPinI5PortbLh2EES0_IS1_Lh1EEE9vbusStateE, 1
 2019              	_ZN8MAX3421eI4TPinI5PortbLh2EES0_IS1_Lh1EEE9vbusStateE:
 2020 0000 00       		.space	1
 2021              		.weak	_ZTS9PS4Parser
 2022              		.section	.rodata._ZTS9PS4Parser,"aG",%progbits,_ZTS9PS4Parser,comdat
 2023              		.align	2
ARM GAS  C:\Users\jrdia\AppData\Local\Temp\ccFTvYyK.s 			page 66


 2024              		.type	_ZTS9PS4Parser, %object
 2025              		.size	_ZTS9PS4Parser, 11
 2026              	_ZTS9PS4Parser:
 2027 0000 39505334 		.ascii	"9PS4Parser\000"
 2027      50617273 
 2027      657200
 2028              		.weak	_ZTI9PS4Parser
 2029              		.section	.rodata._ZTI9PS4Parser,"aG",%progbits,_ZTI9PS4Parser,comdat
 2030              		.align	2
 2031              		.type	_ZTI9PS4Parser, %object
 2032              		.size	_ZTI9PS4Parser, 8
 2033              	_ZTI9PS4Parser:
 2034 0000 08000000 		.word	_ZTVN10__cxxabiv117__class_type_infoE+8
 2035 0004 00000000 		.word	_ZTS9PS4Parser
 2036              		.weak	_ZTS5PS4BT
 2037              		.section	.rodata._ZTS5PS4BT,"aG",%progbits,_ZTS5PS4BT,comdat
 2038              		.align	2
 2039              		.type	_ZTS5PS4BT, %object
 2040              		.size	_ZTS5PS4BT, 7
 2041              	_ZTS5PS4BT:
 2042 0000 35505334 		.ascii	"5PS4BT\000"
 2042      425400
 2043              		.weak	_ZTI5PS4BT
 2044              		.section	.rodata._ZTI5PS4BT,"aG",%progbits,_ZTI5PS4BT,comdat
 2045              		.align	2
 2046              		.type	_ZTI5PS4BT, %object
 2047              		.size	_ZTI5PS4BT, 32
 2048              	_ZTI5PS4BT:
 2049 0000 08000000 		.word	_ZTVN10__cxxabiv121__vmi_class_type_infoE+8
 2050 0004 00000000 		.word	_ZTS5PS4BT
 2051 0008 00000000 		.word	0
 2052 000c 02000000 		.word	2
 2053 0010 00000000 		.word	_ZTI5BTHID
 2054 0014 02000000 		.word	2
 2055 0018 00000000 		.word	_ZTI9PS4Parser
 2056 001c 022C0000 		.word	11266
 2057              		.weak	_ZTV9PS4Parser
 2058              		.section	.rodata._ZTV9PS4Parser,"aG",%progbits,_ZTV9PS4Parser,comdat
 2059              		.align	2
 2060              		.type	_ZTV9PS4Parser, %object
 2061              		.size	_ZTV9PS4Parser, 12
 2062              	_ZTV9PS4Parser:
 2063 0000 00000000 		.word	0
 2064 0004 00000000 		.word	_ZTI9PS4Parser
 2065 0008 00000000 		.word	__cxa_pure_virtual
 2066              		.weak	_ZTV5PS4BT
 2067              		.section	.rodata._ZTV5PS4BT,"aG",%progbits,_ZTV5PS4BT,comdat
 2068              		.align	2
 2069              		.type	_ZTV5PS4BT, %object
 2070              		.size	_ZTV5PS4BT, 56
 2071              	_ZTV5PS4BT:
 2072 0000 00000000 		.word	0
 2073 0004 00000000 		.word	_ZTI5PS4BT
 2074 0008 00000000 		.word	_ZN5BTHID7ACLDataEPh
 2075 000c 00000000 		.word	_ZN5BTHID3RunEv
 2076 0010 00000000 		.word	_ZN5BTHID5ResetEv
 2077 0014 00000000 		.word	_ZN5BTHID10disconnectEv
ARM GAS  C:\Users\jrdia\AppData\Local\Temp\ccFTvYyK.s 			page 67


 2078 0018 00000000 		.word	_ZN5BTHID6onInitEv
 2079 001c 00000000 		.word	_ZN5PS4BT14ParseBTHIDDataEhPh
 2080 0020 00000000 		.word	_ZN5PS4BT11OnInitBTHIDEv
 2081 0024 00000000 		.word	_ZN5PS4BT10ResetBTHIDEv
 2082 0028 00000000 		.word	_ZN5PS4BT16sendOutputReportEP9PS4Output
 2083 002c D4FFFFFF 		.word	-44
 2084 0030 00000000 		.word	_ZTI5PS4BT
 2085 0034 00000000 		.word	_ZThn44_N5PS4BT16sendOutputReportEP9PS4Output
 2086              		.global	oldR2Value
 2087              		.global	oldL2Value
 2088              		.global	printTouch
 2089              		.global	printAngle
 2090              		.global	PS4
 2091              		.global	Btd
 2092              		.global	Usb
 2093              		.global	Pd0
 2094              		.global	Pd8
 2095              		.global	Pd7
 2096              		.global	Pd6
 2097              		.global	Pd5
 2098              		.global	Pd4
 2099              		.global	Pd3
 2100              		.global	Pd2
 2101              		.global	Pd1
 2102              		.global	PINB
 2103              		.global	DDRB
 2104              		.global	PORTB
 2105              		.section	.rodata.str1.4,"aMS",%progbits,1
 2106              		.align	2
 2107              	.LC0:
 2108 0000 5465726D 		.ascii	"Terminal Count.\000"
 2108      696E616C 
 2108      20436F75 
 2108      6E742E00 
 2109              	.LC4:
 2110 0010 53746172 		.ascii	"Starting Bluetooth Test.\015\012\000"
 2110      74696E67 
 2110      20426C75 
 2110      65746F6F 
 2110      74682054 
 2111 002b 00       		.space	1
 2112              	.LC7:
 2113 002c 0D0A4F53 		.ascii	"\015\012OSC did not start\015\012\000"
 2113      43206469 
 2113      64206E6F 
 2113      74207374 
 2113      6172740D 
 2114 0042 0000     		.space	2
 2115              	.LC9:
 2116 0044 55534220 		.ascii	"USB Initialized.\015\012\000"
 2116      496E6974 
 2116      69616C69 
 2116      7A65642E 
 2116      0D0A00
 2117 0057 00       		.space	1
 2118              	.LC13:
 2119 0058 0D0A5053 		.ascii	"\015\012PS\000"
ARM GAS  C:\Users\jrdia\AppData\Local\Temp\ccFTvYyK.s 			page 68


 2119      00
 2120 005d 000000   		.space	3
 2121              	.LC15:
 2122 0060 0D0A5472 		.ascii	"\015\012Traingle\000"
 2122      61696E67 
 2122      6C6500
 2123 006b 00       		.space	1
 2124              	.LC17:
 2125 006c 0D0A4369 		.ascii	"\015\012Circle\000"
 2125      72636C65 
 2125      00
 2126 0075 000000   		.space	3
 2127              	.LC19:
 2128 0078 0D0A4372 		.ascii	"\015\012Cross\000"
 2128      6F737300 
 2129              	.LC21:
 2130 0080 0D0A5371 		.ascii	"\015\012Square\000"
 2130      75617265 
 2130      00
 2131 0089 000000   		.space	3
 2132              	.LC23:
 2133 008c 0D0A5570 		.ascii	"\015\012Up\000"
 2133      00
 2134 0091 000000   		.space	3
 2135              	.LC25:
 2136 0094 0D0A5269 		.ascii	"\015\012Right\000"
 2136      67687400 
 2137              	.LC27:
 2138 009c 0D0A446F 		.ascii	"\015\012Down\000"
 2138      776E00
 2139 00a3 00       		.space	1
 2140              	.LC29:
 2141 00a4 0D0A4C65 		.ascii	"\015\012Left\000"
 2141      667400
 2142 00ab 00       		.space	1
 2143              	.LC31:
 2144 00ac 0D0A4C31 		.ascii	"\015\012L1\000"
 2144      00
 2145 00b1 000000   		.space	3
 2146              	.LC33:
 2147 00b4 0D0A4C33 		.ascii	"\015\012L3\000"
 2147      00
 2148 00b9 000000   		.space	3
 2149              	.LC35:
 2150 00bc 0D0A5231 		.ascii	"\015\012R1\000"
 2150      00
 2151 00c1 000000   		.space	3
 2152              	.LC37:
 2153 00c4 0D0A5233 		.ascii	"\015\012R3\000"
 2153      00
 2154 00c9 000000   		.space	3
 2155              	.LC39:
 2156 00cc 0D0A5368 		.ascii	"\015\012Share\000"
 2156      61726500 
 2157              	.LC41:
 2158 00d4 0D0A4F70 		.ascii	"\015\012Options\000"
 2158      74696F6E 
ARM GAS  C:\Users\jrdia\AppData\Local\Temp\ccFTvYyK.s 			page 69


 2158      7300
 2159 00de 0000     		.space	2
 2160              	.LC43:
 2161 00e0 0D0A546F 		.ascii	"\015\012Touchpad\000"
 2161      75636870 
 2161      616400
 2162 00eb 00       		.space	1
 2163              	.LC45:
 2164 00ec 5800     		.ascii	"X\000"
 2165 00ee 0000     		.space	2
 2166              	.LC47:
 2167 00f0 256400   		.ascii	"%d\000"
 2168 00f3 00       		.space	1
 2169              	.LC49:
 2170 00f4 3A2000   		.ascii	": \000"
 2171 00f7 00       		.space	1
 2172              	.LC51:
 2173 00f8 095900   		.ascii	"\011Y\000"
 2174 00fb 00       		.space	1
 2175              	.LC53:
 2176 00fc 0900     		.ascii	"\011\000"
 2177 00fe 0000     		.space	2
 2178              	.LC55:
 2179 0100 0D0A4C65 		.ascii	"\015\012LeftHatX: \000"
 2179      66744861 
 2179      74583A20 
 2179      00
 2180 010d 000000   		.space	3
 2181              	.LC57:
 2182 0110 094C6566 		.ascii	"\011LeftHatY: \000"
 2182      74486174 
 2182      593A2000 
 2183              	.LC59:
 2184 011c 09526967 		.ascii	"\011RightHatX: \000"
 2184      68744861 
 2184      74583A20 
 2184      00
 2185 0129 000000   		.space	3
 2186              	.LC61:
 2187 012c 09526967 		.ascii	"\011RightHatY: \000"
 2187      68744861 
 2187      74593A20 
 2187      00
 2188 0139 000000   		.space	3
 2189              	.LC63:
 2190 013c 0D0A4C32 		.ascii	"\015\012L2: \000"
 2190      3A2000
 2191 0143 00       		.space	1
 2192              	.LC65:
 2193 0144 0952323A 		.ascii	"\011R2: \000"
 2193      2000
 2194 014a 0000     		.space	2
 2195              	.LC67:
 2196 014c 0D0A00   		.ascii	"\015\012\000"
 2197 014f 00       		.space	1
 2198              	.LC86:
 2199 0150 30303030 		.ascii	"0000\000"
ARM GAS  C:\Users\jrdia\AppData\Local\Temp\ccFTvYyK.s 			page 70


 2199      00
 2200              		.bss
 2201              		.align	2
 2202              		.set	.LANCHOR0,. + 0
 2203              		.set	.LANCHOR1,. + 128
 2204              		.set	.LANCHOR2,. + 256
 2205              		.type	DDRB, %object
 2206              		.size	DDRB, 4
 2207              	DDRB:
 2208 0000 00000000 		.space	4
 2209              		.type	PORTB, %object
 2210              		.size	PORTB, 4
 2211              	PORTB:
 2212 0004 00000000 		.space	4
 2213              		.type	Usb, %object
 2214              		.size	Usb, 188
 2215              	Usb:
 2216 0008 00000000 		.space	188
 2216      00000000 
 2216      00000000 
 2216      00000000 
 2216      00000000 
 2217              		.type	PS4, %object
 2218              		.size	PS4, 124
 2219              	PS4:
 2220 00c4 00000000 		.space	124
 2220      00000000 
 2220      00000000 
 2220      00000000 
 2220      00000000 
 2221              		.type	oldL2Value, %object
 2222              		.size	oldL2Value, 1
 2223              	oldL2Value:
 2224 0140 00       		.space	1
 2225              		.type	oldR2Value, %object
 2226              		.size	oldR2Value, 1
 2227              	oldR2Value:
 2228 0141 00       		.space	1
 2229              		.type	printAngle, %object
 2230              		.size	printAngle, 1
 2231              	printAngle:
 2232 0142 00       		.space	1
 2233              		.type	printTouch, %object
 2234              		.size	printTouch, 1
 2235              	printTouch:
 2236 0143 00       		.space	1
 2237              		.type	Btd, %object
 2238              		.size	Btd, 280
 2239              	Btd:
 2240 0144 00000000 		.space	280
 2240      00000000 
 2240      00000000 
 2240      00000000 
 2240      00000000 
 2241              		.type	Pd0, %object
 2242              		.size	Pd0, 1
 2243              	Pd0:
ARM GAS  C:\Users\jrdia\AppData\Local\Temp\ccFTvYyK.s 			page 71


 2244 025c 00       		.space	1
 2245              		.type	Pd8, %object
 2246              		.size	Pd8, 1
 2247              	Pd8:
 2248 025d 00       		.space	1
 2249              		.type	Pd7, %object
 2250              		.size	Pd7, 1
 2251              	Pd7:
 2252 025e 00       		.space	1
 2253              		.type	Pd6, %object
 2254              		.size	Pd6, 1
 2255              	Pd6:
 2256 025f 00       		.space	1
 2257              		.type	Pd5, %object
 2258              		.size	Pd5, 1
 2259              	Pd5:
 2260 0260 00       		.space	1
 2261              		.type	Pd4, %object
 2262              		.size	Pd4, 1
 2263              	Pd4:
 2264 0261 00       		.space	1
 2265              		.type	Pd3, %object
 2266              		.size	Pd3, 1
 2267              	Pd3:
 2268 0262 00       		.space	1
 2269              		.type	Pd2, %object
 2270              		.size	Pd2, 1
 2271              	Pd2:
 2272 0263 00       		.space	1
 2273              		.type	Pd1, %object
 2274              		.size	Pd1, 1
 2275              	Pd1:
 2276 0264 00       		.space	1
 2277 0265 000000   		.space	3
 2278              		.type	PINB, %object
 2279              		.size	PINB, 4
 2280              	PINB:
 2281 0268 00000000 		.space	4
 2282              		.text
 2283              	.Letext0:
 2284              		.file 7 "c:\\program files (x86)\\cypress\\psoc creator\\4.1\\psoc creator\\import\\gnu\\arm\\5.4.
 2285              		.file 8 "c:\\program files (x86)\\cypress\\psoc creator\\4.1\\psoc creator\\import\\gnu\\arm\\5.4.
 2286              		.file 9 "Generated_Source\\PSoC4/cytypes.h"
 2287              		.file 10 "./address.h"
 2288              		.file 11 "./UsbCore.h"
 2289              		.file 12 "./Stream.h"
 2290              		.file 13 "./controllerEnums.h"
 2291              		.file 14 "./BTD.h"
 2292              		.file 15 "./sink_parser.h"
 2293              		.file 16 "./hidusagestr.h"
 2294              		.file 17 "Generated_Source\\PSoC4/CyLib.h"
 2295              		.file 18 "Generated_Source\\PSoC4/SS.h"
 2296              		.file 19 "Generated_Source\\PSoC4/SPI.h"
 2297              		.file 20 "Generated_Source\\PSoC4/UART_SPI_UART.h"
 2298              		.file 21 "Generated_Source\\PSoC4/Millis_Timer.h"
 2299              		.file 22 "c:\\program files (x86)\\cypress\\psoc creator\\4.1\\psoc creator\\import\\gnu\\arm\\5.4
 2300              		.file 23 "Generated_Source\\PSoC4/UART.h"
ARM GAS  C:\Users\jrdia\AppData\Local\Temp\ccFTvYyK.s 			page 72

