ARM GAS  C:\Users\jrdia\AppData\Local\Temp\ccmGUnxs.s 			page 1


   1              		.syntax unified
   2              		.cpu cortex-m0
   3              		.fpu softvfp
   4              		.eabi_attribute 20, 1
   5              		.eabi_attribute 21, 1
   6              		.eabi_attribute 23, 3
   7              		.eabi_attribute 24, 1
   8              		.eabi_attribute 25, 1
   9              		.eabi_attribute 26, 1
  10              		.eabi_attribute 30, 2
  11              		.eabi_attribute 34, 0
  12              		.eabi_attribute 18, 4
  13              		.thumb
  14              		.syntax unified
  15              		.file	"message.c"
  16              		.text
  17              	.Ltext0:
  18              		.cfi_sections	.debug_frame
  19              		.section	.text._Z9E_Notifycci,"ax",%progbits
  20              		.align	2
  21              		.global	_Z9E_Notifycci
  22              		.code	16
  23              		.thumb_func
  24              		.type	_Z9E_Notifycci, %function
  25              	_Z9E_Notifycci:
  26              		.fnstart
  27              	.LFB220:
  28              		.cfi_startproc
  29              		@ args = 0, pretend = 0, frame = 0
  30              		@ frame_needed = 0, uses_anonymous_args = 0
  31              		@ link register save eliminated.
  32              		@ sp needed
  33 0000 7047     		bx	lr
  34              		.cfi_endproc
  35              	.LFE220:
  36              		.cantunwind
  37              		.fnend
  38              		.size	_Z9E_Notifycci, .-_Z9E_Notifycci
  39 0002 C046     		.section	.text._Z11E_NotifyStrPKci,"ax",%progbits
  40              		.align	2
  41              		.global	_Z11E_NotifyStrPKci
  42              		.code	16
  43              		.thumb_func
  44              		.type	_Z11E_NotifyStrPKci, %function
  45              	_Z11E_NotifyStrPKci:
  46              		.fnstart
  47              	.LFB215:
  48              		.file 1 "message.c"
   1:message.c     **** /* Copyright (C) 2011 Circuits At Home, LTD. All rights reserved.
   2:message.c     **** 
   3:message.c     **** This software may be distributed and modified under the terms of the GNU
   4:message.c     **** General Public License version 2 (GPL2) as published by the Free Software
   5:message.c     **** Foundation and appearing in the file GPL2.TXT included in the packaging of
   6:message.c     **** this file. Please note that GPL2 Section 2[b] requires that all works based
   7:message.c     **** on this software must also be made publicly available under the terms of
   8:message.c     **** the GPL2 ("Copyleft").
   9:message.c     **** 
ARM GAS  C:\Users\jrdia\AppData\Local\Temp\ccmGUnxs.s 			page 2


  10:message.c     **** Contact information
  11:message.c     **** -------------------
  12:message.c     **** 
  13:message.c     **** Circuits At Home, LTD
  14:message.c     **** Web      :  http://www.circuitsathome.com
  15:message.c     **** e-mail   :  support@circuitsathome.com
  16:message.c     ****  */
  17:message.c     **** 
  18:message.c     **** #include "Usb.h"
  19:message.c     **** // 0x80 is the default (i.e. trace) to turn off set this global to something lower.
  20:message.c     **** // this allows for 126 other debugging levels.
  21:message.c     **** // TO-DO: Allow assignment to a different serial port by software
  22:message.c     **** int UsbDEBUGlvl = 0x80;
  23:message.c     **** 
  24:message.c     **** #warning "Need to fix Serial stuff here."
  25:message.c     **** void E_Notifyc(char c, int lvl) {
  26:message.c     ****         if(UsbDEBUGlvl < lvl) return;
  27:message.c     **** #if defined(ARDUINO) && ARDUINO >=100
  28:message.c     ****         //UNC USB_HOST_SERIAL.print(c);
  29:message.c     **** #else
  30:message.c     ****         USB_HOST_SERIAL.print(c, BYTE);
  31:message.c     **** #endif
  32:message.c     ****         //USB_HOST_SERIAL.flush();
  33:message.c     **** }
  34:message.c     **** 
  35:message.c     **** void E_Notify(char const * msg, int lvl) {
  36:message.c     ****         if(UsbDEBUGlvl < lvl) return;
  37:message.c     ****         if(!msg) return;
  38:message.c     ****         char c;
  39:message.c     **** 
  40:message.c     ****         while((c = pgm_read_byte(msg++))) E_Notifyc(c, lvl);
  41:message.c     **** }
  42:message.c     **** 
  43:message.c     **** void E_NotifyStr(char const * msg, int lvl) {
  49              		.loc 1 43 0
  50              		.cfi_startproc
  51              		@ args = 0, pretend = 0, frame = 0
  52              		@ frame_needed = 0, uses_anonymous_args = 0
  53              		@ link register save eliminated.
  54              	.LVL0:
  44:message.c     ****         if(UsbDEBUGlvl < lvl) return;
  55              		.loc 1 44 0
  56 0000 054B     		ldr	r3, .L10
  57 0002 1B68     		ldr	r3, [r3]
  58 0004 8B42     		cmp	r3, r1
  59 0006 06DB     		blt	.L2
  45:message.c     ****         if(!msg) return;
  60              		.loc 1 45 0
  61 0008 0028     		cmp	r0, #0
  62 000a 04D0     		beq	.L2
  63              	.L4:
  64              	.LVL1:
  65 000c 0130     		adds	r0, r0, #1
  66              	.LVL2:
  46:message.c     ****         char c;
  47:message.c     **** 
  48:message.c     ****         while((c = *msg++)) E_Notifyc(c, lvl);
ARM GAS  C:\Users\jrdia\AppData\Local\Temp\ccmGUnxs.s 			page 3


  67              		.loc 1 48 0 discriminator 2
  68 000e 431E     		subs	r3, r0, #1
  69              	.LVL3:
  70 0010 1B78     		ldrb	r3, [r3]
  71              	.LVL4:
  72 0012 002B     		cmp	r3, #0
  73 0014 FAD1     		bne	.L4
  74              	.LVL5:
  75              	.L2:
  49:message.c     **** }
  76              		.loc 1 49 0
  77              		@ sp needed
  78 0016 7047     		bx	lr
  79              	.L11:
  80              		.align	2
  81              	.L10:
  82 0018 00000000 		.word	.LANCHOR0
  83              		.cfi_endproc
  84              	.LFE215:
  85              		.cantunwind
  86              		.fnend
  87              		.size	_Z11E_NotifyStrPKci, .-_Z11E_NotifyStrPKci
  88              		.section	.text._Z8E_NotifyPKci,"ax",%progbits
  89              		.align	2
  90              		.global	_Z8E_NotifyPKci
  91              		.code	16
  92              		.thumb_func
  93              		.type	_Z8E_NotifyPKci, %function
  94              	_Z8E_NotifyPKci:
  95              		.fnstart
  96              	.LFB222:
  97              		.cfi_startproc
  98              		@ args = 0, pretend = 0, frame = 0
  99              		@ frame_needed = 0, uses_anonymous_args = 0
 100 0000 10B5     		push	{r4, lr}
 101              		.cfi_def_cfa_offset 8
 102              		.cfi_offset 4, -8
 103              		.cfi_offset 14, -4
 104 0002 FFF7FEFF 		bl	_Z11E_NotifyStrPKci
 105              		@ sp needed
 106 0006 10BD     		pop	{r4, pc}
 107              		.cfi_endproc
 108              	.LFE222:
 109              		.cantunwind
 110              		.fnend
 111              		.size	_Z8E_NotifyPKci, .-_Z8E_NotifyPKci
 112              		.section	.text._Z8E_Notifyhi,"ax",%progbits
 113              		.align	2
 114              		.global	_Z8E_Notifyhi
 115              		.code	16
 116              		.thumb_func
 117              		.type	_Z8E_Notifyhi, %function
 118              	_Z8E_Notifyhi:
 119              		.fnstart
 120              	.LFB216:
  50:message.c     **** 
  51:message.c     **** void E_Notify(uint8_t b, int lvl) {
ARM GAS  C:\Users\jrdia\AppData\Local\Temp\ccmGUnxs.s 			page 4


 121              		.loc 1 51 0
 122              		.cfi_startproc
 123              		@ args = 0, pretend = 0, frame = 0
 124              		@ frame_needed = 0, uses_anonymous_args = 0
 125              		@ link register save eliminated.
 126              	.LVL6:
  52:message.c     ****         if(UsbDEBUGlvl < lvl) return;
  53:message.c     **** #if defined(ARDUINO) && ARDUINO >=100
  54:message.c     ****         //UNC USB_HOST_SERIAL.print(b);
  55:message.c     **** #else
  56:message.c     ****         USB_HOST_SERIAL.print(b, DEC);
  57:message.c     **** #endif
  58:message.c     ****         //USB_HOST_SERIAL.flush();
  59:message.c     **** }
 127              		.loc 1 59 0
 128              		@ sp needed
 129 0000 7047     		bx	lr
 130              		.cfi_endproc
 131              	.LFE216:
 132              		.cantunwind
 133              		.fnend
 134              		.size	_Z8E_Notifyhi, .-_Z8E_Notifyhi
 135 0002 C046     		.section	.text._Z8E_Notifydi,"ax",%progbits
 136              		.align	2
 137              		.global	_Z8E_Notifydi
 138              		.code	16
 139              		.thumb_func
 140              		.type	_Z8E_Notifydi, %function
 141              	_Z8E_Notifydi:
 142              		.fnstart
 143              	.LFB217:
  60:message.c     **** 
  61:message.c     **** void E_Notify(double d, int lvl) {
 144              		.loc 1 61 0
 145              		.cfi_startproc
 146              		@ args = 0, pretend = 0, frame = 0
 147              		@ frame_needed = 0, uses_anonymous_args = 0
 148              		@ link register save eliminated.
 149              	.LVL7:
  62:message.c     ****         if(UsbDEBUGlvl < lvl) return;
  63:message.c     ****         //UNC USB_HOST_SERIAL.print(d);
  64:message.c     ****         //USB_HOST_SERIAL.flush();
  65:message.c     **** }
 150              		.loc 1 65 0
 151              		@ sp needed
 152 0000 7047     		bx	lr
 153              		.cfi_endproc
 154              	.LFE217:
 155              		.cantunwind
 156              		.fnend
 157              		.size	_Z8E_Notifydi, .-_Z8E_Notifydi
 158              		.global	UsbDEBUGlvl
 159 0002 C046     		.data
 160              		.align	2
 161              		.set	.LANCHOR0,. + 0
 162              		.type	UsbDEBUGlvl, %object
 163              		.size	UsbDEBUGlvl, 4
ARM GAS  C:\Users\jrdia\AppData\Local\Temp\ccmGUnxs.s 			page 5


 164              	UsbDEBUGlvl:
 165 0000 80000000 		.word	128
 166              		.text
 167              	.Letext0:
 168              		.file 2 "c:\\program files (x86)\\cypress\\psoc creator\\4.1\\psoc creator\\import\\gnu\\arm\\5.4.
 169              		.file 3 "c:\\program files (x86)\\cypress\\psoc creator\\4.1\\psoc creator\\import\\gnu\\arm\\5.4.
 170              		.file 4 "avrpins.h"
 171              		.file 5 "./Stream.h"