ARM GAS  C:\Users\jrdia\AppData\Local\Temp\ccwPaphc.s 			page 1


   1              		.syntax unified
   2              		.cpu cortex-m0
   3              		.fpu softvfp
   4              		.eabi_attribute 20, 1
   5              		.eabi_attribute 21, 1
   6              		.eabi_attribute 23, 3
   7              		.eabi_attribute 24, 1
   8              		.eabi_attribute 25, 1
   9              		.eabi_attribute 26, 1
  10              		.eabi_attribute 30, 2
  11              		.eabi_attribute 34, 0
  12              		.eabi_attribute 18, 4
  13              		.thumb
  14              		.syntax unified
  15              		.file	"parsetools.c"
  16              		.text
  17              	.Ltext0:
  18              		.cfi_sections	.debug_frame
  19              		.section	.text._ZN20MultiByteValueParser5ParseEPPhPt.part.0,"ax",%progbits
  20              		.align	2
  21              		.code	16
  22              		.thumb_func
  23              		.type	_ZN20MultiByteValueParser5ParseEPPhPt.part.0, %function
  24              	_ZN20MultiByteValueParser5ParseEPPhPt.part.0:
  25              		.fnstart
  26              	.LFB216:
  27              		.file 1 "parsetools.c"
   1:parsetools.c  **** /* Copyright (C) 2011 Circuits At Home, LTD. All rights reserved.
   2:parsetools.c  **** 
   3:parsetools.c  **** This software may be distributed and modified under the terms of the GNU
   4:parsetools.c  **** General Public License version 2 (GPL2) as published by the Free Software
   5:parsetools.c  **** Foundation and appearing in the file GPL2.TXT included in the packaging of
   6:parsetools.c  **** this file. Please note that GPL2 Section 2[b] requires that all works based
   7:parsetools.c  **** on this software must also be made publicly available under the terms of
   8:parsetools.c  **** the GPL2 ("Copyleft").
   9:parsetools.c  **** 
  10:parsetools.c  **** Contact information
  11:parsetools.c  **** -------------------
  12:parsetools.c  **** 
  13:parsetools.c  **** Circuits At Home, LTD
  14:parsetools.c  **** Web      :  http://www.circuitsathome.com
  15:parsetools.c  **** e-mail   :  support@circuitsathome.com
  16:parsetools.c  ****  */
  17:parsetools.c  **** #include "Usb.h"
  18:parsetools.c  **** 
  19:parsetools.c  **** bool MultiByteValueParser::Parse(uint8_t **pp, uint16_t *pcntdn) {
  28              		.loc 1 19 0
  29              		.cfi_startproc
  30              		@ args = 0, pretend = 0, frame = 0
  31              		@ frame_needed = 0, uses_anonymous_args = 0
  32              	.LVL0:
  33 0000 30B5     		push	{r4, r5, lr}
  34              		.cfi_def_cfa_offset 12
  35              		.cfi_offset 4, -12
  36              		.cfi_offset 5, -8
  37              		.cfi_offset 14, -4
  20:parsetools.c  ****         if(!pBuf) {
ARM GAS  C:\Users\jrdia\AppData\Local\Temp\ccwPaphc.s 			page 2


  21:parsetools.c  ****                 Notify(PSTR("Buffer pointer is NULL!\r\n"), 0x80);
  22:parsetools.c  ****                 return false;
  23:parsetools.c  ****         }
  24:parsetools.c  ****         for(; countDown && (*pcntdn); countDown--, (*pcntdn)--, (*pp)++)
  38              		.loc 1 24 0
  39 0002 0579     		ldrb	r5, [r0, #4]
  40 0004 002D     		cmp	r5, #0
  41 0006 18D0     		beq	.L2
  42 0008 1388     		ldrh	r3, [r2]
  43 000a 002B     		cmp	r3, #0
  44 000c 19D0     		beq	.L3
  45 000e 0C68     		ldr	r4, [r1]
  46 0010 01E0     		b	.L4
  47              	.L19:
  48 0012 002B     		cmp	r3, #0
  49 0014 15D0     		beq	.L3
  50              	.L4:
  25:parsetools.c  ****                 pBuf[valueSize - countDown] = (**pp);
  51              		.loc 1 25 0
  52 0016 4379     		ldrb	r3, [r0, #5]
  53 0018 2478     		ldrb	r4, [r4]
  54 001a 5B1B     		subs	r3, r3, r5
  55 001c 0568     		ldr	r5, [r0]
  56 001e EC54     		strb	r4, [r5, r3]
  24:parsetools.c  ****                 pBuf[valueSize - countDown] = (**pp);
  57              		.loc 1 24 0
  58 0020 0379     		ldrb	r3, [r0, #4]
  59 0022 013B     		subs	r3, r3, #1
  60 0024 0371     		strb	r3, [r0, #4]
  61 0026 1388     		ldrh	r3, [r2]
  62 0028 0C68     		ldr	r4, [r1]
  63 002a 013B     		subs	r3, r3, #1
  64 002c 9BB2     		uxth	r3, r3
  65 002e 0134     		adds	r4, r4, #1
  66 0030 1380     		strh	r3, [r2]
  67 0032 0C60     		str	r4, [r1]
  68 0034 0579     		ldrb	r5, [r0, #4]
  69 0036 002D     		cmp	r5, #0
  70 0038 EBD1     		bne	.L19
  71              	.L2:
  26:parsetools.c  **** 
  27:parsetools.c  ****         if(countDown)
  28:parsetools.c  ****                 return false;
  29:parsetools.c  **** 
  30:parsetools.c  ****         countDown = valueSize;
  72              		.loc 1 30 0
  73 003a 4379     		ldrb	r3, [r0, #5]
  74 003c 0371     		strb	r3, [r0, #4]
  31:parsetools.c  ****         return true;
  75              		.loc 1 31 0
  76 003e 0120     		movs	r0, #1
  77              	.LVL1:
  78              	.L20:
  32:parsetools.c  **** }
  79              		.loc 1 32 0
  80              		@ sp needed
  81 0040 30BD     		pop	{r4, r5, pc}
ARM GAS  C:\Users\jrdia\AppData\Local\Temp\ccwPaphc.s 			page 3


  82              	.LVL2:
  83              	.L3:
  28:parsetools.c  **** 
  84              		.loc 1 28 0
  85 0042 0020     		movs	r0, #0
  86              	.LVL3:
  87 0044 FCE7     		b	.L20
  88              		.cfi_endproc
  89              	.LFE216:
  90              		.cantunwind
  91              		.fnend
  92              		.size	_ZN20MultiByteValueParser5ParseEPPhPt.part.0, .-_ZN20MultiByteValueParser5ParseEPPhPt.part.0
  93 0046 C046     		.section	.text._ZN20MultiByteValueParser5ParseEPPhPt,"ax",%progbits
  94              		.align	2
  95              		.global	_ZN20MultiByteValueParser5ParseEPPhPt
  96              		.code	16
  97              		.thumb_func
  98              		.type	_ZN20MultiByteValueParser5ParseEPPhPt, %function
  99              	_ZN20MultiByteValueParser5ParseEPPhPt:
 100              		.fnstart
 101              	.LFB213:
  19:parsetools.c  ****         if(!pBuf) {
 102              		.loc 1 19 0
 103              		.cfi_startproc
 104              		@ args = 0, pretend = 0, frame = 0
 105              		@ frame_needed = 0, uses_anonymous_args = 0
 106              	.LVL4:
  20:parsetools.c  ****                 Notify(PSTR("Buffer pointer is NULL!\r\n"), 0x80);
 107              		.loc 1 20 0
 108 0000 0368     		ldr	r3, [r0]
  19:parsetools.c  ****         if(!pBuf) {
 109              		.loc 1 19 0
 110 0002 10B5     		push	{r4, lr}
 111              		.cfi_def_cfa_offset 8
 112              		.cfi_offset 4, -8
 113              		.cfi_offset 14, -4
  20:parsetools.c  ****                 Notify(PSTR("Buffer pointer is NULL!\r\n"), 0x80);
 114              		.loc 1 20 0
 115 0004 002B     		cmp	r3, #0
 116 0006 02D0     		beq	.L24
 117 0008 FFF7FEFF 		bl	_ZN20MultiByteValueParser5ParseEPPhPt.part.0
 118              	.LVL5:
 119              	.L23:
 120              		.loc 1 32 0
 121              		@ sp needed
 122 000c 10BD     		pop	{r4, pc}
 123              	.LVL6:
 124              	.L24:
  22:parsetools.c  ****         }
 125              		.loc 1 22 0
 126 000e 0020     		movs	r0, #0
 127              	.LVL7:
 128 0010 FCE7     		b	.L23
 129              		.cfi_endproc
 130              	.LFE213:
 131              		.cantunwind
 132              		.fnend
ARM GAS  C:\Users\jrdia\AppData\Local\Temp\ccwPaphc.s 			page 4


 133              		.size	_ZN20MultiByteValueParser5ParseEPPhPt, .-_ZN20MultiByteValueParser5ParseEPPhPt
 134 0012 C046     		.section	.text._ZN13PTPListParser5ParseEPPhPtPFvPK16MultiValueBuffermPKvES7_,"ax",%progbits
 135              		.align	2
 136              		.global	_ZN13PTPListParser5ParseEPPhPtPFvPK16MultiValueBuffermPKvES7_
 137              		.code	16
 138              		.thumb_func
 139              		.type	_ZN13PTPListParser5ParseEPPhPtPFvPK16MultiValueBuffermPKvES7_, %function
 140              	_ZN13PTPListParser5ParseEPPhPtPFvPK16MultiValueBuffermPKvES7_:
 141              		.fnstart
 142              	.LFB214:
  33:parsetools.c  **** 
  34:parsetools.c  **** bool PTPListParser::Parse(uint8_t **pp, uint16_t *pcntdn, PTP_ARRAY_EL_FUNC pf, const void *me) {
 143              		.loc 1 34 0
 144              		.cfi_startproc
 145              		@ args = 4, pretend = 0, frame = 0
 146              		@ frame_needed = 0, uses_anonymous_args = 0
 147              	.LVL8:
 148 0000 F0B5     		push	{r4, r5, r6, r7, lr}
 149              		.save {r4, r5, r6, r7, lr}
 150              		.cfi_def_cfa_offset 20
 151              		.cfi_offset 4, -20
 152              		.cfi_offset 5, -16
 153              		.cfi_offset 6, -12
 154              		.cfi_offset 7, -8
 155              		.cfi_offset 14, -4
 156 0002 4746     		mov	r7, r8
 157 0004 80B4     		push	{r7}
 158              		.save {r8}
 159              		.cfi_def_cfa_offset 24
 160              		.cfi_offset 8, -24
 161              		.loc 1 34 0
 162 0006 1D00     		movs	r5, r3
  35:parsetools.c  ****         switch(nStage) {
 163              		.loc 1 35 0
 164 0008 0378     		ldrb	r3, [r0]
 165              	.LVL9:
  34:parsetools.c  ****         switch(nStage) {
 166              		.loc 1 34 0
 167 000a 0400     		movs	r4, r0
 168 000c 0E00     		movs	r6, r1
 169 000e 1700     		movs	r7, r2
 170              		.loc 1 35 0
 171 0010 012B     		cmp	r3, #1
 172 0012 00D1     		bne	.LCB145
 173 0014 78E0     		b	.L27	@long jump
 174              	.LCB145:
 175 0016 002B     		cmp	r3, #0
 176 0018 41D0     		beq	.L28
 177 001a 022B     		cmp	r3, #2
 178 001c 05D0     		beq	.L29
 179 001e 032B     		cmp	r3, #3
 180 0020 17D0     		beq	.L30
  36:parsetools.c  ****                 case 0:
  37:parsetools.c  ****                         pBuf->valueSize = lenSize;
  38:parsetools.c  ****                         theParser.Initialize(pBuf);
  39:parsetools.c  ****                         nStage = 1;
  40:parsetools.c  **** 
ARM GAS  C:\Users\jrdia\AppData\Local\Temp\ccwPaphc.s 			page 5


  41:parsetools.c  ****                 case 1:
  42:parsetools.c  ****                         if(!theParser.Parse(pp, pcntdn))
  43:parsetools.c  ****                                 return false;
  44:parsetools.c  **** 
  45:parsetools.c  ****                         arLen = 0;
  46:parsetools.c  ****                         arLen = (pBuf->valueSize >= 4) ? *((uint32_t*)pBuf->pValue) : (uint32_t)(*(
  47:parsetools.c  ****                         arLenCntdn = arLen;
  48:parsetools.c  ****                         nStage = 2;
  49:parsetools.c  **** 
  50:parsetools.c  ****                 case 2:
  51:parsetools.c  ****                         pBuf->valueSize = valSize;
  52:parsetools.c  ****                         theParser.Initialize(pBuf);
  53:parsetools.c  ****                         nStage = 3;
  54:parsetools.c  **** 
  55:parsetools.c  ****                 case 3:
  56:parsetools.c  ****                         for(; arLenCntdn; arLenCntdn--) {
  57:parsetools.c  ****                                 if(!theParser.Parse(pp, pcntdn))
  58:parsetools.c  ****                                         return false;
  59:parsetools.c  **** 
  60:parsetools.c  ****                                 if(pf)
  61:parsetools.c  ****                                         pf(pBuf, (arLen - arLenCntdn), me);
  62:parsetools.c  ****                         }
  63:parsetools.c  **** 
  64:parsetools.c  ****                         nStage = 0;
  65:parsetools.c  ****         }
  66:parsetools.c  ****         return true;
 181              		.loc 1 66 0
 182 0022 0120     		movs	r0, #1
 183              	.LVL10:
 184              	.L26:
  67:parsetools.c  **** }
 185              		.loc 1 67 0
 186              		@ sp needed
 187              	.LVL11:
 188              	.LVL12:
 189              	.LVL13:
 190              	.LVL14:
 191 0024 04BC     		pop	{r2}
 192 0026 9046     		mov	r8, r2
 193 0028 F0BD     		pop	{r4, r5, r6, r7, pc}
 194              	.LVL15:
 195              	.L29:
 196 002a 0369     		ldr	r3, [r0, #16]
 197              	.LVL16:
 198              	.L31:
  51:parsetools.c  ****                         theParser.Initialize(pBuf);
 199              		.loc 1 51 0
 200 002c 627B     		ldrb	r2, [r4, #13]
 201 002e 1A70     		strb	r2, [r3]
  52:parsetools.c  ****                         nStage = 3;
 202              		.loc 1 52 0
 203 0030 2169     		ldr	r1, [r4, #16]
 204              	.LVL17:
 205              	.LBB10:
 206              	.LBB11:
 207              		.file 2 "parsetools.h"
   1:parsetools.h  **** /* Copyright (C) 2011 Circuits At Home, LTD. All rights reserved.
ARM GAS  C:\Users\jrdia\AppData\Local\Temp\ccwPaphc.s 			page 6


   2:parsetools.h  **** 
   3:parsetools.h  **** This software may be distributed and modified under the terms of the GNU
   4:parsetools.h  **** General Public License version 2 (GPL2) as published by the Free Software
   5:parsetools.h  **** Foundation and appearing in the file GPL2.TXT included in the packaging of
   6:parsetools.h  **** this file. Please note that GPL2 Section 2[b] requires that all works based
   7:parsetools.h  **** on this software must also be made publicly available under the terms of
   8:parsetools.h  **** the GPL2 ("Copyleft").
   9:parsetools.h  **** 
  10:parsetools.h  **** Contact information
  11:parsetools.h  **** -------------------
  12:parsetools.h  **** 
  13:parsetools.h  **** Circuits At Home, LTD
  14:parsetools.h  **** Web      :  http://www.circuitsathome.com
  15:parsetools.h  **** e-mail   :  support@circuitsathome.com
  16:parsetools.h  ****  */
  17:parsetools.h  **** 
  18:parsetools.h  **** #if !defined(_usb_h_) || defined(__PARSETOOLS_H__)
  19:parsetools.h  **** #error "Never include parsetools.h directly; include Usb.h instead"
  20:parsetools.h  **** #else
  21:parsetools.h  **** #define __PARSETOOLS_H__
  22:parsetools.h  **** 
  23:parsetools.h  **** struct MultiValueBuffer {
  24:parsetools.h  ****         uint8_t valueSize;
  25:parsetools.h  ****         void *pValue;
  26:parsetools.h  **** } __attribute__((packed));
  27:parsetools.h  **** 
  28:parsetools.h  **** class MultiByteValueParser {
  29:parsetools.h  ****         uint8_t * pBuf;
  30:parsetools.h  ****         uint8_t countDown;
  31:parsetools.h  ****         uint8_t valueSize;
  32:parsetools.h  **** 
  33:parsetools.h  **** public:
  34:parsetools.h  **** 
  35:parsetools.h  ****         MultiByteValueParser() : pBuf(NULL), countDown(0), valueSize(0) {
  36:parsetools.h  ****         };
  37:parsetools.h  **** 
  38:parsetools.h  ****         const uint8_t* GetBuffer() {
  39:parsetools.h  ****                 return pBuf;
  40:parsetools.h  ****         };
  41:parsetools.h  **** 
  42:parsetools.h  ****         void Initialize(MultiValueBuffer * const pbuf) {
  43:parsetools.h  ****                 pBuf = (uint8_t*)pbuf->pValue;
 208              		.loc 2 43 0
 209 0032 8A78     		ldrb	r2, [r1, #2]
 210 0034 4878     		ldrb	r0, [r1, #1]
 211 0036 CB78     		ldrb	r3, [r1, #3]
 212 0038 1202     		lsls	r2, r2, #8
 213 003a 1B04     		lsls	r3, r3, #16
 214 003c 0243     		orrs	r2, r0
 215 003e 1A43     		orrs	r2, r3
 216 0040 0B79     		ldrb	r3, [r1, #4]
 217 0042 1B06     		lsls	r3, r3, #24
 218 0044 1343     		orrs	r3, r2
 219 0046 6361     		str	r3, [r4, #20]
  44:parsetools.h  ****                 countDown = valueSize = pbuf->valueSize;
 220              		.loc 2 44 0
 221 0048 0B78     		ldrb	r3, [r1]
ARM GAS  C:\Users\jrdia\AppData\Local\Temp\ccwPaphc.s 			page 7


 222 004a 6376     		strb	r3, [r4, #25]
 223 004c 2376     		strb	r3, [r4, #24]
 224              	.LVL18:
 225              	.LBE11:
 226              	.LBE10:
  53:parsetools.c  **** 
 227              		.loc 1 53 0
 228 004e 0323     		movs	r3, #3
 229 0050 2370     		strb	r3, [r4]
 230              	.L30:
  56:parsetools.c  ****                                 if(!theParser.Parse(pp, pcntdn))
 231              		.loc 1 56 0 discriminator 1
 232 0052 A368     		ldr	r3, [r4, #8]
 233 0054 002B     		cmp	r3, #0
 234 0056 1ED0     		beq	.L40
  57:parsetools.c  ****                                         return false;
 235              		.loc 1 57 0
 236 0058 1423     		movs	r3, #20
 237 005a 9846     		mov	r8, r3
 238              	.LBB12:
 239              	.LBB13:
  20:parsetools.c  ****                 Notify(PSTR("Buffer pointer is NULL!\r\n"), 0x80);
 240              		.loc 1 20 0
 241 005c 6369     		ldr	r3, [r4, #20]
 242              	.LBE13:
 243              	.LBE12:
  57:parsetools.c  ****                                         return false;
 244              		.loc 1 57 0
 245 005e A044     		add	r8, r8, r4
 246              	.LVL19:
 247              	.LBB16:
 248              	.LBB14:
  20:parsetools.c  ****                 Notify(PSTR("Buffer pointer is NULL!\r\n"), 0x80);
 249              		.loc 1 20 0
 250 0060 002B     		cmp	r3, #0
 251 0062 16D0     		beq	.L34
 252              	.L38:
 253 0064 3A00     		movs	r2, r7
 254 0066 3100     		movs	r1, r6
 255 0068 4046     		mov	r0, r8
 256 006a FFF7FEFF 		bl	_ZN20MultiByteValueParser5ParseEPPhPt.part.0
 257              	.LVL20:
 258              	.LBE14:
 259              	.LBE16:
  57:parsetools.c  ****                                         return false;
 260              		.loc 1 57 0
 261 006e 0028     		cmp	r0, #0
 262 0070 0FD0     		beq	.L34
  60:parsetools.c  ****                                         pf(pBuf, (arLen - arLenCntdn), me);
 263              		.loc 1 60 0
 264 0072 002D     		cmp	r5, #0
 265 0074 05D0     		beq	.L39
  61:parsetools.c  ****                         }
 266              		.loc 1 61 0
 267 0076 A268     		ldr	r2, [r4, #8]
 268 0078 6368     		ldr	r3, [r4, #4]
 269 007a 2069     		ldr	r0, [r4, #16]
ARM GAS  C:\Users\jrdia\AppData\Local\Temp\ccwPaphc.s 			page 8


 270 007c 991A     		subs	r1, r3, r2
 271 007e 069A     		ldr	r2, [sp, #24]
 272 0080 A847     		blx	r5
 273              	.LVL21:
 274              	.L39:
  56:parsetools.c  ****                                 if(!theParser.Parse(pp, pcntdn))
 275              		.loc 1 56 0
 276 0082 A368     		ldr	r3, [r4, #8]
 277 0084 013B     		subs	r3, r3, #1
 278 0086 A360     		str	r3, [r4, #8]
 279 0088 002B     		cmp	r3, #0
 280 008a 04D0     		beq	.L40
 281              	.LVL22:
 282              	.LBB17:
 283              	.LBB15:
  20:parsetools.c  ****                 Notify(PSTR("Buffer pointer is NULL!\r\n"), 0x80);
 284              		.loc 1 20 0
 285 008c 6369     		ldr	r3, [r4, #20]
 286 008e 002B     		cmp	r3, #0
 287 0090 E8D1     		bne	.L38
 288              	.LVL23:
 289              	.L34:
 290              	.LBE15:
 291              	.LBE17:
  43:parsetools.c  **** 
 292              		.loc 1 43 0
 293 0092 0020     		movs	r0, #0
 294 0094 C6E7     		b	.L26
 295              	.L40:
  64:parsetools.c  ****         }
 296              		.loc 1 64 0
 297 0096 0023     		movs	r3, #0
  66:parsetools.c  **** }
 298              		.loc 1 66 0
 299 0098 0120     		movs	r0, #1
  64:parsetools.c  ****         }
 300              		.loc 1 64 0
 301 009a 2370     		strb	r3, [r4]
 302 009c C2E7     		b	.L26
 303              	.LVL24:
 304              	.L28:
  37:parsetools.c  ****                         theParser.Initialize(pBuf);
 305              		.loc 1 37 0
 306 009e 037B     		ldrb	r3, [r0, #12]
 307 00a0 0269     		ldr	r2, [r0, #16]
 308              	.LVL25:
 309 00a2 1370     		strb	r3, [r2]
  38:parsetools.c  ****                         nStage = 1;
 310              		.loc 1 38 0
 311 00a4 0169     		ldr	r1, [r0, #16]
 312              	.LVL26:
 313              	.LBB18:
 314              	.LBB19:
  43:parsetools.h  ****                 countDown = valueSize = pbuf->valueSize;
 315              		.loc 2 43 0
 316 00a6 8A78     		ldrb	r2, [r1, #2]
 317 00a8 4878     		ldrb	r0, [r1, #1]
ARM GAS  C:\Users\jrdia\AppData\Local\Temp\ccwPaphc.s 			page 9


 318              	.LVL27:
 319 00aa CB78     		ldrb	r3, [r1, #3]
 320 00ac 1202     		lsls	r2, r2, #8
 321 00ae 1B04     		lsls	r3, r3, #16
 322 00b0 0243     		orrs	r2, r0
 323 00b2 1A43     		orrs	r2, r3
 324 00b4 0B79     		ldrb	r3, [r1, #4]
 325 00b6 1B06     		lsls	r3, r3, #24
 326 00b8 1343     		orrs	r3, r2
 327 00ba 6361     		str	r3, [r4, #20]
 328              		.loc 2 44 0
 329 00bc 0A78     		ldrb	r2, [r1]
 330 00be 6276     		strb	r2, [r4, #25]
 331 00c0 2276     		strb	r2, [r4, #24]
 332              	.LVL28:
 333              	.LBE19:
 334              	.LBE18:
  39:parsetools.c  **** 
 335              		.loc 1 39 0
 336 00c2 0122     		movs	r2, #1
 337 00c4 2270     		strb	r2, [r4]
 338              	.L32:
 339              	.LVL29:
 340              	.LBB20:
 341              	.LBB21:
  20:parsetools.c  ****                 Notify(PSTR("Buffer pointer is NULL!\r\n"), 0x80);
 342              		.loc 1 20 0
 343 00c6 002B     		cmp	r3, #0
 344 00c8 E3D0     		beq	.L34
 345 00ca 2000     		movs	r0, r4
 346 00cc 3A00     		movs	r2, r7
 347 00ce 3100     		movs	r1, r6
 348 00d0 1430     		adds	r0, r0, #20
 349              	.LVL30:
 350 00d2 FFF7FEFF 		bl	_ZN20MultiByteValueParser5ParseEPPhPt.part.0
 351              	.LVL31:
 352              	.LBE21:
 353              	.LBE20:
  42:parsetools.c  ****                                 return false;
 354              		.loc 1 42 0
 355 00d6 0028     		cmp	r0, #0
 356 00d8 DBD0     		beq	.L34
  45:parsetools.c  ****                         arLen = (pBuf->valueSize >= 4) ? *((uint32_t*)pBuf->pValue) : (uint32_t)(*(
 357              		.loc 1 45 0
 358 00da 0023     		movs	r3, #0
 359 00dc 6360     		str	r3, [r4, #4]
  46:parsetools.c  ****                         arLenCntdn = arLen;
 360              		.loc 1 46 0
 361 00de 2369     		ldr	r3, [r4, #16]
 362 00e0 1A78     		ldrb	r2, [r3]
 363 00e2 032A     		cmp	r2, #3
 364 00e4 12D8     		bhi	.L67
  46:parsetools.c  ****                         arLenCntdn = arLen;
 365              		.loc 1 46 0 is_stmt 0 discriminator 2
 366 00e6 9978     		ldrb	r1, [r3, #2]
 367 00e8 5A78     		ldrb	r2, [r3, #1]
 368 00ea 0902     		lsls	r1, r1, #8
ARM GAS  C:\Users\jrdia\AppData\Local\Temp\ccwPaphc.s 			page 10


 369 00ec 1143     		orrs	r1, r2
 370 00ee DA78     		ldrb	r2, [r3, #3]
 371 00f0 1204     		lsls	r2, r2, #16
 372 00f2 0A43     		orrs	r2, r1
 373 00f4 1100     		movs	r1, r2
 374 00f6 1A79     		ldrb	r2, [r3, #4]
 375 00f8 1206     		lsls	r2, r2, #24
 376 00fa 0A43     		orrs	r2, r1
 377 00fc 1288     		ldrh	r2, [r2]
 378              	.L36:
  46:parsetools.c  ****                         arLenCntdn = arLen;
 379              		.loc 1 46 0 discriminator 4
 380 00fe 6260     		str	r2, [r4, #4]
  47:parsetools.c  ****                         nStage = 2;
 381              		.loc 1 47 0 is_stmt 1 discriminator 4
 382 0100 A260     		str	r2, [r4, #8]
  48:parsetools.c  **** 
 383              		.loc 1 48 0 discriminator 4
 384 0102 0222     		movs	r2, #2
 385 0104 2270     		strb	r2, [r4]
 386 0106 91E7     		b	.L31
 387              	.LVL32:
 388              	.L27:
 389 0108 4369     		ldr	r3, [r0, #20]
 390 010a DCE7     		b	.L32
 391              	.LVL33:
 392              	.L67:
  46:parsetools.c  ****                         arLenCntdn = arLen;
 393              		.loc 1 46 0 discriminator 1
 394 010c 9978     		ldrb	r1, [r3, #2]
 395 010e 5A78     		ldrb	r2, [r3, #1]
 396 0110 0902     		lsls	r1, r1, #8
 397 0112 1143     		orrs	r1, r2
 398 0114 DA78     		ldrb	r2, [r3, #3]
 399 0116 1204     		lsls	r2, r2, #16
 400 0118 0A43     		orrs	r2, r1
 401 011a 1100     		movs	r1, r2
 402 011c 1A79     		ldrb	r2, [r3, #4]
 403 011e 1206     		lsls	r2, r2, #24
 404 0120 0A43     		orrs	r2, r1
 405 0122 1268     		ldr	r2, [r2]
 406 0124 EBE7     		b	.L36
 407              		.cfi_endproc
 408              	.LFE214:
 409              		.fnend
 410              		.size	_ZN13PTPListParser5ParseEPPhPtPFvPK16MultiValueBuffermPKvES7_, .-_ZN13PTPListParser5ParseEPP
 411 0126 C046     		.text
 412              	.Letext0:
 413              		.file 3 "c:\\program files (x86)\\cypress\\psoc creator\\4.1\\psoc creator\\import\\gnu\\arm\\5.4.
 414              		.file 4 "c:\\program files (x86)\\cypress\\psoc creator\\4.1\\psoc creator\\import\\gnu\\arm\\5.4.
 415              		.file 5 "sink_parser.h"
 416              		.file 6 "avrpins.h"
 417              		.file 7 "./Stream.h"