ARM GAS  C:\Users\jrdia\AppData\Local\Temp\ccAscRNf.s 			page 1


   1              		.syntax unified
   2              		.cpu cortex-m0
   3              		.fpu softvfp
   4              		.eabi_attribute 20, 1
   5              		.eabi_attribute 21, 1
   6              		.eabi_attribute 23, 3
   7              		.eabi_attribute 24, 1
   8              		.eabi_attribute 25, 1
   9              		.eabi_attribute 26, 1
  10              		.eabi_attribute 30, 2
  11              		.eabi_attribute 34, 0
  12              		.eabi_attribute 18, 4
  13              		.thumb
  14              		.syntax unified
  15              		.file	"SPI.c"
  16              		.text
  17              	.Ltext0:
  18              		.cfi_sections	.debug_frame
  19              		.section	.text.SPI_Enable,"ax",%progbits
  20              		.align	2
  21              		.global	SPI_Enable
  22              		.code	16
  23              		.thumb_func
  24              		.type	SPI_Enable, %function
  25              	SPI_Enable:
  26              	.LFB1:
  27              		.file 1 "Generated_Source\\PSoC4\\SPI.c"
   1:Generated_Source\PSoC4/SPI.c **** /*******************************************************************************
   2:Generated_Source\PSoC4/SPI.c **** * File Name: SPI.c
   3:Generated_Source\PSoC4/SPI.c **** * Version 2.50
   4:Generated_Source\PSoC4/SPI.c **** *
   5:Generated_Source\PSoC4/SPI.c **** * Description:
   6:Generated_Source\PSoC4/SPI.c **** *  This file provides all API functionality of the SPI Master component.
   7:Generated_Source\PSoC4/SPI.c **** *
   8:Generated_Source\PSoC4/SPI.c **** * Note:
   9:Generated_Source\PSoC4/SPI.c **** *  None.
  10:Generated_Source\PSoC4/SPI.c **** *
  11:Generated_Source\PSoC4/SPI.c **** ********************************************************************************
  12:Generated_Source\PSoC4/SPI.c **** * Copyright 2008-2015, Cypress Semiconductor Corporation.  All rights reserved.
  13:Generated_Source\PSoC4/SPI.c **** * You may use this file only in accordance with the license, terms, conditions,
  14:Generated_Source\PSoC4/SPI.c **** * disclaimers, and limitations in the end user license agreement accompanying
  15:Generated_Source\PSoC4/SPI.c **** * the software package with which this file was provided.
  16:Generated_Source\PSoC4/SPI.c **** *******************************************************************************/
  17:Generated_Source\PSoC4/SPI.c **** 
  18:Generated_Source\PSoC4/SPI.c **** #include "SPI_PVT.h"
  19:Generated_Source\PSoC4/SPI.c **** 
  20:Generated_Source\PSoC4/SPI.c **** #if(SPI_TX_SOFTWARE_BUF_ENABLED)
  21:Generated_Source\PSoC4/SPI.c ****     volatile uint8 SPI_txBuffer[SPI_TX_BUFFER_SIZE];
  22:Generated_Source\PSoC4/SPI.c ****     volatile uint8 SPI_txBufferFull;
  23:Generated_Source\PSoC4/SPI.c ****     volatile uint8 SPI_txBufferRead;
  24:Generated_Source\PSoC4/SPI.c ****     volatile uint8 SPI_txBufferWrite;
  25:Generated_Source\PSoC4/SPI.c **** #endif /* (SPI_TX_SOFTWARE_BUF_ENABLED) */
  26:Generated_Source\PSoC4/SPI.c **** 
  27:Generated_Source\PSoC4/SPI.c **** #if(SPI_RX_SOFTWARE_BUF_ENABLED)
  28:Generated_Source\PSoC4/SPI.c ****     volatile uint8 SPI_rxBuffer[SPI_RX_BUFFER_SIZE];
  29:Generated_Source\PSoC4/SPI.c ****     volatile uint8 SPI_rxBufferFull;
  30:Generated_Source\PSoC4/SPI.c ****     volatile uint8 SPI_rxBufferRead;
ARM GAS  C:\Users\jrdia\AppData\Local\Temp\ccAscRNf.s 			page 2


  31:Generated_Source\PSoC4/SPI.c ****     volatile uint8 SPI_rxBufferWrite;
  32:Generated_Source\PSoC4/SPI.c **** #endif /* (SPI_RX_SOFTWARE_BUF_ENABLED) */
  33:Generated_Source\PSoC4/SPI.c **** 
  34:Generated_Source\PSoC4/SPI.c **** uint8 SPI_initVar = 0u;
  35:Generated_Source\PSoC4/SPI.c **** 
  36:Generated_Source\PSoC4/SPI.c **** volatile uint8 SPI_swStatusTx;
  37:Generated_Source\PSoC4/SPI.c **** volatile uint8 SPI_swStatusRx;
  38:Generated_Source\PSoC4/SPI.c **** 
  39:Generated_Source\PSoC4/SPI.c **** 
  40:Generated_Source\PSoC4/SPI.c **** /*******************************************************************************
  41:Generated_Source\PSoC4/SPI.c **** * Function Name: SPI_Init
  42:Generated_Source\PSoC4/SPI.c **** ********************************************************************************
  43:Generated_Source\PSoC4/SPI.c **** *
  44:Generated_Source\PSoC4/SPI.c **** * Summary:
  45:Generated_Source\PSoC4/SPI.c **** *  Inits/Restores default SPIM configuration provided with customizer.
  46:Generated_Source\PSoC4/SPI.c **** *
  47:Generated_Source\PSoC4/SPI.c **** * Parameters:
  48:Generated_Source\PSoC4/SPI.c **** *  None.
  49:Generated_Source\PSoC4/SPI.c **** *
  50:Generated_Source\PSoC4/SPI.c **** * Return:
  51:Generated_Source\PSoC4/SPI.c **** *  None.
  52:Generated_Source\PSoC4/SPI.c **** *
  53:Generated_Source\PSoC4/SPI.c **** * Side Effects:
  54:Generated_Source\PSoC4/SPI.c **** *  When this function is called it initializes all of the necessary parameters
  55:Generated_Source\PSoC4/SPI.c **** *  for execution. i.e. setting the initial interrupt mask, configuring the
  56:Generated_Source\PSoC4/SPI.c **** *  interrupt service routine, configuring the bit-counter parameters and
  57:Generated_Source\PSoC4/SPI.c **** *  clearing the FIFO and Status Register.
  58:Generated_Source\PSoC4/SPI.c **** *
  59:Generated_Source\PSoC4/SPI.c **** * Reentrant:
  60:Generated_Source\PSoC4/SPI.c **** *  No.
  61:Generated_Source\PSoC4/SPI.c **** *
  62:Generated_Source\PSoC4/SPI.c **** *******************************************************************************/
  63:Generated_Source\PSoC4/SPI.c **** void SPI_Init(void) 
  64:Generated_Source\PSoC4/SPI.c **** {
  65:Generated_Source\PSoC4/SPI.c ****     /* Initialize the Bit counter */
  66:Generated_Source\PSoC4/SPI.c ****     SPI_COUNTER_PERIOD_REG = SPI_BITCTR_INIT;
  67:Generated_Source\PSoC4/SPI.c **** 
  68:Generated_Source\PSoC4/SPI.c ****     /* Init TX ISR  */
  69:Generated_Source\PSoC4/SPI.c ****     #if(0u != SPI_INTERNAL_TX_INT_ENABLED)
  70:Generated_Source\PSoC4/SPI.c ****         CyIntDisable         (SPI_TX_ISR_NUMBER);
  71:Generated_Source\PSoC4/SPI.c ****         CyIntSetPriority     (SPI_TX_ISR_NUMBER,  SPI_TX_ISR_PRIORITY);
  72:Generated_Source\PSoC4/SPI.c ****         (void) CyIntSetVector(SPI_TX_ISR_NUMBER, &SPI_TX_ISR);
  73:Generated_Source\PSoC4/SPI.c ****     #endif /* (0u != SPI_INTERNAL_TX_INT_ENABLED) */
  74:Generated_Source\PSoC4/SPI.c **** 
  75:Generated_Source\PSoC4/SPI.c ****     /* Init RX ISR  */
  76:Generated_Source\PSoC4/SPI.c ****     #if(0u != SPI_INTERNAL_RX_INT_ENABLED)
  77:Generated_Source\PSoC4/SPI.c ****         CyIntDisable         (SPI_RX_ISR_NUMBER);
  78:Generated_Source\PSoC4/SPI.c ****         CyIntSetPriority     (SPI_RX_ISR_NUMBER,  SPI_RX_ISR_PRIORITY);
  79:Generated_Source\PSoC4/SPI.c ****         (void) CyIntSetVector(SPI_RX_ISR_NUMBER, &SPI_RX_ISR);
  80:Generated_Source\PSoC4/SPI.c ****     #endif /* (0u != SPI_INTERNAL_RX_INT_ENABLED) */
  81:Generated_Source\PSoC4/SPI.c **** 
  82:Generated_Source\PSoC4/SPI.c ****     /* Clear any stray data from the RX and TX FIFO */
  83:Generated_Source\PSoC4/SPI.c ****     SPI_ClearFIFO();
  84:Generated_Source\PSoC4/SPI.c **** 
  85:Generated_Source\PSoC4/SPI.c ****     #if(SPI_RX_SOFTWARE_BUF_ENABLED)
  86:Generated_Source\PSoC4/SPI.c ****         SPI_rxBufferFull  = 0u;
  87:Generated_Source\PSoC4/SPI.c ****         SPI_rxBufferRead  = 0u;
ARM GAS  C:\Users\jrdia\AppData\Local\Temp\ccAscRNf.s 			page 3


  88:Generated_Source\PSoC4/SPI.c ****         SPI_rxBufferWrite = 0u;
  89:Generated_Source\PSoC4/SPI.c ****     #endif /* (SPI_RX_SOFTWARE_BUF_ENABLED) */
  90:Generated_Source\PSoC4/SPI.c **** 
  91:Generated_Source\PSoC4/SPI.c ****     #if(SPI_TX_SOFTWARE_BUF_ENABLED)
  92:Generated_Source\PSoC4/SPI.c ****         SPI_txBufferFull  = 0u;
  93:Generated_Source\PSoC4/SPI.c ****         SPI_txBufferRead  = 0u;
  94:Generated_Source\PSoC4/SPI.c ****         SPI_txBufferWrite = 0u;
  95:Generated_Source\PSoC4/SPI.c ****     #endif /* (SPI_TX_SOFTWARE_BUF_ENABLED) */
  96:Generated_Source\PSoC4/SPI.c **** 
  97:Generated_Source\PSoC4/SPI.c ****     (void) SPI_ReadTxStatus(); /* Clear Tx status and swStatusTx */
  98:Generated_Source\PSoC4/SPI.c ****     (void) SPI_ReadRxStatus(); /* Clear Rx status and swStatusRx */
  99:Generated_Source\PSoC4/SPI.c **** 
 100:Generated_Source\PSoC4/SPI.c ****     /* Configure TX and RX interrupt mask */
 101:Generated_Source\PSoC4/SPI.c ****     SPI_TX_STATUS_MASK_REG = SPI_TX_INIT_INTERRUPTS_MASK;
 102:Generated_Source\PSoC4/SPI.c ****     SPI_RX_STATUS_MASK_REG = SPI_RX_INIT_INTERRUPTS_MASK;
 103:Generated_Source\PSoC4/SPI.c **** }
 104:Generated_Source\PSoC4/SPI.c **** 
 105:Generated_Source\PSoC4/SPI.c **** 
 106:Generated_Source\PSoC4/SPI.c **** /*******************************************************************************
 107:Generated_Source\PSoC4/SPI.c **** * Function Name: SPI_Enable
 108:Generated_Source\PSoC4/SPI.c **** ********************************************************************************
 109:Generated_Source\PSoC4/SPI.c **** *
 110:Generated_Source\PSoC4/SPI.c **** * Summary:
 111:Generated_Source\PSoC4/SPI.c **** *  Enable SPIM component.
 112:Generated_Source\PSoC4/SPI.c **** *
 113:Generated_Source\PSoC4/SPI.c **** * Parameters:
 114:Generated_Source\PSoC4/SPI.c **** *  None.
 115:Generated_Source\PSoC4/SPI.c **** *
 116:Generated_Source\PSoC4/SPI.c **** * Return:
 117:Generated_Source\PSoC4/SPI.c **** *  None.
 118:Generated_Source\PSoC4/SPI.c **** *
 119:Generated_Source\PSoC4/SPI.c **** *******************************************************************************/
 120:Generated_Source\PSoC4/SPI.c **** void SPI_Enable(void) 
 121:Generated_Source\PSoC4/SPI.c **** {
  28              		.loc 1 121 0
  29              		.cfi_startproc
  30              		@ args = 0, pretend = 0, frame = 0
  31              		@ frame_needed = 0, uses_anonymous_args = 0
  32 0000 10B5     		push	{r4, lr}
  33              		.cfi_def_cfa_offset 8
  34              		.cfi_offset 4, -8
  35              		.cfi_offset 14, -4
 122:Generated_Source\PSoC4/SPI.c ****     uint8 enableInterrupts;
 123:Generated_Source\PSoC4/SPI.c **** 
 124:Generated_Source\PSoC4/SPI.c ****     enableInterrupts = CyEnterCriticalSection();
  36              		.loc 1 124 0
  37 0002 FFF7FEFF 		bl	CyEnterCriticalSection
  38              	.LVL0:
 125:Generated_Source\PSoC4/SPI.c ****     SPI_COUNTER_CONTROL_REG |= SPI_CNTR_ENABLE;
  39              		.loc 1 125 0
  40 0006 2023     		movs	r3, #32
  41 0008 084A     		ldr	r2, .L2
 126:Generated_Source\PSoC4/SPI.c ****     SPI_TX_STATUS_ACTL_REG  |= SPI_INT_ENABLE;
 127:Generated_Source\PSoC4/SPI.c ****     SPI_RX_STATUS_ACTL_REG  |= SPI_INT_ENABLE;
 128:Generated_Source\PSoC4/SPI.c ****     CyExitCriticalSection(enableInterrupts);
 129:Generated_Source\PSoC4/SPI.c **** 
 130:Generated_Source\PSoC4/SPI.c ****     #if(0u != SPI_INTERNAL_CLOCK)
ARM GAS  C:\Users\jrdia\AppData\Local\Temp\ccAscRNf.s 			page 4


 131:Generated_Source\PSoC4/SPI.c ****         SPI_IntClock_Enable();
 132:Generated_Source\PSoC4/SPI.c ****     #endif /* (0u != SPI_INTERNAL_CLOCK) */
 133:Generated_Source\PSoC4/SPI.c **** 
 134:Generated_Source\PSoC4/SPI.c ****     SPI_EnableTxInt();
 135:Generated_Source\PSoC4/SPI.c ****     SPI_EnableRxInt();
 136:Generated_Source\PSoC4/SPI.c **** }
  42              		.loc 1 136 0
  43              		@ sp needed
 125:Generated_Source\PSoC4/SPI.c ****     SPI_COUNTER_CONTROL_REG |= SPI_CNTR_ENABLE;
  44              		.loc 1 125 0
  45 000a 1178     		ldrb	r1, [r2]
  46 000c 0B43     		orrs	r3, r1
  47 000e 1370     		strb	r3, [r2]
 126:Generated_Source\PSoC4/SPI.c ****     SPI_TX_STATUS_ACTL_REG  |= SPI_INT_ENABLE;
  48              		.loc 1 126 0
  49 0010 1023     		movs	r3, #16
  50 0012 0749     		ldr	r1, .L2+4
  51 0014 0A78     		ldrb	r2, [r1]
  52 0016 1A43     		orrs	r2, r3
  53 0018 D2B2     		uxtb	r2, r2
  54 001a 0A70     		strb	r2, [r1]
 127:Generated_Source\PSoC4/SPI.c ****     CyExitCriticalSection(enableInterrupts);
  55              		.loc 1 127 0
  56 001c 054A     		ldr	r2, .L2+8
  57 001e 1178     		ldrb	r1, [r2]
  58 0020 0B43     		orrs	r3, r1
  59 0022 DBB2     		uxtb	r3, r3
  60 0024 1370     		strb	r3, [r2]
 128:Generated_Source\PSoC4/SPI.c **** 
  61              		.loc 1 128 0
  62 0026 FFF7FEFF 		bl	CyExitCriticalSection
  63              	.LVL1:
  64              		.loc 1 136 0
  65 002a 10BD     		pop	{r4, pc}
  66              	.L3:
  67              		.align	2
  68              	.L2:
  69 002c 93000F40 		.word	1074725011
  70 0030 92000F40 		.word	1074725010
  71 0034 90000F40 		.word	1074725008
  72              		.cfi_endproc
  73              	.LFE1:
  74              		.size	SPI_Enable, .-SPI_Enable
  75              		.section	.text.SPI_Stop,"ax",%progbits
  76              		.align	2
  77              		.global	SPI_Stop
  78              		.code	16
  79              		.thumb_func
  80              		.type	SPI_Stop, %function
  81              	SPI_Stop:
  82              	.LFB3:
 137:Generated_Source\PSoC4/SPI.c **** 
 138:Generated_Source\PSoC4/SPI.c **** 
 139:Generated_Source\PSoC4/SPI.c **** /*******************************************************************************
 140:Generated_Source\PSoC4/SPI.c **** * Function Name: SPI_Start
 141:Generated_Source\PSoC4/SPI.c **** ********************************************************************************
 142:Generated_Source\PSoC4/SPI.c **** *
ARM GAS  C:\Users\jrdia\AppData\Local\Temp\ccAscRNf.s 			page 5


 143:Generated_Source\PSoC4/SPI.c **** * Summary:
 144:Generated_Source\PSoC4/SPI.c **** *  Initialize and Enable the SPI Master component.
 145:Generated_Source\PSoC4/SPI.c **** *
 146:Generated_Source\PSoC4/SPI.c **** * Parameters:
 147:Generated_Source\PSoC4/SPI.c **** *  None.
 148:Generated_Source\PSoC4/SPI.c **** *
 149:Generated_Source\PSoC4/SPI.c **** * Return:
 150:Generated_Source\PSoC4/SPI.c **** *  None.
 151:Generated_Source\PSoC4/SPI.c **** *
 152:Generated_Source\PSoC4/SPI.c **** * Global variables:
 153:Generated_Source\PSoC4/SPI.c **** *  SPI_initVar - used to check initial configuration, modified on
 154:Generated_Source\PSoC4/SPI.c **** *  first function call.
 155:Generated_Source\PSoC4/SPI.c **** *
 156:Generated_Source\PSoC4/SPI.c **** * Theory:
 157:Generated_Source\PSoC4/SPI.c **** *  Enable the clock input to enable operation.
 158:Generated_Source\PSoC4/SPI.c **** *
 159:Generated_Source\PSoC4/SPI.c **** * Reentrant:
 160:Generated_Source\PSoC4/SPI.c **** *  No.
 161:Generated_Source\PSoC4/SPI.c **** *
 162:Generated_Source\PSoC4/SPI.c **** *******************************************************************************/
 163:Generated_Source\PSoC4/SPI.c **** void SPI_Start(void) 
 164:Generated_Source\PSoC4/SPI.c **** {
 165:Generated_Source\PSoC4/SPI.c ****     if(0u == SPI_initVar)
 166:Generated_Source\PSoC4/SPI.c ****     {
 167:Generated_Source\PSoC4/SPI.c ****         SPI_Init();
 168:Generated_Source\PSoC4/SPI.c ****         SPI_initVar = 1u;
 169:Generated_Source\PSoC4/SPI.c ****     }
 170:Generated_Source\PSoC4/SPI.c **** 
 171:Generated_Source\PSoC4/SPI.c ****     SPI_Enable();
 172:Generated_Source\PSoC4/SPI.c **** }
 173:Generated_Source\PSoC4/SPI.c **** 
 174:Generated_Source\PSoC4/SPI.c **** 
 175:Generated_Source\PSoC4/SPI.c **** /*******************************************************************************
 176:Generated_Source\PSoC4/SPI.c **** * Function Name: SPI_Stop
 177:Generated_Source\PSoC4/SPI.c **** ********************************************************************************
 178:Generated_Source\PSoC4/SPI.c **** *
 179:Generated_Source\PSoC4/SPI.c **** * Summary:
 180:Generated_Source\PSoC4/SPI.c **** *  Disable the SPI Master component.
 181:Generated_Source\PSoC4/SPI.c **** *
 182:Generated_Source\PSoC4/SPI.c **** * Parameters:
 183:Generated_Source\PSoC4/SPI.c **** *  None.
 184:Generated_Source\PSoC4/SPI.c **** *
 185:Generated_Source\PSoC4/SPI.c **** * Return:
 186:Generated_Source\PSoC4/SPI.c **** *  None.
 187:Generated_Source\PSoC4/SPI.c **** *
 188:Generated_Source\PSoC4/SPI.c **** * Theory:
 189:Generated_Source\PSoC4/SPI.c **** *  Disable the clock input to enable operation.
 190:Generated_Source\PSoC4/SPI.c **** *
 191:Generated_Source\PSoC4/SPI.c **** *******************************************************************************/
 192:Generated_Source\PSoC4/SPI.c **** void SPI_Stop(void) 
 193:Generated_Source\PSoC4/SPI.c **** {
  83              		.loc 1 193 0
  84              		.cfi_startproc
  85              		@ args = 0, pretend = 0, frame = 0
  86              		@ frame_needed = 0, uses_anonymous_args = 0
  87 0000 10B5     		push	{r4, lr}
  88              		.cfi_def_cfa_offset 8
ARM GAS  C:\Users\jrdia\AppData\Local\Temp\ccAscRNf.s 			page 6


  89              		.cfi_offset 4, -8
  90              		.cfi_offset 14, -4
 194:Generated_Source\PSoC4/SPI.c ****     uint8 enableInterrupts;
 195:Generated_Source\PSoC4/SPI.c **** 
 196:Generated_Source\PSoC4/SPI.c ****     enableInterrupts = CyEnterCriticalSection();
  91              		.loc 1 196 0
  92 0002 FFF7FEFF 		bl	CyEnterCriticalSection
  93              	.LVL2:
 197:Generated_Source\PSoC4/SPI.c ****     SPI_TX_STATUS_ACTL_REG &= ((uint8) ~SPI_INT_ENABLE);
  94              		.loc 1 197 0
  95 0006 1021     		movs	r1, #16
  96 0008 054A     		ldr	r2, .L5
 198:Generated_Source\PSoC4/SPI.c ****     SPI_RX_STATUS_ACTL_REG &= ((uint8) ~SPI_INT_ENABLE);
 199:Generated_Source\PSoC4/SPI.c ****     CyExitCriticalSection(enableInterrupts);
 200:Generated_Source\PSoC4/SPI.c **** 
 201:Generated_Source\PSoC4/SPI.c ****     #if(0u != SPI_INTERNAL_CLOCK)
 202:Generated_Source\PSoC4/SPI.c ****         SPI_IntClock_Disable();
 203:Generated_Source\PSoC4/SPI.c ****     #endif /* (0u != SPI_INTERNAL_CLOCK) */
 204:Generated_Source\PSoC4/SPI.c **** 
 205:Generated_Source\PSoC4/SPI.c ****     SPI_DisableTxInt();
 206:Generated_Source\PSoC4/SPI.c ****     SPI_DisableRxInt();
 207:Generated_Source\PSoC4/SPI.c **** }
  97              		.loc 1 207 0
  98              		@ sp needed
 197:Generated_Source\PSoC4/SPI.c ****     SPI_TX_STATUS_ACTL_REG &= ((uint8) ~SPI_INT_ENABLE);
  99              		.loc 1 197 0
 100 000a 1378     		ldrb	r3, [r2]
 101 000c 8B43     		bics	r3, r1
 102 000e 1370     		strb	r3, [r2]
 198:Generated_Source\PSoC4/SPI.c ****     SPI_RX_STATUS_ACTL_REG &= ((uint8) ~SPI_INT_ENABLE);
 103              		.loc 1 198 0
 104 0010 044A     		ldr	r2, .L5+4
 105 0012 1378     		ldrb	r3, [r2]
 106 0014 8B43     		bics	r3, r1
 107 0016 1370     		strb	r3, [r2]
 199:Generated_Source\PSoC4/SPI.c **** 
 108              		.loc 1 199 0
 109 0018 FFF7FEFF 		bl	CyExitCriticalSection
 110              	.LVL3:
 111              		.loc 1 207 0
 112 001c 10BD     		pop	{r4, pc}
 113              	.L6:
 114 001e C046     		.align	2
 115              	.L5:
 116 0020 92000F40 		.word	1074725010
 117 0024 90000F40 		.word	1074725008
 118              		.cfi_endproc
 119              	.LFE3:
 120              		.size	SPI_Stop, .-SPI_Stop
 121              		.section	.text.SPI_EnableTxInt,"ax",%progbits
 122              		.align	2
 123              		.global	SPI_EnableTxInt
 124              		.code	16
 125              		.thumb_func
 126              		.type	SPI_EnableTxInt, %function
 127              	SPI_EnableTxInt:
 128              	.LFB33:
ARM GAS  C:\Users\jrdia\AppData\Local\Temp\ccAscRNf.s 			page 7


 129              		.cfi_startproc
 130              		@ args = 0, pretend = 0, frame = 0
 131              		@ frame_needed = 0, uses_anonymous_args = 0
 132              		@ link register save eliminated.
 133              		@ sp needed
 134 0000 7047     		bx	lr
 135              		.cfi_endproc
 136              	.LFE33:
 137              		.size	SPI_EnableTxInt, .-SPI_EnableTxInt
 138 0002 C046     		.section	.text.SPI_EnableRxInt,"ax",%progbits
 139              		.align	2
 140              		.global	SPI_EnableRxInt
 141              		.code	16
 142              		.thumb_func
 143              		.type	SPI_EnableRxInt, %function
 144              	SPI_EnableRxInt:
 145              	.LFB31:
 146              		.cfi_startproc
 147              		@ args = 0, pretend = 0, frame = 0
 148              		@ frame_needed = 0, uses_anonymous_args = 0
 149              		@ link register save eliminated.
 150              		@ sp needed
 151 0000 7047     		bx	lr
 152              		.cfi_endproc
 153              	.LFE31:
 154              		.size	SPI_EnableRxInt, .-SPI_EnableRxInt
 155 0002 C046     		.section	.text.SPI_DisableTxInt,"ax",%progbits
 156              		.align	2
 157              		.global	SPI_DisableTxInt
 158              		.code	16
 159              		.thumb_func
 160              		.type	SPI_DisableTxInt, %function
 161              	SPI_DisableTxInt:
 162              	.LFB29:
 163              		.cfi_startproc
 164              		@ args = 0, pretend = 0, frame = 0
 165              		@ frame_needed = 0, uses_anonymous_args = 0
 166              		@ link register save eliminated.
 167              		@ sp needed
 168 0000 7047     		bx	lr
 169              		.cfi_endproc
 170              	.LFE29:
 171              		.size	SPI_DisableTxInt, .-SPI_DisableTxInt
 172 0002 C046     		.section	.text.SPI_DisableRxInt,"ax",%progbits
 173              		.align	2
 174              		.global	SPI_DisableRxInt
 175              		.code	16
 176              		.thumb_func
 177              		.type	SPI_DisableRxInt, %function
 178              	SPI_DisableRxInt:
 179              	.LFB27:
 180              		.cfi_startproc
 181              		@ args = 0, pretend = 0, frame = 0
 182              		@ frame_needed = 0, uses_anonymous_args = 0
 183              		@ link register save eliminated.
 184              		@ sp needed
 185 0000 7047     		bx	lr
ARM GAS  C:\Users\jrdia\AppData\Local\Temp\ccAscRNf.s 			page 8


 186              		.cfi_endproc
 187              	.LFE27:
 188              		.size	SPI_DisableRxInt, .-SPI_DisableRxInt
 189 0002 C046     		.section	.text.SPI_SetTxInterruptMode,"ax",%progbits
 190              		.align	2
 191              		.global	SPI_SetTxInterruptMode
 192              		.code	16
 193              		.thumb_func
 194              		.type	SPI_SetTxInterruptMode, %function
 195              	SPI_SetTxInterruptMode:
 196              	.LFB8:
 208:Generated_Source\PSoC4/SPI.c **** 
 209:Generated_Source\PSoC4/SPI.c **** 
 210:Generated_Source\PSoC4/SPI.c **** /*******************************************************************************
 211:Generated_Source\PSoC4/SPI.c **** * Function Name: SPI_EnableTxInt
 212:Generated_Source\PSoC4/SPI.c **** ********************************************************************************
 213:Generated_Source\PSoC4/SPI.c **** *
 214:Generated_Source\PSoC4/SPI.c **** * Summary:
 215:Generated_Source\PSoC4/SPI.c **** *  Enable internal Tx interrupt generation.
 216:Generated_Source\PSoC4/SPI.c **** *
 217:Generated_Source\PSoC4/SPI.c **** * Parameters:
 218:Generated_Source\PSoC4/SPI.c **** *  None.
 219:Generated_Source\PSoC4/SPI.c **** *
 220:Generated_Source\PSoC4/SPI.c **** * Return:
 221:Generated_Source\PSoC4/SPI.c **** *  None.
 222:Generated_Source\PSoC4/SPI.c **** *
 223:Generated_Source\PSoC4/SPI.c **** * Theory:
 224:Generated_Source\PSoC4/SPI.c **** *  Enable the internal Tx interrupt output -or- the interrupt component itself.
 225:Generated_Source\PSoC4/SPI.c **** *
 226:Generated_Source\PSoC4/SPI.c **** *******************************************************************************/
 227:Generated_Source\PSoC4/SPI.c **** void SPI_EnableTxInt(void) 
 228:Generated_Source\PSoC4/SPI.c **** {
 229:Generated_Source\PSoC4/SPI.c ****     #if(0u != SPI_INTERNAL_TX_INT_ENABLED)
 230:Generated_Source\PSoC4/SPI.c ****         CyIntEnable(SPI_TX_ISR_NUMBER);
 231:Generated_Source\PSoC4/SPI.c ****     #endif /* (0u != SPI_INTERNAL_TX_INT_ENABLED) */
 232:Generated_Source\PSoC4/SPI.c **** }
 233:Generated_Source\PSoC4/SPI.c **** 
 234:Generated_Source\PSoC4/SPI.c **** 
 235:Generated_Source\PSoC4/SPI.c **** /*******************************************************************************
 236:Generated_Source\PSoC4/SPI.c **** * Function Name: SPI_EnableRxInt
 237:Generated_Source\PSoC4/SPI.c **** ********************************************************************************
 238:Generated_Source\PSoC4/SPI.c **** *
 239:Generated_Source\PSoC4/SPI.c **** * Summary:
 240:Generated_Source\PSoC4/SPI.c **** *  Enable internal Rx interrupt generation.
 241:Generated_Source\PSoC4/SPI.c **** *
 242:Generated_Source\PSoC4/SPI.c **** * Parameters:
 243:Generated_Source\PSoC4/SPI.c **** *  None.
 244:Generated_Source\PSoC4/SPI.c **** *
 245:Generated_Source\PSoC4/SPI.c **** * Return:
 246:Generated_Source\PSoC4/SPI.c **** *  None.
 247:Generated_Source\PSoC4/SPI.c **** *
 248:Generated_Source\PSoC4/SPI.c **** * Theory:
 249:Generated_Source\PSoC4/SPI.c **** *  Enable the internal Rx interrupt output -or- the interrupt component itself.
 250:Generated_Source\PSoC4/SPI.c **** *
 251:Generated_Source\PSoC4/SPI.c **** *******************************************************************************/
 252:Generated_Source\PSoC4/SPI.c **** void SPI_EnableRxInt(void) 
 253:Generated_Source\PSoC4/SPI.c **** {
ARM GAS  C:\Users\jrdia\AppData\Local\Temp\ccAscRNf.s 			page 9


 254:Generated_Source\PSoC4/SPI.c ****     #if(0u != SPI_INTERNAL_RX_INT_ENABLED)
 255:Generated_Source\PSoC4/SPI.c ****         CyIntEnable(SPI_RX_ISR_NUMBER);
 256:Generated_Source\PSoC4/SPI.c ****     #endif /* (0u != SPI_INTERNAL_RX_INT_ENABLED) */
 257:Generated_Source\PSoC4/SPI.c **** }
 258:Generated_Source\PSoC4/SPI.c **** 
 259:Generated_Source\PSoC4/SPI.c **** 
 260:Generated_Source\PSoC4/SPI.c **** /*******************************************************************************
 261:Generated_Source\PSoC4/SPI.c **** * Function Name: SPI_DisableTxInt
 262:Generated_Source\PSoC4/SPI.c **** ********************************************************************************
 263:Generated_Source\PSoC4/SPI.c **** *
 264:Generated_Source\PSoC4/SPI.c **** * Summary:
 265:Generated_Source\PSoC4/SPI.c **** *  Disable internal Tx interrupt generation.
 266:Generated_Source\PSoC4/SPI.c **** *
 267:Generated_Source\PSoC4/SPI.c **** * Parameters:
 268:Generated_Source\PSoC4/SPI.c **** *  None.
 269:Generated_Source\PSoC4/SPI.c **** *
 270:Generated_Source\PSoC4/SPI.c **** * Return:
 271:Generated_Source\PSoC4/SPI.c **** *  None.
 272:Generated_Source\PSoC4/SPI.c **** *
 273:Generated_Source\PSoC4/SPI.c **** * Theory:
 274:Generated_Source\PSoC4/SPI.c **** *  Disable the internal Tx interrupt output -or- the interrupt component itself.
 275:Generated_Source\PSoC4/SPI.c **** *
 276:Generated_Source\PSoC4/SPI.c **** *******************************************************************************/
 277:Generated_Source\PSoC4/SPI.c **** void SPI_DisableTxInt(void) 
 278:Generated_Source\PSoC4/SPI.c **** {
 279:Generated_Source\PSoC4/SPI.c ****     #if(0u != SPI_INTERNAL_TX_INT_ENABLED)
 280:Generated_Source\PSoC4/SPI.c ****         CyIntDisable(SPI_TX_ISR_NUMBER);
 281:Generated_Source\PSoC4/SPI.c ****     #endif /* (0u != SPI_INTERNAL_TX_INT_ENABLED) */
 282:Generated_Source\PSoC4/SPI.c **** }
 283:Generated_Source\PSoC4/SPI.c **** 
 284:Generated_Source\PSoC4/SPI.c **** 
 285:Generated_Source\PSoC4/SPI.c **** /*******************************************************************************
 286:Generated_Source\PSoC4/SPI.c **** * Function Name: SPI_DisableRxInt
 287:Generated_Source\PSoC4/SPI.c **** ********************************************************************************
 288:Generated_Source\PSoC4/SPI.c **** *
 289:Generated_Source\PSoC4/SPI.c **** * Summary:
 290:Generated_Source\PSoC4/SPI.c **** *  Disable internal Rx interrupt generation.
 291:Generated_Source\PSoC4/SPI.c **** *
 292:Generated_Source\PSoC4/SPI.c **** * Parameters:
 293:Generated_Source\PSoC4/SPI.c **** *  None.
 294:Generated_Source\PSoC4/SPI.c **** *
 295:Generated_Source\PSoC4/SPI.c **** * Return:
 296:Generated_Source\PSoC4/SPI.c **** *  None.
 297:Generated_Source\PSoC4/SPI.c **** *
 298:Generated_Source\PSoC4/SPI.c **** * Theory:
 299:Generated_Source\PSoC4/SPI.c **** *  Disable the internal Rx interrupt output -or- the interrupt component itself.
 300:Generated_Source\PSoC4/SPI.c **** *
 301:Generated_Source\PSoC4/SPI.c **** *******************************************************************************/
 302:Generated_Source\PSoC4/SPI.c **** void SPI_DisableRxInt(void) 
 303:Generated_Source\PSoC4/SPI.c **** {
 304:Generated_Source\PSoC4/SPI.c ****     #if(0u != SPI_INTERNAL_RX_INT_ENABLED)
 305:Generated_Source\PSoC4/SPI.c ****         CyIntDisable(SPI_RX_ISR_NUMBER);
 306:Generated_Source\PSoC4/SPI.c ****     #endif /* (0u != SPI_INTERNAL_RX_INT_ENABLED) */
 307:Generated_Source\PSoC4/SPI.c **** }
 308:Generated_Source\PSoC4/SPI.c **** 
 309:Generated_Source\PSoC4/SPI.c **** 
 310:Generated_Source\PSoC4/SPI.c **** /*******************************************************************************
ARM GAS  C:\Users\jrdia\AppData\Local\Temp\ccAscRNf.s 			page 10


 311:Generated_Source\PSoC4/SPI.c **** * Function Name: SPI_SetTxInterruptMode
 312:Generated_Source\PSoC4/SPI.c **** ********************************************************************************
 313:Generated_Source\PSoC4/SPI.c **** *
 314:Generated_Source\PSoC4/SPI.c **** * Summary:
 315:Generated_Source\PSoC4/SPI.c **** *  Configure which status bits trigger an interrupt event.
 316:Generated_Source\PSoC4/SPI.c **** *
 317:Generated_Source\PSoC4/SPI.c **** * Parameters:
 318:Generated_Source\PSoC4/SPI.c **** *  intSrc: An or'd combination of the desired status bit masks (defined in the
 319:Generated_Source\PSoC4/SPI.c **** *  header file).
 320:Generated_Source\PSoC4/SPI.c **** *
 321:Generated_Source\PSoC4/SPI.c **** * Return:
 322:Generated_Source\PSoC4/SPI.c **** *  None.
 323:Generated_Source\PSoC4/SPI.c **** *
 324:Generated_Source\PSoC4/SPI.c **** * Theory:
 325:Generated_Source\PSoC4/SPI.c **** *  Enables the output of specific status bits to the interrupt controller.
 326:Generated_Source\PSoC4/SPI.c **** *
 327:Generated_Source\PSoC4/SPI.c **** *******************************************************************************/
 328:Generated_Source\PSoC4/SPI.c **** void SPI_SetTxInterruptMode(uint8 intSrc) 
 329:Generated_Source\PSoC4/SPI.c **** {
 197              		.loc 1 329 0
 198              		.cfi_startproc
 199              		@ args = 0, pretend = 0, frame = 0
 200              		@ frame_needed = 0, uses_anonymous_args = 0
 201              		@ link register save eliminated.
 202              	.LVL4:
 330:Generated_Source\PSoC4/SPI.c ****     SPI_TX_STATUS_MASK_REG = intSrc;
 203              		.loc 1 330 0
 204 0000 014B     		ldr	r3, .L12
 331:Generated_Source\PSoC4/SPI.c **** }
 205              		.loc 1 331 0
 206              		@ sp needed
 330:Generated_Source\PSoC4/SPI.c ****     SPI_TX_STATUS_MASK_REG = intSrc;
 207              		.loc 1 330 0
 208 0002 1870     		strb	r0, [r3]
 209              		.loc 1 331 0
 210 0004 7047     		bx	lr
 211              	.L13:
 212 0006 C046     		.align	2
 213              	.L12:
 214 0008 82000F40 		.word	1074724994
 215              		.cfi_endproc
 216              	.LFE8:
 217              		.size	SPI_SetTxInterruptMode, .-SPI_SetTxInterruptMode
 218              		.section	.text.SPI_SetRxInterruptMode,"ax",%progbits
 219              		.align	2
 220              		.global	SPI_SetRxInterruptMode
 221              		.code	16
 222              		.thumb_func
 223              		.type	SPI_SetRxInterruptMode, %function
 224              	SPI_SetRxInterruptMode:
 225              	.LFB9:
 332:Generated_Source\PSoC4/SPI.c **** 
 333:Generated_Source\PSoC4/SPI.c **** 
 334:Generated_Source\PSoC4/SPI.c **** /*******************************************************************************
 335:Generated_Source\PSoC4/SPI.c **** * Function Name: SPI_SetRxInterruptMode
 336:Generated_Source\PSoC4/SPI.c **** ********************************************************************************
 337:Generated_Source\PSoC4/SPI.c **** *
ARM GAS  C:\Users\jrdia\AppData\Local\Temp\ccAscRNf.s 			page 11


 338:Generated_Source\PSoC4/SPI.c **** * Summary:
 339:Generated_Source\PSoC4/SPI.c **** *  Configure which status bits trigger an interrupt event.
 340:Generated_Source\PSoC4/SPI.c **** *
 341:Generated_Source\PSoC4/SPI.c **** * Parameters:
 342:Generated_Source\PSoC4/SPI.c **** *  intSrc: An or'd combination of the desired status bit masks (defined in the
 343:Generated_Source\PSoC4/SPI.c **** *  header file).
 344:Generated_Source\PSoC4/SPI.c **** *
 345:Generated_Source\PSoC4/SPI.c **** * Return:
 346:Generated_Source\PSoC4/SPI.c **** *  None.
 347:Generated_Source\PSoC4/SPI.c **** *
 348:Generated_Source\PSoC4/SPI.c **** * Theory:
 349:Generated_Source\PSoC4/SPI.c **** *  Enables the output of specific status bits to the interrupt controller.
 350:Generated_Source\PSoC4/SPI.c **** *
 351:Generated_Source\PSoC4/SPI.c **** *******************************************************************************/
 352:Generated_Source\PSoC4/SPI.c **** void SPI_SetRxInterruptMode(uint8 intSrc) 
 353:Generated_Source\PSoC4/SPI.c **** {
 226              		.loc 1 353 0
 227              		.cfi_startproc
 228              		@ args = 0, pretend = 0, frame = 0
 229              		@ frame_needed = 0, uses_anonymous_args = 0
 230              		@ link register save eliminated.
 231              	.LVL5:
 354:Generated_Source\PSoC4/SPI.c ****     SPI_RX_STATUS_MASK_REG  = intSrc;
 232              		.loc 1 354 0
 233 0000 014B     		ldr	r3, .L15
 355:Generated_Source\PSoC4/SPI.c **** }
 234              		.loc 1 355 0
 235              		@ sp needed
 354:Generated_Source\PSoC4/SPI.c ****     SPI_RX_STATUS_MASK_REG  = intSrc;
 236              		.loc 1 354 0
 237 0002 1870     		strb	r0, [r3]
 238              		.loc 1 355 0
 239 0004 7047     		bx	lr
 240              	.L16:
 241 0006 C046     		.align	2
 242              	.L15:
 243 0008 80000F40 		.word	1074724992
 244              		.cfi_endproc
 245              	.LFE9:
 246              		.size	SPI_SetRxInterruptMode, .-SPI_SetRxInterruptMode
 247              		.section	.text.SPI_ReadTxStatus,"ax",%progbits
 248              		.align	2
 249              		.global	SPI_ReadTxStatus
 250              		.code	16
 251              		.thumb_func
 252              		.type	SPI_ReadTxStatus, %function
 253              	SPI_ReadTxStatus:
 254              	.LFB10:
 356:Generated_Source\PSoC4/SPI.c **** 
 357:Generated_Source\PSoC4/SPI.c **** 
 358:Generated_Source\PSoC4/SPI.c **** /*******************************************************************************
 359:Generated_Source\PSoC4/SPI.c **** * Function Name: SPI_ReadTxStatus
 360:Generated_Source\PSoC4/SPI.c **** ********************************************************************************
 361:Generated_Source\PSoC4/SPI.c **** *
 362:Generated_Source\PSoC4/SPI.c **** * Summary:
 363:Generated_Source\PSoC4/SPI.c **** *  Read the Tx status register for the component.
 364:Generated_Source\PSoC4/SPI.c **** *
ARM GAS  C:\Users\jrdia\AppData\Local\Temp\ccAscRNf.s 			page 12


 365:Generated_Source\PSoC4/SPI.c **** * Parameters:
 366:Generated_Source\PSoC4/SPI.c **** *  None.
 367:Generated_Source\PSoC4/SPI.c **** *
 368:Generated_Source\PSoC4/SPI.c **** * Return:
 369:Generated_Source\PSoC4/SPI.c **** *  Contents of the Tx status register.
 370:Generated_Source\PSoC4/SPI.c **** *
 371:Generated_Source\PSoC4/SPI.c **** * Global variables:
 372:Generated_Source\PSoC4/SPI.c **** *  SPI_swStatusTx - used to store in software status register,
 373:Generated_Source\PSoC4/SPI.c **** *  modified every function call - resets to zero.
 374:Generated_Source\PSoC4/SPI.c **** *
 375:Generated_Source\PSoC4/SPI.c **** * Theory:
 376:Generated_Source\PSoC4/SPI.c **** *  Allows the user and the API to read the Tx status register for error
 377:Generated_Source\PSoC4/SPI.c **** *  detection and flow control.
 378:Generated_Source\PSoC4/SPI.c **** *
 379:Generated_Source\PSoC4/SPI.c **** * Side Effects:
 380:Generated_Source\PSoC4/SPI.c **** *  Clear Tx status register of the component.
 381:Generated_Source\PSoC4/SPI.c **** *
 382:Generated_Source\PSoC4/SPI.c **** * Reentrant:
 383:Generated_Source\PSoC4/SPI.c **** *  No.
 384:Generated_Source\PSoC4/SPI.c **** *
 385:Generated_Source\PSoC4/SPI.c **** *******************************************************************************/
 386:Generated_Source\PSoC4/SPI.c **** uint8 SPI_ReadTxStatus(void) 
 387:Generated_Source\PSoC4/SPI.c **** {
 255              		.loc 1 387 0
 256              		.cfi_startproc
 257              		@ args = 0, pretend = 0, frame = 0
 258              		@ frame_needed = 0, uses_anonymous_args = 0
 259              		@ link register save eliminated.
 388:Generated_Source\PSoC4/SPI.c ****     uint8 tmpStatus;
 389:Generated_Source\PSoC4/SPI.c **** 
 390:Generated_Source\PSoC4/SPI.c ****     #if(SPI_TX_SOFTWARE_BUF_ENABLED)
 391:Generated_Source\PSoC4/SPI.c ****         /* Disable TX interrupt to protect global veriables */
 392:Generated_Source\PSoC4/SPI.c ****         SPI_DisableTxInt();
 393:Generated_Source\PSoC4/SPI.c **** 
 394:Generated_Source\PSoC4/SPI.c ****         tmpStatus = SPI_GET_STATUS_TX(SPI_swStatusTx);
 395:Generated_Source\PSoC4/SPI.c ****         SPI_swStatusTx = 0u;
 396:Generated_Source\PSoC4/SPI.c **** 
 397:Generated_Source\PSoC4/SPI.c ****         SPI_EnableTxInt();
 398:Generated_Source\PSoC4/SPI.c **** 
 399:Generated_Source\PSoC4/SPI.c ****     #else
 400:Generated_Source\PSoC4/SPI.c **** 
 401:Generated_Source\PSoC4/SPI.c ****         tmpStatus = SPI_TX_STATUS_REG;
 260              		.loc 1 401 0
 261 0000 014B     		ldr	r3, .L18
 402:Generated_Source\PSoC4/SPI.c **** 
 403:Generated_Source\PSoC4/SPI.c ****     #endif /* (SPI_TX_SOFTWARE_BUF_ENABLED) */
 404:Generated_Source\PSoC4/SPI.c **** 
 405:Generated_Source\PSoC4/SPI.c ****     return(tmpStatus);
 406:Generated_Source\PSoC4/SPI.c **** }
 262              		.loc 1 406 0
 263              		@ sp needed
 401:Generated_Source\PSoC4/SPI.c **** 
 264              		.loc 1 401 0
 265 0002 1878     		ldrb	r0, [r3]
 266 0004 C0B2     		uxtb	r0, r0
 267              	.LVL6:
 268              		.loc 1 406 0
ARM GAS  C:\Users\jrdia\AppData\Local\Temp\ccAscRNf.s 			page 13


 269 0006 7047     		bx	lr
 270              	.L19:
 271              		.align	2
 272              	.L18:
 273 0008 62000F40 		.word	1074724962
 274              		.cfi_endproc
 275              	.LFE10:
 276              		.size	SPI_ReadTxStatus, .-SPI_ReadTxStatus
 277              		.section	.text.SPI_ReadRxStatus,"ax",%progbits
 278              		.align	2
 279              		.global	SPI_ReadRxStatus
 280              		.code	16
 281              		.thumb_func
 282              		.type	SPI_ReadRxStatus, %function
 283              	SPI_ReadRxStatus:
 284              	.LFB11:
 407:Generated_Source\PSoC4/SPI.c **** 
 408:Generated_Source\PSoC4/SPI.c **** 
 409:Generated_Source\PSoC4/SPI.c **** /*******************************************************************************
 410:Generated_Source\PSoC4/SPI.c **** * Function Name: SPI_ReadRxStatus
 411:Generated_Source\PSoC4/SPI.c **** ********************************************************************************
 412:Generated_Source\PSoC4/SPI.c **** *
 413:Generated_Source\PSoC4/SPI.c **** * Summary:
 414:Generated_Source\PSoC4/SPI.c **** *  Read the Rx status register for the component.
 415:Generated_Source\PSoC4/SPI.c **** *
 416:Generated_Source\PSoC4/SPI.c **** * Parameters:
 417:Generated_Source\PSoC4/SPI.c **** *  None.
 418:Generated_Source\PSoC4/SPI.c **** *
 419:Generated_Source\PSoC4/SPI.c **** * Return:
 420:Generated_Source\PSoC4/SPI.c **** *  Contents of the Rx status register.
 421:Generated_Source\PSoC4/SPI.c **** *
 422:Generated_Source\PSoC4/SPI.c **** * Global variables:
 423:Generated_Source\PSoC4/SPI.c **** *  SPI_swStatusRx - used to store in software Rx status register,
 424:Generated_Source\PSoC4/SPI.c **** *  modified every function call - resets to zero.
 425:Generated_Source\PSoC4/SPI.c **** *
 426:Generated_Source\PSoC4/SPI.c **** * Theory:
 427:Generated_Source\PSoC4/SPI.c **** *  Allows the user and the API to read the Rx status register for error
 428:Generated_Source\PSoC4/SPI.c **** *  detection and flow control.
 429:Generated_Source\PSoC4/SPI.c **** *
 430:Generated_Source\PSoC4/SPI.c **** * Side Effects:
 431:Generated_Source\PSoC4/SPI.c **** *  Clear Rx status register of the component.
 432:Generated_Source\PSoC4/SPI.c **** *
 433:Generated_Source\PSoC4/SPI.c **** * Reentrant:
 434:Generated_Source\PSoC4/SPI.c **** *  No.
 435:Generated_Source\PSoC4/SPI.c **** *
 436:Generated_Source\PSoC4/SPI.c **** *******************************************************************************/
 437:Generated_Source\PSoC4/SPI.c **** uint8 SPI_ReadRxStatus(void) 
 438:Generated_Source\PSoC4/SPI.c **** {
 285              		.loc 1 438 0
 286              		.cfi_startproc
 287              		@ args = 0, pretend = 0, frame = 0
 288              		@ frame_needed = 0, uses_anonymous_args = 0
 289              		@ link register save eliminated.
 439:Generated_Source\PSoC4/SPI.c ****     uint8 tmpStatus;
 440:Generated_Source\PSoC4/SPI.c **** 
 441:Generated_Source\PSoC4/SPI.c ****     #if(SPI_RX_SOFTWARE_BUF_ENABLED)
 442:Generated_Source\PSoC4/SPI.c ****         /* Disable RX interrupt to protect global veriables */
ARM GAS  C:\Users\jrdia\AppData\Local\Temp\ccAscRNf.s 			page 14


 443:Generated_Source\PSoC4/SPI.c ****         SPI_DisableRxInt();
 444:Generated_Source\PSoC4/SPI.c **** 
 445:Generated_Source\PSoC4/SPI.c ****         tmpStatus = SPI_GET_STATUS_RX(SPI_swStatusRx);
 446:Generated_Source\PSoC4/SPI.c ****         SPI_swStatusRx = 0u;
 447:Generated_Source\PSoC4/SPI.c **** 
 448:Generated_Source\PSoC4/SPI.c ****         SPI_EnableRxInt();
 449:Generated_Source\PSoC4/SPI.c **** 
 450:Generated_Source\PSoC4/SPI.c ****     #else
 451:Generated_Source\PSoC4/SPI.c **** 
 452:Generated_Source\PSoC4/SPI.c ****         tmpStatus = SPI_RX_STATUS_REG;
 290              		.loc 1 452 0
 291 0000 014B     		ldr	r3, .L21
 453:Generated_Source\PSoC4/SPI.c **** 
 454:Generated_Source\PSoC4/SPI.c ****     #endif /* (SPI_RX_SOFTWARE_BUF_ENABLED) */
 455:Generated_Source\PSoC4/SPI.c **** 
 456:Generated_Source\PSoC4/SPI.c ****     return(tmpStatus);
 457:Generated_Source\PSoC4/SPI.c **** }
 292              		.loc 1 457 0
 293              		@ sp needed
 452:Generated_Source\PSoC4/SPI.c **** 
 294              		.loc 1 452 0
 295 0002 1878     		ldrb	r0, [r3]
 296 0004 C0B2     		uxtb	r0, r0
 297              	.LVL7:
 298              		.loc 1 457 0
 299 0006 7047     		bx	lr
 300              	.L22:
 301              		.align	2
 302              	.L21:
 303 0008 60000F40 		.word	1074724960
 304              		.cfi_endproc
 305              	.LFE11:
 306              		.size	SPI_ReadRxStatus, .-SPI_ReadRxStatus
 307              		.section	.text.SPI_WriteTxData,"ax",%progbits
 308              		.align	2
 309              		.global	SPI_WriteTxData
 310              		.code	16
 311              		.thumb_func
 312              		.type	SPI_WriteTxData, %function
 313              	SPI_WriteTxData:
 314              	.LFB12:
 458:Generated_Source\PSoC4/SPI.c **** 
 459:Generated_Source\PSoC4/SPI.c **** 
 460:Generated_Source\PSoC4/SPI.c **** /*******************************************************************************
 461:Generated_Source\PSoC4/SPI.c **** * Function Name: SPI_WriteTxData
 462:Generated_Source\PSoC4/SPI.c **** ********************************************************************************
 463:Generated_Source\PSoC4/SPI.c **** *
 464:Generated_Source\PSoC4/SPI.c **** * Summary:
 465:Generated_Source\PSoC4/SPI.c **** *  Write a byte of data to be sent across the SPI.
 466:Generated_Source\PSoC4/SPI.c **** *
 467:Generated_Source\PSoC4/SPI.c **** * Parameters:
 468:Generated_Source\PSoC4/SPI.c **** *  txDataByte: The data value to send across the SPI.
 469:Generated_Source\PSoC4/SPI.c **** *
 470:Generated_Source\PSoC4/SPI.c **** * Return:
 471:Generated_Source\PSoC4/SPI.c **** *  None.
 472:Generated_Source\PSoC4/SPI.c **** *
 473:Generated_Source\PSoC4/SPI.c **** * Global variables:
ARM GAS  C:\Users\jrdia\AppData\Local\Temp\ccAscRNf.s 			page 15


 474:Generated_Source\PSoC4/SPI.c **** *  SPI_txBufferWrite - used for the account of the bytes which
 475:Generated_Source\PSoC4/SPI.c **** *  have been written down in the TX software buffer, modified every function
 476:Generated_Source\PSoC4/SPI.c **** *  call if TX Software Buffer is used.
 477:Generated_Source\PSoC4/SPI.c **** *  SPI_txBufferRead - used for the account of the bytes which
 478:Generated_Source\PSoC4/SPI.c **** *  have been read from the TX software buffer.
 479:Generated_Source\PSoC4/SPI.c **** *  SPI_txBuffer[SPI_TX_BUFFER_SIZE] - used to store
 480:Generated_Source\PSoC4/SPI.c **** *  data to sending, modified every function call if TX Software Buffer is used.
 481:Generated_Source\PSoC4/SPI.c **** *
 482:Generated_Source\PSoC4/SPI.c **** * Theory:
 483:Generated_Source\PSoC4/SPI.c **** *  Allows the user to transmit any byte of data in a single transfer.
 484:Generated_Source\PSoC4/SPI.c **** *
 485:Generated_Source\PSoC4/SPI.c **** * Side Effects:
 486:Generated_Source\PSoC4/SPI.c **** *  If this function is called again before the previous byte is finished then
 487:Generated_Source\PSoC4/SPI.c **** *  the next byte will be appended to the transfer with no time between
 488:Generated_Source\PSoC4/SPI.c **** *  the byte transfers. Clear Tx status register of the component.
 489:Generated_Source\PSoC4/SPI.c **** *
 490:Generated_Source\PSoC4/SPI.c **** * Reentrant:
 491:Generated_Source\PSoC4/SPI.c **** *  No.
 492:Generated_Source\PSoC4/SPI.c **** *
 493:Generated_Source\PSoC4/SPI.c **** *******************************************************************************/
 494:Generated_Source\PSoC4/SPI.c **** void SPI_WriteTxData(uint8 txData) 
 495:Generated_Source\PSoC4/SPI.c **** {
 315              		.loc 1 495 0
 316              		.cfi_startproc
 317              		@ args = 0, pretend = 0, frame = 0
 318              		@ frame_needed = 0, uses_anonymous_args = 0
 319              		@ link register save eliminated.
 320              	.LVL8:
 496:Generated_Source\PSoC4/SPI.c ****     #if(SPI_TX_SOFTWARE_BUF_ENABLED)
 497:Generated_Source\PSoC4/SPI.c **** 
 498:Generated_Source\PSoC4/SPI.c ****         uint8 tempStatus;
 499:Generated_Source\PSoC4/SPI.c ****         uint8 tmpTxBufferRead;
 500:Generated_Source\PSoC4/SPI.c **** 
 501:Generated_Source\PSoC4/SPI.c ****         /* Block if TX buffer is FULL: don't overwrite */
 502:Generated_Source\PSoC4/SPI.c ****         do
 503:Generated_Source\PSoC4/SPI.c ****         {
 504:Generated_Source\PSoC4/SPI.c ****             tmpTxBufferRead = SPI_txBufferRead;
 505:Generated_Source\PSoC4/SPI.c ****             if(0u == tmpTxBufferRead)
 506:Generated_Source\PSoC4/SPI.c ****             {
 507:Generated_Source\PSoC4/SPI.c ****                 tmpTxBufferRead = (SPI_TX_BUFFER_SIZE - 1u);
 508:Generated_Source\PSoC4/SPI.c ****             }
 509:Generated_Source\PSoC4/SPI.c ****             else
 510:Generated_Source\PSoC4/SPI.c ****             {
 511:Generated_Source\PSoC4/SPI.c ****                 tmpTxBufferRead--;
 512:Generated_Source\PSoC4/SPI.c ****             }
 513:Generated_Source\PSoC4/SPI.c **** 
 514:Generated_Source\PSoC4/SPI.c ****         }while(tmpTxBufferRead == SPI_txBufferWrite);
 515:Generated_Source\PSoC4/SPI.c **** 
 516:Generated_Source\PSoC4/SPI.c ****         /* Disable TX interrupt to protect global veriables */
 517:Generated_Source\PSoC4/SPI.c ****         SPI_DisableTxInt();
 518:Generated_Source\PSoC4/SPI.c **** 
 519:Generated_Source\PSoC4/SPI.c ****         tempStatus = SPI_GET_STATUS_TX(SPI_swStatusTx);
 520:Generated_Source\PSoC4/SPI.c ****         SPI_swStatusTx = tempStatus;
 521:Generated_Source\PSoC4/SPI.c **** 
 522:Generated_Source\PSoC4/SPI.c **** 
 523:Generated_Source\PSoC4/SPI.c ****         if((SPI_txBufferRead == SPI_txBufferWrite) &&
 524:Generated_Source\PSoC4/SPI.c ****            (0u != (SPI_swStatusTx & SPI_STS_TX_FIFO_NOT_FULL)))
ARM GAS  C:\Users\jrdia\AppData\Local\Temp\ccAscRNf.s 			page 16


 525:Generated_Source\PSoC4/SPI.c ****         {
 526:Generated_Source\PSoC4/SPI.c ****             /* Put data element into the TX FIFO */
 527:Generated_Source\PSoC4/SPI.c ****             CY_SET_REG8(SPI_TXDATA_PTR, txData);
 528:Generated_Source\PSoC4/SPI.c ****         }
 529:Generated_Source\PSoC4/SPI.c ****         else
 530:Generated_Source\PSoC4/SPI.c ****         {
 531:Generated_Source\PSoC4/SPI.c ****             /* Add to the TX software buffer */
 532:Generated_Source\PSoC4/SPI.c ****             SPI_txBufferWrite++;
 533:Generated_Source\PSoC4/SPI.c ****             if(SPI_txBufferWrite >= SPI_TX_BUFFER_SIZE)
 534:Generated_Source\PSoC4/SPI.c ****             {
 535:Generated_Source\PSoC4/SPI.c ****                 SPI_txBufferWrite = 0u;
 536:Generated_Source\PSoC4/SPI.c ****             }
 537:Generated_Source\PSoC4/SPI.c **** 
 538:Generated_Source\PSoC4/SPI.c ****             if(SPI_txBufferWrite == SPI_txBufferRead)
 539:Generated_Source\PSoC4/SPI.c ****             {
 540:Generated_Source\PSoC4/SPI.c ****                 SPI_txBufferRead++;
 541:Generated_Source\PSoC4/SPI.c ****                 if(SPI_txBufferRead >= SPI_TX_BUFFER_SIZE)
 542:Generated_Source\PSoC4/SPI.c ****                 {
 543:Generated_Source\PSoC4/SPI.c ****                     SPI_txBufferRead = 0u;
 544:Generated_Source\PSoC4/SPI.c ****                 }
 545:Generated_Source\PSoC4/SPI.c ****                 SPI_txBufferFull = 1u;
 546:Generated_Source\PSoC4/SPI.c ****             }
 547:Generated_Source\PSoC4/SPI.c **** 
 548:Generated_Source\PSoC4/SPI.c ****             SPI_txBuffer[SPI_txBufferWrite] = txData;
 549:Generated_Source\PSoC4/SPI.c **** 
 550:Generated_Source\PSoC4/SPI.c ****             SPI_TX_STATUS_MASK_REG |= SPI_STS_TX_FIFO_NOT_FULL;
 551:Generated_Source\PSoC4/SPI.c ****         }
 552:Generated_Source\PSoC4/SPI.c **** 
 553:Generated_Source\PSoC4/SPI.c ****         SPI_EnableTxInt();
 554:Generated_Source\PSoC4/SPI.c **** 
 555:Generated_Source\PSoC4/SPI.c ****     #else
 556:Generated_Source\PSoC4/SPI.c ****         /* Wait until TX FIFO has a place */
 557:Generated_Source\PSoC4/SPI.c ****         while(0u == (SPI_TX_STATUS_REG & SPI_STS_TX_FIFO_NOT_FULL))
 321              		.loc 1 557 0
 322 0000 0422     		movs	r2, #4
 323 0002 0349     		ldr	r1, .L28
 324              	.L24:
 325              		.loc 1 557 0 is_stmt 0 discriminator 1
 326 0004 0B78     		ldrb	r3, [r1]
 327 0006 1A42     		tst	r2, r3
 328 0008 FCD0     		beq	.L24
 558:Generated_Source\PSoC4/SPI.c ****         {
 559:Generated_Source\PSoC4/SPI.c ****         }
 560:Generated_Source\PSoC4/SPI.c **** 
 561:Generated_Source\PSoC4/SPI.c ****         /* Put data element into the TX FIFO */
 562:Generated_Source\PSoC4/SPI.c ****         CY_SET_REG8(SPI_TXDATA_PTR, txData);
 329              		.loc 1 562 0 is_stmt 1
 330 000a 024B     		ldr	r3, .L28+4
 563:Generated_Source\PSoC4/SPI.c **** 
 564:Generated_Source\PSoC4/SPI.c ****     #endif /* (SPI_TX_SOFTWARE_BUF_ENABLED) */
 565:Generated_Source\PSoC4/SPI.c **** }
 331              		.loc 1 565 0
 332              		@ sp needed
 562:Generated_Source\PSoC4/SPI.c **** 
 333              		.loc 1 562 0
 334 000c 1870     		strb	r0, [r3]
 335              		.loc 1 565 0
ARM GAS  C:\Users\jrdia\AppData\Local\Temp\ccAscRNf.s 			page 17


 336 000e 7047     		bx	lr
 337              	.L29:
 338              		.align	2
 339              	.L28:
 340 0010 62000F40 		.word	1074724962
 341 0014 43000F40 		.word	1074724931
 342              		.cfi_endproc
 343              	.LFE12:
 344              		.size	SPI_WriteTxData, .-SPI_WriteTxData
 345              		.section	.text.SPI_ReadRxData,"ax",%progbits
 346              		.align	2
 347              		.global	SPI_ReadRxData
 348              		.code	16
 349              		.thumb_func
 350              		.type	SPI_ReadRxData, %function
 351              	SPI_ReadRxData:
 352              	.LFB13:
 566:Generated_Source\PSoC4/SPI.c **** 
 567:Generated_Source\PSoC4/SPI.c **** 
 568:Generated_Source\PSoC4/SPI.c **** /*******************************************************************************
 569:Generated_Source\PSoC4/SPI.c **** * Function Name: SPI_ReadRxData
 570:Generated_Source\PSoC4/SPI.c **** ********************************************************************************
 571:Generated_Source\PSoC4/SPI.c **** *
 572:Generated_Source\PSoC4/SPI.c **** * Summary:
 573:Generated_Source\PSoC4/SPI.c **** *  Read the next byte of data received across the SPI.
 574:Generated_Source\PSoC4/SPI.c **** *
 575:Generated_Source\PSoC4/SPI.c **** * Parameters:
 576:Generated_Source\PSoC4/SPI.c **** *  None.
 577:Generated_Source\PSoC4/SPI.c **** *
 578:Generated_Source\PSoC4/SPI.c **** * Return:
 579:Generated_Source\PSoC4/SPI.c **** *  The next byte of data read from the FIFO.
 580:Generated_Source\PSoC4/SPI.c **** *
 581:Generated_Source\PSoC4/SPI.c **** * Global variables:
 582:Generated_Source\PSoC4/SPI.c **** *  SPI_rxBufferWrite - used for the account of the bytes which
 583:Generated_Source\PSoC4/SPI.c **** *  have been written down in the RX software buffer.
 584:Generated_Source\PSoC4/SPI.c **** *  SPI_rxBufferRead - used for the account of the bytes which
 585:Generated_Source\PSoC4/SPI.c **** *  have been read from the RX software buffer, modified every function
 586:Generated_Source\PSoC4/SPI.c **** *  call if RX Software Buffer is used.
 587:Generated_Source\PSoC4/SPI.c **** *  SPI_rxBuffer[SPI_RX_BUFFER_SIZE] - used to store
 588:Generated_Source\PSoC4/SPI.c **** *  received data.
 589:Generated_Source\PSoC4/SPI.c **** *
 590:Generated_Source\PSoC4/SPI.c **** * Theory:
 591:Generated_Source\PSoC4/SPI.c **** *  Allows the user to read a byte of data received.
 592:Generated_Source\PSoC4/SPI.c **** *
 593:Generated_Source\PSoC4/SPI.c **** * Side Effects:
 594:Generated_Source\PSoC4/SPI.c **** *  Will return invalid data if the FIFO is empty. The user should Call
 595:Generated_Source\PSoC4/SPI.c **** *  GetRxBufferSize() and if it returns a non-zero value then it is safe to call
 596:Generated_Source\PSoC4/SPI.c **** *  ReadByte() function.
 597:Generated_Source\PSoC4/SPI.c **** *
 598:Generated_Source\PSoC4/SPI.c **** * Reentrant:
 599:Generated_Source\PSoC4/SPI.c **** *  No.
 600:Generated_Source\PSoC4/SPI.c **** *
 601:Generated_Source\PSoC4/SPI.c **** *******************************************************************************/
 602:Generated_Source\PSoC4/SPI.c **** uint8 SPI_ReadRxData(void) 
 603:Generated_Source\PSoC4/SPI.c **** {
 353              		.loc 1 603 0
 354              		.cfi_startproc
ARM GAS  C:\Users\jrdia\AppData\Local\Temp\ccAscRNf.s 			page 18


 355              		@ args = 0, pretend = 0, frame = 0
 356              		@ frame_needed = 0, uses_anonymous_args = 0
 357              		@ link register save eliminated.
 604:Generated_Source\PSoC4/SPI.c ****     uint8 rxData;
 605:Generated_Source\PSoC4/SPI.c **** 
 606:Generated_Source\PSoC4/SPI.c ****     #if(SPI_RX_SOFTWARE_BUF_ENABLED)
 607:Generated_Source\PSoC4/SPI.c **** 
 608:Generated_Source\PSoC4/SPI.c ****         /* Disable RX interrupt to protect global veriables */
 609:Generated_Source\PSoC4/SPI.c ****         SPI_DisableRxInt();
 610:Generated_Source\PSoC4/SPI.c **** 
 611:Generated_Source\PSoC4/SPI.c ****         if(SPI_rxBufferRead != SPI_rxBufferWrite)
 612:Generated_Source\PSoC4/SPI.c ****         {
 613:Generated_Source\PSoC4/SPI.c ****             if(0u == SPI_rxBufferFull)
 614:Generated_Source\PSoC4/SPI.c ****             {
 615:Generated_Source\PSoC4/SPI.c ****                 SPI_rxBufferRead++;
 616:Generated_Source\PSoC4/SPI.c ****                 if(SPI_rxBufferRead >= SPI_RX_BUFFER_SIZE)
 617:Generated_Source\PSoC4/SPI.c ****                 {
 618:Generated_Source\PSoC4/SPI.c ****                     SPI_rxBufferRead = 0u;
 619:Generated_Source\PSoC4/SPI.c ****                 }
 620:Generated_Source\PSoC4/SPI.c ****             }
 621:Generated_Source\PSoC4/SPI.c ****             else
 622:Generated_Source\PSoC4/SPI.c ****             {
 623:Generated_Source\PSoC4/SPI.c ****                 SPI_rxBufferFull = 0u;
 624:Generated_Source\PSoC4/SPI.c ****             }
 625:Generated_Source\PSoC4/SPI.c ****         }
 626:Generated_Source\PSoC4/SPI.c **** 
 627:Generated_Source\PSoC4/SPI.c ****         rxData = SPI_rxBuffer[SPI_rxBufferRead];
 628:Generated_Source\PSoC4/SPI.c **** 
 629:Generated_Source\PSoC4/SPI.c ****         SPI_EnableRxInt();
 630:Generated_Source\PSoC4/SPI.c **** 
 631:Generated_Source\PSoC4/SPI.c ****     #else
 632:Generated_Source\PSoC4/SPI.c **** 
 633:Generated_Source\PSoC4/SPI.c ****         rxData = CY_GET_REG8(SPI_RXDATA_PTR);
 358              		.loc 1 633 0
 359 0000 014B     		ldr	r3, .L31
 634:Generated_Source\PSoC4/SPI.c **** 
 635:Generated_Source\PSoC4/SPI.c ****     #endif /* (SPI_RX_SOFTWARE_BUF_ENABLED) */
 636:Generated_Source\PSoC4/SPI.c **** 
 637:Generated_Source\PSoC4/SPI.c ****     return(rxData);
 638:Generated_Source\PSoC4/SPI.c **** }
 360              		.loc 1 638 0
 361              		@ sp needed
 633:Generated_Source\PSoC4/SPI.c **** 
 362              		.loc 1 633 0
 363 0002 1878     		ldrb	r0, [r3]
 364 0004 C0B2     		uxtb	r0, r0
 365              	.LVL9:
 366              		.loc 1 638 0
 367 0006 7047     		bx	lr
 368              	.L32:
 369              		.align	2
 370              	.L31:
 371 0008 53000F40 		.word	1074724947
 372              		.cfi_endproc
 373              	.LFE13:
 374              		.size	SPI_ReadRxData, .-SPI_ReadRxData
 375              		.section	.text.SPI_GetRxBufferSize,"ax",%progbits
ARM GAS  C:\Users\jrdia\AppData\Local\Temp\ccAscRNf.s 			page 19


 376              		.align	2
 377              		.global	SPI_GetRxBufferSize
 378              		.code	16
 379              		.thumb_func
 380              		.type	SPI_GetRxBufferSize, %function
 381              	SPI_GetRxBufferSize:
 382              	.LFB14:
 639:Generated_Source\PSoC4/SPI.c **** 
 640:Generated_Source\PSoC4/SPI.c **** 
 641:Generated_Source\PSoC4/SPI.c **** /*******************************************************************************
 642:Generated_Source\PSoC4/SPI.c **** * Function Name: SPI_GetRxBufferSize
 643:Generated_Source\PSoC4/SPI.c **** ********************************************************************************
 644:Generated_Source\PSoC4/SPI.c **** *
 645:Generated_Source\PSoC4/SPI.c **** * Summary:
 646:Generated_Source\PSoC4/SPI.c **** *  Returns the number of bytes/words of data currently held in the RX buffer.
 647:Generated_Source\PSoC4/SPI.c **** *  If RX Software Buffer not used then function return 0 if FIFO empty or 1 if
 648:Generated_Source\PSoC4/SPI.c **** *  FIFO not empty. In another case function return size of RX Software Buffer.
 649:Generated_Source\PSoC4/SPI.c **** *
 650:Generated_Source\PSoC4/SPI.c **** * Parameters:
 651:Generated_Source\PSoC4/SPI.c **** *  None.
 652:Generated_Source\PSoC4/SPI.c **** *
 653:Generated_Source\PSoC4/SPI.c **** * Return:
 654:Generated_Source\PSoC4/SPI.c **** *  Integer count of the number of bytes/words in the RX buffer.
 655:Generated_Source\PSoC4/SPI.c **** *
 656:Generated_Source\PSoC4/SPI.c **** * Global variables:
 657:Generated_Source\PSoC4/SPI.c **** *  SPI_rxBufferWrite - used for the account of the bytes which
 658:Generated_Source\PSoC4/SPI.c **** *  have been written down in the RX software buffer.
 659:Generated_Source\PSoC4/SPI.c **** *  SPI_rxBufferRead - used for the account of the bytes which
 660:Generated_Source\PSoC4/SPI.c **** *  have been read from the RX software buffer.
 661:Generated_Source\PSoC4/SPI.c **** *
 662:Generated_Source\PSoC4/SPI.c **** * Side Effects:
 663:Generated_Source\PSoC4/SPI.c **** *  Clear status register of the component.
 664:Generated_Source\PSoC4/SPI.c **** *
 665:Generated_Source\PSoC4/SPI.c **** *******************************************************************************/
 666:Generated_Source\PSoC4/SPI.c **** uint8 SPI_GetRxBufferSize(void) 
 667:Generated_Source\PSoC4/SPI.c **** {
 383              		.loc 1 667 0
 384              		.cfi_startproc
 385              		@ args = 0, pretend = 0, frame = 0
 386              		@ frame_needed = 0, uses_anonymous_args = 0
 387              		@ link register save eliminated.
 668:Generated_Source\PSoC4/SPI.c ****     uint8 size;
 669:Generated_Source\PSoC4/SPI.c **** 
 670:Generated_Source\PSoC4/SPI.c ****     #if(SPI_RX_SOFTWARE_BUF_ENABLED)
 671:Generated_Source\PSoC4/SPI.c **** 
 672:Generated_Source\PSoC4/SPI.c ****         /* Disable RX interrupt to protect global veriables */
 673:Generated_Source\PSoC4/SPI.c ****         SPI_DisableRxInt();
 674:Generated_Source\PSoC4/SPI.c **** 
 675:Generated_Source\PSoC4/SPI.c ****         if(SPI_rxBufferRead == SPI_rxBufferWrite)
 676:Generated_Source\PSoC4/SPI.c ****         {
 677:Generated_Source\PSoC4/SPI.c ****             size = 0u;
 678:Generated_Source\PSoC4/SPI.c ****         }
 679:Generated_Source\PSoC4/SPI.c ****         else if(SPI_rxBufferRead < SPI_rxBufferWrite)
 680:Generated_Source\PSoC4/SPI.c ****         {
 681:Generated_Source\PSoC4/SPI.c ****             size = (SPI_rxBufferWrite - SPI_rxBufferRead);
 682:Generated_Source\PSoC4/SPI.c ****         }
 683:Generated_Source\PSoC4/SPI.c ****         else
ARM GAS  C:\Users\jrdia\AppData\Local\Temp\ccAscRNf.s 			page 20


 684:Generated_Source\PSoC4/SPI.c ****         {
 685:Generated_Source\PSoC4/SPI.c ****             size = (SPI_RX_BUFFER_SIZE - SPI_rxBufferRead) + SPI_rxBufferWrite;
 686:Generated_Source\PSoC4/SPI.c ****         }
 687:Generated_Source\PSoC4/SPI.c **** 
 688:Generated_Source\PSoC4/SPI.c ****         SPI_EnableRxInt();
 689:Generated_Source\PSoC4/SPI.c **** 
 690:Generated_Source\PSoC4/SPI.c ****     #else
 691:Generated_Source\PSoC4/SPI.c **** 
 692:Generated_Source\PSoC4/SPI.c ****         /* We can only know if there is data in the RX FIFO */
 693:Generated_Source\PSoC4/SPI.c ****         size = (0u != (SPI_RX_STATUS_REG & SPI_STS_RX_FIFO_NOT_EMPTY)) ? 1u : 0u;
 388              		.loc 1 693 0
 389 0000 024B     		ldr	r3, .L34
 694:Generated_Source\PSoC4/SPI.c **** 
 695:Generated_Source\PSoC4/SPI.c ****     #endif /* (SPI_TX_SOFTWARE_BUF_ENABLED) */
 696:Generated_Source\PSoC4/SPI.c **** 
 697:Generated_Source\PSoC4/SPI.c ****     return(size);
 698:Generated_Source\PSoC4/SPI.c **** }
 390              		.loc 1 698 0
 391              		@ sp needed
 693:Generated_Source\PSoC4/SPI.c **** 
 392              		.loc 1 693 0
 393 0002 1878     		ldrb	r0, [r3]
 394              	.LVL10:
 697:Generated_Source\PSoC4/SPI.c **** }
 395              		.loc 1 697 0
 396 0004 8006     		lsls	r0, r0, #26
 397              	.LVL11:
 398 0006 C00F     		lsrs	r0, r0, #31
 399              		.loc 1 698 0
 400 0008 7047     		bx	lr
 401              	.L35:
 402 000a C046     		.align	2
 403              	.L34:
 404 000c 60000F40 		.word	1074724960
 405              		.cfi_endproc
 406              	.LFE14:
 407              		.size	SPI_GetRxBufferSize, .-SPI_GetRxBufferSize
 408              		.section	.text.SPI_GetTxBufferSize,"ax",%progbits
 409              		.align	2
 410              		.global	SPI_GetTxBufferSize
 411              		.code	16
 412              		.thumb_func
 413              		.type	SPI_GetTxBufferSize, %function
 414              	SPI_GetTxBufferSize:
 415              	.LFB15:
 699:Generated_Source\PSoC4/SPI.c **** 
 700:Generated_Source\PSoC4/SPI.c **** 
 701:Generated_Source\PSoC4/SPI.c **** /*******************************************************************************
 702:Generated_Source\PSoC4/SPI.c **** * Function Name: SPI_GetTxBufferSize
 703:Generated_Source\PSoC4/SPI.c **** ********************************************************************************
 704:Generated_Source\PSoC4/SPI.c **** *
 705:Generated_Source\PSoC4/SPI.c **** * Summary:
 706:Generated_Source\PSoC4/SPI.c **** *  Returns the number of bytes/words of data currently held in the TX buffer.
 707:Generated_Source\PSoC4/SPI.c **** *  If TX Software Buffer not used then function return 0 - if FIFO empty, 1 - if
 708:Generated_Source\PSoC4/SPI.c **** *  FIFO not full, 4 - if FIFO full. In another case function return size of TX
 709:Generated_Source\PSoC4/SPI.c **** *  Software Buffer.
 710:Generated_Source\PSoC4/SPI.c **** *
ARM GAS  C:\Users\jrdia\AppData\Local\Temp\ccAscRNf.s 			page 21


 711:Generated_Source\PSoC4/SPI.c **** * Parameters:
 712:Generated_Source\PSoC4/SPI.c **** *  None.
 713:Generated_Source\PSoC4/SPI.c **** *
 714:Generated_Source\PSoC4/SPI.c **** * Return:
 715:Generated_Source\PSoC4/SPI.c **** *  Integer count of the number of bytes/words in the TX buffer.
 716:Generated_Source\PSoC4/SPI.c **** *
 717:Generated_Source\PSoC4/SPI.c **** * Global variables:
 718:Generated_Source\PSoC4/SPI.c **** *  SPI_txBufferWrite - used for the account of the bytes which
 719:Generated_Source\PSoC4/SPI.c **** *  have been written down in the TX software buffer.
 720:Generated_Source\PSoC4/SPI.c **** *  SPI_txBufferRead - used for the account of the bytes which
 721:Generated_Source\PSoC4/SPI.c **** *  have been read from the TX software buffer.
 722:Generated_Source\PSoC4/SPI.c **** *
 723:Generated_Source\PSoC4/SPI.c **** * Side Effects:
 724:Generated_Source\PSoC4/SPI.c **** *  Clear status register of the component.
 725:Generated_Source\PSoC4/SPI.c **** *
 726:Generated_Source\PSoC4/SPI.c **** *******************************************************************************/
 727:Generated_Source\PSoC4/SPI.c **** uint8  SPI_GetTxBufferSize(void) 
 728:Generated_Source\PSoC4/SPI.c **** {
 416              		.loc 1 728 0
 417              		.cfi_startproc
 418              		@ args = 0, pretend = 0, frame = 0
 419              		@ frame_needed = 0, uses_anonymous_args = 0
 420              		@ link register save eliminated.
 729:Generated_Source\PSoC4/SPI.c ****     uint8 size;
 730:Generated_Source\PSoC4/SPI.c **** 
 731:Generated_Source\PSoC4/SPI.c ****     #if(SPI_TX_SOFTWARE_BUF_ENABLED)
 732:Generated_Source\PSoC4/SPI.c ****         /* Disable TX interrupt to protect global veriables */
 733:Generated_Source\PSoC4/SPI.c ****         SPI_DisableTxInt();
 734:Generated_Source\PSoC4/SPI.c **** 
 735:Generated_Source\PSoC4/SPI.c ****         if(SPI_txBufferRead == SPI_txBufferWrite)
 736:Generated_Source\PSoC4/SPI.c ****         {
 737:Generated_Source\PSoC4/SPI.c ****             size = 0u;
 738:Generated_Source\PSoC4/SPI.c ****         }
 739:Generated_Source\PSoC4/SPI.c ****         else if(SPI_txBufferRead < SPI_txBufferWrite)
 740:Generated_Source\PSoC4/SPI.c ****         {
 741:Generated_Source\PSoC4/SPI.c ****             size = (SPI_txBufferWrite - SPI_txBufferRead);
 742:Generated_Source\PSoC4/SPI.c ****         }
 743:Generated_Source\PSoC4/SPI.c ****         else
 744:Generated_Source\PSoC4/SPI.c ****         {
 745:Generated_Source\PSoC4/SPI.c ****             size = (SPI_TX_BUFFER_SIZE - SPI_txBufferRead) + SPI_txBufferWrite;
 746:Generated_Source\PSoC4/SPI.c ****         }
 747:Generated_Source\PSoC4/SPI.c **** 
 748:Generated_Source\PSoC4/SPI.c ****         SPI_EnableTxInt();
 749:Generated_Source\PSoC4/SPI.c **** 
 750:Generated_Source\PSoC4/SPI.c ****     #else
 751:Generated_Source\PSoC4/SPI.c **** 
 752:Generated_Source\PSoC4/SPI.c ****         size = SPI_TX_STATUS_REG;
 421              		.loc 1 752 0
 422 0000 054B     		ldr	r3, .L40
 753:Generated_Source\PSoC4/SPI.c **** 
 754:Generated_Source\PSoC4/SPI.c ****         if(0u != (size & SPI_STS_TX_FIFO_EMPTY))
 755:Generated_Source\PSoC4/SPI.c ****         {
 756:Generated_Source\PSoC4/SPI.c ****             size = 0u;
 423              		.loc 1 756 0
 424 0002 0020     		movs	r0, #0
 752:Generated_Source\PSoC4/SPI.c **** 
 425              		.loc 1 752 0
ARM GAS  C:\Users\jrdia\AppData\Local\Temp\ccAscRNf.s 			page 22


 426 0004 1B78     		ldrb	r3, [r3]
 427 0006 DBB2     		uxtb	r3, r3
 428              	.LVL12:
 754:Generated_Source\PSoC4/SPI.c ****         {
 429              		.loc 1 754 0
 430 0008 9A07     		lsls	r2, r3, #30
 431 000a 02D4     		bmi	.L37
 757:Generated_Source\PSoC4/SPI.c ****         }
 758:Generated_Source\PSoC4/SPI.c ****         else if(0u != (size & SPI_STS_TX_FIFO_NOT_FULL))
 432              		.loc 1 758 0
 433 000c 5B07     		lsls	r3, r3, #29
 434 000e 01D4     		bmi	.L39
 435              	.LVL13:
 759:Generated_Source\PSoC4/SPI.c ****         {
 760:Generated_Source\PSoC4/SPI.c ****             size = 1u;
 761:Generated_Source\PSoC4/SPI.c ****         }
 762:Generated_Source\PSoC4/SPI.c ****         else
 763:Generated_Source\PSoC4/SPI.c ****         {
 764:Generated_Source\PSoC4/SPI.c ****             size = SPI_FIFO_SIZE;
 436              		.loc 1 764 0
 437 0010 0430     		adds	r0, r0, #4
 438              	.L37:
 439              	.LVL14:
 765:Generated_Source\PSoC4/SPI.c ****         }
 766:Generated_Source\PSoC4/SPI.c **** 
 767:Generated_Source\PSoC4/SPI.c ****     #endif /* (SPI_TX_SOFTWARE_BUF_ENABLED) */
 768:Generated_Source\PSoC4/SPI.c **** 
 769:Generated_Source\PSoC4/SPI.c ****     return(size);
 770:Generated_Source\PSoC4/SPI.c **** }
 440              		.loc 1 770 0
 441              		@ sp needed
 442 0012 7047     		bx	lr
 443              	.LVL15:
 444              	.L39:
 760:Generated_Source\PSoC4/SPI.c ****         }
 445              		.loc 1 760 0
 446 0014 0120     		movs	r0, #1
 447 0016 FCE7     		b	.L37
 448              	.L41:
 449              		.align	2
 450              	.L40:
 451 0018 62000F40 		.word	1074724962
 452              		.cfi_endproc
 453              	.LFE15:
 454              		.size	SPI_GetTxBufferSize, .-SPI_GetTxBufferSize
 455              		.section	.text.SPI_ClearRxBuffer,"ax",%progbits
 456              		.align	2
 457              		.global	SPI_ClearRxBuffer
 458              		.code	16
 459              		.thumb_func
 460              		.type	SPI_ClearRxBuffer, %function
 461              	SPI_ClearRxBuffer:
 462              	.LFB16:
 771:Generated_Source\PSoC4/SPI.c **** 
 772:Generated_Source\PSoC4/SPI.c **** 
 773:Generated_Source\PSoC4/SPI.c **** /*******************************************************************************
 774:Generated_Source\PSoC4/SPI.c **** * Function Name: SPI_ClearRxBuffer
ARM GAS  C:\Users\jrdia\AppData\Local\Temp\ccAscRNf.s 			page 23


 775:Generated_Source\PSoC4/SPI.c **** ********************************************************************************
 776:Generated_Source\PSoC4/SPI.c **** *
 777:Generated_Source\PSoC4/SPI.c **** * Summary:
 778:Generated_Source\PSoC4/SPI.c **** *  Clear the RX RAM buffer by setting the read and write pointers both to zero.
 779:Generated_Source\PSoC4/SPI.c **** *
 780:Generated_Source\PSoC4/SPI.c **** * Parameters:
 781:Generated_Source\PSoC4/SPI.c **** *  None.
 782:Generated_Source\PSoC4/SPI.c **** *
 783:Generated_Source\PSoC4/SPI.c **** * Return:
 784:Generated_Source\PSoC4/SPI.c **** *  None.
 785:Generated_Source\PSoC4/SPI.c **** *
 786:Generated_Source\PSoC4/SPI.c **** * Global variables:
 787:Generated_Source\PSoC4/SPI.c **** *  SPI_rxBufferWrite - used for the account of the bytes which
 788:Generated_Source\PSoC4/SPI.c **** *  have been written down in the RX software buffer, modified every function
 789:Generated_Source\PSoC4/SPI.c **** *  call - resets to zero.
 790:Generated_Source\PSoC4/SPI.c **** *  SPI_rxBufferRead - used for the account of the bytes which
 791:Generated_Source\PSoC4/SPI.c **** *  have been read from the RX software buffer, modified every function call -
 792:Generated_Source\PSoC4/SPI.c **** *  resets to zero.
 793:Generated_Source\PSoC4/SPI.c **** *
 794:Generated_Source\PSoC4/SPI.c **** * Theory:
 795:Generated_Source\PSoC4/SPI.c **** *  Setting the pointers to zero makes the system believe there is no data to
 796:Generated_Source\PSoC4/SPI.c **** *  read and writing will resume at address 0 overwriting any data that may have
 797:Generated_Source\PSoC4/SPI.c **** *  remained in the RAM.
 798:Generated_Source\PSoC4/SPI.c **** *
 799:Generated_Source\PSoC4/SPI.c **** * Side Effects:
 800:Generated_Source\PSoC4/SPI.c **** *  Any received data not read from the RAM buffer will be lost when overwritten.
 801:Generated_Source\PSoC4/SPI.c **** *
 802:Generated_Source\PSoC4/SPI.c **** * Reentrant:
 803:Generated_Source\PSoC4/SPI.c **** *  No.
 804:Generated_Source\PSoC4/SPI.c **** *
 805:Generated_Source\PSoC4/SPI.c **** *******************************************************************************/
 806:Generated_Source\PSoC4/SPI.c **** void SPI_ClearRxBuffer(void) 
 807:Generated_Source\PSoC4/SPI.c **** {
 463              		.loc 1 807 0
 464              		.cfi_startproc
 465              		@ args = 0, pretend = 0, frame = 0
 466              		@ frame_needed = 0, uses_anonymous_args = 0
 467              		@ link register save eliminated.
 808:Generated_Source\PSoC4/SPI.c ****     /* Clear Hardware RX FIFO */
 809:Generated_Source\PSoC4/SPI.c ****     while(0u !=(SPI_RX_STATUS_REG & SPI_STS_RX_FIFO_NOT_EMPTY))
 468              		.loc 1 809 0
 469 0000 054A     		ldr	r2, .L50
 470 0002 1378     		ldrb	r3, [r2]
 471 0004 9B06     		lsls	r3, r3, #26
 472 0006 05D5     		bpl	.L42
 473 0008 2021     		movs	r1, #32
 810:Generated_Source\PSoC4/SPI.c ****     {
 811:Generated_Source\PSoC4/SPI.c ****         (void) CY_GET_REG8(SPI_RXDATA_PTR);
 474              		.loc 1 811 0
 475 000a 0448     		ldr	r0, .L50+4
 476              	.L47:
 477 000c 0378     		ldrb	r3, [r0]
 809:Generated_Source\PSoC4/SPI.c ****     {
 478              		.loc 1 809 0
 479 000e 1378     		ldrb	r3, [r2]
 480 0010 1942     		tst	r1, r3
 481 0012 FBD1     		bne	.L47
ARM GAS  C:\Users\jrdia\AppData\Local\Temp\ccAscRNf.s 			page 24


 482              	.L42:
 812:Generated_Source\PSoC4/SPI.c ****     }
 813:Generated_Source\PSoC4/SPI.c **** 
 814:Generated_Source\PSoC4/SPI.c ****     #if(SPI_RX_SOFTWARE_BUF_ENABLED)
 815:Generated_Source\PSoC4/SPI.c ****         /* Disable RX interrupt to protect global veriables */
 816:Generated_Source\PSoC4/SPI.c ****         SPI_DisableRxInt();
 817:Generated_Source\PSoC4/SPI.c **** 
 818:Generated_Source\PSoC4/SPI.c ****         SPI_rxBufferFull  = 0u;
 819:Generated_Source\PSoC4/SPI.c ****         SPI_rxBufferRead  = 0u;
 820:Generated_Source\PSoC4/SPI.c ****         SPI_rxBufferWrite = 0u;
 821:Generated_Source\PSoC4/SPI.c **** 
 822:Generated_Source\PSoC4/SPI.c ****         SPI_EnableRxInt();
 823:Generated_Source\PSoC4/SPI.c ****     #endif /* (SPI_RX_SOFTWARE_BUF_ENABLED) */
 824:Generated_Source\PSoC4/SPI.c **** }
 483              		.loc 1 824 0
 484              		@ sp needed
 485 0014 7047     		bx	lr
 486              	.L51:
 487 0016 C046     		.align	2
 488              	.L50:
 489 0018 60000F40 		.word	1074724960
 490 001c 53000F40 		.word	1074724947
 491              		.cfi_endproc
 492              	.LFE16:
 493              		.size	SPI_ClearRxBuffer, .-SPI_ClearRxBuffer
 494              		.section	.text.SPI_ClearTxBuffer,"ax",%progbits
 495              		.align	2
 496              		.global	SPI_ClearTxBuffer
 497              		.code	16
 498              		.thumb_func
 499              		.type	SPI_ClearTxBuffer, %function
 500              	SPI_ClearTxBuffer:
 501              	.LFB17:
 825:Generated_Source\PSoC4/SPI.c **** 
 826:Generated_Source\PSoC4/SPI.c **** 
 827:Generated_Source\PSoC4/SPI.c **** /*******************************************************************************
 828:Generated_Source\PSoC4/SPI.c **** * Function Name: SPI_ClearTxBuffer
 829:Generated_Source\PSoC4/SPI.c **** ********************************************************************************
 830:Generated_Source\PSoC4/SPI.c **** *
 831:Generated_Source\PSoC4/SPI.c **** * Summary:
 832:Generated_Source\PSoC4/SPI.c **** *  Clear the TX RAM buffer by setting the read and write pointers both to zero.
 833:Generated_Source\PSoC4/SPI.c **** *
 834:Generated_Source\PSoC4/SPI.c **** * Parameters:
 835:Generated_Source\PSoC4/SPI.c **** *  None.
 836:Generated_Source\PSoC4/SPI.c **** *
 837:Generated_Source\PSoC4/SPI.c **** * Return:
 838:Generated_Source\PSoC4/SPI.c **** *  None.
 839:Generated_Source\PSoC4/SPI.c **** *
 840:Generated_Source\PSoC4/SPI.c **** * Global variables:
 841:Generated_Source\PSoC4/SPI.c **** *  SPI_txBufferWrite - used for the account of the bytes which
 842:Generated_Source\PSoC4/SPI.c **** *  have been written down in the TX software buffer, modified every function
 843:Generated_Source\PSoC4/SPI.c **** *  call - resets to zero.
 844:Generated_Source\PSoC4/SPI.c **** *  SPI_txBufferRead - used for the account of the bytes which
 845:Generated_Source\PSoC4/SPI.c **** *  have been read from the TX software buffer, modified every function call -
 846:Generated_Source\PSoC4/SPI.c **** *  resets to zero.
 847:Generated_Source\PSoC4/SPI.c **** *
 848:Generated_Source\PSoC4/SPI.c **** * Theory:
ARM GAS  C:\Users\jrdia\AppData\Local\Temp\ccAscRNf.s 			page 25


 849:Generated_Source\PSoC4/SPI.c **** *  Setting the pointers to zero makes the system believe there is no data to
 850:Generated_Source\PSoC4/SPI.c **** *  read and writing will resume at address 0 overwriting any data that may have
 851:Generated_Source\PSoC4/SPI.c **** *  remained in the RAM.
 852:Generated_Source\PSoC4/SPI.c **** *
 853:Generated_Source\PSoC4/SPI.c **** * Side Effects:
 854:Generated_Source\PSoC4/SPI.c **** *  Any data not yet transmitted from the RAM buffer will be lost when
 855:Generated_Source\PSoC4/SPI.c **** *  overwritten.
 856:Generated_Source\PSoC4/SPI.c **** *
 857:Generated_Source\PSoC4/SPI.c **** * Reentrant:
 858:Generated_Source\PSoC4/SPI.c **** *  No.
 859:Generated_Source\PSoC4/SPI.c **** *
 860:Generated_Source\PSoC4/SPI.c **** *******************************************************************************/
 861:Generated_Source\PSoC4/SPI.c **** void SPI_ClearTxBuffer(void) 
 862:Generated_Source\PSoC4/SPI.c **** {
 502              		.loc 1 862 0
 503              		.cfi_startproc
 504              		@ args = 0, pretend = 0, frame = 0
 505              		@ frame_needed = 0, uses_anonymous_args = 0
 506 0000 10B5     		push	{r4, lr}
 507              		.cfi_def_cfa_offset 8
 508              		.cfi_offset 4, -8
 509              		.cfi_offset 14, -4
 863:Generated_Source\PSoC4/SPI.c ****     uint8 enableInterrupts;
 864:Generated_Source\PSoC4/SPI.c **** 
 865:Generated_Source\PSoC4/SPI.c ****     enableInterrupts = CyEnterCriticalSection();
 510              		.loc 1 865 0
 511 0002 FFF7FEFF 		bl	CyEnterCriticalSection
 512              	.LVL16:
 866:Generated_Source\PSoC4/SPI.c ****     /* Clear TX FIFO */
 867:Generated_Source\PSoC4/SPI.c ****     SPI_AUX_CONTROL_DP0_REG |= ((uint8)  SPI_TX_FIFO_CLR);
 513              		.loc 1 867 0
 514 0006 0122     		movs	r2, #1
 515 0008 054B     		ldr	r3, .L53
 868:Generated_Source\PSoC4/SPI.c ****     SPI_AUX_CONTROL_DP0_REG &= ((uint8) ~SPI_TX_FIFO_CLR);
 869:Generated_Source\PSoC4/SPI.c **** 
 870:Generated_Source\PSoC4/SPI.c ****     #if(SPI_USE_SECOND_DATAPATH)
 871:Generated_Source\PSoC4/SPI.c ****         /* Clear TX FIFO for 2nd Datapath */
 872:Generated_Source\PSoC4/SPI.c ****         SPI_AUX_CONTROL_DP1_REG |= ((uint8)  SPI_TX_FIFO_CLR);
 873:Generated_Source\PSoC4/SPI.c ****         SPI_AUX_CONTROL_DP1_REG &= ((uint8) ~SPI_TX_FIFO_CLR);
 874:Generated_Source\PSoC4/SPI.c ****     #endif /* (SPI_USE_SECOND_DATAPATH) */
 875:Generated_Source\PSoC4/SPI.c ****     CyExitCriticalSection(enableInterrupts);
 876:Generated_Source\PSoC4/SPI.c **** 
 877:Generated_Source\PSoC4/SPI.c ****     #if(SPI_TX_SOFTWARE_BUF_ENABLED)
 878:Generated_Source\PSoC4/SPI.c ****         /* Disable TX interrupt to protect global veriables */
 879:Generated_Source\PSoC4/SPI.c ****         SPI_DisableTxInt();
 880:Generated_Source\PSoC4/SPI.c **** 
 881:Generated_Source\PSoC4/SPI.c ****         SPI_txBufferFull  = 0u;
 882:Generated_Source\PSoC4/SPI.c ****         SPI_txBufferRead  = 0u;
 883:Generated_Source\PSoC4/SPI.c ****         SPI_txBufferWrite = 0u;
 884:Generated_Source\PSoC4/SPI.c **** 
 885:Generated_Source\PSoC4/SPI.c ****         /* Buffer is EMPTY: disable TX FIFO NOT FULL interrupt */
 886:Generated_Source\PSoC4/SPI.c ****         SPI_TX_STATUS_MASK_REG &= ((uint8) ~SPI_STS_TX_FIFO_NOT_FULL);
 887:Generated_Source\PSoC4/SPI.c **** 
 888:Generated_Source\PSoC4/SPI.c ****         SPI_EnableTxInt();
 889:Generated_Source\PSoC4/SPI.c ****     #endif /* (SPI_TX_SOFTWARE_BUF_ENABLED) */
 890:Generated_Source\PSoC4/SPI.c **** }
 516              		.loc 1 890 0
ARM GAS  C:\Users\jrdia\AppData\Local\Temp\ccAscRNf.s 			page 26


 517              		@ sp needed
 867:Generated_Source\PSoC4/SPI.c ****     SPI_AUX_CONTROL_DP0_REG &= ((uint8) ~SPI_TX_FIFO_CLR);
 518              		.loc 1 867 0
 519 000a 1978     		ldrb	r1, [r3]
 520 000c 0A43     		orrs	r2, r1
 868:Generated_Source\PSoC4/SPI.c ****     SPI_AUX_CONTROL_DP0_REG &= ((uint8) ~SPI_TX_FIFO_CLR);
 521              		.loc 1 868 0
 522 000e 0121     		movs	r1, #1
 867:Generated_Source\PSoC4/SPI.c ****     SPI_AUX_CONTROL_DP0_REG &= ((uint8) ~SPI_TX_FIFO_CLR);
 523              		.loc 1 867 0
 524 0010 1A70     		strb	r2, [r3]
 868:Generated_Source\PSoC4/SPI.c ****     SPI_AUX_CONTROL_DP0_REG &= ((uint8) ~SPI_TX_FIFO_CLR);
 525              		.loc 1 868 0
 526 0012 1A78     		ldrb	r2, [r3]
 527 0014 8A43     		bics	r2, r1
 528 0016 1A70     		strb	r2, [r3]
 875:Generated_Source\PSoC4/SPI.c **** 
 529              		.loc 1 875 0
 530 0018 FFF7FEFF 		bl	CyExitCriticalSection
 531              	.LVL17:
 532              		.loc 1 890 0
 533 001c 10BD     		pop	{r4, pc}
 534              	.L54:
 535 001e C046     		.align	2
 536              	.L53:
 537 0020 93000F40 		.word	1074725011
 538              		.cfi_endproc
 539              	.LFE17:
 540              		.size	SPI_ClearTxBuffer, .-SPI_ClearTxBuffer
 541              		.section	.text.SPI_PutArray,"ax",%progbits
 542              		.align	2
 543              		.global	SPI_PutArray
 544              		.code	16
 545              		.thumb_func
 546              		.type	SPI_PutArray, %function
 547              	SPI_PutArray:
 548              	.LFB18:
 891:Generated_Source\PSoC4/SPI.c **** 
 892:Generated_Source\PSoC4/SPI.c **** 
 893:Generated_Source\PSoC4/SPI.c **** #if(0u != SPI_BIDIRECTIONAL_MODE)
 894:Generated_Source\PSoC4/SPI.c ****     /*******************************************************************************
 895:Generated_Source\PSoC4/SPI.c ****     * Function Name: SPI_TxEnable
 896:Generated_Source\PSoC4/SPI.c ****     ********************************************************************************
 897:Generated_Source\PSoC4/SPI.c ****     *
 898:Generated_Source\PSoC4/SPI.c ****     * Summary:
 899:Generated_Source\PSoC4/SPI.c ****     *  If the SPI master is configured to use a single bi-directional pin then this
 900:Generated_Source\PSoC4/SPI.c ****     *  will set the bi-directional pin to transmit.
 901:Generated_Source\PSoC4/SPI.c ****     *
 902:Generated_Source\PSoC4/SPI.c ****     * Parameters:
 903:Generated_Source\PSoC4/SPI.c ****     *  None.
 904:Generated_Source\PSoC4/SPI.c ****     *
 905:Generated_Source\PSoC4/SPI.c ****     * Return:
 906:Generated_Source\PSoC4/SPI.c ****     *  None.
 907:Generated_Source\PSoC4/SPI.c ****     *
 908:Generated_Source\PSoC4/SPI.c ****     *******************************************************************************/
 909:Generated_Source\PSoC4/SPI.c ****     void SPI_TxEnable(void) 
 910:Generated_Source\PSoC4/SPI.c ****     {
ARM GAS  C:\Users\jrdia\AppData\Local\Temp\ccAscRNf.s 			page 27


 911:Generated_Source\PSoC4/SPI.c ****         SPI_CONTROL_REG |= SPI_CTRL_TX_SIGNAL_EN;
 912:Generated_Source\PSoC4/SPI.c ****     }
 913:Generated_Source\PSoC4/SPI.c **** 
 914:Generated_Source\PSoC4/SPI.c **** 
 915:Generated_Source\PSoC4/SPI.c ****     /*******************************************************************************
 916:Generated_Source\PSoC4/SPI.c ****     * Function Name: SPI_TxDisable
 917:Generated_Source\PSoC4/SPI.c ****     ********************************************************************************
 918:Generated_Source\PSoC4/SPI.c ****     *
 919:Generated_Source\PSoC4/SPI.c ****     * Summary:
 920:Generated_Source\PSoC4/SPI.c ****     *  If the SPI master is configured to use a single bi-directional pin then this
 921:Generated_Source\PSoC4/SPI.c ****     *  will set the bi-directional pin to receive.
 922:Generated_Source\PSoC4/SPI.c ****     *
 923:Generated_Source\PSoC4/SPI.c ****     * Parameters:
 924:Generated_Source\PSoC4/SPI.c ****     *  None.
 925:Generated_Source\PSoC4/SPI.c ****     *
 926:Generated_Source\PSoC4/SPI.c ****     * Return:
 927:Generated_Source\PSoC4/SPI.c ****     *  None.
 928:Generated_Source\PSoC4/SPI.c ****     *
 929:Generated_Source\PSoC4/SPI.c ****     *******************************************************************************/
 930:Generated_Source\PSoC4/SPI.c ****     void SPI_TxDisable(void) 
 931:Generated_Source\PSoC4/SPI.c ****     {
 932:Generated_Source\PSoC4/SPI.c ****         SPI_CONTROL_REG &= ((uint8) ~SPI_CTRL_TX_SIGNAL_EN);
 933:Generated_Source\PSoC4/SPI.c ****     }
 934:Generated_Source\PSoC4/SPI.c **** 
 935:Generated_Source\PSoC4/SPI.c **** #endif /* (0u != SPI_BIDIRECTIONAL_MODE) */
 936:Generated_Source\PSoC4/SPI.c **** 
 937:Generated_Source\PSoC4/SPI.c **** 
 938:Generated_Source\PSoC4/SPI.c **** /*******************************************************************************
 939:Generated_Source\PSoC4/SPI.c **** * Function Name: SPI_PutArray
 940:Generated_Source\PSoC4/SPI.c **** ********************************************************************************
 941:Generated_Source\PSoC4/SPI.c **** *
 942:Generated_Source\PSoC4/SPI.c **** * Summary:
 943:Generated_Source\PSoC4/SPI.c **** *  Write available data from ROM/RAM to the TX buffer while space is available
 944:Generated_Source\PSoC4/SPI.c **** *  in the TX buffer. Keep trying until all data is passed to the TX buffer.
 945:Generated_Source\PSoC4/SPI.c **** *
 946:Generated_Source\PSoC4/SPI.c **** * Parameters:
 947:Generated_Source\PSoC4/SPI.c **** *  *buffer: Pointer to the location in RAM containing the data to send
 948:Generated_Source\PSoC4/SPI.c **** *  byteCount: The number of bytes to move to the transmit buffer.
 949:Generated_Source\PSoC4/SPI.c **** *
 950:Generated_Source\PSoC4/SPI.c **** * Return:
 951:Generated_Source\PSoC4/SPI.c **** *  None.
 952:Generated_Source\PSoC4/SPI.c **** *
 953:Generated_Source\PSoC4/SPI.c **** * Side Effects:
 954:Generated_Source\PSoC4/SPI.c **** *  Will stay in this routine until all data has been sent.  May get locked in
 955:Generated_Source\PSoC4/SPI.c **** *  this loop if data is not being initiated by the master if there is not
 956:Generated_Source\PSoC4/SPI.c **** *  enough room in the TX FIFO.
 957:Generated_Source\PSoC4/SPI.c **** *
 958:Generated_Source\PSoC4/SPI.c **** * Reentrant:
 959:Generated_Source\PSoC4/SPI.c **** *  No.
 960:Generated_Source\PSoC4/SPI.c **** *
 961:Generated_Source\PSoC4/SPI.c **** *******************************************************************************/
 962:Generated_Source\PSoC4/SPI.c **** void SPI_PutArray(const uint8 buffer[], uint8 byteCount)
 963:Generated_Source\PSoC4/SPI.c ****                                                                           
 964:Generated_Source\PSoC4/SPI.c **** {
 549              		.loc 1 964 0
 550              		.cfi_startproc
 551              		@ args = 0, pretend = 0, frame = 0
ARM GAS  C:\Users\jrdia\AppData\Local\Temp\ccAscRNf.s 			page 28


 552              		@ frame_needed = 0, uses_anonymous_args = 0
 553              	.LVL18:
 554 0000 F0B5     		push	{r4, r5, r6, r7, lr}
 555              		.cfi_def_cfa_offset 20
 556              		.cfi_offset 4, -20
 557              		.cfi_offset 5, -16
 558              		.cfi_offset 6, -12
 559              		.cfi_offset 7, -8
 560              		.cfi_offset 14, -4
 965:Generated_Source\PSoC4/SPI.c ****     uint8 bufIndex;
 966:Generated_Source\PSoC4/SPI.c **** 
 967:Generated_Source\PSoC4/SPI.c ****     bufIndex = 0u;
 968:Generated_Source\PSoC4/SPI.c **** 
 969:Generated_Source\PSoC4/SPI.c ****     while(byteCount > 0u)
 561              		.loc 1 969 0
 562 0002 0025     		movs	r5, #0
 563 0004 0029     		cmp	r1, #0
 564 0006 0BD0     		beq	.L55
 565              	.LBB30:
 566              	.LBB31:
 557:Generated_Source\PSoC4/SPI.c ****         {
 567              		.loc 1 557 0
 568 0008 0422     		movs	r2, #4
 569 000a 064C     		ldr	r4, .L64
 562:Generated_Source\PSoC4/SPI.c **** 
 570              		.loc 1 562 0
 571 000c 064F     		ldr	r7, .L64+4
 572              	.LVL19:
 573              	.L61:
 574              	.LBE31:
 575              	.LBE30:
 970:Generated_Source\PSoC4/SPI.c ****     {
 971:Generated_Source\PSoC4/SPI.c ****         SPI_WriteTxData(buffer[bufIndex]);
 576              		.loc 1 971 0
 577 000e 465D     		ldrb	r6, [r0, r5]
 578              	.LVL20:
 579              	.L57:
 580              	.LBB34:
 581              	.LBB32:
 557:Generated_Source\PSoC4/SPI.c ****         {
 582              		.loc 1 557 0
 583 0010 2378     		ldrb	r3, [r4]
 584 0012 1A42     		tst	r2, r3
 585 0014 FCD0     		beq	.L57
 586              	.LBE32:
 587              	.LBE34:
 972:Generated_Source\PSoC4/SPI.c ****         bufIndex++;
 588              		.loc 1 972 0
 589 0016 0135     		adds	r5, r5, #1
 590              	.LVL21:
 591 0018 EDB2     		uxtb	r5, r5
 592              	.LBB35:
 593              	.LBB33:
 562:Generated_Source\PSoC4/SPI.c **** 
 594              		.loc 1 562 0
 595 001a 3E70     		strb	r6, [r7]
 596              	.LVL22:
ARM GAS  C:\Users\jrdia\AppData\Local\Temp\ccAscRNf.s 			page 29


 597              	.LBE33:
 598              	.LBE35:
 969:Generated_Source\PSoC4/SPI.c ****     {
 599              		.loc 1 969 0
 600 001c A942     		cmp	r1, r5
 601 001e F6D1     		bne	.L61
 602              	.LVL23:
 603              	.L55:
 973:Generated_Source\PSoC4/SPI.c ****         byteCount--;
 974:Generated_Source\PSoC4/SPI.c ****     }
 975:Generated_Source\PSoC4/SPI.c **** }
 604              		.loc 1 975 0
 605              		@ sp needed
 606 0020 F0BD     		pop	{r4, r5, r6, r7, pc}
 607              	.L65:
 608 0022 C046     		.align	2
 609              	.L64:
 610 0024 62000F40 		.word	1074724962
 611 0028 43000F40 		.word	1074724931
 612              		.cfi_endproc
 613              	.LFE18:
 614              		.size	SPI_PutArray, .-SPI_PutArray
 615              		.section	.text.SPI_ClearFIFO,"ax",%progbits
 616              		.align	2
 617              		.global	SPI_ClearFIFO
 618              		.code	16
 619              		.thumb_func
 620              		.type	SPI_ClearFIFO, %function
 621              	SPI_ClearFIFO:
 622              	.LFB19:
 976:Generated_Source\PSoC4/SPI.c **** 
 977:Generated_Source\PSoC4/SPI.c **** 
 978:Generated_Source\PSoC4/SPI.c **** /*******************************************************************************
 979:Generated_Source\PSoC4/SPI.c **** * Function Name: SPI_ClearFIFO
 980:Generated_Source\PSoC4/SPI.c **** ********************************************************************************
 981:Generated_Source\PSoC4/SPI.c **** *
 982:Generated_Source\PSoC4/SPI.c **** * Summary:
 983:Generated_Source\PSoC4/SPI.c **** *  Clear the RX and TX FIFO's of all data for a fresh start.
 984:Generated_Source\PSoC4/SPI.c **** *
 985:Generated_Source\PSoC4/SPI.c **** * Parameters:
 986:Generated_Source\PSoC4/SPI.c **** *  None.
 987:Generated_Source\PSoC4/SPI.c **** *
 988:Generated_Source\PSoC4/SPI.c **** * Return:
 989:Generated_Source\PSoC4/SPI.c **** *  None.
 990:Generated_Source\PSoC4/SPI.c **** *
 991:Generated_Source\PSoC4/SPI.c **** * Side Effects:
 992:Generated_Source\PSoC4/SPI.c **** *  Clear status register of the component.
 993:Generated_Source\PSoC4/SPI.c **** *
 994:Generated_Source\PSoC4/SPI.c **** *******************************************************************************/
 995:Generated_Source\PSoC4/SPI.c **** void SPI_ClearFIFO(void) 
 996:Generated_Source\PSoC4/SPI.c **** {
 623              		.loc 1 996 0
 624              		.cfi_startproc
 625              		@ args = 0, pretend = 0, frame = 0
 626              		@ frame_needed = 0, uses_anonymous_args = 0
 627 0000 10B5     		push	{r4, lr}
 628              		.cfi_def_cfa_offset 8
ARM GAS  C:\Users\jrdia\AppData\Local\Temp\ccAscRNf.s 			page 30


 629              		.cfi_offset 4, -8
 630              		.cfi_offset 14, -4
 997:Generated_Source\PSoC4/SPI.c ****     uint8 enableInterrupts;
 998:Generated_Source\PSoC4/SPI.c **** 
 999:Generated_Source\PSoC4/SPI.c ****     /* Clear Hardware RX FIFO */
1000:Generated_Source\PSoC4/SPI.c ****     while(0u !=(SPI_RX_STATUS_REG & SPI_STS_RX_FIFO_NOT_EMPTY))
 631              		.loc 1 1000 0
 632 0002 0C4A     		ldr	r2, .L74
 633 0004 1378     		ldrb	r3, [r2]
 634 0006 9B06     		lsls	r3, r3, #26
 635 0008 05D5     		bpl	.L67
 636 000a 2021     		movs	r1, #32
1001:Generated_Source\PSoC4/SPI.c ****     {
1002:Generated_Source\PSoC4/SPI.c ****         (void) CY_GET_REG8(SPI_RXDATA_PTR);
 637              		.loc 1 1002 0
 638 000c 0A48     		ldr	r0, .L74+4
 639              	.L71:
 640 000e 0378     		ldrb	r3, [r0]
1000:Generated_Source\PSoC4/SPI.c ****     {
 641              		.loc 1 1000 0
 642 0010 1378     		ldrb	r3, [r2]
 643 0012 1942     		tst	r1, r3
 644 0014 FBD1     		bne	.L71
 645              	.L67:
1003:Generated_Source\PSoC4/SPI.c ****     }
1004:Generated_Source\PSoC4/SPI.c **** 
1005:Generated_Source\PSoC4/SPI.c ****     enableInterrupts = CyEnterCriticalSection();
 646              		.loc 1 1005 0
 647 0016 FFF7FEFF 		bl	CyEnterCriticalSection
 648              	.LVL24:
1006:Generated_Source\PSoC4/SPI.c ****     /* Clear TX FIFO */
1007:Generated_Source\PSoC4/SPI.c ****     SPI_AUX_CONTROL_DP0_REG |= ((uint8)  SPI_TX_FIFO_CLR);
 649              		.loc 1 1007 0
 650 001a 0122     		movs	r2, #1
 651 001c 074B     		ldr	r3, .L74+8
1008:Generated_Source\PSoC4/SPI.c ****     SPI_AUX_CONTROL_DP0_REG &= ((uint8) ~SPI_TX_FIFO_CLR);
1009:Generated_Source\PSoC4/SPI.c **** 
1010:Generated_Source\PSoC4/SPI.c ****     #if(SPI_USE_SECOND_DATAPATH)
1011:Generated_Source\PSoC4/SPI.c ****         /* Clear TX FIFO for 2nd Datapath */
1012:Generated_Source\PSoC4/SPI.c ****         SPI_AUX_CONTROL_DP1_REG |= ((uint8)  SPI_TX_FIFO_CLR);
1013:Generated_Source\PSoC4/SPI.c ****         SPI_AUX_CONTROL_DP1_REG &= ((uint8) ~SPI_TX_FIFO_CLR);
1014:Generated_Source\PSoC4/SPI.c ****     #endif /* (SPI_USE_SECOND_DATAPATH) */
1015:Generated_Source\PSoC4/SPI.c ****     CyExitCriticalSection(enableInterrupts);
1016:Generated_Source\PSoC4/SPI.c **** }
 652              		.loc 1 1016 0
 653              		@ sp needed
1007:Generated_Source\PSoC4/SPI.c ****     SPI_AUX_CONTROL_DP0_REG &= ((uint8) ~SPI_TX_FIFO_CLR);
 654              		.loc 1 1007 0
 655 001e 1978     		ldrb	r1, [r3]
 656 0020 0A43     		orrs	r2, r1
1008:Generated_Source\PSoC4/SPI.c ****     SPI_AUX_CONTROL_DP0_REG &= ((uint8) ~SPI_TX_FIFO_CLR);
 657              		.loc 1 1008 0
 658 0022 0121     		movs	r1, #1
1007:Generated_Source\PSoC4/SPI.c ****     SPI_AUX_CONTROL_DP0_REG &= ((uint8) ~SPI_TX_FIFO_CLR);
 659              		.loc 1 1007 0
 660 0024 1A70     		strb	r2, [r3]
1008:Generated_Source\PSoC4/SPI.c ****     SPI_AUX_CONTROL_DP0_REG &= ((uint8) ~SPI_TX_FIFO_CLR);
ARM GAS  C:\Users\jrdia\AppData\Local\Temp\ccAscRNf.s 			page 31


 661              		.loc 1 1008 0
 662 0026 1A78     		ldrb	r2, [r3]
 663 0028 8A43     		bics	r2, r1
 664 002a 1A70     		strb	r2, [r3]
1015:Generated_Source\PSoC4/SPI.c **** }
 665              		.loc 1 1015 0
 666 002c FFF7FEFF 		bl	CyExitCriticalSection
 667              	.LVL25:
 668              		.loc 1 1016 0
 669 0030 10BD     		pop	{r4, pc}
 670              	.L75:
 671 0032 C046     		.align	2
 672              	.L74:
 673 0034 60000F40 		.word	1074724960
 674 0038 53000F40 		.word	1074724947
 675 003c 93000F40 		.word	1074725011
 676              		.cfi_endproc
 677              	.LFE19:
 678              		.size	SPI_ClearFIFO, .-SPI_ClearFIFO
 679              		.section	.text.SPI_Init,"ax",%progbits
 680              		.align	2
 681              		.global	SPI_Init
 682              		.code	16
 683              		.thumb_func
 684              		.type	SPI_Init, %function
 685              	SPI_Init:
 686              	.LFB0:
  64:Generated_Source\PSoC4/SPI.c ****     /* Initialize the Bit counter */
 687              		.loc 1 64 0
 688              		.cfi_startproc
 689              		@ args = 0, pretend = 0, frame = 0
 690              		@ frame_needed = 0, uses_anonymous_args = 0
  66:Generated_Source\PSoC4/SPI.c **** 
 691              		.loc 1 66 0
 692 0000 0F22     		movs	r2, #15
 693 0002 074B     		ldr	r3, .L77
  64:Generated_Source\PSoC4/SPI.c ****     /* Initialize the Bit counter */
 694              		.loc 1 64 0
 695 0004 10B5     		push	{r4, lr}
 696              		.cfi_def_cfa_offset 8
 697              		.cfi_offset 4, -8
 698              		.cfi_offset 14, -4
  66:Generated_Source\PSoC4/SPI.c **** 
 699              		.loc 1 66 0
 700 0006 1A70     		strb	r2, [r3]
  83:Generated_Source\PSoC4/SPI.c **** 
 701              		.loc 1 83 0
 702 0008 FFF7FEFF 		bl	SPI_ClearFIFO
 703              	.LVL26:
 704              	.LBB36:
 705              	.LBB37:
 401:Generated_Source\PSoC4/SPI.c **** 
 706              		.loc 1 401 0
 707 000c 054B     		ldr	r3, .L77+4
 708              	.LBE37:
 709              	.LBE36:
 101:Generated_Source\PSoC4/SPI.c ****     SPI_RX_STATUS_MASK_REG = SPI_RX_INIT_INTERRUPTS_MASK;
ARM GAS  C:\Users\jrdia\AppData\Local\Temp\ccAscRNf.s 			page 32


 710              		.loc 1 101 0
 711 000e 064A     		ldr	r2, .L77+8
 712              	.LBB39:
 713              	.LBB38:
 401:Generated_Source\PSoC4/SPI.c **** 
 714              		.loc 1 401 0
 715 0010 1B78     		ldrb	r3, [r3]
 716              	.LBE38:
 717              	.LBE39:
 718              	.LBB40:
 719              	.LBB41:
 452:Generated_Source\PSoC4/SPI.c **** 
 720              		.loc 1 452 0
 721 0012 064B     		ldr	r3, .L77+12
 722              	.LBE41:
 723              	.LBE40:
 103:Generated_Source\PSoC4/SPI.c **** 
 724              		.loc 1 103 0
 725              		@ sp needed
 726              	.LBB43:
 727              	.LBB42:
 452:Generated_Source\PSoC4/SPI.c **** 
 728              		.loc 1 452 0
 729 0014 1B78     		ldrb	r3, [r3]
 730              	.LBE42:
 731              	.LBE43:
 101:Generated_Source\PSoC4/SPI.c ****     SPI_RX_STATUS_MASK_REG = SPI_RX_INIT_INTERRUPTS_MASK;
 732              		.loc 1 101 0
 733 0016 0023     		movs	r3, #0
 734 0018 1370     		strb	r3, [r2]
 102:Generated_Source\PSoC4/SPI.c **** }
 735              		.loc 1 102 0
 736 001a 054A     		ldr	r2, .L77+16
 737 001c 1370     		strb	r3, [r2]
 103:Generated_Source\PSoC4/SPI.c **** 
 738              		.loc 1 103 0
 739 001e 10BD     		pop	{r4, pc}
 740              	.L78:
 741              		.align	2
 742              	.L77:
 743 0020 83000F40 		.word	1074724995
 744 0024 62000F40 		.word	1074724962
 745 0028 82000F40 		.word	1074724994
 746 002c 60000F40 		.word	1074724960
 747 0030 80000F40 		.word	1074724992
 748              		.cfi_endproc
 749              	.LFE0:
 750              		.size	SPI_Init, .-SPI_Init
 751              		.section	.text.SPI_Start,"ax",%progbits
 752              		.align	2
 753              		.global	SPI_Start
 754              		.code	16
 755              		.thumb_func
 756              		.type	SPI_Start, %function
 757              	SPI_Start:
 758              	.LFB2:
 164:Generated_Source\PSoC4/SPI.c ****     if(0u == SPI_initVar)
ARM GAS  C:\Users\jrdia\AppData\Local\Temp\ccAscRNf.s 			page 33


 759              		.loc 1 164 0
 760              		.cfi_startproc
 761              		@ args = 0, pretend = 0, frame = 0
 762              		@ frame_needed = 0, uses_anonymous_args = 0
 763 0000 70B5     		push	{r4, r5, r6, lr}
 764              		.cfi_def_cfa_offset 16
 765              		.cfi_offset 4, -16
 766              		.cfi_offset 5, -12
 767              		.cfi_offset 6, -8
 768              		.cfi_offset 14, -4
 165:Generated_Source\PSoC4/SPI.c ****     {
 769              		.loc 1 165 0
 770 0002 0B4D     		ldr	r5, .L81
 771 0004 2C78     		ldrb	r4, [r5]
 772 0006 002C     		cmp	r4, #0
 773 0008 0ED1     		bne	.L80
 774              	.LBB44:
 775              	.LBB45:
  66:Generated_Source\PSoC4/SPI.c **** 
 776              		.loc 1 66 0
 777 000a 0F22     		movs	r2, #15
 778 000c 094B     		ldr	r3, .L81+4
 779 000e 1A70     		strb	r2, [r3]
  83:Generated_Source\PSoC4/SPI.c **** 
 780              		.loc 1 83 0
 781 0010 FFF7FEFF 		bl	SPI_ClearFIFO
 782              	.LVL27:
 783              	.LBB46:
 784              	.LBB47:
 401:Generated_Source\PSoC4/SPI.c **** 
 785              		.loc 1 401 0
 786 0014 084B     		ldr	r3, .L81+8
 787 0016 1B78     		ldrb	r3, [r3]
 788              	.LBE47:
 789              	.LBE46:
 790              	.LBB48:
 791              	.LBB49:
 452:Generated_Source\PSoC4/SPI.c **** 
 792              		.loc 1 452 0
 793 0018 084B     		ldr	r3, .L81+12
 794 001a 1B78     		ldrb	r3, [r3]
 795              	.LBE49:
 796              	.LBE48:
 101:Generated_Source\PSoC4/SPI.c ****     SPI_RX_STATUS_MASK_REG = SPI_RX_INIT_INTERRUPTS_MASK;
 797              		.loc 1 101 0
 798 001c 084B     		ldr	r3, .L81+16
 799 001e 1C70     		strb	r4, [r3]
 102:Generated_Source\PSoC4/SPI.c **** }
 800              		.loc 1 102 0
 801 0020 084B     		ldr	r3, .L81+20
 802 0022 1C70     		strb	r4, [r3]
 803              	.LBE45:
 804              	.LBE44:
 168:Generated_Source\PSoC4/SPI.c ****     }
 805              		.loc 1 168 0
 806 0024 0123     		movs	r3, #1
 807 0026 2B70     		strb	r3, [r5]
ARM GAS  C:\Users\jrdia\AppData\Local\Temp\ccAscRNf.s 			page 34


 808              	.L80:
 171:Generated_Source\PSoC4/SPI.c **** }
 809              		.loc 1 171 0
 810 0028 FFF7FEFF 		bl	SPI_Enable
 811              	.LVL28:
 172:Generated_Source\PSoC4/SPI.c **** 
 812              		.loc 1 172 0
 813              		@ sp needed
 814 002c 70BD     		pop	{r4, r5, r6, pc}
 815              	.L82:
 816 002e C046     		.align	2
 817              	.L81:
 818 0030 00000000 		.word	.LANCHOR0
 819 0034 83000F40 		.word	1074724995
 820 0038 62000F40 		.word	1074724962
 821 003c 60000F40 		.word	1074724960
 822 0040 82000F40 		.word	1074724994
 823 0044 80000F40 		.word	1074724992
 824              		.cfi_endproc
 825              	.LFE2:
 826              		.size	SPI_Start, .-SPI_Start
 827              		.section	.text.SPI_EnableInt,"ax",%progbits
 828              		.align	2
 829              		.global	SPI_EnableInt
 830              		.code	16
 831              		.thumb_func
 832              		.type	SPI_EnableInt, %function
 833              	SPI_EnableInt:
 834              	.LFB25:
 835              		.cfi_startproc
 836              		@ args = 0, pretend = 0, frame = 0
 837              		@ frame_needed = 0, uses_anonymous_args = 0
 838              		@ link register save eliminated.
 839              		@ sp needed
 840 0000 7047     		bx	lr
 841              		.cfi_endproc
 842              	.LFE25:
 843              		.size	SPI_EnableInt, .-SPI_EnableInt
 844 0002 C046     		.section	.text.SPI_DisableInt,"ax",%progbits
 845              		.align	2
 846              		.global	SPI_DisableInt
 847              		.code	16
 848              		.thumb_func
 849              		.type	SPI_DisableInt, %function
 850              	SPI_DisableInt:
 851              	.LFB21:
1017:Generated_Source\PSoC4/SPI.c **** 
1018:Generated_Source\PSoC4/SPI.c **** 
1019:Generated_Source\PSoC4/SPI.c **** /* Following functions are for version Compatibility, they are obsolete.
1020:Generated_Source\PSoC4/SPI.c **** *  Please do not use it in new projects.
1021:Generated_Source\PSoC4/SPI.c **** */
1022:Generated_Source\PSoC4/SPI.c **** 
1023:Generated_Source\PSoC4/SPI.c **** 
1024:Generated_Source\PSoC4/SPI.c **** /*******************************************************************************
1025:Generated_Source\PSoC4/SPI.c **** * Function Name: SPI_EnableInt
1026:Generated_Source\PSoC4/SPI.c **** ********************************************************************************
1027:Generated_Source\PSoC4/SPI.c **** *
ARM GAS  C:\Users\jrdia\AppData\Local\Temp\ccAscRNf.s 			page 35


1028:Generated_Source\PSoC4/SPI.c **** * Summary:
1029:Generated_Source\PSoC4/SPI.c **** *  Enable internal interrupt generation.
1030:Generated_Source\PSoC4/SPI.c **** *
1031:Generated_Source\PSoC4/SPI.c **** * Parameters:
1032:Generated_Source\PSoC4/SPI.c **** *  None.
1033:Generated_Source\PSoC4/SPI.c **** *
1034:Generated_Source\PSoC4/SPI.c **** * Return:
1035:Generated_Source\PSoC4/SPI.c **** *  None.
1036:Generated_Source\PSoC4/SPI.c **** *
1037:Generated_Source\PSoC4/SPI.c **** * Theory:
1038:Generated_Source\PSoC4/SPI.c **** *  Enable the internal interrupt output -or- the interrupt component itself.
1039:Generated_Source\PSoC4/SPI.c **** *
1040:Generated_Source\PSoC4/SPI.c **** *******************************************************************************/
1041:Generated_Source\PSoC4/SPI.c **** void SPI_EnableInt(void) 
1042:Generated_Source\PSoC4/SPI.c **** {
1043:Generated_Source\PSoC4/SPI.c ****     SPI_EnableRxInt();
1044:Generated_Source\PSoC4/SPI.c ****     SPI_EnableTxInt();
1045:Generated_Source\PSoC4/SPI.c **** }
1046:Generated_Source\PSoC4/SPI.c **** 
1047:Generated_Source\PSoC4/SPI.c **** 
1048:Generated_Source\PSoC4/SPI.c **** /*******************************************************************************
1049:Generated_Source\PSoC4/SPI.c **** * Function Name: SPI_DisableInt
1050:Generated_Source\PSoC4/SPI.c **** ********************************************************************************
1051:Generated_Source\PSoC4/SPI.c **** *
1052:Generated_Source\PSoC4/SPI.c **** * Summary:
1053:Generated_Source\PSoC4/SPI.c **** *  Disable internal interrupt generation.
1054:Generated_Source\PSoC4/SPI.c **** *
1055:Generated_Source\PSoC4/SPI.c **** * Parameters:
1056:Generated_Source\PSoC4/SPI.c **** *  None.
1057:Generated_Source\PSoC4/SPI.c **** *
1058:Generated_Source\PSoC4/SPI.c **** * Return:
1059:Generated_Source\PSoC4/SPI.c **** *  None.
1060:Generated_Source\PSoC4/SPI.c **** *
1061:Generated_Source\PSoC4/SPI.c **** * Theory:
1062:Generated_Source\PSoC4/SPI.c **** *  Disable the internal interrupt output -or- the interrupt component itself.
1063:Generated_Source\PSoC4/SPI.c **** *
1064:Generated_Source\PSoC4/SPI.c **** *******************************************************************************/
1065:Generated_Source\PSoC4/SPI.c **** void SPI_DisableInt(void) 
1066:Generated_Source\PSoC4/SPI.c **** {
 852              		.loc 1 1066 0
 853              		.cfi_startproc
 854              		@ args = 0, pretend = 0, frame = 0
 855              		@ frame_needed = 0, uses_anonymous_args = 0
 856              		@ link register save eliminated.
1067:Generated_Source\PSoC4/SPI.c ****     SPI_DisableTxInt();
1068:Generated_Source\PSoC4/SPI.c ****     SPI_DisableRxInt();
1069:Generated_Source\PSoC4/SPI.c **** }
 857              		.loc 1 1069 0
 858              		@ sp needed
 859 0000 7047     		bx	lr
 860              		.cfi_endproc
 861              	.LFE21:
 862              		.size	SPI_DisableInt, .-SPI_DisableInt
 863 0002 C046     		.section	.text.SPI_SetInterruptMode,"ax",%progbits
 864              		.align	2
 865              		.global	SPI_SetInterruptMode
 866              		.code	16
ARM GAS  C:\Users\jrdia\AppData\Local\Temp\ccAscRNf.s 			page 36


 867              		.thumb_func
 868              		.type	SPI_SetInterruptMode, %function
 869              	SPI_SetInterruptMode:
 870              	.LFB22:
1070:Generated_Source\PSoC4/SPI.c **** 
1071:Generated_Source\PSoC4/SPI.c **** 
1072:Generated_Source\PSoC4/SPI.c **** /*******************************************************************************
1073:Generated_Source\PSoC4/SPI.c **** * Function Name: SPI_SetInterruptMode
1074:Generated_Source\PSoC4/SPI.c **** ********************************************************************************
1075:Generated_Source\PSoC4/SPI.c **** *
1076:Generated_Source\PSoC4/SPI.c **** * Summary:
1077:Generated_Source\PSoC4/SPI.c **** *  Configure which status bits trigger an interrupt event.
1078:Generated_Source\PSoC4/SPI.c **** *
1079:Generated_Source\PSoC4/SPI.c **** * Parameters:
1080:Generated_Source\PSoC4/SPI.c **** *  intSrc: An or'd combination of the desired status bit masks (defined in the
1081:Generated_Source\PSoC4/SPI.c **** *  header file).
1082:Generated_Source\PSoC4/SPI.c **** *
1083:Generated_Source\PSoC4/SPI.c **** * Return:
1084:Generated_Source\PSoC4/SPI.c **** *  None.
1085:Generated_Source\PSoC4/SPI.c **** *
1086:Generated_Source\PSoC4/SPI.c **** * Theory:
1087:Generated_Source\PSoC4/SPI.c **** *  Enables the output of specific status bits to the interrupt controller.
1088:Generated_Source\PSoC4/SPI.c **** *
1089:Generated_Source\PSoC4/SPI.c **** *******************************************************************************/
1090:Generated_Source\PSoC4/SPI.c **** void SPI_SetInterruptMode(uint8 intSrc) 
1091:Generated_Source\PSoC4/SPI.c **** {
 871              		.loc 1 1091 0
 872              		.cfi_startproc
 873              		@ args = 0, pretend = 0, frame = 0
 874              		@ frame_needed = 0, uses_anonymous_args = 0
 875              		@ link register save eliminated.
 876              	.LVL29:
1092:Generated_Source\PSoC4/SPI.c ****     SPI_TX_STATUS_MASK_REG  = (intSrc & ((uint8) ~SPI_STS_SPI_IDLE));
 877              		.loc 1 1092 0
 878 0000 1023     		movs	r3, #16
 879 0002 0200     		movs	r2, r0
 880 0004 9A43     		bics	r2, r3
 881 0006 024B     		ldr	r3, .L86
1093:Generated_Source\PSoC4/SPI.c ****     SPI_RX_STATUS_MASK_REG  =  intSrc;
1094:Generated_Source\PSoC4/SPI.c **** }
 882              		.loc 1 1094 0
 883              		@ sp needed
1092:Generated_Source\PSoC4/SPI.c ****     SPI_TX_STATUS_MASK_REG  = (intSrc & ((uint8) ~SPI_STS_SPI_IDLE));
 884              		.loc 1 1092 0
 885 0008 1A70     		strb	r2, [r3]
1093:Generated_Source\PSoC4/SPI.c ****     SPI_RX_STATUS_MASK_REG  =  intSrc;
 886              		.loc 1 1093 0
 887 000a 024B     		ldr	r3, .L86+4
 888 000c 1870     		strb	r0, [r3]
 889              		.loc 1 1094 0
 890 000e 7047     		bx	lr
 891              	.L87:
 892              		.align	2
 893              	.L86:
 894 0010 82000F40 		.word	1074724994
 895 0014 80000F40 		.word	1074724992
 896              		.cfi_endproc
ARM GAS  C:\Users\jrdia\AppData\Local\Temp\ccAscRNf.s 			page 37


 897              	.LFE22:
 898              		.size	SPI_SetInterruptMode, .-SPI_SetInterruptMode
 899              		.section	.text.SPI_ReadStatus,"ax",%progbits
 900              		.align	2
 901              		.global	SPI_ReadStatus
 902              		.code	16
 903              		.thumb_func
 904              		.type	SPI_ReadStatus, %function
 905              	SPI_ReadStatus:
 906              	.LFB23:
1095:Generated_Source\PSoC4/SPI.c **** 
1096:Generated_Source\PSoC4/SPI.c **** 
1097:Generated_Source\PSoC4/SPI.c **** /*******************************************************************************
1098:Generated_Source\PSoC4/SPI.c **** * Function Name: SPI_ReadStatus
1099:Generated_Source\PSoC4/SPI.c **** ********************************************************************************
1100:Generated_Source\PSoC4/SPI.c **** *
1101:Generated_Source\PSoC4/SPI.c **** * Summary:
1102:Generated_Source\PSoC4/SPI.c **** *  Read the status register for the component.
1103:Generated_Source\PSoC4/SPI.c **** *
1104:Generated_Source\PSoC4/SPI.c **** * Parameters:
1105:Generated_Source\PSoC4/SPI.c **** *  None.
1106:Generated_Source\PSoC4/SPI.c **** *
1107:Generated_Source\PSoC4/SPI.c **** * Return:
1108:Generated_Source\PSoC4/SPI.c **** *  Contents of the status register.
1109:Generated_Source\PSoC4/SPI.c **** *
1110:Generated_Source\PSoC4/SPI.c **** * Global variables:
1111:Generated_Source\PSoC4/SPI.c **** *  SPI_swStatus - used to store in software status register,
1112:Generated_Source\PSoC4/SPI.c **** *  modified every function call - resets to zero.
1113:Generated_Source\PSoC4/SPI.c **** *
1114:Generated_Source\PSoC4/SPI.c **** * Theory:
1115:Generated_Source\PSoC4/SPI.c **** *  Allows the user and the API to read the status register for error detection
1116:Generated_Source\PSoC4/SPI.c **** *  and flow control.
1117:Generated_Source\PSoC4/SPI.c **** *
1118:Generated_Source\PSoC4/SPI.c **** * Side Effects:
1119:Generated_Source\PSoC4/SPI.c **** *  Clear status register of the component.
1120:Generated_Source\PSoC4/SPI.c **** *
1121:Generated_Source\PSoC4/SPI.c **** * Reentrant:
1122:Generated_Source\PSoC4/SPI.c **** *  No.
1123:Generated_Source\PSoC4/SPI.c **** *
1124:Generated_Source\PSoC4/SPI.c **** *******************************************************************************/
1125:Generated_Source\PSoC4/SPI.c **** uint8 SPI_ReadStatus(void) 
1126:Generated_Source\PSoC4/SPI.c **** {
 907              		.loc 1 1126 0
 908              		.cfi_startproc
 909              		@ args = 0, pretend = 0, frame = 0
 910              		@ frame_needed = 0, uses_anonymous_args = 0
 911              		@ link register save eliminated.
1127:Generated_Source\PSoC4/SPI.c ****     uint8 tmpStatus;
1128:Generated_Source\PSoC4/SPI.c **** 
1129:Generated_Source\PSoC4/SPI.c ****     #if(SPI_TX_SOFTWARE_BUF_ENABLED || SPI_RX_SOFTWARE_BUF_ENABLED)
1130:Generated_Source\PSoC4/SPI.c **** 
1131:Generated_Source\PSoC4/SPI.c ****         SPI_DisableInt();
1132:Generated_Source\PSoC4/SPI.c **** 
1133:Generated_Source\PSoC4/SPI.c ****         tmpStatus  = SPI_GET_STATUS_RX(SPI_swStatusRx);
1134:Generated_Source\PSoC4/SPI.c ****         tmpStatus |= SPI_GET_STATUS_TX(SPI_swStatusTx);
1135:Generated_Source\PSoC4/SPI.c ****         tmpStatus &= ((uint8) ~SPI_STS_SPI_IDLE);
1136:Generated_Source\PSoC4/SPI.c **** 
ARM GAS  C:\Users\jrdia\AppData\Local\Temp\ccAscRNf.s 			page 38


1137:Generated_Source\PSoC4/SPI.c ****         SPI_swStatusTx = 0u;
1138:Generated_Source\PSoC4/SPI.c ****         SPI_swStatusRx = 0u;
1139:Generated_Source\PSoC4/SPI.c **** 
1140:Generated_Source\PSoC4/SPI.c ****         SPI_EnableInt();
1141:Generated_Source\PSoC4/SPI.c **** 
1142:Generated_Source\PSoC4/SPI.c ****     #else
1143:Generated_Source\PSoC4/SPI.c **** 
1144:Generated_Source\PSoC4/SPI.c ****         tmpStatus  = SPI_RX_STATUS_REG;
 912              		.loc 1 1144 0
 913 0000 034B     		ldr	r3, .L89
1145:Generated_Source\PSoC4/SPI.c ****         tmpStatus |= SPI_TX_STATUS_REG;
1146:Generated_Source\PSoC4/SPI.c ****         tmpStatus &= ((uint8) ~SPI_STS_SPI_IDLE);
1147:Generated_Source\PSoC4/SPI.c **** 
1148:Generated_Source\PSoC4/SPI.c ****     #endif /* (SPI_TX_SOFTWARE_BUF_ENABLED || SPI_RX_SOFTWARE_BUF_ENABLED) */
1149:Generated_Source\PSoC4/SPI.c **** 
1150:Generated_Source\PSoC4/SPI.c ****     return(tmpStatus);
1151:Generated_Source\PSoC4/SPI.c **** }
 914              		.loc 1 1151 0
 915              		@ sp needed
1144:Generated_Source\PSoC4/SPI.c ****         tmpStatus |= SPI_TX_STATUS_REG;
 916              		.loc 1 1144 0
 917 0002 1878     		ldrb	r0, [r3]
 918              	.LVL30:
1145:Generated_Source\PSoC4/SPI.c ****         tmpStatus |= SPI_TX_STATUS_REG;
 919              		.loc 1 1145 0
 920 0004 034B     		ldr	r3, .L89+4
 921 0006 1B78     		ldrb	r3, [r3]
 922 0008 1843     		orrs	r0, r3
 923              	.LVL31:
1150:Generated_Source\PSoC4/SPI.c **** }
 924              		.loc 1 1150 0
 925 000a 1023     		movs	r3, #16
 926 000c 9843     		bics	r0, r3
 927              	.LVL32:
 928              		.loc 1 1151 0
 929 000e 7047     		bx	lr
 930              	.L90:
 931              		.align	2
 932              	.L89:
 933 0010 60000F40 		.word	1074724960
 934 0014 62000F40 		.word	1074724962
 935              		.cfi_endproc
 936              	.LFE23:
 937              		.size	SPI_ReadStatus, .-SPI_ReadStatus
 938              		.comm	SPI_swStatusRx,1,1
 939              		.comm	SPI_swStatusTx,1,1
 940              		.global	SPI_initVar
 941              		.bss
 942              		.set	.LANCHOR0,. + 0
 943              		.type	SPI_initVar, %object
 944              		.size	SPI_initVar, 1
 945              	SPI_initVar:
 946 0000 00       		.space	1
 947              		.text
 948              	.Letext0:
 949              		.file 2 "Generated_Source\\PSoC4\\cytypes.h"
 950              		.file 3 "Generated_Source\\PSoC4\\CyLib.h"
ARM GAS  C:\Users\jrdia\AppData\Local\Temp\ccAscRNf.s 			page 39

