ARM GAS  C:\Users\jrdia\AppData\Local\Temp\ccN2jpui.s 			page 1


   1              		.syntax unified
   2              		.cpu cortex-m0
   3              		.fpu softvfp
   4              		.eabi_attribute 20, 1
   5              		.eabi_attribute 21, 1
   6              		.eabi_attribute 23, 3
   7              		.eabi_attribute 24, 1
   8              		.eabi_attribute 25, 1
   9              		.eabi_attribute 26, 1
  10              		.eabi_attribute 30, 2
  11              		.eabi_attribute 34, 0
  12              		.eabi_attribute 18, 4
  13              		.thumb
  14              		.syntax unified
  15              		.file	"SPI_PM.c"
  16              		.text
  17              	.Ltext0:
  18              		.cfi_sections	.debug_frame
  19              		.section	.text.SPI_SaveConfig,"ax",%progbits
  20              		.align	2
  21              		.global	SPI_SaveConfig
  22              		.code	16
  23              		.thumb_func
  24              		.type	SPI_SaveConfig, %function
  25              	SPI_SaveConfig:
  26              	.LFB5:
  27              		.cfi_startproc
  28              		@ args = 0, pretend = 0, frame = 0
  29              		@ frame_needed = 0, uses_anonymous_args = 0
  30              		@ link register save eliminated.
  31              		@ sp needed
  32 0000 7047     		bx	lr
  33              		.cfi_endproc
  34              	.LFE5:
  35              		.size	SPI_SaveConfig, .-SPI_SaveConfig
  36 0002 C046     		.section	.text.SPI_RestoreConfig,"ax",%progbits
  37              		.align	2
  38              		.global	SPI_RestoreConfig
  39              		.code	16
  40              		.thumb_func
  41              		.type	SPI_RestoreConfig, %function
  42              	SPI_RestoreConfig:
  43              	.LFB1:
  44              		.file 1 "Generated_Source\\PSoC4\\SPI_PM.c"
   1:Generated_Source\PSoC4/SPI_PM.c **** /*******************************************************************************
   2:Generated_Source\PSoC4/SPI_PM.c **** * File Name: SPI_PM.c
   3:Generated_Source\PSoC4/SPI_PM.c **** * Version 2.50
   4:Generated_Source\PSoC4/SPI_PM.c **** *
   5:Generated_Source\PSoC4/SPI_PM.c **** * Description:
   6:Generated_Source\PSoC4/SPI_PM.c **** *  This file contains the setup, control and status commands to support
   7:Generated_Source\PSoC4/SPI_PM.c **** *  component operations in low power mode.
   8:Generated_Source\PSoC4/SPI_PM.c **** *
   9:Generated_Source\PSoC4/SPI_PM.c **** * Note:
  10:Generated_Source\PSoC4/SPI_PM.c **** *
  11:Generated_Source\PSoC4/SPI_PM.c **** ********************************************************************************
  12:Generated_Source\PSoC4/SPI_PM.c **** * Copyright 2008-2015, Cypress Semiconductor Corporation.  All rights reserved.
  13:Generated_Source\PSoC4/SPI_PM.c **** * You may use this file only in accordance with the license, terms, conditions,
ARM GAS  C:\Users\jrdia\AppData\Local\Temp\ccN2jpui.s 			page 2


  14:Generated_Source\PSoC4/SPI_PM.c **** * disclaimers, and limitations in the end user license agreement accompanying
  15:Generated_Source\PSoC4/SPI_PM.c **** * the software package with which this file was provided.
  16:Generated_Source\PSoC4/SPI_PM.c **** *******************************************************************************/
  17:Generated_Source\PSoC4/SPI_PM.c **** 
  18:Generated_Source\PSoC4/SPI_PM.c **** #include "SPI_PVT.h"
  19:Generated_Source\PSoC4/SPI_PM.c **** 
  20:Generated_Source\PSoC4/SPI_PM.c **** static SPI_BACKUP_STRUCT SPI_backup =
  21:Generated_Source\PSoC4/SPI_PM.c **** {
  22:Generated_Source\PSoC4/SPI_PM.c ****     SPI_DISABLED,
  23:Generated_Source\PSoC4/SPI_PM.c ****     SPI_BITCTR_INIT,
  24:Generated_Source\PSoC4/SPI_PM.c **** };
  25:Generated_Source\PSoC4/SPI_PM.c **** 
  26:Generated_Source\PSoC4/SPI_PM.c **** 
  27:Generated_Source\PSoC4/SPI_PM.c **** /*******************************************************************************
  28:Generated_Source\PSoC4/SPI_PM.c **** * Function Name: SPI_SaveConfig
  29:Generated_Source\PSoC4/SPI_PM.c **** ********************************************************************************
  30:Generated_Source\PSoC4/SPI_PM.c **** *
  31:Generated_Source\PSoC4/SPI_PM.c **** * Summary:
  32:Generated_Source\PSoC4/SPI_PM.c **** *  Empty function. Included for consistency with other components.
  33:Generated_Source\PSoC4/SPI_PM.c **** *
  34:Generated_Source\PSoC4/SPI_PM.c **** * Parameters:
  35:Generated_Source\PSoC4/SPI_PM.c **** *  None.
  36:Generated_Source\PSoC4/SPI_PM.c **** *
  37:Generated_Source\PSoC4/SPI_PM.c **** * Return:
  38:Generated_Source\PSoC4/SPI_PM.c **** *  None.
  39:Generated_Source\PSoC4/SPI_PM.c **** *
  40:Generated_Source\PSoC4/SPI_PM.c **** *******************************************************************************/
  41:Generated_Source\PSoC4/SPI_PM.c **** void SPI_SaveConfig(void) 
  42:Generated_Source\PSoC4/SPI_PM.c **** {
  43:Generated_Source\PSoC4/SPI_PM.c **** 
  44:Generated_Source\PSoC4/SPI_PM.c **** }
  45:Generated_Source\PSoC4/SPI_PM.c **** 
  46:Generated_Source\PSoC4/SPI_PM.c **** 
  47:Generated_Source\PSoC4/SPI_PM.c **** /*******************************************************************************
  48:Generated_Source\PSoC4/SPI_PM.c **** * Function Name: SPI_RestoreConfig
  49:Generated_Source\PSoC4/SPI_PM.c **** ********************************************************************************
  50:Generated_Source\PSoC4/SPI_PM.c **** *
  51:Generated_Source\PSoC4/SPI_PM.c **** * Summary:
  52:Generated_Source\PSoC4/SPI_PM.c **** *  Empty function. Included for consistency with other components.
  53:Generated_Source\PSoC4/SPI_PM.c **** *
  54:Generated_Source\PSoC4/SPI_PM.c **** * Parameters:
  55:Generated_Source\PSoC4/SPI_PM.c **** *  None.
  56:Generated_Source\PSoC4/SPI_PM.c **** *
  57:Generated_Source\PSoC4/SPI_PM.c **** * Return:
  58:Generated_Source\PSoC4/SPI_PM.c **** *  None.
  59:Generated_Source\PSoC4/SPI_PM.c **** *
  60:Generated_Source\PSoC4/SPI_PM.c **** *******************************************************************************/
  61:Generated_Source\PSoC4/SPI_PM.c **** void SPI_RestoreConfig(void) 
  62:Generated_Source\PSoC4/SPI_PM.c **** {
  45              		.loc 1 62 0
  46              		.cfi_startproc
  47              		@ args = 0, pretend = 0, frame = 0
  48              		@ frame_needed = 0, uses_anonymous_args = 0
  49              		@ link register save eliminated.
  63:Generated_Source\PSoC4/SPI_PM.c **** 
  64:Generated_Source\PSoC4/SPI_PM.c **** }
  50              		.loc 1 64 0
ARM GAS  C:\Users\jrdia\AppData\Local\Temp\ccN2jpui.s 			page 3


  51              		@ sp needed
  52 0000 7047     		bx	lr
  53              		.cfi_endproc
  54              	.LFE1:
  55              		.size	SPI_RestoreConfig, .-SPI_RestoreConfig
  56 0002 C046     		.section	.text.SPI_Sleep,"ax",%progbits
  57              		.align	2
  58              		.global	SPI_Sleep
  59              		.code	16
  60              		.thumb_func
  61              		.type	SPI_Sleep, %function
  62              	SPI_Sleep:
  63              	.LFB2:
  65:Generated_Source\PSoC4/SPI_PM.c **** 
  66:Generated_Source\PSoC4/SPI_PM.c **** 
  67:Generated_Source\PSoC4/SPI_PM.c **** /*******************************************************************************
  68:Generated_Source\PSoC4/SPI_PM.c **** * Function Name: SPI_Sleep
  69:Generated_Source\PSoC4/SPI_PM.c **** ********************************************************************************
  70:Generated_Source\PSoC4/SPI_PM.c **** *
  71:Generated_Source\PSoC4/SPI_PM.c **** * Summary:
  72:Generated_Source\PSoC4/SPI_PM.c **** *  Prepare SPIM Component goes to sleep.
  73:Generated_Source\PSoC4/SPI_PM.c **** *
  74:Generated_Source\PSoC4/SPI_PM.c **** * Parameters:
  75:Generated_Source\PSoC4/SPI_PM.c **** *  None.
  76:Generated_Source\PSoC4/SPI_PM.c **** *
  77:Generated_Source\PSoC4/SPI_PM.c **** * Return:
  78:Generated_Source\PSoC4/SPI_PM.c **** *  None.
  79:Generated_Source\PSoC4/SPI_PM.c **** *
  80:Generated_Source\PSoC4/SPI_PM.c **** * Global Variables:
  81:Generated_Source\PSoC4/SPI_PM.c **** *  SPI_backup - modified when non-retention registers are saved.
  82:Generated_Source\PSoC4/SPI_PM.c **** *
  83:Generated_Source\PSoC4/SPI_PM.c **** * Reentrant:
  84:Generated_Source\PSoC4/SPI_PM.c **** *  No.
  85:Generated_Source\PSoC4/SPI_PM.c **** *
  86:Generated_Source\PSoC4/SPI_PM.c **** *******************************************************************************/
  87:Generated_Source\PSoC4/SPI_PM.c **** void SPI_Sleep(void) 
  88:Generated_Source\PSoC4/SPI_PM.c **** {
  64              		.loc 1 88 0
  65              		.cfi_startproc
  66              		@ args = 0, pretend = 0, frame = 0
  67              		@ frame_needed = 0, uses_anonymous_args = 0
  68 0000 10B5     		push	{r4, lr}
  69              		.cfi_def_cfa_offset 8
  70              		.cfi_offset 4, -8
  71              		.cfi_offset 14, -4
  89:Generated_Source\PSoC4/SPI_PM.c ****     /* Save components enable state */
  90:Generated_Source\PSoC4/SPI_PM.c ****     SPI_backup.enableState = ((uint8) SPI_IS_ENABLED);
  72              		.loc 1 90 0
  73 0002 044B     		ldr	r3, .L4
  74 0004 044A     		ldr	r2, .L4+4
  75 0006 1B78     		ldrb	r3, [r3]
  91:Generated_Source\PSoC4/SPI_PM.c **** 
  92:Generated_Source\PSoC4/SPI_PM.c ****     SPI_Stop();
  93:Generated_Source\PSoC4/SPI_PM.c **** }
  76              		.loc 1 93 0
  77              		@ sp needed
  90:Generated_Source\PSoC4/SPI_PM.c **** 
ARM GAS  C:\Users\jrdia\AppData\Local\Temp\ccN2jpui.s 			page 4


  78              		.loc 1 90 0
  79 0008 DB06     		lsls	r3, r3, #27
  80 000a DB0F     		lsrs	r3, r3, #31
  81 000c 1370     		strb	r3, [r2]
  92:Generated_Source\PSoC4/SPI_PM.c **** }
  82              		.loc 1 92 0
  83 000e FFF7FEFF 		bl	SPI_Stop
  84              	.LVL0:
  85              		.loc 1 93 0
  86 0012 10BD     		pop	{r4, pc}
  87              	.L5:
  88              		.align	2
  89              	.L4:
  90 0014 92000F40 		.word	1074725010
  91 0018 00000000 		.word	.LANCHOR0
  92              		.cfi_endproc
  93              	.LFE2:
  94              		.size	SPI_Sleep, .-SPI_Sleep
  95              		.section	.text.SPI_Wakeup,"ax",%progbits
  96              		.align	2
  97              		.global	SPI_Wakeup
  98              		.code	16
  99              		.thumb_func
 100              		.type	SPI_Wakeup, %function
 101              	SPI_Wakeup:
 102              	.LFB3:
  94:Generated_Source\PSoC4/SPI_PM.c **** 
  95:Generated_Source\PSoC4/SPI_PM.c **** 
  96:Generated_Source\PSoC4/SPI_PM.c **** /*******************************************************************************
  97:Generated_Source\PSoC4/SPI_PM.c **** * Function Name: SPI_Wakeup
  98:Generated_Source\PSoC4/SPI_PM.c **** ********************************************************************************
  99:Generated_Source\PSoC4/SPI_PM.c **** *
 100:Generated_Source\PSoC4/SPI_PM.c **** * Summary:
 101:Generated_Source\PSoC4/SPI_PM.c **** *  Prepare SPIM Component to wake up.
 102:Generated_Source\PSoC4/SPI_PM.c **** *
 103:Generated_Source\PSoC4/SPI_PM.c **** * Parameters:
 104:Generated_Source\PSoC4/SPI_PM.c **** *  None.
 105:Generated_Source\PSoC4/SPI_PM.c **** *
 106:Generated_Source\PSoC4/SPI_PM.c **** * Return:
 107:Generated_Source\PSoC4/SPI_PM.c **** *  None.
 108:Generated_Source\PSoC4/SPI_PM.c **** *
 109:Generated_Source\PSoC4/SPI_PM.c **** * Global Variables:
 110:Generated_Source\PSoC4/SPI_PM.c **** *  SPI_backup - used when non-retention registers are restored.
 111:Generated_Source\PSoC4/SPI_PM.c **** *  SPI_txBufferWrite - modified every function call - resets to
 112:Generated_Source\PSoC4/SPI_PM.c **** *  zero.
 113:Generated_Source\PSoC4/SPI_PM.c **** *  SPI_txBufferRead - modified every function call - resets to
 114:Generated_Source\PSoC4/SPI_PM.c **** *  zero.
 115:Generated_Source\PSoC4/SPI_PM.c **** *  SPI_rxBufferWrite - modified every function call - resets to
 116:Generated_Source\PSoC4/SPI_PM.c **** *  zero.
 117:Generated_Source\PSoC4/SPI_PM.c **** *  SPI_rxBufferRead - modified every function call - resets to
 118:Generated_Source\PSoC4/SPI_PM.c **** *  zero.
 119:Generated_Source\PSoC4/SPI_PM.c **** *
 120:Generated_Source\PSoC4/SPI_PM.c **** * Reentrant:
 121:Generated_Source\PSoC4/SPI_PM.c **** *  No.
 122:Generated_Source\PSoC4/SPI_PM.c **** *
 123:Generated_Source\PSoC4/SPI_PM.c **** *******************************************************************************/
 124:Generated_Source\PSoC4/SPI_PM.c **** void SPI_Wakeup(void) 
ARM GAS  C:\Users\jrdia\AppData\Local\Temp\ccN2jpui.s 			page 5


 125:Generated_Source\PSoC4/SPI_PM.c **** {
 103              		.loc 1 125 0
 104              		.cfi_startproc
 105              		@ args = 0, pretend = 0, frame = 0
 106              		@ frame_needed = 0, uses_anonymous_args = 0
 107 0000 10B5     		push	{r4, lr}
 108              		.cfi_def_cfa_offset 8
 109              		.cfi_offset 4, -8
 110              		.cfi_offset 14, -4
 126:Generated_Source\PSoC4/SPI_PM.c ****     #if(SPI_RX_SOFTWARE_BUF_ENABLED)
 127:Generated_Source\PSoC4/SPI_PM.c ****         SPI_rxBufferFull  = 0u;
 128:Generated_Source\PSoC4/SPI_PM.c ****         SPI_rxBufferRead  = 0u;
 129:Generated_Source\PSoC4/SPI_PM.c ****         SPI_rxBufferWrite = 0u;
 130:Generated_Source\PSoC4/SPI_PM.c ****     #endif /* (SPI_RX_SOFTWARE_BUF_ENABLED) */
 131:Generated_Source\PSoC4/SPI_PM.c **** 
 132:Generated_Source\PSoC4/SPI_PM.c ****     #if(SPI_TX_SOFTWARE_BUF_ENABLED)
 133:Generated_Source\PSoC4/SPI_PM.c ****         SPI_txBufferFull  = 0u;
 134:Generated_Source\PSoC4/SPI_PM.c ****         SPI_txBufferRead  = 0u;
 135:Generated_Source\PSoC4/SPI_PM.c ****         SPI_txBufferWrite = 0u;
 136:Generated_Source\PSoC4/SPI_PM.c ****     #endif /* (SPI_TX_SOFTWARE_BUF_ENABLED) */
 137:Generated_Source\PSoC4/SPI_PM.c **** 
 138:Generated_Source\PSoC4/SPI_PM.c ****     /* Clear any data from the RX and TX FIFO */
 139:Generated_Source\PSoC4/SPI_PM.c ****     SPI_ClearFIFO();
 111              		.loc 1 139 0
 112 0002 FFF7FEFF 		bl	SPI_ClearFIFO
 113              	.LVL1:
 140:Generated_Source\PSoC4/SPI_PM.c **** 
 141:Generated_Source\PSoC4/SPI_PM.c ****     /* Restore components block enable state */
 142:Generated_Source\PSoC4/SPI_PM.c ****     if(0u != SPI_backup.enableState)
 114              		.loc 1 142 0
 115 0006 034B     		ldr	r3, .L12
 116 0008 1B78     		ldrb	r3, [r3]
 117 000a 002B     		cmp	r3, #0
 118 000c 01D0     		beq	.L6
 143:Generated_Source\PSoC4/SPI_PM.c ****     {
 144:Generated_Source\PSoC4/SPI_PM.c ****         SPI_Enable();
 119              		.loc 1 144 0
 120 000e FFF7FEFF 		bl	SPI_Enable
 121              	.LVL2:
 122              	.L6:
 145:Generated_Source\PSoC4/SPI_PM.c ****     }
 146:Generated_Source\PSoC4/SPI_PM.c **** }
 123              		.loc 1 146 0
 124              		@ sp needed
 125 0012 10BD     		pop	{r4, pc}
 126              	.L13:
 127              		.align	2
 128              	.L12:
 129 0014 00000000 		.word	.LANCHOR0
 130              		.cfi_endproc
 131              	.LFE3:
 132              		.size	SPI_Wakeup, .-SPI_Wakeup
 133              		.data
 134              		.align	2
 135              		.set	.LANCHOR0,. + 0
 136              		.type	SPI_backup, %object
 137              		.size	SPI_backup, 2
ARM GAS  C:\Users\jrdia\AppData\Local\Temp\ccN2jpui.s 			page 6


 138              	SPI_backup:
 139 0000 00       		.byte	0
 140 0001 0F       		.byte	15
 141              		.text
 142              	.Letext0:
 143              		.file 2 "Generated_Source\\PSoC4\\cytypes.h"
 144              		.file 3 "Generated_Source\\PSoC4\\SPI.h"