ARM GAS  C:\Users\jrdia\AppData\Local\Temp\ccpDBDWb.s 			page 1


   1              		.syntax unified
   2              		.cpu cortex-m0
   3              		.fpu softvfp
   4              		.eabi_attribute 20, 1
   5              		.eabi_attribute 21, 1
   6              		.eabi_attribute 23, 3
   7              		.eabi_attribute 24, 1
   8              		.eabi_attribute 25, 1
   9              		.eabi_attribute 26, 1
  10              		.eabi_attribute 30, 2
  11              		.eabi_attribute 34, 0
  12              		.eabi_attribute 18, 4
  13              		.thumb
  14              		.syntax unified
  15              		.file	"TCPWM_1.c"
  16              		.text
  17              	.Ltext0:
  18              		.cfi_sections	.debug_frame
  19              		.section	.text.TCPWM_1_Init,"ax",%progbits
  20              		.align	2
  21              		.global	TCPWM_1_Init
  22              		.code	16
  23              		.thumb_func
  24              		.type	TCPWM_1_Init, %function
  25              	TCPWM_1_Init:
  26              	.LFB0:
  27              		.file 1 "Generated_Source\\PSoC4\\TCPWM_1.c"
   1:Generated_Source\PSoC4/TCPWM_1.c **** /*******************************************************************************
   2:Generated_Source\PSoC4/TCPWM_1.c **** * File Name: TCPWM_1.c
   3:Generated_Source\PSoC4/TCPWM_1.c **** * Version 2.10
   4:Generated_Source\PSoC4/TCPWM_1.c **** *
   5:Generated_Source\PSoC4/TCPWM_1.c **** * Description:
   6:Generated_Source\PSoC4/TCPWM_1.c **** *  This file provides the source code to the API for the TCPWM_1
   7:Generated_Source\PSoC4/TCPWM_1.c **** *  component
   8:Generated_Source\PSoC4/TCPWM_1.c **** *
   9:Generated_Source\PSoC4/TCPWM_1.c **** * Note:
  10:Generated_Source\PSoC4/TCPWM_1.c **** *  None
  11:Generated_Source\PSoC4/TCPWM_1.c **** *
  12:Generated_Source\PSoC4/TCPWM_1.c **** ********************************************************************************
  13:Generated_Source\PSoC4/TCPWM_1.c **** * Copyright 2013-2015, Cypress Semiconductor Corporation.  All rights reserved.
  14:Generated_Source\PSoC4/TCPWM_1.c **** * You may use this file only in accordance with the license, terms, conditions,
  15:Generated_Source\PSoC4/TCPWM_1.c **** * disclaimers, and limitations in the end user license agreement accompanying
  16:Generated_Source\PSoC4/TCPWM_1.c **** * the software package with which this file was provided.
  17:Generated_Source\PSoC4/TCPWM_1.c **** *******************************************************************************/
  18:Generated_Source\PSoC4/TCPWM_1.c **** 
  19:Generated_Source\PSoC4/TCPWM_1.c **** #include "TCPWM_1.h"
  20:Generated_Source\PSoC4/TCPWM_1.c **** 
  21:Generated_Source\PSoC4/TCPWM_1.c **** uint8 TCPWM_1_initVar = 0u;
  22:Generated_Source\PSoC4/TCPWM_1.c **** 
  23:Generated_Source\PSoC4/TCPWM_1.c **** 
  24:Generated_Source\PSoC4/TCPWM_1.c **** /*******************************************************************************
  25:Generated_Source\PSoC4/TCPWM_1.c **** * Function Name: TCPWM_1_Init
  26:Generated_Source\PSoC4/TCPWM_1.c **** ********************************************************************************
  27:Generated_Source\PSoC4/TCPWM_1.c **** *
  28:Generated_Source\PSoC4/TCPWM_1.c **** * Summary:
  29:Generated_Source\PSoC4/TCPWM_1.c **** *  Initialize/Restore default TCPWM_1 configuration.
  30:Generated_Source\PSoC4/TCPWM_1.c **** *
ARM GAS  C:\Users\jrdia\AppData\Local\Temp\ccpDBDWb.s 			page 2


  31:Generated_Source\PSoC4/TCPWM_1.c **** * Parameters:
  32:Generated_Source\PSoC4/TCPWM_1.c **** *  None
  33:Generated_Source\PSoC4/TCPWM_1.c **** *
  34:Generated_Source\PSoC4/TCPWM_1.c **** * Return:
  35:Generated_Source\PSoC4/TCPWM_1.c **** *  None
  36:Generated_Source\PSoC4/TCPWM_1.c **** *
  37:Generated_Source\PSoC4/TCPWM_1.c **** *******************************************************************************/
  38:Generated_Source\PSoC4/TCPWM_1.c **** void TCPWM_1_Init(void)
  39:Generated_Source\PSoC4/TCPWM_1.c **** {
  28              		.loc 1 39 0
  29              		.cfi_startproc
  30              		@ args = 0, pretend = 0, frame = 0
  31              		@ frame_needed = 0, uses_anonymous_args = 0
  32              		@ link register save eliminated.
  40:Generated_Source\PSoC4/TCPWM_1.c **** 
  41:Generated_Source\PSoC4/TCPWM_1.c ****     /* Set values from customizer to CTRL */
  42:Generated_Source\PSoC4/TCPWM_1.c ****     #if (TCPWM_1__QUAD == TCPWM_1_CONFIG)
  43:Generated_Source\PSoC4/TCPWM_1.c ****         TCPWM_1_CONTROL_REG = TCPWM_1_CTRL_QUAD_BASE_CONFIG;
  44:Generated_Source\PSoC4/TCPWM_1.c ****         
  45:Generated_Source\PSoC4/TCPWM_1.c ****         /* Set values from customizer to CTRL1 */
  46:Generated_Source\PSoC4/TCPWM_1.c ****         TCPWM_1_TRIG_CONTROL1_REG  = TCPWM_1_QUAD_SIGNALS_MODES;
  47:Generated_Source\PSoC4/TCPWM_1.c **** 
  48:Generated_Source\PSoC4/TCPWM_1.c ****         /* Set values from customizer to INTR */
  49:Generated_Source\PSoC4/TCPWM_1.c ****         TCPWM_1_SetInterruptMode(TCPWM_1_QUAD_INTERRUPT_MASK);
  50:Generated_Source\PSoC4/TCPWM_1.c ****         
  51:Generated_Source\PSoC4/TCPWM_1.c ****          /* Set other values */
  52:Generated_Source\PSoC4/TCPWM_1.c ****         TCPWM_1_SetCounterMode(TCPWM_1_COUNT_DOWN);
  53:Generated_Source\PSoC4/TCPWM_1.c ****         TCPWM_1_WritePeriod(TCPWM_1_QUAD_PERIOD_INIT_VALUE);
  54:Generated_Source\PSoC4/TCPWM_1.c ****         TCPWM_1_WriteCounter(TCPWM_1_QUAD_PERIOD_INIT_VALUE);
  55:Generated_Source\PSoC4/TCPWM_1.c ****     #endif  /* (TCPWM_1__QUAD == TCPWM_1_CONFIG) */
  56:Generated_Source\PSoC4/TCPWM_1.c **** 
  57:Generated_Source\PSoC4/TCPWM_1.c ****     #if (TCPWM_1__TIMER == TCPWM_1_CONFIG)
  58:Generated_Source\PSoC4/TCPWM_1.c ****         TCPWM_1_CONTROL_REG = TCPWM_1_CTRL_TIMER_BASE_CONFIG;
  33              		.loc 1 58 0
  34 0000 8022     		movs	r2, #128
  35 0002 084B     		ldr	r3, .L2
  36 0004 9204     		lsls	r2, r2, #18
  37 0006 1A60     		str	r2, [r3]
  59:Generated_Source\PSoC4/TCPWM_1.c ****         
  60:Generated_Source\PSoC4/TCPWM_1.c ****         /* Set values from customizer to CTRL1 */
  61:Generated_Source\PSoC4/TCPWM_1.c ****         TCPWM_1_TRIG_CONTROL1_REG  = TCPWM_1_TIMER_SIGNALS_MODES;
  38              		.loc 1 61 0
  39 0008 0C22     		movs	r2, #12
  40 000a 074B     		ldr	r3, .L2+4
  62:Generated_Source\PSoC4/TCPWM_1.c ****     
  63:Generated_Source\PSoC4/TCPWM_1.c ****         /* Set values from customizer to INTR */
  64:Generated_Source\PSoC4/TCPWM_1.c ****         TCPWM_1_SetInterruptMode(TCPWM_1_TC_INTERRUPT_MASK);
  65:Generated_Source\PSoC4/TCPWM_1.c ****         
  66:Generated_Source\PSoC4/TCPWM_1.c ****         /* Set other values from customizer */
  67:Generated_Source\PSoC4/TCPWM_1.c ****         TCPWM_1_WritePeriod(TCPWM_1_TC_PERIOD_VALUE );
  68:Generated_Source\PSoC4/TCPWM_1.c **** 
  69:Generated_Source\PSoC4/TCPWM_1.c ****         #if (TCPWM_1__COMPARE == TCPWM_1_TC_COMP_CAP_MODE)
  70:Generated_Source\PSoC4/TCPWM_1.c ****             TCPWM_1_WriteCompare(TCPWM_1_TC_COMPARE_VALUE);
  71:Generated_Source\PSoC4/TCPWM_1.c **** 
  72:Generated_Source\PSoC4/TCPWM_1.c ****             #if (1u == TCPWM_1_TC_COMPARE_SWAP)
  73:Generated_Source\PSoC4/TCPWM_1.c ****                 TCPWM_1_SetCompareSwap(1u);
  74:Generated_Source\PSoC4/TCPWM_1.c ****                 TCPWM_1_WriteCompareBuf(TCPWM_1_TC_COMPARE_BUF_VALUE);
ARM GAS  C:\Users\jrdia\AppData\Local\Temp\ccpDBDWb.s 			page 3


  75:Generated_Source\PSoC4/TCPWM_1.c ****             #endif  /* (1u == TCPWM_1_TC_COMPARE_SWAP) */
  76:Generated_Source\PSoC4/TCPWM_1.c ****         #endif  /* (TCPWM_1__COMPARE == TCPWM_1_TC_COMP_CAP_MODE) */
  77:Generated_Source\PSoC4/TCPWM_1.c **** 
  78:Generated_Source\PSoC4/TCPWM_1.c ****         /* Initialize counter value */
  79:Generated_Source\PSoC4/TCPWM_1.c ****         #if (TCPWM_1_CY_TCPWM_V2 && TCPWM_1_TIMER_UPDOWN_CNT_USED && !TCPWM_1_CY_TCPWM_4000)
  80:Generated_Source\PSoC4/TCPWM_1.c ****             TCPWM_1_WriteCounter(1u);
  81:Generated_Source\PSoC4/TCPWM_1.c ****         #elif(TCPWM_1__COUNT_DOWN == TCPWM_1_TC_COUNTER_MODE)
  82:Generated_Source\PSoC4/TCPWM_1.c ****             TCPWM_1_WriteCounter(TCPWM_1_TC_PERIOD_VALUE);
  83:Generated_Source\PSoC4/TCPWM_1.c ****         #else
  84:Generated_Source\PSoC4/TCPWM_1.c ****             TCPWM_1_WriteCounter(0u);
  85:Generated_Source\PSoC4/TCPWM_1.c ****         #endif /* (TCPWM_1_CY_TCPWM_V2 && TCPWM_1_TIMER_UPDOWN_CNT_USED && !TCPWM_1_CY_TCPWM_4000) 
  86:Generated_Source\PSoC4/TCPWM_1.c ****     #endif  /* (TCPWM_1__TIMER == TCPWM_1_CONFIG) */
  87:Generated_Source\PSoC4/TCPWM_1.c **** 
  88:Generated_Source\PSoC4/TCPWM_1.c ****     #if (TCPWM_1__PWM_SEL == TCPWM_1_CONFIG)
  89:Generated_Source\PSoC4/TCPWM_1.c ****         TCPWM_1_CONTROL_REG = TCPWM_1_CTRL_PWM_BASE_CONFIG;
  90:Generated_Source\PSoC4/TCPWM_1.c **** 
  91:Generated_Source\PSoC4/TCPWM_1.c ****         #if (TCPWM_1__PWM_PR == TCPWM_1_PWM_MODE)
  92:Generated_Source\PSoC4/TCPWM_1.c ****             TCPWM_1_CONTROL_REG |= TCPWM_1_CTRL_PWM_RUN_MODE;
  93:Generated_Source\PSoC4/TCPWM_1.c ****             TCPWM_1_WriteCounter(TCPWM_1_PWM_PR_INIT_VALUE);
  94:Generated_Source\PSoC4/TCPWM_1.c ****         #else
  95:Generated_Source\PSoC4/TCPWM_1.c ****             TCPWM_1_CONTROL_REG |= TCPWM_1_CTRL_PWM_ALIGN | TCPWM_1_CTRL_PWM_KILL_EVENT;
  96:Generated_Source\PSoC4/TCPWM_1.c ****             
  97:Generated_Source\PSoC4/TCPWM_1.c ****             /* Initialize counter value */
  98:Generated_Source\PSoC4/TCPWM_1.c ****             #if (TCPWM_1_CY_TCPWM_V2 && TCPWM_1_PWM_UPDOWN_CNT_USED && !TCPWM_1_CY_TCPWM_4000)
  99:Generated_Source\PSoC4/TCPWM_1.c ****                 TCPWM_1_WriteCounter(1u);
 100:Generated_Source\PSoC4/TCPWM_1.c ****             #elif (TCPWM_1__RIGHT == TCPWM_1_PWM_ALIGN)
 101:Generated_Source\PSoC4/TCPWM_1.c ****                 TCPWM_1_WriteCounter(TCPWM_1_PWM_PERIOD_VALUE);
 102:Generated_Source\PSoC4/TCPWM_1.c ****             #else 
 103:Generated_Source\PSoC4/TCPWM_1.c ****                 TCPWM_1_WriteCounter(0u);
 104:Generated_Source\PSoC4/TCPWM_1.c ****             #endif  /* (TCPWM_1_CY_TCPWM_V2 && TCPWM_1_PWM_UPDOWN_CNT_USED && !TCPWM_1_CY_TCPWM_400
 105:Generated_Source\PSoC4/TCPWM_1.c ****         #endif  /* (TCPWM_1__PWM_PR == TCPWM_1_PWM_MODE) */
 106:Generated_Source\PSoC4/TCPWM_1.c **** 
 107:Generated_Source\PSoC4/TCPWM_1.c ****         #if (TCPWM_1__PWM_DT == TCPWM_1_PWM_MODE)
 108:Generated_Source\PSoC4/TCPWM_1.c ****             TCPWM_1_CONTROL_REG |= TCPWM_1_CTRL_PWM_DEAD_TIME_CYCLE;
 109:Generated_Source\PSoC4/TCPWM_1.c ****         #endif  /* (TCPWM_1__PWM_DT == TCPWM_1_PWM_MODE) */
 110:Generated_Source\PSoC4/TCPWM_1.c **** 
 111:Generated_Source\PSoC4/TCPWM_1.c ****         #if (TCPWM_1__PWM == TCPWM_1_PWM_MODE)
 112:Generated_Source\PSoC4/TCPWM_1.c ****             TCPWM_1_CONTROL_REG |= TCPWM_1_CTRL_PWM_PRESCALER;
 113:Generated_Source\PSoC4/TCPWM_1.c ****         #endif  /* (TCPWM_1__PWM == TCPWM_1_PWM_MODE) */
 114:Generated_Source\PSoC4/TCPWM_1.c **** 
 115:Generated_Source\PSoC4/TCPWM_1.c ****         /* Set values from customizer to CTRL1 */
 116:Generated_Source\PSoC4/TCPWM_1.c ****         TCPWM_1_TRIG_CONTROL1_REG  = TCPWM_1_PWM_SIGNALS_MODES;
 117:Generated_Source\PSoC4/TCPWM_1.c ****     
 118:Generated_Source\PSoC4/TCPWM_1.c ****         /* Set values from customizer to INTR */
 119:Generated_Source\PSoC4/TCPWM_1.c ****         TCPWM_1_SetInterruptMode(TCPWM_1_PWM_INTERRUPT_MASK);
 120:Generated_Source\PSoC4/TCPWM_1.c **** 
 121:Generated_Source\PSoC4/TCPWM_1.c ****         /* Set values from customizer to CTRL2 */
 122:Generated_Source\PSoC4/TCPWM_1.c ****         #if (TCPWM_1__PWM_PR == TCPWM_1_PWM_MODE)
 123:Generated_Source\PSoC4/TCPWM_1.c ****             TCPWM_1_TRIG_CONTROL2_REG =
 124:Generated_Source\PSoC4/TCPWM_1.c ****                     (TCPWM_1_CC_MATCH_NO_CHANGE    |
 125:Generated_Source\PSoC4/TCPWM_1.c ****                     TCPWM_1_OVERLOW_NO_CHANGE      |
 126:Generated_Source\PSoC4/TCPWM_1.c ****                     TCPWM_1_UNDERFLOW_NO_CHANGE);
 127:Generated_Source\PSoC4/TCPWM_1.c ****         #else
 128:Generated_Source\PSoC4/TCPWM_1.c ****             #if (TCPWM_1__LEFT == TCPWM_1_PWM_ALIGN)
 129:Generated_Source\PSoC4/TCPWM_1.c ****                 TCPWM_1_TRIG_CONTROL2_REG = TCPWM_1_PWM_MODE_LEFT;
 130:Generated_Source\PSoC4/TCPWM_1.c ****             #endif  /* ( TCPWM_1_PWM_LEFT == TCPWM_1_PWM_ALIGN) */
 131:Generated_Source\PSoC4/TCPWM_1.c **** 
ARM GAS  C:\Users\jrdia\AppData\Local\Temp\ccpDBDWb.s 			page 4


 132:Generated_Source\PSoC4/TCPWM_1.c ****             #if (TCPWM_1__RIGHT == TCPWM_1_PWM_ALIGN)
 133:Generated_Source\PSoC4/TCPWM_1.c ****                 TCPWM_1_TRIG_CONTROL2_REG = TCPWM_1_PWM_MODE_RIGHT;
 134:Generated_Source\PSoC4/TCPWM_1.c ****             #endif  /* ( TCPWM_1_PWM_RIGHT == TCPWM_1_PWM_ALIGN) */
 135:Generated_Source\PSoC4/TCPWM_1.c **** 
 136:Generated_Source\PSoC4/TCPWM_1.c ****             #if (TCPWM_1__CENTER == TCPWM_1_PWM_ALIGN)
 137:Generated_Source\PSoC4/TCPWM_1.c ****                 TCPWM_1_TRIG_CONTROL2_REG = TCPWM_1_PWM_MODE_CENTER;
 138:Generated_Source\PSoC4/TCPWM_1.c ****             #endif  /* ( TCPWM_1_PWM_CENTER == TCPWM_1_PWM_ALIGN) */
 139:Generated_Source\PSoC4/TCPWM_1.c **** 
 140:Generated_Source\PSoC4/TCPWM_1.c ****             #if (TCPWM_1__ASYMMETRIC == TCPWM_1_PWM_ALIGN)
 141:Generated_Source\PSoC4/TCPWM_1.c ****                 TCPWM_1_TRIG_CONTROL2_REG = TCPWM_1_PWM_MODE_ASYM;
 142:Generated_Source\PSoC4/TCPWM_1.c ****             #endif  /* (TCPWM_1__ASYMMETRIC == TCPWM_1_PWM_ALIGN) */
 143:Generated_Source\PSoC4/TCPWM_1.c ****         #endif  /* (TCPWM_1__PWM_PR == TCPWM_1_PWM_MODE) */
 144:Generated_Source\PSoC4/TCPWM_1.c **** 
 145:Generated_Source\PSoC4/TCPWM_1.c ****         /* Set other values from customizer */
 146:Generated_Source\PSoC4/TCPWM_1.c ****         TCPWM_1_WritePeriod(TCPWM_1_PWM_PERIOD_VALUE );
 147:Generated_Source\PSoC4/TCPWM_1.c ****         TCPWM_1_WriteCompare(TCPWM_1_PWM_COMPARE_VALUE);
 148:Generated_Source\PSoC4/TCPWM_1.c **** 
 149:Generated_Source\PSoC4/TCPWM_1.c ****         #if (1u == TCPWM_1_PWM_COMPARE_SWAP)
 150:Generated_Source\PSoC4/TCPWM_1.c ****             TCPWM_1_SetCompareSwap(1u);
 151:Generated_Source\PSoC4/TCPWM_1.c ****             TCPWM_1_WriteCompareBuf(TCPWM_1_PWM_COMPARE_BUF_VALUE);
 152:Generated_Source\PSoC4/TCPWM_1.c ****         #endif  /* (1u == TCPWM_1_PWM_COMPARE_SWAP) */
 153:Generated_Source\PSoC4/TCPWM_1.c **** 
 154:Generated_Source\PSoC4/TCPWM_1.c ****         #if (1u == TCPWM_1_PWM_PERIOD_SWAP)
 155:Generated_Source\PSoC4/TCPWM_1.c ****             TCPWM_1_SetPeriodSwap(1u);
 156:Generated_Source\PSoC4/TCPWM_1.c ****             TCPWM_1_WritePeriodBuf(TCPWM_1_PWM_PERIOD_BUF_VALUE);
 157:Generated_Source\PSoC4/TCPWM_1.c ****         #endif  /* (1u == TCPWM_1_PWM_PERIOD_SWAP) */
 158:Generated_Source\PSoC4/TCPWM_1.c ****     #endif  /* (TCPWM_1__PWM_SEL == TCPWM_1_CONFIG) */
 159:Generated_Source\PSoC4/TCPWM_1.c ****     
 160:Generated_Source\PSoC4/TCPWM_1.c **** }
  41              		.loc 1 160 0
  42              		@ sp needed
  61:Generated_Source\PSoC4/TCPWM_1.c ****     
  43              		.loc 1 61 0
  44 000c 1A60     		str	r2, [r3]
  45              	.LVL0:
  46              	.LBB18:
  47              	.LBB19:
 161:Generated_Source\PSoC4/TCPWM_1.c **** 
 162:Generated_Source\PSoC4/TCPWM_1.c **** 
 163:Generated_Source\PSoC4/TCPWM_1.c **** /*******************************************************************************
 164:Generated_Source\PSoC4/TCPWM_1.c **** * Function Name: TCPWM_1_Enable
 165:Generated_Source\PSoC4/TCPWM_1.c **** ********************************************************************************
 166:Generated_Source\PSoC4/TCPWM_1.c **** *
 167:Generated_Source\PSoC4/TCPWM_1.c **** * Summary:
 168:Generated_Source\PSoC4/TCPWM_1.c **** *  Enables the TCPWM_1.
 169:Generated_Source\PSoC4/TCPWM_1.c **** *
 170:Generated_Source\PSoC4/TCPWM_1.c **** * Parameters:
 171:Generated_Source\PSoC4/TCPWM_1.c **** *  None
 172:Generated_Source\PSoC4/TCPWM_1.c **** *
 173:Generated_Source\PSoC4/TCPWM_1.c **** * Return:
 174:Generated_Source\PSoC4/TCPWM_1.c **** *  None
 175:Generated_Source\PSoC4/TCPWM_1.c **** *
 176:Generated_Source\PSoC4/TCPWM_1.c **** *******************************************************************************/
 177:Generated_Source\PSoC4/TCPWM_1.c **** void TCPWM_1_Enable(void)
 178:Generated_Source\PSoC4/TCPWM_1.c **** {
 179:Generated_Source\PSoC4/TCPWM_1.c ****     uint8 enableInterrupts;
 180:Generated_Source\PSoC4/TCPWM_1.c **** 
ARM GAS  C:\Users\jrdia\AppData\Local\Temp\ccpDBDWb.s 			page 5


 181:Generated_Source\PSoC4/TCPWM_1.c ****     enableInterrupts = CyEnterCriticalSection();
 182:Generated_Source\PSoC4/TCPWM_1.c ****     TCPWM_1_BLOCK_CONTROL_REG |= TCPWM_1_MASK;
 183:Generated_Source\PSoC4/TCPWM_1.c ****     CyExitCriticalSection(enableInterrupts);
 184:Generated_Source\PSoC4/TCPWM_1.c **** 
 185:Generated_Source\PSoC4/TCPWM_1.c ****     /* Start Timer or PWM if start input is absent */
 186:Generated_Source\PSoC4/TCPWM_1.c ****     #if (TCPWM_1__PWM_SEL == TCPWM_1_CONFIG)
 187:Generated_Source\PSoC4/TCPWM_1.c ****         #if (0u == TCPWM_1_PWM_START_SIGNAL_PRESENT)
 188:Generated_Source\PSoC4/TCPWM_1.c ****             TCPWM_1_TriggerCommand(TCPWM_1_MASK, TCPWM_1_CMD_START);
 189:Generated_Source\PSoC4/TCPWM_1.c ****         #endif /* (0u == TCPWM_1_PWM_START_SIGNAL_PRESENT) */
 190:Generated_Source\PSoC4/TCPWM_1.c ****     #endif /* (TCPWM_1__PWM_SEL == TCPWM_1_CONFIG) */
 191:Generated_Source\PSoC4/TCPWM_1.c **** 
 192:Generated_Source\PSoC4/TCPWM_1.c ****     #if (TCPWM_1__TIMER == TCPWM_1_CONFIG)
 193:Generated_Source\PSoC4/TCPWM_1.c ****         #if (0u == TCPWM_1_TC_START_SIGNAL_PRESENT)
 194:Generated_Source\PSoC4/TCPWM_1.c ****             TCPWM_1_TriggerCommand(TCPWM_1_MASK, TCPWM_1_CMD_START);
 195:Generated_Source\PSoC4/TCPWM_1.c ****         #endif /* (0u == TCPWM_1_TC_START_SIGNAL_PRESENT) */
 196:Generated_Source\PSoC4/TCPWM_1.c ****     #endif /* (TCPWM_1__TIMER == TCPWM_1_CONFIG) */
 197:Generated_Source\PSoC4/TCPWM_1.c ****     
 198:Generated_Source\PSoC4/TCPWM_1.c ****     #if (TCPWM_1__QUAD == TCPWM_1_CONFIG)
 199:Generated_Source\PSoC4/TCPWM_1.c ****         #if (0u != TCPWM_1_QUAD_AUTO_START)
 200:Generated_Source\PSoC4/TCPWM_1.c ****             TCPWM_1_TriggerCommand(TCPWM_1_MASK, TCPWM_1_CMD_RELOAD);
 201:Generated_Source\PSoC4/TCPWM_1.c ****         #endif /* (0u != TCPWM_1_QUAD_AUTO_START) */
 202:Generated_Source\PSoC4/TCPWM_1.c ****     #endif  /* (TCPWM_1__QUAD == TCPWM_1_CONFIG) */
 203:Generated_Source\PSoC4/TCPWM_1.c **** }
 204:Generated_Source\PSoC4/TCPWM_1.c **** 
 205:Generated_Source\PSoC4/TCPWM_1.c **** 
 206:Generated_Source\PSoC4/TCPWM_1.c **** /*******************************************************************************
 207:Generated_Source\PSoC4/TCPWM_1.c **** * Function Name: TCPWM_1_Start
 208:Generated_Source\PSoC4/TCPWM_1.c **** ********************************************************************************
 209:Generated_Source\PSoC4/TCPWM_1.c **** *
 210:Generated_Source\PSoC4/TCPWM_1.c **** * Summary:
 211:Generated_Source\PSoC4/TCPWM_1.c **** *  Initializes the TCPWM_1 with default customizer
 212:Generated_Source\PSoC4/TCPWM_1.c **** *  values when called the first time and enables the TCPWM_1.
 213:Generated_Source\PSoC4/TCPWM_1.c **** *  For subsequent calls the configuration is left unchanged and the component is
 214:Generated_Source\PSoC4/TCPWM_1.c **** *  just enabled.
 215:Generated_Source\PSoC4/TCPWM_1.c **** *
 216:Generated_Source\PSoC4/TCPWM_1.c **** * Parameters:
 217:Generated_Source\PSoC4/TCPWM_1.c **** *  None
 218:Generated_Source\PSoC4/TCPWM_1.c **** *
 219:Generated_Source\PSoC4/TCPWM_1.c **** * Return:
 220:Generated_Source\PSoC4/TCPWM_1.c **** *  None
 221:Generated_Source\PSoC4/TCPWM_1.c **** *
 222:Generated_Source\PSoC4/TCPWM_1.c **** * Global variables:
 223:Generated_Source\PSoC4/TCPWM_1.c **** *  TCPWM_1_initVar: global variable is used to indicate initial
 224:Generated_Source\PSoC4/TCPWM_1.c **** *  configuration of this component.  The variable is initialized to zero and set
 225:Generated_Source\PSoC4/TCPWM_1.c **** *  to 1 the first time TCPWM_1_Start() is called. This allows
 226:Generated_Source\PSoC4/TCPWM_1.c **** *  enabling/disabling a component without re-initialization in all subsequent
 227:Generated_Source\PSoC4/TCPWM_1.c **** *  calls to the TCPWM_1_Start() routine.
 228:Generated_Source\PSoC4/TCPWM_1.c **** *
 229:Generated_Source\PSoC4/TCPWM_1.c **** *******************************************************************************/
 230:Generated_Source\PSoC4/TCPWM_1.c **** void TCPWM_1_Start(void)
 231:Generated_Source\PSoC4/TCPWM_1.c **** {
 232:Generated_Source\PSoC4/TCPWM_1.c ****     if (0u == TCPWM_1_initVar)
 233:Generated_Source\PSoC4/TCPWM_1.c ****     {
 234:Generated_Source\PSoC4/TCPWM_1.c ****         TCPWM_1_Init();
 235:Generated_Source\PSoC4/TCPWM_1.c ****         TCPWM_1_initVar = 1u;
 236:Generated_Source\PSoC4/TCPWM_1.c ****     }
 237:Generated_Source\PSoC4/TCPWM_1.c **** 
ARM GAS  C:\Users\jrdia\AppData\Local\Temp\ccpDBDWb.s 			page 6


 238:Generated_Source\PSoC4/TCPWM_1.c ****     TCPWM_1_Enable();
 239:Generated_Source\PSoC4/TCPWM_1.c **** }
 240:Generated_Source\PSoC4/TCPWM_1.c **** 
 241:Generated_Source\PSoC4/TCPWM_1.c **** 
 242:Generated_Source\PSoC4/TCPWM_1.c **** /*******************************************************************************
 243:Generated_Source\PSoC4/TCPWM_1.c **** * Function Name: TCPWM_1_Stop
 244:Generated_Source\PSoC4/TCPWM_1.c **** ********************************************************************************
 245:Generated_Source\PSoC4/TCPWM_1.c **** *
 246:Generated_Source\PSoC4/TCPWM_1.c **** * Summary:
 247:Generated_Source\PSoC4/TCPWM_1.c **** *  Disables the TCPWM_1.
 248:Generated_Source\PSoC4/TCPWM_1.c **** *
 249:Generated_Source\PSoC4/TCPWM_1.c **** * Parameters:
 250:Generated_Source\PSoC4/TCPWM_1.c **** *  None
 251:Generated_Source\PSoC4/TCPWM_1.c **** *
 252:Generated_Source\PSoC4/TCPWM_1.c **** * Return:
 253:Generated_Source\PSoC4/TCPWM_1.c **** *  None
 254:Generated_Source\PSoC4/TCPWM_1.c **** *
 255:Generated_Source\PSoC4/TCPWM_1.c **** *******************************************************************************/
 256:Generated_Source\PSoC4/TCPWM_1.c **** void TCPWM_1_Stop(void)
 257:Generated_Source\PSoC4/TCPWM_1.c **** {
 258:Generated_Source\PSoC4/TCPWM_1.c ****     uint8 enableInterrupts;
 259:Generated_Source\PSoC4/TCPWM_1.c **** 
 260:Generated_Source\PSoC4/TCPWM_1.c ****     enableInterrupts = CyEnterCriticalSection();
 261:Generated_Source\PSoC4/TCPWM_1.c **** 
 262:Generated_Source\PSoC4/TCPWM_1.c ****     TCPWM_1_BLOCK_CONTROL_REG &= (uint32)~TCPWM_1_MASK;
 263:Generated_Source\PSoC4/TCPWM_1.c **** 
 264:Generated_Source\PSoC4/TCPWM_1.c ****     CyExitCriticalSection(enableInterrupts);
 265:Generated_Source\PSoC4/TCPWM_1.c **** }
 266:Generated_Source\PSoC4/TCPWM_1.c **** 
 267:Generated_Source\PSoC4/TCPWM_1.c **** 
 268:Generated_Source\PSoC4/TCPWM_1.c **** /*******************************************************************************
 269:Generated_Source\PSoC4/TCPWM_1.c **** * Function Name: TCPWM_1_SetMode
 270:Generated_Source\PSoC4/TCPWM_1.c **** ********************************************************************************
 271:Generated_Source\PSoC4/TCPWM_1.c **** *
 272:Generated_Source\PSoC4/TCPWM_1.c **** * Summary:
 273:Generated_Source\PSoC4/TCPWM_1.c **** *  Sets the operation mode of the TCPWM_1. This function is used when
 274:Generated_Source\PSoC4/TCPWM_1.c **** *  configured as a generic TCPWM_1 and the actual mode of operation is
 275:Generated_Source\PSoC4/TCPWM_1.c **** *  set at runtime. The mode must be set while the component is disabled.
 276:Generated_Source\PSoC4/TCPWM_1.c **** *
 277:Generated_Source\PSoC4/TCPWM_1.c **** * Parameters:
 278:Generated_Source\PSoC4/TCPWM_1.c **** *  mode: Mode for the TCPWM_1 to operate in
 279:Generated_Source\PSoC4/TCPWM_1.c **** *   Values:
 280:Generated_Source\PSoC4/TCPWM_1.c **** *   - TCPWM_1_MODE_TIMER_COMPARE - Timer / Counter with
 281:Generated_Source\PSoC4/TCPWM_1.c **** *                                                 compare capability
 282:Generated_Source\PSoC4/TCPWM_1.c **** *         - TCPWM_1_MODE_TIMER_CAPTURE - Timer / Counter with
 283:Generated_Source\PSoC4/TCPWM_1.c **** *                                                 capture capability
 284:Generated_Source\PSoC4/TCPWM_1.c **** *         - TCPWM_1_MODE_QUAD - Quadrature decoder
 285:Generated_Source\PSoC4/TCPWM_1.c **** *         - TCPWM_1_MODE_PWM - PWM
 286:Generated_Source\PSoC4/TCPWM_1.c **** *         - TCPWM_1_MODE_PWM_DT - PWM with dead time
 287:Generated_Source\PSoC4/TCPWM_1.c **** *         - TCPWM_1_MODE_PWM_PR - PWM with pseudo random capability
 288:Generated_Source\PSoC4/TCPWM_1.c **** *
 289:Generated_Source\PSoC4/TCPWM_1.c **** * Return:
 290:Generated_Source\PSoC4/TCPWM_1.c **** *  None
 291:Generated_Source\PSoC4/TCPWM_1.c **** *
 292:Generated_Source\PSoC4/TCPWM_1.c **** *******************************************************************************/
 293:Generated_Source\PSoC4/TCPWM_1.c **** void TCPWM_1_SetMode(uint32 mode)
 294:Generated_Source\PSoC4/TCPWM_1.c **** {
ARM GAS  C:\Users\jrdia\AppData\Local\Temp\ccpDBDWb.s 			page 7


 295:Generated_Source\PSoC4/TCPWM_1.c ****     uint8 enableInterrupts;
 296:Generated_Source\PSoC4/TCPWM_1.c **** 
 297:Generated_Source\PSoC4/TCPWM_1.c ****     enableInterrupts = CyEnterCriticalSection();
 298:Generated_Source\PSoC4/TCPWM_1.c **** 
 299:Generated_Source\PSoC4/TCPWM_1.c ****     TCPWM_1_CONTROL_REG &= (uint32)~TCPWM_1_MODE_MASK;
 300:Generated_Source\PSoC4/TCPWM_1.c ****     TCPWM_1_CONTROL_REG |= mode;
 301:Generated_Source\PSoC4/TCPWM_1.c **** 
 302:Generated_Source\PSoC4/TCPWM_1.c ****     CyExitCriticalSection(enableInterrupts);
 303:Generated_Source\PSoC4/TCPWM_1.c **** }
 304:Generated_Source\PSoC4/TCPWM_1.c **** 
 305:Generated_Source\PSoC4/TCPWM_1.c **** 
 306:Generated_Source\PSoC4/TCPWM_1.c **** /*******************************************************************************
 307:Generated_Source\PSoC4/TCPWM_1.c **** * Function Name: TCPWM_1_SetQDMode
 308:Generated_Source\PSoC4/TCPWM_1.c **** ********************************************************************************
 309:Generated_Source\PSoC4/TCPWM_1.c **** *
 310:Generated_Source\PSoC4/TCPWM_1.c **** * Summary:
 311:Generated_Source\PSoC4/TCPWM_1.c **** *  Sets the the Quadrature Decoder to one of the 3 supported modes.
 312:Generated_Source\PSoC4/TCPWM_1.c **** *  Its functionality is only applicable to Quadrature Decoder operation.
 313:Generated_Source\PSoC4/TCPWM_1.c **** *
 314:Generated_Source\PSoC4/TCPWM_1.c **** * Parameters:
 315:Generated_Source\PSoC4/TCPWM_1.c **** *  qdMode: Quadrature Decoder mode
 316:Generated_Source\PSoC4/TCPWM_1.c **** *   Values:
 317:Generated_Source\PSoC4/TCPWM_1.c **** *         - TCPWM_1_MODE_X1 - Counts on phi 1 rising
 318:Generated_Source\PSoC4/TCPWM_1.c **** *         - TCPWM_1_MODE_X2 - Counts on both edges of phi1 (2x faster)
 319:Generated_Source\PSoC4/TCPWM_1.c **** *         - TCPWM_1_MODE_X4 - Counts on both edges of phi1 and phi2
 320:Generated_Source\PSoC4/TCPWM_1.c **** *                                        (4x faster)
 321:Generated_Source\PSoC4/TCPWM_1.c **** *
 322:Generated_Source\PSoC4/TCPWM_1.c **** * Return:
 323:Generated_Source\PSoC4/TCPWM_1.c **** *  None
 324:Generated_Source\PSoC4/TCPWM_1.c **** *
 325:Generated_Source\PSoC4/TCPWM_1.c **** *******************************************************************************/
 326:Generated_Source\PSoC4/TCPWM_1.c **** void TCPWM_1_SetQDMode(uint32 qdMode)
 327:Generated_Source\PSoC4/TCPWM_1.c **** {
 328:Generated_Source\PSoC4/TCPWM_1.c ****     uint8 enableInterrupts;
 329:Generated_Source\PSoC4/TCPWM_1.c **** 
 330:Generated_Source\PSoC4/TCPWM_1.c ****     enableInterrupts = CyEnterCriticalSection();
 331:Generated_Source\PSoC4/TCPWM_1.c **** 
 332:Generated_Source\PSoC4/TCPWM_1.c ****     TCPWM_1_CONTROL_REG &= (uint32)~TCPWM_1_QUAD_MODE_MASK;
 333:Generated_Source\PSoC4/TCPWM_1.c ****     TCPWM_1_CONTROL_REG |= qdMode;
 334:Generated_Source\PSoC4/TCPWM_1.c **** 
 335:Generated_Source\PSoC4/TCPWM_1.c ****     CyExitCriticalSection(enableInterrupts);
 336:Generated_Source\PSoC4/TCPWM_1.c **** }
 337:Generated_Source\PSoC4/TCPWM_1.c **** 
 338:Generated_Source\PSoC4/TCPWM_1.c **** 
 339:Generated_Source\PSoC4/TCPWM_1.c **** /*******************************************************************************
 340:Generated_Source\PSoC4/TCPWM_1.c **** * Function Name: TCPWM_1_SetPrescaler
 341:Generated_Source\PSoC4/TCPWM_1.c **** ********************************************************************************
 342:Generated_Source\PSoC4/TCPWM_1.c **** *
 343:Generated_Source\PSoC4/TCPWM_1.c **** * Summary:
 344:Generated_Source\PSoC4/TCPWM_1.c **** *  Sets the prescaler value that is applied to the clock input.  Not applicable
 345:Generated_Source\PSoC4/TCPWM_1.c **** *  to a PWM with the dead time mode or Quadrature Decoder mode.
 346:Generated_Source\PSoC4/TCPWM_1.c **** *
 347:Generated_Source\PSoC4/TCPWM_1.c **** * Parameters:
 348:Generated_Source\PSoC4/TCPWM_1.c **** *  prescaler: Prescaler divider value
 349:Generated_Source\PSoC4/TCPWM_1.c **** *   Values:
 350:Generated_Source\PSoC4/TCPWM_1.c **** *         - TCPWM_1_PRESCALE_DIVBY1    - Divide by 1 (no prescaling)
 351:Generated_Source\PSoC4/TCPWM_1.c **** *         - TCPWM_1_PRESCALE_DIVBY2    - Divide by 2
ARM GAS  C:\Users\jrdia\AppData\Local\Temp\ccpDBDWb.s 			page 8


 352:Generated_Source\PSoC4/TCPWM_1.c **** *         - TCPWM_1_PRESCALE_DIVBY4    - Divide by 4
 353:Generated_Source\PSoC4/TCPWM_1.c **** *         - TCPWM_1_PRESCALE_DIVBY8    - Divide by 8
 354:Generated_Source\PSoC4/TCPWM_1.c **** *         - TCPWM_1_PRESCALE_DIVBY16   - Divide by 16
 355:Generated_Source\PSoC4/TCPWM_1.c **** *         - TCPWM_1_PRESCALE_DIVBY32   - Divide by 32
 356:Generated_Source\PSoC4/TCPWM_1.c **** *         - TCPWM_1_PRESCALE_DIVBY64   - Divide by 64
 357:Generated_Source\PSoC4/TCPWM_1.c **** *         - TCPWM_1_PRESCALE_DIVBY128  - Divide by 128
 358:Generated_Source\PSoC4/TCPWM_1.c **** *
 359:Generated_Source\PSoC4/TCPWM_1.c **** * Return:
 360:Generated_Source\PSoC4/TCPWM_1.c **** *  None
 361:Generated_Source\PSoC4/TCPWM_1.c **** *
 362:Generated_Source\PSoC4/TCPWM_1.c **** *******************************************************************************/
 363:Generated_Source\PSoC4/TCPWM_1.c **** void TCPWM_1_SetPrescaler(uint32 prescaler)
 364:Generated_Source\PSoC4/TCPWM_1.c **** {
 365:Generated_Source\PSoC4/TCPWM_1.c ****     uint8 enableInterrupts;
 366:Generated_Source\PSoC4/TCPWM_1.c **** 
 367:Generated_Source\PSoC4/TCPWM_1.c ****     enableInterrupts = CyEnterCriticalSection();
 368:Generated_Source\PSoC4/TCPWM_1.c **** 
 369:Generated_Source\PSoC4/TCPWM_1.c ****     TCPWM_1_CONTROL_REG &= (uint32)~TCPWM_1_PRESCALER_MASK;
 370:Generated_Source\PSoC4/TCPWM_1.c ****     TCPWM_1_CONTROL_REG |= prescaler;
 371:Generated_Source\PSoC4/TCPWM_1.c **** 
 372:Generated_Source\PSoC4/TCPWM_1.c ****     CyExitCriticalSection(enableInterrupts);
 373:Generated_Source\PSoC4/TCPWM_1.c **** }
 374:Generated_Source\PSoC4/TCPWM_1.c **** 
 375:Generated_Source\PSoC4/TCPWM_1.c **** 
 376:Generated_Source\PSoC4/TCPWM_1.c **** /*******************************************************************************
 377:Generated_Source\PSoC4/TCPWM_1.c **** * Function Name: TCPWM_1_SetOneShot
 378:Generated_Source\PSoC4/TCPWM_1.c **** ********************************************************************************
 379:Generated_Source\PSoC4/TCPWM_1.c **** *
 380:Generated_Source\PSoC4/TCPWM_1.c **** * Summary:
 381:Generated_Source\PSoC4/TCPWM_1.c **** *  Writes the register that controls whether the TCPWM_1 runs
 382:Generated_Source\PSoC4/TCPWM_1.c **** *  continuously or stops when terminal count is reached.  By default the
 383:Generated_Source\PSoC4/TCPWM_1.c **** *  TCPWM_1 operates in the continuous mode.
 384:Generated_Source\PSoC4/TCPWM_1.c **** *
 385:Generated_Source\PSoC4/TCPWM_1.c **** * Parameters:
 386:Generated_Source\PSoC4/TCPWM_1.c **** *  oneShotEnable
 387:Generated_Source\PSoC4/TCPWM_1.c **** *   Values:
 388:Generated_Source\PSoC4/TCPWM_1.c **** *     - 0 - Continuous
 389:Generated_Source\PSoC4/TCPWM_1.c **** *     - 1 - Enable One Shot
 390:Generated_Source\PSoC4/TCPWM_1.c **** *
 391:Generated_Source\PSoC4/TCPWM_1.c **** * Return:
 392:Generated_Source\PSoC4/TCPWM_1.c **** *  None
 393:Generated_Source\PSoC4/TCPWM_1.c **** *
 394:Generated_Source\PSoC4/TCPWM_1.c **** *******************************************************************************/
 395:Generated_Source\PSoC4/TCPWM_1.c **** void TCPWM_1_SetOneShot(uint32 oneShotEnable)
 396:Generated_Source\PSoC4/TCPWM_1.c **** {
 397:Generated_Source\PSoC4/TCPWM_1.c ****     uint8 enableInterrupts;
 398:Generated_Source\PSoC4/TCPWM_1.c **** 
 399:Generated_Source\PSoC4/TCPWM_1.c ****     enableInterrupts = CyEnterCriticalSection();
 400:Generated_Source\PSoC4/TCPWM_1.c **** 
 401:Generated_Source\PSoC4/TCPWM_1.c ****     TCPWM_1_CONTROL_REG &= (uint32)~TCPWM_1_ONESHOT_MASK;
 402:Generated_Source\PSoC4/TCPWM_1.c ****     TCPWM_1_CONTROL_REG |= ((uint32)((oneShotEnable & TCPWM_1_1BIT_MASK) <<
 403:Generated_Source\PSoC4/TCPWM_1.c ****                                                                TCPWM_1_ONESHOT_SHIFT));
 404:Generated_Source\PSoC4/TCPWM_1.c **** 
 405:Generated_Source\PSoC4/TCPWM_1.c ****     CyExitCriticalSection(enableInterrupts);
 406:Generated_Source\PSoC4/TCPWM_1.c **** }
 407:Generated_Source\PSoC4/TCPWM_1.c **** 
 408:Generated_Source\PSoC4/TCPWM_1.c **** 
ARM GAS  C:\Users\jrdia\AppData\Local\Temp\ccpDBDWb.s 			page 9


 409:Generated_Source\PSoC4/TCPWM_1.c **** /*******************************************************************************
 410:Generated_Source\PSoC4/TCPWM_1.c **** * Function Name: TCPWM_1_SetPWMMode
 411:Generated_Source\PSoC4/TCPWM_1.c **** ********************************************************************************
 412:Generated_Source\PSoC4/TCPWM_1.c **** *
 413:Generated_Source\PSoC4/TCPWM_1.c **** * Summary:
 414:Generated_Source\PSoC4/TCPWM_1.c **** *  Writes the control register that determines what mode of operation the PWM
 415:Generated_Source\PSoC4/TCPWM_1.c **** *  output lines are driven in.  There is a setting for what to do on a
 416:Generated_Source\PSoC4/TCPWM_1.c **** *  comparison match (CC_MATCH), on an overflow (OVERFLOW) and on an underflow
 417:Generated_Source\PSoC4/TCPWM_1.c **** *  (UNDERFLOW).  The value for each of the three must be ORed together to form
 418:Generated_Source\PSoC4/TCPWM_1.c **** *  the mode.
 419:Generated_Source\PSoC4/TCPWM_1.c **** *
 420:Generated_Source\PSoC4/TCPWM_1.c **** * Parameters:
 421:Generated_Source\PSoC4/TCPWM_1.c **** *  modeMask: A combination of three mode settings.  Mask must include a value
 422:Generated_Source\PSoC4/TCPWM_1.c **** *  for each of the three or use one of the preconfigured PWM settings.
 423:Generated_Source\PSoC4/TCPWM_1.c **** *   Values:
 424:Generated_Source\PSoC4/TCPWM_1.c **** *     - CC_MATCH_SET        - Set on comparison match
 425:Generated_Source\PSoC4/TCPWM_1.c **** *     - CC_MATCH_CLEAR      - Clear on comparison match
 426:Generated_Source\PSoC4/TCPWM_1.c **** *     - CC_MATCH_INVERT     - Invert on comparison match
 427:Generated_Source\PSoC4/TCPWM_1.c **** *     - CC_MATCH_NO_CHANGE  - No change on comparison match
 428:Generated_Source\PSoC4/TCPWM_1.c **** *     - OVERLOW_SET         - Set on overflow
 429:Generated_Source\PSoC4/TCPWM_1.c **** *     - OVERLOW_CLEAR       - Clear on  overflow
 430:Generated_Source\PSoC4/TCPWM_1.c **** *     - OVERLOW_INVERT      - Invert on overflow
 431:Generated_Source\PSoC4/TCPWM_1.c **** *     - OVERLOW_NO_CHANGE   - No change on overflow
 432:Generated_Source\PSoC4/TCPWM_1.c **** *     - UNDERFLOW_SET       - Set on underflow
 433:Generated_Source\PSoC4/TCPWM_1.c **** *     - UNDERFLOW_CLEAR     - Clear on underflow
 434:Generated_Source\PSoC4/TCPWM_1.c **** *     - UNDERFLOW_INVERT    - Invert on underflow
 435:Generated_Source\PSoC4/TCPWM_1.c **** *     - UNDERFLOW_NO_CHANGE - No change on underflow
 436:Generated_Source\PSoC4/TCPWM_1.c **** *     - PWM_MODE_LEFT       - Setting for left aligned PWM.  Should be combined
 437:Generated_Source\PSoC4/TCPWM_1.c **** *                             with up counting mode
 438:Generated_Source\PSoC4/TCPWM_1.c **** *     - PWM_MODE_RIGHT      - Setting for right aligned PWM.  Should be combined
 439:Generated_Source\PSoC4/TCPWM_1.c **** *                             with down counting mode
 440:Generated_Source\PSoC4/TCPWM_1.c **** *     - PWM_MODE_CENTER     - Setting for center aligned PWM.  Should be
 441:Generated_Source\PSoC4/TCPWM_1.c **** *                             combined with up/down 0 mode
 442:Generated_Source\PSoC4/TCPWM_1.c **** *     - PWM_MODE_ASYM       - Setting for asymmetric PWM.  Should be combined
 443:Generated_Source\PSoC4/TCPWM_1.c **** *                             with up/down 1 mode
 444:Generated_Source\PSoC4/TCPWM_1.c **** *
 445:Generated_Source\PSoC4/TCPWM_1.c **** * Return:
 446:Generated_Source\PSoC4/TCPWM_1.c **** *  None
 447:Generated_Source\PSoC4/TCPWM_1.c **** *
 448:Generated_Source\PSoC4/TCPWM_1.c **** *******************************************************************************/
 449:Generated_Source\PSoC4/TCPWM_1.c **** void TCPWM_1_SetPWMMode(uint32 modeMask)
 450:Generated_Source\PSoC4/TCPWM_1.c **** {
 451:Generated_Source\PSoC4/TCPWM_1.c ****     TCPWM_1_TRIG_CONTROL2_REG = (modeMask & TCPWM_1_6BIT_MASK);
 452:Generated_Source\PSoC4/TCPWM_1.c **** }
 453:Generated_Source\PSoC4/TCPWM_1.c **** 
 454:Generated_Source\PSoC4/TCPWM_1.c **** 
 455:Generated_Source\PSoC4/TCPWM_1.c **** 
 456:Generated_Source\PSoC4/TCPWM_1.c **** /*******************************************************************************
 457:Generated_Source\PSoC4/TCPWM_1.c **** * Function Name: TCPWM_1_SetPWMSyncKill
 458:Generated_Source\PSoC4/TCPWM_1.c **** ********************************************************************************
 459:Generated_Source\PSoC4/TCPWM_1.c **** *
 460:Generated_Source\PSoC4/TCPWM_1.c **** * Summary:
 461:Generated_Source\PSoC4/TCPWM_1.c **** *  Writes the register that controls whether the PWM kill signal (stop input)
 462:Generated_Source\PSoC4/TCPWM_1.c **** *  causes asynchronous or synchronous kill operation.  By default the kill
 463:Generated_Source\PSoC4/TCPWM_1.c **** *  operation is asynchronous.  This functionality is only applicable to the PWM
 464:Generated_Source\PSoC4/TCPWM_1.c **** *  and PWM with dead time modes.
 465:Generated_Source\PSoC4/TCPWM_1.c **** *
ARM GAS  C:\Users\jrdia\AppData\Local\Temp\ccpDBDWb.s 			page 10


 466:Generated_Source\PSoC4/TCPWM_1.c **** *  For Synchronous mode the kill signal disables both the line and line_n
 467:Generated_Source\PSoC4/TCPWM_1.c **** *  signals until the next terminal count.
 468:Generated_Source\PSoC4/TCPWM_1.c **** *
 469:Generated_Source\PSoC4/TCPWM_1.c **** *  For Asynchronous mode the kill signal disables both the line and line_n
 470:Generated_Source\PSoC4/TCPWM_1.c **** *  signals when the kill signal is present.  This mode should only be used
 471:Generated_Source\PSoC4/TCPWM_1.c **** *  when the kill signal (stop input) is configured in the pass through mode
 472:Generated_Source\PSoC4/TCPWM_1.c **** *  (Level sensitive signal).
 473:Generated_Source\PSoC4/TCPWM_1.c **** 
 474:Generated_Source\PSoC4/TCPWM_1.c **** *
 475:Generated_Source\PSoC4/TCPWM_1.c **** * Parameters:
 476:Generated_Source\PSoC4/TCPWM_1.c **** *  syncKillEnable
 477:Generated_Source\PSoC4/TCPWM_1.c **** *   Values:
 478:Generated_Source\PSoC4/TCPWM_1.c **** *     - 0 - Asynchronous
 479:Generated_Source\PSoC4/TCPWM_1.c **** *     - 1 - Synchronous
 480:Generated_Source\PSoC4/TCPWM_1.c **** *
 481:Generated_Source\PSoC4/TCPWM_1.c **** * Return:
 482:Generated_Source\PSoC4/TCPWM_1.c **** *  None
 483:Generated_Source\PSoC4/TCPWM_1.c **** *
 484:Generated_Source\PSoC4/TCPWM_1.c **** *******************************************************************************/
 485:Generated_Source\PSoC4/TCPWM_1.c **** void TCPWM_1_SetPWMSyncKill(uint32 syncKillEnable)
 486:Generated_Source\PSoC4/TCPWM_1.c **** {
 487:Generated_Source\PSoC4/TCPWM_1.c ****     uint8 enableInterrupts;
 488:Generated_Source\PSoC4/TCPWM_1.c **** 
 489:Generated_Source\PSoC4/TCPWM_1.c ****     enableInterrupts = CyEnterCriticalSection();
 490:Generated_Source\PSoC4/TCPWM_1.c **** 
 491:Generated_Source\PSoC4/TCPWM_1.c ****     TCPWM_1_CONTROL_REG &= (uint32)~TCPWM_1_PWM_SYNC_KILL_MASK;
 492:Generated_Source\PSoC4/TCPWM_1.c ****     TCPWM_1_CONTROL_REG |= ((uint32)((syncKillEnable & TCPWM_1_1BIT_MASK)  <<
 493:Generated_Source\PSoC4/TCPWM_1.c ****                                                TCPWM_1_PWM_SYNC_KILL_SHIFT));
 494:Generated_Source\PSoC4/TCPWM_1.c **** 
 495:Generated_Source\PSoC4/TCPWM_1.c ****     CyExitCriticalSection(enableInterrupts);
 496:Generated_Source\PSoC4/TCPWM_1.c **** }
 497:Generated_Source\PSoC4/TCPWM_1.c **** 
 498:Generated_Source\PSoC4/TCPWM_1.c **** 
 499:Generated_Source\PSoC4/TCPWM_1.c **** /*******************************************************************************
 500:Generated_Source\PSoC4/TCPWM_1.c **** * Function Name: TCPWM_1_SetPWMStopOnKill
 501:Generated_Source\PSoC4/TCPWM_1.c **** ********************************************************************************
 502:Generated_Source\PSoC4/TCPWM_1.c **** *
 503:Generated_Source\PSoC4/TCPWM_1.c **** * Summary:
 504:Generated_Source\PSoC4/TCPWM_1.c **** *  Writes the register that controls whether the PWM kill signal (stop input)
 505:Generated_Source\PSoC4/TCPWM_1.c **** *  causes the PWM counter to stop.  By default the kill operation does not stop
 506:Generated_Source\PSoC4/TCPWM_1.c **** *  the counter.  This functionality is only applicable to the three PWM modes.
 507:Generated_Source\PSoC4/TCPWM_1.c **** *
 508:Generated_Source\PSoC4/TCPWM_1.c **** *
 509:Generated_Source\PSoC4/TCPWM_1.c **** * Parameters:
 510:Generated_Source\PSoC4/TCPWM_1.c **** *  stopOnKillEnable
 511:Generated_Source\PSoC4/TCPWM_1.c **** *   Values:
 512:Generated_Source\PSoC4/TCPWM_1.c **** *     - 0 - Don't stop
 513:Generated_Source\PSoC4/TCPWM_1.c **** *     - 1 - Stop
 514:Generated_Source\PSoC4/TCPWM_1.c **** *
 515:Generated_Source\PSoC4/TCPWM_1.c **** * Return:
 516:Generated_Source\PSoC4/TCPWM_1.c **** *  None
 517:Generated_Source\PSoC4/TCPWM_1.c **** *
 518:Generated_Source\PSoC4/TCPWM_1.c **** *******************************************************************************/
 519:Generated_Source\PSoC4/TCPWM_1.c **** void TCPWM_1_SetPWMStopOnKill(uint32 stopOnKillEnable)
 520:Generated_Source\PSoC4/TCPWM_1.c **** {
 521:Generated_Source\PSoC4/TCPWM_1.c ****     uint8 enableInterrupts;
 522:Generated_Source\PSoC4/TCPWM_1.c **** 
ARM GAS  C:\Users\jrdia\AppData\Local\Temp\ccpDBDWb.s 			page 11


 523:Generated_Source\PSoC4/TCPWM_1.c ****     enableInterrupts = CyEnterCriticalSection();
 524:Generated_Source\PSoC4/TCPWM_1.c **** 
 525:Generated_Source\PSoC4/TCPWM_1.c ****     TCPWM_1_CONTROL_REG &= (uint32)~TCPWM_1_PWM_STOP_KILL_MASK;
 526:Generated_Source\PSoC4/TCPWM_1.c ****     TCPWM_1_CONTROL_REG |= ((uint32)((stopOnKillEnable & TCPWM_1_1BIT_MASK)  <<
 527:Generated_Source\PSoC4/TCPWM_1.c ****                                                          TCPWM_1_PWM_STOP_KILL_SHIFT));
 528:Generated_Source\PSoC4/TCPWM_1.c **** 
 529:Generated_Source\PSoC4/TCPWM_1.c ****     CyExitCriticalSection(enableInterrupts);
 530:Generated_Source\PSoC4/TCPWM_1.c **** }
 531:Generated_Source\PSoC4/TCPWM_1.c **** 
 532:Generated_Source\PSoC4/TCPWM_1.c **** 
 533:Generated_Source\PSoC4/TCPWM_1.c **** /*******************************************************************************
 534:Generated_Source\PSoC4/TCPWM_1.c **** * Function Name: TCPWM_1_SetPWMDeadTime
 535:Generated_Source\PSoC4/TCPWM_1.c **** ********************************************************************************
 536:Generated_Source\PSoC4/TCPWM_1.c **** *
 537:Generated_Source\PSoC4/TCPWM_1.c **** * Summary:
 538:Generated_Source\PSoC4/TCPWM_1.c **** *  Writes the dead time control value.  This value delays the rising edge of
 539:Generated_Source\PSoC4/TCPWM_1.c **** *  both the line and line_n signals the designated number of cycles resulting
 540:Generated_Source\PSoC4/TCPWM_1.c **** *  in both signals being inactive for that many cycles.  This functionality is
 541:Generated_Source\PSoC4/TCPWM_1.c **** *  only applicable to the PWM in the dead time mode.
 542:Generated_Source\PSoC4/TCPWM_1.c **** 
 543:Generated_Source\PSoC4/TCPWM_1.c **** *
 544:Generated_Source\PSoC4/TCPWM_1.c **** * Parameters:
 545:Generated_Source\PSoC4/TCPWM_1.c **** *  Dead time to insert
 546:Generated_Source\PSoC4/TCPWM_1.c **** *   Values: 0 to 255
 547:Generated_Source\PSoC4/TCPWM_1.c **** *
 548:Generated_Source\PSoC4/TCPWM_1.c **** * Return:
 549:Generated_Source\PSoC4/TCPWM_1.c **** *  None
 550:Generated_Source\PSoC4/TCPWM_1.c **** *
 551:Generated_Source\PSoC4/TCPWM_1.c **** *******************************************************************************/
 552:Generated_Source\PSoC4/TCPWM_1.c **** void TCPWM_1_SetPWMDeadTime(uint32 deadTime)
 553:Generated_Source\PSoC4/TCPWM_1.c **** {
 554:Generated_Source\PSoC4/TCPWM_1.c ****     uint8 enableInterrupts;
 555:Generated_Source\PSoC4/TCPWM_1.c **** 
 556:Generated_Source\PSoC4/TCPWM_1.c ****     enableInterrupts = CyEnterCriticalSection();
 557:Generated_Source\PSoC4/TCPWM_1.c **** 
 558:Generated_Source\PSoC4/TCPWM_1.c ****     TCPWM_1_CONTROL_REG &= (uint32)~TCPWM_1_PRESCALER_MASK;
 559:Generated_Source\PSoC4/TCPWM_1.c ****     TCPWM_1_CONTROL_REG |= ((uint32)((deadTime & TCPWM_1_8BIT_MASK) <<
 560:Generated_Source\PSoC4/TCPWM_1.c ****                                                           TCPWM_1_PRESCALER_SHIFT));
 561:Generated_Source\PSoC4/TCPWM_1.c **** 
 562:Generated_Source\PSoC4/TCPWM_1.c ****     CyExitCriticalSection(enableInterrupts);
 563:Generated_Source\PSoC4/TCPWM_1.c **** }
 564:Generated_Source\PSoC4/TCPWM_1.c **** 
 565:Generated_Source\PSoC4/TCPWM_1.c **** 
 566:Generated_Source\PSoC4/TCPWM_1.c **** /*******************************************************************************
 567:Generated_Source\PSoC4/TCPWM_1.c **** * Function Name: TCPWM_1_SetPWMInvert
 568:Generated_Source\PSoC4/TCPWM_1.c **** ********************************************************************************
 569:Generated_Source\PSoC4/TCPWM_1.c **** *
 570:Generated_Source\PSoC4/TCPWM_1.c **** * Summary:
 571:Generated_Source\PSoC4/TCPWM_1.c **** *  Writes the bits that control whether the line and line_n outputs are
 572:Generated_Source\PSoC4/TCPWM_1.c **** *  inverted from their normal output values.  This functionality is only
 573:Generated_Source\PSoC4/TCPWM_1.c **** *  applicable to the three PWM modes.
 574:Generated_Source\PSoC4/TCPWM_1.c **** *
 575:Generated_Source\PSoC4/TCPWM_1.c **** * Parameters:
 576:Generated_Source\PSoC4/TCPWM_1.c **** *  mask: Mask of outputs to invert.
 577:Generated_Source\PSoC4/TCPWM_1.c **** *   Values:
 578:Generated_Source\PSoC4/TCPWM_1.c **** *         - TCPWM_1_INVERT_LINE   - Inverts the line output
 579:Generated_Source\PSoC4/TCPWM_1.c **** *         - TCPWM_1_INVERT_LINE_N - Inverts the line_n output
ARM GAS  C:\Users\jrdia\AppData\Local\Temp\ccpDBDWb.s 			page 12


 580:Generated_Source\PSoC4/TCPWM_1.c **** *
 581:Generated_Source\PSoC4/TCPWM_1.c **** * Return:
 582:Generated_Source\PSoC4/TCPWM_1.c **** *  None
 583:Generated_Source\PSoC4/TCPWM_1.c **** *
 584:Generated_Source\PSoC4/TCPWM_1.c **** *******************************************************************************/
 585:Generated_Source\PSoC4/TCPWM_1.c **** void TCPWM_1_SetPWMInvert(uint32 mask)
 586:Generated_Source\PSoC4/TCPWM_1.c **** {
 587:Generated_Source\PSoC4/TCPWM_1.c ****     uint8 enableInterrupts;
 588:Generated_Source\PSoC4/TCPWM_1.c **** 
 589:Generated_Source\PSoC4/TCPWM_1.c ****     enableInterrupts = CyEnterCriticalSection();
 590:Generated_Source\PSoC4/TCPWM_1.c **** 
 591:Generated_Source\PSoC4/TCPWM_1.c ****     TCPWM_1_CONTROL_REG &= (uint32)~TCPWM_1_INV_OUT_MASK;
 592:Generated_Source\PSoC4/TCPWM_1.c ****     TCPWM_1_CONTROL_REG |= mask;
 593:Generated_Source\PSoC4/TCPWM_1.c **** 
 594:Generated_Source\PSoC4/TCPWM_1.c ****     CyExitCriticalSection(enableInterrupts);
 595:Generated_Source\PSoC4/TCPWM_1.c **** }
 596:Generated_Source\PSoC4/TCPWM_1.c **** 
 597:Generated_Source\PSoC4/TCPWM_1.c **** 
 598:Generated_Source\PSoC4/TCPWM_1.c **** 
 599:Generated_Source\PSoC4/TCPWM_1.c **** /*******************************************************************************
 600:Generated_Source\PSoC4/TCPWM_1.c **** * Function Name: TCPWM_1_WriteCounter
 601:Generated_Source\PSoC4/TCPWM_1.c **** ********************************************************************************
 602:Generated_Source\PSoC4/TCPWM_1.c **** *
 603:Generated_Source\PSoC4/TCPWM_1.c **** * Summary:
 604:Generated_Source\PSoC4/TCPWM_1.c **** *  Writes a new 16bit counter value directly into the counter register, thus
 605:Generated_Source\PSoC4/TCPWM_1.c **** *  setting the counter (not the period) to the value written. It is not
 606:Generated_Source\PSoC4/TCPWM_1.c **** *  advised to write to this field when the counter is running.
 607:Generated_Source\PSoC4/TCPWM_1.c **** *
 608:Generated_Source\PSoC4/TCPWM_1.c **** * Parameters:
 609:Generated_Source\PSoC4/TCPWM_1.c **** *  count: value to write
 610:Generated_Source\PSoC4/TCPWM_1.c **** *
 611:Generated_Source\PSoC4/TCPWM_1.c **** * Return:
 612:Generated_Source\PSoC4/TCPWM_1.c **** *  None
 613:Generated_Source\PSoC4/TCPWM_1.c **** *
 614:Generated_Source\PSoC4/TCPWM_1.c **** *******************************************************************************/
 615:Generated_Source\PSoC4/TCPWM_1.c **** void TCPWM_1_WriteCounter(uint32 count)
 616:Generated_Source\PSoC4/TCPWM_1.c **** {
 617:Generated_Source\PSoC4/TCPWM_1.c ****     TCPWM_1_COUNTER_REG = (count & TCPWM_1_16BIT_MASK);
 618:Generated_Source\PSoC4/TCPWM_1.c **** }
 619:Generated_Source\PSoC4/TCPWM_1.c **** 
 620:Generated_Source\PSoC4/TCPWM_1.c **** 
 621:Generated_Source\PSoC4/TCPWM_1.c **** /*******************************************************************************
 622:Generated_Source\PSoC4/TCPWM_1.c **** * Function Name: TCPWM_1_ReadCounter
 623:Generated_Source\PSoC4/TCPWM_1.c **** ********************************************************************************
 624:Generated_Source\PSoC4/TCPWM_1.c **** *
 625:Generated_Source\PSoC4/TCPWM_1.c **** * Summary:
 626:Generated_Source\PSoC4/TCPWM_1.c **** *  Reads the current counter value.
 627:Generated_Source\PSoC4/TCPWM_1.c **** *
 628:Generated_Source\PSoC4/TCPWM_1.c **** * Parameters:
 629:Generated_Source\PSoC4/TCPWM_1.c **** *  None
 630:Generated_Source\PSoC4/TCPWM_1.c **** *
 631:Generated_Source\PSoC4/TCPWM_1.c **** * Return:
 632:Generated_Source\PSoC4/TCPWM_1.c **** *  Current counter value
 633:Generated_Source\PSoC4/TCPWM_1.c **** *
 634:Generated_Source\PSoC4/TCPWM_1.c **** *******************************************************************************/
 635:Generated_Source\PSoC4/TCPWM_1.c **** uint32 TCPWM_1_ReadCounter(void)
 636:Generated_Source\PSoC4/TCPWM_1.c **** {
ARM GAS  C:\Users\jrdia\AppData\Local\Temp\ccpDBDWb.s 			page 13


 637:Generated_Source\PSoC4/TCPWM_1.c ****     return (TCPWM_1_COUNTER_REG & TCPWM_1_16BIT_MASK);
 638:Generated_Source\PSoC4/TCPWM_1.c **** }
 639:Generated_Source\PSoC4/TCPWM_1.c **** 
 640:Generated_Source\PSoC4/TCPWM_1.c **** 
 641:Generated_Source\PSoC4/TCPWM_1.c **** /*******************************************************************************
 642:Generated_Source\PSoC4/TCPWM_1.c **** * Function Name: TCPWM_1_SetCounterMode
 643:Generated_Source\PSoC4/TCPWM_1.c **** ********************************************************************************
 644:Generated_Source\PSoC4/TCPWM_1.c **** *
 645:Generated_Source\PSoC4/TCPWM_1.c **** * Summary:
 646:Generated_Source\PSoC4/TCPWM_1.c **** *  Sets the counter mode.  Applicable to all modes except Quadrature Decoder
 647:Generated_Source\PSoC4/TCPWM_1.c **** *  and the PWM with a pseudo random output.
 648:Generated_Source\PSoC4/TCPWM_1.c **** *
 649:Generated_Source\PSoC4/TCPWM_1.c **** * Parameters:
 650:Generated_Source\PSoC4/TCPWM_1.c **** *  counterMode: Enumerated counter type values
 651:Generated_Source\PSoC4/TCPWM_1.c **** *   Values:
 652:Generated_Source\PSoC4/TCPWM_1.c **** *     - TCPWM_1_COUNT_UP       - Counts up
 653:Generated_Source\PSoC4/TCPWM_1.c **** *     - TCPWM_1_COUNT_DOWN     - Counts down
 654:Generated_Source\PSoC4/TCPWM_1.c **** *     - TCPWM_1_COUNT_UPDOWN0  - Counts up and down. Terminal count
 655:Generated_Source\PSoC4/TCPWM_1.c **** *                                         generated when counter reaches 0
 656:Generated_Source\PSoC4/TCPWM_1.c **** *     - TCPWM_1_COUNT_UPDOWN1  - Counts up and down. Terminal count
 657:Generated_Source\PSoC4/TCPWM_1.c **** *                                         generated both when counter reaches 0
 658:Generated_Source\PSoC4/TCPWM_1.c **** *                                         and period
 659:Generated_Source\PSoC4/TCPWM_1.c **** *
 660:Generated_Source\PSoC4/TCPWM_1.c **** * Return:
 661:Generated_Source\PSoC4/TCPWM_1.c **** *  None
 662:Generated_Source\PSoC4/TCPWM_1.c **** *
 663:Generated_Source\PSoC4/TCPWM_1.c **** *******************************************************************************/
 664:Generated_Source\PSoC4/TCPWM_1.c **** void TCPWM_1_SetCounterMode(uint32 counterMode)
 665:Generated_Source\PSoC4/TCPWM_1.c **** {
 666:Generated_Source\PSoC4/TCPWM_1.c ****     uint8 enableInterrupts;
 667:Generated_Source\PSoC4/TCPWM_1.c **** 
 668:Generated_Source\PSoC4/TCPWM_1.c ****     enableInterrupts = CyEnterCriticalSection();
 669:Generated_Source\PSoC4/TCPWM_1.c **** 
 670:Generated_Source\PSoC4/TCPWM_1.c ****     TCPWM_1_CONTROL_REG &= (uint32)~TCPWM_1_UPDOWN_MASK;
 671:Generated_Source\PSoC4/TCPWM_1.c ****     TCPWM_1_CONTROL_REG |= counterMode;
 672:Generated_Source\PSoC4/TCPWM_1.c **** 
 673:Generated_Source\PSoC4/TCPWM_1.c ****     CyExitCriticalSection(enableInterrupts);
 674:Generated_Source\PSoC4/TCPWM_1.c **** }
 675:Generated_Source\PSoC4/TCPWM_1.c **** 
 676:Generated_Source\PSoC4/TCPWM_1.c **** 
 677:Generated_Source\PSoC4/TCPWM_1.c **** /*******************************************************************************
 678:Generated_Source\PSoC4/TCPWM_1.c **** * Function Name: TCPWM_1_WritePeriod
 679:Generated_Source\PSoC4/TCPWM_1.c **** ********************************************************************************
 680:Generated_Source\PSoC4/TCPWM_1.c **** *
 681:Generated_Source\PSoC4/TCPWM_1.c **** * Summary:
 682:Generated_Source\PSoC4/TCPWM_1.c **** *  Writes the 16 bit period register with the new period value.
 683:Generated_Source\PSoC4/TCPWM_1.c **** *  To cause the counter to count for N cycles this register should be written
 684:Generated_Source\PSoC4/TCPWM_1.c **** *  with N-1 (counts from 0 to period inclusive).
 685:Generated_Source\PSoC4/TCPWM_1.c **** *
 686:Generated_Source\PSoC4/TCPWM_1.c **** * Parameters:
 687:Generated_Source\PSoC4/TCPWM_1.c **** *  period: Period value
 688:Generated_Source\PSoC4/TCPWM_1.c **** *
 689:Generated_Source\PSoC4/TCPWM_1.c **** * Return:
 690:Generated_Source\PSoC4/TCPWM_1.c **** *  None
 691:Generated_Source\PSoC4/TCPWM_1.c **** *
 692:Generated_Source\PSoC4/TCPWM_1.c **** *******************************************************************************/
 693:Generated_Source\PSoC4/TCPWM_1.c **** void TCPWM_1_WritePeriod(uint32 period)
ARM GAS  C:\Users\jrdia\AppData\Local\Temp\ccpDBDWb.s 			page 14


 694:Generated_Source\PSoC4/TCPWM_1.c **** {
 695:Generated_Source\PSoC4/TCPWM_1.c ****     TCPWM_1_PERIOD_REG = (period & TCPWM_1_16BIT_MASK);
 696:Generated_Source\PSoC4/TCPWM_1.c **** }
 697:Generated_Source\PSoC4/TCPWM_1.c **** 
 698:Generated_Source\PSoC4/TCPWM_1.c **** 
 699:Generated_Source\PSoC4/TCPWM_1.c **** /*******************************************************************************
 700:Generated_Source\PSoC4/TCPWM_1.c **** * Function Name: TCPWM_1_ReadPeriod
 701:Generated_Source\PSoC4/TCPWM_1.c **** ********************************************************************************
 702:Generated_Source\PSoC4/TCPWM_1.c **** *
 703:Generated_Source\PSoC4/TCPWM_1.c **** * Summary:
 704:Generated_Source\PSoC4/TCPWM_1.c **** *  Reads the 16 bit period register.
 705:Generated_Source\PSoC4/TCPWM_1.c **** *
 706:Generated_Source\PSoC4/TCPWM_1.c **** * Parameters:
 707:Generated_Source\PSoC4/TCPWM_1.c **** *  None
 708:Generated_Source\PSoC4/TCPWM_1.c **** *
 709:Generated_Source\PSoC4/TCPWM_1.c **** * Return:
 710:Generated_Source\PSoC4/TCPWM_1.c **** *  Period value
 711:Generated_Source\PSoC4/TCPWM_1.c **** *
 712:Generated_Source\PSoC4/TCPWM_1.c **** *******************************************************************************/
 713:Generated_Source\PSoC4/TCPWM_1.c **** uint32 TCPWM_1_ReadPeriod(void)
 714:Generated_Source\PSoC4/TCPWM_1.c **** {
 715:Generated_Source\PSoC4/TCPWM_1.c ****     return (TCPWM_1_PERIOD_REG & TCPWM_1_16BIT_MASK);
 716:Generated_Source\PSoC4/TCPWM_1.c **** }
 717:Generated_Source\PSoC4/TCPWM_1.c **** 
 718:Generated_Source\PSoC4/TCPWM_1.c **** 
 719:Generated_Source\PSoC4/TCPWM_1.c **** /*******************************************************************************
 720:Generated_Source\PSoC4/TCPWM_1.c **** * Function Name: TCPWM_1_SetCompareSwap
 721:Generated_Source\PSoC4/TCPWM_1.c **** ********************************************************************************
 722:Generated_Source\PSoC4/TCPWM_1.c **** *
 723:Generated_Source\PSoC4/TCPWM_1.c **** * Summary:
 724:Generated_Source\PSoC4/TCPWM_1.c **** *  Writes the register that controls whether the compare registers are
 725:Generated_Source\PSoC4/TCPWM_1.c **** *  swapped. When enabled in the Timer/Counter mode(without capture) the swap
 726:Generated_Source\PSoC4/TCPWM_1.c **** *  occurs at a TC event. In the PWM mode the swap occurs at the next TC event
 727:Generated_Source\PSoC4/TCPWM_1.c **** *  following a hardware switch event.
 728:Generated_Source\PSoC4/TCPWM_1.c **** *
 729:Generated_Source\PSoC4/TCPWM_1.c **** * Parameters:
 730:Generated_Source\PSoC4/TCPWM_1.c **** *  swapEnable
 731:Generated_Source\PSoC4/TCPWM_1.c **** *   Values:
 732:Generated_Source\PSoC4/TCPWM_1.c **** *     - 0 - Disable swap
 733:Generated_Source\PSoC4/TCPWM_1.c **** *     - 1 - Enable swap
 734:Generated_Source\PSoC4/TCPWM_1.c **** *
 735:Generated_Source\PSoC4/TCPWM_1.c **** * Return:
 736:Generated_Source\PSoC4/TCPWM_1.c **** *  None
 737:Generated_Source\PSoC4/TCPWM_1.c **** *
 738:Generated_Source\PSoC4/TCPWM_1.c **** *******************************************************************************/
 739:Generated_Source\PSoC4/TCPWM_1.c **** void TCPWM_1_SetCompareSwap(uint32 swapEnable)
 740:Generated_Source\PSoC4/TCPWM_1.c **** {
 741:Generated_Source\PSoC4/TCPWM_1.c ****     uint8 enableInterrupts;
 742:Generated_Source\PSoC4/TCPWM_1.c **** 
 743:Generated_Source\PSoC4/TCPWM_1.c ****     enableInterrupts = CyEnterCriticalSection();
 744:Generated_Source\PSoC4/TCPWM_1.c **** 
 745:Generated_Source\PSoC4/TCPWM_1.c ****     TCPWM_1_CONTROL_REG &= (uint32)~TCPWM_1_RELOAD_CC_MASK;
 746:Generated_Source\PSoC4/TCPWM_1.c ****     TCPWM_1_CONTROL_REG |= (swapEnable & TCPWM_1_1BIT_MASK);
 747:Generated_Source\PSoC4/TCPWM_1.c **** 
 748:Generated_Source\PSoC4/TCPWM_1.c ****     CyExitCriticalSection(enableInterrupts);
 749:Generated_Source\PSoC4/TCPWM_1.c **** }
 750:Generated_Source\PSoC4/TCPWM_1.c **** 
ARM GAS  C:\Users\jrdia\AppData\Local\Temp\ccpDBDWb.s 			page 15


 751:Generated_Source\PSoC4/TCPWM_1.c **** 
 752:Generated_Source\PSoC4/TCPWM_1.c **** /*******************************************************************************
 753:Generated_Source\PSoC4/TCPWM_1.c **** * Function Name: TCPWM_1_WritePeriodBuf
 754:Generated_Source\PSoC4/TCPWM_1.c **** ********************************************************************************
 755:Generated_Source\PSoC4/TCPWM_1.c **** *
 756:Generated_Source\PSoC4/TCPWM_1.c **** * Summary:
 757:Generated_Source\PSoC4/TCPWM_1.c **** *  Writes the 16 bit period buf register with the new period value.
 758:Generated_Source\PSoC4/TCPWM_1.c **** *
 759:Generated_Source\PSoC4/TCPWM_1.c **** * Parameters:
 760:Generated_Source\PSoC4/TCPWM_1.c **** *  periodBuf: Period value
 761:Generated_Source\PSoC4/TCPWM_1.c **** *
 762:Generated_Source\PSoC4/TCPWM_1.c **** * Return:
 763:Generated_Source\PSoC4/TCPWM_1.c **** *  None
 764:Generated_Source\PSoC4/TCPWM_1.c **** *
 765:Generated_Source\PSoC4/TCPWM_1.c **** *******************************************************************************/
 766:Generated_Source\PSoC4/TCPWM_1.c **** void TCPWM_1_WritePeriodBuf(uint32 periodBuf)
 767:Generated_Source\PSoC4/TCPWM_1.c **** {
 768:Generated_Source\PSoC4/TCPWM_1.c ****     TCPWM_1_PERIOD_BUF_REG = (periodBuf & TCPWM_1_16BIT_MASK);
 769:Generated_Source\PSoC4/TCPWM_1.c **** }
 770:Generated_Source\PSoC4/TCPWM_1.c **** 
 771:Generated_Source\PSoC4/TCPWM_1.c **** 
 772:Generated_Source\PSoC4/TCPWM_1.c **** /*******************************************************************************
 773:Generated_Source\PSoC4/TCPWM_1.c **** * Function Name: TCPWM_1_ReadPeriodBuf
 774:Generated_Source\PSoC4/TCPWM_1.c **** ********************************************************************************
 775:Generated_Source\PSoC4/TCPWM_1.c **** *
 776:Generated_Source\PSoC4/TCPWM_1.c **** * Summary:
 777:Generated_Source\PSoC4/TCPWM_1.c **** *  Reads the 16 bit period buf register.
 778:Generated_Source\PSoC4/TCPWM_1.c **** *
 779:Generated_Source\PSoC4/TCPWM_1.c **** * Parameters:
 780:Generated_Source\PSoC4/TCPWM_1.c **** *  None
 781:Generated_Source\PSoC4/TCPWM_1.c **** *
 782:Generated_Source\PSoC4/TCPWM_1.c **** * Return:
 783:Generated_Source\PSoC4/TCPWM_1.c **** *  Period value
 784:Generated_Source\PSoC4/TCPWM_1.c **** *
 785:Generated_Source\PSoC4/TCPWM_1.c **** *******************************************************************************/
 786:Generated_Source\PSoC4/TCPWM_1.c **** uint32 TCPWM_1_ReadPeriodBuf(void)
 787:Generated_Source\PSoC4/TCPWM_1.c **** {
 788:Generated_Source\PSoC4/TCPWM_1.c ****     return (TCPWM_1_PERIOD_BUF_REG & TCPWM_1_16BIT_MASK);
 789:Generated_Source\PSoC4/TCPWM_1.c **** }
 790:Generated_Source\PSoC4/TCPWM_1.c **** 
 791:Generated_Source\PSoC4/TCPWM_1.c **** 
 792:Generated_Source\PSoC4/TCPWM_1.c **** /*******************************************************************************
 793:Generated_Source\PSoC4/TCPWM_1.c **** * Function Name: TCPWM_1_SetPeriodSwap
 794:Generated_Source\PSoC4/TCPWM_1.c **** ********************************************************************************
 795:Generated_Source\PSoC4/TCPWM_1.c **** *
 796:Generated_Source\PSoC4/TCPWM_1.c **** * Summary:
 797:Generated_Source\PSoC4/TCPWM_1.c **** *  Writes the register that controls whether the period registers are
 798:Generated_Source\PSoC4/TCPWM_1.c **** *  swapped. When enabled in Timer/Counter mode the swap occurs at a TC event.
 799:Generated_Source\PSoC4/TCPWM_1.c **** *  In the PWM mode the swap occurs at the next TC event following a hardware
 800:Generated_Source\PSoC4/TCPWM_1.c **** *  switch event.
 801:Generated_Source\PSoC4/TCPWM_1.c **** *
 802:Generated_Source\PSoC4/TCPWM_1.c **** * Parameters:
 803:Generated_Source\PSoC4/TCPWM_1.c **** *  swapEnable
 804:Generated_Source\PSoC4/TCPWM_1.c **** *   Values:
 805:Generated_Source\PSoC4/TCPWM_1.c **** *     - 0 - Disable swap
 806:Generated_Source\PSoC4/TCPWM_1.c **** *     - 1 - Enable swap
 807:Generated_Source\PSoC4/TCPWM_1.c **** *
ARM GAS  C:\Users\jrdia\AppData\Local\Temp\ccpDBDWb.s 			page 16


 808:Generated_Source\PSoC4/TCPWM_1.c **** * Return:
 809:Generated_Source\PSoC4/TCPWM_1.c **** *  None
 810:Generated_Source\PSoC4/TCPWM_1.c **** *
 811:Generated_Source\PSoC4/TCPWM_1.c **** *******************************************************************************/
 812:Generated_Source\PSoC4/TCPWM_1.c **** void TCPWM_1_SetPeriodSwap(uint32 swapEnable)
 813:Generated_Source\PSoC4/TCPWM_1.c **** {
 814:Generated_Source\PSoC4/TCPWM_1.c ****     uint8 enableInterrupts;
 815:Generated_Source\PSoC4/TCPWM_1.c **** 
 816:Generated_Source\PSoC4/TCPWM_1.c ****     enableInterrupts = CyEnterCriticalSection();
 817:Generated_Source\PSoC4/TCPWM_1.c **** 
 818:Generated_Source\PSoC4/TCPWM_1.c ****     TCPWM_1_CONTROL_REG &= (uint32)~TCPWM_1_RELOAD_PERIOD_MASK;
 819:Generated_Source\PSoC4/TCPWM_1.c ****     TCPWM_1_CONTROL_REG |= ((uint32)((swapEnable & TCPWM_1_1BIT_MASK) <<
 820:Generated_Source\PSoC4/TCPWM_1.c ****                                                             TCPWM_1_RELOAD_PERIOD_SHIFT));
 821:Generated_Source\PSoC4/TCPWM_1.c **** 
 822:Generated_Source\PSoC4/TCPWM_1.c ****     CyExitCriticalSection(enableInterrupts);
 823:Generated_Source\PSoC4/TCPWM_1.c **** }
 824:Generated_Source\PSoC4/TCPWM_1.c **** 
 825:Generated_Source\PSoC4/TCPWM_1.c **** 
 826:Generated_Source\PSoC4/TCPWM_1.c **** /*******************************************************************************
 827:Generated_Source\PSoC4/TCPWM_1.c **** * Function Name: TCPWM_1_WriteCompare
 828:Generated_Source\PSoC4/TCPWM_1.c **** ********************************************************************************
 829:Generated_Source\PSoC4/TCPWM_1.c **** *
 830:Generated_Source\PSoC4/TCPWM_1.c **** * Summary:
 831:Generated_Source\PSoC4/TCPWM_1.c **** *  Writes the 16 bit compare register with the new compare value. Not
 832:Generated_Source\PSoC4/TCPWM_1.c **** *  applicable for Timer/Counter with Capture or in Quadrature Decoder modes.
 833:Generated_Source\PSoC4/TCPWM_1.c **** *
 834:Generated_Source\PSoC4/TCPWM_1.c **** * Parameters:
 835:Generated_Source\PSoC4/TCPWM_1.c **** *  compare: Compare value
 836:Generated_Source\PSoC4/TCPWM_1.c **** *
 837:Generated_Source\PSoC4/TCPWM_1.c **** * Return:
 838:Generated_Source\PSoC4/TCPWM_1.c **** *  None
 839:Generated_Source\PSoC4/TCPWM_1.c **** *
 840:Generated_Source\PSoC4/TCPWM_1.c **** * Note:
 841:Generated_Source\PSoC4/TCPWM_1.c **** *  It is not recommended to use the value equal to "0" or equal to 
 842:Generated_Source\PSoC4/TCPWM_1.c **** *  "period value" in Center or Asymmetric align PWM modes on the 
 843:Generated_Source\PSoC4/TCPWM_1.c **** *  PSoC 4100/PSoC 4200 devices.
 844:Generated_Source\PSoC4/TCPWM_1.c **** *  PSoC 4000 devices write the 16 bit compare register with the decremented 
 845:Generated_Source\PSoC4/TCPWM_1.c **** *  compare value in the Up counting mode (except 0x0u), and the incremented 
 846:Generated_Source\PSoC4/TCPWM_1.c **** *  compare value in the Down counting mode (except 0xFFFFu).
 847:Generated_Source\PSoC4/TCPWM_1.c **** *
 848:Generated_Source\PSoC4/TCPWM_1.c **** *******************************************************************************/
 849:Generated_Source\PSoC4/TCPWM_1.c **** void TCPWM_1_WriteCompare(uint32 compare)
 850:Generated_Source\PSoC4/TCPWM_1.c **** {
 851:Generated_Source\PSoC4/TCPWM_1.c ****     #if (TCPWM_1_CY_TCPWM_4000)
 852:Generated_Source\PSoC4/TCPWM_1.c ****         uint32 currentMode;
 853:Generated_Source\PSoC4/TCPWM_1.c ****     #endif /* (TCPWM_1_CY_TCPWM_4000) */
 854:Generated_Source\PSoC4/TCPWM_1.c **** 
 855:Generated_Source\PSoC4/TCPWM_1.c ****     #if (TCPWM_1_CY_TCPWM_4000)
 856:Generated_Source\PSoC4/TCPWM_1.c ****         currentMode = ((TCPWM_1_CONTROL_REG & TCPWM_1_UPDOWN_MASK) >> TCPWM_1_UPDOWN_SHIFT);
 857:Generated_Source\PSoC4/TCPWM_1.c **** 
 858:Generated_Source\PSoC4/TCPWM_1.c ****         if (((uint32)TCPWM_1__COUNT_DOWN == currentMode) && (0xFFFFu != compare))
 859:Generated_Source\PSoC4/TCPWM_1.c ****         {
 860:Generated_Source\PSoC4/TCPWM_1.c ****             compare++;
 861:Generated_Source\PSoC4/TCPWM_1.c ****         }
 862:Generated_Source\PSoC4/TCPWM_1.c ****         else if (((uint32)TCPWM_1__COUNT_UP == currentMode) && (0u != compare))
 863:Generated_Source\PSoC4/TCPWM_1.c ****         {
 864:Generated_Source\PSoC4/TCPWM_1.c ****             compare--;
ARM GAS  C:\Users\jrdia\AppData\Local\Temp\ccpDBDWb.s 			page 17


 865:Generated_Source\PSoC4/TCPWM_1.c ****         }
 866:Generated_Source\PSoC4/TCPWM_1.c ****         else
 867:Generated_Source\PSoC4/TCPWM_1.c ****         {
 868:Generated_Source\PSoC4/TCPWM_1.c ****         }
 869:Generated_Source\PSoC4/TCPWM_1.c ****         
 870:Generated_Source\PSoC4/TCPWM_1.c ****     
 871:Generated_Source\PSoC4/TCPWM_1.c ****     #endif /* (TCPWM_1_CY_TCPWM_4000) */
 872:Generated_Source\PSoC4/TCPWM_1.c ****     
 873:Generated_Source\PSoC4/TCPWM_1.c ****     TCPWM_1_COMP_CAP_REG = (compare & TCPWM_1_16BIT_MASK);
 874:Generated_Source\PSoC4/TCPWM_1.c **** }
 875:Generated_Source\PSoC4/TCPWM_1.c **** 
 876:Generated_Source\PSoC4/TCPWM_1.c **** 
 877:Generated_Source\PSoC4/TCPWM_1.c **** /*******************************************************************************
 878:Generated_Source\PSoC4/TCPWM_1.c **** * Function Name: TCPWM_1_ReadCompare
 879:Generated_Source\PSoC4/TCPWM_1.c **** ********************************************************************************
 880:Generated_Source\PSoC4/TCPWM_1.c **** *
 881:Generated_Source\PSoC4/TCPWM_1.c **** * Summary:
 882:Generated_Source\PSoC4/TCPWM_1.c **** *  Reads the compare register. Not applicable for Timer/Counter with Capture
 883:Generated_Source\PSoC4/TCPWM_1.c **** *  or in Quadrature Decoder modes.
 884:Generated_Source\PSoC4/TCPWM_1.c **** *  PSoC 4000 devices read the incremented compare register value in the 
 885:Generated_Source\PSoC4/TCPWM_1.c **** *  Up counting mode (except 0xFFFFu), and the decremented value in the 
 886:Generated_Source\PSoC4/TCPWM_1.c **** *  Down counting mode (except 0x0u).
 887:Generated_Source\PSoC4/TCPWM_1.c **** *
 888:Generated_Source\PSoC4/TCPWM_1.c **** * Parameters:
 889:Generated_Source\PSoC4/TCPWM_1.c **** *  None
 890:Generated_Source\PSoC4/TCPWM_1.c **** *
 891:Generated_Source\PSoC4/TCPWM_1.c **** * Return:
 892:Generated_Source\PSoC4/TCPWM_1.c **** *  Compare value
 893:Generated_Source\PSoC4/TCPWM_1.c **** *
 894:Generated_Source\PSoC4/TCPWM_1.c **** * Note:
 895:Generated_Source\PSoC4/TCPWM_1.c **** *  PSoC 4000 devices read the incremented compare register value in the 
 896:Generated_Source\PSoC4/TCPWM_1.c **** *  Up counting mode (except 0xFFFFu), and the decremented value in the 
 897:Generated_Source\PSoC4/TCPWM_1.c **** *  Down counting mode (except 0x0u).
 898:Generated_Source\PSoC4/TCPWM_1.c **** *
 899:Generated_Source\PSoC4/TCPWM_1.c **** *******************************************************************************/
 900:Generated_Source\PSoC4/TCPWM_1.c **** uint32 TCPWM_1_ReadCompare(void)
 901:Generated_Source\PSoC4/TCPWM_1.c **** {
 902:Generated_Source\PSoC4/TCPWM_1.c ****     #if (TCPWM_1_CY_TCPWM_4000)
 903:Generated_Source\PSoC4/TCPWM_1.c ****         uint32 currentMode;
 904:Generated_Source\PSoC4/TCPWM_1.c ****         uint32 regVal;
 905:Generated_Source\PSoC4/TCPWM_1.c ****     #endif /* (TCPWM_1_CY_TCPWM_4000) */
 906:Generated_Source\PSoC4/TCPWM_1.c **** 
 907:Generated_Source\PSoC4/TCPWM_1.c ****     #if (TCPWM_1_CY_TCPWM_4000)
 908:Generated_Source\PSoC4/TCPWM_1.c ****         currentMode = ((TCPWM_1_CONTROL_REG & TCPWM_1_UPDOWN_MASK) >> TCPWM_1_UPDOWN_SHIFT);
 909:Generated_Source\PSoC4/TCPWM_1.c ****         
 910:Generated_Source\PSoC4/TCPWM_1.c ****         regVal = TCPWM_1_COMP_CAP_REG;
 911:Generated_Source\PSoC4/TCPWM_1.c ****         
 912:Generated_Source\PSoC4/TCPWM_1.c ****         if (((uint32)TCPWM_1__COUNT_DOWN == currentMode) && (0u != regVal))
 913:Generated_Source\PSoC4/TCPWM_1.c ****         {
 914:Generated_Source\PSoC4/TCPWM_1.c ****             regVal--;
 915:Generated_Source\PSoC4/TCPWM_1.c ****         }
 916:Generated_Source\PSoC4/TCPWM_1.c ****         else if (((uint32)TCPWM_1__COUNT_UP == currentMode) && (0xFFFFu != regVal))
 917:Generated_Source\PSoC4/TCPWM_1.c ****         {
 918:Generated_Source\PSoC4/TCPWM_1.c ****             regVal++;
 919:Generated_Source\PSoC4/TCPWM_1.c ****         }
 920:Generated_Source\PSoC4/TCPWM_1.c ****         else
 921:Generated_Source\PSoC4/TCPWM_1.c ****         {
ARM GAS  C:\Users\jrdia\AppData\Local\Temp\ccpDBDWb.s 			page 18


 922:Generated_Source\PSoC4/TCPWM_1.c ****         }
 923:Generated_Source\PSoC4/TCPWM_1.c **** 
 924:Generated_Source\PSoC4/TCPWM_1.c ****         return (regVal & TCPWM_1_16BIT_MASK);
 925:Generated_Source\PSoC4/TCPWM_1.c ****     #else
 926:Generated_Source\PSoC4/TCPWM_1.c ****         return (TCPWM_1_COMP_CAP_REG & TCPWM_1_16BIT_MASK);
 927:Generated_Source\PSoC4/TCPWM_1.c ****     #endif /* (TCPWM_1_CY_TCPWM_4000) */
 928:Generated_Source\PSoC4/TCPWM_1.c **** }
 929:Generated_Source\PSoC4/TCPWM_1.c **** 
 930:Generated_Source\PSoC4/TCPWM_1.c **** 
 931:Generated_Source\PSoC4/TCPWM_1.c **** /*******************************************************************************
 932:Generated_Source\PSoC4/TCPWM_1.c **** * Function Name: TCPWM_1_WriteCompareBuf
 933:Generated_Source\PSoC4/TCPWM_1.c **** ********************************************************************************
 934:Generated_Source\PSoC4/TCPWM_1.c **** *
 935:Generated_Source\PSoC4/TCPWM_1.c **** * Summary:
 936:Generated_Source\PSoC4/TCPWM_1.c **** *  Writes the 16 bit compare buffer register with the new compare value. Not
 937:Generated_Source\PSoC4/TCPWM_1.c **** *  applicable for Timer/Counter with Capture or in Quadrature Decoder modes.
 938:Generated_Source\PSoC4/TCPWM_1.c **** *
 939:Generated_Source\PSoC4/TCPWM_1.c **** * Parameters:
 940:Generated_Source\PSoC4/TCPWM_1.c **** *  compareBuf: Compare value
 941:Generated_Source\PSoC4/TCPWM_1.c **** *
 942:Generated_Source\PSoC4/TCPWM_1.c **** * Return:
 943:Generated_Source\PSoC4/TCPWM_1.c **** *  None
 944:Generated_Source\PSoC4/TCPWM_1.c **** *
 945:Generated_Source\PSoC4/TCPWM_1.c **** * Note:
 946:Generated_Source\PSoC4/TCPWM_1.c **** *  It is not recommended to use the value equal to "0" or equal to 
 947:Generated_Source\PSoC4/TCPWM_1.c **** *  "period value" in Center or Asymmetric align PWM modes on the 
 948:Generated_Source\PSoC4/TCPWM_1.c **** *  PSoC 4100/PSoC 4200 devices.
 949:Generated_Source\PSoC4/TCPWM_1.c **** *  PSoC 4000 devices write the 16 bit compare register with the decremented 
 950:Generated_Source\PSoC4/TCPWM_1.c **** *  compare value in the Up counting mode (except 0x0u), and the incremented 
 951:Generated_Source\PSoC4/TCPWM_1.c **** *  compare value in the Down counting mode (except 0xFFFFu).
 952:Generated_Source\PSoC4/TCPWM_1.c **** *
 953:Generated_Source\PSoC4/TCPWM_1.c **** *******************************************************************************/
 954:Generated_Source\PSoC4/TCPWM_1.c **** void TCPWM_1_WriteCompareBuf(uint32 compareBuf)
 955:Generated_Source\PSoC4/TCPWM_1.c **** {
 956:Generated_Source\PSoC4/TCPWM_1.c ****     #if (TCPWM_1_CY_TCPWM_4000)
 957:Generated_Source\PSoC4/TCPWM_1.c ****         uint32 currentMode;
 958:Generated_Source\PSoC4/TCPWM_1.c ****     #endif /* (TCPWM_1_CY_TCPWM_4000) */
 959:Generated_Source\PSoC4/TCPWM_1.c **** 
 960:Generated_Source\PSoC4/TCPWM_1.c ****     #if (TCPWM_1_CY_TCPWM_4000)
 961:Generated_Source\PSoC4/TCPWM_1.c ****         currentMode = ((TCPWM_1_CONTROL_REG & TCPWM_1_UPDOWN_MASK) >> TCPWM_1_UPDOWN_SHIFT);
 962:Generated_Source\PSoC4/TCPWM_1.c **** 
 963:Generated_Source\PSoC4/TCPWM_1.c ****         if (((uint32)TCPWM_1__COUNT_DOWN == currentMode) && (0xFFFFu != compareBuf))
 964:Generated_Source\PSoC4/TCPWM_1.c ****         {
 965:Generated_Source\PSoC4/TCPWM_1.c ****             compareBuf++;
 966:Generated_Source\PSoC4/TCPWM_1.c ****         }
 967:Generated_Source\PSoC4/TCPWM_1.c ****         else if (((uint32)TCPWM_1__COUNT_UP == currentMode) && (0u != compareBuf))
 968:Generated_Source\PSoC4/TCPWM_1.c ****         {
 969:Generated_Source\PSoC4/TCPWM_1.c ****             compareBuf --;
 970:Generated_Source\PSoC4/TCPWM_1.c ****         }
 971:Generated_Source\PSoC4/TCPWM_1.c ****         else
 972:Generated_Source\PSoC4/TCPWM_1.c ****         {
 973:Generated_Source\PSoC4/TCPWM_1.c ****         }
 974:Generated_Source\PSoC4/TCPWM_1.c ****     #endif /* (TCPWM_1_CY_TCPWM_4000) */
 975:Generated_Source\PSoC4/TCPWM_1.c ****     
 976:Generated_Source\PSoC4/TCPWM_1.c ****     TCPWM_1_COMP_CAP_BUF_REG = (compareBuf & TCPWM_1_16BIT_MASK);
 977:Generated_Source\PSoC4/TCPWM_1.c **** }
 978:Generated_Source\PSoC4/TCPWM_1.c **** 
ARM GAS  C:\Users\jrdia\AppData\Local\Temp\ccpDBDWb.s 			page 19


 979:Generated_Source\PSoC4/TCPWM_1.c **** 
 980:Generated_Source\PSoC4/TCPWM_1.c **** /*******************************************************************************
 981:Generated_Source\PSoC4/TCPWM_1.c **** * Function Name: TCPWM_1_ReadCompareBuf
 982:Generated_Source\PSoC4/TCPWM_1.c **** ********************************************************************************
 983:Generated_Source\PSoC4/TCPWM_1.c **** *
 984:Generated_Source\PSoC4/TCPWM_1.c **** * Summary:
 985:Generated_Source\PSoC4/TCPWM_1.c **** *  Reads the compare buffer register. Not applicable for Timer/Counter with
 986:Generated_Source\PSoC4/TCPWM_1.c **** *  Capture or in Quadrature Decoder modes.
 987:Generated_Source\PSoC4/TCPWM_1.c **** *
 988:Generated_Source\PSoC4/TCPWM_1.c **** * Parameters:
 989:Generated_Source\PSoC4/TCPWM_1.c **** *  None
 990:Generated_Source\PSoC4/TCPWM_1.c **** *
 991:Generated_Source\PSoC4/TCPWM_1.c **** * Return:
 992:Generated_Source\PSoC4/TCPWM_1.c **** *  Compare buffer value
 993:Generated_Source\PSoC4/TCPWM_1.c **** *
 994:Generated_Source\PSoC4/TCPWM_1.c **** * Note:
 995:Generated_Source\PSoC4/TCPWM_1.c **** *  PSoC 4000 devices read the incremented compare register value in the 
 996:Generated_Source\PSoC4/TCPWM_1.c **** *  Up counting mode (except 0xFFFFu), and the decremented value in the 
 997:Generated_Source\PSoC4/TCPWM_1.c **** *  Down counting mode (except 0x0u).
 998:Generated_Source\PSoC4/TCPWM_1.c **** *
 999:Generated_Source\PSoC4/TCPWM_1.c **** *******************************************************************************/
1000:Generated_Source\PSoC4/TCPWM_1.c **** uint32 TCPWM_1_ReadCompareBuf(void)
1001:Generated_Source\PSoC4/TCPWM_1.c **** {
1002:Generated_Source\PSoC4/TCPWM_1.c ****     #if (TCPWM_1_CY_TCPWM_4000)
1003:Generated_Source\PSoC4/TCPWM_1.c ****         uint32 currentMode;
1004:Generated_Source\PSoC4/TCPWM_1.c ****         uint32 regVal;
1005:Generated_Source\PSoC4/TCPWM_1.c ****     #endif /* (TCPWM_1_CY_TCPWM_4000) */
1006:Generated_Source\PSoC4/TCPWM_1.c **** 
1007:Generated_Source\PSoC4/TCPWM_1.c ****     #if (TCPWM_1_CY_TCPWM_4000)
1008:Generated_Source\PSoC4/TCPWM_1.c ****         currentMode = ((TCPWM_1_CONTROL_REG & TCPWM_1_UPDOWN_MASK) >> TCPWM_1_UPDOWN_SHIFT);
1009:Generated_Source\PSoC4/TCPWM_1.c **** 
1010:Generated_Source\PSoC4/TCPWM_1.c ****         regVal = TCPWM_1_COMP_CAP_BUF_REG;
1011:Generated_Source\PSoC4/TCPWM_1.c ****         
1012:Generated_Source\PSoC4/TCPWM_1.c ****         if (((uint32)TCPWM_1__COUNT_DOWN == currentMode) && (0u != regVal))
1013:Generated_Source\PSoC4/TCPWM_1.c ****         {
1014:Generated_Source\PSoC4/TCPWM_1.c ****             regVal--;
1015:Generated_Source\PSoC4/TCPWM_1.c ****         }
1016:Generated_Source\PSoC4/TCPWM_1.c ****         else if (((uint32)TCPWM_1__COUNT_UP == currentMode) && (0xFFFFu != regVal))
1017:Generated_Source\PSoC4/TCPWM_1.c ****         {
1018:Generated_Source\PSoC4/TCPWM_1.c ****             regVal++;
1019:Generated_Source\PSoC4/TCPWM_1.c ****         }
1020:Generated_Source\PSoC4/TCPWM_1.c ****         else
1021:Generated_Source\PSoC4/TCPWM_1.c ****         {
1022:Generated_Source\PSoC4/TCPWM_1.c ****         }
1023:Generated_Source\PSoC4/TCPWM_1.c **** 
1024:Generated_Source\PSoC4/TCPWM_1.c ****         return (regVal & TCPWM_1_16BIT_MASK);
1025:Generated_Source\PSoC4/TCPWM_1.c ****     #else
1026:Generated_Source\PSoC4/TCPWM_1.c ****         return (TCPWM_1_COMP_CAP_BUF_REG & TCPWM_1_16BIT_MASK);
1027:Generated_Source\PSoC4/TCPWM_1.c ****     #endif /* (TCPWM_1_CY_TCPWM_4000) */
1028:Generated_Source\PSoC4/TCPWM_1.c **** }
1029:Generated_Source\PSoC4/TCPWM_1.c **** 
1030:Generated_Source\PSoC4/TCPWM_1.c **** 
1031:Generated_Source\PSoC4/TCPWM_1.c **** /*******************************************************************************
1032:Generated_Source\PSoC4/TCPWM_1.c **** * Function Name: TCPWM_1_ReadCapture
1033:Generated_Source\PSoC4/TCPWM_1.c **** ********************************************************************************
1034:Generated_Source\PSoC4/TCPWM_1.c **** *
1035:Generated_Source\PSoC4/TCPWM_1.c **** * Summary:
ARM GAS  C:\Users\jrdia\AppData\Local\Temp\ccpDBDWb.s 			page 20


1036:Generated_Source\PSoC4/TCPWM_1.c **** *  Reads the captured counter value. This API is applicable only for
1037:Generated_Source\PSoC4/TCPWM_1.c **** *  Timer/Counter with the capture mode and Quadrature Decoder modes.
1038:Generated_Source\PSoC4/TCPWM_1.c **** *
1039:Generated_Source\PSoC4/TCPWM_1.c **** * Parameters:
1040:Generated_Source\PSoC4/TCPWM_1.c **** *  None
1041:Generated_Source\PSoC4/TCPWM_1.c **** *
1042:Generated_Source\PSoC4/TCPWM_1.c **** * Return:
1043:Generated_Source\PSoC4/TCPWM_1.c **** *  Capture value
1044:Generated_Source\PSoC4/TCPWM_1.c **** *
1045:Generated_Source\PSoC4/TCPWM_1.c **** *******************************************************************************/
1046:Generated_Source\PSoC4/TCPWM_1.c **** uint32 TCPWM_1_ReadCapture(void)
1047:Generated_Source\PSoC4/TCPWM_1.c **** {
1048:Generated_Source\PSoC4/TCPWM_1.c ****     return (TCPWM_1_COMP_CAP_REG & TCPWM_1_16BIT_MASK);
1049:Generated_Source\PSoC4/TCPWM_1.c **** }
1050:Generated_Source\PSoC4/TCPWM_1.c **** 
1051:Generated_Source\PSoC4/TCPWM_1.c **** 
1052:Generated_Source\PSoC4/TCPWM_1.c **** /*******************************************************************************
1053:Generated_Source\PSoC4/TCPWM_1.c **** * Function Name: TCPWM_1_ReadCaptureBuf
1054:Generated_Source\PSoC4/TCPWM_1.c **** ********************************************************************************
1055:Generated_Source\PSoC4/TCPWM_1.c **** *
1056:Generated_Source\PSoC4/TCPWM_1.c **** * Summary:
1057:Generated_Source\PSoC4/TCPWM_1.c **** *  Reads the capture buffer register. This API is applicable only for
1058:Generated_Source\PSoC4/TCPWM_1.c **** *  Timer/Counter with the capture mode and Quadrature Decoder modes.
1059:Generated_Source\PSoC4/TCPWM_1.c **** *
1060:Generated_Source\PSoC4/TCPWM_1.c **** * Parameters:
1061:Generated_Source\PSoC4/TCPWM_1.c **** *  None
1062:Generated_Source\PSoC4/TCPWM_1.c **** *
1063:Generated_Source\PSoC4/TCPWM_1.c **** * Return:
1064:Generated_Source\PSoC4/TCPWM_1.c **** *  Capture buffer value
1065:Generated_Source\PSoC4/TCPWM_1.c **** *
1066:Generated_Source\PSoC4/TCPWM_1.c **** *******************************************************************************/
1067:Generated_Source\PSoC4/TCPWM_1.c **** uint32 TCPWM_1_ReadCaptureBuf(void)
1068:Generated_Source\PSoC4/TCPWM_1.c **** {
1069:Generated_Source\PSoC4/TCPWM_1.c ****     return (TCPWM_1_COMP_CAP_BUF_REG & TCPWM_1_16BIT_MASK);
1070:Generated_Source\PSoC4/TCPWM_1.c **** }
1071:Generated_Source\PSoC4/TCPWM_1.c **** 
1072:Generated_Source\PSoC4/TCPWM_1.c **** 
1073:Generated_Source\PSoC4/TCPWM_1.c **** /*******************************************************************************
1074:Generated_Source\PSoC4/TCPWM_1.c **** * Function Name: TCPWM_1_SetCaptureMode
1075:Generated_Source\PSoC4/TCPWM_1.c **** ********************************************************************************
1076:Generated_Source\PSoC4/TCPWM_1.c **** *
1077:Generated_Source\PSoC4/TCPWM_1.c **** * Summary:
1078:Generated_Source\PSoC4/TCPWM_1.c **** *  Sets the capture trigger mode. For PWM mode this is the switch input.
1079:Generated_Source\PSoC4/TCPWM_1.c **** *  This input is not applicable to the Timer/Counter without Capture and
1080:Generated_Source\PSoC4/TCPWM_1.c **** *  Quadrature Decoder modes.
1081:Generated_Source\PSoC4/TCPWM_1.c **** *
1082:Generated_Source\PSoC4/TCPWM_1.c **** * Parameters:
1083:Generated_Source\PSoC4/TCPWM_1.c **** *  triggerMode: Enumerated trigger mode value
1084:Generated_Source\PSoC4/TCPWM_1.c **** *   Values:
1085:Generated_Source\PSoC4/TCPWM_1.c **** *     - TCPWM_1_TRIG_LEVEL     - Level
1086:Generated_Source\PSoC4/TCPWM_1.c **** *     - TCPWM_1_TRIG_RISING    - Rising edge
1087:Generated_Source\PSoC4/TCPWM_1.c **** *     - TCPWM_1_TRIG_FALLING   - Falling edge
1088:Generated_Source\PSoC4/TCPWM_1.c **** *     - TCPWM_1_TRIG_BOTH      - Both rising and falling edge
1089:Generated_Source\PSoC4/TCPWM_1.c **** *
1090:Generated_Source\PSoC4/TCPWM_1.c **** * Return:
1091:Generated_Source\PSoC4/TCPWM_1.c **** *  None
1092:Generated_Source\PSoC4/TCPWM_1.c **** *
ARM GAS  C:\Users\jrdia\AppData\Local\Temp\ccpDBDWb.s 			page 21


1093:Generated_Source\PSoC4/TCPWM_1.c **** *******************************************************************************/
1094:Generated_Source\PSoC4/TCPWM_1.c **** void TCPWM_1_SetCaptureMode(uint32 triggerMode)
1095:Generated_Source\PSoC4/TCPWM_1.c **** {
1096:Generated_Source\PSoC4/TCPWM_1.c ****     uint8 enableInterrupts;
1097:Generated_Source\PSoC4/TCPWM_1.c **** 
1098:Generated_Source\PSoC4/TCPWM_1.c ****     enableInterrupts = CyEnterCriticalSection();
1099:Generated_Source\PSoC4/TCPWM_1.c **** 
1100:Generated_Source\PSoC4/TCPWM_1.c ****     TCPWM_1_TRIG_CONTROL1_REG &= (uint32)~TCPWM_1_CAPTURE_MASK;
1101:Generated_Source\PSoC4/TCPWM_1.c ****     TCPWM_1_TRIG_CONTROL1_REG |= triggerMode;
1102:Generated_Source\PSoC4/TCPWM_1.c **** 
1103:Generated_Source\PSoC4/TCPWM_1.c ****     CyExitCriticalSection(enableInterrupts);
1104:Generated_Source\PSoC4/TCPWM_1.c **** }
1105:Generated_Source\PSoC4/TCPWM_1.c **** 
1106:Generated_Source\PSoC4/TCPWM_1.c **** 
1107:Generated_Source\PSoC4/TCPWM_1.c **** /*******************************************************************************
1108:Generated_Source\PSoC4/TCPWM_1.c **** * Function Name: TCPWM_1_SetReloadMode
1109:Generated_Source\PSoC4/TCPWM_1.c **** ********************************************************************************
1110:Generated_Source\PSoC4/TCPWM_1.c **** *
1111:Generated_Source\PSoC4/TCPWM_1.c **** * Summary:
1112:Generated_Source\PSoC4/TCPWM_1.c **** *  Sets the reload trigger mode. For Quadrature Decoder mode this is the index
1113:Generated_Source\PSoC4/TCPWM_1.c **** *  input.
1114:Generated_Source\PSoC4/TCPWM_1.c **** *
1115:Generated_Source\PSoC4/TCPWM_1.c **** * Parameters:
1116:Generated_Source\PSoC4/TCPWM_1.c **** *  triggerMode: Enumerated trigger mode value
1117:Generated_Source\PSoC4/TCPWM_1.c **** *   Values:
1118:Generated_Source\PSoC4/TCPWM_1.c **** *     - TCPWM_1_TRIG_LEVEL     - Level
1119:Generated_Source\PSoC4/TCPWM_1.c **** *     - TCPWM_1_TRIG_RISING    - Rising edge
1120:Generated_Source\PSoC4/TCPWM_1.c **** *     - TCPWM_1_TRIG_FALLING   - Falling edge
1121:Generated_Source\PSoC4/TCPWM_1.c **** *     - TCPWM_1_TRIG_BOTH      - Both rising and falling edge
1122:Generated_Source\PSoC4/TCPWM_1.c **** *
1123:Generated_Source\PSoC4/TCPWM_1.c **** * Return:
1124:Generated_Source\PSoC4/TCPWM_1.c **** *  None
1125:Generated_Source\PSoC4/TCPWM_1.c **** *
1126:Generated_Source\PSoC4/TCPWM_1.c **** *******************************************************************************/
1127:Generated_Source\PSoC4/TCPWM_1.c **** void TCPWM_1_SetReloadMode(uint32 triggerMode)
1128:Generated_Source\PSoC4/TCPWM_1.c **** {
1129:Generated_Source\PSoC4/TCPWM_1.c ****     uint8 enableInterrupts;
1130:Generated_Source\PSoC4/TCPWM_1.c **** 
1131:Generated_Source\PSoC4/TCPWM_1.c ****     enableInterrupts = CyEnterCriticalSection();
1132:Generated_Source\PSoC4/TCPWM_1.c **** 
1133:Generated_Source\PSoC4/TCPWM_1.c ****     TCPWM_1_TRIG_CONTROL1_REG &= (uint32)~TCPWM_1_RELOAD_MASK;
1134:Generated_Source\PSoC4/TCPWM_1.c ****     TCPWM_1_TRIG_CONTROL1_REG |= ((uint32)(triggerMode << TCPWM_1_RELOAD_SHIFT));
1135:Generated_Source\PSoC4/TCPWM_1.c **** 
1136:Generated_Source\PSoC4/TCPWM_1.c ****     CyExitCriticalSection(enableInterrupts);
1137:Generated_Source\PSoC4/TCPWM_1.c **** }
1138:Generated_Source\PSoC4/TCPWM_1.c **** 
1139:Generated_Source\PSoC4/TCPWM_1.c **** 
1140:Generated_Source\PSoC4/TCPWM_1.c **** /*******************************************************************************
1141:Generated_Source\PSoC4/TCPWM_1.c **** * Function Name: TCPWM_1_SetStartMode
1142:Generated_Source\PSoC4/TCPWM_1.c **** ********************************************************************************
1143:Generated_Source\PSoC4/TCPWM_1.c **** *
1144:Generated_Source\PSoC4/TCPWM_1.c **** * Summary:
1145:Generated_Source\PSoC4/TCPWM_1.c **** *  Sets the start trigger mode. For Quadrature Decoder mode this is the
1146:Generated_Source\PSoC4/TCPWM_1.c **** *  phiB input.
1147:Generated_Source\PSoC4/TCPWM_1.c **** *
1148:Generated_Source\PSoC4/TCPWM_1.c **** * Parameters:
1149:Generated_Source\PSoC4/TCPWM_1.c **** *  triggerMode: Enumerated trigger mode value
ARM GAS  C:\Users\jrdia\AppData\Local\Temp\ccpDBDWb.s 			page 22


1150:Generated_Source\PSoC4/TCPWM_1.c **** *   Values:
1151:Generated_Source\PSoC4/TCPWM_1.c **** *     - TCPWM_1_TRIG_LEVEL     - Level
1152:Generated_Source\PSoC4/TCPWM_1.c **** *     - TCPWM_1_TRIG_RISING    - Rising edge
1153:Generated_Source\PSoC4/TCPWM_1.c **** *     - TCPWM_1_TRIG_FALLING   - Falling edge
1154:Generated_Source\PSoC4/TCPWM_1.c **** *     - TCPWM_1_TRIG_BOTH      - Both rising and falling edge
1155:Generated_Source\PSoC4/TCPWM_1.c **** *
1156:Generated_Source\PSoC4/TCPWM_1.c **** * Return:
1157:Generated_Source\PSoC4/TCPWM_1.c **** *  None
1158:Generated_Source\PSoC4/TCPWM_1.c **** *
1159:Generated_Source\PSoC4/TCPWM_1.c **** *******************************************************************************/
1160:Generated_Source\PSoC4/TCPWM_1.c **** void TCPWM_1_SetStartMode(uint32 triggerMode)
1161:Generated_Source\PSoC4/TCPWM_1.c **** {
1162:Generated_Source\PSoC4/TCPWM_1.c ****     uint8 enableInterrupts;
1163:Generated_Source\PSoC4/TCPWM_1.c **** 
1164:Generated_Source\PSoC4/TCPWM_1.c ****     enableInterrupts = CyEnterCriticalSection();
1165:Generated_Source\PSoC4/TCPWM_1.c **** 
1166:Generated_Source\PSoC4/TCPWM_1.c ****     TCPWM_1_TRIG_CONTROL1_REG &= (uint32)~TCPWM_1_START_MASK;
1167:Generated_Source\PSoC4/TCPWM_1.c ****     TCPWM_1_TRIG_CONTROL1_REG |= ((uint32)(triggerMode << TCPWM_1_START_SHIFT));
1168:Generated_Source\PSoC4/TCPWM_1.c **** 
1169:Generated_Source\PSoC4/TCPWM_1.c ****     CyExitCriticalSection(enableInterrupts);
1170:Generated_Source\PSoC4/TCPWM_1.c **** }
1171:Generated_Source\PSoC4/TCPWM_1.c **** 
1172:Generated_Source\PSoC4/TCPWM_1.c **** 
1173:Generated_Source\PSoC4/TCPWM_1.c **** /*******************************************************************************
1174:Generated_Source\PSoC4/TCPWM_1.c **** * Function Name: TCPWM_1_SetStopMode
1175:Generated_Source\PSoC4/TCPWM_1.c **** ********************************************************************************
1176:Generated_Source\PSoC4/TCPWM_1.c **** *
1177:Generated_Source\PSoC4/TCPWM_1.c **** * Summary:
1178:Generated_Source\PSoC4/TCPWM_1.c **** *  Sets the stop trigger mode. For PWM mode this is the kill input.
1179:Generated_Source\PSoC4/TCPWM_1.c **** *
1180:Generated_Source\PSoC4/TCPWM_1.c **** * Parameters:
1181:Generated_Source\PSoC4/TCPWM_1.c **** *  triggerMode: Enumerated trigger mode value
1182:Generated_Source\PSoC4/TCPWM_1.c **** *   Values:
1183:Generated_Source\PSoC4/TCPWM_1.c **** *     - TCPWM_1_TRIG_LEVEL     - Level
1184:Generated_Source\PSoC4/TCPWM_1.c **** *     - TCPWM_1_TRIG_RISING    - Rising edge
1185:Generated_Source\PSoC4/TCPWM_1.c **** *     - TCPWM_1_TRIG_FALLING   - Falling edge
1186:Generated_Source\PSoC4/TCPWM_1.c **** *     - TCPWM_1_TRIG_BOTH      - Both rising and falling edge
1187:Generated_Source\PSoC4/TCPWM_1.c **** *
1188:Generated_Source\PSoC4/TCPWM_1.c **** * Return:
1189:Generated_Source\PSoC4/TCPWM_1.c **** *  None
1190:Generated_Source\PSoC4/TCPWM_1.c **** *
1191:Generated_Source\PSoC4/TCPWM_1.c **** *******************************************************************************/
1192:Generated_Source\PSoC4/TCPWM_1.c **** void TCPWM_1_SetStopMode(uint32 triggerMode)
1193:Generated_Source\PSoC4/TCPWM_1.c **** {
1194:Generated_Source\PSoC4/TCPWM_1.c ****     uint8 enableInterrupts;
1195:Generated_Source\PSoC4/TCPWM_1.c **** 
1196:Generated_Source\PSoC4/TCPWM_1.c ****     enableInterrupts = CyEnterCriticalSection();
1197:Generated_Source\PSoC4/TCPWM_1.c **** 
1198:Generated_Source\PSoC4/TCPWM_1.c ****     TCPWM_1_TRIG_CONTROL1_REG &= (uint32)~TCPWM_1_STOP_MASK;
1199:Generated_Source\PSoC4/TCPWM_1.c ****     TCPWM_1_TRIG_CONTROL1_REG |= ((uint32)(triggerMode << TCPWM_1_STOP_SHIFT));
1200:Generated_Source\PSoC4/TCPWM_1.c **** 
1201:Generated_Source\PSoC4/TCPWM_1.c ****     CyExitCriticalSection(enableInterrupts);
1202:Generated_Source\PSoC4/TCPWM_1.c **** }
1203:Generated_Source\PSoC4/TCPWM_1.c **** 
1204:Generated_Source\PSoC4/TCPWM_1.c **** 
1205:Generated_Source\PSoC4/TCPWM_1.c **** /*******************************************************************************
1206:Generated_Source\PSoC4/TCPWM_1.c **** * Function Name: TCPWM_1_SetCountMode
ARM GAS  C:\Users\jrdia\AppData\Local\Temp\ccpDBDWb.s 			page 23


1207:Generated_Source\PSoC4/TCPWM_1.c **** ********************************************************************************
1208:Generated_Source\PSoC4/TCPWM_1.c **** *
1209:Generated_Source\PSoC4/TCPWM_1.c **** * Summary:
1210:Generated_Source\PSoC4/TCPWM_1.c **** *  Sets the count trigger mode. For Quadrature Decoder mode this is the phiA
1211:Generated_Source\PSoC4/TCPWM_1.c **** *  input.
1212:Generated_Source\PSoC4/TCPWM_1.c **** *
1213:Generated_Source\PSoC4/TCPWM_1.c **** * Parameters:
1214:Generated_Source\PSoC4/TCPWM_1.c **** *  triggerMode: Enumerated trigger mode value
1215:Generated_Source\PSoC4/TCPWM_1.c **** *   Values:
1216:Generated_Source\PSoC4/TCPWM_1.c **** *     - TCPWM_1_TRIG_LEVEL     - Level
1217:Generated_Source\PSoC4/TCPWM_1.c **** *     - TCPWM_1_TRIG_RISING    - Rising edge
1218:Generated_Source\PSoC4/TCPWM_1.c **** *     - TCPWM_1_TRIG_FALLING   - Falling edge
1219:Generated_Source\PSoC4/TCPWM_1.c **** *     - TCPWM_1_TRIG_BOTH      - Both rising and falling edge
1220:Generated_Source\PSoC4/TCPWM_1.c **** *
1221:Generated_Source\PSoC4/TCPWM_1.c **** * Return:
1222:Generated_Source\PSoC4/TCPWM_1.c **** *  None
1223:Generated_Source\PSoC4/TCPWM_1.c **** *
1224:Generated_Source\PSoC4/TCPWM_1.c **** *******************************************************************************/
1225:Generated_Source\PSoC4/TCPWM_1.c **** void TCPWM_1_SetCountMode(uint32 triggerMode)
1226:Generated_Source\PSoC4/TCPWM_1.c **** {
1227:Generated_Source\PSoC4/TCPWM_1.c ****     uint8 enableInterrupts;
1228:Generated_Source\PSoC4/TCPWM_1.c **** 
1229:Generated_Source\PSoC4/TCPWM_1.c ****     enableInterrupts = CyEnterCriticalSection();
1230:Generated_Source\PSoC4/TCPWM_1.c **** 
1231:Generated_Source\PSoC4/TCPWM_1.c ****     TCPWM_1_TRIG_CONTROL1_REG &= (uint32)~TCPWM_1_COUNT_MASK;
1232:Generated_Source\PSoC4/TCPWM_1.c ****     TCPWM_1_TRIG_CONTROL1_REG |= ((uint32)(triggerMode << TCPWM_1_COUNT_SHIFT));
1233:Generated_Source\PSoC4/TCPWM_1.c **** 
1234:Generated_Source\PSoC4/TCPWM_1.c ****     CyExitCriticalSection(enableInterrupts);
1235:Generated_Source\PSoC4/TCPWM_1.c **** }
1236:Generated_Source\PSoC4/TCPWM_1.c **** 
1237:Generated_Source\PSoC4/TCPWM_1.c **** 
1238:Generated_Source\PSoC4/TCPWM_1.c **** /*******************************************************************************
1239:Generated_Source\PSoC4/TCPWM_1.c **** * Function Name: TCPWM_1_TriggerCommand
1240:Generated_Source\PSoC4/TCPWM_1.c **** ********************************************************************************
1241:Generated_Source\PSoC4/TCPWM_1.c **** *
1242:Generated_Source\PSoC4/TCPWM_1.c **** * Summary:
1243:Generated_Source\PSoC4/TCPWM_1.c **** *  Triggers the designated command to occur on the designated TCPWM instances.
1244:Generated_Source\PSoC4/TCPWM_1.c **** *  The mask can be used to apply this command simultaneously to more than one
1245:Generated_Source\PSoC4/TCPWM_1.c **** *  instance.  This allows multiple TCPWM instances to be synchronized.
1246:Generated_Source\PSoC4/TCPWM_1.c **** *
1247:Generated_Source\PSoC4/TCPWM_1.c **** * Parameters:
1248:Generated_Source\PSoC4/TCPWM_1.c **** *  mask: A combination of mask bits for each instance of the TCPWM that the
1249:Generated_Source\PSoC4/TCPWM_1.c **** *        command should apply to.  This function from one instance can be used
1250:Generated_Source\PSoC4/TCPWM_1.c **** *        to apply the command to any of the instances in the design.
1251:Generated_Source\PSoC4/TCPWM_1.c **** *        The mask value for a specific instance is available with the MASK
1252:Generated_Source\PSoC4/TCPWM_1.c **** *        define.
1253:Generated_Source\PSoC4/TCPWM_1.c **** *  command: Enumerated command values. Capture command only applicable for
1254:Generated_Source\PSoC4/TCPWM_1.c **** *           Timer/Counter with Capture and PWM modes.
1255:Generated_Source\PSoC4/TCPWM_1.c **** *   Values:
1256:Generated_Source\PSoC4/TCPWM_1.c **** *     - TCPWM_1_CMD_CAPTURE    - Trigger Capture/Switch command
1257:Generated_Source\PSoC4/TCPWM_1.c **** *     - TCPWM_1_CMD_RELOAD     - Trigger Reload/Index command
1258:Generated_Source\PSoC4/TCPWM_1.c **** *     - TCPWM_1_CMD_STOP       - Trigger Stop/Kill command
1259:Generated_Source\PSoC4/TCPWM_1.c **** *     - TCPWM_1_CMD_START      - Trigger Start/phiB command
1260:Generated_Source\PSoC4/TCPWM_1.c **** *
1261:Generated_Source\PSoC4/TCPWM_1.c **** * Return:
1262:Generated_Source\PSoC4/TCPWM_1.c **** *  None
1263:Generated_Source\PSoC4/TCPWM_1.c **** *
ARM GAS  C:\Users\jrdia\AppData\Local\Temp\ccpDBDWb.s 			page 24


1264:Generated_Source\PSoC4/TCPWM_1.c **** *******************************************************************************/
1265:Generated_Source\PSoC4/TCPWM_1.c **** void TCPWM_1_TriggerCommand(uint32 mask, uint32 command)
1266:Generated_Source\PSoC4/TCPWM_1.c **** {
1267:Generated_Source\PSoC4/TCPWM_1.c ****     uint8 enableInterrupts;
1268:Generated_Source\PSoC4/TCPWM_1.c **** 
1269:Generated_Source\PSoC4/TCPWM_1.c ****     enableInterrupts = CyEnterCriticalSection();
1270:Generated_Source\PSoC4/TCPWM_1.c **** 
1271:Generated_Source\PSoC4/TCPWM_1.c ****     TCPWM_1_COMMAND_REG = ((uint32)(mask << command));
1272:Generated_Source\PSoC4/TCPWM_1.c **** 
1273:Generated_Source\PSoC4/TCPWM_1.c ****     CyExitCriticalSection(enableInterrupts);
1274:Generated_Source\PSoC4/TCPWM_1.c **** }
1275:Generated_Source\PSoC4/TCPWM_1.c **** 
1276:Generated_Source\PSoC4/TCPWM_1.c **** 
1277:Generated_Source\PSoC4/TCPWM_1.c **** /*******************************************************************************
1278:Generated_Source\PSoC4/TCPWM_1.c **** * Function Name: TCPWM_1_ReadStatus
1279:Generated_Source\PSoC4/TCPWM_1.c **** ********************************************************************************
1280:Generated_Source\PSoC4/TCPWM_1.c **** *
1281:Generated_Source\PSoC4/TCPWM_1.c **** * Summary:
1282:Generated_Source\PSoC4/TCPWM_1.c **** *  Reads the status of the TCPWM_1.
1283:Generated_Source\PSoC4/TCPWM_1.c **** *
1284:Generated_Source\PSoC4/TCPWM_1.c **** * Parameters:
1285:Generated_Source\PSoC4/TCPWM_1.c **** *  None
1286:Generated_Source\PSoC4/TCPWM_1.c **** *
1287:Generated_Source\PSoC4/TCPWM_1.c **** * Return:
1288:Generated_Source\PSoC4/TCPWM_1.c **** *  Status
1289:Generated_Source\PSoC4/TCPWM_1.c **** *   Values:
1290:Generated_Source\PSoC4/TCPWM_1.c **** *     - TCPWM_1_STATUS_DOWN    - Set if counting down
1291:Generated_Source\PSoC4/TCPWM_1.c **** *     - TCPWM_1_STATUS_RUNNING - Set if counter is running
1292:Generated_Source\PSoC4/TCPWM_1.c **** *
1293:Generated_Source\PSoC4/TCPWM_1.c **** *******************************************************************************/
1294:Generated_Source\PSoC4/TCPWM_1.c **** uint32 TCPWM_1_ReadStatus(void)
1295:Generated_Source\PSoC4/TCPWM_1.c **** {
1296:Generated_Source\PSoC4/TCPWM_1.c ****     return ((TCPWM_1_STATUS_REG >> TCPWM_1_RUNNING_STATUS_SHIFT) |
1297:Generated_Source\PSoC4/TCPWM_1.c ****             (TCPWM_1_STATUS_REG & TCPWM_1_STATUS_DOWN));
1298:Generated_Source\PSoC4/TCPWM_1.c **** }
1299:Generated_Source\PSoC4/TCPWM_1.c **** 
1300:Generated_Source\PSoC4/TCPWM_1.c **** 
1301:Generated_Source\PSoC4/TCPWM_1.c **** /*******************************************************************************
1302:Generated_Source\PSoC4/TCPWM_1.c **** * Function Name: TCPWM_1_SetInterruptMode
1303:Generated_Source\PSoC4/TCPWM_1.c **** ********************************************************************************
1304:Generated_Source\PSoC4/TCPWM_1.c **** *
1305:Generated_Source\PSoC4/TCPWM_1.c **** * Summary:
1306:Generated_Source\PSoC4/TCPWM_1.c **** *  Sets the interrupt mask to control which interrupt
1307:Generated_Source\PSoC4/TCPWM_1.c **** *  requests generate the interrupt signal.
1308:Generated_Source\PSoC4/TCPWM_1.c **** *
1309:Generated_Source\PSoC4/TCPWM_1.c **** * Parameters:
1310:Generated_Source\PSoC4/TCPWM_1.c **** *   interruptMask: Mask of bits to be enabled
1311:Generated_Source\PSoC4/TCPWM_1.c **** *   Values:
1312:Generated_Source\PSoC4/TCPWM_1.c **** *     - TCPWM_1_INTR_MASK_TC       - Terminal count mask
1313:Generated_Source\PSoC4/TCPWM_1.c **** *     - TCPWM_1_INTR_MASK_CC_MATCH - Compare count / capture mask
1314:Generated_Source\PSoC4/TCPWM_1.c **** *
1315:Generated_Source\PSoC4/TCPWM_1.c **** * Return:
1316:Generated_Source\PSoC4/TCPWM_1.c **** *  None
1317:Generated_Source\PSoC4/TCPWM_1.c **** *
1318:Generated_Source\PSoC4/TCPWM_1.c **** *******************************************************************************/
1319:Generated_Source\PSoC4/TCPWM_1.c **** void TCPWM_1_SetInterruptMode(uint32 interruptMask)
1320:Generated_Source\PSoC4/TCPWM_1.c **** {
ARM GAS  C:\Users\jrdia\AppData\Local\Temp\ccpDBDWb.s 			page 25


1321:Generated_Source\PSoC4/TCPWM_1.c ****     TCPWM_1_INTERRUPT_MASK_REG =  interruptMask;
  48              		.loc 1 1321 0
  49 000e 074B     		ldr	r3, .L2+8
  50 0010 0B3A     		subs	r2, r2, #11
  51 0012 1A60     		str	r2, [r3]
  52              	.LVL1:
  53              	.LBE19:
  54              	.LBE18:
  55              	.LBB20:
  56              	.LBB21:
 695:Generated_Source\PSoC4/TCPWM_1.c **** }
  57              		.loc 1 695 0
  58 0014 064A     		ldr	r2, .L2+12
  59 0016 074B     		ldr	r3, .L2+16
  60 0018 1A60     		str	r2, [r3]
  61              	.LVL2:
  62              	.LBE21:
  63              	.LBE20:
  64              	.LBB22:
  65              	.LBB23:
 617:Generated_Source\PSoC4/TCPWM_1.c **** }
  66              		.loc 1 617 0
  67 001a 0022     		movs	r2, #0
  68 001c 064B     		ldr	r3, .L2+20
  69 001e 1A60     		str	r2, [r3]
  70              	.LVL3:
  71              	.LBE23:
  72              	.LBE22:
 160:Generated_Source\PSoC4/TCPWM_1.c **** 
  73              		.loc 1 160 0
  74 0020 7047     		bx	lr
  75              	.L3:
  76 0022 C046     		.align	2
  77              	.L2:
  78 0024 00010540 		.word	1074069760
  79 0028 24010540 		.word	1074069796
  80 002c 38010540 		.word	1074069816
  81 0030 FFFF0000 		.word	65535
  82 0034 14010540 		.word	1074069780
  83 0038 08010540 		.word	1074069768
  84              		.cfi_endproc
  85              	.LFE0:
  86              		.size	TCPWM_1_Init, .-TCPWM_1_Init
  87              		.section	.text.TCPWM_1_Enable,"ax",%progbits
  88              		.align	2
  89              		.global	TCPWM_1_Enable
  90              		.code	16
  91              		.thumb_func
  92              		.type	TCPWM_1_Enable, %function
  93              	TCPWM_1_Enable:
  94              	.LFB1:
 178:Generated_Source\PSoC4/TCPWM_1.c ****     uint8 enableInterrupts;
  95              		.loc 1 178 0
  96              		.cfi_startproc
  97              		@ args = 0, pretend = 0, frame = 0
  98              		@ frame_needed = 0, uses_anonymous_args = 0
  99 0000 10B5     		push	{r4, lr}
ARM GAS  C:\Users\jrdia\AppData\Local\Temp\ccpDBDWb.s 			page 26


 100              		.cfi_def_cfa_offset 8
 101              		.cfi_offset 4, -8
 102              		.cfi_offset 14, -4
 181:Generated_Source\PSoC4/TCPWM_1.c ****     TCPWM_1_BLOCK_CONTROL_REG |= TCPWM_1_MASK;
 103              		.loc 1 181 0
 104 0002 FFF7FEFF 		bl	CyEnterCriticalSection
 105              	.LVL4:
 182:Generated_Source\PSoC4/TCPWM_1.c ****     CyExitCriticalSection(enableInterrupts);
 106              		.loc 1 182 0
 107 0006 0123     		movs	r3, #1
 108 0008 074A     		ldr	r2, .L5
 203:Generated_Source\PSoC4/TCPWM_1.c **** 
 109              		.loc 1 203 0
 110              		@ sp needed
 182:Generated_Source\PSoC4/TCPWM_1.c ****     CyExitCriticalSection(enableInterrupts);
 111              		.loc 1 182 0
 112 000a 1168     		ldr	r1, [r2]
 113 000c 0B43     		orrs	r3, r1
 114 000e 1360     		str	r3, [r2]
 183:Generated_Source\PSoC4/TCPWM_1.c **** 
 115              		.loc 1 183 0
 116 0010 FFF7FEFF 		bl	CyExitCriticalSection
 117              	.LVL5:
 118              	.LBB24:
 119              	.LBB25:
1269:Generated_Source\PSoC4/TCPWM_1.c **** 
 120              		.loc 1 1269 0
 121 0014 FFF7FEFF 		bl	CyEnterCriticalSection
 122              	.LVL6:
1271:Generated_Source\PSoC4/TCPWM_1.c **** 
 123              		.loc 1 1271 0
 124 0018 8022     		movs	r2, #128
 125 001a 044B     		ldr	r3, .L5+4
 126 001c 5204     		lsls	r2, r2, #17
 127 001e 1A60     		str	r2, [r3]
1273:Generated_Source\PSoC4/TCPWM_1.c **** }
 128              		.loc 1 1273 0
 129 0020 FFF7FEFF 		bl	CyExitCriticalSection
 130              	.LVL7:
 131              	.LBE25:
 132              	.LBE24:
 203:Generated_Source\PSoC4/TCPWM_1.c **** 
 133              		.loc 1 203 0
 134 0024 10BD     		pop	{r4, pc}
 135              	.L6:
 136 0026 C046     		.align	2
 137              	.L5:
 138 0028 00000540 		.word	1074069504
 139 002c 08000540 		.word	1074069512
 140              		.cfi_endproc
 141              	.LFE1:
 142              		.size	TCPWM_1_Enable, .-TCPWM_1_Enable
 143              		.section	.text.TCPWM_1_Start,"ax",%progbits
 144              		.align	2
 145              		.global	TCPWM_1_Start
 146              		.code	16
 147              		.thumb_func
ARM GAS  C:\Users\jrdia\AppData\Local\Temp\ccpDBDWb.s 			page 27


 148              		.type	TCPWM_1_Start, %function
 149              	TCPWM_1_Start:
 150              	.LFB2:
 231:Generated_Source\PSoC4/TCPWM_1.c ****     if (0u == TCPWM_1_initVar)
 151              		.loc 1 231 0
 152              		.cfi_startproc
 153              		@ args = 0, pretend = 0, frame = 0
 154              		@ frame_needed = 0, uses_anonymous_args = 0
 155 0000 10B5     		push	{r4, lr}
 156              		.cfi_def_cfa_offset 8
 157              		.cfi_offset 4, -8
 158              		.cfi_offset 14, -4
 232:Generated_Source\PSoC4/TCPWM_1.c ****     {
 159              		.loc 1 232 0
 160 0002 0B4B     		ldr	r3, .L10
 161 0004 1A78     		ldrb	r2, [r3]
 162 0006 002A     		cmp	r2, #0
 163 0008 0FD1     		bne	.L8
 164              	.LBB26:
 165              	.LBB27:
  58:Generated_Source\PSoC4/TCPWM_1.c ****         
 166              		.loc 1 58 0
 167 000a 8020     		movs	r0, #128
 168 000c 0949     		ldr	r1, .L10+4
 169 000e 8004     		lsls	r0, r0, #18
 170 0010 0860     		str	r0, [r1]
  61:Generated_Source\PSoC4/TCPWM_1.c ****     
 171              		.loc 1 61 0
 172 0012 0C20     		movs	r0, #12
 173 0014 0849     		ldr	r1, .L10+8
 174              	.LBB28:
 175              	.LBB29:
 695:Generated_Source\PSoC4/TCPWM_1.c **** }
 176              		.loc 1 695 0
 177 0016 094C     		ldr	r4, .L10+12
 178              	.LBE29:
 179              	.LBE28:
  61:Generated_Source\PSoC4/TCPWM_1.c ****     
 180              		.loc 1 61 0
 181 0018 0860     		str	r0, [r1]
 182              	.LVL8:
 183              	.LBB31:
 184              	.LBB32:
 185              		.loc 1 1321 0
 186 001a 0121     		movs	r1, #1
 187 001c 0848     		ldr	r0, .L10+16
 188 001e 0160     		str	r1, [r0]
 189              	.LVL9:
 190              	.LBE32:
 191              	.LBE31:
 192              	.LBB33:
 193              	.LBB30:
 695:Generated_Source\PSoC4/TCPWM_1.c **** }
 194              		.loc 1 695 0
 195 0020 0848     		ldr	r0, .L10+20
 196 0022 0460     		str	r4, [r0]
 197              	.LVL10:
ARM GAS  C:\Users\jrdia\AppData\Local\Temp\ccpDBDWb.s 			page 28


 198              	.LBE30:
 199              	.LBE33:
 200              	.LBB34:
 201              	.LBB35:
 617:Generated_Source\PSoC4/TCPWM_1.c **** }
 202              		.loc 1 617 0
 203 0024 0848     		ldr	r0, .L10+24
 204 0026 0260     		str	r2, [r0]
 205              	.LVL11:
 206              	.LBE35:
 207              	.LBE34:
 208              	.LBE27:
 209              	.LBE26:
 235:Generated_Source\PSoC4/TCPWM_1.c ****     }
 210              		.loc 1 235 0
 211 0028 1970     		strb	r1, [r3]
 212              	.L8:
 238:Generated_Source\PSoC4/TCPWM_1.c **** }
 213              		.loc 1 238 0
 214 002a FFF7FEFF 		bl	TCPWM_1_Enable
 215              	.LVL12:
 239:Generated_Source\PSoC4/TCPWM_1.c **** 
 216              		.loc 1 239 0
 217              		@ sp needed
 218 002e 10BD     		pop	{r4, pc}
 219              	.L11:
 220              		.align	2
 221              	.L10:
 222 0030 00000000 		.word	.LANCHOR0
 223 0034 00010540 		.word	1074069760
 224 0038 24010540 		.word	1074069796
 225 003c FFFF0000 		.word	65535
 226 0040 38010540 		.word	1074069816
 227 0044 14010540 		.word	1074069780
 228 0048 08010540 		.word	1074069768
 229              		.cfi_endproc
 230              	.LFE2:
 231              		.size	TCPWM_1_Start, .-TCPWM_1_Start
 232              		.section	.text.TCPWM_1_Stop,"ax",%progbits
 233              		.align	2
 234              		.global	TCPWM_1_Stop
 235              		.code	16
 236              		.thumb_func
 237              		.type	TCPWM_1_Stop, %function
 238              	TCPWM_1_Stop:
 239              	.LFB3:
 257:Generated_Source\PSoC4/TCPWM_1.c ****     uint8 enableInterrupts;
 240              		.loc 1 257 0
 241              		.cfi_startproc
 242              		@ args = 0, pretend = 0, frame = 0
 243              		@ frame_needed = 0, uses_anonymous_args = 0
 244 0000 10B5     		push	{r4, lr}
 245              		.cfi_def_cfa_offset 8
 246              		.cfi_offset 4, -8
 247              		.cfi_offset 14, -4
 260:Generated_Source\PSoC4/TCPWM_1.c **** 
 248              		.loc 1 260 0
ARM GAS  C:\Users\jrdia\AppData\Local\Temp\ccpDBDWb.s 			page 29


 249 0002 FFF7FEFF 		bl	CyEnterCriticalSection
 250              	.LVL13:
 262:Generated_Source\PSoC4/TCPWM_1.c **** 
 251              		.loc 1 262 0
 252 0006 0121     		movs	r1, #1
 253 0008 034A     		ldr	r2, .L13
 265:Generated_Source\PSoC4/TCPWM_1.c **** 
 254              		.loc 1 265 0
 255              		@ sp needed
 262:Generated_Source\PSoC4/TCPWM_1.c **** 
 256              		.loc 1 262 0
 257 000a 1368     		ldr	r3, [r2]
 258 000c 8B43     		bics	r3, r1
 259 000e 1360     		str	r3, [r2]
 264:Generated_Source\PSoC4/TCPWM_1.c **** }
 260              		.loc 1 264 0
 261 0010 FFF7FEFF 		bl	CyExitCriticalSection
 262              	.LVL14:
 265:Generated_Source\PSoC4/TCPWM_1.c **** 
 263              		.loc 1 265 0
 264 0014 10BD     		pop	{r4, pc}
 265              	.L14:
 266 0016 C046     		.align	2
 267              	.L13:
 268 0018 00000540 		.word	1074069504
 269              		.cfi_endproc
 270              	.LFE3:
 271              		.size	TCPWM_1_Stop, .-TCPWM_1_Stop
 272              		.section	.text.TCPWM_1_SetMode,"ax",%progbits
 273              		.align	2
 274              		.global	TCPWM_1_SetMode
 275              		.code	16
 276              		.thumb_func
 277              		.type	TCPWM_1_SetMode, %function
 278              	TCPWM_1_SetMode:
 279              	.LFB4:
 294:Generated_Source\PSoC4/TCPWM_1.c ****     uint8 enableInterrupts;
 280              		.loc 1 294 0
 281              		.cfi_startproc
 282              		@ args = 0, pretend = 0, frame = 0
 283              		@ frame_needed = 0, uses_anonymous_args = 0
 284              	.LVL15:
 285 0000 10B5     		push	{r4, lr}
 286              		.cfi_def_cfa_offset 8
 287              		.cfi_offset 4, -8
 288              		.cfi_offset 14, -4
 294:Generated_Source\PSoC4/TCPWM_1.c ****     uint8 enableInterrupts;
 289              		.loc 1 294 0
 290 0002 0400     		movs	r4, r0
 297:Generated_Source\PSoC4/TCPWM_1.c **** 
 291              		.loc 1 297 0
 292 0004 FFF7FEFF 		bl	CyEnterCriticalSection
 293              	.LVL16:
 299:Generated_Source\PSoC4/TCPWM_1.c ****     TCPWM_1_CONTROL_REG |= mode;
 294              		.loc 1 299 0
 295 0008 054B     		ldr	r3, .L16
 296 000a 064A     		ldr	r2, .L16+4
ARM GAS  C:\Users\jrdia\AppData\Local\Temp\ccpDBDWb.s 			page 30


 297 000c 1968     		ldr	r1, [r3]
 303:Generated_Source\PSoC4/TCPWM_1.c **** 
 298              		.loc 1 303 0
 299              		@ sp needed
 299:Generated_Source\PSoC4/TCPWM_1.c ****     TCPWM_1_CONTROL_REG |= mode;
 300              		.loc 1 299 0
 301 000e 0A40     		ands	r2, r1
 302 0010 1A60     		str	r2, [r3]
 300:Generated_Source\PSoC4/TCPWM_1.c **** 
 303              		.loc 1 300 0
 304 0012 1A68     		ldr	r2, [r3]
 305 0014 1443     		orrs	r4, r2
 306              	.LVL17:
 307 0016 1C60     		str	r4, [r3]
 302:Generated_Source\PSoC4/TCPWM_1.c **** }
 308              		.loc 1 302 0
 309 0018 FFF7FEFF 		bl	CyExitCriticalSection
 310              	.LVL18:
 303:Generated_Source\PSoC4/TCPWM_1.c **** 
 311              		.loc 1 303 0
 312 001c 10BD     		pop	{r4, pc}
 313              	.L17:
 314 001e C046     		.align	2
 315              	.L16:
 316 0020 00010540 		.word	1074069760
 317 0024 FFFFFFF8 		.word	-117440513
 318              		.cfi_endproc
 319              	.LFE4:
 320              		.size	TCPWM_1_SetMode, .-TCPWM_1_SetMode
 321              		.section	.text.TCPWM_1_SetQDMode,"ax",%progbits
 322              		.align	2
 323              		.global	TCPWM_1_SetQDMode
 324              		.code	16
 325              		.thumb_func
 326              		.type	TCPWM_1_SetQDMode, %function
 327              	TCPWM_1_SetQDMode:
 328              	.LFB5:
 327:Generated_Source\PSoC4/TCPWM_1.c ****     uint8 enableInterrupts;
 329              		.loc 1 327 0
 330              		.cfi_startproc
 331              		@ args = 0, pretend = 0, frame = 0
 332              		@ frame_needed = 0, uses_anonymous_args = 0
 333              	.LVL19:
 334 0000 10B5     		push	{r4, lr}
 335              		.cfi_def_cfa_offset 8
 336              		.cfi_offset 4, -8
 337              		.cfi_offset 14, -4
 327:Generated_Source\PSoC4/TCPWM_1.c ****     uint8 enableInterrupts;
 338              		.loc 1 327 0
 339 0002 0400     		movs	r4, r0
 330:Generated_Source\PSoC4/TCPWM_1.c **** 
 340              		.loc 1 330 0
 341 0004 FFF7FEFF 		bl	CyEnterCriticalSection
 342              	.LVL20:
 332:Generated_Source\PSoC4/TCPWM_1.c ****     TCPWM_1_CONTROL_REG |= qdMode;
 343              		.loc 1 332 0
 344 0008 054B     		ldr	r3, .L19
ARM GAS  C:\Users\jrdia\AppData\Local\Temp\ccpDBDWb.s 			page 31


 345 000a 064A     		ldr	r2, .L19+4
 346 000c 1968     		ldr	r1, [r3]
 336:Generated_Source\PSoC4/TCPWM_1.c **** 
 347              		.loc 1 336 0
 348              		@ sp needed
 332:Generated_Source\PSoC4/TCPWM_1.c ****     TCPWM_1_CONTROL_REG |= qdMode;
 349              		.loc 1 332 0
 350 000e 0A40     		ands	r2, r1
 351 0010 1A60     		str	r2, [r3]
 333:Generated_Source\PSoC4/TCPWM_1.c **** 
 352              		.loc 1 333 0
 353 0012 1A68     		ldr	r2, [r3]
 354 0014 1443     		orrs	r4, r2
 355              	.LVL21:
 356 0016 1C60     		str	r4, [r3]
 335:Generated_Source\PSoC4/TCPWM_1.c **** }
 357              		.loc 1 335 0
 358 0018 FFF7FEFF 		bl	CyExitCriticalSection
 359              	.LVL22:
 336:Generated_Source\PSoC4/TCPWM_1.c **** 
 360              		.loc 1 336 0
 361 001c 10BD     		pop	{r4, pc}
 362              	.L20:
 363 001e C046     		.align	2
 364              	.L19:
 365 0020 00010540 		.word	1074069760
 366 0024 FFFF8FFF 		.word	-7340033
 367              		.cfi_endproc
 368              	.LFE5:
 369              		.size	TCPWM_1_SetQDMode, .-TCPWM_1_SetQDMode
 370              		.section	.text.TCPWM_1_SetPrescaler,"ax",%progbits
 371              		.align	2
 372              		.global	TCPWM_1_SetPrescaler
 373              		.code	16
 374              		.thumb_func
 375              		.type	TCPWM_1_SetPrescaler, %function
 376              	TCPWM_1_SetPrescaler:
 377              	.LFB6:
 364:Generated_Source\PSoC4/TCPWM_1.c ****     uint8 enableInterrupts;
 378              		.loc 1 364 0
 379              		.cfi_startproc
 380              		@ args = 0, pretend = 0, frame = 0
 381              		@ frame_needed = 0, uses_anonymous_args = 0
 382              	.LVL23:
 383 0000 10B5     		push	{r4, lr}
 384              		.cfi_def_cfa_offset 8
 385              		.cfi_offset 4, -8
 386              		.cfi_offset 14, -4
 364:Generated_Source\PSoC4/TCPWM_1.c ****     uint8 enableInterrupts;
 387              		.loc 1 364 0
 388 0002 0400     		movs	r4, r0
 367:Generated_Source\PSoC4/TCPWM_1.c **** 
 389              		.loc 1 367 0
 390 0004 FFF7FEFF 		bl	CyEnterCriticalSection
 391              	.LVL24:
 369:Generated_Source\PSoC4/TCPWM_1.c ****     TCPWM_1_CONTROL_REG |= prescaler;
 392              		.loc 1 369 0
ARM GAS  C:\Users\jrdia\AppData\Local\Temp\ccpDBDWb.s 			page 32


 393 0008 054B     		ldr	r3, .L22
 394 000a 064A     		ldr	r2, .L22+4
 395 000c 1968     		ldr	r1, [r3]
 373:Generated_Source\PSoC4/TCPWM_1.c **** 
 396              		.loc 1 373 0
 397              		@ sp needed
 369:Generated_Source\PSoC4/TCPWM_1.c ****     TCPWM_1_CONTROL_REG |= prescaler;
 398              		.loc 1 369 0
 399 000e 0A40     		ands	r2, r1
 400 0010 1A60     		str	r2, [r3]
 370:Generated_Source\PSoC4/TCPWM_1.c **** 
 401              		.loc 1 370 0
 402 0012 1A68     		ldr	r2, [r3]
 403 0014 1443     		orrs	r4, r2
 404              	.LVL25:
 405 0016 1C60     		str	r4, [r3]
 372:Generated_Source\PSoC4/TCPWM_1.c **** }
 406              		.loc 1 372 0
 407 0018 FFF7FEFF 		bl	CyExitCriticalSection
 408              	.LVL26:
 373:Generated_Source\PSoC4/TCPWM_1.c **** 
 409              		.loc 1 373 0
 410 001c 10BD     		pop	{r4, pc}
 411              	.L23:
 412 001e C046     		.align	2
 413              	.L22:
 414 0020 00010540 		.word	1074069760
 415 0024 FF00FFFF 		.word	-65281
 416              		.cfi_endproc
 417              	.LFE6:
 418              		.size	TCPWM_1_SetPrescaler, .-TCPWM_1_SetPrescaler
 419              		.section	.text.TCPWM_1_SetOneShot,"ax",%progbits
 420              		.align	2
 421              		.global	TCPWM_1_SetOneShot
 422              		.code	16
 423              		.thumb_func
 424              		.type	TCPWM_1_SetOneShot, %function
 425              	TCPWM_1_SetOneShot:
 426              	.LFB7:
 396:Generated_Source\PSoC4/TCPWM_1.c ****     uint8 enableInterrupts;
 427              		.loc 1 396 0
 428              		.cfi_startproc
 429              		@ args = 0, pretend = 0, frame = 0
 430              		@ frame_needed = 0, uses_anonymous_args = 0
 431              	.LVL27:
 432 0000 10B5     		push	{r4, lr}
 433              		.cfi_def_cfa_offset 8
 434              		.cfi_offset 4, -8
 435              		.cfi_offset 14, -4
 396:Generated_Source\PSoC4/TCPWM_1.c ****     uint8 enableInterrupts;
 436              		.loc 1 396 0
 437 0002 0400     		movs	r4, r0
 399:Generated_Source\PSoC4/TCPWM_1.c **** 
 438              		.loc 1 399 0
 439 0004 FFF7FEFF 		bl	CyEnterCriticalSection
 440              	.LVL28:
 401:Generated_Source\PSoC4/TCPWM_1.c ****     TCPWM_1_CONTROL_REG |= ((uint32)((oneShotEnable & TCPWM_1_1BIT_MASK) <<
ARM GAS  C:\Users\jrdia\AppData\Local\Temp\ccpDBDWb.s 			page 33


 441              		.loc 1 401 0
 442 0008 074B     		ldr	r3, .L25
 443 000a 084A     		ldr	r2, .L25+4
 444 000c 1968     		ldr	r1, [r3]
 406:Generated_Source\PSoC4/TCPWM_1.c **** 
 445              		.loc 1 406 0
 446              		@ sp needed
 401:Generated_Source\PSoC4/TCPWM_1.c ****     TCPWM_1_CONTROL_REG |= ((uint32)((oneShotEnable & TCPWM_1_1BIT_MASK) <<
 447              		.loc 1 401 0
 448 000e 0A40     		ands	r2, r1
 449 0010 1A60     		str	r2, [r3]
 402:Generated_Source\PSoC4/TCPWM_1.c ****                                                                TCPWM_1_ONESHOT_SHIFT));
 450              		.loc 1 402 0
 451 0012 A204     		lsls	r2, r4, #18
 452 0014 8024     		movs	r4, #128
 453              	.LVL29:
 454 0016 1968     		ldr	r1, [r3]
 455 0018 E402     		lsls	r4, r4, #11
 456 001a 2240     		ands	r2, r4
 457 001c 0A43     		orrs	r2, r1
 458 001e 1A60     		str	r2, [r3]
 405:Generated_Source\PSoC4/TCPWM_1.c **** }
 459              		.loc 1 405 0
 460 0020 FFF7FEFF 		bl	CyExitCriticalSection
 461              	.LVL30:
 406:Generated_Source\PSoC4/TCPWM_1.c **** 
 462              		.loc 1 406 0
 463 0024 10BD     		pop	{r4, pc}
 464              	.L26:
 465 0026 C046     		.align	2
 466              	.L25:
 467 0028 00010540 		.word	1074069760
 468 002c FFFFFBFF 		.word	-262145
 469              		.cfi_endproc
 470              	.LFE7:
 471              		.size	TCPWM_1_SetOneShot, .-TCPWM_1_SetOneShot
 472              		.section	.text.TCPWM_1_SetPWMMode,"ax",%progbits
 473              		.align	2
 474              		.global	TCPWM_1_SetPWMMode
 475              		.code	16
 476              		.thumb_func
 477              		.type	TCPWM_1_SetPWMMode, %function
 478              	TCPWM_1_SetPWMMode:
 479              	.LFB8:
 450:Generated_Source\PSoC4/TCPWM_1.c ****     TCPWM_1_TRIG_CONTROL2_REG = (modeMask & TCPWM_1_6BIT_MASK);
 480              		.loc 1 450 0
 481              		.cfi_startproc
 482              		@ args = 0, pretend = 0, frame = 0
 483              		@ frame_needed = 0, uses_anonymous_args = 0
 484              		@ link register save eliminated.
 485              	.LVL31:
 451:Generated_Source\PSoC4/TCPWM_1.c **** }
 486              		.loc 1 451 0
 487 0000 3F23     		movs	r3, #63
 488 0002 1840     		ands	r0, r3
 489              	.LVL32:
 490 0004 014B     		ldr	r3, .L28
ARM GAS  C:\Users\jrdia\AppData\Local\Temp\ccpDBDWb.s 			page 34


 452:Generated_Source\PSoC4/TCPWM_1.c **** 
 491              		.loc 1 452 0
 492              		@ sp needed
 451:Generated_Source\PSoC4/TCPWM_1.c **** }
 493              		.loc 1 451 0
 494 0006 1860     		str	r0, [r3]
 452:Generated_Source\PSoC4/TCPWM_1.c **** 
 495              		.loc 1 452 0
 496 0008 7047     		bx	lr
 497              	.L29:
 498 000a C046     		.align	2
 499              	.L28:
 500 000c 28010540 		.word	1074069800
 501              		.cfi_endproc
 502              	.LFE8:
 503              		.size	TCPWM_1_SetPWMMode, .-TCPWM_1_SetPWMMode
 504              		.section	.text.TCPWM_1_SetPWMSyncKill,"ax",%progbits
 505              		.align	2
 506              		.global	TCPWM_1_SetPWMSyncKill
 507              		.code	16
 508              		.thumb_func
 509              		.type	TCPWM_1_SetPWMSyncKill, %function
 510              	TCPWM_1_SetPWMSyncKill:
 511              	.LFB9:
 486:Generated_Source\PSoC4/TCPWM_1.c ****     uint8 enableInterrupts;
 512              		.loc 1 486 0
 513              		.cfi_startproc
 514              		@ args = 0, pretend = 0, frame = 0
 515              		@ frame_needed = 0, uses_anonymous_args = 0
 516              	.LVL33:
 517 0000 10B5     		push	{r4, lr}
 518              		.cfi_def_cfa_offset 8
 519              		.cfi_offset 4, -8
 520              		.cfi_offset 14, -4
 486:Generated_Source\PSoC4/TCPWM_1.c ****     uint8 enableInterrupts;
 521              		.loc 1 486 0
 522 0002 0400     		movs	r4, r0
 489:Generated_Source\PSoC4/TCPWM_1.c **** 
 523              		.loc 1 489 0
 524 0004 FFF7FEFF 		bl	CyEnterCriticalSection
 525              	.LVL34:
 491:Generated_Source\PSoC4/TCPWM_1.c ****     TCPWM_1_CONTROL_REG |= ((uint32)((syncKillEnable & TCPWM_1_1BIT_MASK)  <<
 526              		.loc 1 491 0
 527 0008 0421     		movs	r1, #4
 528 000a 064B     		ldr	r3, .L31
 492:Generated_Source\PSoC4/TCPWM_1.c ****                                                TCPWM_1_PWM_SYNC_KILL_SHIFT));
 529              		.loc 1 492 0
 530 000c A400     		lsls	r4, r4, #2
 531              	.LVL35:
 491:Generated_Source\PSoC4/TCPWM_1.c ****     TCPWM_1_CONTROL_REG |= ((uint32)((syncKillEnable & TCPWM_1_1BIT_MASK)  <<
 532              		.loc 1 491 0
 533 000e 1A68     		ldr	r2, [r3]
 492:Generated_Source\PSoC4/TCPWM_1.c ****                                                TCPWM_1_PWM_SYNC_KILL_SHIFT));
 534              		.loc 1 492 0
 535 0010 0C40     		ands	r4, r1
 491:Generated_Source\PSoC4/TCPWM_1.c ****     TCPWM_1_CONTROL_REG |= ((uint32)((syncKillEnable & TCPWM_1_1BIT_MASK)  <<
 536              		.loc 1 491 0
ARM GAS  C:\Users\jrdia\AppData\Local\Temp\ccpDBDWb.s 			page 35


 537 0012 8A43     		bics	r2, r1
 538 0014 1A60     		str	r2, [r3]
 492:Generated_Source\PSoC4/TCPWM_1.c ****                                                TCPWM_1_PWM_SYNC_KILL_SHIFT));
 539              		.loc 1 492 0
 540 0016 1A68     		ldr	r2, [r3]
 496:Generated_Source\PSoC4/TCPWM_1.c **** 
 541              		.loc 1 496 0
 542              		@ sp needed
 492:Generated_Source\PSoC4/TCPWM_1.c ****                                                TCPWM_1_PWM_SYNC_KILL_SHIFT));
 543              		.loc 1 492 0
 544 0018 1443     		orrs	r4, r2
 545 001a 1C60     		str	r4, [r3]
 495:Generated_Source\PSoC4/TCPWM_1.c **** }
 546              		.loc 1 495 0
 547 001c FFF7FEFF 		bl	CyExitCriticalSection
 548              	.LVL36:
 496:Generated_Source\PSoC4/TCPWM_1.c **** 
 549              		.loc 1 496 0
 550 0020 10BD     		pop	{r4, pc}
 551              	.L32:
 552 0022 C046     		.align	2
 553              	.L31:
 554 0024 00010540 		.word	1074069760
 555              		.cfi_endproc
 556              	.LFE9:
 557              		.size	TCPWM_1_SetPWMSyncKill, .-TCPWM_1_SetPWMSyncKill
 558              		.section	.text.TCPWM_1_SetPWMStopOnKill,"ax",%progbits
 559              		.align	2
 560              		.global	TCPWM_1_SetPWMStopOnKill
 561              		.code	16
 562              		.thumb_func
 563              		.type	TCPWM_1_SetPWMStopOnKill, %function
 564              	TCPWM_1_SetPWMStopOnKill:
 565              	.LFB10:
 520:Generated_Source\PSoC4/TCPWM_1.c ****     uint8 enableInterrupts;
 566              		.loc 1 520 0
 567              		.cfi_startproc
 568              		@ args = 0, pretend = 0, frame = 0
 569              		@ frame_needed = 0, uses_anonymous_args = 0
 570              	.LVL37:
 571 0000 10B5     		push	{r4, lr}
 572              		.cfi_def_cfa_offset 8
 573              		.cfi_offset 4, -8
 574              		.cfi_offset 14, -4
 520:Generated_Source\PSoC4/TCPWM_1.c ****     uint8 enableInterrupts;
 575              		.loc 1 520 0
 576 0002 0400     		movs	r4, r0
 523:Generated_Source\PSoC4/TCPWM_1.c **** 
 577              		.loc 1 523 0
 578 0004 FFF7FEFF 		bl	CyEnterCriticalSection
 579              	.LVL38:
 525:Generated_Source\PSoC4/TCPWM_1.c ****     TCPWM_1_CONTROL_REG |= ((uint32)((stopOnKillEnable & TCPWM_1_1BIT_MASK)  <<
 580              		.loc 1 525 0
 581 0008 0821     		movs	r1, #8
 582 000a 064B     		ldr	r3, .L34
 526:Generated_Source\PSoC4/TCPWM_1.c ****                                                          TCPWM_1_PWM_STOP_KILL_SHIFT));
 583              		.loc 1 526 0
ARM GAS  C:\Users\jrdia\AppData\Local\Temp\ccpDBDWb.s 			page 36


 584 000c E400     		lsls	r4, r4, #3
 585              	.LVL39:
 525:Generated_Source\PSoC4/TCPWM_1.c ****     TCPWM_1_CONTROL_REG |= ((uint32)((stopOnKillEnable & TCPWM_1_1BIT_MASK)  <<
 586              		.loc 1 525 0
 587 000e 1A68     		ldr	r2, [r3]
 526:Generated_Source\PSoC4/TCPWM_1.c ****                                                          TCPWM_1_PWM_STOP_KILL_SHIFT));
 588              		.loc 1 526 0
 589 0010 0C40     		ands	r4, r1
 525:Generated_Source\PSoC4/TCPWM_1.c ****     TCPWM_1_CONTROL_REG |= ((uint32)((stopOnKillEnable & TCPWM_1_1BIT_MASK)  <<
 590              		.loc 1 525 0
 591 0012 8A43     		bics	r2, r1
 592 0014 1A60     		str	r2, [r3]
 526:Generated_Source\PSoC4/TCPWM_1.c ****                                                          TCPWM_1_PWM_STOP_KILL_SHIFT));
 593              		.loc 1 526 0
 594 0016 1A68     		ldr	r2, [r3]
 530:Generated_Source\PSoC4/TCPWM_1.c **** 
 595              		.loc 1 530 0
 596              		@ sp needed
 526:Generated_Source\PSoC4/TCPWM_1.c ****                                                          TCPWM_1_PWM_STOP_KILL_SHIFT));
 597              		.loc 1 526 0
 598 0018 1443     		orrs	r4, r2
 599 001a 1C60     		str	r4, [r3]
 529:Generated_Source\PSoC4/TCPWM_1.c **** }
 600              		.loc 1 529 0
 601 001c FFF7FEFF 		bl	CyExitCriticalSection
 602              	.LVL40:
 530:Generated_Source\PSoC4/TCPWM_1.c **** 
 603              		.loc 1 530 0
 604 0020 10BD     		pop	{r4, pc}
 605              	.L35:
 606 0022 C046     		.align	2
 607              	.L34:
 608 0024 00010540 		.word	1074069760
 609              		.cfi_endproc
 610              	.LFE10:
 611              		.size	TCPWM_1_SetPWMStopOnKill, .-TCPWM_1_SetPWMStopOnKill
 612              		.section	.text.TCPWM_1_SetPWMDeadTime,"ax",%progbits
 613              		.align	2
 614              		.global	TCPWM_1_SetPWMDeadTime
 615              		.code	16
 616              		.thumb_func
 617              		.type	TCPWM_1_SetPWMDeadTime, %function
 618              	TCPWM_1_SetPWMDeadTime:
 619              	.LFB11:
 553:Generated_Source\PSoC4/TCPWM_1.c ****     uint8 enableInterrupts;
 620              		.loc 1 553 0
 621              		.cfi_startproc
 622              		@ args = 0, pretend = 0, frame = 0
 623              		@ frame_needed = 0, uses_anonymous_args = 0
 624              	.LVL41:
 625 0000 10B5     		push	{r4, lr}
 626              		.cfi_def_cfa_offset 8
 627              		.cfi_offset 4, -8
 628              		.cfi_offset 14, -4
 553:Generated_Source\PSoC4/TCPWM_1.c ****     uint8 enableInterrupts;
 629              		.loc 1 553 0
 630 0002 0400     		movs	r4, r0
ARM GAS  C:\Users\jrdia\AppData\Local\Temp\ccpDBDWb.s 			page 37


 556:Generated_Source\PSoC4/TCPWM_1.c **** 
 631              		.loc 1 556 0
 632 0004 FFF7FEFF 		bl	CyEnterCriticalSection
 633              	.LVL42:
 558:Generated_Source\PSoC4/TCPWM_1.c ****     TCPWM_1_CONTROL_REG |= ((uint32)((deadTime & TCPWM_1_8BIT_MASK) <<
 634              		.loc 1 558 0
 635 0008 064B     		ldr	r3, .L37
 636 000a 074A     		ldr	r2, .L37+4
 637 000c 1968     		ldr	r1, [r3]
 559:Generated_Source\PSoC4/TCPWM_1.c ****                                                           TCPWM_1_PRESCALER_SHIFT));
 638              		.loc 1 559 0
 639 000e 2406     		lsls	r4, r4, #24
 640              	.LVL43:
 558:Generated_Source\PSoC4/TCPWM_1.c ****     TCPWM_1_CONTROL_REG |= ((uint32)((deadTime & TCPWM_1_8BIT_MASK) <<
 641              		.loc 1 558 0
 642 0010 0A40     		ands	r2, r1
 643 0012 1A60     		str	r2, [r3]
 559:Generated_Source\PSoC4/TCPWM_1.c ****                                                           TCPWM_1_PRESCALER_SHIFT));
 644              		.loc 1 559 0
 645 0014 1A68     		ldr	r2, [r3]
 646 0016 240C     		lsrs	r4, r4, #16
 647 0018 1443     		orrs	r4, r2
 648 001a 1C60     		str	r4, [r3]
 562:Generated_Source\PSoC4/TCPWM_1.c **** }
 649              		.loc 1 562 0
 650 001c FFF7FEFF 		bl	CyExitCriticalSection
 651              	.LVL44:
 563:Generated_Source\PSoC4/TCPWM_1.c **** 
 652              		.loc 1 563 0
 653              		@ sp needed
 654 0020 10BD     		pop	{r4, pc}
 655              	.L38:
 656 0022 C046     		.align	2
 657              	.L37:
 658 0024 00010540 		.word	1074069760
 659 0028 FF00FFFF 		.word	-65281
 660              		.cfi_endproc
 661              	.LFE11:
 662              		.size	TCPWM_1_SetPWMDeadTime, .-TCPWM_1_SetPWMDeadTime
 663              		.section	.text.TCPWM_1_SetPWMInvert,"ax",%progbits
 664              		.align	2
 665              		.global	TCPWM_1_SetPWMInvert
 666              		.code	16
 667              		.thumb_func
 668              		.type	TCPWM_1_SetPWMInvert, %function
 669              	TCPWM_1_SetPWMInvert:
 670              	.LFB12:
 586:Generated_Source\PSoC4/TCPWM_1.c ****     uint8 enableInterrupts;
 671              		.loc 1 586 0
 672              		.cfi_startproc
 673              		@ args = 0, pretend = 0, frame = 0
 674              		@ frame_needed = 0, uses_anonymous_args = 0
 675              	.LVL45:
 676 0000 10B5     		push	{r4, lr}
 677              		.cfi_def_cfa_offset 8
 678              		.cfi_offset 4, -8
 679              		.cfi_offset 14, -4
ARM GAS  C:\Users\jrdia\AppData\Local\Temp\ccpDBDWb.s 			page 38


 586:Generated_Source\PSoC4/TCPWM_1.c ****     uint8 enableInterrupts;
 680              		.loc 1 586 0
 681 0002 0400     		movs	r4, r0
 589:Generated_Source\PSoC4/TCPWM_1.c **** 
 682              		.loc 1 589 0
 683 0004 FFF7FEFF 		bl	CyEnterCriticalSection
 684              	.LVL46:
 591:Generated_Source\PSoC4/TCPWM_1.c ****     TCPWM_1_CONTROL_REG |= mask;
 685              		.loc 1 591 0
 686 0008 054B     		ldr	r3, .L40
 687 000a 064A     		ldr	r2, .L40+4
 688 000c 1968     		ldr	r1, [r3]
 595:Generated_Source\PSoC4/TCPWM_1.c **** 
 689              		.loc 1 595 0
 690              		@ sp needed
 591:Generated_Source\PSoC4/TCPWM_1.c ****     TCPWM_1_CONTROL_REG |= mask;
 691              		.loc 1 591 0
 692 000e 0A40     		ands	r2, r1
 693 0010 1A60     		str	r2, [r3]
 592:Generated_Source\PSoC4/TCPWM_1.c **** 
 694              		.loc 1 592 0
 695 0012 1A68     		ldr	r2, [r3]
 696 0014 1443     		orrs	r4, r2
 697              	.LVL47:
 698 0016 1C60     		str	r4, [r3]
 594:Generated_Source\PSoC4/TCPWM_1.c **** }
 699              		.loc 1 594 0
 700 0018 FFF7FEFF 		bl	CyExitCriticalSection
 701              	.LVL48:
 595:Generated_Source\PSoC4/TCPWM_1.c **** 
 702              		.loc 1 595 0
 703 001c 10BD     		pop	{r4, pc}
 704              	.L41:
 705 001e C046     		.align	2
 706              	.L40:
 707 0020 00010540 		.word	1074069760
 708 0024 FFFFCFFF 		.word	-3145729
 709              		.cfi_endproc
 710              	.LFE12:
 711              		.size	TCPWM_1_SetPWMInvert, .-TCPWM_1_SetPWMInvert
 712              		.section	.text.TCPWM_1_WriteCounter,"ax",%progbits
 713              		.align	2
 714              		.global	TCPWM_1_WriteCounter
 715              		.code	16
 716              		.thumb_func
 717              		.type	TCPWM_1_WriteCounter, %function
 718              	TCPWM_1_WriteCounter:
 719              	.LFB13:
 616:Generated_Source\PSoC4/TCPWM_1.c ****     TCPWM_1_COUNTER_REG = (count & TCPWM_1_16BIT_MASK);
 720              		.loc 1 616 0
 721              		.cfi_startproc
 722              		@ args = 0, pretend = 0, frame = 0
 723              		@ frame_needed = 0, uses_anonymous_args = 0
 724              		@ link register save eliminated.
 725              	.LVL49:
 617:Generated_Source\PSoC4/TCPWM_1.c **** }
 726              		.loc 1 617 0
ARM GAS  C:\Users\jrdia\AppData\Local\Temp\ccpDBDWb.s 			page 39


 727 0000 024B     		ldr	r3, .L43
 728 0002 0004     		lsls	r0, r0, #16
 729              	.LVL50:
 730 0004 000C     		lsrs	r0, r0, #16
 731 0006 1860     		str	r0, [r3]
 618:Generated_Source\PSoC4/TCPWM_1.c **** 
 732              		.loc 1 618 0
 733              		@ sp needed
 734 0008 7047     		bx	lr
 735              	.L44:
 736 000a C046     		.align	2
 737              	.L43:
 738 000c 08010540 		.word	1074069768
 739              		.cfi_endproc
 740              	.LFE13:
 741              		.size	TCPWM_1_WriteCounter, .-TCPWM_1_WriteCounter
 742              		.section	.text.TCPWM_1_ReadCounter,"ax",%progbits
 743              		.align	2
 744              		.global	TCPWM_1_ReadCounter
 745              		.code	16
 746              		.thumb_func
 747              		.type	TCPWM_1_ReadCounter, %function
 748              	TCPWM_1_ReadCounter:
 749              	.LFB14:
 636:Generated_Source\PSoC4/TCPWM_1.c ****     return (TCPWM_1_COUNTER_REG & TCPWM_1_16BIT_MASK);
 750              		.loc 1 636 0
 751              		.cfi_startproc
 752              		@ args = 0, pretend = 0, frame = 0
 753              		@ frame_needed = 0, uses_anonymous_args = 0
 754              		@ link register save eliminated.
 637:Generated_Source\PSoC4/TCPWM_1.c **** }
 755              		.loc 1 637 0
 756 0000 024B     		ldr	r3, .L46
 638:Generated_Source\PSoC4/TCPWM_1.c **** 
 757              		.loc 1 638 0
 758              		@ sp needed
 637:Generated_Source\PSoC4/TCPWM_1.c **** }
 759              		.loc 1 637 0
 760 0002 1868     		ldr	r0, [r3]
 761 0004 0004     		lsls	r0, r0, #16
 762 0006 000C     		lsrs	r0, r0, #16
 638:Generated_Source\PSoC4/TCPWM_1.c **** 
 763              		.loc 1 638 0
 764 0008 7047     		bx	lr
 765              	.L47:
 766 000a C046     		.align	2
 767              	.L46:
 768 000c 08010540 		.word	1074069768
 769              		.cfi_endproc
 770              	.LFE14:
 771              		.size	TCPWM_1_ReadCounter, .-TCPWM_1_ReadCounter
 772              		.section	.text.TCPWM_1_SetCounterMode,"ax",%progbits
 773              		.align	2
 774              		.global	TCPWM_1_SetCounterMode
 775              		.code	16
 776              		.thumb_func
 777              		.type	TCPWM_1_SetCounterMode, %function
ARM GAS  C:\Users\jrdia\AppData\Local\Temp\ccpDBDWb.s 			page 40


 778              	TCPWM_1_SetCounterMode:
 779              	.LFB15:
 665:Generated_Source\PSoC4/TCPWM_1.c ****     uint8 enableInterrupts;
 780              		.loc 1 665 0
 781              		.cfi_startproc
 782              		@ args = 0, pretend = 0, frame = 0
 783              		@ frame_needed = 0, uses_anonymous_args = 0
 784              	.LVL51:
 785 0000 10B5     		push	{r4, lr}
 786              		.cfi_def_cfa_offset 8
 787              		.cfi_offset 4, -8
 788              		.cfi_offset 14, -4
 665:Generated_Source\PSoC4/TCPWM_1.c ****     uint8 enableInterrupts;
 789              		.loc 1 665 0
 790 0002 0400     		movs	r4, r0
 668:Generated_Source\PSoC4/TCPWM_1.c **** 
 791              		.loc 1 668 0
 792 0004 FFF7FEFF 		bl	CyEnterCriticalSection
 793              	.LVL52:
 670:Generated_Source\PSoC4/TCPWM_1.c ****     TCPWM_1_CONTROL_REG |= counterMode;
 794              		.loc 1 670 0
 795 0008 054B     		ldr	r3, .L49
 796 000a 064A     		ldr	r2, .L49+4
 797 000c 1968     		ldr	r1, [r3]
 674:Generated_Source\PSoC4/TCPWM_1.c **** 
 798              		.loc 1 674 0
 799              		@ sp needed
 670:Generated_Source\PSoC4/TCPWM_1.c ****     TCPWM_1_CONTROL_REG |= counterMode;
 800              		.loc 1 670 0
 801 000e 0A40     		ands	r2, r1
 802 0010 1A60     		str	r2, [r3]
 671:Generated_Source\PSoC4/TCPWM_1.c **** 
 803              		.loc 1 671 0
 804 0012 1A68     		ldr	r2, [r3]
 805 0014 1443     		orrs	r4, r2
 806              	.LVL53:
 807 0016 1C60     		str	r4, [r3]
 673:Generated_Source\PSoC4/TCPWM_1.c **** }
 808              		.loc 1 673 0
 809 0018 FFF7FEFF 		bl	CyExitCriticalSection
 810              	.LVL54:
 674:Generated_Source\PSoC4/TCPWM_1.c **** 
 811              		.loc 1 674 0
 812 001c 10BD     		pop	{r4, pc}
 813              	.L50:
 814 001e C046     		.align	2
 815              	.L49:
 816 0020 00010540 		.word	1074069760
 817 0024 FFFFFCFF 		.word	-196609
 818              		.cfi_endproc
 819              	.LFE15:
 820              		.size	TCPWM_1_SetCounterMode, .-TCPWM_1_SetCounterMode
 821              		.section	.text.TCPWM_1_WritePeriod,"ax",%progbits
 822              		.align	2
 823              		.global	TCPWM_1_WritePeriod
 824              		.code	16
 825              		.thumb_func
ARM GAS  C:\Users\jrdia\AppData\Local\Temp\ccpDBDWb.s 			page 41


 826              		.type	TCPWM_1_WritePeriod, %function
 827              	TCPWM_1_WritePeriod:
 828              	.LFB16:
 694:Generated_Source\PSoC4/TCPWM_1.c ****     TCPWM_1_PERIOD_REG = (period & TCPWM_1_16BIT_MASK);
 829              		.loc 1 694 0
 830              		.cfi_startproc
 831              		@ args = 0, pretend = 0, frame = 0
 832              		@ frame_needed = 0, uses_anonymous_args = 0
 833              		@ link register save eliminated.
 834              	.LVL55:
 695:Generated_Source\PSoC4/TCPWM_1.c **** }
 835              		.loc 1 695 0
 836 0000 024B     		ldr	r3, .L52
 837 0002 0004     		lsls	r0, r0, #16
 838              	.LVL56:
 839 0004 000C     		lsrs	r0, r0, #16
 840 0006 1860     		str	r0, [r3]
 696:Generated_Source\PSoC4/TCPWM_1.c **** 
 841              		.loc 1 696 0
 842              		@ sp needed
 843 0008 7047     		bx	lr
 844              	.L53:
 845 000a C046     		.align	2
 846              	.L52:
 847 000c 14010540 		.word	1074069780
 848              		.cfi_endproc
 849              	.LFE16:
 850              		.size	TCPWM_1_WritePeriod, .-TCPWM_1_WritePeriod
 851              		.section	.text.TCPWM_1_ReadPeriod,"ax",%progbits
 852              		.align	2
 853              		.global	TCPWM_1_ReadPeriod
 854              		.code	16
 855              		.thumb_func
 856              		.type	TCPWM_1_ReadPeriod, %function
 857              	TCPWM_1_ReadPeriod:
 858              	.LFB17:
 714:Generated_Source\PSoC4/TCPWM_1.c ****     return (TCPWM_1_PERIOD_REG & TCPWM_1_16BIT_MASK);
 859              		.loc 1 714 0
 860              		.cfi_startproc
 861              		@ args = 0, pretend = 0, frame = 0
 862              		@ frame_needed = 0, uses_anonymous_args = 0
 863              		@ link register save eliminated.
 715:Generated_Source\PSoC4/TCPWM_1.c **** }
 864              		.loc 1 715 0
 865 0000 024B     		ldr	r3, .L55
 716:Generated_Source\PSoC4/TCPWM_1.c **** 
 866              		.loc 1 716 0
 867              		@ sp needed
 715:Generated_Source\PSoC4/TCPWM_1.c **** }
 868              		.loc 1 715 0
 869 0002 1868     		ldr	r0, [r3]
 870 0004 0004     		lsls	r0, r0, #16
 871 0006 000C     		lsrs	r0, r0, #16
 716:Generated_Source\PSoC4/TCPWM_1.c **** 
 872              		.loc 1 716 0
 873 0008 7047     		bx	lr
 874              	.L56:
ARM GAS  C:\Users\jrdia\AppData\Local\Temp\ccpDBDWb.s 			page 42


 875 000a C046     		.align	2
 876              	.L55:
 877 000c 14010540 		.word	1074069780
 878              		.cfi_endproc
 879              	.LFE17:
 880              		.size	TCPWM_1_ReadPeriod, .-TCPWM_1_ReadPeriod
 881              		.section	.text.TCPWM_1_SetCompareSwap,"ax",%progbits
 882              		.align	2
 883              		.global	TCPWM_1_SetCompareSwap
 884              		.code	16
 885              		.thumb_func
 886              		.type	TCPWM_1_SetCompareSwap, %function
 887              	TCPWM_1_SetCompareSwap:
 888              	.LFB18:
 740:Generated_Source\PSoC4/TCPWM_1.c ****     uint8 enableInterrupts;
 889              		.loc 1 740 0
 890              		.cfi_startproc
 891              		@ args = 0, pretend = 0, frame = 0
 892              		@ frame_needed = 0, uses_anonymous_args = 0
 893              	.LVL57:
 894 0000 10B5     		push	{r4, lr}
 895              		.cfi_def_cfa_offset 8
 896              		.cfi_offset 4, -8
 897              		.cfi_offset 14, -4
 740:Generated_Source\PSoC4/TCPWM_1.c ****     uint8 enableInterrupts;
 898              		.loc 1 740 0
 899 0002 0400     		movs	r4, r0
 743:Generated_Source\PSoC4/TCPWM_1.c **** 
 900              		.loc 1 743 0
 901 0004 FFF7FEFF 		bl	CyEnterCriticalSection
 902              	.LVL58:
 745:Generated_Source\PSoC4/TCPWM_1.c ****     TCPWM_1_CONTROL_REG |= (swapEnable & TCPWM_1_1BIT_MASK);
 903              		.loc 1 745 0
 904 0008 0122     		movs	r2, #1
 905 000a 054B     		ldr	r3, .L58
 749:Generated_Source\PSoC4/TCPWM_1.c **** 
 906              		.loc 1 749 0
 907              		@ sp needed
 745:Generated_Source\PSoC4/TCPWM_1.c ****     TCPWM_1_CONTROL_REG |= (swapEnable & TCPWM_1_1BIT_MASK);
 908              		.loc 1 745 0
 909 000c 1968     		ldr	r1, [r3]
 910 000e 9143     		bics	r1, r2
 911 0010 1960     		str	r1, [r3]
 746:Generated_Source\PSoC4/TCPWM_1.c **** 
 912              		.loc 1 746 0
 913 0012 1968     		ldr	r1, [r3]
 914 0014 2240     		ands	r2, r4
 915 0016 0A43     		orrs	r2, r1
 916 0018 1A60     		str	r2, [r3]
 748:Generated_Source\PSoC4/TCPWM_1.c **** }
 917              		.loc 1 748 0
 918 001a FFF7FEFF 		bl	CyExitCriticalSection
 919              	.LVL59:
 920              	.LVL60:
 749:Generated_Source\PSoC4/TCPWM_1.c **** 
 921              		.loc 1 749 0
 922 001e 10BD     		pop	{r4, pc}
ARM GAS  C:\Users\jrdia\AppData\Local\Temp\ccpDBDWb.s 			page 43


 923              	.L59:
 924              		.align	2
 925              	.L58:
 926 0020 00010540 		.word	1074069760
 927              		.cfi_endproc
 928              	.LFE18:
 929              		.size	TCPWM_1_SetCompareSwap, .-TCPWM_1_SetCompareSwap
 930              		.section	.text.TCPWM_1_WritePeriodBuf,"ax",%progbits
 931              		.align	2
 932              		.global	TCPWM_1_WritePeriodBuf
 933              		.code	16
 934              		.thumb_func
 935              		.type	TCPWM_1_WritePeriodBuf, %function
 936              	TCPWM_1_WritePeriodBuf:
 937              	.LFB19:
 767:Generated_Source\PSoC4/TCPWM_1.c ****     TCPWM_1_PERIOD_BUF_REG = (periodBuf & TCPWM_1_16BIT_MASK);
 938              		.loc 1 767 0
 939              		.cfi_startproc
 940              		@ args = 0, pretend = 0, frame = 0
 941              		@ frame_needed = 0, uses_anonymous_args = 0
 942              		@ link register save eliminated.
 943              	.LVL61:
 768:Generated_Source\PSoC4/TCPWM_1.c **** }
 944              		.loc 1 768 0
 945 0000 024B     		ldr	r3, .L61
 946 0002 0004     		lsls	r0, r0, #16
 947              	.LVL62:
 948 0004 000C     		lsrs	r0, r0, #16
 949 0006 1860     		str	r0, [r3]
 769:Generated_Source\PSoC4/TCPWM_1.c **** 
 950              		.loc 1 769 0
 951              		@ sp needed
 952 0008 7047     		bx	lr
 953              	.L62:
 954 000a C046     		.align	2
 955              	.L61:
 956 000c 18010540 		.word	1074069784
 957              		.cfi_endproc
 958              	.LFE19:
 959              		.size	TCPWM_1_WritePeriodBuf, .-TCPWM_1_WritePeriodBuf
 960              		.section	.text.TCPWM_1_ReadPeriodBuf,"ax",%progbits
 961              		.align	2
 962              		.global	TCPWM_1_ReadPeriodBuf
 963              		.code	16
 964              		.thumb_func
 965              		.type	TCPWM_1_ReadPeriodBuf, %function
 966              	TCPWM_1_ReadPeriodBuf:
 967              	.LFB20:
 787:Generated_Source\PSoC4/TCPWM_1.c ****     return (TCPWM_1_PERIOD_BUF_REG & TCPWM_1_16BIT_MASK);
 968              		.loc 1 787 0
 969              		.cfi_startproc
 970              		@ args = 0, pretend = 0, frame = 0
 971              		@ frame_needed = 0, uses_anonymous_args = 0
 972              		@ link register save eliminated.
 788:Generated_Source\PSoC4/TCPWM_1.c **** }
 973              		.loc 1 788 0
 974 0000 024B     		ldr	r3, .L64
ARM GAS  C:\Users\jrdia\AppData\Local\Temp\ccpDBDWb.s 			page 44


 789:Generated_Source\PSoC4/TCPWM_1.c **** 
 975              		.loc 1 789 0
 976              		@ sp needed
 788:Generated_Source\PSoC4/TCPWM_1.c **** }
 977              		.loc 1 788 0
 978 0002 1868     		ldr	r0, [r3]
 979 0004 0004     		lsls	r0, r0, #16
 980 0006 000C     		lsrs	r0, r0, #16
 789:Generated_Source\PSoC4/TCPWM_1.c **** 
 981              		.loc 1 789 0
 982 0008 7047     		bx	lr
 983              	.L65:
 984 000a C046     		.align	2
 985              	.L64:
 986 000c 18010540 		.word	1074069784
 987              		.cfi_endproc
 988              	.LFE20:
 989              		.size	TCPWM_1_ReadPeriodBuf, .-TCPWM_1_ReadPeriodBuf
 990              		.section	.text.TCPWM_1_SetPeriodSwap,"ax",%progbits
 991              		.align	2
 992              		.global	TCPWM_1_SetPeriodSwap
 993              		.code	16
 994              		.thumb_func
 995              		.type	TCPWM_1_SetPeriodSwap, %function
 996              	TCPWM_1_SetPeriodSwap:
 997              	.LFB21:
 813:Generated_Source\PSoC4/TCPWM_1.c ****     uint8 enableInterrupts;
 998              		.loc 1 813 0
 999              		.cfi_startproc
 1000              		@ args = 0, pretend = 0, frame = 0
 1001              		@ frame_needed = 0, uses_anonymous_args = 0
 1002              	.LVL63:
 1003 0000 10B5     		push	{r4, lr}
 1004              		.cfi_def_cfa_offset 8
 1005              		.cfi_offset 4, -8
 1006              		.cfi_offset 14, -4
 813:Generated_Source\PSoC4/TCPWM_1.c ****     uint8 enableInterrupts;
 1007              		.loc 1 813 0
 1008 0002 0400     		movs	r4, r0
 816:Generated_Source\PSoC4/TCPWM_1.c **** 
 1009              		.loc 1 816 0
 1010 0004 FFF7FEFF 		bl	CyEnterCriticalSection
 1011              	.LVL64:
 818:Generated_Source\PSoC4/TCPWM_1.c ****     TCPWM_1_CONTROL_REG |= ((uint32)((swapEnable & TCPWM_1_1BIT_MASK) <<
 1012              		.loc 1 818 0
 1013 0008 0221     		movs	r1, #2
 1014 000a 064B     		ldr	r3, .L67
 819:Generated_Source\PSoC4/TCPWM_1.c ****                                                             TCPWM_1_RELOAD_PERIOD_SHIFT));
 1015              		.loc 1 819 0
 1016 000c 6400     		lsls	r4, r4, #1
 1017              	.LVL65:
 818:Generated_Source\PSoC4/TCPWM_1.c ****     TCPWM_1_CONTROL_REG |= ((uint32)((swapEnable & TCPWM_1_1BIT_MASK) <<
 1018              		.loc 1 818 0
 1019 000e 1A68     		ldr	r2, [r3]
 819:Generated_Source\PSoC4/TCPWM_1.c ****                                                             TCPWM_1_RELOAD_PERIOD_SHIFT));
 1020              		.loc 1 819 0
 1021 0010 0C40     		ands	r4, r1
ARM GAS  C:\Users\jrdia\AppData\Local\Temp\ccpDBDWb.s 			page 45


 818:Generated_Source\PSoC4/TCPWM_1.c ****     TCPWM_1_CONTROL_REG |= ((uint32)((swapEnable & TCPWM_1_1BIT_MASK) <<
 1022              		.loc 1 818 0
 1023 0012 8A43     		bics	r2, r1
 1024 0014 1A60     		str	r2, [r3]
 819:Generated_Source\PSoC4/TCPWM_1.c ****                                                             TCPWM_1_RELOAD_PERIOD_SHIFT));
 1025              		.loc 1 819 0
 1026 0016 1A68     		ldr	r2, [r3]
 823:Generated_Source\PSoC4/TCPWM_1.c **** 
 1027              		.loc 1 823 0
 1028              		@ sp needed
 819:Generated_Source\PSoC4/TCPWM_1.c ****                                                             TCPWM_1_RELOAD_PERIOD_SHIFT));
 1029              		.loc 1 819 0
 1030 0018 1443     		orrs	r4, r2
 1031 001a 1C60     		str	r4, [r3]
 822:Generated_Source\PSoC4/TCPWM_1.c **** }
 1032              		.loc 1 822 0
 1033 001c FFF7FEFF 		bl	CyExitCriticalSection
 1034              	.LVL66:
 823:Generated_Source\PSoC4/TCPWM_1.c **** 
 1035              		.loc 1 823 0
 1036 0020 10BD     		pop	{r4, pc}
 1037              	.L68:
 1038 0022 C046     		.align	2
 1039              	.L67:
 1040 0024 00010540 		.word	1074069760
 1041              		.cfi_endproc
 1042              	.LFE21:
 1043              		.size	TCPWM_1_SetPeriodSwap, .-TCPWM_1_SetPeriodSwap
 1044              		.section	.text.TCPWM_1_WriteCompare,"ax",%progbits
 1045              		.align	2
 1046              		.global	TCPWM_1_WriteCompare
 1047              		.code	16
 1048              		.thumb_func
 1049              		.type	TCPWM_1_WriteCompare, %function
 1050              	TCPWM_1_WriteCompare:
 1051              	.LFB22:
 850:Generated_Source\PSoC4/TCPWM_1.c ****     #if (TCPWM_1_CY_TCPWM_4000)
 1052              		.loc 1 850 0
 1053              		.cfi_startproc
 1054              		@ args = 0, pretend = 0, frame = 0
 1055              		@ frame_needed = 0, uses_anonymous_args = 0
 1056              		@ link register save eliminated.
 1057              	.LVL67:
 873:Generated_Source\PSoC4/TCPWM_1.c **** }
 1058              		.loc 1 873 0
 1059 0000 024B     		ldr	r3, .L70
 1060 0002 0004     		lsls	r0, r0, #16
 1061              	.LVL68:
 1062 0004 000C     		lsrs	r0, r0, #16
 1063 0006 1860     		str	r0, [r3]
 874:Generated_Source\PSoC4/TCPWM_1.c **** 
 1064              		.loc 1 874 0
 1065              		@ sp needed
 1066 0008 7047     		bx	lr
 1067              	.L71:
 1068 000a C046     		.align	2
 1069              	.L70:
ARM GAS  C:\Users\jrdia\AppData\Local\Temp\ccpDBDWb.s 			page 46


 1070 000c 0C010540 		.word	1074069772
 1071              		.cfi_endproc
 1072              	.LFE22:
 1073              		.size	TCPWM_1_WriteCompare, .-TCPWM_1_WriteCompare
 1074              		.section	.text.TCPWM_1_ReadCompare,"ax",%progbits
 1075              		.align	2
 1076              		.global	TCPWM_1_ReadCompare
 1077              		.code	16
 1078              		.thumb_func
 1079              		.type	TCPWM_1_ReadCompare, %function
 1080              	TCPWM_1_ReadCompare:
 1081              	.LFB43:
 1082              		.cfi_startproc
 1083              		@ args = 0, pretend = 0, frame = 0
 1084              		@ frame_needed = 0, uses_anonymous_args = 0
 1085              		@ link register save eliminated.
 1086 0000 024B     		ldr	r3, .L73
 1087              		@ sp needed
 1088 0002 1868     		ldr	r0, [r3]
 1089 0004 0004     		lsls	r0, r0, #16
 1090 0006 000C     		lsrs	r0, r0, #16
 1091 0008 7047     		bx	lr
 1092              	.L74:
 1093 000a C046     		.align	2
 1094              	.L73:
 1095 000c 0C010540 		.word	1074069772
 1096              		.cfi_endproc
 1097              	.LFE43:
 1098              		.size	TCPWM_1_ReadCompare, .-TCPWM_1_ReadCompare
 1099              		.section	.text.TCPWM_1_WriteCompareBuf,"ax",%progbits
 1100              		.align	2
 1101              		.global	TCPWM_1_WriteCompareBuf
 1102              		.code	16
 1103              		.thumb_func
 1104              		.type	TCPWM_1_WriteCompareBuf, %function
 1105              	TCPWM_1_WriteCompareBuf:
 1106              	.LFB24:
 955:Generated_Source\PSoC4/TCPWM_1.c ****     #if (TCPWM_1_CY_TCPWM_4000)
 1107              		.loc 1 955 0
 1108              		.cfi_startproc
 1109              		@ args = 0, pretend = 0, frame = 0
 1110              		@ frame_needed = 0, uses_anonymous_args = 0
 1111              		@ link register save eliminated.
 1112              	.LVL69:
 976:Generated_Source\PSoC4/TCPWM_1.c **** }
 1113              		.loc 1 976 0
 1114 0000 024B     		ldr	r3, .L76
 1115 0002 0004     		lsls	r0, r0, #16
 1116              	.LVL70:
 1117 0004 000C     		lsrs	r0, r0, #16
 1118 0006 1860     		str	r0, [r3]
 977:Generated_Source\PSoC4/TCPWM_1.c **** 
 1119              		.loc 1 977 0
 1120              		@ sp needed
 1121 0008 7047     		bx	lr
 1122              	.L77:
 1123 000a C046     		.align	2
ARM GAS  C:\Users\jrdia\AppData\Local\Temp\ccpDBDWb.s 			page 47


 1124              	.L76:
 1125 000c 10010540 		.word	1074069776
 1126              		.cfi_endproc
 1127              	.LFE24:
 1128              		.size	TCPWM_1_WriteCompareBuf, .-TCPWM_1_WriteCompareBuf
 1129              		.section	.text.TCPWM_1_ReadCompareBuf,"ax",%progbits
 1130              		.align	2
 1131              		.global	TCPWM_1_ReadCompareBuf
 1132              		.code	16
 1133              		.thumb_func
 1134              		.type	TCPWM_1_ReadCompareBuf, %function
 1135              	TCPWM_1_ReadCompareBuf:
 1136              	.LFB41:
 1137              		.cfi_startproc
 1138              		@ args = 0, pretend = 0, frame = 0
 1139              		@ frame_needed = 0, uses_anonymous_args = 0
 1140              		@ link register save eliminated.
 1141 0000 024B     		ldr	r3, .L79
 1142              		@ sp needed
 1143 0002 1868     		ldr	r0, [r3]
 1144 0004 0004     		lsls	r0, r0, #16
 1145 0006 000C     		lsrs	r0, r0, #16
 1146 0008 7047     		bx	lr
 1147              	.L80:
 1148 000a C046     		.align	2
 1149              	.L79:
 1150 000c 10010540 		.word	1074069776
 1151              		.cfi_endproc
 1152              	.LFE41:
 1153              		.size	TCPWM_1_ReadCompareBuf, .-TCPWM_1_ReadCompareBuf
 1154              		.section	.text.TCPWM_1_ReadCapture,"ax",%progbits
 1155              		.align	2
 1156              		.global	TCPWM_1_ReadCapture
 1157              		.code	16
 1158              		.thumb_func
 1159              		.type	TCPWM_1_ReadCapture, %function
 1160              	TCPWM_1_ReadCapture:
 1161              	.LFB26:
1047:Generated_Source\PSoC4/TCPWM_1.c ****     return (TCPWM_1_COMP_CAP_REG & TCPWM_1_16BIT_MASK);
 1162              		.loc 1 1047 0
 1163              		.cfi_startproc
 1164              		@ args = 0, pretend = 0, frame = 0
 1165              		@ frame_needed = 0, uses_anonymous_args = 0
 1166              		@ link register save eliminated.
1048:Generated_Source\PSoC4/TCPWM_1.c **** }
 1167              		.loc 1 1048 0
 1168 0000 024B     		ldr	r3, .L82
1049:Generated_Source\PSoC4/TCPWM_1.c **** 
 1169              		.loc 1 1049 0
 1170              		@ sp needed
1048:Generated_Source\PSoC4/TCPWM_1.c **** }
 1171              		.loc 1 1048 0
 1172 0002 1868     		ldr	r0, [r3]
 1173 0004 0004     		lsls	r0, r0, #16
 1174 0006 000C     		lsrs	r0, r0, #16
1049:Generated_Source\PSoC4/TCPWM_1.c **** 
 1175              		.loc 1 1049 0
ARM GAS  C:\Users\jrdia\AppData\Local\Temp\ccpDBDWb.s 			page 48


 1176 0008 7047     		bx	lr
 1177              	.L83:
 1178 000a C046     		.align	2
 1179              	.L82:
 1180 000c 0C010540 		.word	1074069772
 1181              		.cfi_endproc
 1182              	.LFE26:
 1183              		.size	TCPWM_1_ReadCapture, .-TCPWM_1_ReadCapture
 1184              		.section	.text.TCPWM_1_ReadCaptureBuf,"ax",%progbits
 1185              		.align	2
 1186              		.global	TCPWM_1_ReadCaptureBuf
 1187              		.code	16
 1188              		.thumb_func
 1189              		.type	TCPWM_1_ReadCaptureBuf, %function
 1190              	TCPWM_1_ReadCaptureBuf:
 1191              	.LFB27:
1068:Generated_Source\PSoC4/TCPWM_1.c ****     return (TCPWM_1_COMP_CAP_BUF_REG & TCPWM_1_16BIT_MASK);
 1192              		.loc 1 1068 0
 1193              		.cfi_startproc
 1194              		@ args = 0, pretend = 0, frame = 0
 1195              		@ frame_needed = 0, uses_anonymous_args = 0
 1196              		@ link register save eliminated.
1069:Generated_Source\PSoC4/TCPWM_1.c **** }
 1197              		.loc 1 1069 0
 1198 0000 024B     		ldr	r3, .L85
1070:Generated_Source\PSoC4/TCPWM_1.c **** 
 1199              		.loc 1 1070 0
 1200              		@ sp needed
1069:Generated_Source\PSoC4/TCPWM_1.c **** }
 1201              		.loc 1 1069 0
 1202 0002 1868     		ldr	r0, [r3]
 1203 0004 0004     		lsls	r0, r0, #16
 1204 0006 000C     		lsrs	r0, r0, #16
1070:Generated_Source\PSoC4/TCPWM_1.c **** 
 1205              		.loc 1 1070 0
 1206 0008 7047     		bx	lr
 1207              	.L86:
 1208 000a C046     		.align	2
 1209              	.L85:
 1210 000c 10010540 		.word	1074069776
 1211              		.cfi_endproc
 1212              	.LFE27:
 1213              		.size	TCPWM_1_ReadCaptureBuf, .-TCPWM_1_ReadCaptureBuf
 1214              		.section	.text.TCPWM_1_SetCaptureMode,"ax",%progbits
 1215              		.align	2
 1216              		.global	TCPWM_1_SetCaptureMode
 1217              		.code	16
 1218              		.thumb_func
 1219              		.type	TCPWM_1_SetCaptureMode, %function
 1220              	TCPWM_1_SetCaptureMode:
 1221              	.LFB28:
1095:Generated_Source\PSoC4/TCPWM_1.c ****     uint8 enableInterrupts;
 1222              		.loc 1 1095 0
 1223              		.cfi_startproc
 1224              		@ args = 0, pretend = 0, frame = 0
 1225              		@ frame_needed = 0, uses_anonymous_args = 0
 1226              	.LVL71:
ARM GAS  C:\Users\jrdia\AppData\Local\Temp\ccpDBDWb.s 			page 49


 1227 0000 10B5     		push	{r4, lr}
 1228              		.cfi_def_cfa_offset 8
 1229              		.cfi_offset 4, -8
 1230              		.cfi_offset 14, -4
1095:Generated_Source\PSoC4/TCPWM_1.c ****     uint8 enableInterrupts;
 1231              		.loc 1 1095 0
 1232 0002 0400     		movs	r4, r0
1098:Generated_Source\PSoC4/TCPWM_1.c **** 
 1233              		.loc 1 1098 0
 1234 0004 FFF7FEFF 		bl	CyEnterCriticalSection
 1235              	.LVL72:
1100:Generated_Source\PSoC4/TCPWM_1.c ****     TCPWM_1_TRIG_CONTROL1_REG |= triggerMode;
 1236              		.loc 1 1100 0
 1237 0008 0321     		movs	r1, #3
 1238 000a 054B     		ldr	r3, .L88
1104:Generated_Source\PSoC4/TCPWM_1.c **** 
 1239              		.loc 1 1104 0
 1240              		@ sp needed
1100:Generated_Source\PSoC4/TCPWM_1.c ****     TCPWM_1_TRIG_CONTROL1_REG |= triggerMode;
 1241              		.loc 1 1100 0
 1242 000c 1A68     		ldr	r2, [r3]
 1243 000e 8A43     		bics	r2, r1
 1244 0010 1A60     		str	r2, [r3]
1101:Generated_Source\PSoC4/TCPWM_1.c **** 
 1245              		.loc 1 1101 0
 1246 0012 1A68     		ldr	r2, [r3]
 1247 0014 1443     		orrs	r4, r2
 1248              	.LVL73:
 1249 0016 1C60     		str	r4, [r3]
1103:Generated_Source\PSoC4/TCPWM_1.c **** }
 1250              		.loc 1 1103 0
 1251 0018 FFF7FEFF 		bl	CyExitCriticalSection
 1252              	.LVL74:
1104:Generated_Source\PSoC4/TCPWM_1.c **** 
 1253              		.loc 1 1104 0
 1254 001c 10BD     		pop	{r4, pc}
 1255              	.L89:
 1256 001e C046     		.align	2
 1257              	.L88:
 1258 0020 24010540 		.word	1074069796
 1259              		.cfi_endproc
 1260              	.LFE28:
 1261              		.size	TCPWM_1_SetCaptureMode, .-TCPWM_1_SetCaptureMode
 1262              		.section	.text.TCPWM_1_SetReloadMode,"ax",%progbits
 1263              		.align	2
 1264              		.global	TCPWM_1_SetReloadMode
 1265              		.code	16
 1266              		.thumb_func
 1267              		.type	TCPWM_1_SetReloadMode, %function
 1268              	TCPWM_1_SetReloadMode:
 1269              	.LFB29:
1128:Generated_Source\PSoC4/TCPWM_1.c ****     uint8 enableInterrupts;
 1270              		.loc 1 1128 0
 1271              		.cfi_startproc
 1272              		@ args = 0, pretend = 0, frame = 0
 1273              		@ frame_needed = 0, uses_anonymous_args = 0
 1274              	.LVL75:
ARM GAS  C:\Users\jrdia\AppData\Local\Temp\ccpDBDWb.s 			page 50


 1275 0000 10B5     		push	{r4, lr}
 1276              		.cfi_def_cfa_offset 8
 1277              		.cfi_offset 4, -8
 1278              		.cfi_offset 14, -4
1128:Generated_Source\PSoC4/TCPWM_1.c ****     uint8 enableInterrupts;
 1279              		.loc 1 1128 0
 1280 0002 0400     		movs	r4, r0
1131:Generated_Source\PSoC4/TCPWM_1.c **** 
 1281              		.loc 1 1131 0
 1282 0004 FFF7FEFF 		bl	CyEnterCriticalSection
 1283              	.LVL76:
1133:Generated_Source\PSoC4/TCPWM_1.c ****     TCPWM_1_TRIG_CONTROL1_REG |= ((uint32)(triggerMode << TCPWM_1_RELOAD_SHIFT));
 1284              		.loc 1 1133 0
 1285 0008 3021     		movs	r1, #48
 1286 000a 054B     		ldr	r3, .L91
1137:Generated_Source\PSoC4/TCPWM_1.c **** 
 1287              		.loc 1 1137 0
 1288              		@ sp needed
1133:Generated_Source\PSoC4/TCPWM_1.c ****     TCPWM_1_TRIG_CONTROL1_REG |= ((uint32)(triggerMode << TCPWM_1_RELOAD_SHIFT));
 1289              		.loc 1 1133 0
 1290 000c 1A68     		ldr	r2, [r3]
 1291 000e 8A43     		bics	r2, r1
 1292 0010 1A60     		str	r2, [r3]
1134:Generated_Source\PSoC4/TCPWM_1.c **** 
 1293              		.loc 1 1134 0
 1294 0012 1968     		ldr	r1, [r3]
 1295 0014 2201     		lsls	r2, r4, #4
 1296 0016 0A43     		orrs	r2, r1
 1297 0018 1A60     		str	r2, [r3]
1136:Generated_Source\PSoC4/TCPWM_1.c **** }
 1298              		.loc 1 1136 0
 1299 001a FFF7FEFF 		bl	CyExitCriticalSection
 1300              	.LVL77:
 1301              	.LVL78:
1137:Generated_Source\PSoC4/TCPWM_1.c **** 
 1302              		.loc 1 1137 0
 1303 001e 10BD     		pop	{r4, pc}
 1304              	.L92:
 1305              		.align	2
 1306              	.L91:
 1307 0020 24010540 		.word	1074069796
 1308              		.cfi_endproc
 1309              	.LFE29:
 1310              		.size	TCPWM_1_SetReloadMode, .-TCPWM_1_SetReloadMode
 1311              		.section	.text.TCPWM_1_SetStartMode,"ax",%progbits
 1312              		.align	2
 1313              		.global	TCPWM_1_SetStartMode
 1314              		.code	16
 1315              		.thumb_func
 1316              		.type	TCPWM_1_SetStartMode, %function
 1317              	TCPWM_1_SetStartMode:
 1318              	.LFB30:
1161:Generated_Source\PSoC4/TCPWM_1.c ****     uint8 enableInterrupts;
 1319              		.loc 1 1161 0
 1320              		.cfi_startproc
 1321              		@ args = 0, pretend = 0, frame = 0
 1322              		@ frame_needed = 0, uses_anonymous_args = 0
ARM GAS  C:\Users\jrdia\AppData\Local\Temp\ccpDBDWb.s 			page 51


 1323              	.LVL79:
 1324 0000 10B5     		push	{r4, lr}
 1325              		.cfi_def_cfa_offset 8
 1326              		.cfi_offset 4, -8
 1327              		.cfi_offset 14, -4
1161:Generated_Source\PSoC4/TCPWM_1.c ****     uint8 enableInterrupts;
 1328              		.loc 1 1161 0
 1329 0002 0400     		movs	r4, r0
1164:Generated_Source\PSoC4/TCPWM_1.c **** 
 1330              		.loc 1 1164 0
 1331 0004 FFF7FEFF 		bl	CyEnterCriticalSection
 1332              	.LVL80:
1166:Generated_Source\PSoC4/TCPWM_1.c ****     TCPWM_1_TRIG_CONTROL1_REG |= ((uint32)(triggerMode << TCPWM_1_START_SHIFT));
 1333              		.loc 1 1166 0
 1334 0008 054B     		ldr	r3, .L94
 1335 000a 064A     		ldr	r2, .L94+4
 1336 000c 1968     		ldr	r1, [r3]
1170:Generated_Source\PSoC4/TCPWM_1.c **** 
 1337              		.loc 1 1170 0
 1338              		@ sp needed
1166:Generated_Source\PSoC4/TCPWM_1.c ****     TCPWM_1_TRIG_CONTROL1_REG |= ((uint32)(triggerMode << TCPWM_1_START_SHIFT));
 1339              		.loc 1 1166 0
 1340 000e 0A40     		ands	r2, r1
 1341 0010 1A60     		str	r2, [r3]
1167:Generated_Source\PSoC4/TCPWM_1.c **** 
 1342              		.loc 1 1167 0
 1343 0012 1968     		ldr	r1, [r3]
 1344 0014 2202     		lsls	r2, r4, #8
 1345 0016 0A43     		orrs	r2, r1
 1346 0018 1A60     		str	r2, [r3]
1169:Generated_Source\PSoC4/TCPWM_1.c **** }
 1347              		.loc 1 1169 0
 1348 001a FFF7FEFF 		bl	CyExitCriticalSection
 1349              	.LVL81:
 1350              	.LVL82:
1170:Generated_Source\PSoC4/TCPWM_1.c **** 
 1351              		.loc 1 1170 0
 1352 001e 10BD     		pop	{r4, pc}
 1353              	.L95:
 1354              		.align	2
 1355              	.L94:
 1356 0020 24010540 		.word	1074069796
 1357 0024 FFFCFFFF 		.word	-769
 1358              		.cfi_endproc
 1359              	.LFE30:
 1360              		.size	TCPWM_1_SetStartMode, .-TCPWM_1_SetStartMode
 1361              		.section	.text.TCPWM_1_SetStopMode,"ax",%progbits
 1362              		.align	2
 1363              		.global	TCPWM_1_SetStopMode
 1364              		.code	16
 1365              		.thumb_func
 1366              		.type	TCPWM_1_SetStopMode, %function
 1367              	TCPWM_1_SetStopMode:
 1368              	.LFB31:
1193:Generated_Source\PSoC4/TCPWM_1.c ****     uint8 enableInterrupts;
 1369              		.loc 1 1193 0
 1370              		.cfi_startproc
ARM GAS  C:\Users\jrdia\AppData\Local\Temp\ccpDBDWb.s 			page 52


 1371              		@ args = 0, pretend = 0, frame = 0
 1372              		@ frame_needed = 0, uses_anonymous_args = 0
 1373              	.LVL83:
 1374 0000 10B5     		push	{r4, lr}
 1375              		.cfi_def_cfa_offset 8
 1376              		.cfi_offset 4, -8
 1377              		.cfi_offset 14, -4
1193:Generated_Source\PSoC4/TCPWM_1.c ****     uint8 enableInterrupts;
 1378              		.loc 1 1193 0
 1379 0002 0400     		movs	r4, r0
1196:Generated_Source\PSoC4/TCPWM_1.c **** 
 1380              		.loc 1 1196 0
 1381 0004 FFF7FEFF 		bl	CyEnterCriticalSection
 1382              	.LVL84:
1198:Generated_Source\PSoC4/TCPWM_1.c ****     TCPWM_1_TRIG_CONTROL1_REG |= ((uint32)(triggerMode << TCPWM_1_STOP_SHIFT));
 1383              		.loc 1 1198 0
 1384 0008 C021     		movs	r1, #192
 1385 000a 054B     		ldr	r3, .L97
1202:Generated_Source\PSoC4/TCPWM_1.c **** 
 1386              		.loc 1 1202 0
 1387              		@ sp needed
1198:Generated_Source\PSoC4/TCPWM_1.c ****     TCPWM_1_TRIG_CONTROL1_REG |= ((uint32)(triggerMode << TCPWM_1_STOP_SHIFT));
 1388              		.loc 1 1198 0
 1389 000c 1A68     		ldr	r2, [r3]
 1390 000e 8A43     		bics	r2, r1
 1391 0010 1A60     		str	r2, [r3]
1199:Generated_Source\PSoC4/TCPWM_1.c **** 
 1392              		.loc 1 1199 0
 1393 0012 1968     		ldr	r1, [r3]
 1394 0014 A201     		lsls	r2, r4, #6
 1395 0016 0A43     		orrs	r2, r1
 1396 0018 1A60     		str	r2, [r3]
1201:Generated_Source\PSoC4/TCPWM_1.c **** }
 1397              		.loc 1 1201 0
 1398 001a FFF7FEFF 		bl	CyExitCriticalSection
 1399              	.LVL85:
 1400              	.LVL86:
1202:Generated_Source\PSoC4/TCPWM_1.c **** 
 1401              		.loc 1 1202 0
 1402 001e 10BD     		pop	{r4, pc}
 1403              	.L98:
 1404              		.align	2
 1405              	.L97:
 1406 0020 24010540 		.word	1074069796
 1407              		.cfi_endproc
 1408              	.LFE31:
 1409              		.size	TCPWM_1_SetStopMode, .-TCPWM_1_SetStopMode
 1410              		.section	.text.TCPWM_1_SetCountMode,"ax",%progbits
 1411              		.align	2
 1412              		.global	TCPWM_1_SetCountMode
 1413              		.code	16
 1414              		.thumb_func
 1415              		.type	TCPWM_1_SetCountMode, %function
 1416              	TCPWM_1_SetCountMode:
 1417              	.LFB32:
1226:Generated_Source\PSoC4/TCPWM_1.c ****     uint8 enableInterrupts;
 1418              		.loc 1 1226 0
ARM GAS  C:\Users\jrdia\AppData\Local\Temp\ccpDBDWb.s 			page 53


 1419              		.cfi_startproc
 1420              		@ args = 0, pretend = 0, frame = 0
 1421              		@ frame_needed = 0, uses_anonymous_args = 0
 1422              	.LVL87:
 1423 0000 10B5     		push	{r4, lr}
 1424              		.cfi_def_cfa_offset 8
 1425              		.cfi_offset 4, -8
 1426              		.cfi_offset 14, -4
1226:Generated_Source\PSoC4/TCPWM_1.c ****     uint8 enableInterrupts;
 1427              		.loc 1 1226 0
 1428 0002 0400     		movs	r4, r0
1229:Generated_Source\PSoC4/TCPWM_1.c **** 
 1429              		.loc 1 1229 0
 1430 0004 FFF7FEFF 		bl	CyEnterCriticalSection
 1431              	.LVL88:
1231:Generated_Source\PSoC4/TCPWM_1.c ****     TCPWM_1_TRIG_CONTROL1_REG |= ((uint32)(triggerMode << TCPWM_1_COUNT_SHIFT));
 1432              		.loc 1 1231 0
 1433 0008 0C21     		movs	r1, #12
 1434 000a 054B     		ldr	r3, .L100
1235:Generated_Source\PSoC4/TCPWM_1.c **** 
 1435              		.loc 1 1235 0
 1436              		@ sp needed
1231:Generated_Source\PSoC4/TCPWM_1.c ****     TCPWM_1_TRIG_CONTROL1_REG |= ((uint32)(triggerMode << TCPWM_1_COUNT_SHIFT));
 1437              		.loc 1 1231 0
 1438 000c 1A68     		ldr	r2, [r3]
 1439 000e 8A43     		bics	r2, r1
 1440 0010 1A60     		str	r2, [r3]
1232:Generated_Source\PSoC4/TCPWM_1.c **** 
 1441              		.loc 1 1232 0
 1442 0012 1968     		ldr	r1, [r3]
 1443 0014 A200     		lsls	r2, r4, #2
 1444 0016 0A43     		orrs	r2, r1
 1445 0018 1A60     		str	r2, [r3]
1234:Generated_Source\PSoC4/TCPWM_1.c **** }
 1446              		.loc 1 1234 0
 1447 001a FFF7FEFF 		bl	CyExitCriticalSection
 1448              	.LVL89:
 1449              	.LVL90:
1235:Generated_Source\PSoC4/TCPWM_1.c **** 
 1450              		.loc 1 1235 0
 1451 001e 10BD     		pop	{r4, pc}
 1452              	.L101:
 1453              		.align	2
 1454              	.L100:
 1455 0020 24010540 		.word	1074069796
 1456              		.cfi_endproc
 1457              	.LFE32:
 1458              		.size	TCPWM_1_SetCountMode, .-TCPWM_1_SetCountMode
 1459              		.section	.text.TCPWM_1_TriggerCommand,"ax",%progbits
 1460              		.align	2
 1461              		.global	TCPWM_1_TriggerCommand
 1462              		.code	16
 1463              		.thumb_func
 1464              		.type	TCPWM_1_TriggerCommand, %function
 1465              	TCPWM_1_TriggerCommand:
 1466              	.LFB33:
1266:Generated_Source\PSoC4/TCPWM_1.c ****     uint8 enableInterrupts;
ARM GAS  C:\Users\jrdia\AppData\Local\Temp\ccpDBDWb.s 			page 54


 1467              		.loc 1 1266 0
 1468              		.cfi_startproc
 1469              		@ args = 0, pretend = 0, frame = 0
 1470              		@ frame_needed = 0, uses_anonymous_args = 0
 1471              	.LVL91:
 1472 0000 70B5     		push	{r4, r5, r6, lr}
 1473              		.cfi_def_cfa_offset 16
 1474              		.cfi_offset 4, -16
 1475              		.cfi_offset 5, -12
 1476              		.cfi_offset 6, -8
 1477              		.cfi_offset 14, -4
1266:Generated_Source\PSoC4/TCPWM_1.c ****     uint8 enableInterrupts;
 1478              		.loc 1 1266 0
 1479 0002 0D00     		movs	r5, r1
 1480 0004 0400     		movs	r4, r0
1271:Generated_Source\PSoC4/TCPWM_1.c **** 
 1481              		.loc 1 1271 0
 1482 0006 AC40     		lsls	r4, r4, r5
1269:Generated_Source\PSoC4/TCPWM_1.c **** 
 1483              		.loc 1 1269 0
 1484 0008 FFF7FEFF 		bl	CyEnterCriticalSection
 1485              	.LVL92:
1271:Generated_Source\PSoC4/TCPWM_1.c **** 
 1486              		.loc 1 1271 0
 1487 000c 024B     		ldr	r3, .L103
1274:Generated_Source\PSoC4/TCPWM_1.c **** 
 1488              		.loc 1 1274 0
 1489              		@ sp needed
1271:Generated_Source\PSoC4/TCPWM_1.c **** 
 1490              		.loc 1 1271 0
 1491 000e 1C60     		str	r4, [r3]
1273:Generated_Source\PSoC4/TCPWM_1.c **** }
 1492              		.loc 1 1273 0
 1493 0010 FFF7FEFF 		bl	CyExitCriticalSection
 1494              	.LVL93:
 1495              	.LVL94:
1274:Generated_Source\PSoC4/TCPWM_1.c **** 
 1496              		.loc 1 1274 0
 1497 0014 70BD     		pop	{r4, r5, r6, pc}
 1498              	.L104:
 1499 0016 C046     		.align	2
 1500              	.L103:
 1501 0018 08000540 		.word	1074069512
 1502              		.cfi_endproc
 1503              	.LFE33:
 1504              		.size	TCPWM_1_TriggerCommand, .-TCPWM_1_TriggerCommand
 1505              		.section	.text.TCPWM_1_ReadStatus,"ax",%progbits
 1506              		.align	2
 1507              		.global	TCPWM_1_ReadStatus
 1508              		.code	16
 1509              		.thumb_func
 1510              		.type	TCPWM_1_ReadStatus, %function
 1511              	TCPWM_1_ReadStatus:
 1512              	.LFB34:
1295:Generated_Source\PSoC4/TCPWM_1.c ****     return ((TCPWM_1_STATUS_REG >> TCPWM_1_RUNNING_STATUS_SHIFT) |
 1513              		.loc 1 1295 0
 1514              		.cfi_startproc
ARM GAS  C:\Users\jrdia\AppData\Local\Temp\ccpDBDWb.s 			page 55


 1515              		@ args = 0, pretend = 0, frame = 0
 1516              		@ frame_needed = 0, uses_anonymous_args = 0
 1517              		@ link register save eliminated.
1296:Generated_Source\PSoC4/TCPWM_1.c ****             (TCPWM_1_STATUS_REG & TCPWM_1_STATUS_DOWN));
 1518              		.loc 1 1296 0
 1519 0000 034B     		ldr	r3, .L106
1298:Generated_Source\PSoC4/TCPWM_1.c **** 
 1520              		.loc 1 1298 0
 1521              		@ sp needed
1296:Generated_Source\PSoC4/TCPWM_1.c ****             (TCPWM_1_STATUS_REG & TCPWM_1_STATUS_DOWN));
 1522              		.loc 1 1296 0
 1523 0002 1868     		ldr	r0, [r3]
1297:Generated_Source\PSoC4/TCPWM_1.c **** }
 1524              		.loc 1 1297 0
 1525 0004 1B68     		ldr	r3, [r3]
1296:Generated_Source\PSoC4/TCPWM_1.c ****             (TCPWM_1_STATUS_REG & TCPWM_1_STATUS_DOWN));
 1526              		.loc 1 1296 0
 1527 0006 820F     		lsrs	r2, r0, #30
 1528 0008 0120     		movs	r0, #1
 1529 000a 1840     		ands	r0, r3
 1530 000c 1043     		orrs	r0, r2
1298:Generated_Source\PSoC4/TCPWM_1.c **** 
 1531              		.loc 1 1298 0
 1532 000e 7047     		bx	lr
 1533              	.L107:
 1534              		.align	2
 1535              	.L106:
 1536 0010 04010540 		.word	1074069764
 1537              		.cfi_endproc
 1538              	.LFE34:
 1539              		.size	TCPWM_1_ReadStatus, .-TCPWM_1_ReadStatus
 1540              		.section	.text.TCPWM_1_SetInterruptMode,"ax",%progbits
 1541              		.align	2
 1542              		.global	TCPWM_1_SetInterruptMode
 1543              		.code	16
 1544              		.thumb_func
 1545              		.type	TCPWM_1_SetInterruptMode, %function
 1546              	TCPWM_1_SetInterruptMode:
 1547              	.LFB35:
1320:Generated_Source\PSoC4/TCPWM_1.c ****     TCPWM_1_INTERRUPT_MASK_REG =  interruptMask;
 1548              		.loc 1 1320 0
 1549              		.cfi_startproc
 1550              		@ args = 0, pretend = 0, frame = 0
 1551              		@ frame_needed = 0, uses_anonymous_args = 0
 1552              		@ link register save eliminated.
 1553              	.LVL95:
 1554              		.loc 1 1321 0
 1555 0000 014B     		ldr	r3, .L109
1322:Generated_Source\PSoC4/TCPWM_1.c **** }
 1556              		.loc 1 1322 0
 1557              		@ sp needed
1321:Generated_Source\PSoC4/TCPWM_1.c **** }
 1558              		.loc 1 1321 0
 1559 0002 1860     		str	r0, [r3]
 1560              		.loc 1 1322 0
 1561 0004 7047     		bx	lr
 1562              	.L110:
ARM GAS  C:\Users\jrdia\AppData\Local\Temp\ccpDBDWb.s 			page 56


 1563 0006 C046     		.align	2
 1564              	.L109:
 1565 0008 38010540 		.word	1074069816
 1566              		.cfi_endproc
 1567              	.LFE35:
 1568              		.size	TCPWM_1_SetInterruptMode, .-TCPWM_1_SetInterruptMode
 1569              		.section	.text.TCPWM_1_GetInterruptSourceMasked,"ax",%progbits
 1570              		.align	2
 1571              		.global	TCPWM_1_GetInterruptSourceMasked
 1572              		.code	16
 1573              		.thumb_func
 1574              		.type	TCPWM_1_GetInterruptSourceMasked, %function
 1575              	TCPWM_1_GetInterruptSourceMasked:
 1576              	.LFB36:
1323:Generated_Source\PSoC4/TCPWM_1.c **** 
1324:Generated_Source\PSoC4/TCPWM_1.c **** 
1325:Generated_Source\PSoC4/TCPWM_1.c **** /*******************************************************************************
1326:Generated_Source\PSoC4/TCPWM_1.c **** * Function Name: TCPWM_1_GetInterruptSourceMasked
1327:Generated_Source\PSoC4/TCPWM_1.c **** ********************************************************************************
1328:Generated_Source\PSoC4/TCPWM_1.c **** *
1329:Generated_Source\PSoC4/TCPWM_1.c **** * Summary:
1330:Generated_Source\PSoC4/TCPWM_1.c **** *  Gets the interrupt requests masked by the interrupt mask.
1331:Generated_Source\PSoC4/TCPWM_1.c **** *
1332:Generated_Source\PSoC4/TCPWM_1.c **** * Parameters:
1333:Generated_Source\PSoC4/TCPWM_1.c **** *   None
1334:Generated_Source\PSoC4/TCPWM_1.c **** *
1335:Generated_Source\PSoC4/TCPWM_1.c **** * Return:
1336:Generated_Source\PSoC4/TCPWM_1.c **** *  Masked interrupt source
1337:Generated_Source\PSoC4/TCPWM_1.c **** *   Values:
1338:Generated_Source\PSoC4/TCPWM_1.c **** *     - TCPWM_1_INTR_MASK_TC       - Terminal count mask
1339:Generated_Source\PSoC4/TCPWM_1.c **** *     - TCPWM_1_INTR_MASK_CC_MATCH - Compare count / capture mask
1340:Generated_Source\PSoC4/TCPWM_1.c **** *
1341:Generated_Source\PSoC4/TCPWM_1.c **** *******************************************************************************/
1342:Generated_Source\PSoC4/TCPWM_1.c **** uint32 TCPWM_1_GetInterruptSourceMasked(void)
1343:Generated_Source\PSoC4/TCPWM_1.c **** {
 1577              		.loc 1 1343 0
 1578              		.cfi_startproc
 1579              		@ args = 0, pretend = 0, frame = 0
 1580              		@ frame_needed = 0, uses_anonymous_args = 0
 1581              		@ link register save eliminated.
1344:Generated_Source\PSoC4/TCPWM_1.c ****     return (TCPWM_1_INTERRUPT_MASKED_REG);
 1582              		.loc 1 1344 0
 1583 0000 014B     		ldr	r3, .L112
1345:Generated_Source\PSoC4/TCPWM_1.c **** }
 1584              		.loc 1 1345 0
 1585              		@ sp needed
1344:Generated_Source\PSoC4/TCPWM_1.c ****     return (TCPWM_1_INTERRUPT_MASKED_REG);
 1586              		.loc 1 1344 0
 1587 0002 1868     		ldr	r0, [r3]
 1588              		.loc 1 1345 0
 1589 0004 7047     		bx	lr
 1590              	.L113:
 1591 0006 C046     		.align	2
 1592              	.L112:
 1593 0008 3C010540 		.word	1074069820
 1594              		.cfi_endproc
 1595              	.LFE36:
ARM GAS  C:\Users\jrdia\AppData\Local\Temp\ccpDBDWb.s 			page 57


 1596              		.size	TCPWM_1_GetInterruptSourceMasked, .-TCPWM_1_GetInterruptSourceMasked
 1597              		.section	.text.TCPWM_1_GetInterruptSource,"ax",%progbits
 1598              		.align	2
 1599              		.global	TCPWM_1_GetInterruptSource
 1600              		.code	16
 1601              		.thumb_func
 1602              		.type	TCPWM_1_GetInterruptSource, %function
 1603              	TCPWM_1_GetInterruptSource:
 1604              	.LFB37:
1346:Generated_Source\PSoC4/TCPWM_1.c **** 
1347:Generated_Source\PSoC4/TCPWM_1.c **** 
1348:Generated_Source\PSoC4/TCPWM_1.c **** /*******************************************************************************
1349:Generated_Source\PSoC4/TCPWM_1.c **** * Function Name: TCPWM_1_GetInterruptSource
1350:Generated_Source\PSoC4/TCPWM_1.c **** ********************************************************************************
1351:Generated_Source\PSoC4/TCPWM_1.c **** *
1352:Generated_Source\PSoC4/TCPWM_1.c **** * Summary:
1353:Generated_Source\PSoC4/TCPWM_1.c **** *  Gets the interrupt requests (without masking).
1354:Generated_Source\PSoC4/TCPWM_1.c **** *
1355:Generated_Source\PSoC4/TCPWM_1.c **** * Parameters:
1356:Generated_Source\PSoC4/TCPWM_1.c **** *  None
1357:Generated_Source\PSoC4/TCPWM_1.c **** *
1358:Generated_Source\PSoC4/TCPWM_1.c **** * Return:
1359:Generated_Source\PSoC4/TCPWM_1.c **** *  Interrupt request value
1360:Generated_Source\PSoC4/TCPWM_1.c **** *   Values:
1361:Generated_Source\PSoC4/TCPWM_1.c **** *     - TCPWM_1_INTR_MASK_TC       - Terminal count mask
1362:Generated_Source\PSoC4/TCPWM_1.c **** *     - TCPWM_1_INTR_MASK_CC_MATCH - Compare count / capture mask
1363:Generated_Source\PSoC4/TCPWM_1.c **** *
1364:Generated_Source\PSoC4/TCPWM_1.c **** *******************************************************************************/
1365:Generated_Source\PSoC4/TCPWM_1.c **** uint32 TCPWM_1_GetInterruptSource(void)
1366:Generated_Source\PSoC4/TCPWM_1.c **** {
 1605              		.loc 1 1366 0
 1606              		.cfi_startproc
 1607              		@ args = 0, pretend = 0, frame = 0
 1608              		@ frame_needed = 0, uses_anonymous_args = 0
 1609              		@ link register save eliminated.
1367:Generated_Source\PSoC4/TCPWM_1.c ****     return (TCPWM_1_INTERRUPT_REQ_REG);
 1610              		.loc 1 1367 0
 1611 0000 014B     		ldr	r3, .L115
1368:Generated_Source\PSoC4/TCPWM_1.c **** }
 1612              		.loc 1 1368 0
 1613              		@ sp needed
1367:Generated_Source\PSoC4/TCPWM_1.c ****     return (TCPWM_1_INTERRUPT_REQ_REG);
 1614              		.loc 1 1367 0
 1615 0002 1868     		ldr	r0, [r3]
 1616              		.loc 1 1368 0
 1617 0004 7047     		bx	lr
 1618              	.L116:
 1619 0006 C046     		.align	2
 1620              	.L115:
 1621 0008 30010540 		.word	1074069808
 1622              		.cfi_endproc
 1623              	.LFE37:
 1624              		.size	TCPWM_1_GetInterruptSource, .-TCPWM_1_GetInterruptSource
 1625              		.section	.text.TCPWM_1_ClearInterrupt,"ax",%progbits
 1626              		.align	2
 1627              		.global	TCPWM_1_ClearInterrupt
 1628              		.code	16
ARM GAS  C:\Users\jrdia\AppData\Local\Temp\ccpDBDWb.s 			page 58


 1629              		.thumb_func
 1630              		.type	TCPWM_1_ClearInterrupt, %function
 1631              	TCPWM_1_ClearInterrupt:
 1632              	.LFB38:
1369:Generated_Source\PSoC4/TCPWM_1.c **** 
1370:Generated_Source\PSoC4/TCPWM_1.c **** 
1371:Generated_Source\PSoC4/TCPWM_1.c **** /*******************************************************************************
1372:Generated_Source\PSoC4/TCPWM_1.c **** * Function Name: TCPWM_1_ClearInterrupt
1373:Generated_Source\PSoC4/TCPWM_1.c **** ********************************************************************************
1374:Generated_Source\PSoC4/TCPWM_1.c **** *
1375:Generated_Source\PSoC4/TCPWM_1.c **** * Summary:
1376:Generated_Source\PSoC4/TCPWM_1.c **** *  Clears the interrupt request.
1377:Generated_Source\PSoC4/TCPWM_1.c **** *
1378:Generated_Source\PSoC4/TCPWM_1.c **** * Parameters:
1379:Generated_Source\PSoC4/TCPWM_1.c **** *   interruptMask: Mask of interrupts to clear
1380:Generated_Source\PSoC4/TCPWM_1.c **** *   Values:
1381:Generated_Source\PSoC4/TCPWM_1.c **** *     - TCPWM_1_INTR_MASK_TC       - Terminal count mask
1382:Generated_Source\PSoC4/TCPWM_1.c **** *     - TCPWM_1_INTR_MASK_CC_MATCH - Compare count / capture mask
1383:Generated_Source\PSoC4/TCPWM_1.c **** *
1384:Generated_Source\PSoC4/TCPWM_1.c **** * Return:
1385:Generated_Source\PSoC4/TCPWM_1.c **** *  None
1386:Generated_Source\PSoC4/TCPWM_1.c **** *
1387:Generated_Source\PSoC4/TCPWM_1.c **** *******************************************************************************/
1388:Generated_Source\PSoC4/TCPWM_1.c **** void TCPWM_1_ClearInterrupt(uint32 interruptMask)
1389:Generated_Source\PSoC4/TCPWM_1.c **** {
 1633              		.loc 1 1389 0
 1634              		.cfi_startproc
 1635              		@ args = 0, pretend = 0, frame = 0
 1636              		@ frame_needed = 0, uses_anonymous_args = 0
 1637              		@ link register save eliminated.
 1638              	.LVL96:
1390:Generated_Source\PSoC4/TCPWM_1.c ****     TCPWM_1_INTERRUPT_REQ_REG = interruptMask;
 1639              		.loc 1 1390 0
 1640 0000 014B     		ldr	r3, .L118
1391:Generated_Source\PSoC4/TCPWM_1.c **** }
 1641              		.loc 1 1391 0
 1642              		@ sp needed
1390:Generated_Source\PSoC4/TCPWM_1.c ****     TCPWM_1_INTERRUPT_REQ_REG = interruptMask;
 1643              		.loc 1 1390 0
 1644 0002 1860     		str	r0, [r3]
 1645              		.loc 1 1391 0
 1646 0004 7047     		bx	lr
 1647              	.L119:
 1648 0006 C046     		.align	2
 1649              	.L118:
 1650 0008 30010540 		.word	1074069808
 1651              		.cfi_endproc
 1652              	.LFE38:
 1653              		.size	TCPWM_1_ClearInterrupt, .-TCPWM_1_ClearInterrupt
 1654              		.section	.text.TCPWM_1_SetInterrupt,"ax",%progbits
 1655              		.align	2
 1656              		.global	TCPWM_1_SetInterrupt
 1657              		.code	16
 1658              		.thumb_func
 1659              		.type	TCPWM_1_SetInterrupt, %function
 1660              	TCPWM_1_SetInterrupt:
 1661              	.LFB39:
ARM GAS  C:\Users\jrdia\AppData\Local\Temp\ccpDBDWb.s 			page 59


1392:Generated_Source\PSoC4/TCPWM_1.c **** 
1393:Generated_Source\PSoC4/TCPWM_1.c **** 
1394:Generated_Source\PSoC4/TCPWM_1.c **** /*******************************************************************************
1395:Generated_Source\PSoC4/TCPWM_1.c **** * Function Name: TCPWM_1_SetInterrupt
1396:Generated_Source\PSoC4/TCPWM_1.c **** ********************************************************************************
1397:Generated_Source\PSoC4/TCPWM_1.c **** *
1398:Generated_Source\PSoC4/TCPWM_1.c **** * Summary:
1399:Generated_Source\PSoC4/TCPWM_1.c **** *  Sets a software interrupt request.
1400:Generated_Source\PSoC4/TCPWM_1.c **** *
1401:Generated_Source\PSoC4/TCPWM_1.c **** * Parameters:
1402:Generated_Source\PSoC4/TCPWM_1.c **** *   interruptMask: Mask of interrupts to set
1403:Generated_Source\PSoC4/TCPWM_1.c **** *   Values:
1404:Generated_Source\PSoC4/TCPWM_1.c **** *     - TCPWM_1_INTR_MASK_TC       - Terminal count mask
1405:Generated_Source\PSoC4/TCPWM_1.c **** *     - TCPWM_1_INTR_MASK_CC_MATCH - Compare count / capture mask
1406:Generated_Source\PSoC4/TCPWM_1.c **** *
1407:Generated_Source\PSoC4/TCPWM_1.c **** * Return:
1408:Generated_Source\PSoC4/TCPWM_1.c **** *  None
1409:Generated_Source\PSoC4/TCPWM_1.c **** *
1410:Generated_Source\PSoC4/TCPWM_1.c **** *******************************************************************************/
1411:Generated_Source\PSoC4/TCPWM_1.c **** void TCPWM_1_SetInterrupt(uint32 interruptMask)
1412:Generated_Source\PSoC4/TCPWM_1.c **** {
 1662              		.loc 1 1412 0
 1663              		.cfi_startproc
 1664              		@ args = 0, pretend = 0, frame = 0
 1665              		@ frame_needed = 0, uses_anonymous_args = 0
 1666              		@ link register save eliminated.
 1667              	.LVL97:
1413:Generated_Source\PSoC4/TCPWM_1.c ****     TCPWM_1_INTERRUPT_SET_REG = interruptMask;
 1668              		.loc 1 1413 0
 1669 0000 014B     		ldr	r3, .L121
1414:Generated_Source\PSoC4/TCPWM_1.c **** }
 1670              		.loc 1 1414 0
 1671              		@ sp needed
1413:Generated_Source\PSoC4/TCPWM_1.c ****     TCPWM_1_INTERRUPT_SET_REG = interruptMask;
 1672              		.loc 1 1413 0
 1673 0002 1860     		str	r0, [r3]
 1674              		.loc 1 1414 0
 1675 0004 7047     		bx	lr
 1676              	.L122:
 1677 0006 C046     		.align	2
 1678              	.L121:
 1679 0008 34010540 		.word	1074069812
 1680              		.cfi_endproc
 1681              	.LFE39:
 1682              		.size	TCPWM_1_SetInterrupt, .-TCPWM_1_SetInterrupt
 1683              		.global	TCPWM_1_initVar
 1684              		.bss
 1685              		.set	.LANCHOR0,. + 0
 1686              		.type	TCPWM_1_initVar, %object
 1687              		.size	TCPWM_1_initVar, 1
 1688              	TCPWM_1_initVar:
 1689 0000 00       		.space	1
 1690              		.text
 1691              	.Letext0:
 1692              		.file 2 "Generated_Source\\PSoC4\\cytypes.h"
 1693              		.file 3 "Generated_Source\\PSoC4\\CyLib.h"
 1694              		.section	.debug_info,"",%progbits
ARM GAS  C:\Users\jrdia\AppData\Local\Temp\ccpDBDWb.s 			page 60


 1695              	.Ldebug_info0:
 1696 0000 D3090000 		.4byte	0x9d3
 1697 0004 0400     		.2byte	0x4
 1698 0006 00000000 		.4byte	.Ldebug_abbrev0
 1699 000a 04       		.byte	0x4
 1700 000b 01       		.uleb128 0x1
 1701 000c 9B030000 		.4byte	.LASF76
 1702 0010 0C       		.byte	0xc
 1703 0011 F6020000 		.4byte	.LASF77
 1704 0015 80040000 		.4byte	.LASF78
 1705 0019 18000000 		.4byte	.Ldebug_ranges0+0x18
 1706 001d 00000000 		.4byte	0
 1707 0021 00000000 		.4byte	.Ldebug_line0
 1708 0025 02       		.uleb128 0x2
 1709 0026 01       		.byte	0x1
 1710 0027 06       		.byte	0x6
 1711 0028 D8000000 		.4byte	.LASF0
 1712 002c 02       		.uleb128 0x2
 1713 002d 01       		.byte	0x1
 1714 002e 08       		.byte	0x8
 1715 002f 42030000 		.4byte	.LASF1
 1716 0033 02       		.uleb128 0x2
 1717 0034 02       		.byte	0x2
 1718 0035 05       		.byte	0x5
 1719 0036 91030000 		.4byte	.LASF2
 1720 003a 02       		.uleb128 0x2
 1721 003b 02       		.byte	0x2
 1722 003c 07       		.byte	0x7
 1723 003d FD010000 		.4byte	.LASF3
 1724 0041 02       		.uleb128 0x2
 1725 0042 04       		.byte	0x4
 1726 0043 05       		.byte	0x5
 1727 0044 EB000000 		.4byte	.LASF4
 1728 0048 02       		.uleb128 0x2
 1729 0049 04       		.byte	0x4
 1730 004a 07       		.byte	0x7
 1731 004b CB010000 		.4byte	.LASF5
 1732 004f 02       		.uleb128 0x2
 1733 0050 08       		.byte	0x8
 1734 0051 05       		.byte	0x5
 1735 0052 CA000000 		.4byte	.LASF6
 1736 0056 02       		.uleb128 0x2
 1737 0057 08       		.byte	0x8
 1738 0058 07       		.byte	0x7
 1739 0059 7F000000 		.4byte	.LASF7
 1740 005d 03       		.uleb128 0x3
 1741 005e 04       		.byte	0x4
 1742 005f 05       		.byte	0x5
 1743 0060 696E7400 		.ascii	"int\000"
 1744 0064 02       		.uleb128 0x2
 1745 0065 04       		.byte	0x4
 1746 0066 07       		.byte	0x7
 1747 0067 9F010000 		.4byte	.LASF8
 1748 006b 04       		.uleb128 0x4
 1749 006c 0C010000 		.4byte	.LASF9
 1750 0070 02       		.byte	0x2
 1751 0071 D201     		.2byte	0x1d2
ARM GAS  C:\Users\jrdia\AppData\Local\Temp\ccpDBDWb.s 			page 61


 1752 0073 2C000000 		.4byte	0x2c
 1753 0077 04       		.uleb128 0x4
 1754 0078 30010000 		.4byte	.LASF10
 1755 007c 02       		.byte	0x2
 1756 007d D401     		.2byte	0x1d4
 1757 007f 48000000 		.4byte	0x48
 1758 0083 02       		.uleb128 0x2
 1759 0084 04       		.byte	0x4
 1760 0085 04       		.byte	0x4
 1761 0086 E6020000 		.4byte	.LASF11
 1762 008a 02       		.uleb128 0x2
 1763 008b 08       		.byte	0x8
 1764 008c 04       		.byte	0x4
 1765 008d 29010000 		.4byte	.LASF12
 1766 0091 02       		.uleb128 0x2
 1767 0092 01       		.byte	0x1
 1768 0093 08       		.byte	0x8
 1769 0094 76040000 		.4byte	.LASF13
 1770 0098 04       		.uleb128 0x4
 1771 0099 46020000 		.4byte	.LASF14
 1772 009d 02       		.byte	0x2
 1773 009e 7E02     		.2byte	0x27e
 1774 00a0 A4000000 		.4byte	0xa4
 1775 00a4 05       		.uleb128 0x5
 1776 00a5 77000000 		.4byte	0x77
 1777 00a9 02       		.uleb128 0x2
 1778 00aa 08       		.byte	0x8
 1779 00ab 04       		.byte	0x4
 1780 00ac 78020000 		.4byte	.LASF15
 1781 00b0 02       		.uleb128 0x2
 1782 00b1 04       		.byte	0x4
 1783 00b2 07       		.byte	0x7
 1784 00b3 6F020000 		.4byte	.LASF16
 1785 00b7 06       		.uleb128 0x6
 1786 00b8 AC010000 		.4byte	.LASF19
 1787 00bc 01       		.byte	0x1
 1788 00bd F104     		.2byte	0x4f1
 1789 00bf 01       		.byte	0x1
 1790 00c0 E9000000 		.4byte	0xe9
 1791 00c4 07       		.uleb128 0x7
 1792 00c5 43010000 		.4byte	.LASF17
 1793 00c9 01       		.byte	0x1
 1794 00ca F104     		.2byte	0x4f1
 1795 00cc 77000000 		.4byte	0x77
 1796 00d0 07       		.uleb128 0x7
 1797 00d1 C3010000 		.4byte	.LASF18
 1798 00d5 01       		.byte	0x1
 1799 00d6 F104     		.2byte	0x4f1
 1800 00d8 77000000 		.4byte	0x77
 1801 00dc 08       		.uleb128 0x8
 1802 00dd 4C050000 		.4byte	.LASF29
 1803 00e1 01       		.byte	0x1
 1804 00e2 F304     		.2byte	0x4f3
 1805 00e4 6B000000 		.4byte	0x6b
 1806 00e8 00       		.byte	0
 1807 00e9 06       		.uleb128 0x6
 1808 00ea 6A000000 		.4byte	.LASF20
ARM GAS  C:\Users\jrdia\AppData\Local\Temp\ccpDBDWb.s 			page 62


 1809 00ee 01       		.byte	0x1
 1810 00ef 6702     		.2byte	0x267
 1811 00f1 01       		.byte	0x1
 1812 00f2 03010000 		.4byte	0x103
 1813 00f6 07       		.uleb128 0x7
 1814 00f7 00000000 		.4byte	.LASF21
 1815 00fb 01       		.byte	0x1
 1816 00fc 6702     		.2byte	0x267
 1817 00fe 77000000 		.4byte	0x77
 1818 0102 00       		.byte	0
 1819 0103 06       		.uleb128 0x6
 1820 0104 17030000 		.4byte	.LASF22
 1821 0108 01       		.byte	0x1
 1822 0109 B502     		.2byte	0x2b5
 1823 010b 01       		.byte	0x1
 1824 010c 1D010000 		.4byte	0x11d
 1825 0110 07       		.uleb128 0x7
 1826 0111 21050000 		.4byte	.LASF23
 1827 0115 01       		.byte	0x1
 1828 0116 B502     		.2byte	0x2b5
 1829 0118 77000000 		.4byte	0x77
 1830 011c 00       		.byte	0
 1831 011d 06       		.uleb128 0x6
 1832 011e 28050000 		.4byte	.LASF24
 1833 0122 01       		.byte	0x1
 1834 0123 2705     		.2byte	0x527
 1835 0125 01       		.byte	0x1
 1836 0126 37010000 		.4byte	0x137
 1837 012a 07       		.uleb128 0x7
 1838 012b 3F040000 		.4byte	.LASF25
 1839 012f 01       		.byte	0x1
 1840 0130 2705     		.2byte	0x527
 1841 0132 77000000 		.4byte	0x77
 1842 0136 00       		.byte	0
 1843 0137 09       		.uleb128 0x9
 1844 0138 84020000 		.4byte	.LASF79
 1845 013c 01       		.byte	0x1
 1846 013d 26       		.byte	0x26
 1847 013e 01       		.byte	0x1
 1848 013f 0A       		.uleb128 0xa
 1849 0140 37010000 		.4byte	0x137
 1850 0144 00000000 		.4byte	.LFB0
 1851 0148 3C000000 		.4byte	.LFE0-.LFB0
 1852 014c 01       		.uleb128 0x1
 1853 014d 9C       		.byte	0x9c
 1854 014e A6010000 		.4byte	0x1a6
 1855 0152 0B       		.uleb128 0xb
 1856 0153 1D010000 		.4byte	0x11d
 1857 0157 0E000000 		.4byte	.LBB18
 1858 015b 06000000 		.4byte	.LBE18-.LBB18
 1859 015f 01       		.byte	0x1
 1860 0160 40       		.byte	0x40
 1861 0161 6F010000 		.4byte	0x16f
 1862 0165 0C       		.uleb128 0xc
 1863 0166 2A010000 		.4byte	0x12a
 1864 016a 00000000 		.4byte	.LLST0
 1865 016e 00       		.byte	0
ARM GAS  C:\Users\jrdia\AppData\Local\Temp\ccpDBDWb.s 			page 63


 1866 016f 0B       		.uleb128 0xb
 1867 0170 03010000 		.4byte	0x103
 1868 0174 14000000 		.4byte	.LBB20
 1869 0178 06000000 		.4byte	.LBE20-.LBB20
 1870 017c 01       		.byte	0x1
 1871 017d 43       		.byte	0x43
 1872 017e 8C010000 		.4byte	0x18c
 1873 0182 0C       		.uleb128 0xc
 1874 0183 10010000 		.4byte	0x110
 1875 0187 14000000 		.4byte	.LLST1
 1876 018b 00       		.byte	0
 1877 018c 0D       		.uleb128 0xd
 1878 018d E9000000 		.4byte	0xe9
 1879 0191 1A000000 		.4byte	.LBB22
 1880 0195 06000000 		.4byte	.LBE22-.LBB22
 1881 0199 01       		.byte	0x1
 1882 019a 54       		.byte	0x54
 1883 019b 0C       		.uleb128 0xc
 1884 019c F6000000 		.4byte	0xf6
 1885 01a0 2A000000 		.4byte	.LLST2
 1886 01a4 00       		.byte	0
 1887 01a5 00       		.byte	0
 1888 01a6 0E       		.uleb128 0xe
 1889 01a7 60020000 		.4byte	.LASF26
 1890 01ab 01       		.byte	0x1
 1891 01ac B1       		.byte	0xb1
 1892 01ad 00000000 		.4byte	.LFB1
 1893 01b1 30000000 		.4byte	.LFE1-.LFB1
 1894 01b5 01       		.uleb128 0x1
 1895 01b6 9C       		.byte	0x9c
 1896 01b7 28020000 		.4byte	0x228
 1897 01bb 0F       		.uleb128 0xf
 1898 01bc 4C050000 		.4byte	.LASF29
 1899 01c0 01       		.byte	0x1
 1900 01c1 B3       		.byte	0xb3
 1901 01c2 6B000000 		.4byte	0x6b
 1902 01c6 3E000000 		.4byte	.LLST3
 1903 01ca 0B       		.uleb128 0xb
 1904 01cb B7000000 		.4byte	0xb7
 1905 01cf 14000000 		.4byte	.LBB24
 1906 01d3 10000000 		.4byte	.LBE24-.LBB24
 1907 01d7 01       		.byte	0x1
 1908 01d8 C2       		.byte	0xc2
 1909 01d9 15020000 		.4byte	0x215
 1910 01dd 0C       		.uleb128 0xc
 1911 01de D0000000 		.4byte	0xd0
 1912 01e2 51000000 		.4byte	.LLST4
 1913 01e6 0C       		.uleb128 0xc
 1914 01e7 C4000000 		.4byte	0xc4
 1915 01eb 65000000 		.4byte	.LLST5
 1916 01ef 10       		.uleb128 0x10
 1917 01f0 14000000 		.4byte	.LBB25
 1918 01f4 10000000 		.4byte	.LBE25-.LBB25
 1919 01f8 11       		.uleb128 0x11
 1920 01f9 DC000000 		.4byte	0xdc
 1921 01fd 79000000 		.4byte	.LLST6
 1922 0201 12       		.uleb128 0x12
ARM GAS  C:\Users\jrdia\AppData\Local\Temp\ccpDBDWb.s 			page 64


 1923 0202 18000000 		.4byte	.LVL6
 1924 0206 C0090000 		.4byte	0x9c0
 1925 020a 12       		.uleb128 0x12
 1926 020b 24000000 		.4byte	.LVL7
 1927 020f CB090000 		.4byte	0x9cb
 1928 0213 00       		.byte	0
 1929 0214 00       		.byte	0
 1930 0215 12       		.uleb128 0x12
 1931 0216 06000000 		.4byte	.LVL4
 1932 021a C0090000 		.4byte	0x9c0
 1933 021e 12       		.uleb128 0x12
 1934 021f 14000000 		.4byte	.LVL5
 1935 0223 CB090000 		.4byte	0x9cb
 1936 0227 00       		.byte	0
 1937 0228 0E       		.uleb128 0xe
 1938 0229 C3020000 		.4byte	.LASF27
 1939 022d 01       		.byte	0x1
 1940 022e E6       		.byte	0xe6
 1941 022f 00000000 		.4byte	.LFB2
 1942 0233 4C000000 		.4byte	.LFE2-.LFB2
 1943 0237 01       		.uleb128 0x1
 1944 0238 9C       		.byte	0x9c
 1945 0239 AE020000 		.4byte	0x2ae
 1946 023d 0B       		.uleb128 0xb
 1947 023e 37010000 		.4byte	0x137
 1948 0242 0A000000 		.4byte	.LBB26
 1949 0246 1E000000 		.4byte	.LBE26-.LBB26
 1950 024a 01       		.byte	0x1
 1951 024b EA       		.byte	0xea
 1952 024c A4020000 		.4byte	0x2a4
 1953 0250 13       		.uleb128 0x13
 1954 0251 03010000 		.4byte	0x103
 1955 0255 16000000 		.4byte	.LBB28
 1956 0259 00000000 		.4byte	.Ldebug_ranges0+0
 1957 025d 01       		.byte	0x1
 1958 025e 43       		.byte	0x43
 1959 025f 6D020000 		.4byte	0x26d
 1960 0263 0C       		.uleb128 0xc
 1961 0264 10010000 		.4byte	0x110
 1962 0268 8C000000 		.4byte	.LLST7
 1963 026c 00       		.byte	0
 1964 026d 0B       		.uleb128 0xb
 1965 026e 1D010000 		.4byte	0x11d
 1966 0272 1A000000 		.4byte	.LBB31
 1967 0276 06000000 		.4byte	.LBE31-.LBB31
 1968 027a 01       		.byte	0x1
 1969 027b 40       		.byte	0x40
 1970 027c 8A020000 		.4byte	0x28a
 1971 0280 0C       		.uleb128 0xc
 1972 0281 2A010000 		.4byte	0x12a
 1973 0285 A2000000 		.4byte	.LLST8
 1974 0289 00       		.byte	0
 1975 028a 0D       		.uleb128 0xd
 1976 028b E9000000 		.4byte	0xe9
 1977 028f 24000000 		.4byte	.LBB34
 1978 0293 04000000 		.4byte	.LBE34-.LBB34
 1979 0297 01       		.byte	0x1
ARM GAS  C:\Users\jrdia\AppData\Local\Temp\ccpDBDWb.s 			page 65


 1980 0298 54       		.byte	0x54
 1981 0299 0C       		.uleb128 0xc
 1982 029a F6000000 		.4byte	0xf6
 1983 029e B6000000 		.4byte	.LLST9
 1984 02a2 00       		.byte	0
 1985 02a3 00       		.byte	0
 1986 02a4 12       		.uleb128 0x12
 1987 02a5 2E000000 		.4byte	.LVL12
 1988 02a9 A6010000 		.4byte	0x1a6
 1989 02ad 00       		.byte	0
 1990 02ae 14       		.uleb128 0x14
 1991 02af A6000000 		.4byte	.LASF28
 1992 02b3 01       		.byte	0x1
 1993 02b4 0001     		.2byte	0x100
 1994 02b6 00000000 		.4byte	.LFB3
 1995 02ba 1C000000 		.4byte	.LFE3-.LFB3
 1996 02be 01       		.uleb128 0x1
 1997 02bf 9C       		.byte	0x9c
 1998 02c0 E7020000 		.4byte	0x2e7
 1999 02c4 15       		.uleb128 0x15
 2000 02c5 4C050000 		.4byte	.LASF29
 2001 02c9 01       		.byte	0x1
 2002 02ca 0201     		.2byte	0x102
 2003 02cc 6B000000 		.4byte	0x6b
 2004 02d0 CA000000 		.4byte	.LLST10
 2005 02d4 12       		.uleb128 0x12
 2006 02d5 06000000 		.4byte	.LVL13
 2007 02d9 C0090000 		.4byte	0x9c0
 2008 02dd 12       		.uleb128 0x12
 2009 02de 14000000 		.4byte	.LVL14
 2010 02e2 CB090000 		.4byte	0x9cb
 2011 02e6 00       		.byte	0
 2012 02e7 14       		.uleb128 0x14
 2013 02e8 33000000 		.4byte	.LASF30
 2014 02ec 01       		.byte	0x1
 2015 02ed 2501     		.2byte	0x125
 2016 02ef 00000000 		.4byte	.LFB4
 2017 02f3 28000000 		.4byte	.LFE4-.LFB4
 2018 02f7 01       		.uleb128 0x1
 2019 02f8 9C       		.byte	0x9c
 2020 02f9 30030000 		.4byte	0x330
 2021 02fd 16       		.uleb128 0x16
 2022 02fe 7B040000 		.4byte	.LASF32
 2023 0302 01       		.byte	0x1
 2024 0303 2501     		.2byte	0x125
 2025 0305 77000000 		.4byte	0x77
 2026 0309 DD000000 		.4byte	.LLST11
 2027 030d 15       		.uleb128 0x15
 2028 030e 4C050000 		.4byte	.LASF29
 2029 0312 01       		.byte	0x1
 2030 0313 2701     		.2byte	0x127
 2031 0315 6B000000 		.4byte	0x6b
 2032 0319 09010000 		.4byte	.LLST12
 2033 031d 12       		.uleb128 0x12
 2034 031e 08000000 		.4byte	.LVL16
 2035 0322 C0090000 		.4byte	0x9c0
 2036 0326 12       		.uleb128 0x12
ARM GAS  C:\Users\jrdia\AppData\Local\Temp\ccpDBDWb.s 			page 66


 2037 0327 1C000000 		.4byte	.LVL18
 2038 032b CB090000 		.4byte	0x9cb
 2039 032f 00       		.byte	0
 2040 0330 14       		.uleb128 0x14
 2041 0331 43000000 		.4byte	.LASF31
 2042 0335 01       		.byte	0x1
 2043 0336 4601     		.2byte	0x146
 2044 0338 00000000 		.4byte	.LFB5
 2045 033c 28000000 		.4byte	.LFE5-.LFB5
 2046 0340 01       		.uleb128 0x1
 2047 0341 9C       		.byte	0x9c
 2048 0342 79030000 		.4byte	0x379
 2049 0346 16       		.uleb128 0x16
 2050 0347 E4000000 		.4byte	.LASF33
 2051 034b 01       		.byte	0x1
 2052 034c 4601     		.2byte	0x146
 2053 034e 77000000 		.4byte	0x77
 2054 0352 1C010000 		.4byte	.LLST13
 2055 0356 15       		.uleb128 0x15
 2056 0357 4C050000 		.4byte	.LASF29
 2057 035b 01       		.byte	0x1
 2058 035c 4801     		.2byte	0x148
 2059 035e 6B000000 		.4byte	0x6b
 2060 0362 48010000 		.4byte	.LLST14
 2061 0366 12       		.uleb128 0x12
 2062 0367 08000000 		.4byte	.LVL20
 2063 036b C0090000 		.4byte	0x9c0
 2064 036f 12       		.uleb128 0x12
 2065 0370 1C000000 		.4byte	.LVL22
 2066 0374 CB090000 		.4byte	0x9cb
 2067 0378 00       		.byte	0
 2068 0379 14       		.uleb128 0x14
 2069 037a 55000000 		.4byte	.LASF34
 2070 037e 01       		.byte	0x1
 2071 037f 6B01     		.2byte	0x16b
 2072 0381 00000000 		.4byte	.LFB6
 2073 0385 28000000 		.4byte	.LFE6-.LFB6
 2074 0389 01       		.uleb128 0x1
 2075 038a 9C       		.byte	0x9c
 2076 038b C2030000 		.4byte	0x3c2
 2077 038f 16       		.uleb128 0x16
 2078 0390 EC020000 		.4byte	.LASF35
 2079 0394 01       		.byte	0x1
 2080 0395 6B01     		.2byte	0x16b
 2081 0397 77000000 		.4byte	0x77
 2082 039b 5B010000 		.4byte	.LLST15
 2083 039f 15       		.uleb128 0x15
 2084 03a0 4C050000 		.4byte	.LASF29
 2085 03a4 01       		.byte	0x1
 2086 03a5 6D01     		.2byte	0x16d
 2087 03a7 6B000000 		.4byte	0x6b
 2088 03ab 87010000 		.4byte	.LLST16
 2089 03af 12       		.uleb128 0x12
 2090 03b0 08000000 		.4byte	.LVL24
 2091 03b4 C0090000 		.4byte	0x9c0
 2092 03b8 12       		.uleb128 0x12
 2093 03b9 1C000000 		.4byte	.LVL26
ARM GAS  C:\Users\jrdia\AppData\Local\Temp\ccpDBDWb.s 			page 67


 2094 03bd CB090000 		.4byte	0x9cb
 2095 03c1 00       		.byte	0
 2096 03c2 14       		.uleb128 0x14
 2097 03c3 33020000 		.4byte	.LASF36
 2098 03c7 01       		.byte	0x1
 2099 03c8 8B01     		.2byte	0x18b
 2100 03ca 00000000 		.4byte	.LFB7
 2101 03ce 30000000 		.4byte	.LFE7-.LFB7
 2102 03d2 01       		.uleb128 0x1
 2103 03d3 9C       		.byte	0x9c
 2104 03d4 0B040000 		.4byte	0x40b
 2105 03d8 16       		.uleb128 0x16
 2106 03d9 10020000 		.4byte	.LASF37
 2107 03dd 01       		.byte	0x1
 2108 03de 8B01     		.2byte	0x18b
 2109 03e0 77000000 		.4byte	0x77
 2110 03e4 9A010000 		.4byte	.LLST17
 2111 03e8 15       		.uleb128 0x15
 2112 03e9 4C050000 		.4byte	.LASF29
 2113 03ed 01       		.byte	0x1
 2114 03ee 8D01     		.2byte	0x18d
 2115 03f0 6B000000 		.4byte	0x6b
 2116 03f4 C6010000 		.4byte	.LLST18
 2117 03f8 12       		.uleb128 0x12
 2118 03f9 08000000 		.4byte	.LVL28
 2119 03fd C0090000 		.4byte	0x9c0
 2120 0401 12       		.uleb128 0x12
 2121 0402 24000000 		.4byte	.LVL30
 2122 0406 CB090000 		.4byte	0x9cb
 2123 040a 00       		.byte	0
 2124 040b 14       		.uleb128 0x14
 2125 040c 74050000 		.4byte	.LASF38
 2126 0410 01       		.byte	0x1
 2127 0411 C101     		.2byte	0x1c1
 2128 0413 00000000 		.4byte	.LFB8
 2129 0417 10000000 		.4byte	.LFE8-.LFB8
 2130 041b 01       		.uleb128 0x1
 2131 041c 9C       		.byte	0x9c
 2132 041d 32040000 		.4byte	0x432
 2133 0421 16       		.uleb128 0x16
 2134 0422 DD010000 		.4byte	.LASF39
 2135 0426 01       		.byte	0x1
 2136 0427 C101     		.2byte	0x1c1
 2137 0429 77000000 		.4byte	0x77
 2138 042d D9010000 		.4byte	.LLST19
 2139 0431 00       		.byte	0
 2140 0432 14       		.uleb128 0x14
 2141 0433 FE040000 		.4byte	.LASF40
 2142 0437 01       		.byte	0x1
 2143 0438 E501     		.2byte	0x1e5
 2144 043a 00000000 		.4byte	.LFB9
 2145 043e 28000000 		.4byte	.LFE9-.LFB9
 2146 0442 01       		.uleb128 0x1
 2147 0443 9C       		.byte	0x9c
 2148 0444 7B040000 		.4byte	0x47b
 2149 0448 16       		.uleb128 0x16
 2150 0449 9C050000 		.4byte	.LASF41
ARM GAS  C:\Users\jrdia\AppData\Local\Temp\ccpDBDWb.s 			page 68


 2151 044d 01       		.byte	0x1
 2152 044e E501     		.2byte	0x1e5
 2153 0450 77000000 		.4byte	0x77
 2154 0454 FA010000 		.4byte	.LLST20
 2155 0458 15       		.uleb128 0x15
 2156 0459 4C050000 		.4byte	.LASF29
 2157 045d 01       		.byte	0x1
 2158 045e E701     		.2byte	0x1e7
 2159 0460 6B000000 		.4byte	0x6b
 2160 0464 26020000 		.4byte	.LLST21
 2161 0468 12       		.uleb128 0x12
 2162 0469 08000000 		.4byte	.LVL34
 2163 046d C0090000 		.4byte	0x9c0
 2164 0471 12       		.uleb128 0x12
 2165 0472 20000000 		.4byte	.LVL36
 2166 0476 CB090000 		.4byte	0x9cb
 2167 047a 00       		.byte	0
 2168 047b 14       		.uleb128 0x14
 2169 047c 48010000 		.4byte	.LASF42
 2170 0480 01       		.byte	0x1
 2171 0481 0702     		.2byte	0x207
 2172 0483 00000000 		.4byte	.LFB10
 2173 0487 28000000 		.4byte	.LFE10-.LFB10
 2174 048b 01       		.uleb128 0x1
 2175 048c 9C       		.byte	0x9c
 2176 048d C4040000 		.4byte	0x4c4
 2177 0491 16       		.uleb128 0x16
 2178 0492 65030000 		.4byte	.LASF43
 2179 0496 01       		.byte	0x1
 2180 0497 0702     		.2byte	0x207
 2181 0499 77000000 		.4byte	0x77
 2182 049d 39020000 		.4byte	.LLST22
 2183 04a1 15       		.uleb128 0x15
 2184 04a2 4C050000 		.4byte	.LASF29
 2185 04a6 01       		.byte	0x1
 2186 04a7 0902     		.2byte	0x209
 2187 04a9 6B000000 		.4byte	0x6b
 2188 04ad 65020000 		.4byte	.LLST23
 2189 04b1 12       		.uleb128 0x12
 2190 04b2 08000000 		.4byte	.LVL38
 2191 04b6 C0090000 		.4byte	0x9c0
 2192 04ba 12       		.uleb128 0x12
 2193 04bb 20000000 		.4byte	.LVL40
 2194 04bf CB090000 		.4byte	0x9cb
 2195 04c3 00       		.byte	0
 2196 04c4 14       		.uleb128 0x14
 2197 04c5 91020000 		.4byte	.LASF44
 2198 04c9 01       		.byte	0x1
 2199 04ca 2802     		.2byte	0x228
 2200 04cc 00000000 		.4byte	.LFB11
 2201 04d0 2C000000 		.4byte	.LFE11-.LFB11
 2202 04d4 01       		.uleb128 0x1
 2203 04d5 9C       		.byte	0x9c
 2204 04d6 0D050000 		.4byte	0x50d
 2205 04da 16       		.uleb128 0x16
 2206 04db 75010000 		.4byte	.LASF45
 2207 04df 01       		.byte	0x1
ARM GAS  C:\Users\jrdia\AppData\Local\Temp\ccpDBDWb.s 			page 69


 2208 04e0 2802     		.2byte	0x228
 2209 04e2 77000000 		.4byte	0x77
 2210 04e6 78020000 		.4byte	.LLST24
 2211 04ea 15       		.uleb128 0x15
 2212 04eb 4C050000 		.4byte	.LASF29
 2213 04ef 01       		.byte	0x1
 2214 04f0 2A02     		.2byte	0x22a
 2215 04f2 6B000000 		.4byte	0x6b
 2216 04f6 A4020000 		.4byte	.LLST25
 2217 04fa 12       		.uleb128 0x12
 2218 04fb 08000000 		.4byte	.LVL42
 2219 04ff C0090000 		.4byte	0x9c0
 2220 0503 12       		.uleb128 0x12
 2221 0504 20000000 		.4byte	.LVL44
 2222 0508 CB090000 		.4byte	0x9cb
 2223 050c 00       		.byte	0
 2224 050d 14       		.uleb128 0x14
 2225 050e 87050000 		.4byte	.LASF46
 2226 0512 01       		.byte	0x1
 2227 0513 4902     		.2byte	0x249
 2228 0515 00000000 		.4byte	.LFB12
 2229 0519 28000000 		.4byte	.LFE12-.LFB12
 2230 051d 01       		.uleb128 0x1
 2231 051e 9C       		.byte	0x9c
 2232 051f 56050000 		.4byte	0x556
 2233 0523 16       		.uleb128 0x16
 2234 0524 43010000 		.4byte	.LASF17
 2235 0528 01       		.byte	0x1
 2236 0529 4902     		.2byte	0x249
 2237 052b 77000000 		.4byte	0x77
 2238 052f B7020000 		.4byte	.LLST26
 2239 0533 15       		.uleb128 0x15
 2240 0534 4C050000 		.4byte	.LASF29
 2241 0538 01       		.byte	0x1
 2242 0539 4B02     		.2byte	0x24b
 2243 053b 6B000000 		.4byte	0x6b
 2244 053f E3020000 		.4byte	.LLST27
 2245 0543 12       		.uleb128 0x12
 2246 0544 08000000 		.4byte	.LVL46
 2247 0548 C0090000 		.4byte	0x9c0
 2248 054c 12       		.uleb128 0x12
 2249 054d 1C000000 		.4byte	.LVL48
 2250 0551 CB090000 		.4byte	0x9cb
 2251 0555 00       		.byte	0
 2252 0556 0A       		.uleb128 0xa
 2253 0557 E9000000 		.4byte	0xe9
 2254 055b 00000000 		.4byte	.LFB13
 2255 055f 10000000 		.4byte	.LFE13-.LFB13
 2256 0563 01       		.uleb128 0x1
 2257 0564 9C       		.byte	0x9c
 2258 0565 73050000 		.4byte	0x573
 2259 0569 0C       		.uleb128 0xc
 2260 056a F6000000 		.4byte	0xf6
 2261 056e F6020000 		.4byte	.LLST28
 2262 0572 00       		.byte	0
 2263 0573 17       		.uleb128 0x17
 2264 0574 61010000 		.4byte	.LASF49
ARM GAS  C:\Users\jrdia\AppData\Local\Temp\ccpDBDWb.s 			page 70


 2265 0578 01       		.byte	0x1
 2266 0579 7B02     		.2byte	0x27b
 2267 057b 77000000 		.4byte	0x77
 2268 057f 00000000 		.4byte	.LFB14
 2269 0583 10000000 		.4byte	.LFE14-.LFB14
 2270 0587 01       		.uleb128 0x1
 2271 0588 9C       		.byte	0x9c
 2272 0589 14       		.uleb128 0x14
 2273 058a 5D050000 		.4byte	.LASF47
 2274 058e 01       		.byte	0x1
 2275 058f 9802     		.2byte	0x298
 2276 0591 00000000 		.4byte	.LFB15
 2277 0595 28000000 		.4byte	.LFE15-.LFB15
 2278 0599 01       		.uleb128 0x1
 2279 059a 9C       		.byte	0x9c
 2280 059b D2050000 		.4byte	0x5d2
 2281 059f 16       		.uleb128 0x16
 2282 05a0 15050000 		.4byte	.LASF48
 2283 05a4 01       		.byte	0x1
 2284 05a5 9802     		.2byte	0x298
 2285 05a7 77000000 		.4byte	0x77
 2286 05ab 17030000 		.4byte	.LLST29
 2287 05af 15       		.uleb128 0x15
 2288 05b0 4C050000 		.4byte	.LASF29
 2289 05b4 01       		.byte	0x1
 2290 05b5 9A02     		.2byte	0x29a
 2291 05b7 6B000000 		.4byte	0x6b
 2292 05bb 43030000 		.4byte	.LLST30
 2293 05bf 12       		.uleb128 0x12
 2294 05c0 08000000 		.4byte	.LVL52
 2295 05c4 C0090000 		.4byte	0x9c0
 2296 05c8 12       		.uleb128 0x12
 2297 05c9 1C000000 		.4byte	.LVL54
 2298 05cd CB090000 		.4byte	0x9cb
 2299 05d1 00       		.byte	0
 2300 05d2 0A       		.uleb128 0xa
 2301 05d3 03010000 		.4byte	0x103
 2302 05d7 00000000 		.4byte	.LFB16
 2303 05db 10000000 		.4byte	.LFE16-.LFB16
 2304 05df 01       		.uleb128 0x1
 2305 05e0 9C       		.byte	0x9c
 2306 05e1 EF050000 		.4byte	0x5ef
 2307 05e5 0C       		.uleb128 0xc
 2308 05e6 10010000 		.4byte	0x110
 2309 05ea 56030000 		.4byte	.LLST31
 2310 05ee 00       		.byte	0
 2311 05ef 17       		.uleb128 0x17
 2312 05f0 4D040000 		.4byte	.LASF50
 2313 05f4 01       		.byte	0x1
 2314 05f5 C902     		.2byte	0x2c9
 2315 05f7 77000000 		.4byte	0x77
 2316 05fb 00000000 		.4byte	.LFB17
 2317 05ff 10000000 		.4byte	.LFE17-.LFB17
 2318 0603 01       		.uleb128 0x1
 2319 0604 9C       		.byte	0x9c
 2320 0605 14       		.uleb128 0x14
 2321 0606 B3000000 		.4byte	.LASF51
ARM GAS  C:\Users\jrdia\AppData\Local\Temp\ccpDBDWb.s 			page 71


 2322 060a 01       		.byte	0x1
 2323 060b E302     		.2byte	0x2e3
 2324 060d 00000000 		.4byte	.LFB18
 2325 0611 24000000 		.4byte	.LFE18-.LFB18
 2326 0615 01       		.uleb128 0x1
 2327 0616 9C       		.byte	0x9c
 2328 0617 4E060000 		.4byte	0x64e
 2329 061b 16       		.uleb128 0x16
 2330 061c D6050000 		.4byte	.LASF52
 2331 0620 01       		.byte	0x1
 2332 0621 E302     		.2byte	0x2e3
 2333 0623 77000000 		.4byte	0x77
 2334 0627 77030000 		.4byte	.LLST32
 2335 062b 15       		.uleb128 0x15
 2336 062c 4C050000 		.4byte	.LASF29
 2337 0630 01       		.byte	0x1
 2338 0631 E502     		.2byte	0x2e5
 2339 0633 6B000000 		.4byte	0x6b
 2340 0637 A3030000 		.4byte	.LLST33
 2341 063b 12       		.uleb128 0x12
 2342 063c 08000000 		.4byte	.LVL58
 2343 0640 C0090000 		.4byte	0x9c0
 2344 0644 12       		.uleb128 0x12
 2345 0645 1E000000 		.4byte	.LVL59
 2346 0649 CB090000 		.4byte	0x9cb
 2347 064d 00       		.byte	0
 2348 064e 14       		.uleb128 0x14
 2349 064f 2B030000 		.4byte	.LASF53
 2350 0653 01       		.byte	0x1
 2351 0654 FE02     		.2byte	0x2fe
 2352 0656 00000000 		.4byte	.LFB19
 2353 065a 10000000 		.4byte	.LFE19-.LFB19
 2354 065e 01       		.uleb128 0x1
 2355 065f 9C       		.byte	0x9c
 2356 0660 75060000 		.4byte	0x675
 2357 0664 16       		.uleb128 0x16
 2358 0665 E1050000 		.4byte	.LASF54
 2359 0669 01       		.byte	0x1
 2360 066a FE02     		.2byte	0x2fe
 2361 066c 77000000 		.4byte	0x77
 2362 0670 B6030000 		.4byte	.LLST34
 2363 0674 00       		.byte	0
 2364 0675 17       		.uleb128 0x17
 2365 0676 29040000 		.4byte	.LASF55
 2366 067a 01       		.byte	0x1
 2367 067b 1203     		.2byte	0x312
 2368 067d 77000000 		.4byte	0x77
 2369 0681 00000000 		.4byte	.LFB20
 2370 0685 10000000 		.4byte	.LFE20-.LFB20
 2371 0689 01       		.uleb128 0x1
 2372 068a 9C       		.byte	0x9c
 2373 068b 14       		.uleb128 0x14
 2374 068c 60040000 		.4byte	.LASF56
 2375 0690 01       		.byte	0x1
 2376 0691 2C03     		.2byte	0x32c
 2377 0693 00000000 		.4byte	.LFB21
 2378 0697 28000000 		.4byte	.LFE21-.LFB21
ARM GAS  C:\Users\jrdia\AppData\Local\Temp\ccpDBDWb.s 			page 72


 2379 069b 01       		.uleb128 0x1
 2380 069c 9C       		.byte	0x9c
 2381 069d D4060000 		.4byte	0x6d4
 2382 06a1 16       		.uleb128 0x16
 2383 06a2 D6050000 		.4byte	.LASF52
 2384 06a6 01       		.byte	0x1
 2385 06a7 2C03     		.2byte	0x32c
 2386 06a9 77000000 		.4byte	0x77
 2387 06ad D7030000 		.4byte	.LLST35
 2388 06b1 15       		.uleb128 0x15
 2389 06b2 4C050000 		.4byte	.LASF29
 2390 06b6 01       		.byte	0x1
 2391 06b7 2E03     		.2byte	0x32e
 2392 06b9 6B000000 		.4byte	0x6b
 2393 06bd 03040000 		.4byte	.LLST36
 2394 06c1 12       		.uleb128 0x12
 2395 06c2 08000000 		.4byte	.LVL64
 2396 06c6 C0090000 		.4byte	0x9c0
 2397 06ca 12       		.uleb128 0x12
 2398 06cb 20000000 		.4byte	.LVL66
 2399 06cf CB090000 		.4byte	0x9cb
 2400 06d3 00       		.byte	0
 2401 06d4 14       		.uleb128 0x14
 2402 06d5 50030000 		.4byte	.LASF57
 2403 06d9 01       		.byte	0x1
 2404 06da 5103     		.2byte	0x351
 2405 06dc 00000000 		.4byte	.LFB22
 2406 06e0 10000000 		.4byte	.LFE22-.LFB22
 2407 06e4 01       		.uleb128 0x1
 2408 06e5 9C       		.byte	0x9c
 2409 06e6 FB060000 		.4byte	0x6fb
 2410 06ea 16       		.uleb128 0x16
 2411 06eb BB020000 		.4byte	.LASF58
 2412 06ef 01       		.byte	0x1
 2413 06f0 5103     		.2byte	0x351
 2414 06f2 77000000 		.4byte	0x77
 2415 06f6 16040000 		.4byte	.LLST37
 2416 06fa 00       		.byte	0
 2417 06fb 14       		.uleb128 0x14
 2418 06fc F4000000 		.4byte	.LASF59
 2419 0700 01       		.byte	0x1
 2420 0701 BA03     		.2byte	0x3ba
 2421 0703 00000000 		.4byte	.LFB24
 2422 0707 10000000 		.4byte	.LFE24-.LFB24
 2423 070b 01       		.uleb128 0x1
 2424 070c 9C       		.byte	0x9c
 2425 070d 22070000 		.4byte	0x722
 2426 0711 16       		.uleb128 0x16
 2427 0712 41050000 		.4byte	.LASF60
 2428 0716 01       		.byte	0x1
 2429 0717 BA03     		.2byte	0x3ba
 2430 0719 77000000 		.4byte	0x77
 2431 071d 37040000 		.4byte	.LLST38
 2432 0721 00       		.byte	0
 2433 0722 18       		.uleb128 0x18
 2434 0723 EA040000 		.4byte	.LASF61
 2435 0727 01       		.byte	0x1
ARM GAS  C:\Users\jrdia\AppData\Local\Temp\ccpDBDWb.s 			page 73


 2436 0728 1604     		.2byte	0x416
 2437 072a 77000000 		.4byte	0x77
 2438 072e 01       		.byte	0x1
 2439 072f 19       		.uleb128 0x19
 2440 0730 22070000 		.4byte	0x722
 2441 0734 00000000 		.4byte	.LFB26
 2442 0738 10000000 		.4byte	.LFE26-.LFB26
 2443 073c 01       		.uleb128 0x1
 2444 073d 9C       		.byte	0x9c
 2445 073e 18       		.uleb128 0x18
 2446 073f 1C000000 		.4byte	.LASF62
 2447 0743 01       		.byte	0x1
 2448 0744 2B04     		.2byte	0x42b
 2449 0746 77000000 		.4byte	0x77
 2450 074a 01       		.byte	0x1
 2451 074b 19       		.uleb128 0x19
 2452 074c 3E070000 		.4byte	0x73e
 2453 0750 00000000 		.4byte	.LFB27
 2454 0754 10000000 		.4byte	.LFE27-.LFB27
 2455 0758 01       		.uleb128 0x1
 2456 0759 9C       		.byte	0x9c
 2457 075a 14       		.uleb128 0x14
 2458 075b EB050000 		.4byte	.LASF63
 2459 075f 01       		.byte	0x1
 2460 0760 4604     		.2byte	0x446
 2461 0762 00000000 		.4byte	.LFB28
 2462 0766 24000000 		.4byte	.LFE28-.LFB28
 2463 076a 01       		.uleb128 0x1
 2464 076b 9C       		.byte	0x9c
 2465 076c A3070000 		.4byte	0x7a3
 2466 0770 16       		.uleb128 0x16
 2467 0771 37010000 		.4byte	.LASF64
 2468 0775 01       		.byte	0x1
 2469 0776 4604     		.2byte	0x446
 2470 0778 77000000 		.4byte	0x77
 2471 077c 58040000 		.4byte	.LLST39
 2472 0780 15       		.uleb128 0x15
 2473 0781 4C050000 		.4byte	.LASF29
 2474 0785 01       		.byte	0x1
 2475 0786 4804     		.2byte	0x448
 2476 0788 6B000000 		.4byte	0x6b
 2477 078c 84040000 		.4byte	.LLST40
 2478 0790 12       		.uleb128 0x12
 2479 0791 08000000 		.4byte	.LVL72
 2480 0795 C0090000 		.4byte	0x9c0
 2481 0799 12       		.uleb128 0x12
 2482 079a 1C000000 		.4byte	.LVL74
 2483 079e CB090000 		.4byte	0x9cb
 2484 07a2 00       		.byte	0
 2485 07a3 14       		.uleb128 0x14
 2486 07a4 AB050000 		.4byte	.LASF65
 2487 07a8 01       		.byte	0x1
 2488 07a9 6704     		.2byte	0x467
 2489 07ab 00000000 		.4byte	.LFB29
 2490 07af 24000000 		.4byte	.LFE29-.LFB29
 2491 07b3 01       		.uleb128 0x1
 2492 07b4 9C       		.byte	0x9c
ARM GAS  C:\Users\jrdia\AppData\Local\Temp\ccpDBDWb.s 			page 74


 2493 07b5 EC070000 		.4byte	0x7ec
 2494 07b9 16       		.uleb128 0x16
 2495 07ba 37010000 		.4byte	.LASF64
 2496 07be 01       		.byte	0x1
 2497 07bf 6704     		.2byte	0x467
 2498 07c1 77000000 		.4byte	0x77
 2499 07c5 97040000 		.4byte	.LLST41
 2500 07c9 15       		.uleb128 0x15
 2501 07ca 4C050000 		.4byte	.LASF29
 2502 07ce 01       		.byte	0x1
 2503 07cf 6904     		.2byte	0x469
 2504 07d1 6B000000 		.4byte	0x6b
 2505 07d5 C3040000 		.4byte	.LLST42
 2506 07d9 12       		.uleb128 0x12
 2507 07da 08000000 		.4byte	.LVL76
 2508 07de C0090000 		.4byte	0x9c0
 2509 07e2 12       		.uleb128 0x12
 2510 07e3 1E000000 		.4byte	.LVL77
 2511 07e7 CB090000 		.4byte	0x9cb
 2512 07eb 00       		.byte	0
 2513 07ec 14       		.uleb128 0x14
 2514 07ed C1050000 		.4byte	.LASF66
 2515 07f1 01       		.byte	0x1
 2516 07f2 8804     		.2byte	0x488
 2517 07f4 00000000 		.4byte	.LFB30
 2518 07f8 28000000 		.4byte	.LFE30-.LFB30
 2519 07fc 01       		.uleb128 0x1
 2520 07fd 9C       		.byte	0x9c
 2521 07fe 35080000 		.4byte	0x835
 2522 0802 16       		.uleb128 0x16
 2523 0803 37010000 		.4byte	.LASF64
 2524 0807 01       		.byte	0x1
 2525 0808 8804     		.2byte	0x488
 2526 080a 77000000 		.4byte	0x77
 2527 080e D6040000 		.4byte	.LLST43
 2528 0812 15       		.uleb128 0x15
 2529 0813 4C050000 		.4byte	.LASF29
 2530 0817 01       		.byte	0x1
 2531 0818 8A04     		.2byte	0x48a
 2532 081a 6B000000 		.4byte	0x6b
 2533 081e 02050000 		.4byte	.LLST44
 2534 0822 12       		.uleb128 0x12
 2535 0823 08000000 		.4byte	.LVL80
 2536 0827 C0090000 		.4byte	0x9c0
 2537 082b 12       		.uleb128 0x12
 2538 082c 1E000000 		.4byte	.LVL81
 2539 0830 CB090000 		.4byte	0x9cb
 2540 0834 00       		.byte	0
 2541 0835 14       		.uleb128 0x14
 2542 0836 4C020000 		.4byte	.LASF67
 2543 083a 01       		.byte	0x1
 2544 083b A804     		.2byte	0x4a8
 2545 083d 00000000 		.4byte	.LFB31
 2546 0841 24000000 		.4byte	.LFE31-.LFB31
 2547 0845 01       		.uleb128 0x1
 2548 0846 9C       		.byte	0x9c
 2549 0847 7E080000 		.4byte	0x87e
ARM GAS  C:\Users\jrdia\AppData\Local\Temp\ccpDBDWb.s 			page 75


 2550 084b 16       		.uleb128 0x16
 2551 084c 37010000 		.4byte	.LASF64
 2552 0850 01       		.byte	0x1
 2553 0851 A804     		.2byte	0x4a8
 2554 0853 77000000 		.4byte	0x77
 2555 0857 15050000 		.4byte	.LLST45
 2556 085b 15       		.uleb128 0x15
 2557 085c 4C050000 		.4byte	.LASF29
 2558 0860 01       		.byte	0x1
 2559 0861 AA04     		.2byte	0x4aa
 2560 0863 6B000000 		.4byte	0x6b
 2561 0867 41050000 		.4byte	.LLST46
 2562 086b 12       		.uleb128 0x12
 2563 086c 08000000 		.4byte	.LVL84
 2564 0870 C0090000 		.4byte	0x9c0
 2565 0874 12       		.uleb128 0x12
 2566 0875 1E000000 		.4byte	.LVL85
 2567 0879 CB090000 		.4byte	0x9cb
 2568 087d 00       		.byte	0
 2569 087e 14       		.uleb128 0x14
 2570 087f D1020000 		.4byte	.LASF68
 2571 0883 01       		.byte	0x1
 2572 0884 C904     		.2byte	0x4c9
 2573 0886 00000000 		.4byte	.LFB32
 2574 088a 24000000 		.4byte	.LFE32-.LFB32
 2575 088e 01       		.uleb128 0x1
 2576 088f 9C       		.byte	0x9c
 2577 0890 C7080000 		.4byte	0x8c7
 2578 0894 16       		.uleb128 0x16
 2579 0895 37010000 		.4byte	.LASF64
 2580 0899 01       		.byte	0x1
 2581 089a C904     		.2byte	0x4c9
 2582 089c 77000000 		.4byte	0x77
 2583 08a0 54050000 		.4byte	.LLST47
 2584 08a4 15       		.uleb128 0x15
 2585 08a5 4C050000 		.4byte	.LASF29
 2586 08a9 01       		.byte	0x1
 2587 08aa CB04     		.2byte	0x4cb
 2588 08ac 6B000000 		.4byte	0x6b
 2589 08b0 80050000 		.4byte	.LLST48
 2590 08b4 12       		.uleb128 0x12
 2591 08b5 08000000 		.4byte	.LVL88
 2592 08b9 C0090000 		.4byte	0x9c0
 2593 08bd 12       		.uleb128 0x12
 2594 08be 1E000000 		.4byte	.LVL89
 2595 08c2 CB090000 		.4byte	0x9cb
 2596 08c6 00       		.byte	0
 2597 08c7 0A       		.uleb128 0xa
 2598 08c8 B7000000 		.4byte	0xb7
 2599 08cc 00000000 		.4byte	.LFB33
 2600 08d0 1C000000 		.4byte	.LFE33-.LFB33
 2601 08d4 01       		.uleb128 0x1
 2602 08d5 9C       		.byte	0x9c
 2603 08d6 08090000 		.4byte	0x908
 2604 08da 0C       		.uleb128 0xc
 2605 08db C4000000 		.4byte	0xc4
 2606 08df 93050000 		.4byte	.LLST49
ARM GAS  C:\Users\jrdia\AppData\Local\Temp\ccpDBDWb.s 			page 76


 2607 08e3 0C       		.uleb128 0xc
 2608 08e4 D0000000 		.4byte	0xd0
 2609 08e8 B4050000 		.4byte	.LLST50
 2610 08ec 11       		.uleb128 0x11
 2611 08ed DC000000 		.4byte	0xdc
 2612 08f1 E0050000 		.4byte	.LLST51
 2613 08f5 12       		.uleb128 0x12
 2614 08f6 0C000000 		.4byte	.LVL92
 2615 08fa C0090000 		.4byte	0x9c0
 2616 08fe 12       		.uleb128 0x12
 2617 08ff 14000000 		.4byte	.LVL93
 2618 0903 CB090000 		.4byte	0x9cb
 2619 0907 00       		.byte	0
 2620 0908 17       		.uleb128 0x17
 2621 0909 A8020000 		.4byte	.LASF69
 2622 090d 01       		.byte	0x1
 2623 090e 0E05     		.2byte	0x50e
 2624 0910 77000000 		.4byte	0x77
 2625 0914 00000000 		.4byte	.LFB34
 2626 0918 14000000 		.4byte	.LFE34-.LFB34
 2627 091c 01       		.uleb128 0x1
 2628 091d 9C       		.byte	0x9c
 2629 091e 0A       		.uleb128 0xa
 2630 091f 1D010000 		.4byte	0x11d
 2631 0923 00000000 		.4byte	.LFB35
 2632 0927 0C000000 		.4byte	.LFE35-.LFB35
 2633 092b 01       		.uleb128 0x1
 2634 092c 9C       		.byte	0x9c
 2635 092d 39090000 		.4byte	0x939
 2636 0931 1A       		.uleb128 0x1a
 2637 0932 2A010000 		.4byte	0x12a
 2638 0936 01       		.uleb128 0x1
 2639 0937 50       		.byte	0x50
 2640 0938 00       		.byte	0
 2641 0939 17       		.uleb128 0x17
 2642 093a 7E010000 		.4byte	.LASF70
 2643 093e 01       		.byte	0x1
 2644 093f 3E05     		.2byte	0x53e
 2645 0941 77000000 		.4byte	0x77
 2646 0945 00000000 		.4byte	.LFB36
 2647 0949 0C000000 		.4byte	.LFE36-.LFB36
 2648 094d 01       		.uleb128 0x1
 2649 094e 9C       		.byte	0x9c
 2650 094f 17       		.uleb128 0x17
 2651 0950 76030000 		.4byte	.LASF71
 2652 0954 01       		.byte	0x1
 2653 0955 5505     		.2byte	0x555
 2654 0957 77000000 		.4byte	0x77
 2655 095b 00000000 		.4byte	.LFB37
 2656 095f 0C000000 		.4byte	.LFE37-.LFB37
 2657 0963 01       		.uleb128 0x1
 2658 0964 9C       		.byte	0x9c
 2659 0965 14       		.uleb128 0x14
 2660 0966 12010000 		.4byte	.LASF72
 2661 096a 01       		.byte	0x1
 2662 096b 6C05     		.2byte	0x56c
 2663 096d 00000000 		.4byte	.LFB38
ARM GAS  C:\Users\jrdia\AppData\Local\Temp\ccpDBDWb.s 			page 77


 2664 0971 0C000000 		.4byte	.LFE38-.LFB38
 2665 0975 01       		.uleb128 0x1
 2666 0976 9C       		.byte	0x9c
 2667 0977 8A090000 		.4byte	0x98a
 2668 097b 1B       		.uleb128 0x1b
 2669 097c 3F040000 		.4byte	.LASF25
 2670 0980 01       		.byte	0x1
 2671 0981 6C05     		.2byte	0x56c
 2672 0983 77000000 		.4byte	0x77
 2673 0987 01       		.uleb128 0x1
 2674 0988 50       		.byte	0x50
 2675 0989 00       		.byte	0
 2676 098a 14       		.uleb128 0x14
 2677 098b 1E020000 		.4byte	.LASF73
 2678 098f 01       		.byte	0x1
 2679 0990 8305     		.2byte	0x583
 2680 0992 00000000 		.4byte	.LFB39
 2681 0996 0C000000 		.4byte	.LFE39-.LFB39
 2682 099a 01       		.uleb128 0x1
 2683 099b 9C       		.byte	0x9c
 2684 099c AF090000 		.4byte	0x9af
 2685 09a0 1B       		.uleb128 0x1b
 2686 09a1 3F040000 		.4byte	.LASF25
 2687 09a5 01       		.byte	0x1
 2688 09a6 8305     		.2byte	0x583
 2689 09a8 77000000 		.4byte	0x77
 2690 09ac 01       		.uleb128 0x1
 2691 09ad 50       		.byte	0x50
 2692 09ae 00       		.byte	0
 2693 09af 1C       		.uleb128 0x1c
 2694 09b0 96000000 		.4byte	.LASF80
 2695 09b4 01       		.byte	0x1
 2696 09b5 15       		.byte	0x15
 2697 09b6 6B000000 		.4byte	0x6b
 2698 09ba 05       		.uleb128 0x5
 2699 09bb 03       		.byte	0x3
 2700 09bc 00000000 		.4byte	TCPWM_1_initVar
 2701 09c0 1D       		.uleb128 0x1d
 2702 09c1 E6010000 		.4byte	.LASF74
 2703 09c5 E6010000 		.4byte	.LASF74
 2704 09c9 03       		.byte	0x3
 2705 09ca E5       		.byte	0xe5
 2706 09cb 1D       		.uleb128 0x1d
 2707 09cc 06000000 		.4byte	.LASF75
 2708 09d0 06000000 		.4byte	.LASF75
 2709 09d4 03       		.byte	0x3
 2710 09d5 E6       		.byte	0xe6
 2711 09d6 00       		.byte	0
 2712              		.section	.debug_abbrev,"",%progbits
 2713              	.Ldebug_abbrev0:
 2714 0000 01       		.uleb128 0x1
 2715 0001 11       		.uleb128 0x11
 2716 0002 01       		.byte	0x1
 2717 0003 25       		.uleb128 0x25
 2718 0004 0E       		.uleb128 0xe
 2719 0005 13       		.uleb128 0x13
 2720 0006 0B       		.uleb128 0xb
ARM GAS  C:\Users\jrdia\AppData\Local\Temp\ccpDBDWb.s 			page 78


 2721 0007 03       		.uleb128 0x3
 2722 0008 0E       		.uleb128 0xe
 2723 0009 1B       		.uleb128 0x1b
 2724 000a 0E       		.uleb128 0xe
 2725 000b 55       		.uleb128 0x55
 2726 000c 17       		.uleb128 0x17
 2727 000d 11       		.uleb128 0x11
 2728 000e 01       		.uleb128 0x1
 2729 000f 10       		.uleb128 0x10
 2730 0010 17       		.uleb128 0x17
 2731 0011 00       		.byte	0
 2732 0012 00       		.byte	0
 2733 0013 02       		.uleb128 0x2
 2734 0014 24       		.uleb128 0x24
 2735 0015 00       		.byte	0
 2736 0016 0B       		.uleb128 0xb
 2737 0017 0B       		.uleb128 0xb
 2738 0018 3E       		.uleb128 0x3e
 2739 0019 0B       		.uleb128 0xb
 2740 001a 03       		.uleb128 0x3
 2741 001b 0E       		.uleb128 0xe
 2742 001c 00       		.byte	0
 2743 001d 00       		.byte	0
 2744 001e 03       		.uleb128 0x3
 2745 001f 24       		.uleb128 0x24
 2746 0020 00       		.byte	0
 2747 0021 0B       		.uleb128 0xb
 2748 0022 0B       		.uleb128 0xb
 2749 0023 3E       		.uleb128 0x3e
 2750 0024 0B       		.uleb128 0xb
 2751 0025 03       		.uleb128 0x3
 2752 0026 08       		.uleb128 0x8
 2753 0027 00       		.byte	0
 2754 0028 00       		.byte	0
 2755 0029 04       		.uleb128 0x4
 2756 002a 16       		.uleb128 0x16
 2757 002b 00       		.byte	0
 2758 002c 03       		.uleb128 0x3
 2759 002d 0E       		.uleb128 0xe
 2760 002e 3A       		.uleb128 0x3a
 2761 002f 0B       		.uleb128 0xb
 2762 0030 3B       		.uleb128 0x3b
 2763 0031 05       		.uleb128 0x5
 2764 0032 49       		.uleb128 0x49
 2765 0033 13       		.uleb128 0x13
 2766 0034 00       		.byte	0
 2767 0035 00       		.byte	0
 2768 0036 05       		.uleb128 0x5
 2769 0037 35       		.uleb128 0x35
 2770 0038 00       		.byte	0
 2771 0039 49       		.uleb128 0x49
 2772 003a 13       		.uleb128 0x13
 2773 003b 00       		.byte	0
 2774 003c 00       		.byte	0
 2775 003d 06       		.uleb128 0x6
 2776 003e 2E       		.uleb128 0x2e
 2777 003f 01       		.byte	0x1
ARM GAS  C:\Users\jrdia\AppData\Local\Temp\ccpDBDWb.s 			page 79


 2778 0040 3F       		.uleb128 0x3f
 2779 0041 19       		.uleb128 0x19
 2780 0042 03       		.uleb128 0x3
 2781 0043 0E       		.uleb128 0xe
 2782 0044 3A       		.uleb128 0x3a
 2783 0045 0B       		.uleb128 0xb
 2784 0046 3B       		.uleb128 0x3b
 2785 0047 05       		.uleb128 0x5
 2786 0048 27       		.uleb128 0x27
 2787 0049 19       		.uleb128 0x19
 2788 004a 20       		.uleb128 0x20
 2789 004b 0B       		.uleb128 0xb
 2790 004c 01       		.uleb128 0x1
 2791 004d 13       		.uleb128 0x13
 2792 004e 00       		.byte	0
 2793 004f 00       		.byte	0
 2794 0050 07       		.uleb128 0x7
 2795 0051 05       		.uleb128 0x5
 2796 0052 00       		.byte	0
 2797 0053 03       		.uleb128 0x3
 2798 0054 0E       		.uleb128 0xe
 2799 0055 3A       		.uleb128 0x3a
 2800 0056 0B       		.uleb128 0xb
 2801 0057 3B       		.uleb128 0x3b
 2802 0058 05       		.uleb128 0x5
 2803 0059 49       		.uleb128 0x49
 2804 005a 13       		.uleb128 0x13
 2805 005b 00       		.byte	0
 2806 005c 00       		.byte	0
 2807 005d 08       		.uleb128 0x8
 2808 005e 34       		.uleb128 0x34
 2809 005f 00       		.byte	0
 2810 0060 03       		.uleb128 0x3
 2811 0061 0E       		.uleb128 0xe
 2812 0062 3A       		.uleb128 0x3a
 2813 0063 0B       		.uleb128 0xb
 2814 0064 3B       		.uleb128 0x3b
 2815 0065 05       		.uleb128 0x5
 2816 0066 49       		.uleb128 0x49
 2817 0067 13       		.uleb128 0x13
 2818 0068 00       		.byte	0
 2819 0069 00       		.byte	0
 2820 006a 09       		.uleb128 0x9
 2821 006b 2E       		.uleb128 0x2e
 2822 006c 00       		.byte	0
 2823 006d 3F       		.uleb128 0x3f
 2824 006e 19       		.uleb128 0x19
 2825 006f 03       		.uleb128 0x3
 2826 0070 0E       		.uleb128 0xe
 2827 0071 3A       		.uleb128 0x3a
 2828 0072 0B       		.uleb128 0xb
 2829 0073 3B       		.uleb128 0x3b
 2830 0074 0B       		.uleb128 0xb
 2831 0075 27       		.uleb128 0x27
 2832 0076 19       		.uleb128 0x19
 2833 0077 20       		.uleb128 0x20
 2834 0078 0B       		.uleb128 0xb
ARM GAS  C:\Users\jrdia\AppData\Local\Temp\ccpDBDWb.s 			page 80


 2835 0079 00       		.byte	0
 2836 007a 00       		.byte	0
 2837 007b 0A       		.uleb128 0xa
 2838 007c 2E       		.uleb128 0x2e
 2839 007d 01       		.byte	0x1
 2840 007e 31       		.uleb128 0x31
 2841 007f 13       		.uleb128 0x13
 2842 0080 11       		.uleb128 0x11
 2843 0081 01       		.uleb128 0x1
 2844 0082 12       		.uleb128 0x12
 2845 0083 06       		.uleb128 0x6
 2846 0084 40       		.uleb128 0x40
 2847 0085 18       		.uleb128 0x18
 2848 0086 9742     		.uleb128 0x2117
 2849 0088 19       		.uleb128 0x19
 2850 0089 01       		.uleb128 0x1
 2851 008a 13       		.uleb128 0x13
 2852 008b 00       		.byte	0
 2853 008c 00       		.byte	0
 2854 008d 0B       		.uleb128 0xb
 2855 008e 1D       		.uleb128 0x1d
 2856 008f 01       		.byte	0x1
 2857 0090 31       		.uleb128 0x31
 2858 0091 13       		.uleb128 0x13
 2859 0092 11       		.uleb128 0x11
 2860 0093 01       		.uleb128 0x1
 2861 0094 12       		.uleb128 0x12
 2862 0095 06       		.uleb128 0x6
 2863 0096 58       		.uleb128 0x58
 2864 0097 0B       		.uleb128 0xb
 2865 0098 59       		.uleb128 0x59
 2866 0099 0B       		.uleb128 0xb
 2867 009a 01       		.uleb128 0x1
 2868 009b 13       		.uleb128 0x13
 2869 009c 00       		.byte	0
 2870 009d 00       		.byte	0
 2871 009e 0C       		.uleb128 0xc
 2872 009f 05       		.uleb128 0x5
 2873 00a0 00       		.byte	0
 2874 00a1 31       		.uleb128 0x31
 2875 00a2 13       		.uleb128 0x13
 2876 00a3 02       		.uleb128 0x2
 2877 00a4 17       		.uleb128 0x17
 2878 00a5 00       		.byte	0
 2879 00a6 00       		.byte	0
 2880 00a7 0D       		.uleb128 0xd
 2881 00a8 1D       		.uleb128 0x1d
 2882 00a9 01       		.byte	0x1
 2883 00aa 31       		.uleb128 0x31
 2884 00ab 13       		.uleb128 0x13
 2885 00ac 11       		.uleb128 0x11
 2886 00ad 01       		.uleb128 0x1
 2887 00ae 12       		.uleb128 0x12
 2888 00af 06       		.uleb128 0x6
 2889 00b0 58       		.uleb128 0x58
 2890 00b1 0B       		.uleb128 0xb
 2891 00b2 59       		.uleb128 0x59
ARM GAS  C:\Users\jrdia\AppData\Local\Temp\ccpDBDWb.s 			page 81


 2892 00b3 0B       		.uleb128 0xb
 2893 00b4 00       		.byte	0
 2894 00b5 00       		.byte	0
 2895 00b6 0E       		.uleb128 0xe
 2896 00b7 2E       		.uleb128 0x2e
 2897 00b8 01       		.byte	0x1
 2898 00b9 3F       		.uleb128 0x3f
 2899 00ba 19       		.uleb128 0x19
 2900 00bb 03       		.uleb128 0x3
 2901 00bc 0E       		.uleb128 0xe
 2902 00bd 3A       		.uleb128 0x3a
 2903 00be 0B       		.uleb128 0xb
 2904 00bf 3B       		.uleb128 0x3b
 2905 00c0 0B       		.uleb128 0xb
 2906 00c1 27       		.uleb128 0x27
 2907 00c2 19       		.uleb128 0x19
 2908 00c3 11       		.uleb128 0x11
 2909 00c4 01       		.uleb128 0x1
 2910 00c5 12       		.uleb128 0x12
 2911 00c6 06       		.uleb128 0x6
 2912 00c7 40       		.uleb128 0x40
 2913 00c8 18       		.uleb128 0x18
 2914 00c9 9742     		.uleb128 0x2117
 2915 00cb 19       		.uleb128 0x19
 2916 00cc 01       		.uleb128 0x1
 2917 00cd 13       		.uleb128 0x13
 2918 00ce 00       		.byte	0
 2919 00cf 00       		.byte	0
 2920 00d0 0F       		.uleb128 0xf
 2921 00d1 34       		.uleb128 0x34
 2922 00d2 00       		.byte	0
 2923 00d3 03       		.uleb128 0x3
 2924 00d4 0E       		.uleb128 0xe
 2925 00d5 3A       		.uleb128 0x3a
 2926 00d6 0B       		.uleb128 0xb
 2927 00d7 3B       		.uleb128 0x3b
 2928 00d8 0B       		.uleb128 0xb
 2929 00d9 49       		.uleb128 0x49
 2930 00da 13       		.uleb128 0x13
 2931 00db 02       		.uleb128 0x2
 2932 00dc 17       		.uleb128 0x17
 2933 00dd 00       		.byte	0
 2934 00de 00       		.byte	0
 2935 00df 10       		.uleb128 0x10
 2936 00e0 0B       		.uleb128 0xb
 2937 00e1 01       		.byte	0x1
 2938 00e2 11       		.uleb128 0x11
 2939 00e3 01       		.uleb128 0x1
 2940 00e4 12       		.uleb128 0x12
 2941 00e5 06       		.uleb128 0x6
 2942 00e6 00       		.byte	0
 2943 00e7 00       		.byte	0
 2944 00e8 11       		.uleb128 0x11
 2945 00e9 34       		.uleb128 0x34
 2946 00ea 00       		.byte	0
 2947 00eb 31       		.uleb128 0x31
 2948 00ec 13       		.uleb128 0x13
ARM GAS  C:\Users\jrdia\AppData\Local\Temp\ccpDBDWb.s 			page 82


 2949 00ed 02       		.uleb128 0x2
 2950 00ee 17       		.uleb128 0x17
 2951 00ef 00       		.byte	0
 2952 00f0 00       		.byte	0
 2953 00f1 12       		.uleb128 0x12
 2954 00f2 898201   		.uleb128 0x4109
 2955 00f5 00       		.byte	0
 2956 00f6 11       		.uleb128 0x11
 2957 00f7 01       		.uleb128 0x1
 2958 00f8 31       		.uleb128 0x31
 2959 00f9 13       		.uleb128 0x13
 2960 00fa 00       		.byte	0
 2961 00fb 00       		.byte	0
 2962 00fc 13       		.uleb128 0x13
 2963 00fd 1D       		.uleb128 0x1d
 2964 00fe 01       		.byte	0x1
 2965 00ff 31       		.uleb128 0x31
 2966 0100 13       		.uleb128 0x13
 2967 0101 52       		.uleb128 0x52
 2968 0102 01       		.uleb128 0x1
 2969 0103 55       		.uleb128 0x55
 2970 0104 17       		.uleb128 0x17
 2971 0105 58       		.uleb128 0x58
 2972 0106 0B       		.uleb128 0xb
 2973 0107 59       		.uleb128 0x59
 2974 0108 0B       		.uleb128 0xb
 2975 0109 01       		.uleb128 0x1
 2976 010a 13       		.uleb128 0x13
 2977 010b 00       		.byte	0
 2978 010c 00       		.byte	0
 2979 010d 14       		.uleb128 0x14
 2980 010e 2E       		.uleb128 0x2e
 2981 010f 01       		.byte	0x1
 2982 0110 3F       		.uleb128 0x3f
 2983 0111 19       		.uleb128 0x19
 2984 0112 03       		.uleb128 0x3
 2985 0113 0E       		.uleb128 0xe
 2986 0114 3A       		.uleb128 0x3a
 2987 0115 0B       		.uleb128 0xb
 2988 0116 3B       		.uleb128 0x3b
 2989 0117 05       		.uleb128 0x5
 2990 0118 27       		.uleb128 0x27
 2991 0119 19       		.uleb128 0x19
 2992 011a 11       		.uleb128 0x11
 2993 011b 01       		.uleb128 0x1
 2994 011c 12       		.uleb128 0x12
 2995 011d 06       		.uleb128 0x6
 2996 011e 40       		.uleb128 0x40
 2997 011f 18       		.uleb128 0x18
 2998 0120 9742     		.uleb128 0x2117
 2999 0122 19       		.uleb128 0x19
 3000 0123 01       		.uleb128 0x1
 3001 0124 13       		.uleb128 0x13
 3002 0125 00       		.byte	0
 3003 0126 00       		.byte	0
 3004 0127 15       		.uleb128 0x15
 3005 0128 34       		.uleb128 0x34
ARM GAS  C:\Users\jrdia\AppData\Local\Temp\ccpDBDWb.s 			page 83


 3006 0129 00       		.byte	0
 3007 012a 03       		.uleb128 0x3
 3008 012b 0E       		.uleb128 0xe
 3009 012c 3A       		.uleb128 0x3a
 3010 012d 0B       		.uleb128 0xb
 3011 012e 3B       		.uleb128 0x3b
 3012 012f 05       		.uleb128 0x5
 3013 0130 49       		.uleb128 0x49
 3014 0131 13       		.uleb128 0x13
 3015 0132 02       		.uleb128 0x2
 3016 0133 17       		.uleb128 0x17
 3017 0134 00       		.byte	0
 3018 0135 00       		.byte	0
 3019 0136 16       		.uleb128 0x16
 3020 0137 05       		.uleb128 0x5
 3021 0138 00       		.byte	0
 3022 0139 03       		.uleb128 0x3
 3023 013a 0E       		.uleb128 0xe
 3024 013b 3A       		.uleb128 0x3a
 3025 013c 0B       		.uleb128 0xb
 3026 013d 3B       		.uleb128 0x3b
 3027 013e 05       		.uleb128 0x5
 3028 013f 49       		.uleb128 0x49
 3029 0140 13       		.uleb128 0x13
 3030 0141 02       		.uleb128 0x2
 3031 0142 17       		.uleb128 0x17
 3032 0143 00       		.byte	0
 3033 0144 00       		.byte	0
 3034 0145 17       		.uleb128 0x17
 3035 0146 2E       		.uleb128 0x2e
 3036 0147 00       		.byte	0
 3037 0148 3F       		.uleb128 0x3f
 3038 0149 19       		.uleb128 0x19
 3039 014a 03       		.uleb128 0x3
 3040 014b 0E       		.uleb128 0xe
 3041 014c 3A       		.uleb128 0x3a
 3042 014d 0B       		.uleb128 0xb
 3043 014e 3B       		.uleb128 0x3b
 3044 014f 05       		.uleb128 0x5
 3045 0150 27       		.uleb128 0x27
 3046 0151 19       		.uleb128 0x19
 3047 0152 49       		.uleb128 0x49
 3048 0153 13       		.uleb128 0x13
 3049 0154 11       		.uleb128 0x11
 3050 0155 01       		.uleb128 0x1
 3051 0156 12       		.uleb128 0x12
 3052 0157 06       		.uleb128 0x6
 3053 0158 40       		.uleb128 0x40
 3054 0159 18       		.uleb128 0x18
 3055 015a 9742     		.uleb128 0x2117
 3056 015c 19       		.uleb128 0x19
 3057 015d 00       		.byte	0
 3058 015e 00       		.byte	0
 3059 015f 18       		.uleb128 0x18
 3060 0160 2E       		.uleb128 0x2e
 3061 0161 00       		.byte	0
 3062 0162 3F       		.uleb128 0x3f
ARM GAS  C:\Users\jrdia\AppData\Local\Temp\ccpDBDWb.s 			page 84


 3063 0163 19       		.uleb128 0x19
 3064 0164 03       		.uleb128 0x3
 3065 0165 0E       		.uleb128 0xe
 3066 0166 3A       		.uleb128 0x3a
 3067 0167 0B       		.uleb128 0xb
 3068 0168 3B       		.uleb128 0x3b
 3069 0169 05       		.uleb128 0x5
 3070 016a 27       		.uleb128 0x27
 3071 016b 19       		.uleb128 0x19
 3072 016c 49       		.uleb128 0x49
 3073 016d 13       		.uleb128 0x13
 3074 016e 20       		.uleb128 0x20
 3075 016f 0B       		.uleb128 0xb
 3076 0170 00       		.byte	0
 3077 0171 00       		.byte	0
 3078 0172 19       		.uleb128 0x19
 3079 0173 2E       		.uleb128 0x2e
 3080 0174 00       		.byte	0
 3081 0175 31       		.uleb128 0x31
 3082 0176 13       		.uleb128 0x13
 3083 0177 11       		.uleb128 0x11
 3084 0178 01       		.uleb128 0x1
 3085 0179 12       		.uleb128 0x12
 3086 017a 06       		.uleb128 0x6
 3087 017b 40       		.uleb128 0x40
 3088 017c 18       		.uleb128 0x18
 3089 017d 9742     		.uleb128 0x2117
 3090 017f 19       		.uleb128 0x19
 3091 0180 00       		.byte	0
 3092 0181 00       		.byte	0
 3093 0182 1A       		.uleb128 0x1a
 3094 0183 05       		.uleb128 0x5
 3095 0184 00       		.byte	0
 3096 0185 31       		.uleb128 0x31
 3097 0186 13       		.uleb128 0x13
 3098 0187 02       		.uleb128 0x2
 3099 0188 18       		.uleb128 0x18
 3100 0189 00       		.byte	0
 3101 018a 00       		.byte	0
 3102 018b 1B       		.uleb128 0x1b
 3103 018c 05       		.uleb128 0x5
 3104 018d 00       		.byte	0
 3105 018e 03       		.uleb128 0x3
 3106 018f 0E       		.uleb128 0xe
 3107 0190 3A       		.uleb128 0x3a
 3108 0191 0B       		.uleb128 0xb
 3109 0192 3B       		.uleb128 0x3b
 3110 0193 05       		.uleb128 0x5
 3111 0194 49       		.uleb128 0x49
 3112 0195 13       		.uleb128 0x13
 3113 0196 02       		.uleb128 0x2
 3114 0197 18       		.uleb128 0x18
 3115 0198 00       		.byte	0
 3116 0199 00       		.byte	0
 3117 019a 1C       		.uleb128 0x1c
 3118 019b 34       		.uleb128 0x34
 3119 019c 00       		.byte	0
ARM GAS  C:\Users\jrdia\AppData\Local\Temp\ccpDBDWb.s 			page 85


 3120 019d 03       		.uleb128 0x3
 3121 019e 0E       		.uleb128 0xe
 3122 019f 3A       		.uleb128 0x3a
 3123 01a0 0B       		.uleb128 0xb
 3124 01a1 3B       		.uleb128 0x3b
 3125 01a2 0B       		.uleb128 0xb
 3126 01a3 49       		.uleb128 0x49
 3127 01a4 13       		.uleb128 0x13
 3128 01a5 3F       		.uleb128 0x3f
 3129 01a6 19       		.uleb128 0x19
 3130 01a7 02       		.uleb128 0x2
 3131 01a8 18       		.uleb128 0x18
 3132 01a9 00       		.byte	0
 3133 01aa 00       		.byte	0
 3134 01ab 1D       		.uleb128 0x1d
 3135 01ac 2E       		.uleb128 0x2e
 3136 01ad 00       		.byte	0
 3137 01ae 3F       		.uleb128 0x3f
 3138 01af 19       		.uleb128 0x19
 3139 01b0 3C       		.uleb128 0x3c
 3140 01b1 19       		.uleb128 0x19
 3141 01b2 6E       		.uleb128 0x6e
 3142 01b3 0E       		.uleb128 0xe
 3143 01b4 03       		.uleb128 0x3
 3144 01b5 0E       		.uleb128 0xe
 3145 01b6 3A       		.uleb128 0x3a
 3146 01b7 0B       		.uleb128 0xb
 3147 01b8 3B       		.uleb128 0x3b
 3148 01b9 0B       		.uleb128 0xb
 3149 01ba 00       		.byte	0
 3150 01bb 00       		.byte	0
 3151 01bc 00       		.byte	0
 3152              		.section	.debug_loc,"",%progbits
 3153              	.Ldebug_loc0:
 3154              	.LLST0:
 3155 0000 0E000000 		.4byte	.LVL0
 3156 0004 14000000 		.4byte	.LVL1
 3157 0008 0200     		.2byte	0x2
 3158 000a 31       		.byte	0x31
 3159 000b 9F       		.byte	0x9f
 3160 000c 00000000 		.4byte	0
 3161 0010 00000000 		.4byte	0
 3162              	.LLST1:
 3163 0014 14000000 		.4byte	.LVL1
 3164 0018 1A000000 		.4byte	.LVL2
 3165 001c 0400     		.2byte	0x4
 3166 001e 0A       		.byte	0xa
 3167 001f FFFF     		.2byte	0xffff
 3168 0021 9F       		.byte	0x9f
 3169 0022 00000000 		.4byte	0
 3170 0026 00000000 		.4byte	0
 3171              	.LLST2:
 3172 002a 1A000000 		.4byte	.LVL2
 3173 002e 20000000 		.4byte	.LVL3
 3174 0032 0200     		.2byte	0x2
 3175 0034 30       		.byte	0x30
 3176 0035 9F       		.byte	0x9f
ARM GAS  C:\Users\jrdia\AppData\Local\Temp\ccpDBDWb.s 			page 86


 3177 0036 00000000 		.4byte	0
 3178 003a 00000000 		.4byte	0
 3179              	.LLST3:
 3180 003e 06000000 		.4byte	.LVL4
 3181 0042 13000000 		.4byte	.LVL5-1
 3182 0046 0100     		.2byte	0x1
 3183 0048 50       		.byte	0x50
 3184 0049 00000000 		.4byte	0
 3185 004d 00000000 		.4byte	0
 3186              	.LLST4:
 3187 0051 14000000 		.4byte	.LVL5
 3188 0055 24000000 		.4byte	.LVL7
 3189 0059 0200     		.2byte	0x2
 3190 005b 48       		.byte	0x48
 3191 005c 9F       		.byte	0x9f
 3192 005d 00000000 		.4byte	0
 3193 0061 00000000 		.4byte	0
 3194              	.LLST5:
 3195 0065 14000000 		.4byte	.LVL5
 3196 0069 24000000 		.4byte	.LVL7
 3197 006d 0200     		.2byte	0x2
 3198 006f 31       		.byte	0x31
 3199 0070 9F       		.byte	0x9f
 3200 0071 00000000 		.4byte	0
 3201 0075 00000000 		.4byte	0
 3202              	.LLST6:
 3203 0079 18000000 		.4byte	.LVL6
 3204 007d 23000000 		.4byte	.LVL7-1
 3205 0081 0100     		.2byte	0x1
 3206 0083 50       		.byte	0x50
 3207 0084 00000000 		.4byte	0
 3208 0088 00000000 		.4byte	0
 3209              	.LLST7:
 3210 008c 20000000 		.4byte	.LVL9
 3211 0090 24000000 		.4byte	.LVL10
 3212 0094 0400     		.2byte	0x4
 3213 0096 0A       		.byte	0xa
 3214 0097 FFFF     		.2byte	0xffff
 3215 0099 9F       		.byte	0x9f
 3216 009a 00000000 		.4byte	0
 3217 009e 00000000 		.4byte	0
 3218              	.LLST8:
 3219 00a2 1A000000 		.4byte	.LVL8
 3220 00a6 20000000 		.4byte	.LVL9
 3221 00aa 0200     		.2byte	0x2
 3222 00ac 31       		.byte	0x31
 3223 00ad 9F       		.byte	0x9f
 3224 00ae 00000000 		.4byte	0
 3225 00b2 00000000 		.4byte	0
 3226              	.LLST9:
 3227 00b6 24000000 		.4byte	.LVL10
 3228 00ba 28000000 		.4byte	.LVL11
 3229 00be 0200     		.2byte	0x2
 3230 00c0 30       		.byte	0x30
 3231 00c1 9F       		.byte	0x9f
 3232 00c2 00000000 		.4byte	0
 3233 00c6 00000000 		.4byte	0
ARM GAS  C:\Users\jrdia\AppData\Local\Temp\ccpDBDWb.s 			page 87


 3234              	.LLST10:
 3235 00ca 06000000 		.4byte	.LVL13
 3236 00ce 13000000 		.4byte	.LVL14-1
 3237 00d2 0100     		.2byte	0x1
 3238 00d4 50       		.byte	0x50
 3239 00d5 00000000 		.4byte	0
 3240 00d9 00000000 		.4byte	0
 3241              	.LLST11:
 3242 00dd 00000000 		.4byte	.LVL15
 3243 00e1 07000000 		.4byte	.LVL16-1
 3244 00e5 0100     		.2byte	0x1
 3245 00e7 50       		.byte	0x50
 3246 00e8 07000000 		.4byte	.LVL16-1
 3247 00ec 16000000 		.4byte	.LVL17
 3248 00f0 0100     		.2byte	0x1
 3249 00f2 54       		.byte	0x54
 3250 00f3 16000000 		.4byte	.LVL17
 3251 00f7 28000000 		.4byte	.LFE4
 3252 00fb 0400     		.2byte	0x4
 3253 00fd F3       		.byte	0xf3
 3254 00fe 01       		.uleb128 0x1
 3255 00ff 50       		.byte	0x50
 3256 0100 9F       		.byte	0x9f
 3257 0101 00000000 		.4byte	0
 3258 0105 00000000 		.4byte	0
 3259              	.LLST12:
 3260 0109 08000000 		.4byte	.LVL16
 3261 010d 1B000000 		.4byte	.LVL18-1
 3262 0111 0100     		.2byte	0x1
 3263 0113 50       		.byte	0x50
 3264 0114 00000000 		.4byte	0
 3265 0118 00000000 		.4byte	0
 3266              	.LLST13:
 3267 011c 00000000 		.4byte	.LVL19
 3268 0120 07000000 		.4byte	.LVL20-1
 3269 0124 0100     		.2byte	0x1
 3270 0126 50       		.byte	0x50
 3271 0127 07000000 		.4byte	.LVL20-1
 3272 012b 16000000 		.4byte	.LVL21
 3273 012f 0100     		.2byte	0x1
 3274 0131 54       		.byte	0x54
 3275 0132 16000000 		.4byte	.LVL21
 3276 0136 28000000 		.4byte	.LFE5
 3277 013a 0400     		.2byte	0x4
 3278 013c F3       		.byte	0xf3
 3279 013d 01       		.uleb128 0x1
 3280 013e 50       		.byte	0x50
 3281 013f 9F       		.byte	0x9f
 3282 0140 00000000 		.4byte	0
 3283 0144 00000000 		.4byte	0
 3284              	.LLST14:
 3285 0148 08000000 		.4byte	.LVL20
 3286 014c 1B000000 		.4byte	.LVL22-1
 3287 0150 0100     		.2byte	0x1
 3288 0152 50       		.byte	0x50
 3289 0153 00000000 		.4byte	0
 3290 0157 00000000 		.4byte	0
ARM GAS  C:\Users\jrdia\AppData\Local\Temp\ccpDBDWb.s 			page 88


 3291              	.LLST15:
 3292 015b 00000000 		.4byte	.LVL23
 3293 015f 07000000 		.4byte	.LVL24-1
 3294 0163 0100     		.2byte	0x1
 3295 0165 50       		.byte	0x50
 3296 0166 07000000 		.4byte	.LVL24-1
 3297 016a 16000000 		.4byte	.LVL25
 3298 016e 0100     		.2byte	0x1
 3299 0170 54       		.byte	0x54
 3300 0171 16000000 		.4byte	.LVL25
 3301 0175 28000000 		.4byte	.LFE6
 3302 0179 0400     		.2byte	0x4
 3303 017b F3       		.byte	0xf3
 3304 017c 01       		.uleb128 0x1
 3305 017d 50       		.byte	0x50
 3306 017e 9F       		.byte	0x9f
 3307 017f 00000000 		.4byte	0
 3308 0183 00000000 		.4byte	0
 3309              	.LLST16:
 3310 0187 08000000 		.4byte	.LVL24
 3311 018b 1B000000 		.4byte	.LVL26-1
 3312 018f 0100     		.2byte	0x1
 3313 0191 50       		.byte	0x50
 3314 0192 00000000 		.4byte	0
 3315 0196 00000000 		.4byte	0
 3316              	.LLST17:
 3317 019a 00000000 		.4byte	.LVL27
 3318 019e 07000000 		.4byte	.LVL28-1
 3319 01a2 0100     		.2byte	0x1
 3320 01a4 50       		.byte	0x50
 3321 01a5 07000000 		.4byte	.LVL28-1
 3322 01a9 16000000 		.4byte	.LVL29
 3323 01ad 0100     		.2byte	0x1
 3324 01af 54       		.byte	0x54
 3325 01b0 16000000 		.4byte	.LVL29
 3326 01b4 30000000 		.4byte	.LFE7
 3327 01b8 0400     		.2byte	0x4
 3328 01ba F3       		.byte	0xf3
 3329 01bb 01       		.uleb128 0x1
 3330 01bc 50       		.byte	0x50
 3331 01bd 9F       		.byte	0x9f
 3332 01be 00000000 		.4byte	0
 3333 01c2 00000000 		.4byte	0
 3334              	.LLST18:
 3335 01c6 08000000 		.4byte	.LVL28
 3336 01ca 23000000 		.4byte	.LVL30-1
 3337 01ce 0100     		.2byte	0x1
 3338 01d0 50       		.byte	0x50
 3339 01d1 00000000 		.4byte	0
 3340 01d5 00000000 		.4byte	0
 3341              	.LLST19:
 3342 01d9 00000000 		.4byte	.LVL31
 3343 01dd 04000000 		.4byte	.LVL32
 3344 01e1 0100     		.2byte	0x1
 3345 01e3 50       		.byte	0x50
 3346 01e4 04000000 		.4byte	.LVL32
 3347 01e8 10000000 		.4byte	.LFE8
ARM GAS  C:\Users\jrdia\AppData\Local\Temp\ccpDBDWb.s 			page 89


 3348 01ec 0400     		.2byte	0x4
 3349 01ee F3       		.byte	0xf3
 3350 01ef 01       		.uleb128 0x1
 3351 01f0 50       		.byte	0x50
 3352 01f1 9F       		.byte	0x9f
 3353 01f2 00000000 		.4byte	0
 3354 01f6 00000000 		.4byte	0
 3355              	.LLST20:
 3356 01fa 00000000 		.4byte	.LVL33
 3357 01fe 07000000 		.4byte	.LVL34-1
 3358 0202 0100     		.2byte	0x1
 3359 0204 50       		.byte	0x50
 3360 0205 07000000 		.4byte	.LVL34-1
 3361 0209 0E000000 		.4byte	.LVL35
 3362 020d 0100     		.2byte	0x1
 3363 020f 54       		.byte	0x54
 3364 0210 0E000000 		.4byte	.LVL35
 3365 0214 28000000 		.4byte	.LFE9
 3366 0218 0400     		.2byte	0x4
 3367 021a F3       		.byte	0xf3
 3368 021b 01       		.uleb128 0x1
 3369 021c 50       		.byte	0x50
 3370 021d 9F       		.byte	0x9f
 3371 021e 00000000 		.4byte	0
 3372 0222 00000000 		.4byte	0
 3373              	.LLST21:
 3374 0226 08000000 		.4byte	.LVL34
 3375 022a 1F000000 		.4byte	.LVL36-1
 3376 022e 0100     		.2byte	0x1
 3377 0230 50       		.byte	0x50
 3378 0231 00000000 		.4byte	0
 3379 0235 00000000 		.4byte	0
 3380              	.LLST22:
 3381 0239 00000000 		.4byte	.LVL37
 3382 023d 07000000 		.4byte	.LVL38-1
 3383 0241 0100     		.2byte	0x1
 3384 0243 50       		.byte	0x50
 3385 0244 07000000 		.4byte	.LVL38-1
 3386 0248 0E000000 		.4byte	.LVL39
 3387 024c 0100     		.2byte	0x1
 3388 024e 54       		.byte	0x54
 3389 024f 0E000000 		.4byte	.LVL39
 3390 0253 28000000 		.4byte	.LFE10
 3391 0257 0400     		.2byte	0x4
 3392 0259 F3       		.byte	0xf3
 3393 025a 01       		.uleb128 0x1
 3394 025b 50       		.byte	0x50
 3395 025c 9F       		.byte	0x9f
 3396 025d 00000000 		.4byte	0
 3397 0261 00000000 		.4byte	0
 3398              	.LLST23:
 3399 0265 08000000 		.4byte	.LVL38
 3400 0269 1F000000 		.4byte	.LVL40-1
 3401 026d 0100     		.2byte	0x1
 3402 026f 50       		.byte	0x50
 3403 0270 00000000 		.4byte	0
 3404 0274 00000000 		.4byte	0
ARM GAS  C:\Users\jrdia\AppData\Local\Temp\ccpDBDWb.s 			page 90


 3405              	.LLST24:
 3406 0278 00000000 		.4byte	.LVL41
 3407 027c 07000000 		.4byte	.LVL42-1
 3408 0280 0100     		.2byte	0x1
 3409 0282 50       		.byte	0x50
 3410 0283 07000000 		.4byte	.LVL42-1
 3411 0287 10000000 		.4byte	.LVL43
 3412 028b 0100     		.2byte	0x1
 3413 028d 54       		.byte	0x54
 3414 028e 10000000 		.4byte	.LVL43
 3415 0292 2C000000 		.4byte	.LFE11
 3416 0296 0400     		.2byte	0x4
 3417 0298 F3       		.byte	0xf3
 3418 0299 01       		.uleb128 0x1
 3419 029a 50       		.byte	0x50
 3420 029b 9F       		.byte	0x9f
 3421 029c 00000000 		.4byte	0
 3422 02a0 00000000 		.4byte	0
 3423              	.LLST25:
 3424 02a4 08000000 		.4byte	.LVL42
 3425 02a8 1F000000 		.4byte	.LVL44-1
 3426 02ac 0100     		.2byte	0x1
 3427 02ae 50       		.byte	0x50
 3428 02af 00000000 		.4byte	0
 3429 02b3 00000000 		.4byte	0
 3430              	.LLST26:
 3431 02b7 00000000 		.4byte	.LVL45
 3432 02bb 07000000 		.4byte	.LVL46-1
 3433 02bf 0100     		.2byte	0x1
 3434 02c1 50       		.byte	0x50
 3435 02c2 07000000 		.4byte	.LVL46-1
 3436 02c6 16000000 		.4byte	.LVL47
 3437 02ca 0100     		.2byte	0x1
 3438 02cc 54       		.byte	0x54
 3439 02cd 16000000 		.4byte	.LVL47
 3440 02d1 28000000 		.4byte	.LFE12
 3441 02d5 0400     		.2byte	0x4
 3442 02d7 F3       		.byte	0xf3
 3443 02d8 01       		.uleb128 0x1
 3444 02d9 50       		.byte	0x50
 3445 02da 9F       		.byte	0x9f
 3446 02db 00000000 		.4byte	0
 3447 02df 00000000 		.4byte	0
 3448              	.LLST27:
 3449 02e3 08000000 		.4byte	.LVL46
 3450 02e7 1B000000 		.4byte	.LVL48-1
 3451 02eb 0100     		.2byte	0x1
 3452 02ed 50       		.byte	0x50
 3453 02ee 00000000 		.4byte	0
 3454 02f2 00000000 		.4byte	0
 3455              	.LLST28:
 3456 02f6 00000000 		.4byte	.LVL49
 3457 02fa 04000000 		.4byte	.LVL50
 3458 02fe 0100     		.2byte	0x1
 3459 0300 50       		.byte	0x50
 3460 0301 04000000 		.4byte	.LVL50
 3461 0305 10000000 		.4byte	.LFE13
ARM GAS  C:\Users\jrdia\AppData\Local\Temp\ccpDBDWb.s 			page 91


 3462 0309 0400     		.2byte	0x4
 3463 030b F3       		.byte	0xf3
 3464 030c 01       		.uleb128 0x1
 3465 030d 50       		.byte	0x50
 3466 030e 9F       		.byte	0x9f
 3467 030f 00000000 		.4byte	0
 3468 0313 00000000 		.4byte	0
 3469              	.LLST29:
 3470 0317 00000000 		.4byte	.LVL51
 3471 031b 07000000 		.4byte	.LVL52-1
 3472 031f 0100     		.2byte	0x1
 3473 0321 50       		.byte	0x50
 3474 0322 07000000 		.4byte	.LVL52-1
 3475 0326 16000000 		.4byte	.LVL53
 3476 032a 0100     		.2byte	0x1
 3477 032c 54       		.byte	0x54
 3478 032d 16000000 		.4byte	.LVL53
 3479 0331 28000000 		.4byte	.LFE15
 3480 0335 0400     		.2byte	0x4
 3481 0337 F3       		.byte	0xf3
 3482 0338 01       		.uleb128 0x1
 3483 0339 50       		.byte	0x50
 3484 033a 9F       		.byte	0x9f
 3485 033b 00000000 		.4byte	0
 3486 033f 00000000 		.4byte	0
 3487              	.LLST30:
 3488 0343 08000000 		.4byte	.LVL52
 3489 0347 1B000000 		.4byte	.LVL54-1
 3490 034b 0100     		.2byte	0x1
 3491 034d 50       		.byte	0x50
 3492 034e 00000000 		.4byte	0
 3493 0352 00000000 		.4byte	0
 3494              	.LLST31:
 3495 0356 00000000 		.4byte	.LVL55
 3496 035a 04000000 		.4byte	.LVL56
 3497 035e 0100     		.2byte	0x1
 3498 0360 50       		.byte	0x50
 3499 0361 04000000 		.4byte	.LVL56
 3500 0365 10000000 		.4byte	.LFE16
 3501 0369 0400     		.2byte	0x4
 3502 036b F3       		.byte	0xf3
 3503 036c 01       		.uleb128 0x1
 3504 036d 50       		.byte	0x50
 3505 036e 9F       		.byte	0x9f
 3506 036f 00000000 		.4byte	0
 3507 0373 00000000 		.4byte	0
 3508              	.LLST32:
 3509 0377 00000000 		.4byte	.LVL57
 3510 037b 07000000 		.4byte	.LVL58-1
 3511 037f 0100     		.2byte	0x1
 3512 0381 50       		.byte	0x50
 3513 0382 07000000 		.4byte	.LVL58-1
 3514 0386 1E000000 		.4byte	.LVL60
 3515 038a 0100     		.2byte	0x1
 3516 038c 54       		.byte	0x54
 3517 038d 1E000000 		.4byte	.LVL60
 3518 0391 24000000 		.4byte	.LFE18
ARM GAS  C:\Users\jrdia\AppData\Local\Temp\ccpDBDWb.s 			page 92


 3519 0395 0400     		.2byte	0x4
 3520 0397 F3       		.byte	0xf3
 3521 0398 01       		.uleb128 0x1
 3522 0399 50       		.byte	0x50
 3523 039a 9F       		.byte	0x9f
 3524 039b 00000000 		.4byte	0
 3525 039f 00000000 		.4byte	0
 3526              	.LLST33:
 3527 03a3 08000000 		.4byte	.LVL58
 3528 03a7 1D000000 		.4byte	.LVL59-1
 3529 03ab 0100     		.2byte	0x1
 3530 03ad 50       		.byte	0x50
 3531 03ae 00000000 		.4byte	0
 3532 03b2 00000000 		.4byte	0
 3533              	.LLST34:
 3534 03b6 00000000 		.4byte	.LVL61
 3535 03ba 04000000 		.4byte	.LVL62
 3536 03be 0100     		.2byte	0x1
 3537 03c0 50       		.byte	0x50
 3538 03c1 04000000 		.4byte	.LVL62
 3539 03c5 10000000 		.4byte	.LFE19
 3540 03c9 0400     		.2byte	0x4
 3541 03cb F3       		.byte	0xf3
 3542 03cc 01       		.uleb128 0x1
 3543 03cd 50       		.byte	0x50
 3544 03ce 9F       		.byte	0x9f
 3545 03cf 00000000 		.4byte	0
 3546 03d3 00000000 		.4byte	0
 3547              	.LLST35:
 3548 03d7 00000000 		.4byte	.LVL63
 3549 03db 07000000 		.4byte	.LVL64-1
 3550 03df 0100     		.2byte	0x1
 3551 03e1 50       		.byte	0x50
 3552 03e2 07000000 		.4byte	.LVL64-1
 3553 03e6 0E000000 		.4byte	.LVL65
 3554 03ea 0100     		.2byte	0x1
 3555 03ec 54       		.byte	0x54
 3556 03ed 0E000000 		.4byte	.LVL65
 3557 03f1 28000000 		.4byte	.LFE21
 3558 03f5 0400     		.2byte	0x4
 3559 03f7 F3       		.byte	0xf3
 3560 03f8 01       		.uleb128 0x1
 3561 03f9 50       		.byte	0x50
 3562 03fa 9F       		.byte	0x9f
 3563 03fb 00000000 		.4byte	0
 3564 03ff 00000000 		.4byte	0
 3565              	.LLST36:
 3566 0403 08000000 		.4byte	.LVL64
 3567 0407 1F000000 		.4byte	.LVL66-1
 3568 040b 0100     		.2byte	0x1
 3569 040d 50       		.byte	0x50
 3570 040e 00000000 		.4byte	0
 3571 0412 00000000 		.4byte	0
 3572              	.LLST37:
 3573 0416 00000000 		.4byte	.LVL67
 3574 041a 04000000 		.4byte	.LVL68
 3575 041e 0100     		.2byte	0x1
ARM GAS  C:\Users\jrdia\AppData\Local\Temp\ccpDBDWb.s 			page 93


 3576 0420 50       		.byte	0x50
 3577 0421 04000000 		.4byte	.LVL68
 3578 0425 10000000 		.4byte	.LFE22
 3579 0429 0400     		.2byte	0x4
 3580 042b F3       		.byte	0xf3
 3581 042c 01       		.uleb128 0x1
 3582 042d 50       		.byte	0x50
 3583 042e 9F       		.byte	0x9f
 3584 042f 00000000 		.4byte	0
 3585 0433 00000000 		.4byte	0
 3586              	.LLST38:
 3587 0437 00000000 		.4byte	.LVL69
 3588 043b 04000000 		.4byte	.LVL70
 3589 043f 0100     		.2byte	0x1
 3590 0441 50       		.byte	0x50
 3591 0442 04000000 		.4byte	.LVL70
 3592 0446 10000000 		.4byte	.LFE24
 3593 044a 0400     		.2byte	0x4
 3594 044c F3       		.byte	0xf3
 3595 044d 01       		.uleb128 0x1
 3596 044e 50       		.byte	0x50
 3597 044f 9F       		.byte	0x9f
 3598 0450 00000000 		.4byte	0
 3599 0454 00000000 		.4byte	0
 3600              	.LLST39:
 3601 0458 00000000 		.4byte	.LVL71
 3602 045c 07000000 		.4byte	.LVL72-1
 3603 0460 0100     		.2byte	0x1
 3604 0462 50       		.byte	0x50
 3605 0463 07000000 		.4byte	.LVL72-1
 3606 0467 16000000 		.4byte	.LVL73
 3607 046b 0100     		.2byte	0x1
 3608 046d 54       		.byte	0x54
 3609 046e 16000000 		.4byte	.LVL73
 3610 0472 24000000 		.4byte	.LFE28
 3611 0476 0400     		.2byte	0x4
 3612 0478 F3       		.byte	0xf3
 3613 0479 01       		.uleb128 0x1
 3614 047a 50       		.byte	0x50
 3615 047b 9F       		.byte	0x9f
 3616 047c 00000000 		.4byte	0
 3617 0480 00000000 		.4byte	0
 3618              	.LLST40:
 3619 0484 08000000 		.4byte	.LVL72
 3620 0488 1B000000 		.4byte	.LVL74-1
 3621 048c 0100     		.2byte	0x1
 3622 048e 50       		.byte	0x50
 3623 048f 00000000 		.4byte	0
 3624 0493 00000000 		.4byte	0
 3625              	.LLST41:
 3626 0497 00000000 		.4byte	.LVL75
 3627 049b 07000000 		.4byte	.LVL76-1
 3628 049f 0100     		.2byte	0x1
 3629 04a1 50       		.byte	0x50
 3630 04a2 07000000 		.4byte	.LVL76-1
 3631 04a6 1E000000 		.4byte	.LVL78
 3632 04aa 0100     		.2byte	0x1
ARM GAS  C:\Users\jrdia\AppData\Local\Temp\ccpDBDWb.s 			page 94


 3633 04ac 54       		.byte	0x54
 3634 04ad 1E000000 		.4byte	.LVL78
 3635 04b1 24000000 		.4byte	.LFE29
 3636 04b5 0400     		.2byte	0x4
 3637 04b7 F3       		.byte	0xf3
 3638 04b8 01       		.uleb128 0x1
 3639 04b9 50       		.byte	0x50
 3640 04ba 9F       		.byte	0x9f
 3641 04bb 00000000 		.4byte	0
 3642 04bf 00000000 		.4byte	0
 3643              	.LLST42:
 3644 04c3 08000000 		.4byte	.LVL76
 3645 04c7 1D000000 		.4byte	.LVL77-1
 3646 04cb 0100     		.2byte	0x1
 3647 04cd 50       		.byte	0x50
 3648 04ce 00000000 		.4byte	0
 3649 04d2 00000000 		.4byte	0
 3650              	.LLST43:
 3651 04d6 00000000 		.4byte	.LVL79
 3652 04da 07000000 		.4byte	.LVL80-1
 3653 04de 0100     		.2byte	0x1
 3654 04e0 50       		.byte	0x50
 3655 04e1 07000000 		.4byte	.LVL80-1
 3656 04e5 1E000000 		.4byte	.LVL82
 3657 04e9 0100     		.2byte	0x1
 3658 04eb 54       		.byte	0x54
 3659 04ec 1E000000 		.4byte	.LVL82
 3660 04f0 28000000 		.4byte	.LFE30
 3661 04f4 0400     		.2byte	0x4
 3662 04f6 F3       		.byte	0xf3
 3663 04f7 01       		.uleb128 0x1
 3664 04f8 50       		.byte	0x50
 3665 04f9 9F       		.byte	0x9f
 3666 04fa 00000000 		.4byte	0
 3667 04fe 00000000 		.4byte	0
 3668              	.LLST44:
 3669 0502 08000000 		.4byte	.LVL80
 3670 0506 1D000000 		.4byte	.LVL81-1
 3671 050a 0100     		.2byte	0x1
 3672 050c 50       		.byte	0x50
 3673 050d 00000000 		.4byte	0
 3674 0511 00000000 		.4byte	0
 3675              	.LLST45:
 3676 0515 00000000 		.4byte	.LVL83
 3677 0519 07000000 		.4byte	.LVL84-1
 3678 051d 0100     		.2byte	0x1
 3679 051f 50       		.byte	0x50
 3680 0520 07000000 		.4byte	.LVL84-1
 3681 0524 1E000000 		.4byte	.LVL86
 3682 0528 0100     		.2byte	0x1
 3683 052a 54       		.byte	0x54
 3684 052b 1E000000 		.4byte	.LVL86
 3685 052f 24000000 		.4byte	.LFE31
 3686 0533 0400     		.2byte	0x4
 3687 0535 F3       		.byte	0xf3
 3688 0536 01       		.uleb128 0x1
 3689 0537 50       		.byte	0x50
ARM GAS  C:\Users\jrdia\AppData\Local\Temp\ccpDBDWb.s 			page 95


 3690 0538 9F       		.byte	0x9f
 3691 0539 00000000 		.4byte	0
 3692 053d 00000000 		.4byte	0
 3693              	.LLST46:
 3694 0541 08000000 		.4byte	.LVL84
 3695 0545 1D000000 		.4byte	.LVL85-1
 3696 0549 0100     		.2byte	0x1
 3697 054b 50       		.byte	0x50
 3698 054c 00000000 		.4byte	0
 3699 0550 00000000 		.4byte	0
 3700              	.LLST47:
 3701 0554 00000000 		.4byte	.LVL87
 3702 0558 07000000 		.4byte	.LVL88-1
 3703 055c 0100     		.2byte	0x1
 3704 055e 50       		.byte	0x50
 3705 055f 07000000 		.4byte	.LVL88-1
 3706 0563 1E000000 		.4byte	.LVL90
 3707 0567 0100     		.2byte	0x1
 3708 0569 54       		.byte	0x54
 3709 056a 1E000000 		.4byte	.LVL90
 3710 056e 24000000 		.4byte	.LFE32
 3711 0572 0400     		.2byte	0x4
 3712 0574 F3       		.byte	0xf3
 3713 0575 01       		.uleb128 0x1
 3714 0576 50       		.byte	0x50
 3715 0577 9F       		.byte	0x9f
 3716 0578 00000000 		.4byte	0
 3717 057c 00000000 		.4byte	0
 3718              	.LLST48:
 3719 0580 08000000 		.4byte	.LVL88
 3720 0584 1D000000 		.4byte	.LVL89-1
 3721 0588 0100     		.2byte	0x1
 3722 058a 50       		.byte	0x50
 3723 058b 00000000 		.4byte	0
 3724 058f 00000000 		.4byte	0
 3725              	.LLST49:
 3726 0593 00000000 		.4byte	.LVL91
 3727 0597 0B000000 		.4byte	.LVL92-1
 3728 059b 0100     		.2byte	0x1
 3729 059d 50       		.byte	0x50
 3730 059e 0B000000 		.4byte	.LVL92-1
 3731 05a2 1C000000 		.4byte	.LFE33
 3732 05a6 0400     		.2byte	0x4
 3733 05a8 F3       		.byte	0xf3
 3734 05a9 01       		.uleb128 0x1
 3735 05aa 50       		.byte	0x50
 3736 05ab 9F       		.byte	0x9f
 3737 05ac 00000000 		.4byte	0
 3738 05b0 00000000 		.4byte	0
 3739              	.LLST50:
 3740 05b4 00000000 		.4byte	.LVL91
 3741 05b8 0B000000 		.4byte	.LVL92-1
 3742 05bc 0100     		.2byte	0x1
 3743 05be 51       		.byte	0x51
 3744 05bf 0B000000 		.4byte	.LVL92-1
 3745 05c3 14000000 		.4byte	.LVL94
 3746 05c7 0100     		.2byte	0x1
ARM GAS  C:\Users\jrdia\AppData\Local\Temp\ccpDBDWb.s 			page 96


 3747 05c9 55       		.byte	0x55
 3748 05ca 14000000 		.4byte	.LVL94
 3749 05ce 1C000000 		.4byte	.LFE33
 3750 05d2 0400     		.2byte	0x4
 3751 05d4 F3       		.byte	0xf3
 3752 05d5 01       		.uleb128 0x1
 3753 05d6 51       		.byte	0x51
 3754 05d7 9F       		.byte	0x9f
 3755 05d8 00000000 		.4byte	0
 3756 05dc 00000000 		.4byte	0
 3757              	.LLST51:
 3758 05e0 0C000000 		.4byte	.LVL92
 3759 05e4 13000000 		.4byte	.LVL93-1
 3760 05e8 0100     		.2byte	0x1
 3761 05ea 50       		.byte	0x50
 3762 05eb 00000000 		.4byte	0
 3763 05ef 00000000 		.4byte	0
 3764              		.section	.debug_aranges,"",%progbits
 3765 0000 44010000 		.4byte	0x144
 3766 0004 0200     		.2byte	0x2
 3767 0006 00000000 		.4byte	.Ldebug_info0
 3768 000a 04       		.byte	0x4
 3769 000b 00       		.byte	0
 3770 000c 0000     		.2byte	0
 3771 000e 0000     		.2byte	0
 3772 0010 00000000 		.4byte	.LFB0
 3773 0014 3C000000 		.4byte	.LFE0-.LFB0
 3774 0018 00000000 		.4byte	.LFB1
 3775 001c 30000000 		.4byte	.LFE1-.LFB1
 3776 0020 00000000 		.4byte	.LFB2
 3777 0024 4C000000 		.4byte	.LFE2-.LFB2
 3778 0028 00000000 		.4byte	.LFB3
 3779 002c 1C000000 		.4byte	.LFE3-.LFB3
 3780 0030 00000000 		.4byte	.LFB4
 3781 0034 28000000 		.4byte	.LFE4-.LFB4
 3782 0038 00000000 		.4byte	.LFB5
 3783 003c 28000000 		.4byte	.LFE5-.LFB5
 3784 0040 00000000 		.4byte	.LFB6
 3785 0044 28000000 		.4byte	.LFE6-.LFB6
 3786 0048 00000000 		.4byte	.LFB7
 3787 004c 30000000 		.4byte	.LFE7-.LFB7
 3788 0050 00000000 		.4byte	.LFB8
 3789 0054 10000000 		.4byte	.LFE8-.LFB8
 3790 0058 00000000 		.4byte	.LFB9
 3791 005c 28000000 		.4byte	.LFE9-.LFB9
 3792 0060 00000000 		.4byte	.LFB10
 3793 0064 28000000 		.4byte	.LFE10-.LFB10
 3794 0068 00000000 		.4byte	.LFB11
 3795 006c 2C000000 		.4byte	.LFE11-.LFB11
 3796 0070 00000000 		.4byte	.LFB12
 3797 0074 28000000 		.4byte	.LFE12-.LFB12
 3798 0078 00000000 		.4byte	.LFB13
 3799 007c 10000000 		.4byte	.LFE13-.LFB13
 3800 0080 00000000 		.4byte	.LFB14
 3801 0084 10000000 		.4byte	.LFE14-.LFB14
 3802 0088 00000000 		.4byte	.LFB15
 3803 008c 28000000 		.4byte	.LFE15-.LFB15
ARM GAS  C:\Users\jrdia\AppData\Local\Temp\ccpDBDWb.s 			page 97


 3804 0090 00000000 		.4byte	.LFB16
 3805 0094 10000000 		.4byte	.LFE16-.LFB16
 3806 0098 00000000 		.4byte	.LFB17
 3807 009c 10000000 		.4byte	.LFE17-.LFB17
 3808 00a0 00000000 		.4byte	.LFB18
 3809 00a4 24000000 		.4byte	.LFE18-.LFB18
 3810 00a8 00000000 		.4byte	.LFB19
 3811 00ac 10000000 		.4byte	.LFE19-.LFB19
 3812 00b0 00000000 		.4byte	.LFB20
 3813 00b4 10000000 		.4byte	.LFE20-.LFB20
 3814 00b8 00000000 		.4byte	.LFB21
 3815 00bc 28000000 		.4byte	.LFE21-.LFB21
 3816 00c0 00000000 		.4byte	.LFB22
 3817 00c4 10000000 		.4byte	.LFE22-.LFB22
 3818 00c8 00000000 		.4byte	.LFB24
 3819 00cc 10000000 		.4byte	.LFE24-.LFB24
 3820 00d0 00000000 		.4byte	.LFB26
 3821 00d4 10000000 		.4byte	.LFE26-.LFB26
 3822 00d8 00000000 		.4byte	.LFB27
 3823 00dc 10000000 		.4byte	.LFE27-.LFB27
 3824 00e0 00000000 		.4byte	.LFB28
 3825 00e4 24000000 		.4byte	.LFE28-.LFB28
 3826 00e8 00000000 		.4byte	.LFB29
 3827 00ec 24000000 		.4byte	.LFE29-.LFB29
 3828 00f0 00000000 		.4byte	.LFB30
 3829 00f4 28000000 		.4byte	.LFE30-.LFB30
 3830 00f8 00000000 		.4byte	.LFB31
 3831 00fc 24000000 		.4byte	.LFE31-.LFB31
 3832 0100 00000000 		.4byte	.LFB32
 3833 0104 24000000 		.4byte	.LFE32-.LFB32
 3834 0108 00000000 		.4byte	.LFB33
 3835 010c 1C000000 		.4byte	.LFE33-.LFB33
 3836 0110 00000000 		.4byte	.LFB34
 3837 0114 14000000 		.4byte	.LFE34-.LFB34
 3838 0118 00000000 		.4byte	.LFB35
 3839 011c 0C000000 		.4byte	.LFE35-.LFB35
 3840 0120 00000000 		.4byte	.LFB36
 3841 0124 0C000000 		.4byte	.LFE36-.LFB36
 3842 0128 00000000 		.4byte	.LFB37
 3843 012c 0C000000 		.4byte	.LFE37-.LFB37
 3844 0130 00000000 		.4byte	.LFB38
 3845 0134 0C000000 		.4byte	.LFE38-.LFB38
 3846 0138 00000000 		.4byte	.LFB39
 3847 013c 0C000000 		.4byte	.LFE39-.LFB39
 3848 0140 00000000 		.4byte	0
 3849 0144 00000000 		.4byte	0
 3850              		.section	.debug_ranges,"",%progbits
 3851              	.Ldebug_ranges0:
 3852 0000 16000000 		.4byte	.LBB28
 3853 0004 18000000 		.4byte	.LBE28
 3854 0008 20000000 		.4byte	.LBB33
 3855 000c 24000000 		.4byte	.LBE33
 3856 0010 00000000 		.4byte	0
 3857 0014 00000000 		.4byte	0
 3858 0018 00000000 		.4byte	.LFB0
 3859 001c 3C000000 		.4byte	.LFE0
 3860 0020 00000000 		.4byte	.LFB1
ARM GAS  C:\Users\jrdia\AppData\Local\Temp\ccpDBDWb.s 			page 98


 3861 0024 30000000 		.4byte	.LFE1
 3862 0028 00000000 		.4byte	.LFB2
 3863 002c 4C000000 		.4byte	.LFE2
 3864 0030 00000000 		.4byte	.LFB3
 3865 0034 1C000000 		.4byte	.LFE3
 3866 0038 00000000 		.4byte	.LFB4
 3867 003c 28000000 		.4byte	.LFE4
 3868 0040 00000000 		.4byte	.LFB5
 3869 0044 28000000 		.4byte	.LFE5
 3870 0048 00000000 		.4byte	.LFB6
 3871 004c 28000000 		.4byte	.LFE6
 3872 0050 00000000 		.4byte	.LFB7
 3873 0054 30000000 		.4byte	.LFE7
 3874 0058 00000000 		.4byte	.LFB8
 3875 005c 10000000 		.4byte	.LFE8
 3876 0060 00000000 		.4byte	.LFB9
 3877 0064 28000000 		.4byte	.LFE9
 3878 0068 00000000 		.4byte	.LFB10
 3879 006c 28000000 		.4byte	.LFE10
 3880 0070 00000000 		.4byte	.LFB11
 3881 0074 2C000000 		.4byte	.LFE11
 3882 0078 00000000 		.4byte	.LFB12
 3883 007c 28000000 		.4byte	.LFE12
 3884 0080 00000000 		.4byte	.LFB13
 3885 0084 10000000 		.4byte	.LFE13
 3886 0088 00000000 		.4byte	.LFB14
 3887 008c 10000000 		.4byte	.LFE14
 3888 0090 00000000 		.4byte	.LFB15
 3889 0094 28000000 		.4byte	.LFE15
 3890 0098 00000000 		.4byte	.LFB16
 3891 009c 10000000 		.4byte	.LFE16
 3892 00a0 00000000 		.4byte	.LFB17
 3893 00a4 10000000 		.4byte	.LFE17
 3894 00a8 00000000 		.4byte	.LFB18
 3895 00ac 24000000 		.4byte	.LFE18
 3896 00b0 00000000 		.4byte	.LFB19
 3897 00b4 10000000 		.4byte	.LFE19
 3898 00b8 00000000 		.4byte	.LFB20
 3899 00bc 10000000 		.4byte	.LFE20
 3900 00c0 00000000 		.4byte	.LFB21
 3901 00c4 28000000 		.4byte	.LFE21
 3902 00c8 00000000 		.4byte	.LFB22
 3903 00cc 10000000 		.4byte	.LFE22
 3904 00d0 00000000 		.4byte	.LFB24
 3905 00d4 10000000 		.4byte	.LFE24
 3906 00d8 00000000 		.4byte	.LFB26
 3907 00dc 10000000 		.4byte	.LFE26
 3908 00e0 00000000 		.4byte	.LFB27
 3909 00e4 10000000 		.4byte	.LFE27
 3910 00e8 00000000 		.4byte	.LFB28
 3911 00ec 24000000 		.4byte	.LFE28
 3912 00f0 00000000 		.4byte	.LFB29
 3913 00f4 24000000 		.4byte	.LFE29
 3914 00f8 00000000 		.4byte	.LFB30
 3915 00fc 28000000 		.4byte	.LFE30
 3916 0100 00000000 		.4byte	.LFB31
 3917 0104 24000000 		.4byte	.LFE31
ARM GAS  C:\Users\jrdia\AppData\Local\Temp\ccpDBDWb.s 			page 99


 3918 0108 00000000 		.4byte	.LFB32
 3919 010c 24000000 		.4byte	.LFE32
 3920 0110 00000000 		.4byte	.LFB33
 3921 0114 1C000000 		.4byte	.LFE33
 3922 0118 00000000 		.4byte	.LFB34
 3923 011c 14000000 		.4byte	.LFE34
 3924 0120 00000000 		.4byte	.LFB35
 3925 0124 0C000000 		.4byte	.LFE35
 3926 0128 00000000 		.4byte	.LFB36
 3927 012c 0C000000 		.4byte	.LFE36
 3928 0130 00000000 		.4byte	.LFB37
 3929 0134 0C000000 		.4byte	.LFE37
 3930 0138 00000000 		.4byte	.LFB38
 3931 013c 0C000000 		.4byte	.LFE38
 3932 0140 00000000 		.4byte	.LFB39
 3933 0144 0C000000 		.4byte	.LFE39
 3934 0148 00000000 		.4byte	0
 3935 014c 00000000 		.4byte	0
 3936              		.section	.debug_line,"",%progbits
 3937              	.Ldebug_line0:
 3938 0000 DD030000 		.section	.debug_str,"MS",%progbits,1
 3938      02004F00 
 3938      00000201 
 3938      FB0E0D00 
 3938      01010101 
 3939              	.LASF21:
 3940 0000 636F756E 		.ascii	"count\000"
 3940      7400
 3941              	.LASF75:
 3942 0006 43794578 		.ascii	"CyExitCriticalSection\000"
 3942      69744372 
 3942      69746963 
 3942      616C5365 
 3942      6374696F 
 3943              	.LASF62:
 3944 001c 54435057 		.ascii	"TCPWM_1_ReadCaptureBuf\000"
 3944      4D5F315F 
 3944      52656164 
 3944      43617074 
 3944      75726542 
 3945              	.LASF30:
 3946 0033 54435057 		.ascii	"TCPWM_1_SetMode\000"
 3946      4D5F315F 
 3946      5365744D 
 3946      6F646500 
 3947              	.LASF31:
 3948 0043 54435057 		.ascii	"TCPWM_1_SetQDMode\000"
 3948      4D5F315F 
 3948      53657451 
 3948      444D6F64 
 3948      6500
 3949              	.LASF34:
 3950 0055 54435057 		.ascii	"TCPWM_1_SetPrescaler\000"
 3950      4D5F315F 
 3950      53657450 
 3950      72657363 
 3950      616C6572 
ARM GAS  C:\Users\jrdia\AppData\Local\Temp\ccpDBDWb.s 			page 100


 3951              	.LASF20:
 3952 006a 54435057 		.ascii	"TCPWM_1_WriteCounter\000"
 3952      4D5F315F 
 3952      57726974 
 3952      65436F75 
 3952      6E746572 
 3953              	.LASF7:
 3954 007f 6C6F6E67 		.ascii	"long long unsigned int\000"
 3954      206C6F6E 
 3954      6720756E 
 3954      7369676E 
 3954      65642069 
 3955              	.LASF80:
 3956 0096 54435057 		.ascii	"TCPWM_1_initVar\000"
 3956      4D5F315F 
 3956      696E6974 
 3956      56617200 
 3957              	.LASF28:
 3958 00a6 54435057 		.ascii	"TCPWM_1_Stop\000"
 3958      4D5F315F 
 3958      53746F70 
 3958      00
 3959              	.LASF51:
 3960 00b3 54435057 		.ascii	"TCPWM_1_SetCompareSwap\000"
 3960      4D5F315F 
 3960      53657443 
 3960      6F6D7061 
 3960      72655377 
 3961              	.LASF6:
 3962 00ca 6C6F6E67 		.ascii	"long long int\000"
 3962      206C6F6E 
 3962      6720696E 
 3962      7400
 3963              	.LASF0:
 3964 00d8 7369676E 		.ascii	"signed char\000"
 3964      65642063 
 3964      68617200 
 3965              	.LASF33:
 3966 00e4 71644D6F 		.ascii	"qdMode\000"
 3966      646500
 3967              	.LASF4:
 3968 00eb 6C6F6E67 		.ascii	"long int\000"
 3968      20696E74 
 3968      00
 3969              	.LASF59:
 3970 00f4 54435057 		.ascii	"TCPWM_1_WriteCompareBuf\000"
 3970      4D5F315F 
 3970      57726974 
 3970      65436F6D 
 3970      70617265 
 3971              	.LASF9:
 3972 010c 75696E74 		.ascii	"uint8\000"
 3972      3800
 3973              	.LASF72:
 3974 0112 54435057 		.ascii	"TCPWM_1_ClearInterrupt\000"
 3974      4D5F315F 
 3974      436C6561 
ARM GAS  C:\Users\jrdia\AppData\Local\Temp\ccpDBDWb.s 			page 101


 3974      72496E74 
 3974      65727275 
 3975              	.LASF12:
 3976 0129 646F7562 		.ascii	"double\000"
 3976      6C6500
 3977              	.LASF10:
 3978 0130 75696E74 		.ascii	"uint32\000"
 3978      333200
 3979              	.LASF64:
 3980 0137 74726967 		.ascii	"triggerMode\000"
 3980      6765724D 
 3980      6F646500 
 3981              	.LASF17:
 3982 0143 6D61736B 		.ascii	"mask\000"
 3982      00
 3983              	.LASF42:
 3984 0148 54435057 		.ascii	"TCPWM_1_SetPWMStopOnKill\000"
 3984      4D5F315F 
 3984      53657450 
 3984      574D5374 
 3984      6F704F6E 
 3985              	.LASF49:
 3986 0161 54435057 		.ascii	"TCPWM_1_ReadCounter\000"
 3986      4D5F315F 
 3986      52656164 
 3986      436F756E 
 3986      74657200 
 3987              	.LASF45:
 3988 0175 64656164 		.ascii	"deadTime\000"
 3988      54696D65 
 3988      00
 3989              	.LASF70:
 3990 017e 54435057 		.ascii	"TCPWM_1_GetInterruptSourceMasked\000"
 3990      4D5F315F 
 3990      47657449 
 3990      6E746572 
 3990      72757074 
 3991              	.LASF8:
 3992 019f 756E7369 		.ascii	"unsigned int\000"
 3992      676E6564 
 3992      20696E74 
 3992      00
 3993              	.LASF19:
 3994 01ac 54435057 		.ascii	"TCPWM_1_TriggerCommand\000"
 3994      4D5F315F 
 3994      54726967 
 3994      67657243 
 3994      6F6D6D61 
 3995              	.LASF18:
 3996 01c3 636F6D6D 		.ascii	"command\000"
 3996      616E6400 
 3997              	.LASF5:
 3998 01cb 6C6F6E67 		.ascii	"long unsigned int\000"
 3998      20756E73 
 3998      69676E65 
 3998      6420696E 
 3998      7400
ARM GAS  C:\Users\jrdia\AppData\Local\Temp\ccpDBDWb.s 			page 102


 3999              	.LASF39:
 4000 01dd 6D6F6465 		.ascii	"modeMask\000"
 4000      4D61736B 
 4000      00
 4001              	.LASF74:
 4002 01e6 4379456E 		.ascii	"CyEnterCriticalSection\000"
 4002      74657243 
 4002      72697469 
 4002      63616C53 
 4002      65637469 
 4003              	.LASF3:
 4004 01fd 73686F72 		.ascii	"short unsigned int\000"
 4004      7420756E 
 4004      7369676E 
 4004      65642069 
 4004      6E7400
 4005              	.LASF37:
 4006 0210 6F6E6553 		.ascii	"oneShotEnable\000"
 4006      686F7445 
 4006      6E61626C 
 4006      6500
 4007              	.LASF73:
 4008 021e 54435057 		.ascii	"TCPWM_1_SetInterrupt\000"
 4008      4D5F315F 
 4008      53657449 
 4008      6E746572 
 4008      72757074 
 4009              	.LASF36:
 4010 0233 54435057 		.ascii	"TCPWM_1_SetOneShot\000"
 4010      4D5F315F 
 4010      5365744F 
 4010      6E655368 
 4010      6F7400
 4011              	.LASF14:
 4012 0246 72656733 		.ascii	"reg32\000"
 4012      3200
 4013              	.LASF67:
 4014 024c 54435057 		.ascii	"TCPWM_1_SetStopMode\000"
 4014      4D5F315F 
 4014      53657453 
 4014      746F704D 
 4014      6F646500 
 4015              	.LASF26:
 4016 0260 54435057 		.ascii	"TCPWM_1_Enable\000"
 4016      4D5F315F 
 4016      456E6162 
 4016      6C6500
 4017              	.LASF16:
 4018 026f 73697A65 		.ascii	"sizetype\000"
 4018      74797065 
 4018      00
 4019              	.LASF15:
 4020 0278 6C6F6E67 		.ascii	"long double\000"
 4020      20646F75 
 4020      626C6500 
 4021              	.LASF79:
 4022 0284 54435057 		.ascii	"TCPWM_1_Init\000"
ARM GAS  C:\Users\jrdia\AppData\Local\Temp\ccpDBDWb.s 			page 103


 4022      4D5F315F 
 4022      496E6974 
 4022      00
 4023              	.LASF44:
 4024 0291 54435057 		.ascii	"TCPWM_1_SetPWMDeadTime\000"
 4024      4D5F315F 
 4024      53657450 
 4024      574D4465 
 4024      61645469 
 4025              	.LASF69:
 4026 02a8 54435057 		.ascii	"TCPWM_1_ReadStatus\000"
 4026      4D5F315F 
 4026      52656164 
 4026      53746174 
 4026      757300
 4027              	.LASF58:
 4028 02bb 636F6D70 		.ascii	"compare\000"
 4028      61726500 
 4029              	.LASF27:
 4030 02c3 54435057 		.ascii	"TCPWM_1_Start\000"
 4030      4D5F315F 
 4030      53746172 
 4030      7400
 4031              	.LASF68:
 4032 02d1 54435057 		.ascii	"TCPWM_1_SetCountMode\000"
 4032      4D5F315F 
 4032      53657443 
 4032      6F756E74 
 4032      4D6F6465 
 4033              	.LASF11:
 4034 02e6 666C6F61 		.ascii	"float\000"
 4034      7400
 4035              	.LASF35:
 4036 02ec 70726573 		.ascii	"prescaler\000"
 4036      63616C65 
 4036      7200
 4037              	.LASF77:
 4038 02f6 47656E65 		.ascii	"Generated_Source\\PSoC4\\TCPWM_1.c\000"
 4038      72617465 
 4038      645F536F 
 4038      75726365 
 4038      5C50536F 
 4039              	.LASF22:
 4040 0317 54435057 		.ascii	"TCPWM_1_WritePeriod\000"
 4040      4D5F315F 
 4040      57726974 
 4040      65506572 
 4040      696F6400 
 4041              	.LASF53:
 4042 032b 54435057 		.ascii	"TCPWM_1_WritePeriodBuf\000"
 4042      4D5F315F 
 4042      57726974 
 4042      65506572 
 4042      696F6442 
 4043              	.LASF1:
 4044 0342 756E7369 		.ascii	"unsigned char\000"
 4044      676E6564 
ARM GAS  C:\Users\jrdia\AppData\Local\Temp\ccpDBDWb.s 			page 104


 4044      20636861 
 4044      7200
 4045              	.LASF57:
 4046 0350 54435057 		.ascii	"TCPWM_1_WriteCompare\000"
 4046      4D5F315F 
 4046      57726974 
 4046      65436F6D 
 4046      70617265 
 4047              	.LASF43:
 4048 0365 73746F70 		.ascii	"stopOnKillEnable\000"
 4048      4F6E4B69 
 4048      6C6C456E 
 4048      61626C65 
 4048      00
 4049              	.LASF71:
 4050 0376 54435057 		.ascii	"TCPWM_1_GetInterruptSource\000"
 4050      4D5F315F 
 4050      47657449 
 4050      6E746572 
 4050      72757074 
 4051              	.LASF2:
 4052 0391 73686F72 		.ascii	"short int\000"
 4052      7420696E 
 4052      7400
 4053              	.LASF76:
 4054 039b 474E5520 		.ascii	"GNU C11 5.4.1 20160609 (release) [ARM/embedded-5-br"
 4054      43313120 
 4054      352E342E 
 4054      31203230 
 4054      31363036 
 4055 03ce 616E6368 		.ascii	"anch revision 237715] -mcpu=cortex-m0 -mthumb -g -O"
 4055      20726576 
 4055      6973696F 
 4055      6E203233 
 4055      37373135 
 4056 0401 32202D66 		.ascii	"2 -ffunction-sections -ffat-lto-objects\000"
 4056      66756E63 
 4056      74696F6E 
 4056      2D736563 
 4056      74696F6E 
 4057              	.LASF55:
 4058 0429 54435057 		.ascii	"TCPWM_1_ReadPeriodBuf\000"
 4058      4D5F315F 
 4058      52656164 
 4058      50657269 
 4058      6F644275 
 4059              	.LASF25:
 4060 043f 696E7465 		.ascii	"interruptMask\000"
 4060      72727570 
 4060      744D6173 
 4060      6B00
 4061              	.LASF50:
 4062 044d 54435057 		.ascii	"TCPWM_1_ReadPeriod\000"
 4062      4D5F315F 
 4062      52656164 
 4062      50657269 
 4062      6F6400
ARM GAS  C:\Users\jrdia\AppData\Local\Temp\ccpDBDWb.s 			page 105


 4063              	.LASF56:
 4064 0460 54435057 		.ascii	"TCPWM_1_SetPeriodSwap\000"
 4064      4D5F315F 
 4064      53657450 
 4064      6572696F 
 4064      64537761 
 4065              	.LASF13:
 4066 0476 63686172 		.ascii	"char\000"
 4066      00
 4067              	.LASF32:
 4068 047b 6D6F6465 		.ascii	"mode\000"
 4068      00
 4069              	.LASF78:
 4070 0480 433A5C55 		.ascii	"C:\\Users\\jrdia\\OneDrive\\Sync\\Documents\\Projec"
 4070      73657273 
 4070      5C6A7264 
 4070      69615C4F 
 4070      6E654472 
 4071 04ad 74735C4D 		.ascii	"ts\\Moving 5DOF\\PSoC Code\\5DOF_Controller\\Blueto"
 4071      6F76696E 
 4071      67203544 
 4071      4F465C50 
 4071      536F4320 
 4072 04dc 6F74685F 		.ascii	"oth_Dev.cydsn\000"
 4072      4465762E 
 4072      63796473 
 4072      6E00
 4073              	.LASF61:
 4074 04ea 54435057 		.ascii	"TCPWM_1_ReadCapture\000"
 4074      4D5F315F 
 4074      52656164 
 4074      43617074 
 4074      75726500 
 4075              	.LASF40:
 4076 04fe 54435057 		.ascii	"TCPWM_1_SetPWMSyncKill\000"
 4076      4D5F315F 
 4076      53657450 
 4076      574D5379 
 4076      6E634B69 
 4077              	.LASF48:
 4078 0515 636F756E 		.ascii	"counterMode\000"
 4078      7465724D 
 4078      6F646500 
 4079              	.LASF23:
 4080 0521 70657269 		.ascii	"period\000"
 4080      6F6400
 4081              	.LASF24:
 4082 0528 54435057 		.ascii	"TCPWM_1_SetInterruptMode\000"
 4082      4D5F315F 
 4082      53657449 
 4082      6E746572 
 4082      72757074 
 4083              	.LASF60:
 4084 0541 636F6D70 		.ascii	"compareBuf\000"
 4084      61726542 
 4084      756600
 4085              	.LASF29:
ARM GAS  C:\Users\jrdia\AppData\Local\Temp\ccpDBDWb.s 			page 106


 4086 054c 656E6162 		.ascii	"enableInterrupts\000"
 4086      6C65496E 
 4086      74657272 
 4086      75707473 
 4086      00
 4087              	.LASF47:
 4088 055d 54435057 		.ascii	"TCPWM_1_SetCounterMode\000"
 4088      4D5F315F 
 4088      53657443 
 4088      6F756E74 
 4088      65724D6F 
 4089              	.LASF38:
 4090 0574 54435057 		.ascii	"TCPWM_1_SetPWMMode\000"
 4090      4D5F315F 
 4090      53657450 
 4090      574D4D6F 
 4090      646500
 4091              	.LASF46:
 4092 0587 54435057 		.ascii	"TCPWM_1_SetPWMInvert\000"
 4092      4D5F315F 
 4092      53657450 
 4092      574D496E 
 4092      76657274 
 4093              	.LASF41:
 4094 059c 73796E63 		.ascii	"syncKillEnable\000"
 4094      4B696C6C 
 4094      456E6162 
 4094      6C6500
 4095              	.LASF65:
 4096 05ab 54435057 		.ascii	"TCPWM_1_SetReloadMode\000"
 4096      4D5F315F 
 4096      53657452 
 4096      656C6F61 
 4096      644D6F64 
 4097              	.LASF66:
 4098 05c1 54435057 		.ascii	"TCPWM_1_SetStartMode\000"
 4098      4D5F315F 
 4098      53657453 
 4098      74617274 
 4098      4D6F6465 
 4099              	.LASF52:
 4100 05d6 73776170 		.ascii	"swapEnable\000"
 4100      456E6162 
 4100      6C6500
 4101              	.LASF54:
 4102 05e1 70657269 		.ascii	"periodBuf\000"
 4102      6F644275 
 4102      6600
 4103              	.LASF63:
 4104 05eb 54435057 		.ascii	"TCPWM_1_SetCaptureMode\000"
 4104      4D5F315F 
 4104      53657443 
 4104      61707475 
 4104      72654D6F 
 4105              		.ident	"GCC: (GNU Tools for ARM Embedded Processors) 5.4.1 20160609 (release) [ARM/embedded-5-bran
