ARM GAS  C:\Users\jrdia\AppData\Local\Temp\ccEfo0RN.s 			page 1


   1              		.syntax unified
   2              		.cpu cortex-m0
   3              		.fpu softvfp
   4              		.eabi_attribute 20, 1
   5              		.eabi_attribute 21, 1
   6              		.eabi_attribute 23, 3
   7              		.eabi_attribute 24, 1
   8              		.eabi_attribute 25, 1
   9              		.eabi_attribute 26, 1
  10              		.eabi_attribute 30, 2
  11              		.eabi_attribute 34, 0
  12              		.eabi_attribute 18, 4
  13              		.thumb
  14              		.syntax unified
  15              		.file	"UART.c"
  16              		.text
  17              	.Ltext0:
  18              		.cfi_sections	.debug_frame
  19              		.section	.text.UART_Init,"ax",%progbits
  20              		.align	2
  21              		.global	UART_Init
  22              		.code	16
  23              		.thumb_func
  24              		.type	UART_Init, %function
  25              	UART_Init:
  26              	.LFB0:
  27              		.file 1 "Generated_Source\\PSoC4\\UART.c"
   1:Generated_Source\PSoC4/UART.c **** /***************************************************************************//**
   2:Generated_Source\PSoC4/UART.c **** * \file UART.c
   3:Generated_Source\PSoC4/UART.c **** * \version 3.20
   4:Generated_Source\PSoC4/UART.c **** *
   5:Generated_Source\PSoC4/UART.c **** * \brief
   6:Generated_Source\PSoC4/UART.c **** *  This file provides the source code to the API for the SCB Component.
   7:Generated_Source\PSoC4/UART.c **** *
   8:Generated_Source\PSoC4/UART.c **** * Note:
   9:Generated_Source\PSoC4/UART.c **** *
  10:Generated_Source\PSoC4/UART.c **** *******************************************************************************
  11:Generated_Source\PSoC4/UART.c **** * \copyright
  12:Generated_Source\PSoC4/UART.c **** * Copyright 2013-2016, Cypress Semiconductor Corporation.  All rights reserved.
  13:Generated_Source\PSoC4/UART.c **** * You may use this file only in accordance with the license, terms, conditions,
  14:Generated_Source\PSoC4/UART.c **** * disclaimers, and limitations in the end user license agreement accompanying
  15:Generated_Source\PSoC4/UART.c **** * the software package with which this file was provided.
  16:Generated_Source\PSoC4/UART.c **** *******************************************************************************/
  17:Generated_Source\PSoC4/UART.c **** 
  18:Generated_Source\PSoC4/UART.c **** #include "UART_PVT.h"
  19:Generated_Source\PSoC4/UART.c **** 
  20:Generated_Source\PSoC4/UART.c **** #if (UART_SCB_MODE_I2C_INC)
  21:Generated_Source\PSoC4/UART.c ****     #include "UART_I2C_PVT.h"
  22:Generated_Source\PSoC4/UART.c **** #endif /* (UART_SCB_MODE_I2C_INC) */
  23:Generated_Source\PSoC4/UART.c **** 
  24:Generated_Source\PSoC4/UART.c **** #if (UART_SCB_MODE_EZI2C_INC)
  25:Generated_Source\PSoC4/UART.c ****     #include "UART_EZI2C_PVT.h"
  26:Generated_Source\PSoC4/UART.c **** #endif /* (UART_SCB_MODE_EZI2C_INC) */
  27:Generated_Source\PSoC4/UART.c **** 
  28:Generated_Source\PSoC4/UART.c **** #if (UART_SCB_MODE_SPI_INC || UART_SCB_MODE_UART_INC)
  29:Generated_Source\PSoC4/UART.c ****     #include "UART_SPI_UART_PVT.h"
  30:Generated_Source\PSoC4/UART.c **** #endif /* (UART_SCB_MODE_SPI_INC || UART_SCB_MODE_UART_INC) */
ARM GAS  C:\Users\jrdia\AppData\Local\Temp\ccEfo0RN.s 			page 2


  31:Generated_Source\PSoC4/UART.c **** 
  32:Generated_Source\PSoC4/UART.c **** 
  33:Generated_Source\PSoC4/UART.c **** /***************************************
  34:Generated_Source\PSoC4/UART.c **** *    Run Time Configuration Vars
  35:Generated_Source\PSoC4/UART.c **** ***************************************/
  36:Generated_Source\PSoC4/UART.c **** 
  37:Generated_Source\PSoC4/UART.c **** /* Stores internal component configuration for Unconfigured mode */
  38:Generated_Source\PSoC4/UART.c **** #if (UART_SCB_MODE_UNCONFIG_CONST_CFG)
  39:Generated_Source\PSoC4/UART.c ****     /* Common configuration variables */
  40:Generated_Source\PSoC4/UART.c ****     uint8 UART_scbMode = UART_SCB_MODE_UNCONFIG;
  41:Generated_Source\PSoC4/UART.c ****     uint8 UART_scbEnableWake;
  42:Generated_Source\PSoC4/UART.c ****     uint8 UART_scbEnableIntr;
  43:Generated_Source\PSoC4/UART.c **** 
  44:Generated_Source\PSoC4/UART.c ****     /* I2C configuration variables */
  45:Generated_Source\PSoC4/UART.c ****     uint8 UART_mode;
  46:Generated_Source\PSoC4/UART.c ****     uint8 UART_acceptAddr;
  47:Generated_Source\PSoC4/UART.c **** 
  48:Generated_Source\PSoC4/UART.c ****     /* SPI/UART configuration variables */
  49:Generated_Source\PSoC4/UART.c ****     volatile uint8 * UART_rxBuffer;
  50:Generated_Source\PSoC4/UART.c ****     uint8  UART_rxDataBits;
  51:Generated_Source\PSoC4/UART.c ****     uint32 UART_rxBufferSize;
  52:Generated_Source\PSoC4/UART.c **** 
  53:Generated_Source\PSoC4/UART.c ****     volatile uint8 * UART_txBuffer;
  54:Generated_Source\PSoC4/UART.c ****     uint8  UART_txDataBits;
  55:Generated_Source\PSoC4/UART.c ****     uint32 UART_txBufferSize;
  56:Generated_Source\PSoC4/UART.c **** 
  57:Generated_Source\PSoC4/UART.c ****     /* EZI2C configuration variables */
  58:Generated_Source\PSoC4/UART.c ****     uint8 UART_numberOfAddr;
  59:Generated_Source\PSoC4/UART.c ****     uint8 UART_subAddrSize;
  60:Generated_Source\PSoC4/UART.c **** #endif /* (UART_SCB_MODE_UNCONFIG_CONST_CFG) */
  61:Generated_Source\PSoC4/UART.c **** 
  62:Generated_Source\PSoC4/UART.c **** 
  63:Generated_Source\PSoC4/UART.c **** /***************************************
  64:Generated_Source\PSoC4/UART.c **** *     Common SCB Vars
  65:Generated_Source\PSoC4/UART.c **** ***************************************/
  66:Generated_Source\PSoC4/UART.c **** /**
  67:Generated_Source\PSoC4/UART.c **** * \addtogroup group_general
  68:Generated_Source\PSoC4/UART.c **** * \{
  69:Generated_Source\PSoC4/UART.c **** */
  70:Generated_Source\PSoC4/UART.c **** 
  71:Generated_Source\PSoC4/UART.c **** /** UART_initVar indicates whether the UART 
  72:Generated_Source\PSoC4/UART.c **** *  component has been initialized. The variable is initialized to 0 
  73:Generated_Source\PSoC4/UART.c **** *  and set to 1 the first time SCB_Start() is called. This allows 
  74:Generated_Source\PSoC4/UART.c **** *  the component to restart without reinitialization after the first 
  75:Generated_Source\PSoC4/UART.c **** *  call to the UART_Start() routine.
  76:Generated_Source\PSoC4/UART.c **** *
  77:Generated_Source\PSoC4/UART.c **** *  If re-initialization of the component is required, then the 
  78:Generated_Source\PSoC4/UART.c **** *  UART_Init() function can be called before the 
  79:Generated_Source\PSoC4/UART.c **** *  UART_Start() or UART_Enable() function.
  80:Generated_Source\PSoC4/UART.c **** */
  81:Generated_Source\PSoC4/UART.c **** uint8 UART_initVar = 0u;
  82:Generated_Source\PSoC4/UART.c **** 
  83:Generated_Source\PSoC4/UART.c **** 
  84:Generated_Source\PSoC4/UART.c **** #if (! (UART_SCB_MODE_I2C_CONST_CFG || \
  85:Generated_Source\PSoC4/UART.c ****         UART_SCB_MODE_EZI2C_CONST_CFG))
  86:Generated_Source\PSoC4/UART.c ****     /** This global variable stores TX interrupt sources after 
  87:Generated_Source\PSoC4/UART.c ****     * UART_Stop() is called. Only these TX interrupt sources 
ARM GAS  C:\Users\jrdia\AppData\Local\Temp\ccEfo0RN.s 			page 3


  88:Generated_Source\PSoC4/UART.c ****     * will be restored on a subsequent UART_Enable() call.
  89:Generated_Source\PSoC4/UART.c ****     */
  90:Generated_Source\PSoC4/UART.c ****     uint16 UART_IntrTxMask = 0u;
  91:Generated_Source\PSoC4/UART.c **** #endif /* (! (UART_SCB_MODE_I2C_CONST_CFG || \
  92:Generated_Source\PSoC4/UART.c ****               UART_SCB_MODE_EZI2C_CONST_CFG)) */
  93:Generated_Source\PSoC4/UART.c **** /** \} globals */
  94:Generated_Source\PSoC4/UART.c **** 
  95:Generated_Source\PSoC4/UART.c **** #if (UART_SCB_IRQ_INTERNAL)
  96:Generated_Source\PSoC4/UART.c **** #if !defined (CY_REMOVE_UART_CUSTOM_INTR_HANDLER)
  97:Generated_Source\PSoC4/UART.c ****     void (*UART_customIntrHandler)(void) = NULL;
  98:Generated_Source\PSoC4/UART.c **** #endif /* !defined (CY_REMOVE_UART_CUSTOM_INTR_HANDLER) */
  99:Generated_Source\PSoC4/UART.c **** #endif /* (UART_SCB_IRQ_INTERNAL) */
 100:Generated_Source\PSoC4/UART.c **** 
 101:Generated_Source\PSoC4/UART.c **** 
 102:Generated_Source\PSoC4/UART.c **** /***************************************
 103:Generated_Source\PSoC4/UART.c **** *    Private Function Prototypes
 104:Generated_Source\PSoC4/UART.c **** ***************************************/
 105:Generated_Source\PSoC4/UART.c **** 
 106:Generated_Source\PSoC4/UART.c **** static void UART_ScbEnableIntr(void);
 107:Generated_Source\PSoC4/UART.c **** static void UART_ScbModeStop(void);
 108:Generated_Source\PSoC4/UART.c **** static void UART_ScbModePostEnable(void);
 109:Generated_Source\PSoC4/UART.c **** 
 110:Generated_Source\PSoC4/UART.c **** 
 111:Generated_Source\PSoC4/UART.c **** /*******************************************************************************
 112:Generated_Source\PSoC4/UART.c **** * Function Name: UART_Init
 113:Generated_Source\PSoC4/UART.c **** ****************************************************************************//**
 114:Generated_Source\PSoC4/UART.c **** *
 115:Generated_Source\PSoC4/UART.c **** *  Initializes the UART component to operate in one of the selected
 116:Generated_Source\PSoC4/UART.c **** *  configurations: I2C, SPI, UART or EZI2C.
 117:Generated_Source\PSoC4/UART.c **** *  When the configuration is set to "Unconfigured SCB", this function does
 118:Generated_Source\PSoC4/UART.c **** *  not do any initialization. Use mode-specific initialization APIs instead:
 119:Generated_Source\PSoC4/UART.c **** *  UART_I2CInit, UART_SpiInit, 
 120:Generated_Source\PSoC4/UART.c **** *  UART_UartInit or UART_EzI2CInit.
 121:Generated_Source\PSoC4/UART.c **** *
 122:Generated_Source\PSoC4/UART.c **** *******************************************************************************/
 123:Generated_Source\PSoC4/UART.c **** void UART_Init(void)
 124:Generated_Source\PSoC4/UART.c **** {
  28              		.loc 1 124 0
  29              		.cfi_startproc
  30              		@ args = 0, pretend = 0, frame = 0
  31              		@ frame_needed = 0, uses_anonymous_args = 0
  32 0000 10B5     		push	{r4, lr}
  33              		.cfi_def_cfa_offset 8
  34              		.cfi_offset 4, -8
  35              		.cfi_offset 14, -4
 125:Generated_Source\PSoC4/UART.c **** #if (UART_SCB_MODE_UNCONFIG_CONST_CFG)
 126:Generated_Source\PSoC4/UART.c ****     if (UART_SCB_MODE_UNCONFIG_RUNTM_CFG)
 127:Generated_Source\PSoC4/UART.c ****     {
 128:Generated_Source\PSoC4/UART.c ****         UART_initVar = 0u;
 129:Generated_Source\PSoC4/UART.c ****     }
 130:Generated_Source\PSoC4/UART.c ****     else
 131:Generated_Source\PSoC4/UART.c ****     {
 132:Generated_Source\PSoC4/UART.c ****         /* Initialization was done before this function call */
 133:Generated_Source\PSoC4/UART.c ****     }
 134:Generated_Source\PSoC4/UART.c **** 
 135:Generated_Source\PSoC4/UART.c **** #elif (UART_SCB_MODE_I2C_CONST_CFG)
 136:Generated_Source\PSoC4/UART.c ****     UART_I2CInit();
ARM GAS  C:\Users\jrdia\AppData\Local\Temp\ccEfo0RN.s 			page 4


 137:Generated_Source\PSoC4/UART.c **** 
 138:Generated_Source\PSoC4/UART.c **** #elif (UART_SCB_MODE_SPI_CONST_CFG)
 139:Generated_Source\PSoC4/UART.c ****     UART_SpiInit();
 140:Generated_Source\PSoC4/UART.c **** 
 141:Generated_Source\PSoC4/UART.c **** #elif (UART_SCB_MODE_UART_CONST_CFG)
 142:Generated_Source\PSoC4/UART.c ****     UART_UartInit();
  36              		.loc 1 142 0
  37 0002 FFF7FEFF 		bl	UART_UartInit
  38              	.LVL0:
 143:Generated_Source\PSoC4/UART.c **** 
 144:Generated_Source\PSoC4/UART.c **** #elif (UART_SCB_MODE_EZI2C_CONST_CFG)
 145:Generated_Source\PSoC4/UART.c ****     UART_EzI2CInit();
 146:Generated_Source\PSoC4/UART.c **** 
 147:Generated_Source\PSoC4/UART.c **** #endif /* (UART_SCB_MODE_UNCONFIG_CONST_CFG) */
 148:Generated_Source\PSoC4/UART.c **** }
  39              		.loc 1 148 0
  40              		@ sp needed
  41 0006 10BD     		pop	{r4, pc}
  42              		.cfi_endproc
  43              	.LFE0:
  44              		.size	UART_Init, .-UART_Init
  45              		.section	.text.UART_Enable,"ax",%progbits
  46              		.align	2
  47              		.global	UART_Enable
  48              		.code	16
  49              		.thumb_func
  50              		.type	UART_Enable, %function
  51              	UART_Enable:
  52              	.LFB1:
 149:Generated_Source\PSoC4/UART.c **** 
 150:Generated_Source\PSoC4/UART.c **** 
 151:Generated_Source\PSoC4/UART.c **** /*******************************************************************************
 152:Generated_Source\PSoC4/UART.c **** * Function Name: UART_Enable
 153:Generated_Source\PSoC4/UART.c **** ****************************************************************************//**
 154:Generated_Source\PSoC4/UART.c **** *
 155:Generated_Source\PSoC4/UART.c **** *  Enables UART component operation: activates the hardware and 
 156:Generated_Source\PSoC4/UART.c **** *  internal interrupt. It also restores TX interrupt sources disabled after the 
 157:Generated_Source\PSoC4/UART.c **** *  UART_Stop() function was called (note that level-triggered TX 
 158:Generated_Source\PSoC4/UART.c **** *  interrupt sources remain disabled to not cause code lock-up).
 159:Generated_Source\PSoC4/UART.c **** *  For I2C and EZI2C modes the interrupt is internal and mandatory for 
 160:Generated_Source\PSoC4/UART.c **** *  operation. For SPI and UART modes the interrupt can be configured as none, 
 161:Generated_Source\PSoC4/UART.c **** *  internal or external.
 162:Generated_Source\PSoC4/UART.c **** *  The UART configuration should be not changed when the component
 163:Generated_Source\PSoC4/UART.c **** *  is enabled. Any configuration changes should be made after disabling the 
 164:Generated_Source\PSoC4/UART.c **** *  component.
 165:Generated_Source\PSoC4/UART.c **** *  When configuration is set to “Unconfigured UART”, the component 
 166:Generated_Source\PSoC4/UART.c **** *  must first be initialized to operate in one of the following configurations: 
 167:Generated_Source\PSoC4/UART.c **** *  I2C, SPI, UART or EZ I2C, using the mode-specific initialization API. 
 168:Generated_Source\PSoC4/UART.c **** *  Otherwise this function does not enable the component.
 169:Generated_Source\PSoC4/UART.c **** *
 170:Generated_Source\PSoC4/UART.c **** *******************************************************************************/
 171:Generated_Source\PSoC4/UART.c **** void UART_Enable(void)
 172:Generated_Source\PSoC4/UART.c **** {
  53              		.loc 1 172 0
  54              		.cfi_startproc
  55              		@ args = 0, pretend = 0, frame = 0
  56              		@ frame_needed = 0, uses_anonymous_args = 0
ARM GAS  C:\Users\jrdia\AppData\Local\Temp\ccEfo0RN.s 			page 5


 173:Generated_Source\PSoC4/UART.c **** #if (UART_SCB_MODE_UNCONFIG_CONST_CFG)
 174:Generated_Source\PSoC4/UART.c ****     /* Enable SCB block, only if it is already configured */
 175:Generated_Source\PSoC4/UART.c ****     if (!UART_SCB_MODE_UNCONFIG_RUNTM_CFG)
 176:Generated_Source\PSoC4/UART.c ****     {
 177:Generated_Source\PSoC4/UART.c ****         UART_CTRL_REG |= UART_CTRL_ENABLED;
 178:Generated_Source\PSoC4/UART.c **** 
 179:Generated_Source\PSoC4/UART.c ****         UART_ScbEnableIntr();
 180:Generated_Source\PSoC4/UART.c **** 
 181:Generated_Source\PSoC4/UART.c ****         /* Call PostEnable function specific to current operation mode */
 182:Generated_Source\PSoC4/UART.c ****         UART_ScbModePostEnable();
 183:Generated_Source\PSoC4/UART.c ****     }
 184:Generated_Source\PSoC4/UART.c **** #else
 185:Generated_Source\PSoC4/UART.c ****     UART_CTRL_REG |= UART_CTRL_ENABLED;
  57              		.loc 1 185 0
  58 0000 8021     		movs	r1, #128
  59 0002 044A     		ldr	r2, .L3
 172:Generated_Source\PSoC4/UART.c **** #if (UART_SCB_MODE_UNCONFIG_CONST_CFG)
  60              		.loc 1 172 0
  61 0004 10B5     		push	{r4, lr}
  62              		.cfi_def_cfa_offset 8
  63              		.cfi_offset 4, -8
  64              		.cfi_offset 14, -4
  65              		.loc 1 185 0
  66 0006 1368     		ldr	r3, [r2]
  67 0008 0906     		lsls	r1, r1, #24
  68 000a 0B43     		orrs	r3, r1
  69 000c 1360     		str	r3, [r2]
  70              	.LBB14:
  71              	.LBB15:
 186:Generated_Source\PSoC4/UART.c **** 
 187:Generated_Source\PSoC4/UART.c ****     UART_ScbEnableIntr();
 188:Generated_Source\PSoC4/UART.c **** 
 189:Generated_Source\PSoC4/UART.c ****     /* Call PostEnable function specific to current operation mode */
 190:Generated_Source\PSoC4/UART.c ****     UART_ScbModePostEnable();
 191:Generated_Source\PSoC4/UART.c **** #endif /* (UART_SCB_MODE_UNCONFIG_CONST_CFG) */
 192:Generated_Source\PSoC4/UART.c **** }
 193:Generated_Source\PSoC4/UART.c **** 
 194:Generated_Source\PSoC4/UART.c **** 
 195:Generated_Source\PSoC4/UART.c **** /*******************************************************************************
 196:Generated_Source\PSoC4/UART.c **** * Function Name: UART_Start
 197:Generated_Source\PSoC4/UART.c **** ****************************************************************************//**
 198:Generated_Source\PSoC4/UART.c **** *
 199:Generated_Source\PSoC4/UART.c **** *  Invokes UART_Init() and UART_Enable().
 200:Generated_Source\PSoC4/UART.c **** *  After this function call, the component is enabled and ready for operation.
 201:Generated_Source\PSoC4/UART.c **** *  When configuration is set to "Unconfigured SCB", the component must first be
 202:Generated_Source\PSoC4/UART.c **** *  initialized to operate in one of the following configurations: I2C, SPI, UART
 203:Generated_Source\PSoC4/UART.c **** *  or EZI2C. Otherwise this function does not enable the component.
 204:Generated_Source\PSoC4/UART.c **** *
 205:Generated_Source\PSoC4/UART.c **** * \globalvars
 206:Generated_Source\PSoC4/UART.c **** *  UART_initVar - used to check initial configuration, modified
 207:Generated_Source\PSoC4/UART.c **** *  on first function call.
 208:Generated_Source\PSoC4/UART.c **** *
 209:Generated_Source\PSoC4/UART.c **** *******************************************************************************/
 210:Generated_Source\PSoC4/UART.c **** void UART_Start(void)
 211:Generated_Source\PSoC4/UART.c **** {
 212:Generated_Source\PSoC4/UART.c ****     if (0u == UART_initVar)
 213:Generated_Source\PSoC4/UART.c ****     {
ARM GAS  C:\Users\jrdia\AppData\Local\Temp\ccEfo0RN.s 			page 6


 214:Generated_Source\PSoC4/UART.c ****         UART_Init();
 215:Generated_Source\PSoC4/UART.c ****         UART_initVar = 1u; /* Component was initialized */
 216:Generated_Source\PSoC4/UART.c ****     }
 217:Generated_Source\PSoC4/UART.c **** 
 218:Generated_Source\PSoC4/UART.c ****     UART_Enable();
 219:Generated_Source\PSoC4/UART.c **** }
 220:Generated_Source\PSoC4/UART.c **** 
 221:Generated_Source\PSoC4/UART.c **** 
 222:Generated_Source\PSoC4/UART.c **** /*******************************************************************************
 223:Generated_Source\PSoC4/UART.c **** * Function Name: UART_Stop
 224:Generated_Source\PSoC4/UART.c **** ****************************************************************************//**
 225:Generated_Source\PSoC4/UART.c **** *
 226:Generated_Source\PSoC4/UART.c **** *  Disables the UART component: disable the hardware and internal 
 227:Generated_Source\PSoC4/UART.c **** *  interrupt. It also disables all TX interrupt sources so as not to cause an 
 228:Generated_Source\PSoC4/UART.c **** *  unexpected interrupt trigger because after the component is enabled, the 
 229:Generated_Source\PSoC4/UART.c **** *  TX FIFO is empty.
 230:Generated_Source\PSoC4/UART.c **** *  Refer to the function UART_Enable() for the interrupt 
 231:Generated_Source\PSoC4/UART.c **** *  configuration details.
 232:Generated_Source\PSoC4/UART.c **** *  This function disables the SCB component without checking to see if 
 233:Generated_Source\PSoC4/UART.c **** *  communication is in progress. Before calling this function it may be 
 234:Generated_Source\PSoC4/UART.c **** *  necessary to check the status of communication to make sure communication 
 235:Generated_Source\PSoC4/UART.c **** *  is complete. If this is not done then communication could be stopped mid 
 236:Generated_Source\PSoC4/UART.c **** *  byte and corrupted data could result.
 237:Generated_Source\PSoC4/UART.c **** *
 238:Generated_Source\PSoC4/UART.c **** *******************************************************************************/
 239:Generated_Source\PSoC4/UART.c **** void UART_Stop(void)
 240:Generated_Source\PSoC4/UART.c **** {
 241:Generated_Source\PSoC4/UART.c **** #if (UART_SCB_IRQ_INTERNAL)
 242:Generated_Source\PSoC4/UART.c ****     UART_DisableInt();
 243:Generated_Source\PSoC4/UART.c **** #endif /* (UART_SCB_IRQ_INTERNAL) */
 244:Generated_Source\PSoC4/UART.c **** 
 245:Generated_Source\PSoC4/UART.c ****     /* Call Stop function specific to current operation mode */
 246:Generated_Source\PSoC4/UART.c ****     UART_ScbModeStop();
 247:Generated_Source\PSoC4/UART.c **** 
 248:Generated_Source\PSoC4/UART.c ****     /* Disable SCB IP */
 249:Generated_Source\PSoC4/UART.c ****     UART_CTRL_REG &= (uint32) ~UART_CTRL_ENABLED;
 250:Generated_Source\PSoC4/UART.c **** 
 251:Generated_Source\PSoC4/UART.c ****     /* Disable all TX interrupt sources so as not to cause an unexpected
 252:Generated_Source\PSoC4/UART.c ****     * interrupt trigger after the component will be enabled because the 
 253:Generated_Source\PSoC4/UART.c ****     * TX FIFO is empty.
 254:Generated_Source\PSoC4/UART.c ****     * For SCB IP v0, it is critical as it does not mask-out interrupt
 255:Generated_Source\PSoC4/UART.c ****     * sources when it is disabled. This can cause a code lock-up in the
 256:Generated_Source\PSoC4/UART.c ****     * interrupt handler because TX FIFO cannot be loaded after the block
 257:Generated_Source\PSoC4/UART.c ****     * is disabled.
 258:Generated_Source\PSoC4/UART.c ****     */
 259:Generated_Source\PSoC4/UART.c ****     UART_SetTxInterruptMode(UART_NO_INTR_SOURCES);
 260:Generated_Source\PSoC4/UART.c **** 
 261:Generated_Source\PSoC4/UART.c **** #if (UART_SCB_IRQ_INTERNAL)
 262:Generated_Source\PSoC4/UART.c ****     UART_ClearPendingInt();
 263:Generated_Source\PSoC4/UART.c **** #endif /* (UART_SCB_IRQ_INTERNAL) */
 264:Generated_Source\PSoC4/UART.c **** }
 265:Generated_Source\PSoC4/UART.c **** 
 266:Generated_Source\PSoC4/UART.c **** 
 267:Generated_Source\PSoC4/UART.c **** /*******************************************************************************
 268:Generated_Source\PSoC4/UART.c **** * Function Name: UART_SetRxFifoLevel
 269:Generated_Source\PSoC4/UART.c **** ****************************************************************************//**
 270:Generated_Source\PSoC4/UART.c **** *
ARM GAS  C:\Users\jrdia\AppData\Local\Temp\ccEfo0RN.s 			page 7


 271:Generated_Source\PSoC4/UART.c **** *  Sets level in the RX FIFO to generate a RX level interrupt.
 272:Generated_Source\PSoC4/UART.c **** *  When the RX FIFO has more entries than the RX FIFO level an RX level
 273:Generated_Source\PSoC4/UART.c **** *  interrupt request is generated.
 274:Generated_Source\PSoC4/UART.c **** *
 275:Generated_Source\PSoC4/UART.c **** *  \param level: Level in the RX FIFO to generate RX level interrupt.
 276:Generated_Source\PSoC4/UART.c **** *   The range of valid level values is between 0 and RX FIFO depth - 1.
 277:Generated_Source\PSoC4/UART.c **** *
 278:Generated_Source\PSoC4/UART.c **** *******************************************************************************/
 279:Generated_Source\PSoC4/UART.c **** void UART_SetRxFifoLevel(uint32 level)
 280:Generated_Source\PSoC4/UART.c **** {
 281:Generated_Source\PSoC4/UART.c ****     uint32 rxFifoCtrl;
 282:Generated_Source\PSoC4/UART.c **** 
 283:Generated_Source\PSoC4/UART.c ****     rxFifoCtrl = UART_RX_FIFO_CTRL_REG;
 284:Generated_Source\PSoC4/UART.c **** 
 285:Generated_Source\PSoC4/UART.c ****     rxFifoCtrl &= ((uint32) ~UART_RX_FIFO_CTRL_TRIGGER_LEVEL_MASK); /* Clear level mask bits */
 286:Generated_Source\PSoC4/UART.c ****     rxFifoCtrl |= ((uint32) (UART_RX_FIFO_CTRL_TRIGGER_LEVEL_MASK & level));
 287:Generated_Source\PSoC4/UART.c **** 
 288:Generated_Source\PSoC4/UART.c ****     UART_RX_FIFO_CTRL_REG = rxFifoCtrl;
 289:Generated_Source\PSoC4/UART.c **** }
 290:Generated_Source\PSoC4/UART.c **** 
 291:Generated_Source\PSoC4/UART.c **** 
 292:Generated_Source\PSoC4/UART.c **** /*******************************************************************************
 293:Generated_Source\PSoC4/UART.c **** * Function Name: UART_SetTxFifoLevel
 294:Generated_Source\PSoC4/UART.c **** ****************************************************************************//**
 295:Generated_Source\PSoC4/UART.c **** *
 296:Generated_Source\PSoC4/UART.c **** *  Sets level in the TX FIFO to generate a TX level interrupt.
 297:Generated_Source\PSoC4/UART.c **** *  When the TX FIFO has less entries than the TX FIFO level an TX level
 298:Generated_Source\PSoC4/UART.c **** *  interrupt request is generated.
 299:Generated_Source\PSoC4/UART.c **** *
 300:Generated_Source\PSoC4/UART.c **** *  \param level: Level in the TX FIFO to generate TX level interrupt.
 301:Generated_Source\PSoC4/UART.c **** *   The range of valid level values is between 0 and TX FIFO depth - 1.
 302:Generated_Source\PSoC4/UART.c **** *
 303:Generated_Source\PSoC4/UART.c **** *******************************************************************************/
 304:Generated_Source\PSoC4/UART.c **** void UART_SetTxFifoLevel(uint32 level)
 305:Generated_Source\PSoC4/UART.c **** {
 306:Generated_Source\PSoC4/UART.c ****     uint32 txFifoCtrl;
 307:Generated_Source\PSoC4/UART.c **** 
 308:Generated_Source\PSoC4/UART.c ****     txFifoCtrl = UART_TX_FIFO_CTRL_REG;
 309:Generated_Source\PSoC4/UART.c **** 
 310:Generated_Source\PSoC4/UART.c ****     txFifoCtrl &= ((uint32) ~UART_TX_FIFO_CTRL_TRIGGER_LEVEL_MASK); /* Clear level mask bits */
 311:Generated_Source\PSoC4/UART.c ****     txFifoCtrl |= ((uint32) (UART_TX_FIFO_CTRL_TRIGGER_LEVEL_MASK & level));
 312:Generated_Source\PSoC4/UART.c **** 
 313:Generated_Source\PSoC4/UART.c ****     UART_TX_FIFO_CTRL_REG = txFifoCtrl;
 314:Generated_Source\PSoC4/UART.c **** }
 315:Generated_Source\PSoC4/UART.c **** 
 316:Generated_Source\PSoC4/UART.c **** 
 317:Generated_Source\PSoC4/UART.c **** #if (UART_SCB_IRQ_INTERNAL)
 318:Generated_Source\PSoC4/UART.c ****     /*******************************************************************************
 319:Generated_Source\PSoC4/UART.c ****     * Function Name: UART_SetCustomInterruptHandler
 320:Generated_Source\PSoC4/UART.c ****     ****************************************************************************//**
 321:Generated_Source\PSoC4/UART.c ****     *
 322:Generated_Source\PSoC4/UART.c ****     *  Registers a function to be called by the internal interrupt handler.
 323:Generated_Source\PSoC4/UART.c ****     *  First the function that is registered is called, then the internal interrupt
 324:Generated_Source\PSoC4/UART.c ****     *  handler performs any operation such as software buffer management functions
 325:Generated_Source\PSoC4/UART.c ****     *  before the interrupt returns.  It is the user's responsibility not to break
 326:Generated_Source\PSoC4/UART.c ****     *  the software buffer operations. Only one custom handler is supported, which
 327:Generated_Source\PSoC4/UART.c ****     *  is the function provided by the most recent call.
ARM GAS  C:\Users\jrdia\AppData\Local\Temp\ccEfo0RN.s 			page 8


 328:Generated_Source\PSoC4/UART.c ****     *  At the initialization time no custom handler is registered.
 329:Generated_Source\PSoC4/UART.c ****     *
 330:Generated_Source\PSoC4/UART.c ****     *  \param func: Pointer to the function to register.
 331:Generated_Source\PSoC4/UART.c ****     *        The value NULL indicates to remove the current custom interrupt
 332:Generated_Source\PSoC4/UART.c ****     *        handler.
 333:Generated_Source\PSoC4/UART.c ****     *
 334:Generated_Source\PSoC4/UART.c ****     *******************************************************************************/
 335:Generated_Source\PSoC4/UART.c ****     void UART_SetCustomInterruptHandler(void (*func)(void))
 336:Generated_Source\PSoC4/UART.c ****     {
 337:Generated_Source\PSoC4/UART.c ****     #if !defined (CY_REMOVE_UART_CUSTOM_INTR_HANDLER)
 338:Generated_Source\PSoC4/UART.c ****         UART_customIntrHandler = func; /* Register interrupt handler */
 339:Generated_Source\PSoC4/UART.c ****     #else
 340:Generated_Source\PSoC4/UART.c ****         if (NULL != func)
 341:Generated_Source\PSoC4/UART.c ****         {
 342:Generated_Source\PSoC4/UART.c ****             /* Suppress compiler warning */
 343:Generated_Source\PSoC4/UART.c ****         }
 344:Generated_Source\PSoC4/UART.c ****     #endif /* !defined (CY_REMOVE_UART_CUSTOM_INTR_HANDLER) */
 345:Generated_Source\PSoC4/UART.c ****     }
 346:Generated_Source\PSoC4/UART.c **** #endif /* (UART_SCB_IRQ_INTERNAL) */
 347:Generated_Source\PSoC4/UART.c **** 
 348:Generated_Source\PSoC4/UART.c **** 
 349:Generated_Source\PSoC4/UART.c **** /*******************************************************************************
 350:Generated_Source\PSoC4/UART.c **** * Function Name: UART_ScbModeEnableIntr
 351:Generated_Source\PSoC4/UART.c **** ****************************************************************************//**
 352:Generated_Source\PSoC4/UART.c **** *
 353:Generated_Source\PSoC4/UART.c **** *  Enables an interrupt for a specific mode.
 354:Generated_Source\PSoC4/UART.c **** *
 355:Generated_Source\PSoC4/UART.c **** *******************************************************************************/
 356:Generated_Source\PSoC4/UART.c **** static void UART_ScbEnableIntr(void)
 357:Generated_Source\PSoC4/UART.c **** {
 358:Generated_Source\PSoC4/UART.c **** #if (UART_SCB_IRQ_INTERNAL)
 359:Generated_Source\PSoC4/UART.c ****     /* Enable interrupt in NVIC */
 360:Generated_Source\PSoC4/UART.c ****     #if (UART_SCB_MODE_UNCONFIG_CONST_CFG)
 361:Generated_Source\PSoC4/UART.c ****         if (0u != UART_scbEnableIntr)
 362:Generated_Source\PSoC4/UART.c ****         {
 363:Generated_Source\PSoC4/UART.c ****             UART_EnableInt();
 364:Generated_Source\PSoC4/UART.c ****         }
 365:Generated_Source\PSoC4/UART.c **** 
 366:Generated_Source\PSoC4/UART.c ****     #else
 367:Generated_Source\PSoC4/UART.c ****         UART_EnableInt();
 368:Generated_Source\PSoC4/UART.c **** 
 369:Generated_Source\PSoC4/UART.c ****     #endif /* (UART_SCB_MODE_UNCONFIG_CONST_CFG) */
 370:Generated_Source\PSoC4/UART.c **** #endif /* (UART_SCB_IRQ_INTERNAL) */
 371:Generated_Source\PSoC4/UART.c **** }
 372:Generated_Source\PSoC4/UART.c **** 
 373:Generated_Source\PSoC4/UART.c **** 
 374:Generated_Source\PSoC4/UART.c **** /*******************************************************************************
 375:Generated_Source\PSoC4/UART.c **** * Function Name: UART_ScbModePostEnable
 376:Generated_Source\PSoC4/UART.c **** ****************************************************************************//**
 377:Generated_Source\PSoC4/UART.c **** *
 378:Generated_Source\PSoC4/UART.c **** *  Calls the PostEnable function for a specific operation mode.
 379:Generated_Source\PSoC4/UART.c **** *
 380:Generated_Source\PSoC4/UART.c **** *******************************************************************************/
 381:Generated_Source\PSoC4/UART.c **** static void UART_ScbModePostEnable(void)
 382:Generated_Source\PSoC4/UART.c **** {
 383:Generated_Source\PSoC4/UART.c **** #if (UART_SCB_MODE_UNCONFIG_CONST_CFG)
 384:Generated_Source\PSoC4/UART.c **** #if (!UART_CY_SCBIP_V1)
ARM GAS  C:\Users\jrdia\AppData\Local\Temp\ccEfo0RN.s 			page 9


 385:Generated_Source\PSoC4/UART.c ****     if (UART_SCB_MODE_SPI_RUNTM_CFG)
 386:Generated_Source\PSoC4/UART.c ****     {
 387:Generated_Source\PSoC4/UART.c ****         UART_SpiPostEnable();
 388:Generated_Source\PSoC4/UART.c ****     }
 389:Generated_Source\PSoC4/UART.c ****     else if (UART_SCB_MODE_UART_RUNTM_CFG)
 390:Generated_Source\PSoC4/UART.c ****     {
 391:Generated_Source\PSoC4/UART.c ****         UART_UartPostEnable();
 392:Generated_Source\PSoC4/UART.c ****     }
 393:Generated_Source\PSoC4/UART.c ****     else
 394:Generated_Source\PSoC4/UART.c ****     {
 395:Generated_Source\PSoC4/UART.c ****         /* Unknown mode: do nothing */
 396:Generated_Source\PSoC4/UART.c ****     }
 397:Generated_Source\PSoC4/UART.c **** #endif /* (!UART_CY_SCBIP_V1) */
 398:Generated_Source\PSoC4/UART.c **** 
 399:Generated_Source\PSoC4/UART.c **** #elif (UART_SCB_MODE_SPI_CONST_CFG)
 400:Generated_Source\PSoC4/UART.c ****     UART_SpiPostEnable();
 401:Generated_Source\PSoC4/UART.c **** 
 402:Generated_Source\PSoC4/UART.c **** #elif (UART_SCB_MODE_UART_CONST_CFG)
 403:Generated_Source\PSoC4/UART.c ****     UART_UartPostEnable();
  72              		.loc 1 403 0
  73 000e FFF7FEFF 		bl	UART_UartPostEnable
  74              	.LVL1:
  75              	.LBE15:
  76              	.LBE14:
 192:Generated_Source\PSoC4/UART.c **** 
  77              		.loc 1 192 0
  78              		@ sp needed
  79 0012 10BD     		pop	{r4, pc}
  80              	.L4:
  81              		.align	2
  82              	.L3:
  83 0014 00000740 		.word	1074200576
  84              		.cfi_endproc
  85              	.LFE1:
  86              		.size	UART_Enable, .-UART_Enable
  87              		.section	.text.UART_Start,"ax",%progbits
  88              		.align	2
  89              		.global	UART_Start
  90              		.code	16
  91              		.thumb_func
  92              		.type	UART_Start, %function
  93              	UART_Start:
  94              	.LFB2:
 211:Generated_Source\PSoC4/UART.c ****     if (0u == UART_initVar)
  95              		.loc 1 211 0
  96              		.cfi_startproc
  97              		@ args = 0, pretend = 0, frame = 0
  98              		@ frame_needed = 0, uses_anonymous_args = 0
  99 0000 10B5     		push	{r4, lr}
 100              		.cfi_def_cfa_offset 8
 101              		.cfi_offset 4, -8
 102              		.cfi_offset 14, -4
 212:Generated_Source\PSoC4/UART.c ****     {
 103              		.loc 1 212 0
 104 0002 084C     		ldr	r4, .L8
 105 0004 2378     		ldrb	r3, [r4]
 106 0006 002B     		cmp	r3, #0
ARM GAS  C:\Users\jrdia\AppData\Local\Temp\ccEfo0RN.s 			page 10


 107 0008 03D1     		bne	.L6
 108              	.LBB16:
 109              	.LBB17:
 142:Generated_Source\PSoC4/UART.c **** 
 110              		.loc 1 142 0
 111 000a FFF7FEFF 		bl	UART_UartInit
 112              	.LVL2:
 113              	.LBE17:
 114              	.LBE16:
 215:Generated_Source\PSoC4/UART.c ****     }
 115              		.loc 1 215 0
 116 000e 0123     		movs	r3, #1
 117 0010 2370     		strb	r3, [r4]
 118              	.L6:
 119              	.LBB18:
 120              	.LBB19:
 185:Generated_Source\PSoC4/UART.c **** 
 121              		.loc 1 185 0
 122 0012 8021     		movs	r1, #128
 123 0014 044A     		ldr	r2, .L8+4
 124 0016 0906     		lsls	r1, r1, #24
 125 0018 1368     		ldr	r3, [r2]
 126              	.LBE19:
 127              	.LBE18:
 219:Generated_Source\PSoC4/UART.c **** 
 128              		.loc 1 219 0
 129              		@ sp needed
 130              	.LBB23:
 131              	.LBB22:
 185:Generated_Source\PSoC4/UART.c **** 
 132              		.loc 1 185 0
 133 001a 0B43     		orrs	r3, r1
 134 001c 1360     		str	r3, [r2]
 135              	.LBB20:
 136              	.LBB21:
 137              		.loc 1 403 0
 138 001e FFF7FEFF 		bl	UART_UartPostEnable
 139              	.LVL3:
 140              	.LBE21:
 141              	.LBE20:
 142              	.LBE22:
 143              	.LBE23:
 219:Generated_Source\PSoC4/UART.c **** 
 144              		.loc 1 219 0
 145 0022 10BD     		pop	{r4, pc}
 146              	.L9:
 147              		.align	2
 148              	.L8:
 149 0024 00000000 		.word	.LANCHOR0
 150 0028 00000740 		.word	1074200576
 151              		.cfi_endproc
 152              	.LFE2:
 153              		.size	UART_Start, .-UART_Start
 154              		.section	.text.UART_Stop,"ax",%progbits
 155              		.align	2
 156              		.global	UART_Stop
 157              		.code	16
ARM GAS  C:\Users\jrdia\AppData\Local\Temp\ccEfo0RN.s 			page 11


 158              		.thumb_func
 159              		.type	UART_Stop, %function
 160              	UART_Stop:
 161              	.LFB3:
 240:Generated_Source\PSoC4/UART.c **** #if (UART_SCB_IRQ_INTERNAL)
 162              		.loc 1 240 0
 163              		.cfi_startproc
 164              		@ args = 0, pretend = 0, frame = 0
 165              		@ frame_needed = 0, uses_anonymous_args = 0
 166 0000 10B5     		push	{r4, lr}
 167              		.cfi_def_cfa_offset 8
 168              		.cfi_offset 4, -8
 169              		.cfi_offset 14, -4
 170              	.LBB24:
 171              	.LBB25:
 404:Generated_Source\PSoC4/UART.c **** 
 405:Generated_Source\PSoC4/UART.c **** #else
 406:Generated_Source\PSoC4/UART.c ****     /* Unknown mode: do nothing */
 407:Generated_Source\PSoC4/UART.c **** #endif /* (UART_SCB_MODE_UNCONFIG_CONST_CFG) */
 408:Generated_Source\PSoC4/UART.c **** }
 409:Generated_Source\PSoC4/UART.c **** 
 410:Generated_Source\PSoC4/UART.c **** 
 411:Generated_Source\PSoC4/UART.c **** /*******************************************************************************
 412:Generated_Source\PSoC4/UART.c **** * Function Name: UART_ScbModeStop
 413:Generated_Source\PSoC4/UART.c **** ****************************************************************************//**
 414:Generated_Source\PSoC4/UART.c **** *
 415:Generated_Source\PSoC4/UART.c **** *  Calls the Stop function for a specific operation mode.
 416:Generated_Source\PSoC4/UART.c **** *
 417:Generated_Source\PSoC4/UART.c **** *******************************************************************************/
 418:Generated_Source\PSoC4/UART.c **** static void UART_ScbModeStop(void)
 419:Generated_Source\PSoC4/UART.c **** {
 420:Generated_Source\PSoC4/UART.c **** #if (UART_SCB_MODE_UNCONFIG_CONST_CFG)
 421:Generated_Source\PSoC4/UART.c ****     if (UART_SCB_MODE_I2C_RUNTM_CFG)
 422:Generated_Source\PSoC4/UART.c ****     {
 423:Generated_Source\PSoC4/UART.c ****         UART_I2CStop();
 424:Generated_Source\PSoC4/UART.c ****     }
 425:Generated_Source\PSoC4/UART.c ****     else if (UART_SCB_MODE_EZI2C_RUNTM_CFG)
 426:Generated_Source\PSoC4/UART.c ****     {
 427:Generated_Source\PSoC4/UART.c ****         UART_EzI2CStop();
 428:Generated_Source\PSoC4/UART.c ****     }
 429:Generated_Source\PSoC4/UART.c **** #if (!UART_CY_SCBIP_V1)
 430:Generated_Source\PSoC4/UART.c ****     else if (UART_SCB_MODE_SPI_RUNTM_CFG)
 431:Generated_Source\PSoC4/UART.c ****     {
 432:Generated_Source\PSoC4/UART.c ****         UART_SpiStop();
 433:Generated_Source\PSoC4/UART.c ****     }
 434:Generated_Source\PSoC4/UART.c ****     else if (UART_SCB_MODE_UART_RUNTM_CFG)
 435:Generated_Source\PSoC4/UART.c ****     {
 436:Generated_Source\PSoC4/UART.c ****         UART_UartStop();
 437:Generated_Source\PSoC4/UART.c ****     }
 438:Generated_Source\PSoC4/UART.c **** #endif /* (!UART_CY_SCBIP_V1) */
 439:Generated_Source\PSoC4/UART.c ****     else
 440:Generated_Source\PSoC4/UART.c ****     {
 441:Generated_Source\PSoC4/UART.c ****         /* Unknown mode: do nothing */
 442:Generated_Source\PSoC4/UART.c ****     }
 443:Generated_Source\PSoC4/UART.c **** #elif (UART_SCB_MODE_I2C_CONST_CFG)
 444:Generated_Source\PSoC4/UART.c ****     UART_I2CStop();
 445:Generated_Source\PSoC4/UART.c **** 
ARM GAS  C:\Users\jrdia\AppData\Local\Temp\ccEfo0RN.s 			page 12


 446:Generated_Source\PSoC4/UART.c **** #elif (UART_SCB_MODE_EZI2C_CONST_CFG)
 447:Generated_Source\PSoC4/UART.c ****     UART_EzI2CStop();
 448:Generated_Source\PSoC4/UART.c **** 
 449:Generated_Source\PSoC4/UART.c **** #elif (UART_SCB_MODE_SPI_CONST_CFG)
 450:Generated_Source\PSoC4/UART.c ****     UART_SpiStop();
 451:Generated_Source\PSoC4/UART.c **** 
 452:Generated_Source\PSoC4/UART.c **** #elif (UART_SCB_MODE_UART_CONST_CFG)
 453:Generated_Source\PSoC4/UART.c ****     UART_UartStop();
 172              		.loc 1 453 0
 173 0002 FFF7FEFF 		bl	UART_UartStop
 174              	.LVL4:
 175              	.LBE25:
 176              	.LBE24:
 249:Generated_Source\PSoC4/UART.c **** 
 177              		.loc 1 249 0
 178 0006 044A     		ldr	r2, .L11
 264:Generated_Source\PSoC4/UART.c **** 
 179              		.loc 1 264 0
 180              		@ sp needed
 249:Generated_Source\PSoC4/UART.c **** 
 181              		.loc 1 249 0
 182 0008 1368     		ldr	r3, [r2]
 183 000a 5B00     		lsls	r3, r3, #1
 184 000c 5B08     		lsrs	r3, r3, #1
 185 000e 1360     		str	r3, [r2]
 259:Generated_Source\PSoC4/UART.c **** 
 186              		.loc 1 259 0
 187 0010 0022     		movs	r2, #0
 188 0012 024B     		ldr	r3, .L11+4
 189 0014 1A60     		str	r2, [r3]
 264:Generated_Source\PSoC4/UART.c **** 
 190              		.loc 1 264 0
 191 0016 10BD     		pop	{r4, pc}
 192              	.L12:
 193              		.align	2
 194              	.L11:
 195 0018 00000740 		.word	1074200576
 196 001c 880F0740 		.word	1074204552
 197              		.cfi_endproc
 198              	.LFE3:
 199              		.size	UART_Stop, .-UART_Stop
 200              		.section	.text.UART_SetRxFifoLevel,"ax",%progbits
 201              		.align	2
 202              		.global	UART_SetRxFifoLevel
 203              		.code	16
 204              		.thumb_func
 205              		.type	UART_SetRxFifoLevel, %function
 206              	UART_SetRxFifoLevel:
 207              	.LFB4:
 280:Generated_Source\PSoC4/UART.c ****     uint32 rxFifoCtrl;
 208              		.loc 1 280 0
 209              		.cfi_startproc
 210              		@ args = 0, pretend = 0, frame = 0
 211              		@ frame_needed = 0, uses_anonymous_args = 0
 212              		@ link register save eliminated.
 213              	.LVL5:
 285:Generated_Source\PSoC4/UART.c ****     rxFifoCtrl |= ((uint32) (UART_RX_FIFO_CTRL_TRIGGER_LEVEL_MASK & level));
ARM GAS  C:\Users\jrdia\AppData\Local\Temp\ccEfo0RN.s 			page 13


 214              		.loc 1 285 0
 215 0000 0721     		movs	r1, #7
 283:Generated_Source\PSoC4/UART.c **** 
 216              		.loc 1 283 0
 217 0002 034A     		ldr	r2, .L14
 286:Generated_Source\PSoC4/UART.c **** 
 218              		.loc 1 286 0
 219 0004 0840     		ands	r0, r1
 220              	.LVL6:
 283:Generated_Source\PSoC4/UART.c **** 
 221              		.loc 1 283 0
 222 0006 1368     		ldr	r3, [r2]
 223              	.LVL7:
 289:Generated_Source\PSoC4/UART.c **** 
 224              		.loc 1 289 0
 225              		@ sp needed
 285:Generated_Source\PSoC4/UART.c ****     rxFifoCtrl |= ((uint32) (UART_RX_FIFO_CTRL_TRIGGER_LEVEL_MASK & level));
 226              		.loc 1 285 0
 227 0008 8B43     		bics	r3, r1
 228              	.LVL8:
 286:Generated_Source\PSoC4/UART.c **** 
 229              		.loc 1 286 0
 230 000a 1843     		orrs	r0, r3
 231              	.LVL9:
 288:Generated_Source\PSoC4/UART.c **** }
 232              		.loc 1 288 0
 233 000c 1060     		str	r0, [r2]
 289:Generated_Source\PSoC4/UART.c **** 
 234              		.loc 1 289 0
 235 000e 7047     		bx	lr
 236              	.L15:
 237              		.align	2
 238              	.L14:
 239 0010 04030740 		.word	1074201348
 240              		.cfi_endproc
 241              	.LFE4:
 242              		.size	UART_SetRxFifoLevel, .-UART_SetRxFifoLevel
 243              		.section	.text.UART_SetTxFifoLevel,"ax",%progbits
 244              		.align	2
 245              		.global	UART_SetTxFifoLevel
 246              		.code	16
 247              		.thumb_func
 248              		.type	UART_SetTxFifoLevel, %function
 249              	UART_SetTxFifoLevel:
 250              	.LFB5:
 305:Generated_Source\PSoC4/UART.c ****     uint32 txFifoCtrl;
 251              		.loc 1 305 0
 252              		.cfi_startproc
 253              		@ args = 0, pretend = 0, frame = 0
 254              		@ frame_needed = 0, uses_anonymous_args = 0
 255              		@ link register save eliminated.
 256              	.LVL10:
 310:Generated_Source\PSoC4/UART.c ****     txFifoCtrl |= ((uint32) (UART_TX_FIFO_CTRL_TRIGGER_LEVEL_MASK & level));
 257              		.loc 1 310 0
 258 0000 0721     		movs	r1, #7
 308:Generated_Source\PSoC4/UART.c **** 
 259              		.loc 1 308 0
ARM GAS  C:\Users\jrdia\AppData\Local\Temp\ccEfo0RN.s 			page 14


 260 0002 034A     		ldr	r2, .L17
 311:Generated_Source\PSoC4/UART.c **** 
 261              		.loc 1 311 0
 262 0004 0840     		ands	r0, r1
 263              	.LVL11:
 308:Generated_Source\PSoC4/UART.c **** 
 264              		.loc 1 308 0
 265 0006 1368     		ldr	r3, [r2]
 266              	.LVL12:
 314:Generated_Source\PSoC4/UART.c **** 
 267              		.loc 1 314 0
 268              		@ sp needed
 310:Generated_Source\PSoC4/UART.c ****     txFifoCtrl |= ((uint32) (UART_TX_FIFO_CTRL_TRIGGER_LEVEL_MASK & level));
 269              		.loc 1 310 0
 270 0008 8B43     		bics	r3, r1
 271              	.LVL13:
 311:Generated_Source\PSoC4/UART.c **** 
 272              		.loc 1 311 0
 273 000a 1843     		orrs	r0, r3
 274              	.LVL14:
 313:Generated_Source\PSoC4/UART.c **** }
 275              		.loc 1 313 0
 276 000c 1060     		str	r0, [r2]
 314:Generated_Source\PSoC4/UART.c **** 
 277              		.loc 1 314 0
 278 000e 7047     		bx	lr
 279              	.L18:
 280              		.align	2
 281              	.L17:
 282 0010 04020740 		.word	1074201092
 283              		.cfi_endproc
 284              	.LFE5:
 285              		.size	UART_SetTxFifoLevel, .-UART_SetTxFifoLevel
 286              		.section	.text.UART_I2CSlaveNackGeneration,"ax",%progbits
 287              		.align	2
 288              		.global	UART_I2CSlaveNackGeneration
 289              		.code	16
 290              		.thumb_func
 291              		.type	UART_I2CSlaveNackGeneration, %function
 292              	UART_I2CSlaveNackGeneration:
 293              	.LFB9:
 454:Generated_Source\PSoC4/UART.c **** 
 455:Generated_Source\PSoC4/UART.c **** #else
 456:Generated_Source\PSoC4/UART.c ****     /* Unknown mode: do nothing */
 457:Generated_Source\PSoC4/UART.c **** #endif /* (UART_SCB_MODE_UNCONFIG_CONST_CFG) */
 458:Generated_Source\PSoC4/UART.c **** }
 459:Generated_Source\PSoC4/UART.c **** 
 460:Generated_Source\PSoC4/UART.c **** 
 461:Generated_Source\PSoC4/UART.c **** #if (UART_SCB_MODE_UNCONFIG_CONST_CFG)
 462:Generated_Source\PSoC4/UART.c ****     /*******************************************************************************
 463:Generated_Source\PSoC4/UART.c ****     * Function Name: UART_SetPins
 464:Generated_Source\PSoC4/UART.c ****     ****************************************************************************//**
 465:Generated_Source\PSoC4/UART.c ****     *
 466:Generated_Source\PSoC4/UART.c ****     *  Sets the pins settings accordingly to the selected operation mode.
 467:Generated_Source\PSoC4/UART.c ****     *  Only available in the Unconfigured operation mode. The mode specific
 468:Generated_Source\PSoC4/UART.c ****     *  initialization function calls it.
 469:Generated_Source\PSoC4/UART.c ****     *  Pins configuration is set by PSoC Creator when a specific mode of operation
ARM GAS  C:\Users\jrdia\AppData\Local\Temp\ccEfo0RN.s 			page 15


 470:Generated_Source\PSoC4/UART.c ****     *  is selected in design time.
 471:Generated_Source\PSoC4/UART.c ****     *
 472:Generated_Source\PSoC4/UART.c ****     *  \param mode:      Mode of SCB operation.
 473:Generated_Source\PSoC4/UART.c ****     *  \param subMode:   Sub-mode of SCB operation. It is only required for SPI and UART
 474:Generated_Source\PSoC4/UART.c ****     *             modes.
 475:Generated_Source\PSoC4/UART.c ****     *  \param uartEnableMask: enables TX or RX direction and RTS and CTS signals.
 476:Generated_Source\PSoC4/UART.c ****     *
 477:Generated_Source\PSoC4/UART.c ****     *******************************************************************************/
 478:Generated_Source\PSoC4/UART.c ****     void UART_SetPins(uint32 mode, uint32 subMode, uint32 uartEnableMask)
 479:Generated_Source\PSoC4/UART.c ****     {
 480:Generated_Source\PSoC4/UART.c ****         uint32 pinsDm[UART_SCB_PINS_NUMBER];
 481:Generated_Source\PSoC4/UART.c ****         uint32 i;
 482:Generated_Source\PSoC4/UART.c ****         
 483:Generated_Source\PSoC4/UART.c ****     #if (!UART_CY_SCBIP_V1)
 484:Generated_Source\PSoC4/UART.c ****         uint32 pinsInBuf = 0u;
 485:Generated_Source\PSoC4/UART.c ****     #endif /* (!UART_CY_SCBIP_V1) */
 486:Generated_Source\PSoC4/UART.c ****         
 487:Generated_Source\PSoC4/UART.c ****         uint32 hsiomSel[UART_SCB_PINS_NUMBER] = 
 488:Generated_Source\PSoC4/UART.c ****         {
 489:Generated_Source\PSoC4/UART.c ****             UART_RX_SCL_MOSI_HSIOM_SEL_GPIO,
 490:Generated_Source\PSoC4/UART.c ****             UART_TX_SDA_MISO_HSIOM_SEL_GPIO,
 491:Generated_Source\PSoC4/UART.c ****             0u,
 492:Generated_Source\PSoC4/UART.c ****             0u,
 493:Generated_Source\PSoC4/UART.c ****             0u,
 494:Generated_Source\PSoC4/UART.c ****             0u,
 495:Generated_Source\PSoC4/UART.c ****             0u,
 496:Generated_Source\PSoC4/UART.c ****         };
 497:Generated_Source\PSoC4/UART.c **** 
 498:Generated_Source\PSoC4/UART.c ****     #if (UART_CY_SCBIP_V1)
 499:Generated_Source\PSoC4/UART.c ****         /* Supress compiler warning. */
 500:Generated_Source\PSoC4/UART.c ****         if ((0u == subMode) || (0u == uartEnableMask))
 501:Generated_Source\PSoC4/UART.c ****         {
 502:Generated_Source\PSoC4/UART.c ****         }
 503:Generated_Source\PSoC4/UART.c ****     #endif /* (UART_CY_SCBIP_V1) */
 504:Generated_Source\PSoC4/UART.c **** 
 505:Generated_Source\PSoC4/UART.c ****         /* Set default HSIOM to GPIO and Drive Mode to Analog Hi-Z */
 506:Generated_Source\PSoC4/UART.c ****         for (i = 0u; i < UART_SCB_PINS_NUMBER; i++)
 507:Generated_Source\PSoC4/UART.c ****         {
 508:Generated_Source\PSoC4/UART.c ****             pinsDm[i] = UART_PIN_DM_ALG_HIZ;
 509:Generated_Source\PSoC4/UART.c ****         }
 510:Generated_Source\PSoC4/UART.c **** 
 511:Generated_Source\PSoC4/UART.c ****         if ((UART_SCB_MODE_I2C   == mode) ||
 512:Generated_Source\PSoC4/UART.c ****             (UART_SCB_MODE_EZI2C == mode))
 513:Generated_Source\PSoC4/UART.c ****         {
 514:Generated_Source\PSoC4/UART.c ****         #if (UART_RX_SCL_MOSI_PIN)
 515:Generated_Source\PSoC4/UART.c ****             hsiomSel[UART_RX_SCL_MOSI_PIN_INDEX] = UART_RX_SCL_MOSI_HSIOM_SEL_I2C;
 516:Generated_Source\PSoC4/UART.c ****             pinsDm  [UART_RX_SCL_MOSI_PIN_INDEX] = UART_PIN_DM_OD_LO;
 517:Generated_Source\PSoC4/UART.c ****         #elif (UART_RX_WAKE_SCL_MOSI_PIN)
 518:Generated_Source\PSoC4/UART.c ****             hsiomSel[UART_RX_WAKE_SCL_MOSI_PIN_INDEX] = UART_RX_WAKE_SCL_MOSI_HSIOM_SEL_I2C;
 519:Generated_Source\PSoC4/UART.c ****             pinsDm  [UART_RX_WAKE_SCL_MOSI_PIN_INDEX] = UART_PIN_DM_OD_LO;
 520:Generated_Source\PSoC4/UART.c ****         #else
 521:Generated_Source\PSoC4/UART.c ****         #endif /* (UART_RX_SCL_MOSI_PIN) */
 522:Generated_Source\PSoC4/UART.c ****         
 523:Generated_Source\PSoC4/UART.c ****         #if (UART_TX_SDA_MISO_PIN)
 524:Generated_Source\PSoC4/UART.c ****             hsiomSel[UART_TX_SDA_MISO_PIN_INDEX] = UART_TX_SDA_MISO_HSIOM_SEL_I2C;
 525:Generated_Source\PSoC4/UART.c ****             pinsDm  [UART_TX_SDA_MISO_PIN_INDEX] = UART_PIN_DM_OD_LO;
 526:Generated_Source\PSoC4/UART.c ****         #endif /* (UART_TX_SDA_MISO_PIN) */
ARM GAS  C:\Users\jrdia\AppData\Local\Temp\ccEfo0RN.s 			page 16


 527:Generated_Source\PSoC4/UART.c ****         }
 528:Generated_Source\PSoC4/UART.c ****     #if (!UART_CY_SCBIP_V1)
 529:Generated_Source\PSoC4/UART.c ****         else if (UART_SCB_MODE_SPI == mode)
 530:Generated_Source\PSoC4/UART.c ****         {
 531:Generated_Source\PSoC4/UART.c ****         #if (UART_RX_SCL_MOSI_PIN)
 532:Generated_Source\PSoC4/UART.c ****             hsiomSel[UART_RX_SCL_MOSI_PIN_INDEX] = UART_RX_SCL_MOSI_HSIOM_SEL_SPI;
 533:Generated_Source\PSoC4/UART.c ****         #elif (UART_RX_WAKE_SCL_MOSI_PIN)
 534:Generated_Source\PSoC4/UART.c ****             hsiomSel[UART_RX_WAKE_SCL_MOSI_PIN_INDEX] = UART_RX_WAKE_SCL_MOSI_HSIOM_SEL_SPI;
 535:Generated_Source\PSoC4/UART.c ****         #else
 536:Generated_Source\PSoC4/UART.c ****         #endif /* (UART_RX_SCL_MOSI_PIN) */
 537:Generated_Source\PSoC4/UART.c ****         
 538:Generated_Source\PSoC4/UART.c ****         #if (UART_TX_SDA_MISO_PIN)
 539:Generated_Source\PSoC4/UART.c ****             hsiomSel[UART_TX_SDA_MISO_PIN_INDEX] = UART_TX_SDA_MISO_HSIOM_SEL_SPI;
 540:Generated_Source\PSoC4/UART.c ****         #endif /* (UART_TX_SDA_MISO_PIN) */
 541:Generated_Source\PSoC4/UART.c ****         
 542:Generated_Source\PSoC4/UART.c ****         #if (UART_SCLK_PIN)
 543:Generated_Source\PSoC4/UART.c ****             hsiomSel[UART_SCLK_PIN_INDEX] = UART_SCLK_HSIOM_SEL_SPI;
 544:Generated_Source\PSoC4/UART.c ****         #endif /* (UART_SCLK_PIN) */
 545:Generated_Source\PSoC4/UART.c **** 
 546:Generated_Source\PSoC4/UART.c ****             if (UART_SPI_SLAVE == subMode)
 547:Generated_Source\PSoC4/UART.c ****             {
 548:Generated_Source\PSoC4/UART.c ****                 /* Slave */
 549:Generated_Source\PSoC4/UART.c ****                 pinsDm[UART_RX_SCL_MOSI_PIN_INDEX] = UART_PIN_DM_DIG_HIZ;
 550:Generated_Source\PSoC4/UART.c ****                 pinsDm[UART_TX_SDA_MISO_PIN_INDEX] = UART_PIN_DM_STRONG;
 551:Generated_Source\PSoC4/UART.c ****                 pinsDm[UART_SCLK_PIN_INDEX] = UART_PIN_DM_DIG_HIZ;
 552:Generated_Source\PSoC4/UART.c **** 
 553:Generated_Source\PSoC4/UART.c ****             #if (UART_SS0_PIN)
 554:Generated_Source\PSoC4/UART.c ****                 /* Only SS0 is valid choice for Slave */
 555:Generated_Source\PSoC4/UART.c ****                 hsiomSel[UART_SS0_PIN_INDEX] = UART_SS0_HSIOM_SEL_SPI;
 556:Generated_Source\PSoC4/UART.c ****                 pinsDm  [UART_SS0_PIN_INDEX] = UART_PIN_DM_DIG_HIZ;
 557:Generated_Source\PSoC4/UART.c ****             #endif /* (UART_SS0_PIN) */
 558:Generated_Source\PSoC4/UART.c **** 
 559:Generated_Source\PSoC4/UART.c ****             #if (UART_TX_SDA_MISO_PIN)
 560:Generated_Source\PSoC4/UART.c ****                 /* Disable input buffer */
 561:Generated_Source\PSoC4/UART.c ****                  pinsInBuf |= UART_TX_SDA_MISO_PIN_MASK;
 562:Generated_Source\PSoC4/UART.c ****             #endif /* (UART_TX_SDA_MISO_PIN) */
 563:Generated_Source\PSoC4/UART.c ****             }
 564:Generated_Source\PSoC4/UART.c ****             else 
 565:Generated_Source\PSoC4/UART.c ****             {
 566:Generated_Source\PSoC4/UART.c ****                 /* (Master) */
 567:Generated_Source\PSoC4/UART.c ****                 pinsDm[UART_RX_SCL_MOSI_PIN_INDEX] = UART_PIN_DM_STRONG;
 568:Generated_Source\PSoC4/UART.c ****                 pinsDm[UART_TX_SDA_MISO_PIN_INDEX] = UART_PIN_DM_DIG_HIZ;
 569:Generated_Source\PSoC4/UART.c ****                 pinsDm[UART_SCLK_PIN_INDEX] = UART_PIN_DM_STRONG;
 570:Generated_Source\PSoC4/UART.c **** 
 571:Generated_Source\PSoC4/UART.c ****             #if (UART_SS0_PIN)
 572:Generated_Source\PSoC4/UART.c ****                 hsiomSel [UART_SS0_PIN_INDEX] = UART_SS0_HSIOM_SEL_SPI;
 573:Generated_Source\PSoC4/UART.c ****                 pinsDm   [UART_SS0_PIN_INDEX] = UART_PIN_DM_STRONG;
 574:Generated_Source\PSoC4/UART.c ****                 pinsInBuf |= UART_SS0_PIN_MASK;
 575:Generated_Source\PSoC4/UART.c ****             #endif /* (UART_SS0_PIN) */
 576:Generated_Source\PSoC4/UART.c **** 
 577:Generated_Source\PSoC4/UART.c ****             #if (UART_SS1_PIN)
 578:Generated_Source\PSoC4/UART.c ****                 hsiomSel [UART_SS1_PIN_INDEX] = UART_SS1_HSIOM_SEL_SPI;
 579:Generated_Source\PSoC4/UART.c ****                 pinsDm   [UART_SS1_PIN_INDEX] = UART_PIN_DM_STRONG;
 580:Generated_Source\PSoC4/UART.c ****                 pinsInBuf |= UART_SS1_PIN_MASK;
 581:Generated_Source\PSoC4/UART.c ****             #endif /* (UART_SS1_PIN) */
 582:Generated_Source\PSoC4/UART.c **** 
 583:Generated_Source\PSoC4/UART.c ****             #if (UART_SS2_PIN)
ARM GAS  C:\Users\jrdia\AppData\Local\Temp\ccEfo0RN.s 			page 17


 584:Generated_Source\PSoC4/UART.c ****                 hsiomSel [UART_SS2_PIN_INDEX] = UART_SS2_HSIOM_SEL_SPI;
 585:Generated_Source\PSoC4/UART.c ****                 pinsDm   [UART_SS2_PIN_INDEX] = UART_PIN_DM_STRONG;
 586:Generated_Source\PSoC4/UART.c ****                 pinsInBuf |= UART_SS2_PIN_MASK;
 587:Generated_Source\PSoC4/UART.c ****             #endif /* (UART_SS2_PIN) */
 588:Generated_Source\PSoC4/UART.c **** 
 589:Generated_Source\PSoC4/UART.c ****             #if (UART_SS3_PIN)
 590:Generated_Source\PSoC4/UART.c ****                 hsiomSel [UART_SS3_PIN_INDEX] = UART_SS3_HSIOM_SEL_SPI;
 591:Generated_Source\PSoC4/UART.c ****                 pinsDm   [UART_SS3_PIN_INDEX] = UART_PIN_DM_STRONG;
 592:Generated_Source\PSoC4/UART.c ****                 pinsInBuf |= UART_SS3_PIN_MASK;
 593:Generated_Source\PSoC4/UART.c ****             #endif /* (UART_SS3_PIN) */
 594:Generated_Source\PSoC4/UART.c **** 
 595:Generated_Source\PSoC4/UART.c ****                 /* Disable input buffers */
 596:Generated_Source\PSoC4/UART.c ****             #if (UART_RX_SCL_MOSI_PIN)
 597:Generated_Source\PSoC4/UART.c ****                 pinsInBuf |= UART_RX_SCL_MOSI_PIN_MASK;
 598:Generated_Source\PSoC4/UART.c ****             #elif (UART_RX_WAKE_SCL_MOSI_PIN)
 599:Generated_Source\PSoC4/UART.c ****                 pinsInBuf |= UART_RX_WAKE_SCL_MOSI_PIN_MASK;
 600:Generated_Source\PSoC4/UART.c ****             #else
 601:Generated_Source\PSoC4/UART.c ****             #endif /* (UART_RX_SCL_MOSI_PIN) */
 602:Generated_Source\PSoC4/UART.c **** 
 603:Generated_Source\PSoC4/UART.c ****             #if (UART_SCLK_PIN)
 604:Generated_Source\PSoC4/UART.c ****                 pinsInBuf |= UART_SCLK_PIN_MASK;
 605:Generated_Source\PSoC4/UART.c ****             #endif /* (UART_SCLK_PIN) */
 606:Generated_Source\PSoC4/UART.c ****             }
 607:Generated_Source\PSoC4/UART.c ****         }
 608:Generated_Source\PSoC4/UART.c ****         else /* UART */
 609:Generated_Source\PSoC4/UART.c ****         {
 610:Generated_Source\PSoC4/UART.c ****             if (UART_UART_MODE_SMARTCARD == subMode)
 611:Generated_Source\PSoC4/UART.c ****             {
 612:Generated_Source\PSoC4/UART.c ****                 /* SmartCard */
 613:Generated_Source\PSoC4/UART.c ****             #if (UART_TX_SDA_MISO_PIN)
 614:Generated_Source\PSoC4/UART.c ****                 hsiomSel[UART_TX_SDA_MISO_PIN_INDEX] = UART_TX_SDA_MISO_HSIOM_SEL_UART;
 615:Generated_Source\PSoC4/UART.c ****                 pinsDm  [UART_TX_SDA_MISO_PIN_INDEX] = UART_PIN_DM_OD_LO;
 616:Generated_Source\PSoC4/UART.c ****             #endif /* (UART_TX_SDA_MISO_PIN) */
 617:Generated_Source\PSoC4/UART.c ****             }
 618:Generated_Source\PSoC4/UART.c ****             else /* Standard or IrDA */
 619:Generated_Source\PSoC4/UART.c ****             {
 620:Generated_Source\PSoC4/UART.c ****                 if (0u != (UART_UART_RX_PIN_ENABLE & uartEnableMask))
 621:Generated_Source\PSoC4/UART.c ****                 {
 622:Generated_Source\PSoC4/UART.c ****                 #if (UART_RX_SCL_MOSI_PIN)
 623:Generated_Source\PSoC4/UART.c ****                     hsiomSel[UART_RX_SCL_MOSI_PIN_INDEX] = UART_RX_SCL_MOSI_HSIOM_SEL_UART;
 624:Generated_Source\PSoC4/UART.c ****                     pinsDm  [UART_RX_SCL_MOSI_PIN_INDEX] = UART_PIN_DM_DIG_HIZ;
 625:Generated_Source\PSoC4/UART.c ****                 #elif (UART_RX_WAKE_SCL_MOSI_PIN)
 626:Generated_Source\PSoC4/UART.c ****                     hsiomSel[UART_RX_WAKE_SCL_MOSI_PIN_INDEX] = UART_RX_WAKE_SCL_MOSI_HSIOM_SEL_UAR
 627:Generated_Source\PSoC4/UART.c ****                     pinsDm  [UART_RX_WAKE_SCL_MOSI_PIN_INDEX] = UART_PIN_DM_DIG_HIZ;
 628:Generated_Source\PSoC4/UART.c ****                 #else
 629:Generated_Source\PSoC4/UART.c ****                 #endif /* (UART_RX_SCL_MOSI_PIN) */
 630:Generated_Source\PSoC4/UART.c ****                 }
 631:Generated_Source\PSoC4/UART.c **** 
 632:Generated_Source\PSoC4/UART.c ****                 if (0u != (UART_UART_TX_PIN_ENABLE & uartEnableMask))
 633:Generated_Source\PSoC4/UART.c ****                 {
 634:Generated_Source\PSoC4/UART.c ****                 #if (UART_TX_SDA_MISO_PIN)
 635:Generated_Source\PSoC4/UART.c ****                     hsiomSel[UART_TX_SDA_MISO_PIN_INDEX] = UART_TX_SDA_MISO_HSIOM_SEL_UART;
 636:Generated_Source\PSoC4/UART.c ****                     pinsDm  [UART_TX_SDA_MISO_PIN_INDEX] = UART_PIN_DM_STRONG;
 637:Generated_Source\PSoC4/UART.c ****                     
 638:Generated_Source\PSoC4/UART.c ****                     /* Disable input buffer */
 639:Generated_Source\PSoC4/UART.c ****                     pinsInBuf |= UART_TX_SDA_MISO_PIN_MASK;
 640:Generated_Source\PSoC4/UART.c ****                 #endif /* (UART_TX_SDA_MISO_PIN) */
ARM GAS  C:\Users\jrdia\AppData\Local\Temp\ccEfo0RN.s 			page 18


 641:Generated_Source\PSoC4/UART.c ****                 }
 642:Generated_Source\PSoC4/UART.c **** 
 643:Generated_Source\PSoC4/UART.c ****             #if !(UART_CY_SCBIP_V0 || UART_CY_SCBIP_V1)
 644:Generated_Source\PSoC4/UART.c ****                 if (UART_UART_MODE_STD == subMode)
 645:Generated_Source\PSoC4/UART.c ****                 {
 646:Generated_Source\PSoC4/UART.c ****                     if (0u != (UART_UART_CTS_PIN_ENABLE & uartEnableMask))
 647:Generated_Source\PSoC4/UART.c ****                     {
 648:Generated_Source\PSoC4/UART.c ****                         /* CTS input is multiplexed with SCLK */
 649:Generated_Source\PSoC4/UART.c ****                     #if (UART_SCLK_PIN)
 650:Generated_Source\PSoC4/UART.c ****                         hsiomSel[UART_SCLK_PIN_INDEX] = UART_SCLK_HSIOM_SEL_UART;
 651:Generated_Source\PSoC4/UART.c ****                         pinsDm  [UART_SCLK_PIN_INDEX] = UART_PIN_DM_DIG_HIZ;
 652:Generated_Source\PSoC4/UART.c ****                     #endif /* (UART_SCLK_PIN) */
 653:Generated_Source\PSoC4/UART.c ****                     }
 654:Generated_Source\PSoC4/UART.c **** 
 655:Generated_Source\PSoC4/UART.c ****                     if (0u != (UART_UART_RTS_PIN_ENABLE & uartEnableMask))
 656:Generated_Source\PSoC4/UART.c ****                     {
 657:Generated_Source\PSoC4/UART.c ****                         /* RTS output is multiplexed with SS0 */
 658:Generated_Source\PSoC4/UART.c ****                     #if (UART_SS0_PIN)
 659:Generated_Source\PSoC4/UART.c ****                         hsiomSel[UART_SS0_PIN_INDEX] = UART_SS0_HSIOM_SEL_UART;
 660:Generated_Source\PSoC4/UART.c ****                         pinsDm  [UART_SS0_PIN_INDEX] = UART_PIN_DM_STRONG;
 661:Generated_Source\PSoC4/UART.c ****                         
 662:Generated_Source\PSoC4/UART.c ****                         /* Disable input buffer */
 663:Generated_Source\PSoC4/UART.c ****                         pinsInBuf |= UART_SS0_PIN_MASK;
 664:Generated_Source\PSoC4/UART.c ****                     #endif /* (UART_SS0_PIN) */
 665:Generated_Source\PSoC4/UART.c ****                     }
 666:Generated_Source\PSoC4/UART.c ****                 }
 667:Generated_Source\PSoC4/UART.c ****             #endif /* !(UART_CY_SCBIP_V0 || UART_CY_SCBIP_V1) */
 668:Generated_Source\PSoC4/UART.c ****             }
 669:Generated_Source\PSoC4/UART.c ****         }
 670:Generated_Source\PSoC4/UART.c ****     #endif /* (!UART_CY_SCBIP_V1) */
 671:Generated_Source\PSoC4/UART.c **** 
 672:Generated_Source\PSoC4/UART.c ****     /* Configure pins: set HSIOM, DM and InputBufEnable */
 673:Generated_Source\PSoC4/UART.c ****     /* Note: the DR register settings do not effect the pin output if HSIOM is other than GPIO */
 674:Generated_Source\PSoC4/UART.c **** 
 675:Generated_Source\PSoC4/UART.c ****     #if (UART_RX_SCL_MOSI_PIN)
 676:Generated_Source\PSoC4/UART.c ****         UART_SET_HSIOM_SEL(UART_RX_SCL_MOSI_HSIOM_REG,
 677:Generated_Source\PSoC4/UART.c ****                                        UART_RX_SCL_MOSI_HSIOM_MASK,
 678:Generated_Source\PSoC4/UART.c ****                                        UART_RX_SCL_MOSI_HSIOM_POS,
 679:Generated_Source\PSoC4/UART.c ****                                         hsiomSel[UART_RX_SCL_MOSI_PIN_INDEX]);
 680:Generated_Source\PSoC4/UART.c **** 
 681:Generated_Source\PSoC4/UART.c ****         UART_uart_rx_i2c_scl_spi_mosi_SetDriveMode((uint8) pinsDm[UART_RX_SCL_MOSI_PIN_INDEX]);
 682:Generated_Source\PSoC4/UART.c **** 
 683:Generated_Source\PSoC4/UART.c ****         #if (!UART_CY_SCBIP_V1)
 684:Generated_Source\PSoC4/UART.c ****             UART_SET_INP_DIS(UART_uart_rx_i2c_scl_spi_mosi_INP_DIS,
 685:Generated_Source\PSoC4/UART.c ****                                          UART_uart_rx_i2c_scl_spi_mosi_MASK,
 686:Generated_Source\PSoC4/UART.c ****                                          (0u != (pinsInBuf & UART_RX_SCL_MOSI_PIN_MASK)));
 687:Generated_Source\PSoC4/UART.c ****         #endif /* (!UART_CY_SCBIP_V1) */
 688:Generated_Source\PSoC4/UART.c ****     
 689:Generated_Source\PSoC4/UART.c ****     #elif (UART_RX_WAKE_SCL_MOSI_PIN)
 690:Generated_Source\PSoC4/UART.c ****         UART_SET_HSIOM_SEL(UART_RX_WAKE_SCL_MOSI_HSIOM_REG,
 691:Generated_Source\PSoC4/UART.c ****                                        UART_RX_WAKE_SCL_MOSI_HSIOM_MASK,
 692:Generated_Source\PSoC4/UART.c ****                                        UART_RX_WAKE_SCL_MOSI_HSIOM_POS,
 693:Generated_Source\PSoC4/UART.c ****                                        hsiomSel[UART_RX_WAKE_SCL_MOSI_PIN_INDEX]);
 694:Generated_Source\PSoC4/UART.c **** 
 695:Generated_Source\PSoC4/UART.c ****         UART_uart_rx_wake_i2c_scl_spi_mosi_SetDriveMode((uint8)
 696:Generated_Source\PSoC4/UART.c ****                                                                pinsDm[UART_RX_WAKE_SCL_MOSI_PIN_IND
 697:Generated_Source\PSoC4/UART.c **** 
ARM GAS  C:\Users\jrdia\AppData\Local\Temp\ccEfo0RN.s 			page 19


 698:Generated_Source\PSoC4/UART.c ****         UART_SET_INP_DIS(UART_uart_rx_wake_i2c_scl_spi_mosi_INP_DIS,
 699:Generated_Source\PSoC4/UART.c ****                                      UART_uart_rx_wake_i2c_scl_spi_mosi_MASK,
 700:Generated_Source\PSoC4/UART.c ****                                      (0u != (pinsInBuf & UART_RX_WAKE_SCL_MOSI_PIN_MASK)));
 701:Generated_Source\PSoC4/UART.c **** 
 702:Generated_Source\PSoC4/UART.c ****          /* Set interrupt on falling edge */
 703:Generated_Source\PSoC4/UART.c ****         UART_SET_INCFG_TYPE(UART_RX_WAKE_SCL_MOSI_INTCFG_REG,
 704:Generated_Source\PSoC4/UART.c ****                                         UART_RX_WAKE_SCL_MOSI_INTCFG_TYPE_MASK,
 705:Generated_Source\PSoC4/UART.c ****                                         UART_RX_WAKE_SCL_MOSI_INTCFG_TYPE_POS,
 706:Generated_Source\PSoC4/UART.c ****                                         UART_INTCFG_TYPE_FALLING_EDGE);
 707:Generated_Source\PSoC4/UART.c ****     #else
 708:Generated_Source\PSoC4/UART.c ****     #endif /* (UART_RX_WAKE_SCL_MOSI_PIN) */
 709:Generated_Source\PSoC4/UART.c **** 
 710:Generated_Source\PSoC4/UART.c ****     #if (UART_TX_SDA_MISO_PIN)
 711:Generated_Source\PSoC4/UART.c ****         UART_SET_HSIOM_SEL(UART_TX_SDA_MISO_HSIOM_REG,
 712:Generated_Source\PSoC4/UART.c ****                                        UART_TX_SDA_MISO_HSIOM_MASK,
 713:Generated_Source\PSoC4/UART.c ****                                        UART_TX_SDA_MISO_HSIOM_POS,
 714:Generated_Source\PSoC4/UART.c ****                                         hsiomSel[UART_TX_SDA_MISO_PIN_INDEX]);
 715:Generated_Source\PSoC4/UART.c **** 
 716:Generated_Source\PSoC4/UART.c ****         UART_uart_tx_i2c_sda_spi_miso_SetDriveMode((uint8) pinsDm[UART_TX_SDA_MISO_PIN_INDEX]);
 717:Generated_Source\PSoC4/UART.c **** 
 718:Generated_Source\PSoC4/UART.c ****     #if (!UART_CY_SCBIP_V1)
 719:Generated_Source\PSoC4/UART.c ****         UART_SET_INP_DIS(UART_uart_tx_i2c_sda_spi_miso_INP_DIS,
 720:Generated_Source\PSoC4/UART.c ****                                      UART_uart_tx_i2c_sda_spi_miso_MASK,
 721:Generated_Source\PSoC4/UART.c ****                                     (0u != (pinsInBuf & UART_TX_SDA_MISO_PIN_MASK)));
 722:Generated_Source\PSoC4/UART.c ****     #endif /* (!UART_CY_SCBIP_V1) */
 723:Generated_Source\PSoC4/UART.c ****     #endif /* (UART_RX_SCL_MOSI_PIN) */
 724:Generated_Source\PSoC4/UART.c **** 
 725:Generated_Source\PSoC4/UART.c ****     #if (UART_SCLK_PIN)
 726:Generated_Source\PSoC4/UART.c ****         UART_SET_HSIOM_SEL(UART_SCLK_HSIOM_REG,
 727:Generated_Source\PSoC4/UART.c ****                                        UART_SCLK_HSIOM_MASK,
 728:Generated_Source\PSoC4/UART.c ****                                        UART_SCLK_HSIOM_POS,
 729:Generated_Source\PSoC4/UART.c ****                                        hsiomSel[UART_SCLK_PIN_INDEX]);
 730:Generated_Source\PSoC4/UART.c **** 
 731:Generated_Source\PSoC4/UART.c ****         UART_spi_sclk_SetDriveMode((uint8) pinsDm[UART_SCLK_PIN_INDEX]);
 732:Generated_Source\PSoC4/UART.c **** 
 733:Generated_Source\PSoC4/UART.c ****         UART_SET_INP_DIS(UART_spi_sclk_INP_DIS,
 734:Generated_Source\PSoC4/UART.c ****                                      UART_spi_sclk_MASK,
 735:Generated_Source\PSoC4/UART.c ****                                      (0u != (pinsInBuf & UART_SCLK_PIN_MASK)));
 736:Generated_Source\PSoC4/UART.c ****     #endif /* (UART_SCLK_PIN) */
 737:Generated_Source\PSoC4/UART.c **** 
 738:Generated_Source\PSoC4/UART.c ****     #if (UART_SS0_PIN)
 739:Generated_Source\PSoC4/UART.c ****         UART_SET_HSIOM_SEL(UART_SS0_HSIOM_REG,
 740:Generated_Source\PSoC4/UART.c ****                                        UART_SS0_HSIOM_MASK,
 741:Generated_Source\PSoC4/UART.c ****                                        UART_SS0_HSIOM_POS,
 742:Generated_Source\PSoC4/UART.c ****                                        hsiomSel[UART_SS0_PIN_INDEX]);
 743:Generated_Source\PSoC4/UART.c **** 
 744:Generated_Source\PSoC4/UART.c ****         UART_spi_ss0_SetDriveMode((uint8) pinsDm[UART_SS0_PIN_INDEX]);
 745:Generated_Source\PSoC4/UART.c **** 
 746:Generated_Source\PSoC4/UART.c ****         UART_SET_INP_DIS(UART_spi_ss0_INP_DIS,
 747:Generated_Source\PSoC4/UART.c ****                                      UART_spi_ss0_MASK,
 748:Generated_Source\PSoC4/UART.c ****                                      (0u != (pinsInBuf & UART_SS0_PIN_MASK)));
 749:Generated_Source\PSoC4/UART.c ****     #endif /* (UART_SS0_PIN) */
 750:Generated_Source\PSoC4/UART.c **** 
 751:Generated_Source\PSoC4/UART.c ****     #if (UART_SS1_PIN)
 752:Generated_Source\PSoC4/UART.c ****         UART_SET_HSIOM_SEL(UART_SS1_HSIOM_REG,
 753:Generated_Source\PSoC4/UART.c ****                                        UART_SS1_HSIOM_MASK,
 754:Generated_Source\PSoC4/UART.c ****                                        UART_SS1_HSIOM_POS,
ARM GAS  C:\Users\jrdia\AppData\Local\Temp\ccEfo0RN.s 			page 20


 755:Generated_Source\PSoC4/UART.c ****                                        hsiomSel[UART_SS1_PIN_INDEX]);
 756:Generated_Source\PSoC4/UART.c **** 
 757:Generated_Source\PSoC4/UART.c ****         UART_spi_ss1_SetDriveMode((uint8) pinsDm[UART_SS1_PIN_INDEX]);
 758:Generated_Source\PSoC4/UART.c **** 
 759:Generated_Source\PSoC4/UART.c ****         UART_SET_INP_DIS(UART_spi_ss1_INP_DIS,
 760:Generated_Source\PSoC4/UART.c ****                                      UART_spi_ss1_MASK,
 761:Generated_Source\PSoC4/UART.c ****                                      (0u != (pinsInBuf & UART_SS1_PIN_MASK)));
 762:Generated_Source\PSoC4/UART.c ****     #endif /* (UART_SS1_PIN) */
 763:Generated_Source\PSoC4/UART.c **** 
 764:Generated_Source\PSoC4/UART.c ****     #if (UART_SS2_PIN)
 765:Generated_Source\PSoC4/UART.c ****         UART_SET_HSIOM_SEL(UART_SS2_HSIOM_REG,
 766:Generated_Source\PSoC4/UART.c ****                                        UART_SS2_HSIOM_MASK,
 767:Generated_Source\PSoC4/UART.c ****                                        UART_SS2_HSIOM_POS,
 768:Generated_Source\PSoC4/UART.c ****                                        hsiomSel[UART_SS2_PIN_INDEX]);
 769:Generated_Source\PSoC4/UART.c **** 
 770:Generated_Source\PSoC4/UART.c ****         UART_spi_ss2_SetDriveMode((uint8) pinsDm[UART_SS2_PIN_INDEX]);
 771:Generated_Source\PSoC4/UART.c **** 
 772:Generated_Source\PSoC4/UART.c ****         UART_SET_INP_DIS(UART_spi_ss2_INP_DIS,
 773:Generated_Source\PSoC4/UART.c ****                                      UART_spi_ss2_MASK,
 774:Generated_Source\PSoC4/UART.c ****                                      (0u != (pinsInBuf & UART_SS2_PIN_MASK)));
 775:Generated_Source\PSoC4/UART.c ****     #endif /* (UART_SS2_PIN) */
 776:Generated_Source\PSoC4/UART.c **** 
 777:Generated_Source\PSoC4/UART.c ****     #if (UART_SS3_PIN)
 778:Generated_Source\PSoC4/UART.c ****         UART_SET_HSIOM_SEL(UART_SS3_HSIOM_REG,
 779:Generated_Source\PSoC4/UART.c ****                                        UART_SS3_HSIOM_MASK,
 780:Generated_Source\PSoC4/UART.c ****                                        UART_SS3_HSIOM_POS,
 781:Generated_Source\PSoC4/UART.c ****                                        hsiomSel[UART_SS3_PIN_INDEX]);
 782:Generated_Source\PSoC4/UART.c **** 
 783:Generated_Source\PSoC4/UART.c ****         UART_spi_ss3_SetDriveMode((uint8) pinsDm[UART_SS3_PIN_INDEX]);
 784:Generated_Source\PSoC4/UART.c **** 
 785:Generated_Source\PSoC4/UART.c ****         UART_SET_INP_DIS(UART_spi_ss3_INP_DIS,
 786:Generated_Source\PSoC4/UART.c ****                                      UART_spi_ss3_MASK,
 787:Generated_Source\PSoC4/UART.c ****                                      (0u != (pinsInBuf & UART_SS3_PIN_MASK)));
 788:Generated_Source\PSoC4/UART.c ****     #endif /* (UART_SS3_PIN) */
 789:Generated_Source\PSoC4/UART.c ****     }
 790:Generated_Source\PSoC4/UART.c **** 
 791:Generated_Source\PSoC4/UART.c **** #endif /* (UART_SCB_MODE_UNCONFIG_CONST_CFG) */
 792:Generated_Source\PSoC4/UART.c **** 
 793:Generated_Source\PSoC4/UART.c **** 
 794:Generated_Source\PSoC4/UART.c **** #if (UART_CY_SCBIP_V0 || UART_CY_SCBIP_V1)
 795:Generated_Source\PSoC4/UART.c ****     /*******************************************************************************
 796:Generated_Source\PSoC4/UART.c ****     * Function Name: UART_I2CSlaveNackGeneration
 797:Generated_Source\PSoC4/UART.c ****     ****************************************************************************//**
 798:Generated_Source\PSoC4/UART.c ****     *
 799:Generated_Source\PSoC4/UART.c ****     *  Sets command to generate NACK to the address or data.
 800:Generated_Source\PSoC4/UART.c ****     *
 801:Generated_Source\PSoC4/UART.c ****     *******************************************************************************/
 802:Generated_Source\PSoC4/UART.c ****     void UART_I2CSlaveNackGeneration(void)
 803:Generated_Source\PSoC4/UART.c ****     {
 294              		.loc 1 803 0
 295              		.cfi_startproc
 296              		@ args = 0, pretend = 0, frame = 0
 297              		@ frame_needed = 0, uses_anonymous_args = 0
 298              		@ link register save eliminated.
 804:Generated_Source\PSoC4/UART.c ****         /* Check for EC_AM toggle condition: EC_AM and clock stretching for address are enabled */
 805:Generated_Source\PSoC4/UART.c ****         if ((0u != (UART_CTRL_REG & UART_CTRL_EC_AM_MODE)) &&
 299              		.loc 1 805 0
ARM GAS  C:\Users\jrdia\AppData\Local\Temp\ccEfo0RN.s 			page 21


 300 0000 8022     		movs	r2, #128
 301 0002 0A4B     		ldr	r3, .L24
 302 0004 5200     		lsls	r2, r2, #1
 303 0006 1968     		ldr	r1, [r3]
 304 0008 1142     		tst	r1, r2
 305 000a 0AD0     		beq	.L20
 806:Generated_Source\PSoC4/UART.c ****             (0u == (UART_I2C_CTRL_REG & UART_I2C_CTRL_S_NOT_READY_ADDR_NACK)))
 306              		.loc 1 806 0 discriminator 1
 307 000c 0849     		ldr	r1, .L24+4
 308 000e 0968     		ldr	r1, [r1]
 805:Generated_Source\PSoC4/UART.c ****             (0u == (UART_I2C_CTRL_REG & UART_I2C_CTRL_S_NOT_READY_ADDR_NACK)))
 309              		.loc 1 805 0 discriminator 1
 310 0010 4904     		lsls	r1, r1, #17
 311 0012 06D4     		bmi	.L20
 807:Generated_Source\PSoC4/UART.c ****         {
 808:Generated_Source\PSoC4/UART.c ****             /* Toggle EC_AM before NACK generation */
 809:Generated_Source\PSoC4/UART.c ****             UART_CTRL_REG &= ~UART_CTRL_EC_AM_MODE;
 312              		.loc 1 809 0
 313 0014 1868     		ldr	r0, [r3]
 314 0016 0749     		ldr	r1, .L24+8
 315 0018 0140     		ands	r1, r0
 316 001a 1960     		str	r1, [r3]
 810:Generated_Source\PSoC4/UART.c ****             UART_CTRL_REG |=  UART_CTRL_EC_AM_MODE;
 317              		.loc 1 810 0
 318 001c 1968     		ldr	r1, [r3]
 319 001e 0A43     		orrs	r2, r1
 320 0020 1A60     		str	r2, [r3]
 321              	.L20:
 811:Generated_Source\PSoC4/UART.c ****         }
 812:Generated_Source\PSoC4/UART.c **** 
 813:Generated_Source\PSoC4/UART.c ****         UART_I2C_SLAVE_CMD_REG = UART_I2C_SLAVE_CMD_S_NACK;
 322              		.loc 1 813 0
 323 0022 0222     		movs	r2, #2
 324 0024 044B     		ldr	r3, .L24+12
 814:Generated_Source\PSoC4/UART.c ****     }
 325              		.loc 1 814 0
 326              		@ sp needed
 813:Generated_Source\PSoC4/UART.c ****     }
 327              		.loc 1 813 0
 328 0026 1A60     		str	r2, [r3]
 329              		.loc 1 814 0
 330 0028 7047     		bx	lr
 331              	.L25:
 332 002a C046     		.align	2
 333              	.L24:
 334 002c 00000740 		.word	1074200576
 335 0030 60000740 		.word	1074200672
 336 0034 FFFEFFFF 		.word	-257
 337 0038 6C000740 		.word	1074200684
 338              		.cfi_endproc
 339              	.LFE9:
 340              		.size	UART_I2CSlaveNackGeneration, .-UART_I2CSlaveNackGeneration
 341              		.global	UART_IntrTxMask
 342              		.global	UART_initVar
 343              		.bss
 344              		.align	1
 345              		.set	.LANCHOR0,. + 0
ARM GAS  C:\Users\jrdia\AppData\Local\Temp\ccEfo0RN.s 			page 22


 346              		.type	UART_initVar, %object
 347              		.size	UART_initVar, 1
 348              	UART_initVar:
 349 0000 00       		.space	1
 350 0001 00       		.space	1
 351              		.type	UART_IntrTxMask, %object
 352              		.size	UART_IntrTxMask, 2
 353              	UART_IntrTxMask:
 354 0002 0000     		.space	2
 355              		.text
 356              	.Letext0:
 357              		.file 2 "Generated_Source\\PSoC4/cytypes.h"
 358              		.file 3 "Generated_Source\\PSoC4\\UART_SPI_UART_PVT.h"