ARM GAS  C:\Users\jrdia\AppData\Local\Temp\ccmJQ9RW.s 			page 1


   1              		.syntax unified
   2              		.cpu cortex-m0
   3              		.fpu softvfp
   4              		.eabi_attribute 20, 1
   5              		.eabi_attribute 21, 1
   6              		.eabi_attribute 23, 3
   7              		.eabi_attribute 24, 1
   8              		.eabi_attribute 25, 1
   9              		.eabi_attribute 26, 1
  10              		.eabi_attribute 30, 2
  11              		.eabi_attribute 34, 0
  12              		.eabi_attribute 18, 4
  13              		.thumb
  14              		.syntax unified
  15              		.file	"Usb.c"
  16              		.text
  17              	.Ltext0:
  18              		.cfi_sections	.debug_frame
  19              		.section	.text._ZN15USBDeviceConfig15ConfigureDeviceEhhb,"axG",%progbits,_ZN15USBDeviceConfig15Con
  20              		.align	2
  21              		.weak	_ZN15USBDeviceConfig15ConfigureDeviceEhhb
  22              		.code	16
  23              		.thumb_func
  24              		.type	_ZN15USBDeviceConfig15ConfigureDeviceEhhb, %function
  25              	_ZN15USBDeviceConfig15ConfigureDeviceEhhb:
  26              		.fnstart
  27              	.LFB180:
  28              		.file 1 "UsbCore.h"
   1:UsbCore.h     **** /* Copyright (C) 2011 Circuits At Home, LTD. All rights reserved.
   2:UsbCore.h     **** 
   3:UsbCore.h     **** This software may be distributed and modified under the terms of the GNU
   4:UsbCore.h     **** General Public License version 2 (GPL2) as published by the Free Software
   5:UsbCore.h     **** Foundation and appearing in the file GPL2.TXT included in the packaging of
   6:UsbCore.h     **** this file. Please note that GPL2 Section 2[b] requires that all works based
   7:UsbCore.h     **** on this software must also be made publicly available under the terms of
   8:UsbCore.h     **** the GPL2 ("Copyleft").
   9:UsbCore.h     **** 
  10:UsbCore.h     **** Contact information
  11:UsbCore.h     **** -------------------
  12:UsbCore.h     **** 
  13:UsbCore.h     **** Circuits At Home, LTD
  14:UsbCore.h     **** Web      :  http://www.circuitsathome.com
  15:UsbCore.h     **** e-mail   :  support@circuitsathome.com
  16:UsbCore.h     ****  */
  17:UsbCore.h     **** 
  18:UsbCore.h     **** #if !defined(_usb_h_) || defined(USBCORE_H)
  19:UsbCore.h     **** #error "Never include UsbCore.h directly; include Usb.h instead"
  20:UsbCore.h     **** #else
  21:UsbCore.h     **** #define USBCORE_H
  22:UsbCore.h     **** 
  23:UsbCore.h     **** // Not used anymore? If anyone uses this, please let us know so that this may be
  24:UsbCore.h     **** // moved to the proper place, settings.h.
  25:UsbCore.h     **** //#define USB_METHODS_INLINE
  26:UsbCore.h     **** 
  27:UsbCore.h     **** /* shield pins. First parameter - SS pin, second parameter - INT pin */
  28:UsbCore.h     **** #ifdef BOARD_BLACK_WIDDOW
  29:UsbCore.h     **** typedef MAX3421e<P6, P3> MAX3421E; // Black Widow
ARM GAS  C:\Users\jrdia\AppData\Local\Temp\ccmJQ9RW.s 			page 2


  30:UsbCore.h     **** #elif defined(CORE_TEENSY) && (defined(__AVR_AT90USB646__) || defined(__AVR_AT90USB1286__))
  31:UsbCore.h     **** #if EXT_RAM
  32:UsbCore.h     **** typedef MAX3421e<P20, P7> MAX3421E; // Teensy++ 2.0 with XMEM2
  33:UsbCore.h     **** #else
  34:UsbCore.h     **** typedef MAX3421e<P9, P8> MAX3421E; // Teensy++ 1.0 and 2.0
  35:UsbCore.h     **** #endif
  36:UsbCore.h     **** #elif defined(BOARD_MEGA_ADK)
  37:UsbCore.h     **** typedef MAX3421e<P53, P54> MAX3421E; // Arduino Mega ADK
  38:UsbCore.h     **** #elif defined(ARDUINO_AVR_BALANDUINO)
  39:UsbCore.h     **** typedef MAX3421e<P20, P19> MAX3421E; // Balanduino
  40:UsbCore.h     **** #elif defined(__ARDUINO_X86__) && PLATFORM_ID == 0x06
  41:UsbCore.h     **** typedef MAX3421e<P3, P2> MAX3421E; // The Intel Galileo supports much faster read and write speed a
  42:UsbCore.h     **** #elif defined(ESP8266)
  43:UsbCore.h     **** typedef MAX3421e<P15, P5> MAX3421E; // ESP8266 boards
  44:UsbCore.h     **** #else
  45:UsbCore.h     **** typedef MAX3421e<P10, P9> MAX3421E; // Official Arduinos (UNO, Duemilanove, Mega, 2560, Leonardo, D
  46:UsbCore.h     **** #endif
  47:UsbCore.h     **** 
  48:UsbCore.h     **** /* Common setup data constant combinations  */
  49:UsbCore.h     **** #define bmREQ_GET_DESCR     USB_SETUP_DEVICE_TO_HOST|USB_SETUP_TYPE_STANDARD|USB_SETUP_RECIPIENT_DE
  50:UsbCore.h     **** #define bmREQ_SET           USB_SETUP_HOST_TO_DEVICE|USB_SETUP_TYPE_STANDARD|USB_SETUP_RECIPIENT_DE
  51:UsbCore.h     **** #define bmREQ_CL_GET_INTF   USB_SETUP_DEVICE_TO_HOST|USB_SETUP_TYPE_CLASS|USB_SETUP_RECIPIENT_INTER
  52:UsbCore.h     **** 
  53:UsbCore.h     **** // D7           data transfer direction (0 - host-to-device, 1 - device-to-host)
  54:UsbCore.h     **** // D6-5         Type (0- standard, 1 - class, 2 - vendor, 3 - reserved)
  55:UsbCore.h     **** // D4-0         Recipient (0 - device, 1 - interface, 2 - endpoint, 3 - other, 4..31 - reserved)
  56:UsbCore.h     **** 
  57:UsbCore.h     **** // USB Device Classes
  58:UsbCore.h     **** #define USB_CLASS_USE_CLASS_INFO        0x00    // Use Class Info in the Interface Descriptors
  59:UsbCore.h     **** #define USB_CLASS_AUDIO                 0x01    // Audio
  60:UsbCore.h     **** #define USB_CLASS_COM_AND_CDC_CTRL      0x02    // Communications and CDC Control
  61:UsbCore.h     **** #define USB_CLASS_HID                   0x03    // HID
  62:UsbCore.h     **** #define USB_CLASS_PHYSICAL              0x05    // Physical
  63:UsbCore.h     **** #define USB_CLASS_IMAGE                 0x06    // Image
  64:UsbCore.h     **** #define USB_CLASS_PRINTER               0x07    // Printer
  65:UsbCore.h     **** #define USB_CLASS_MASS_STORAGE          0x08    // Mass Storage
  66:UsbCore.h     **** #define USB_CLASS_HUB                   0x09    // Hub
  67:UsbCore.h     **** #define USB_CLASS_CDC_DATA              0x0a    // CDC-Data
  68:UsbCore.h     **** #define USB_CLASS_SMART_CARD            0x0b    // Smart-Card
  69:UsbCore.h     **** #define USB_CLASS_CONTENT_SECURITY      0x0d    // Content Security
  70:UsbCore.h     **** #define USB_CLASS_VIDEO                 0x0e    // Video
  71:UsbCore.h     **** #define USB_CLASS_PERSONAL_HEALTH       0x0f    // Personal Healthcare
  72:UsbCore.h     **** #define USB_CLASS_DIAGNOSTIC_DEVICE     0xdc    // Diagnostic Device
  73:UsbCore.h     **** #define USB_CLASS_WIRELESS_CTRL         0xe0    // Wireless Controller
  74:UsbCore.h     **** #define USB_CLASS_MISC                  0xef    // Miscellaneous
  75:UsbCore.h     **** #define USB_CLASS_APP_SPECIFIC          0xfe    // Application Specific
  76:UsbCore.h     **** #define USB_CLASS_VENDOR_SPECIFIC       0xff    // Vendor Specific
  77:UsbCore.h     **** 
  78:UsbCore.h     **** // Additional Error Codes
  79:UsbCore.h     **** #define USB_DEV_CONFIG_ERROR_DEVICE_NOT_SUPPORTED       0xD1
  80:UsbCore.h     **** #define USB_DEV_CONFIG_ERROR_DEVICE_INIT_INCOMPLETE     0xD2
  81:UsbCore.h     **** #define USB_ERROR_UNABLE_TO_REGISTER_DEVICE_CLASS       0xD3
  82:UsbCore.h     **** #define USB_ERROR_OUT_OF_ADDRESS_SPACE_IN_POOL          0xD4
  83:UsbCore.h     **** #define USB_ERROR_HUB_ADDRESS_OVERFLOW                  0xD5
  84:UsbCore.h     **** #define USB_ERROR_ADDRESS_NOT_FOUND_IN_POOL             0xD6
  85:UsbCore.h     **** #define USB_ERROR_EPINFO_IS_NULL                        0xD7
  86:UsbCore.h     **** #define USB_ERROR_INVALID_ARGUMENT                      0xD8
ARM GAS  C:\Users\jrdia\AppData\Local\Temp\ccmJQ9RW.s 			page 3


  87:UsbCore.h     **** #define USB_ERROR_CLASS_INSTANCE_ALREADY_IN_USE         0xD9
  88:UsbCore.h     **** #define USB_ERROR_INVALID_MAX_PKT_SIZE                  0xDA
  89:UsbCore.h     **** #define USB_ERROR_EP_NOT_FOUND_IN_TBL                   0xDB
  90:UsbCore.h     **** #define USB_ERROR_CONFIG_REQUIRES_ADDITIONAL_RESET      0xE0
  91:UsbCore.h     **** #define USB_ERROR_FailGetDevDescr                       0xE1
  92:UsbCore.h     **** #define USB_ERROR_FailSetDevTblEntry                    0xE2
  93:UsbCore.h     **** #define USB_ERROR_FailGetConfDescr                      0xE3
  94:UsbCore.h     **** #define USB_ERROR_TRANSFER_TIMEOUT                      0xFF
  95:UsbCore.h     **** 
  96:UsbCore.h     **** #define USB_XFER_TIMEOUT        5000    // (5000) USB transfer timeout in milliseconds, per section
  97:UsbCore.h     **** //#define USB_NAK_LIMIT         32000   // NAK limit for a transfer. 0 means NAKs are not counted
  98:UsbCore.h     **** #define USB_RETRY_LIMIT         3       // 3 retry limit for a transfer
  99:UsbCore.h     **** #define USB_SETTLE_DELAY        200     // settle delay in milliseconds
 100:UsbCore.h     **** 
 101:UsbCore.h     **** #define USB_NUMDEVICES          16      //number of USB devices
 102:UsbCore.h     **** //#define HUB_MAX_HUBS          7       // maximum number of hubs that can be attached to the host 
 103:UsbCore.h     **** #define HUB_PORT_RESET_DELAY    20      // hub port reset delay 10 ms recomended, can be up to 20 m
 104:UsbCore.h     **** 
 105:UsbCore.h     **** /* USB state machine states */
 106:UsbCore.h     **** #define USB_STATE_MASK                                      0xf0
 107:UsbCore.h     **** 
 108:UsbCore.h     **** #define USB_STATE_DETACHED                                  0x10
 109:UsbCore.h     **** #define USB_DETACHED_SUBSTATE_INITIALIZE                    0x11
 110:UsbCore.h     **** #define USB_DETACHED_SUBSTATE_WAIT_FOR_DEVICE               0x12
 111:UsbCore.h     **** #define USB_DETACHED_SUBSTATE_ILLEGAL                       0x13
 112:UsbCore.h     **** #define USB_ATTACHED_SUBSTATE_SETTLE                        0x20
 113:UsbCore.h     **** #define USB_ATTACHED_SUBSTATE_RESET_DEVICE                  0x30
 114:UsbCore.h     **** #define USB_ATTACHED_SUBSTATE_WAIT_RESET_COMPLETE           0x40
 115:UsbCore.h     **** #define USB_ATTACHED_SUBSTATE_WAIT_SOF                      0x50
 116:UsbCore.h     **** #define USB_ATTACHED_SUBSTATE_WAIT_RESET                    0x51
 117:UsbCore.h     **** #define USB_ATTACHED_SUBSTATE_GET_DEVICE_DESCRIPTOR_SIZE    0x60
 118:UsbCore.h     **** #define USB_STATE_ADDRESSING                                0x70
 119:UsbCore.h     **** #define USB_STATE_CONFIGURING                               0x80
 120:UsbCore.h     **** #define USB_STATE_RUNNING                                   0x90
 121:UsbCore.h     **** #define USB_STATE_ERROR                                     0xa0
 122:UsbCore.h     **** 
 123:UsbCore.h     **** class USBDeviceConfig {
 124:UsbCore.h     **** public:
 125:UsbCore.h     **** 
 126:UsbCore.h     ****         virtual uint8_t Init(uint8_t parent, uint8_t port, bool lowspeed) {
 127:UsbCore.h     ****                 return 0;
 128:UsbCore.h     ****         }
 129:UsbCore.h     **** 
 130:UsbCore.h     ****         virtual uint8_t ConfigureDevice(uint8_t parent, uint8_t port, bool lowspeed) {
  29              		.loc 1 130 0
  30              		.cfi_startproc
  31              		@ args = 0, pretend = 0, frame = 0
  32              		@ frame_needed = 0, uses_anonymous_args = 0
  33              		@ link register save eliminated.
  34              	.LVL0:
 131:UsbCore.h     ****                 return 0;
 132:UsbCore.h     ****         }
  35              		.loc 1 132 0
  36 0000 0020     		movs	r0, #0
  37              	.LVL1:
  38              		@ sp needed
  39 0002 7047     		bx	lr
ARM GAS  C:\Users\jrdia\AppData\Local\Temp\ccmJQ9RW.s 			page 4


  40              		.cfi_endproc
  41              	.LFE180:
  42              		.cantunwind
  43              		.fnend
  44              		.size	_ZN15USBDeviceConfig15ConfigureDeviceEhhb, .-_ZN15USBDeviceConfig15ConfigureDeviceEhhb
  45              		.section	.text._ZN15USBDeviceConfig10GetAddressEv,"axG",%progbits,_ZN15USBDeviceConfig10GetAddress
  46              		.align	2
  47              		.weak	_ZN15USBDeviceConfig10GetAddressEv
  48              		.code	16
  49              		.thumb_func
  50              		.type	_ZN15USBDeviceConfig10GetAddressEv, %function
  51              	_ZN15USBDeviceConfig10GetAddressEv:
  52              		.fnstart
  53              	.LFB183:
 133:UsbCore.h     **** 
 134:UsbCore.h     ****         virtual uint8_t Release() {
 135:UsbCore.h     ****                 return 0;
 136:UsbCore.h     ****         }
 137:UsbCore.h     **** 
 138:UsbCore.h     ****         virtual uint8_t Poll() {
 139:UsbCore.h     ****                 return 0;
 140:UsbCore.h     ****         }
 141:UsbCore.h     **** 
 142:UsbCore.h     ****         virtual uint8_t GetAddress() {
  54              		.loc 1 142 0
  55              		.cfi_startproc
  56              		@ args = 0, pretend = 0, frame = 0
  57              		@ frame_needed = 0, uses_anonymous_args = 0
  58              		@ link register save eliminated.
  59              	.LVL2:
 143:UsbCore.h     ****                 return 0;
 144:UsbCore.h     ****         }
  60              		.loc 1 144 0
  61 0000 0020     		movs	r0, #0
  62              	.LVL3:
  63              		@ sp needed
  64 0002 7047     		bx	lr
  65              		.cfi_endproc
  66              	.LFE183:
  67              		.cantunwind
  68              		.fnend
  69              		.size	_ZN15USBDeviceConfig10GetAddressEv, .-_ZN15USBDeviceConfig10GetAddressEv
  70              		.section	.text._ZN15USBDeviceConfig12ResetHubPortEh,"axG",%progbits,_ZN15USBDeviceConfig12ResetHub
  71              		.align	2
  72              		.weak	_ZN15USBDeviceConfig12ResetHubPortEh
  73              		.code	16
  74              		.thumb_func
  75              		.type	_ZN15USBDeviceConfig12ResetHubPortEh, %function
  76              	_ZN15USBDeviceConfig12ResetHubPortEh:
  77              		.fnstart
  78              	.LFB184:
 145:UsbCore.h     **** 
 146:UsbCore.h     ****         virtual void ResetHubPort(uint8_t port) {
  79              		.loc 1 146 0
  80              		.cfi_startproc
  81              		@ args = 0, pretend = 0, frame = 0
  82              		@ frame_needed = 0, uses_anonymous_args = 0
ARM GAS  C:\Users\jrdia\AppData\Local\Temp\ccmJQ9RW.s 			page 5


  83              		@ link register save eliminated.
  84              	.LVL4:
 147:UsbCore.h     ****                 return;
 148:UsbCore.h     ****         } // Note used for hubs only!
  85              		.loc 1 148 0
  86              		@ sp needed
  87 0000 7047     		bx	lr
  88              		.cfi_endproc
  89              	.LFE184:
  90              		.cantunwind
  91              		.fnend
  92              		.size	_ZN15USBDeviceConfig12ResetHubPortEh, .-_ZN15USBDeviceConfig12ResetHubPortEh
  93 0002 C046     		.section	.text._ZN15USBDeviceConfig8VIDPIDOKEtt,"axG",%progbits,_ZN15USBDeviceConfig8VIDPIDOKEtt,c
  94              		.align	2
  95              		.weak	_ZN15USBDeviceConfig8VIDPIDOKEtt
  96              		.code	16
  97              		.thumb_func
  98              		.type	_ZN15USBDeviceConfig8VIDPIDOKEtt, %function
  99              	_ZN15USBDeviceConfig8VIDPIDOKEtt:
 100              		.fnstart
 101              	.LFB185:
 149:UsbCore.h     **** 
 150:UsbCore.h     ****         virtual bool VIDPIDOK(uint16_t vid, uint16_t pid) {
 102              		.loc 1 150 0
 103              		.cfi_startproc
 104              		@ args = 0, pretend = 0, frame = 0
 105              		@ frame_needed = 0, uses_anonymous_args = 0
 106              		@ link register save eliminated.
 107              	.LVL5:
 151:UsbCore.h     ****                 return false;
 152:UsbCore.h     ****         }
 108              		.loc 1 152 0
 109 0000 0020     		movs	r0, #0
 110              	.LVL6:
 111              		@ sp needed
 112 0002 7047     		bx	lr
 113              		.cfi_endproc
 114              	.LFE185:
 115              		.cantunwind
 116              		.fnend
 117              		.size	_ZN15USBDeviceConfig8VIDPIDOKEtt, .-_ZN15USBDeviceConfig8VIDPIDOKEtt
 118              		.section	.text._ZN15USBDeviceConfig10DEVCLASSOKEh,"axG",%progbits,_ZN15USBDeviceConfig10DEVCLASSOK
 119              		.align	2
 120              		.weak	_ZN15USBDeviceConfig10DEVCLASSOKEh
 121              		.code	16
 122              		.thumb_func
 123              		.type	_ZN15USBDeviceConfig10DEVCLASSOKEh, %function
 124              	_ZN15USBDeviceConfig10DEVCLASSOKEh:
 125              		.fnstart
 126              	.LFB186:
 153:UsbCore.h     **** 
 154:UsbCore.h     ****         virtual bool DEVCLASSOK(uint8_t klass) {
 127              		.loc 1 154 0
 128              		.cfi_startproc
 129              		@ args = 0, pretend = 0, frame = 0
 130              		@ frame_needed = 0, uses_anonymous_args = 0
 131              		@ link register save eliminated.
ARM GAS  C:\Users\jrdia\AppData\Local\Temp\ccmJQ9RW.s 			page 6


 132              	.LVL7:
 155:UsbCore.h     ****                 return false;
 156:UsbCore.h     ****         }
 133              		.loc 1 156 0
 134 0000 0020     		movs	r0, #0
 135              	.LVL8:
 136              		@ sp needed
 137 0002 7047     		bx	lr
 138              		.cfi_endproc
 139              	.LFE186:
 140              		.cantunwind
 141              		.fnend
 142              		.size	_ZN15USBDeviceConfig10DEVCLASSOKEh, .-_ZN15USBDeviceConfig10DEVCLASSOKEh
 143              		.section	.text._ZN15USBDeviceConfig13DEVSUBCLASSOKEh,"axG",%progbits,_ZN15USBDeviceConfig13DEVSUBC
 144              		.align	2
 145              		.weak	_ZN15USBDeviceConfig13DEVSUBCLASSOKEh
 146              		.code	16
 147              		.thumb_func
 148              		.type	_ZN15USBDeviceConfig13DEVSUBCLASSOKEh, %function
 149              	_ZN15USBDeviceConfig13DEVSUBCLASSOKEh:
 150              		.fnstart
 151              	.LFB187:
 157:UsbCore.h     **** 
 158:UsbCore.h     ****         virtual bool DEVSUBCLASSOK(uint8_t subklass) {
 152              		.loc 1 158 0
 153              		.cfi_startproc
 154              		@ args = 0, pretend = 0, frame = 0
 155              		@ frame_needed = 0, uses_anonymous_args = 0
 156              		@ link register save eliminated.
 157              	.LVL9:
 159:UsbCore.h     ****                 return true;
 160:UsbCore.h     ****         }
 158              		.loc 1 160 0
 159 0000 0120     		movs	r0, #1
 160              	.LVL10:
 161              		@ sp needed
 162 0002 7047     		bx	lr
 163              		.cfi_endproc
 164              	.LFE187:
 165              		.cantunwind
 166              		.fnend
 167              		.size	_ZN15USBDeviceConfig13DEVSUBCLASSOKEh, .-_ZN15USBDeviceConfig13DEVSUBCLASSOKEh
 168              		.section	.text._ZN15AddressPoolImplILh16EE12AllocAddressEhbh,"axG",%progbits,_ZN15AddressPoolImplI
 169              		.align	2
 170              		.weak	_ZN15AddressPoolImplILh16EE12AllocAddressEhbh
 171              		.code	16
 172              		.thumb_func
 173              		.type	_ZN15AddressPoolImplILh16EE12AllocAddressEhbh, %function
 174              	_ZN15AddressPoolImplILh16EE12AllocAddressEhbh:
 175              		.fnstart
 176              	.LFB257:
 177              		.file 2 "address.h"
   1:address.h     **** /* Copyright (C) 2011 Circuits At Home, LTD. All rights reserved.
   2:address.h     **** 
   3:address.h     **** This software may be distributed and modified under the terms of the GNU
   4:address.h     **** General Public License version 2 (GPL2) as published by the Free Software
   5:address.h     **** Foundation and appearing in the file GPL2.TXT included in the packaging of
ARM GAS  C:\Users\jrdia\AppData\Local\Temp\ccmJQ9RW.s 			page 7


   6:address.h     **** this file. Please note that GPL2 Section 2[b] requires that all works based
   7:address.h     **** on this software must also be made publicly available under the terms of
   8:address.h     **** the GPL2 ("Copyleft").
   9:address.h     **** 
  10:address.h     **** Contact information
  11:address.h     **** -------------------
  12:address.h     **** 
  13:address.h     **** Circuits At Home, LTD
  14:address.h     **** Web      :  http://www.circuitsathome.com
  15:address.h     **** e-mail   :  support@circuitsathome.com
  16:address.h     ****  */
  17:address.h     **** 
  18:address.h     **** #if !defined(_usb_h_) || defined(__ADDRESS_H__)
  19:address.h     **** #error "Never include address.h directly; include Usb.h instead"
  20:address.h     **** #else
  21:address.h     **** #define __ADDRESS_H__
  22:address.h     **** 
  23:address.h     **** 
  24:address.h     **** 
  25:address.h     **** /* NAK powers. To save space in endpoint data structure, amount of retries before giving up and ret
  26:address.h     **** /* bmNakPower as a power of 2. The actual nak_limit is then calculated as nak_limit = ( 2^bmNakPowe
  27:address.h     **** #define USB_NAK_MAX_POWER               15              //NAK binary order maximum value
  28:address.h     **** #define USB_NAK_DEFAULT                 14              //default 32K-1 NAKs before giving up
  29:address.h     **** #define USB_NAK_NOWAIT                  1               //Single NAK stops transfer
  30:address.h     **** #define USB_NAK_NONAK                   0               //Do not count NAKs, stop retrying after US
  31:address.h     **** 
  32:address.h     **** struct EpInfo {
  33:address.h     ****         uint8_t epAddr; // Endpoint address
  34:address.h     ****         uint8_t maxPktSize; // Maximum packet size
  35:address.h     **** 
  36:address.h     ****         union {
  37:address.h     ****                 uint8_t epAttribs;
  38:address.h     **** 
  39:address.h     ****                 struct {
  40:address.h     ****                         uint8_t bmSndToggle : 1; // Send toggle, when zero bmSNDTOG0, bmSNDTOG1 oth
  41:address.h     ****                         uint8_t bmRcvToggle : 1; // Send toggle, when zero bmRCVTOG0, bmRCVTOG1 oth
  42:address.h     ****                         uint8_t bmNakPower : 6; // Binary order for NAK_LIMIT value
  43:address.h     ****                 } __attribute__((packed));
  44:address.h     ****         };
  45:address.h     **** } __attribute__((packed));
  46:address.h     **** 
  47:address.h     **** //        7   6   5   4   3   2   1   0
  48:address.h     **** //  ---------------------------------
  49:address.h     **** //  |   | H | P | P | P | A | A | A |
  50:address.h     **** //  ---------------------------------
  51:address.h     **** //
  52:address.h     **** // H - if 1 the address is a hub address
  53:address.h     **** // P - parent hub address
  54:address.h     **** // A - device address / port number in case of hub
  55:address.h     **** //
  56:address.h     **** 
  57:address.h     **** struct UsbDeviceAddress {
  58:address.h     **** 
  59:address.h     ****         union {
  60:address.h     **** 
  61:address.h     ****                 struct {
  62:address.h     ****                         uint8_t bmAddress : 3; // device address/port number
ARM GAS  C:\Users\jrdia\AppData\Local\Temp\ccmJQ9RW.s 			page 8


  63:address.h     ****                         uint8_t bmParent : 3; // parent hub address
  64:address.h     ****                         uint8_t bmHub : 1; // hub flag
  65:address.h     ****                         uint8_t bmReserved : 1; // reserved, must be zero
  66:address.h     ****                 } __attribute__((packed));
  67:address.h     ****                 uint8_t devAddress;
  68:address.h     ****         };
  69:address.h     **** } __attribute__((packed));
  70:address.h     **** 
  71:address.h     **** #define bmUSB_DEV_ADDR_ADDRESS          0x07
  72:address.h     **** #define bmUSB_DEV_ADDR_PARENT           0x38
  73:address.h     **** #define bmUSB_DEV_ADDR_HUB              0x40
  74:address.h     **** 
  75:address.h     **** struct UsbDevice {
  76:address.h     ****         EpInfo *epinfo; // endpoint info pointer
  77:address.h     ****         UsbDeviceAddress address;
  78:address.h     ****         uint8_t epcount; // number of endpoints
  79:address.h     ****         bool lowspeed; // indicates if a device is the low speed one
  80:address.h     ****         //      uint8_t devclass; // device class
  81:address.h     **** } __attribute__((packed));
  82:address.h     **** 
  83:address.h     **** class AddressPool {
  84:address.h     **** public:
  85:address.h     ****         virtual UsbDevice* GetUsbDevicePtr(uint8_t addr) = 0;
  86:address.h     ****         virtual uint8_t AllocAddress(uint8_t parent, bool is_hub = false, uint8_t port = 0) = 0;
  87:address.h     ****         virtual void FreeAddress(uint8_t addr) = 0;
  88:address.h     **** };
  89:address.h     **** 
  90:address.h     **** typedef void (*UsbDeviceHandleFunc)(UsbDevice *pdev);
  91:address.h     **** 
  92:address.h     **** #define ADDR_ERROR_INVALID_INDEX                0xFF
  93:address.h     **** #define ADDR_ERROR_INVALID_ADDRESS              0xFF
  94:address.h     **** 
  95:address.h     **** template <const uint8_t MAX_DEVICES_ALLOWED>
  96:address.h     **** class AddressPoolImpl : public AddressPool {
  97:address.h     ****         EpInfo dev0ep; //Endpoint data structure used during enumeration for uninitialized device
  98:address.h     **** 
  99:address.h     ****         uint8_t hubCounter; // hub counter is kept
 100:address.h     ****         // in order to avoid hub address duplication
 101:address.h     **** 
 102:address.h     ****         UsbDevice thePool[MAX_DEVICES_ALLOWED];
 103:address.h     **** 
 104:address.h     ****         // Initializes address pool entry
 105:address.h     **** 
 106:address.h     ****         void InitEntry(uint8_t index) {
 107:address.h     ****                 thePool[index].address.devAddress = 0;
 108:address.h     ****                 thePool[index].epcount = 1;
 109:address.h     ****                 thePool[index].lowspeed = 0;
 110:address.h     ****                 thePool[index].epinfo = &dev0ep;
 111:address.h     ****         };
 112:address.h     **** 
 113:address.h     ****         // Returns thePool index for a given address
 114:address.h     **** 
 115:address.h     ****         uint8_t FindAddressIndex(uint8_t address = 0) {
 116:address.h     ****                 for(uint8_t i = 1; i < MAX_DEVICES_ALLOWED; i++) {
 117:address.h     ****                         if(thePool[i].address.devAddress == address)
 118:address.h     ****                                 return i;
 119:address.h     ****                 }
ARM GAS  C:\Users\jrdia\AppData\Local\Temp\ccmJQ9RW.s 			page 9


 120:address.h     ****                 return 0;
 121:address.h     ****         };
 122:address.h     **** 
 123:address.h     ****         // Returns thePool child index for a given parent
 124:address.h     **** 
 125:address.h     ****         uint8_t FindChildIndex(UsbDeviceAddress addr, uint8_t start = 1) {
 126:address.h     ****                 for(uint8_t i = (start < 1 || start >= MAX_DEVICES_ALLOWED) ? 1 : start; i < MAX_DE
 127:address.h     ****                         if(thePool[i].address.bmParent == addr.bmAddress)
 128:address.h     ****                                 return i;
 129:address.h     ****                 }
 130:address.h     ****                 return 0;
 131:address.h     ****         };
 132:address.h     **** 
 133:address.h     ****         // Frees address entry specified by index parameter
 134:address.h     **** 
 135:address.h     ****         void FreeAddressByIndex(uint8_t index) {
 136:address.h     ****                 // Zero field is reserved and should not be affected
 137:address.h     ****                 if(index == 0)
 138:address.h     ****                         return;
 139:address.h     **** 
 140:address.h     ****                 UsbDeviceAddress uda = thePool[index].address;
 141:address.h     ****                 // If a hub was switched off all port addresses should be freed
 142:address.h     ****                 if(uda.bmHub == 1) {
 143:address.h     ****                         for(uint8_t i = 1; (i = FindChildIndex(uda, i));)
 144:address.h     ****                                 FreeAddressByIndex(i);
 145:address.h     **** 
 146:address.h     ****                         // If the hub had the last allocated address, hubCounter should be decremen
 147:address.h     ****                         if(hubCounter == uda.bmAddress)
 148:address.h     ****                                 hubCounter--;
 149:address.h     ****                 }
 150:address.h     ****                 InitEntry(index);
 151:address.h     ****         }
 152:address.h     **** 
 153:address.h     ****         // Initializes the whole address pool at once
 154:address.h     **** 
 155:address.h     ****         void InitAllAddresses() {
 156:address.h     ****                 for(uint8_t i = 1; i < MAX_DEVICES_ALLOWED; i++)
 157:address.h     ****                         InitEntry(i);
 158:address.h     **** 
 159:address.h     ****                 hubCounter = 0;
 160:address.h     ****         };
 161:address.h     **** 
 162:address.h     **** public:
 163:address.h     **** 
 164:address.h     ****         AddressPoolImpl() : hubCounter(0) {
 165:address.h     ****                 // Zero address is reserved
 166:address.h     ****                 InitEntry(0);
 167:address.h     **** 
 168:address.h     ****                 thePool[0].address.devAddress = 0;
 169:address.h     ****                 thePool[0].epinfo = &dev0ep;
 170:address.h     ****                 dev0ep.epAddr = 0;
 171:address.h     ****                 dev0ep.maxPktSize = 8;
 172:address.h     ****                 dev0ep.bmSndToggle = 0; // Set DATA0/1 toggles to 0
 173:address.h     ****                 dev0ep.bmRcvToggle = 0;
 174:address.h     ****                 dev0ep.bmNakPower = USB_NAK_MAX_POWER;
 175:address.h     **** 
 176:address.h     ****                 InitAllAddresses();
ARM GAS  C:\Users\jrdia\AppData\Local\Temp\ccmJQ9RW.s 			page 10


 177:address.h     ****         };
 178:address.h     **** 
 179:address.h     ****         // Returns a pointer to a specified address entry
 180:address.h     **** 
 181:address.h     ****         virtual UsbDevice* GetUsbDevicePtr(uint8_t addr) {
 182:address.h     ****                 if(!addr)
 183:address.h     ****                         return thePool;
 184:address.h     **** 
 185:address.h     ****                 uint8_t index = FindAddressIndex(addr);
 186:address.h     **** 
 187:address.h     ****                 return (!index) ? NULL : thePool + index;
 188:address.h     ****         };
 189:address.h     **** 
 190:address.h     ****         // Performs an operation specified by pfunc for each addressed device
 191:address.h     **** 
 192:address.h     ****         void ForEachUsbDevice(UsbDeviceHandleFunc pfunc) {
 193:address.h     ****                 if(!pfunc)
 194:address.h     ****                         return;
 195:address.h     **** 
 196:address.h     ****                 for(uint8_t i = 1; i < MAX_DEVICES_ALLOWED; i++)
 197:address.h     ****                         if(thePool[i].address.devAddress)
 198:address.h     ****                                 pfunc(thePool + i);
 199:address.h     ****         };
 200:address.h     **** 
 201:address.h     ****         // Allocates new address
 202:address.h     **** 
 203:address.h     ****         virtual uint8_t AllocAddress(uint8_t parent, bool is_hub = false, uint8_t port = 0) {
 178              		.loc 2 203 0
 179              		.cfi_startproc
 180              		@ args = 0, pretend = 0, frame = 0
 181              		@ frame_needed = 0, uses_anonymous_args = 0
 182              	.LVL11:
 183 0000 F0B5     		push	{r4, r5, r6, r7, lr}
 184              		.cfi_def_cfa_offset 20
 185              		.cfi_offset 4, -20
 186              		.cfi_offset 5, -16
 187              		.cfi_offset 6, -12
 188              		.cfi_offset 7, -8
 189              		.cfi_offset 14, -4
 204:address.h     ****                 /* if (parent != 0 && port == 0)
 205:address.h     ****                         USB_HOST_SERIAL.println("PRT:0"); */
 206:address.h     ****                 UsbDeviceAddress _parent;
 207:address.h     ****                 _parent.devAddress = parent;
 208:address.h     ****                 if(_parent.bmReserved || port > 7)
 190              		.loc 2 208 0
 191 0002 7F24     		movs	r4, #127
 192 0004 0F00     		movs	r7, r1
 193 0006 A743     		bics	r7, r4
 194 0008 0FD1     		bne	.L18
 195              		.loc 2 208 0 is_stmt 0 discriminator 1
 196 000a 072B     		cmp	r3, #7
 197 000c 0BD8     		bhi	.L22
 209:address.h     ****                         //if(parent > 127 || port > 7)
 210:address.h     ****                         return 0;
 211:address.h     **** 
 212:address.h     ****                 if(is_hub && hubCounter == 7)
 198              		.loc 2 212 0 is_stmt 1
ARM GAS  C:\Users\jrdia\AppData\Local\Temp\ccmJQ9RW.s 			page 11


 199 000e 002A     		cmp	r2, #0
 200 0010 22D1     		bne	.L32
 201              	.L9:
 202 0012 0500     		movs	r5, r0
 203:address.h     ****                 /* if (parent != 0 && port == 0)
 203              		.loc 2 203 0
 204 0014 0124     		movs	r4, #1
 205 0016 1335     		adds	r5, r5, #19
 206              	.L11:
 207              	.LVL12:
 208              	.LBB139:
 209              	.LBB140:
 117:address.h     ****                                 return i;
 210              		.loc 2 117 0
 211 0018 2E78     		ldrb	r6, [r5]
 212 001a 002E     		cmp	r6, #0
 213 001c 07D0     		beq	.L10
 214              	.LVL13:
 215 001e 0134     		adds	r4, r4, #1
 216              	.LVL14:
 217 0020 0735     		adds	r5, r5, #7
 116:address.h     ****                         if(thePool[i].address.devAddress == address)
 218              		.loc 2 116 0
 219 0022 102C     		cmp	r4, #16
 220 0024 F8D1     		bne	.L11
 221              	.LVL15:
 222              	.L22:
 223              	.LBE140:
 224              	.LBE139:
 213:address.h     ****                         return 0;
 214:address.h     **** 
 215:address.h     ****                 // finds first empty address entry starting from one
 216:address.h     ****                 uint8_t index = FindAddressIndex(0);
 217:address.h     **** 
 218:address.h     ****                 if(!index) // if empty entry is not found
 219:address.h     ****                         return 0;
 220:address.h     **** 
 221:address.h     ****                 if(_parent.devAddress == 0) {
 222:address.h     ****                         if(is_hub) {
 223:address.h     ****                                 thePool[index].address.devAddress = 0x41;
 224:address.h     ****                                 hubCounter++;
 225:address.h     ****                         } else
 226:address.h     ****                                 thePool[index].address.devAddress = 1;
 227:address.h     **** 
 228:address.h     ****                         return thePool[index].address.devAddress;
 229:address.h     ****                 }
 230:address.h     **** 
 231:address.h     ****                 UsbDeviceAddress addr;
 232:address.h     ****                 addr.devAddress = 0; // Ensure all bits are zero
 233:address.h     ****                 addr.bmParent = _parent.bmAddress;
 234:address.h     ****                 if(is_hub) {
 235:address.h     ****                         addr.bmHub = 1;
 236:address.h     ****                         addr.bmAddress = ++hubCounter;
 237:address.h     ****                 } else {
 238:address.h     ****                         addr.bmHub = 0;
 239:address.h     ****                         addr.bmAddress = port;
 240:address.h     ****                 }
ARM GAS  C:\Users\jrdia\AppData\Local\Temp\ccmJQ9RW.s 			page 12


 241:address.h     ****                 thePool[index].address = addr;
 242:address.h     ****                 /*
 243:address.h     ****                                 USB_HOST_SERIAL.print("Addr:");
 244:address.h     ****                                 USB_HOST_SERIAL.print(addr.bmHub, HEX);
 245:address.h     ****                                 USB_HOST_SERIAL.print(".");
 246:address.h     ****                                 USB_HOST_SERIAL.print(addr.bmParent, HEX);
 247:address.h     ****                                 USB_HOST_SERIAL.print(".");
 248:address.h     ****                                 USB_HOST_SERIAL.println(addr.bmAddress, HEX);
 249:address.h     ****                  */
 250:address.h     ****                 return thePool[index].address.devAddress;
 251:address.h     ****         };
 225              		.loc 2 251 0
 226 0026 3800     		movs	r0, r7
 227              		@ sp needed
 228 0028 F0BD     		pop	{r4, r5, r6, r7, pc}
 229              	.LVL16:
 230              	.L18:
 210:address.h     **** 
 231              		.loc 2 210 0
 232 002a 0027     		movs	r7, #0
 233 002c FBE7     		b	.L22
 234              	.LVL17:
 235              	.L10:
 221:address.h     ****                         if(is_hub) {
 236              		.loc 2 221 0
 237 002e 0029     		cmp	r1, #0
 238 0030 16D0     		beq	.L16
 233:address.h     ****                 if(is_hub) {
 239              		.loc 2 233 0
 240 0032 0726     		movs	r6, #7
 241 0034 3140     		ands	r1, r6
 242              	.LVL18:
 243 0036 C900     		lsls	r1, r1, #3
 234:address.h     ****                         addr.bmHub = 1;
 244              		.loc 2 234 0
 245 0038 002A     		cmp	r2, #0
 246 003a 1DD0     		beq	.L14
 235:address.h     ****                         addr.bmAddress = ++hubCounter;
 247              		.loc 2 235 0
 248 003c 4023     		movs	r3, #64
 249              	.LVL19:
 236:address.h     ****                 } else {
 250              		.loc 2 236 0
 251 003e C579     		ldrb	r5, [r0, #7]
 235:address.h     ****                         addr.bmAddress = ++hubCounter;
 252              		.loc 2 235 0
 253 0040 1943     		orrs	r1, r3
 236:address.h     ****                 } else {
 254              		.loc 2 236 0
 255 0042 0135     		adds	r5, r5, #1
 256 0044 EAB2     		uxtb	r2, r5
 257              	.LVL20:
 258 0046 C271     		strb	r2, [r0, #7]
 259 0048 3240     		ands	r2, r6
 260 004a 1143     		orrs	r1, r2
 261              	.LVL21:
 262              	.L15:
ARM GAS  C:\Users\jrdia\AppData\Local\Temp\ccmJQ9RW.s 			page 13


 241:address.h     ****                 /*
 263              		.loc 2 241 0
 264 004c E300     		lsls	r3, r4, #3
 265 004e 1C1B     		subs	r4, r3, r4
 266 0050 0019     		adds	r0, r0, r4
 267              	.LVL22:
 268 0052 0173     		strb	r1, [r0, #12]
 250:address.h     ****         };
 269              		.loc 2 250 0
 270 0054 CFB2     		uxtb	r7, r1
 271 0056 E6E7     		b	.L22
 272              	.LVL23:
 273              	.L32:
 212:address.h     ****                         return 0;
 274              		.loc 2 212 0 discriminator 1
 275 0058 C479     		ldrb	r4, [r0, #7]
 276 005a 072C     		cmp	r4, #7
 277 005c D9D1     		bne	.L9
 278 005e E2E7     		b	.L22
 279              	.L16:
 223:address.h     ****                                 hubCounter++;
 280              		.loc 2 223 0
 281 0060 E300     		lsls	r3, r4, #3
 282              	.LVL24:
 283 0062 1C1B     		subs	r4, r3, r4
 222:address.h     ****                                 thePool[index].address.devAddress = 0x41;
 284              		.loc 2 222 0
 285 0064 002A     		cmp	r2, #0
 286 0066 0BD0     		beq	.L12
 223:address.h     ****                                 hubCounter++;
 287              		.loc 2 223 0
 288 0068 4123     		movs	r3, #65
 289 006a 0419     		adds	r4, r0, r4
 290 006c 2373     		strb	r3, [r4, #12]
 224:address.h     ****                         } else
 291              		.loc 2 224 0
 292 006e C379     		ldrb	r3, [r0, #7]
 293 0070 4127     		movs	r7, #65
 294 0072 0133     		adds	r3, r3, #1
 295 0074 C371     		strb	r3, [r0, #7]
 296 0076 D6E7     		b	.L22
 297              	.LVL25:
 298              	.L14:
 239:address.h     ****                 }
 299              		.loc 2 239 0
 300 0078 3340     		ands	r3, r6
 301              	.LVL26:
 302 007a B143     		bics	r1, r6
 303 007c 1943     		orrs	r1, r3
 304 007e E5E7     		b	.L15
 305              	.LVL27:
 306              	.L12:
 226:address.h     **** 
 307              		.loc 2 226 0
 308 0080 0123     		movs	r3, #1
 309 0082 0019     		adds	r0, r0, r4
 310              	.LVL28:
ARM GAS  C:\Users\jrdia\AppData\Local\Temp\ccmJQ9RW.s 			page 14


 311 0084 0373     		strb	r3, [r0, #12]
 312 0086 0127     		movs	r7, #1
 228:address.h     ****                 }
 313              		.loc 2 228 0
 314 0088 CDE7     		b	.L22
 315              		.cfi_endproc
 316              	.LFE257:
 317              		.cantunwind
 318              		.fnend
 319              		.size	_ZN15AddressPoolImplILh16EE12AllocAddressEhbh, .-_ZN15AddressPoolImplILh16EE12AllocAddressEh
 320 008a C046     		.section	.text._ZN8MAX3421eI4TPinI5PortbLh2EES0_IS1_Lh1EEE5regWrEhh.isra.0,"ax",%progbits
 321              		.align	2
 322              		.code	16
 323              		.thumb_func
 324              		.type	_ZN8MAX3421eI4TPinI5PortbLh2EES0_IS1_Lh1EEE5regWrEhh.isra.0, %function
 325              	_ZN8MAX3421eI4TPinI5PortbLh2EES0_IS1_Lh1EEE5regWrEhh.isra.0:
 326              		.fnstart
 327              	.LFB268:
 328              		.file 3 "usbhost.h"
   1:usbhost.h     **** /* Copyright (C) 2011 Circuits At Home, LTD. All rights reserved.
   2:usbhost.h     **** 
   3:usbhost.h     **** This software may be distributed and modified under the terms of the GNU
   4:usbhost.h     **** General Public License version 2 (GPL2) as published by the Free Software
   5:usbhost.h     **** Foundation and appearing in the file GPL2.TXT included in the packaging of
   6:usbhost.h     **** this file. Please note that GPL2 Section 2[b] requires that all works based
   7:usbhost.h     **** on this software must also be made publicly available under the terms of
   8:usbhost.h     **** the GPL2 ("Copyleft").
   9:usbhost.h     **** 
  10:usbhost.h     **** Contact information
  11:usbhost.h     **** -------------------
  12:usbhost.h     **** 
  13:usbhost.h     **** Circuits At Home, LTD
  14:usbhost.h     **** Web      :  http://www.circuitsathome.com
  15:usbhost.h     **** e-mail   :  support@circuitsathome.com
  16:usbhost.h     ****  */
  17:usbhost.h     **** /* MAX3421E-based USB Host Library header file */
  18:usbhost.h     **** 
  19:usbhost.h     **** 
  20:usbhost.h     **** #if !defined(_usb_h_) || defined(_USBHOST_H_)
  21:usbhost.h     **** #error "Never include usbhost.h directly; include Usb.h instead"
  22:usbhost.h     **** #else
  23:usbhost.h     **** #define _USBHOST_H_
  24:usbhost.h     ****     #define SPI_DELAY 25
  25:usbhost.h     ****     extern "C" {
  26:usbhost.h     **** 
  27:usbhost.h     **** 	// PSoC include, this has to be wrapped
  28:usbhost.h     **** 	#include "project.h"
  29:usbhost.h     **** }
  30:usbhost.h     **** #warning "Need to clean up a lot of stuff in usbhost.h"
  31:usbhost.h     **** #if USING_SPI4TEENSY3
  32:usbhost.h     **** #include <spi4teensy3.h>
  33:usbhost.h     **** #include <sys/types.h>
  34:usbhost.h     **** #endif
  35:usbhost.h     **** #include "project.h"
  36:usbhost.h     **** /* SPI initialization */
  37:usbhost.h     **** template< typename SPI_CLK, typename SPI_MOSI, typename SPI_MISO, typename SPI_SS > class SPi {
  38:usbhost.h     **** public:
ARM GAS  C:\Users\jrdia\AppData\Local\Temp\ccmJQ9RW.s 			page 15


  39:usbhost.h     **** #if USING_SPI4TEENSY3
  40:usbhost.h     ****         static void init() {
  41:usbhost.h     ****                 // spi4teensy3 inits everything for us, except /SS
  42:usbhost.h     ****                 // CLK, MOSI and MISO are hard coded for now.
  43:usbhost.h     ****                 // spi4teensy3::init(0,0,0); // full speed, cpol 0, cpha 0
  44:usbhost.h     ****                 spi4teensy3::init(); // full speed, cpol 0, cpha 0
  45:usbhost.h     ****                 SPI_SS::SetDirWrite();
  46:usbhost.h     ****                 SPI_SS::Set();
  47:usbhost.h     ****         }
  48:usbhost.h     **** #elif defined(SPI_HAS_TRANSACTION)
  49:usbhost.h     ****         static void init() {
  50:usbhost.h     ****                 SPI.begin(); // The SPI library with transaction will take care of setting up the p
  51:usbhost.h     ****                 SPI_SS::SetDirWrite();
  52:usbhost.h     ****                 SPI_SS::Set();
  53:usbhost.h     ****         }
  54:usbhost.h     **** #elif defined(STM32F4)
  55:usbhost.h     **** #warning "You need to initialize the SPI interface manually when using the STM32F4 platform"
  56:usbhost.h     ****         static void init() {
  57:usbhost.h     ****                 // Should be initialized by the user manually for now
  58:usbhost.h     ****         }
  59:usbhost.h     **** #elif !defined(SPDR)
  60:usbhost.h     ****         static void init() {
  61:usbhost.h     ****                 SPI_SS::SetDirWrite();
  62:usbhost.h     ****                 SPI_SS::Set();
  63:usbhost.h     ****                 //UNC SPI.begin();
  64:usbhost.h     **** #if defined(__MIPSEL__)
  65:usbhost.h     ****                 SPI.setClockDivider(1);
  66:usbhost.h     **** #elif defined(__ARDUINO_X86__)
  67:usbhost.h     ****                 #ifdef SPI_CLOCK_1M // Hack used to check if setClockSpeed is available
  68:usbhost.h     ****                     SPI.setClockSpeed(12000000); // The MAX3421E can handle up to 26MHz, but in pra
  69:usbhost.h     ****                 #else
  70:usbhost.h     ****                     SPI.setClockDivider(SPI_CLOCK_DIV2); // This will set the SPI frequency to 8MHz
  71:usbhost.h     ****                 #endif
  72:usbhost.h     **** #elif !defined(RBL_NRF51822)
  73:usbhost.h     ****                 //UNC SPI.setClockDivider(4); // Set speed to 84MHz/4=21MHz - the MAX3421E can hand
  74:usbhost.h     **** #endif
  75:usbhost.h     ****         }
  76:usbhost.h     **** #else
  77:usbhost.h     ****         static void init() {
  78:usbhost.h     ****                 //uint8_t tmp;
  79:usbhost.h     ****                 SPI_CLK::SetDirWrite();
  80:usbhost.h     ****                 SPI_MOSI::SetDirWrite();
  81:usbhost.h     ****                 SPI_MISO::SetDirRead();
  82:usbhost.h     ****                 SPI_SS::SetDirWrite();
  83:usbhost.h     ****                 /* mode 00 (CPOL=0, CPHA=0) master, fclk/2. Mode 11 (CPOL=11, CPHA=11) is also supp
  84:usbhost.h     ****                 SPCR = 0x50;
  85:usbhost.h     ****                 SPSR = 0x01; // 0x01
  86:usbhost.h     ****                 /**/
  87:usbhost.h     ****                 //tmp = SPSR;
  88:usbhost.h     ****                 //tmp = SPDR;
  89:usbhost.h     ****         }
  90:usbhost.h     **** #endif
  91:usbhost.h     **** };
  92:usbhost.h     **** 
  93:usbhost.h     **** /* SPI pin definitions. see avrpins.h   */
  94:usbhost.h     **** #if defined(PIN_SPI_SCK) && defined(PIN_SPI_MOSI) && defined(PIN_SPI_MISO) && defined(PIN_SPI_SS)
  95:usbhost.h     **** // Use pin defines: https://github.com/arduino/Arduino/pull/4814
ARM GAS  C:\Users\jrdia\AppData\Local\Temp\ccmJQ9RW.s 			page 16


  96:usbhost.h     **** // Based on: https://www.mikeash.com/pyblog/friday-qa-2015-03-20-preprocessor-abuse-and-optional-pa
  97:usbhost.h     **** #define NOTHING_EXTRACT
  98:usbhost.h     **** #define EXTRACT(...) EXTRACT __VA_ARGS__
  99:usbhost.h     **** #define PASTE(x, ...) x ## __VA_ARGS__
 100:usbhost.h     **** #define EVALUATING_PASTE(x, ...) PASTE(x, __VA_ARGS__)
 101:usbhost.h     **** #define UNPAREN(x) EVALUATING_PASTE(NOTHING_, EXTRACT x)
 102:usbhost.h     **** #define APPEND_PIN(pin) P ## pin // Appends the pin to 'P', e.g. 1 becomes P1
 103:usbhost.h     **** #define MAKE_PIN(x) EVALUATING_PASTE(APPEND_, PIN(UNPAREN(x)))
 104:usbhost.h     **** typedef SPi< MAKE_PIN(PIN_SPI_SCK), MAKE_PIN(PIN_SPI_MOSI), MAKE_PIN(PIN_SPI_MISO), MAKE_PIN(PIN_SP
 105:usbhost.h     **** #undef MAKE_PIN
 106:usbhost.h     **** #elif defined(__AVR_ATmega1280__) || (__AVR_ATmega2560__) || defined(__AVR_ATmega32U4__) || defined
 107:usbhost.h     **** typedef SPi< Pb1, Pb2, Pb3, Pb0 > spi;
 108:usbhost.h     **** #elif  defined(__AVR_ATmega168__) || defined(__AVR_ATmega328P__)
 109:usbhost.h     **** typedef SPi< Pb5, Pb3, Pb4, Pb2 > spi;
 110:usbhost.h     **** #elif defined(__AVR_ATmega644__) || defined(__AVR_ATmega644P__) || defined(__AVR_ATmega1284__) || d
 111:usbhost.h     **** typedef SPi< Pb7, Pb5, Pb6, Pb4 > spi;
 112:usbhost.h     **** #elif (defined(CORE_TEENSY) && (defined(__MK20DX128__) || defined(__MK20DX256__) || defined(__MK64F
 113:usbhost.h     **** typedef SPi< P13, P11, P12, P10 > spi;
 114:usbhost.h     **** #elif defined(ARDUINO_SAM_DUE) && defined(__SAM3X8E__)
 115:usbhost.h     **** typedef SPi< P76, P75, P74, P10 > spi;
 116:usbhost.h     **** #elif defined(RBL_NRF51822)
 117:usbhost.h     **** typedef SPi< P16, P18, P17, P10 > spi;
 118:usbhost.h     **** #elif defined(ESP8266)
 119:usbhost.h     **** typedef SPi< P14, P13, P12, P15 > spi;
 120:usbhost.h     **** #else
 121:usbhost.h     **** #error "No SPI entry in usbhost.h"
 122:usbhost.h     **** #endif
 123:usbhost.h     **** 
 124:usbhost.h     **** typedef enum {
 125:usbhost.h     ****         vbus_on = 0,
 126:usbhost.h     ****         vbus_off = GPX_VBDET
 127:usbhost.h     **** } VBUS_t;
 128:usbhost.h     **** 
 129:usbhost.h     **** template< typename SPI_SS, typename INTR > class MAX3421e /* : public spi */ {
 130:usbhost.h     ****         static uint8_t vbusState;
 131:usbhost.h     **** 
 132:usbhost.h     **** public:
 133:usbhost.h     ****         MAX3421e();
 134:usbhost.h     ****         void regWr(uint8_t reg, uint8_t data);
 135:usbhost.h     ****         uint8_t* bytesWr(uint8_t reg, uint8_t nbytes, uint8_t* data_p);
 136:usbhost.h     ****         void gpioWr(uint8_t data);
 137:usbhost.h     ****         uint8_t regRd(uint8_t reg);
 138:usbhost.h     ****         uint8_t* bytesRd(uint8_t reg, uint8_t nbytes, uint8_t* data_p);
 139:usbhost.h     ****         uint8_t gpioRd();
 140:usbhost.h     ****         uint16_t reset();
 141:usbhost.h     ****         int8_t Init();
 142:usbhost.h     ****         int8_t Init(int mseconds);
 143:usbhost.h     **** 
 144:usbhost.h     ****         void vbusPower(VBUS_t state) {
 145:usbhost.h     ****                 regWr(rPINCTL, (bmFDUPSPI | bmINTLEVEL | state));
 146:usbhost.h     ****         }
 147:usbhost.h     **** 
 148:usbhost.h     ****         uint8_t getVbusState(void) {
 149:usbhost.h     ****                 return vbusState;
 150:usbhost.h     ****         };
 151:usbhost.h     ****         void busprobe();
 152:usbhost.h     ****         uint8_t GpxHandler();
ARM GAS  C:\Users\jrdia\AppData\Local\Temp\ccmJQ9RW.s 			page 17


 153:usbhost.h     ****         uint8_t IntHandler();
 154:usbhost.h     ****         uint8_t Task();
 155:usbhost.h     **** };
 156:usbhost.h     **** 
 157:usbhost.h     **** template< typename SPI_SS, typename INTR >
 158:usbhost.h     ****         uint8_t MAX3421e< SPI_SS, INTR >::vbusState = 0;
 159:usbhost.h     **** 
 160:usbhost.h     **** /* constructor */
 161:usbhost.h     **** template< typename SPI_SS, typename INTR >
 162:usbhost.h     **** MAX3421e< SPI_SS, INTR >::MAX3421e() {
 163:usbhost.h     ****         // Leaving ADK hardware setup in here, for now. This really belongs with the other parts.
 164:usbhost.h     **** #ifdef BOARD_MEGA_ADK
 165:usbhost.h     ****         // For Mega ADK, which has a Max3421e on-board, set MAX_RESET to output mode, and then set 
 166:usbhost.h     ****         P55::SetDirWrite();
 167:usbhost.h     ****         P55::Set();
 168:usbhost.h     **** #endif
 169:usbhost.h     **** };
 170:usbhost.h     **** 
 171:usbhost.h     **** /* write single byte into MAX3421 register */
 172:usbhost.h     **** template< typename SPI_SS, typename INTR >
 173:usbhost.h     **** void MAX3421e< SPI_SS, INTR >::regWr(uint8_t reg, uint8_t data) {
 329              		.loc 3 173 0
 330              		.cfi_startproc
 331              		@ args = 0, pretend = 0, frame = 0
 332              		@ frame_needed = 0, uses_anonymous_args = 0
 333              	.LVL29:
 334 0000 70B5     		push	{r4, r5, r6, lr}
 335              		.save {r4, r5, r6, lr}
 336              		.cfi_def_cfa_offset 16
 337              		.cfi_offset 4, -16
 338              		.cfi_offset 5, -12
 339              		.cfi_offset 6, -8
 340              		.cfi_offset 14, -4
 341              		.loc 3 173 0
 342 0002 0500     		movs	r5, r0
 174:usbhost.h     ****     
 175:usbhost.h     ****     //Old Code Below
 176:usbhost.h     ****     CyDelayUs(SPI_DELAY);
 343              		.loc 3 176 0
 344 0004 1920     		movs	r0, #25
 345              	.LVL30:
 173:usbhost.h     ****     
 346              		.loc 3 173 0
 347 0006 0C00     		movs	r4, r1
 348              		.loc 3 176 0
 349 0008 FFF7FEFF 		bl	CyDelayUs
 350              	.LVL31:
 177:usbhost.h     ****     SS_Write(0);
 351              		.loc 3 177 0
 352 000c 0020     		movs	r0, #0
 353 000e FFF7FEFF 		bl	SS_Write
 354              	.LVL32:
 178:usbhost.h     ****     
 179:usbhost.h     ****     //SPI_PutArray(buffer,2);
 180:usbhost.h     ****     
 181:usbhost.h     ****     SPI_WriteTxData(reg | 0x02);
 355              		.loc 3 181 0
ARM GAS  C:\Users\jrdia\AppData\Local\Temp\ccmJQ9RW.s 			page 18


 356 0012 0220     		movs	r0, #2
 357 0014 2843     		orrs	r0, r5
 358 0016 FFF7FEFF 		bl	SPI_WriteTxData
 359              	.LVL33:
 182:usbhost.h     ****     SPI_WriteTxData(data); 
 360              		.loc 3 182 0
 361 001a 2000     		movs	r0, r4
 362 001c FFF7FEFF 		bl	SPI_WriteTxData
 363              	.LVL34:
 183:usbhost.h     ****     CyDelayUs(SPI_DELAY);
 364              		.loc 3 183 0
 365 0020 1920     		movs	r0, #25
 366 0022 FFF7FEFF 		bl	CyDelayUs
 367              	.LVL35:
 184:usbhost.h     ****     SS_Write(1);
 368              		.loc 3 184 0
 369 0026 0120     		movs	r0, #1
 370 0028 FFF7FEFF 		bl	SS_Write
 371              	.LVL36:
 185:usbhost.h     ****     return;
 186:usbhost.h     ****     
 187:usbhost.h     ****         //UNC XMEM_ACQUIRE_SPI();
 188:usbhost.h     **** #if defined(SPI_HAS_TRANSACTION)
 189:usbhost.h     ****         SPI.beginTransaction(SPISettings(26000000, MSBFIRST, SPI_MODE0)); // The MAX3421E can handl
 190:usbhost.h     **** #endif
 191:usbhost.h     ****         SPI_SS::Clear();
 192:usbhost.h     **** 
 193:usbhost.h     **** #if USING_SPI4TEENSY3
 194:usbhost.h     ****         uint8_t c[2];
 195:usbhost.h     ****         c[0] = reg | 0x02;
 196:usbhost.h     ****         c[1] = data;
 197:usbhost.h     ****         spi4teensy3::send(c, 2);
 198:usbhost.h     **** #elif defined(SPI_HAS_TRANSACTION) && !defined(ESP8266)
 199:usbhost.h     ****         uint8_t c[2];
 200:usbhost.h     ****         c[0] = reg | 0x02;
 201:usbhost.h     ****         c[1] = data;
 202:usbhost.h     ****         SPI.transfer(c, 2);
 203:usbhost.h     **** #elif defined(STM32F4)
 204:usbhost.h     ****         uint8_t c[2];
 205:usbhost.h     ****         c[0] = reg | 0x02;
 206:usbhost.h     ****         c[1] = data;
 207:usbhost.h     ****         HAL_SPI_Transmit(&SPI_Handle, c, 2, HAL_MAX_DELAY);
 208:usbhost.h     **** #elif !defined(SPDR) // ESP8266
 209:usbhost.h     ****         //UNC SPI.transfer(reg | 0x02);
 210:usbhost.h     ****         //UNC SPI.transfer(data);
 211:usbhost.h     **** #else
 212:usbhost.h     ****         SPDR = (reg | 0x02);
 213:usbhost.h     ****         while(!(SPSR & (1 << SPIF)));
 214:usbhost.h     ****         SPDR = data;
 215:usbhost.h     ****         while(!(SPSR & (1 << SPIF)));
 216:usbhost.h     **** #endif
 217:usbhost.h     **** 
 218:usbhost.h     ****         SPI_SS::Set();
 219:usbhost.h     **** #if defined(SPI_HAS_TRANSACTION)
 220:usbhost.h     ****         SPI.endTransaction();
 221:usbhost.h     **** #endif
 222:usbhost.h     ****         //UNC XMEM_RELEASE_SPI();
ARM GAS  C:\Users\jrdia\AppData\Local\Temp\ccmJQ9RW.s 			page 19


 223:usbhost.h     ****         return;
 224:usbhost.h     **** };
 372              		.loc 3 224 0
 373              		@ sp needed
 374 002c 70BD     		pop	{r4, r5, r6, pc}
 375              		.cfi_endproc
 376              	.LFE268:
 377              		.fnend
 378              		.size	_ZN8MAX3421eI4TPinI5PortbLh2EES0_IS1_Lh1EEE5regWrEhh.isra.0, .-_ZN8MAX3421eI4TPinI5PortbLh2E
 379 002e C046     		.section	.text._ZN8MAX3421eI4TPinI5PortbLh2EES0_IS1_Lh1EEE5regRdEh.isra.1,"ax",%progbits
 380              		.align	2
 381              		.code	16
 382              		.thumb_func
 383              		.type	_ZN8MAX3421eI4TPinI5PortbLh2EES0_IS1_Lh1EEE5regRdEh.isra.1, %function
 384              	_ZN8MAX3421eI4TPinI5PortbLh2EES0_IS1_Lh1EEE5regRdEh.isra.1:
 385              		.fnstart
 386              	.LFB269:
 225:usbhost.h     **** /* multiple-byte write                            */
 226:usbhost.h     **** 
 227:usbhost.h     **** /* returns a pointer to memory position after last written */
 228:usbhost.h     **** template< typename SPI_SS, typename INTR >
 229:usbhost.h     **** uint8_t* MAX3421e< SPI_SS, INTR >::bytesWr(uint8_t reg, uint8_t nbytes, uint8_t* data_p) {
 230:usbhost.h     ****         //UNC XMEM_ACQUIRE_SPI();
 231:usbhost.h     ****     
 232:usbhost.h     ****     CyDelayUs(SPI_DELAY);
 233:usbhost.h     ****     SS_Write(0);
 234:usbhost.h     ****     SPI_WriteTxData(reg | 0x02);
 235:usbhost.h     ****             //UNC SPI.transfer(reg | 0x02);
 236:usbhost.h     ****         while(nbytes) {
 237:usbhost.h     ****                 //UNC SPI.transfer(*data_p);
 238:usbhost.h     ****             while(SPI_GetTxBufferSize()==4);
 239:usbhost.h     ****             SPI_WriteTxData(*data_p);
 240:usbhost.h     ****             //SPI_ClearRxBuffer();
 241:usbhost.h     ****                 nbytes--;
 242:usbhost.h     ****                 data_p++; // advance data pointer
 243:usbhost.h     ****         }
 244:usbhost.h     ****         CyDelayUs(SPI_DELAY);
 245:usbhost.h     ****         SS_Write(1);
 246:usbhost.h     ****         return ( data_p);
 247:usbhost.h     ****         //Old Code Below
 248:usbhost.h     **** #if defined(SPI_HAS_TRANSACTION)
 249:usbhost.h     ****         SPI.beginTransaction(SPISettings(26000000, MSBFIRST, SPI_MODE0)); // The MAX3421E can handl
 250:usbhost.h     **** #endif
 251:usbhost.h     ****         SPI_SS::Clear();
 252:usbhost.h     **** 
 253:usbhost.h     **** #if USING_SPI4TEENSY3
 254:usbhost.h     ****         spi4teensy3::send(reg | 0x02);
 255:usbhost.h     ****         spi4teensy3::send(data_p, nbytes);
 256:usbhost.h     ****         data_p += nbytes;
 257:usbhost.h     **** #elif defined(SPI_HAS_TRANSACTION) && !defined(ESP8266)
 258:usbhost.h     ****         SPI.transfer(reg | 0x02);
 259:usbhost.h     ****         SPI.transfer(data_p, nbytes);
 260:usbhost.h     ****         data_p += nbytes;
 261:usbhost.h     **** #elif defined(__ARDUINO_X86__)
 262:usbhost.h     ****         SPI.transfer(reg | 0x02);
 263:usbhost.h     ****         SPI.transferBuffer(data_p, NULL, nbytes);
 264:usbhost.h     ****         data_p += nbytes;
ARM GAS  C:\Users\jrdia\AppData\Local\Temp\ccmJQ9RW.s 			page 20


 265:usbhost.h     **** #elif defined(STM32F4)
 266:usbhost.h     ****         uint8_t data = reg | 0x02;
 267:usbhost.h     ****         HAL_SPI_Transmit(&SPI_Handle, &data, 1, HAL_MAX_DELAY);
 268:usbhost.h     ****         HAL_SPI_Transmit(&SPI_Handle, data_p, nbytes, HAL_MAX_DELAY);
 269:usbhost.h     ****         data_p += nbytes;
 270:usbhost.h     **** #elif !defined(SPDR) // ESP8266
 271:usbhost.h     ****         //UNC SPI.transfer(reg | 0x02);
 272:usbhost.h     ****         while(nbytes) {
 273:usbhost.h     ****                 //UNC SPI.transfer(*data_p);
 274:usbhost.h     ****                 nbytes--;
 275:usbhost.h     ****                 data_p++; // advance data pointer
 276:usbhost.h     ****         }
 277:usbhost.h     **** #else
 278:usbhost.h     ****         SPDR = (reg | 0x02); //set WR bit and send register number
 279:usbhost.h     ****         while(nbytes) {
 280:usbhost.h     ****                 while(!(SPSR & (1 << SPIF))); //check if previous byte was sent
 281:usbhost.h     ****                 SPDR = (*data_p); // send next data byte
 282:usbhost.h     ****                 nbytes--;
 283:usbhost.h     ****                 data_p++; // advance data pointer
 284:usbhost.h     ****         }
 285:usbhost.h     ****         while(!(SPSR & (1 << SPIF)));
 286:usbhost.h     **** #endif
 287:usbhost.h     **** 
 288:usbhost.h     ****         SPI_SS::Set();
 289:usbhost.h     **** #if defined(SPI_HAS_TRANSACTION)
 290:usbhost.h     ****         SPI.endTransaction();
 291:usbhost.h     **** #endif
 292:usbhost.h     ****         //UNC XMEM_RELEASE_SPI();
 293:usbhost.h     ****         return ( data_p);
 294:usbhost.h     **** }
 295:usbhost.h     **** /* GPIO write                                           */
 296:usbhost.h     **** /*GPIO byte is split between 2 registers, so two writes are needed to write one byte */
 297:usbhost.h     **** 
 298:usbhost.h     **** /* GPOUT bits are in the low nibble. 0-3 in IOPINS1, 4-7 in IOPINS2 */
 299:usbhost.h     **** template< typename SPI_SS, typename INTR >
 300:usbhost.h     **** void MAX3421e< SPI_SS, INTR >::gpioWr(uint8_t data) {
 301:usbhost.h     ****         regWr(rIOPINS1, data);
 302:usbhost.h     ****         data >>= 4;
 303:usbhost.h     ****         regWr(rIOPINS2, data);
 304:usbhost.h     ****         return;
 305:usbhost.h     **** }
 306:usbhost.h     **** 
 307:usbhost.h     **** /* single host register read    */
 308:usbhost.h     **** template< typename SPI_SS, typename INTR >
 309:usbhost.h     **** uint8_t MAX3421e< SPI_SS, INTR >::regRd(uint8_t reg) {
 387              		.loc 3 309 0
 388              		.cfi_startproc
 389              		@ args = 0, pretend = 0, frame = 0
 390              		@ frame_needed = 0, uses_anonymous_args = 0
 391              	.LVL37:
 392 0000 10B5     		push	{r4, lr}
 393              		.save {r4, lr}
 394              		.cfi_def_cfa_offset 8
 395              		.cfi_offset 4, -8
 396              		.cfi_offset 14, -4
 397              		.loc 3 309 0
 398 0002 0400     		movs	r4, r0
ARM GAS  C:\Users\jrdia\AppData\Local\Temp\ccmJQ9RW.s 			page 21


 310:usbhost.h     ****     
 311:usbhost.h     ****     CyDelayUs(SPI_DELAY);
 399              		.loc 3 311 0
 400 0004 1920     		movs	r0, #25
 401              	.LVL38:
 402 0006 FFF7FEFF 		bl	CyDelayUs
 403              	.LVL39:
 312:usbhost.h     ****     SS_Write(0);
 404              		.loc 3 312 0
 405 000a 0020     		movs	r0, #0
 406 000c FFF7FEFF 		bl	SS_Write
 407              	.LVL40:
 313:usbhost.h     ****     
 314:usbhost.h     ****     SPI_ClearRxBuffer();
 408              		.loc 3 314 0
 409 0010 FFF7FEFF 		bl	SPI_ClearRxBuffer
 410              	.LVL41:
 315:usbhost.h     ****     //SPI_PutArray(buffer,2);
 316:usbhost.h     ****     
 317:usbhost.h     ****     SPI_WriteTxData(reg);
 411              		.loc 3 317 0
 412 0014 2000     		movs	r0, r4
 413 0016 FFF7FEFF 		bl	SPI_WriteTxData
 414              	.LVL42:
 318:usbhost.h     ****     //SPI_ClearRxBuffer();
 319:usbhost.h     ****     SPI_WriteTxData(0);
 415              		.loc 3 319 0
 416 001a 0020     		movs	r0, #0
 417 001c FFF7FEFF 		bl	SPI_WriteTxData
 418              	.LVL43:
 320:usbhost.h     ****     CyDelayUs(SPI_DELAY);
 419              		.loc 3 320 0
 420 0020 1920     		movs	r0, #25
 421 0022 FFF7FEFF 		bl	CyDelayUs
 422              	.LVL44:
 423              	.L35:
 321:usbhost.h     ****     while(SPI_GetRxBufferSize()==0);
 424              		.loc 3 321 0
 425 0026 FFF7FEFF 		bl	SPI_GetRxBufferSize
 426              	.LVL45:
 427 002a 0028     		cmp	r0, #0
 428 002c FBD0     		beq	.L35
 429 002e 0024     		movs	r4, #0
 430 0030 02E0     		b	.L37
 431              	.LVL46:
 432              	.L40:
 322:usbhost.h     ****     //uint8_t rv = SPI_ReadRxData();
 323:usbhost.h     ****     int data = 0;
 324:usbhost.h     ****     while(SPI_GetRxBufferSize()>0)
 325:usbhost.h     ****     {
 326:usbhost.h     ****         data = SPI_ReadRxData();
 433              		.loc 3 326 0
 434 0032 FFF7FEFF 		bl	SPI_ReadRxData
 435              	.LVL47:
 436 0036 0400     		movs	r4, r0
 437              	.LVL48:
 438              	.L37:
ARM GAS  C:\Users\jrdia\AppData\Local\Temp\ccmJQ9RW.s 			page 22


 324:usbhost.h     ****     {
 439              		.loc 3 324 0
 440 0038 FFF7FEFF 		bl	SPI_GetRxBufferSize
 441              	.LVL49:
 442 003c 0028     		cmp	r0, #0
 443 003e F8D1     		bne	.L40
 444              	.LVL50:
 327:usbhost.h     ****     //iprintf("RV: %d\r\n",data);
 328:usbhost.h     ****     }
 329:usbhost.h     ****     //iprintf("Done.\r\n");
 330:usbhost.h     ****     //while(SPI_GetRxBufferSize()==0);
 331:usbhost.h     ****     //uint8_t rv2 = 0;
 332:usbhost.h     ****     uint8_t rv = 0;
 333:usbhost.h     ****     //iprintf(" %d\r\n",SPI_ReadRxData());
 334:usbhost.h     ****     SS_Write(1);
 445              		.loc 3 334 0
 446 0040 0120     		movs	r0, #1
 447 0042 FFF7FEFF 		bl	SS_Write
 448              	.LVL51:
 335:usbhost.h     ****     return (data);
 336:usbhost.h     ****     
 337:usbhost.h     ****     //Old COde below
 338:usbhost.h     ****         //UNC XMEM_ACQUIRE_SPI();
 339:usbhost.h     **** #if defined(SPI_HAS_TRANSACTION)
 340:usbhost.h     ****         SPI.beginTransaction(SPISettings(26000000, MSBFIRST, SPI_MODE0)); // The MAX3421E can handl
 341:usbhost.h     **** #endif
 342:usbhost.h     ****         SPI_SS::Clear();
 343:usbhost.h     **** 
 344:usbhost.h     **** #if USING_SPI4TEENSY3
 345:usbhost.h     ****         spi4teensy3::send(reg);
 346:usbhost.h     ****         uint8_t rv = spi4teensy3::receive();
 347:usbhost.h     ****         SPI_SS::Set();
 348:usbhost.h     **** #elif defined(STM32F4)
 349:usbhost.h     ****         HAL_SPI_Transmit(&SPI_Handle, &reg, 1, HAL_MAX_DELAY);
 350:usbhost.h     ****         uint8_t rv = 0;
 351:usbhost.h     ****         HAL_SPI_Receive(&SPI_Handle, &rv, 1, HAL_MAX_DELAY);
 352:usbhost.h     ****         SPI_SS::Set();
 353:usbhost.h     **** #elif !defined(SPDR) || defined(SPI_HAS_TRANSACTION)
 354:usbhost.h     ****         //UNC SPI.transfer(reg);
 355:usbhost.h     ****         //uint8_t rv = 0;//UNC uint8_t rv = SPI.transfer(0); // Send empty byte
 356:usbhost.h     ****         SPI_SS::Set();
 357:usbhost.h     **** #else
 358:usbhost.h     ****         SPDR = reg;
 359:usbhost.h     ****         while(!(SPSR & (1 << SPIF)));
 360:usbhost.h     ****         SPDR = 0; // Send empty byte
 361:usbhost.h     ****         while(!(SPSR & (1 << SPIF)));
 362:usbhost.h     ****         SPI_SS::Set();
 363:usbhost.h     ****         uint8_t rv = SPDR;
 364:usbhost.h     **** #endif
 365:usbhost.h     **** 
 366:usbhost.h     **** #if defined(SPI_HAS_TRANSACTION)
 367:usbhost.h     ****         SPI.endTransaction();
 368:usbhost.h     **** #endif
 369:usbhost.h     ****         //UNC XMEM_RELEASE_SPI();
 370:usbhost.h     ****         return (rv);
 371:usbhost.h     **** }
 449              		.loc 3 371 0
ARM GAS  C:\Users\jrdia\AppData\Local\Temp\ccmJQ9RW.s 			page 23


 450              		@ sp needed
 451 0046 E0B2     		uxtb	r0, r4
 452              	.LVL52:
 453 0048 10BD     		pop	{r4, pc}
 454              		.cfi_endproc
 455              	.LFE269:
 456              		.fnend
 457              		.size	_ZN8MAX3421eI4TPinI5PortbLh2EES0_IS1_Lh1EEE5regRdEh.isra.1, .-_ZN8MAX3421eI4TPinI5PortbLh2EE
 458 004a C046     		.section	.text._ZN8MAX3421eI4TPinI5PortbLh2EES0_IS1_Lh1EEE7bytesWrEhhPh.isra.2,"ax",%progbits
 459              		.align	2
 460              		.code	16
 461              		.thumb_func
 462              		.type	_ZN8MAX3421eI4TPinI5PortbLh2EES0_IS1_Lh1EEE7bytesWrEhhPh.isra.2, %function
 463              	_ZN8MAX3421eI4TPinI5PortbLh2EES0_IS1_Lh1EEE7bytesWrEhhPh.isra.2:
 464              		.fnstart
 465              	.LFB270:
 229:usbhost.h     ****         //UNC XMEM_ACQUIRE_SPI();
 466              		.loc 3 229 0
 467              		.cfi_startproc
 468              		@ args = 0, pretend = 0, frame = 0
 469              		@ frame_needed = 0, uses_anonymous_args = 0
 470              	.LVL53:
 471 0000 70B5     		push	{r4, r5, r6, lr}
 472              		.save {r4, r5, r6, lr}
 473              		.cfi_def_cfa_offset 16
 474              		.cfi_offset 4, -16
 475              		.cfi_offset 5, -12
 476              		.cfi_offset 6, -8
 477              		.cfi_offset 14, -4
 229:usbhost.h     ****         //UNC XMEM_ACQUIRE_SPI();
 478              		.loc 3 229 0
 479 0002 0600     		movs	r6, r0
 480              	.LVL54:
 232:usbhost.h     ****     SS_Write(0);
 481              		.loc 3 232 0
 482 0004 1920     		movs	r0, #25
 483              	.LVL55:
 229:usbhost.h     ****         //UNC XMEM_ACQUIRE_SPI();
 484              		.loc 3 229 0
 485 0006 0D00     		movs	r5, r1
 486 0008 1400     		movs	r4, r2
 232:usbhost.h     ****     SS_Write(0);
 487              		.loc 3 232 0
 488 000a FFF7FEFF 		bl	CyDelayUs
 489              	.LVL56:
 233:usbhost.h     ****     SPI_WriteTxData(reg | 0x02);
 490              		.loc 3 233 0
 491 000e 0020     		movs	r0, #0
 492 0010 FFF7FEFF 		bl	SS_Write
 493              	.LVL57:
 234:usbhost.h     ****             //UNC SPI.transfer(reg | 0x02);
 494              		.loc 3 234 0
 495 0014 0220     		movs	r0, #2
 496 0016 3043     		orrs	r0, r6
 497 0018 FFF7FEFF 		bl	SPI_WriteTxData
 498              	.LVL58:
 236:usbhost.h     ****                 //UNC SPI.transfer(*data_p);
ARM GAS  C:\Users\jrdia\AppData\Local\Temp\ccmJQ9RW.s 			page 24


 499              		.loc 3 236 0
 500 001c 002D     		cmp	r5, #0
 501 001e 15D0     		beq	.L45
 502 0020 013D     		subs	r5, r5, #1
 503              	.LVL59:
 504 0022 EDB2     		uxtb	r5, r5
 505              	.LVL60:
 506 0024 0135     		adds	r5, r5, #1
 507 0026 6519     		adds	r5, r4, r5
 508              	.L43:
 238:usbhost.h     ****             SPI_WriteTxData(*data_p);
 509              		.loc 3 238 0
 510 0028 FFF7FEFF 		bl	SPI_GetTxBufferSize
 511              	.LVL61:
 512 002c 0428     		cmp	r0, #4
 513 002e FBD0     		beq	.L43
 239:usbhost.h     ****             //SPI_ClearRxBuffer();
 514              		.loc 3 239 0
 515 0030 2078     		ldrb	r0, [r4]
 242:usbhost.h     ****         }
 516              		.loc 3 242 0
 517 0032 0134     		adds	r4, r4, #1
 518              	.LVL62:
 239:usbhost.h     ****             //SPI_ClearRxBuffer();
 519              		.loc 3 239 0
 520 0034 FFF7FEFF 		bl	SPI_WriteTxData
 521              	.LVL63:
 236:usbhost.h     ****                 //UNC SPI.transfer(*data_p);
 522              		.loc 3 236 0
 523 0038 AC42     		cmp	r4, r5
 524 003a F5D1     		bne	.L43
 525              	.L42:
 244:usbhost.h     ****         SS_Write(1);
 526              		.loc 3 244 0
 527 003c 1920     		movs	r0, #25
 528 003e FFF7FEFF 		bl	CyDelayUs
 529              	.LVL64:
 245:usbhost.h     ****         return ( data_p);
 530              		.loc 3 245 0
 531 0042 0120     		movs	r0, #1
 532 0044 FFF7FEFF 		bl	SS_Write
 533              	.LVL65:
 294:usbhost.h     **** /* GPIO write                                           */
 534              		.loc 3 294 0
 535              		@ sp needed
 536 0048 2800     		movs	r0, r5
 537              	.LVL66:
 538 004a 70BD     		pop	{r4, r5, r6, pc}
 539              	.LVL67:
 540              	.L45:
 236:usbhost.h     ****                 //UNC SPI.transfer(*data_p);
 541              		.loc 3 236 0
 542 004c 2500     		movs	r5, r4
 543              	.LVL68:
 544 004e F5E7     		b	.L42
 545              		.cfi_endproc
 546              	.LFE270:
ARM GAS  C:\Users\jrdia\AppData\Local\Temp\ccmJQ9RW.s 			page 25


 547              		.fnend
 548              		.size	_ZN8MAX3421eI4TPinI5PortbLh2EES0_IS1_Lh1EEE7bytesWrEhhPh.isra.2, .-_ZN8MAX3421eI4TPinI5Portb
 549              		.section	.text._ZN15AddressPoolImplILh16EE15GetUsbDevicePtrEh,"axG",%progbits,_ZN15AddressPoolImpl
 550              		.align	2
 551              		.weak	_ZN15AddressPoolImplILh16EE15GetUsbDevicePtrEh
 552              		.code	16
 553              		.thumb_func
 554              		.type	_ZN15AddressPoolImplILh16EE15GetUsbDevicePtrEh, %function
 555              	_ZN15AddressPoolImplILh16EE15GetUsbDevicePtrEh:
 556              		.fnstart
 557              	.LFB249:
 181:address.h     ****                 if(!addr)
 558              		.loc 2 181 0
 559              		.cfi_startproc
 560              		@ args = 0, pretend = 0, frame = 0
 561              		@ frame_needed = 0, uses_anonymous_args = 0
 562              	.LVL69:
 183:address.h     **** 
 563              		.loc 2 183 0
 564 0000 0300     		movs	r3, r0
 181:address.h     ****                 if(!addr)
 565              		.loc 2 181 0
 566 0002 10B5     		push	{r4, lr}
 567              		.cfi_def_cfa_offset 8
 568              		.cfi_offset 4, -8
 569              		.cfi_offset 14, -4
 183:address.h     **** 
 570              		.loc 2 183 0
 571 0004 0833     		adds	r3, r3, #8
 182:address.h     ****                         return thePool;
 572              		.loc 2 182 0
 573 0006 0029     		cmp	r1, #0
 574 0008 0BD0     		beq	.L55
 575 000a 0200     		movs	r2, r0
 576 000c 0123     		movs	r3, #1
 577 000e 1332     		adds	r2, r2, #19
 578              	.L53:
 579              	.LVL70:
 580              	.LBB150:
 581              	.LBB151:
 582              	.LBB152:
 583              	.LBB153:
 117:address.h     ****                                 return i;
 584              		.loc 2 117 0
 585 0010 1478     		ldrb	r4, [r2]
 586 0012 8C42     		cmp	r4, r1
 587 0014 07D0     		beq	.L51
 116:address.h     ****                         if(thePool[i].address.devAddress == address)
 588              		.loc 2 116 0
 589 0016 0133     		adds	r3, r3, #1
 590              	.LVL71:
 591 0018 DBB2     		uxtb	r3, r3
 592              	.LVL72:
 593 001a 0732     		adds	r2, r2, #7
 594 001c 102B     		cmp	r3, #16
 595 001e F7D1     		bne	.L53
 596              	.LBE153:
ARM GAS  C:\Users\jrdia\AppData\Local\Temp\ccmJQ9RW.s 			page 26


 597              	.LBE152:
 187:address.h     ****         };
 598              		.loc 2 187 0
 599 0020 0023     		movs	r3, #0
 600              	.LVL73:
 601              	.L55:
 602              	.LBE151:
 603              	.LBE150:
 188:address.h     **** 
 604              		.loc 2 188 0
 605 0022 1800     		movs	r0, r3
 606              		@ sp needed
 607 0024 10BD     		pop	{r4, pc}
 608              	.LVL74:
 609              	.L51:
 610              	.LBB155:
 611              	.LBB154:
 187:address.h     ****         };
 612              		.loc 2 187 0
 613 0026 DA00     		lsls	r2, r3, #3
 614 0028 0830     		adds	r0, r0, #8
 615              	.LVL75:
 616 002a D31A     		subs	r3, r2, r3
 617 002c C318     		adds	r3, r0, r3
 618 002e F8E7     		b	.L55
 619              	.LBE154:
 620              	.LBE155:
 621              		.cfi_endproc
 622              	.LFE249:
 623              		.cantunwind
 624              		.fnend
 625              		.size	_ZN15AddressPoolImplILh16EE15GetUsbDevicePtrEh, .-_ZN15AddressPoolImplILh16EE15GetUsbDeviceP
 626              		.section	.text._ZN15AddressPoolImplILh16EE18FreeAddressByIndexEh.part.8.constprop.11,"ax",%progbit
 627              		.align	2
 628              		.code	16
 629              		.thumb_func
 630              		.type	_ZN15AddressPoolImplILh16EE18FreeAddressByIndexEh.part.8.constprop.11, %function
 631              	_ZN15AddressPoolImplILh16EE18FreeAddressByIndexEh.part.8.constprop.11:
 632              		.fnstart
 633              	.LFB279:
 135:address.h     ****                 // Zero field is reserved and should not be affected
 634              		.loc 2 135 0
 635              		.cfi_startproc
 636              		@ args = 0, pretend = 0, frame = 64
 637              		@ frame_needed = 0, uses_anonymous_args = 0
 638              	.LVL76:
 639 0000 F0B5     		push	{r4, r5, r6, r7, lr}
 640              		.cfi_def_cfa_offset 20
 641              		.cfi_offset 4, -20
 642              		.cfi_offset 5, -16
 643              		.cfi_offset 6, -12
 644              		.cfi_offset 7, -8
 645              		.cfi_offset 14, -4
 646 0002 5F46     		mov	r7, fp
 647 0004 5646     		mov	r6, r10
 648 0006 4D46     		mov	r5, r9
 649 0008 4446     		mov	r4, r8
ARM GAS  C:\Users\jrdia\AppData\Local\Temp\ccmJQ9RW.s 			page 27


 650 000a F0B4     		push	{r4, r5, r6, r7}
 651              		.cfi_def_cfa_offset 36
 652              		.cfi_offset 8, -36
 653              		.cfi_offset 9, -32
 654              		.cfi_offset 10, -28
 655              		.cfi_offset 11, -24
 140:address.h     ****                 // If a hub was switched off all port addresses should be freed
 656              		.loc 2 140 0
 657 000c CB00     		lsls	r3, r1, #3
 135:address.h     ****                 // Zero field is reserved and should not be affected
 658              		.loc 2 135 0
 659 000e 91B0     		sub	sp, sp, #68
 660              		.cfi_def_cfa_offset 104
 140:address.h     ****                 // If a hub was switched off all port addresses should be freed
 661              		.loc 2 140 0
 662 0010 0E93     		str	r3, [sp, #56]
 663 0012 5B1A     		subs	r3, r3, r1
 664 0014 C218     		adds	r2, r0, r3
 665 0016 127B     		ldrb	r2, [r2, #12]
 135:address.h     ****                 // Zero field is reserved and should not be affected
 666              		.loc 2 135 0
 667 0018 8346     		mov	fp, r0
 140:address.h     ****                 // If a hub was switched off all port addresses should be freed
 668              		.loc 2 140 0
 669 001a 5307     		lsls	r3, r2, #29
 670 001c 5B0F     		lsrs	r3, r3, #29
 135:address.h     ****                 // Zero field is reserved and should not be affected
 671              		.loc 2 135 0
 672 001e 0D91     		str	r1, [sp, #52]
 140:address.h     ****                 // If a hub was switched off all port addresses should be freed
 673              		.loc 2 140 0
 674 0020 0B93     		str	r3, [sp, #44]
 675              	.LVL77:
 676              	.LBB222:
 142:address.h     ****                         for(uint8_t i = 1; (i = FindChildIndex(uda, i));)
 677              		.loc 2 142 0
 678 0022 5306     		lsls	r3, r2, #25
 679 0024 00D4     		bmi	.LCB568
 680 0026 43E1     		b	.L112	@long jump
 681              	.LCB568:
 682 0028 0122     		movs	r2, #1
 683              	.LVL78:
 684 002a 0300     		movs	r3, r0
 685 002c 0992     		str	r2, [sp, #36]
 686 002e 0433     		adds	r3, r3, #4
 687 0030 0732     		adds	r2, r2, #7
 688 0032 0C93     		str	r3, [sp, #48]
 689 0034 0A92     		str	r2, [sp, #40]
 690 0036 1B0A     		lsrs	r3, r3, #8
 691              	.LBB223:
 692              	.LBB224:
 693              	.LBB225:
 694              	.LBB226:
 695              	.LBB227:
 696              	.LBB228:
 697              	.LBB229:
 698              	.LBB230:
ARM GAS  C:\Users\jrdia\AppData\Local\Temp\ccmJQ9RW.s 			page 28


 699              	.LBB231:
 700              	.LBB232:
 701              	.LBB233:
 702              	.LBB234:
 703              	.LBB235:
 704              	.LBB236:
 705              	.LBB237:
 706              	.LBB238:
 707              	.LBB239:
 708              	.LBB240:
 709              	.LBB241:
 710              	.LBB242:
 711              	.LBB243:
 712              	.LBB244:
 713              	.LBB245:
 714              	.LBB246:
 715              	.LBB247:
 716              	.LBB248:
 717              	.LBB249:
 718              	.LBB250:
 719              	.LBB251:
 110:address.h     ****         };
 720              		.loc 2 110 0
 721 0038 F732     		adds	r2, r2, #247
 722 003a 1A40     		ands	r2, r3
 723 003c 0F93     		str	r3, [sp, #60]
 724 003e 0792     		str	r2, [sp, #28]
 725 0040 08E0     		b	.L62
 726              	.LVL79:
 727              	.L113:
 728              	.LBE251:
 729              	.LBE250:
 730              	.LBE249:
 731              	.LBE248:
 732              	.LBE247:
 733              	.LBE246:
 734              	.LBE245:
 735              	.LBE244:
 736              	.LBE243:
 737              	.LBE242:
 738              	.LBE241:
 739              	.LBE240:
 740              	.LBE239:
 741              	.LBE238:
 742              	.LBE237:
 743              	.LBE236:
 744              	.LBE235:
 745              	.LBE234:
 746              	.LBE233:
 747              	.LBE232:
 748              	.LBE231:
 749              	.LBE230:
 750              	.LBE229:
 751              	.LBE228:
 752              	.LBE227:
 753              	.LBE226:
 754              	.LBE225:
ARM GAS  C:\Users\jrdia\AppData\Local\Temp\ccmJQ9RW.s 			page 29


 755              	.LBB354:
 756              	.LBB355:
 126:address.h     ****                         if(thePool[i].address.bmParent == addr.bmAddress)
 757              		.loc 2 126 0
 758 0042 0300     		movs	r3, r0
 759 0044 0133     		adds	r3, r3, #1
 760 0046 DBB2     		uxtb	r3, r3
 761 0048 0993     		str	r3, [sp, #36]
 762              	.LVL80:
 763 004a 102B     		cmp	r3, #16
 764 004c 00D1     		bne	.LCB658
 765 004e 02E1     		b	.L61	@long jump
 766              	.LCB658:
 767 0050 DB00     		lsls	r3, r3, #3
 768              	.LVL81:
 769 0052 0A93     		str	r3, [sp, #40]
 770              	.LVL82:
 771              	.L62:
 127:address.h     ****                                 return i;
 772              		.loc 2 127 0
 773 0054 5B46     		mov	r3, fp
 774 0056 0A9A     		ldr	r2, [sp, #40]
 775 0058 0998     		ldr	r0, [sp, #36]
 776 005a 0B9C     		ldr	r4, [sp, #44]
 777 005c 121A     		subs	r2, r2, r0
 778 005e 9918     		adds	r1, r3, r2
 779 0060 0B7B     		ldrb	r3, [r1, #12]
 780 0062 9B06     		lsls	r3, r3, #26
 781 0064 5B0F     		lsrs	r3, r3, #29
 782 0066 A342     		cmp	r3, r4
 783 0068 EBD1     		bne	.L113
 784              	.LVL83:
 785              	.LBE355:
 786              	.LBE354:
 787              	.LBB356:
 788              	.LBB352:
 789              	.LBB350:
 790              	.LBB348:
 140:address.h     ****                 // If a hub was switched off all port addresses should be freed
 791              		.loc 2 140 0
 792 006a 5A44     		add	r2, r2, fp
 793 006c 137B     		ldrb	r3, [r2, #12]
 794 006e 097B     		ldrb	r1, [r1, #12]
 795 0070 5B07     		lsls	r3, r3, #29
 796 0072 5B0F     		lsrs	r3, r3, #29
 797 0074 0893     		str	r3, [sp, #32]
 798              	.LVL84:
 799              	.LBB343:
 142:address.h     ****                         for(uint8_t i = 1; (i = FindChildIndex(uda, i));)
 800              		.loc 2 142 0
 801 0076 4B06     		lsls	r3, r1, #25
 802 0078 00D4     		bmi	.LCB710
 803 007a 0EE1     		b	.L114	@long jump
 804              	.LCB710:
 805 007c 0123     		movs	r3, #1
 806 007e 0293     		str	r3, [sp, #8]
 807 0080 0733     		adds	r3, r3, #7
ARM GAS  C:\Users\jrdia\AppData\Local\Temp\ccmJQ9RW.s 			page 30


 808 0082 0393     		str	r3, [sp, #12]
 809 0084 0C9B     		ldr	r3, [sp, #48]
 810 0086 5F46     		mov	r7, fp
 811 0088 1A0C     		lsrs	r2, r3, #16
 812 008a 0492     		str	r2, [sp, #16]
 813 008c 1A0E     		lsrs	r2, r3, #24
 814 008e 0592     		str	r2, [sp, #20]
 815              	.LBB340:
 816              	.LBB337:
 817              	.LBB331:
 818              	.LBB327:
 819              	.LBB323:
 820              	.LBB319:
 821              	.LBB312:
 822              	.LBB307:
 823              	.LBB303:
 824              	.LBB298:
 825              	.LBB295:
 826              	.LBB292:
 827              	.LBB289:
 828              	.LBB283:
 829              	.LBB279:
 830              	.LBB276:
 831              	.LBB272:
 832              	.LBB270:
 833              	.LBB268:
 834              	.LBB266:
 835              	.LBB254:
 836              	.LBB252:
 110:address.h     ****         };
 837              		.loc 2 110 0
 838 0090 FF22     		movs	r2, #255
 839 0092 1A40     		ands	r2, r3
 840 0094 0692     		str	r2, [sp, #24]
 841              	.LVL85:
 842 0096 08E0     		b	.L65
 843              	.LVL86:
 844              	.L115:
 845              	.LBE252:
 846              	.LBE254:
 847              	.LBE266:
 848              	.LBE268:
 849              	.LBE270:
 850              	.LBE272:
 851              	.LBE276:
 852              	.LBE279:
 853              	.LBE283:
 854              	.LBE289:
 855              	.LBE292:
 856              	.LBE295:
 857              	.LBE298:
 858              	.LBE303:
 859              	.LBE307:
 860              	.LBE312:
 861              	.LBE319:
 862              	.LBE323:
 863              	.LBE327:
ARM GAS  C:\Users\jrdia\AppData\Local\Temp\ccmJQ9RW.s 			page 31


 864              	.LBE331:
 865              	.LBB332:
 866              	.LBB333:
 126:address.h     ****                         if(thePool[i].address.bmParent == addr.bmAddress)
 867              		.loc 2 126 0
 868 0098 0300     		movs	r3, r0
 869 009a 0133     		adds	r3, r3, #1
 870 009c DBB2     		uxtb	r3, r3
 871 009e 0293     		str	r3, [sp, #8]
 872              	.LVL87:
 873 00a0 102B     		cmp	r3, #16
 874 00a2 00D1     		bne	.LCB793
 875 00a4 B3E0     		b	.L64	@long jump
 876              	.LCB793:
 877 00a6 DB00     		lsls	r3, r3, #3
 878              	.LVL88:
 879 00a8 0393     		str	r3, [sp, #12]
 880              	.LVL89:
 881              	.L65:
 127:address.h     ****                                 return i;
 882              		.loc 2 127 0
 883 00aa 039A     		ldr	r2, [sp, #12]
 884 00ac 0298     		ldr	r0, [sp, #8]
 885 00ae 089C     		ldr	r4, [sp, #32]
 886 00b0 121A     		subs	r2, r2, r0
 887 00b2 B918     		adds	r1, r7, r2
 888 00b4 0B7B     		ldrb	r3, [r1, #12]
 889 00b6 9B06     		lsls	r3, r3, #26
 890 00b8 5B0F     		lsrs	r3, r3, #29
 891 00ba A342     		cmp	r3, r4
 892 00bc ECD1     		bne	.L115
 893              	.LVL90:
 894              	.LBE333:
 895              	.LBE332:
 896              	.LBB334:
 897              	.LBB328:
 898              	.LBB324:
 899              	.LBB320:
 140:address.h     ****                 // If a hub was switched off all port addresses should be freed
 900              		.loc 2 140 0
 901 00be BA18     		adds	r2, r7, r2
 902 00c0 137B     		ldrb	r3, [r2, #12]
 903 00c2 097B     		ldrb	r1, [r1, #12]
 904 00c4 5B07     		lsls	r3, r3, #29
 905 00c6 5B0F     		lsrs	r3, r3, #29
 906 00c8 0193     		str	r3, [sp, #4]
 907              	.LVL91:
 908              	.LBB313:
 142:address.h     ****                         for(uint8_t i = 1; (i = FindChildIndex(uda, i));)
 909              		.loc 2 142 0
 910 00ca 4B06     		lsls	r3, r1, #25
 911 00cc 1BD5     		bpl	.L84
 912 00ce 0123     		movs	r3, #1
 913 00d0 9946     		mov	r9, r3
 914 00d2 0733     		adds	r3, r3, #7
 915 00d4 0093     		str	r3, [sp]
 916              	.LVL92:
ARM GAS  C:\Users\jrdia\AppData\Local\Temp\ccmJQ9RW.s 			page 32


 917 00d6 01E0     		b	.L68
 918              	.LVL93:
 919              	.L116:
 920 00d8 DB00     		lsls	r3, r3, #3
 921              	.LVL94:
 922 00da 0093     		str	r3, [sp]
 923              	.LVL95:
 924              	.L68:
 925              	.LBB308:
 926              	.LBB304:
 927              	.LBB299:
 928              	.LBB300:
 127:address.h     ****                                 return i;
 929              		.loc 2 127 0
 930 00dc 4A46     		mov	r2, r9
 931 00de 009B     		ldr	r3, [sp]
 932 00e0 0198     		ldr	r0, [sp, #4]
 933 00e2 9A1A     		subs	r2, r3, r2
 934 00e4 B918     		adds	r1, r7, r2
 935 00e6 0B7B     		ldrb	r3, [r1, #12]
 936 00e8 9B06     		lsls	r3, r3, #26
 937 00ea 5B0F     		lsrs	r3, r3, #29
 938 00ec 8342     		cmp	r3, r0
 939 00ee 21D0     		beq	.L66
 126:address.h     ****                         if(thePool[i].address.bmParent == addr.bmAddress)
 940              		.loc 2 126 0
 941 00f0 4B46     		mov	r3, r9
 942 00f2 0133     		adds	r3, r3, #1
 943 00f4 DBB2     		uxtb	r3, r3
 944 00f6 9946     		mov	r9, r3
 945              	.LVL96:
 946 00f8 102B     		cmp	r3, #16
 947 00fa EDD1     		bne	.L116
 948              	.LVL97:
 949              	.LBE300:
 950              	.LBE299:
 951              	.LBE304:
 147:address.h     ****                                 hubCounter--;
 952              		.loc 2 147 0
 953 00fc FB79     		ldrb	r3, [r7, #7]
 954 00fe 019A     		ldr	r2, [sp, #4]
 955 0100 9342     		cmp	r3, r2
 956 0102 00D1     		bne	.LCB913
 957 0104 C5E0     		b	.L117	@long jump
 958              	.LCB913:
 959              	.LVL98:
 960              	.L84:
 961              	.LBE308:
 962              	.LBE313:
 963              	.LBB314:
 964              	.LBB315:
 108:address.h     ****                 thePool[index].lowspeed = 0;
 965              		.loc 2 108 0
 966 0106 0121     		movs	r1, #1
 107:address.h     ****                 thePool[index].epcount = 1;
 967              		.loc 2 107 0
 968 0108 029A     		ldr	r2, [sp, #8]
ARM GAS  C:\Users\jrdia\AppData\Local\Temp\ccmJQ9RW.s 			page 33


 969 010a 039B     		ldr	r3, [sp, #12]
 970 010c 9B1A     		subs	r3, r3, r2
 971 010e FB18     		adds	r3, r7, r3
 108:address.h     ****                 thePool[index].lowspeed = 0;
 972              		.loc 2 108 0
 973 0110 5973     		strb	r1, [r3, #13]
 110:address.h     ****         };
 974              		.loc 2 110 0
 975 0112 6946     		mov	r1, sp
 107:address.h     ****                 thePool[index].epcount = 1;
 976              		.loc 2 107 0
 977 0114 0022     		movs	r2, #0
 110:address.h     ****         };
 978              		.loc 2 110 0
 979 0116 097E     		ldrb	r1, [r1, #24]
 107:address.h     ****                 thePool[index].epcount = 1;
 980              		.loc 2 107 0
 981 0118 1A73     		strb	r2, [r3, #12]
 109:address.h     ****                 thePool[index].epinfo = &dev0ep;
 982              		.loc 2 109 0
 983 011a 9A73     		strb	r2, [r3, #14]
 110:address.h     ****         };
 984              		.loc 2 110 0
 985 011c 1972     		strb	r1, [r3, #8]
 986 011e 1A00     		movs	r2, r3
 987 0120 6B46     		mov	r3, sp
 988 0122 1B7F     		ldrb	r3, [r3, #28]
 989 0124 5372     		strb	r3, [r2, #9]
 990 0126 6B46     		mov	r3, sp
 991 0128 1B7C     		ldrb	r3, [r3, #16]
 992 012a 9372     		strb	r3, [r2, #10]
 993 012c 6B46     		mov	r3, sp
 994 012e 1B7D     		ldrb	r3, [r3, #20]
 995 0130 D372     		strb	r3, [r2, #11]
 996              	.LVL99:
 997 0132 BAE7     		b	.L65
 998              	.LVL100:
 999              	.L66:
 1000              	.LBE315:
 1001              	.LBE314:
 1002              	.LBB316:
 1003              	.LBB309:
 1004              	.LBB305:
 1005              	.LBB301:
 1006              	.LBB296:
 1007              	.LBB293:
 1008              	.LBB290:
 140:address.h     ****                 // If a hub was switched off all port addresses should be freed
 1009              		.loc 2 140 0
 1010 0134 BA18     		adds	r2, r7, r2
 1011 0136 137B     		ldrb	r3, [r2, #12]
 1012 0138 097B     		ldrb	r1, [r1, #12]
 1013 013a 5B07     		lsls	r3, r3, #29
 1014 013c 5B0F     		lsrs	r3, r3, #29
 1015 013e 9B46     		mov	fp, r3
 1016              	.LVL101:
 1017              	.LBB284:
ARM GAS  C:\Users\jrdia\AppData\Local\Temp\ccmJQ9RW.s 			page 34


 142:address.h     ****                         for(uint8_t i = 1; (i = FindChildIndex(uda, i));)
 1018              		.loc 2 142 0
 1019 0140 4B06     		lsls	r3, r1, #25
 1020 0142 14D5     		bpl	.L88
 1021 0144 0823     		movs	r3, #8
 1022 0146 0125     		movs	r5, #1
 1023 0148 9A46     		mov	r10, r3
 1024              	.LVL102:
 1025 014a 01E0     		b	.L71
 1026              	.LVL103:
 1027              	.L118:
 1028 014c EB00     		lsls	r3, r5, #3
 1029 014e 9A46     		mov	r10, r3
 1030              	.LVL104:
 1031              	.L71:
 1032              	.LBB280:
 1033              	.LBB277:
 1034              	.LBB273:
 1035              	.LBB274:
 127:address.h     ****                                 return i;
 1036              		.loc 2 127 0
 1037 0150 5346     		mov	r3, r10
 1038 0152 5A1B     		subs	r2, r3, r5
 1039 0154 B918     		adds	r1, r7, r2
 1040 0156 0B7B     		ldrb	r3, [r1, #12]
 1041 0158 9B06     		lsls	r3, r3, #26
 1042 015a 5B0F     		lsrs	r3, r3, #29
 1043 015c 5B45     		cmp	r3, fp
 1044 015e 1DD0     		beq	.L69
 126:address.h     ****                         if(thePool[i].address.bmParent == addr.bmAddress)
 1045              		.loc 2 126 0
 1046 0160 0135     		adds	r5, r5, #1
 1047              	.LVL105:
 1048 0162 EDB2     		uxtb	r5, r5
 1049              	.LVL106:
 1050 0164 102D     		cmp	r5, #16
 1051 0166 F1D1     		bne	.L118
 1052              	.LVL107:
 1053              	.LBE274:
 1054              	.LBE273:
 1055              	.LBE277:
 147:address.h     ****                                 hubCounter--;
 1056              		.loc 2 147 0
 1057 0168 FB79     		ldrb	r3, [r7, #7]
 1058 016a 5B45     		cmp	r3, fp
 1059 016c 6FD0     		beq	.L119
 1060              	.LVL108:
 1061              	.L88:
 1062              	.LBE280:
 1063              	.LBE284:
 1064              	.LBB285:
 1065              	.LBB286:
 107:address.h     ****                 thePool[index].epcount = 1;
 1066              		.loc 2 107 0
 1067 016e 4A46     		mov	r2, r9
 108:address.h     ****                 thePool[index].lowspeed = 0;
 1068              		.loc 2 108 0
ARM GAS  C:\Users\jrdia\AppData\Local\Temp\ccmJQ9RW.s 			page 35


 1069 0170 0121     		movs	r1, #1
 107:address.h     ****                 thePool[index].epcount = 1;
 1070              		.loc 2 107 0
 1071 0172 009B     		ldr	r3, [sp]
 1072 0174 9B1A     		subs	r3, r3, r2
 1073 0176 FB18     		adds	r3, r7, r3
 108:address.h     ****                 thePool[index].lowspeed = 0;
 1074              		.loc 2 108 0
 1075 0178 5973     		strb	r1, [r3, #13]
 110:address.h     ****         };
 1076              		.loc 2 110 0
 1077 017a 6946     		mov	r1, sp
 107:address.h     ****                 thePool[index].epcount = 1;
 1078              		.loc 2 107 0
 1079 017c 0022     		movs	r2, #0
 110:address.h     ****         };
 1080              		.loc 2 110 0
 1081 017e 097E     		ldrb	r1, [r1, #24]
 107:address.h     ****                 thePool[index].epcount = 1;
 1082              		.loc 2 107 0
 1083 0180 1A73     		strb	r2, [r3, #12]
 109:address.h     ****                 thePool[index].epinfo = &dev0ep;
 1084              		.loc 2 109 0
 1085 0182 9A73     		strb	r2, [r3, #14]
 110:address.h     ****         };
 1086              		.loc 2 110 0
 1087 0184 1972     		strb	r1, [r3, #8]
 1088 0186 1A00     		movs	r2, r3
 1089 0188 6B46     		mov	r3, sp
 1090 018a 1B7F     		ldrb	r3, [r3, #28]
 1091 018c 5372     		strb	r3, [r2, #9]
 1092 018e 6B46     		mov	r3, sp
 1093 0190 1B7C     		ldrb	r3, [r3, #16]
 1094 0192 9372     		strb	r3, [r2, #10]
 1095 0194 6B46     		mov	r3, sp
 1096 0196 1B7D     		ldrb	r3, [r3, #20]
 1097 0198 D372     		strb	r3, [r2, #11]
 1098              	.LVL109:
 1099 019a 9FE7     		b	.L68
 1100              	.LVL110:
 1101              	.L69:
 1102              	.LBE286:
 1103              	.LBE285:
 1104              	.LBB287:
 1105              	.LBB281:
 1106              	.LBB278:
 1107              	.LBB275:
 1108              	.LBB271:
 1109              	.LBB269:
 1110              	.LBB267:
 140:address.h     ****                 // If a hub was switched off all port addresses should be freed
 1111              		.loc 2 140 0
 1112 019c BA18     		adds	r2, r7, r2
 1113 019e 137B     		ldrb	r3, [r2, #12]
 1114 01a0 097B     		ldrb	r1, [r1, #12]
 1115 01a2 5B07     		lsls	r3, r3, #29
 1116 01a4 5B0F     		lsrs	r3, r3, #29
ARM GAS  C:\Users\jrdia\AppData\Local\Temp\ccmJQ9RW.s 			page 36


 1117 01a6 9846     		mov	r8, r3
 1118              	.LVL111:
 1119              	.LBB255:
 142:address.h     ****                         for(uint8_t i = 1; (i = FindChildIndex(uda, i));)
 1120              		.loc 2 142 0
 1121 01a8 4B06     		lsls	r3, r1, #25
 1122 01aa 11D5     		bpl	.L91
 1123 01ac 0124     		movs	r4, #1
 1124 01ae 0826     		movs	r6, #8
 1125 01b0 00E0     		b	.L74
 1126              	.LVL112:
 1127              	.L120:
 1128 01b2 E600     		lsls	r6, r4, #3
 1129              	.LVL113:
 1130              	.L74:
 1131              	.LBB256:
 1132              	.LBB257:
 1133              	.LBB258:
 1134              	.LBB259:
 127:address.h     ****                                 return i;
 1135              		.loc 2 127 0
 1136 01b4 331B     		subs	r3, r6, r4
 1137 01b6 FB18     		adds	r3, r7, r3
 1138 01b8 1B7B     		ldrb	r3, [r3, #12]
 1139 01ba 9B06     		lsls	r3, r3, #26
 1140 01bc 5B0F     		lsrs	r3, r3, #29
 1141 01be 4345     		cmp	r3, r8
 1142 01c0 1CD0     		beq	.L72
 126:address.h     ****                         if(thePool[i].address.bmParent == addr.bmAddress)
 1143              		.loc 2 126 0
 1144 01c2 0134     		adds	r4, r4, #1
 1145              	.LVL114:
 1146 01c4 E4B2     		uxtb	r4, r4
 1147              	.LVL115:
 1148 01c6 102C     		cmp	r4, #16
 1149 01c8 F3D1     		bne	.L120
 1150              	.LVL116:
 1151              	.LBE259:
 1152              	.LBE258:
 1153              	.LBE257:
 147:address.h     ****                                 hubCounter--;
 1154              		.loc 2 147 0
 1155 01ca FB79     		ldrb	r3, [r7, #7]
 1156 01cc 4345     		cmp	r3, r8
 1157 01ce 1AD0     		beq	.L121
 1158              	.L91:
 1159              	.LVL117:
 1160              	.LBE256:
 1161              	.LBE255:
 1162              	.LBB264:
 1163              	.LBB253:
 107:address.h     ****                 thePool[index].epcount = 1;
 1164              		.loc 2 107 0
 1165 01d0 5346     		mov	r3, r10
 108:address.h     ****                 thePool[index].lowspeed = 0;
 1166              		.loc 2 108 0
 1167 01d2 0121     		movs	r1, #1
ARM GAS  C:\Users\jrdia\AppData\Local\Temp\ccmJQ9RW.s 			page 37


 107:address.h     ****                 thePool[index].epcount = 1;
 1168              		.loc 2 107 0
 1169 01d4 5B1B     		subs	r3, r3, r5
 1170 01d6 FB18     		adds	r3, r7, r3
 108:address.h     ****                 thePool[index].lowspeed = 0;
 1171              		.loc 2 108 0
 1172 01d8 5973     		strb	r1, [r3, #13]
 110:address.h     ****         };
 1173              		.loc 2 110 0
 1174 01da 6946     		mov	r1, sp
 107:address.h     ****                 thePool[index].epcount = 1;
 1175              		.loc 2 107 0
 1176 01dc 0022     		movs	r2, #0
 110:address.h     ****         };
 1177              		.loc 2 110 0
 1178 01de 097E     		ldrb	r1, [r1, #24]
 107:address.h     ****                 thePool[index].epcount = 1;
 1179              		.loc 2 107 0
 1180 01e0 1A73     		strb	r2, [r3, #12]
 109:address.h     ****                 thePool[index].epinfo = &dev0ep;
 1181              		.loc 2 109 0
 1182 01e2 9A73     		strb	r2, [r3, #14]
 110:address.h     ****         };
 1183              		.loc 2 110 0
 1184 01e4 1972     		strb	r1, [r3, #8]
 1185 01e6 1A00     		movs	r2, r3
 1186 01e8 6B46     		mov	r3, sp
 1187 01ea 1B7F     		ldrb	r3, [r3, #28]
 1188 01ec 5372     		strb	r3, [r2, #9]
 1189 01ee 6B46     		mov	r3, sp
 1190 01f0 1B7C     		ldrb	r3, [r3, #16]
 1191 01f2 9372     		strb	r3, [r2, #10]
 1192 01f4 6B46     		mov	r3, sp
 1193 01f6 1B7D     		ldrb	r3, [r3, #20]
 1194 01f8 D372     		strb	r3, [r2, #11]
 1195              	.LVL118:
 1196 01fa A9E7     		b	.L71
 1197              	.LVL119:
 1198              	.L72:
 1199              	.LBE253:
 1200              	.LBE264:
 1201              	.LBB265:
 1202              	.LBB263:
 1203              	.LBB262:
 1204              	.LBB260:
 1205              	.LBB261:
 1206 01fc 2100     		movs	r1, r4
 1207 01fe 3800     		movs	r0, r7
 1208 0200 FFF7FEFE 		bl	_ZN15AddressPoolImplILh16EE18FreeAddressByIndexEh.part.8.constprop.11
 1209              	.LVL120:
 1210 0204 D6E7     		b	.L74
 1211              	.LVL121:
 1212              	.L121:
 1213              	.LBE261:
 1214              	.LBE260:
 1215              	.LBE262:
 148:address.h     ****                 }
ARM GAS  C:\Users\jrdia\AppData\Local\Temp\ccmJQ9RW.s 			page 38


 1216              		.loc 2 148 0
 1217 0206 4346     		mov	r3, r8
 1218 0208 013B     		subs	r3, r3, #1
 1219 020a FB71     		strb	r3, [r7, #7]
 1220 020c E0E7     		b	.L91
 1221              	.LVL122:
 1222              	.L64:
 1223              	.LBE263:
 1224              	.LBE265:
 1225              	.LBE267:
 1226              	.LBE269:
 1227              	.LBE271:
 1228              	.LBE275:
 1229              	.LBE278:
 1230              	.LBE281:
 1231              	.LBE287:
 1232              	.LBE290:
 1233              	.LBE293:
 1234              	.LBE296:
 1235              	.LBE301:
 1236              	.LBE305:
 1237              	.LBE309:
 1238              	.LBE316:
 1239              	.LBE320:
 1240              	.LBE324:
 1241              	.LBE328:
 1242              	.LBE334:
 1243              	.LBE337:
 147:address.h     ****                                 hubCounter--;
 1244              		.loc 2 147 0
 1245 020e FB79     		ldrb	r3, [r7, #7]
 1246              	.LVL123:
 1247 0210 089A     		ldr	r2, [sp, #32]
 1248 0212 BB46     		mov	fp, r7
 1249              	.LVL124:
 1250 0214 9342     		cmp	r3, r2
 1251 0216 46D0     		beq	.L122
 1252              	.LVL125:
 1253              	.L82:
 1254              	.LBE340:
 1255              	.LBE343:
 1256              	.LBB344:
 1257              	.LBB345:
 108:address.h     ****                 thePool[index].lowspeed = 0;
 1258              		.loc 2 108 0
 1259 0218 0121     		movs	r1, #1
 107:address.h     ****                 thePool[index].epcount = 1;
 1260              		.loc 2 107 0
 1261 021a 099A     		ldr	r2, [sp, #36]
 1262 021c 0A9B     		ldr	r3, [sp, #40]
 110:address.h     ****         };
 1263              		.loc 2 110 0
 1264 021e 3020     		movs	r0, #48
 107:address.h     ****                 thePool[index].epcount = 1;
 1265              		.loc 2 107 0
 1266 0220 9B1A     		subs	r3, r3, r2
 1267 0222 5B44     		add	r3, r3, fp
ARM GAS  C:\Users\jrdia\AppData\Local\Temp\ccmJQ9RW.s 			page 39


 108:address.h     ****                 thePool[index].lowspeed = 0;
 1268              		.loc 2 108 0
 1269 0224 5973     		strb	r1, [r3, #13]
 110:address.h     ****         };
 1270              		.loc 2 110 0
 1271 0226 6946     		mov	r1, sp
 107:address.h     ****                 thePool[index].epcount = 1;
 1272              		.loc 2 107 0
 1273 0228 0022     		movs	r2, #0
 110:address.h     ****         };
 1274              		.loc 2 110 0
 1275 022a 0918     		adds	r1, r1, r0
 1276 022c 0978     		ldrb	r1, [r1]
 107:address.h     ****                 thePool[index].epcount = 1;
 1277              		.loc 2 107 0
 1278 022e 1A73     		strb	r2, [r3, #12]
 109:address.h     ****                 thePool[index].epinfo = &dev0ep;
 1279              		.loc 2 109 0
 1280 0230 9A73     		strb	r2, [r3, #14]
 110:address.h     ****         };
 1281              		.loc 2 110 0
 1282 0232 1972     		strb	r1, [r3, #8]
 1283 0234 1A00     		movs	r2, r3
 1284 0236 3C21     		movs	r1, #60
 1285 0238 6B46     		mov	r3, sp
 1286 023a 5B18     		adds	r3, r3, r1
 1287 023c 1B78     		ldrb	r3, [r3]
 1288 023e 5372     		strb	r3, [r2, #9]
 1289 0240 6B46     		mov	r3, sp
 1290 0242 1B7C     		ldrb	r3, [r3, #16]
 1291 0244 9372     		strb	r3, [r2, #10]
 1292 0246 6B46     		mov	r3, sp
 1293 0248 1B7D     		ldrb	r3, [r3, #20]
 1294 024a D372     		strb	r3, [r2, #11]
 1295              	.LVL126:
 1296 024c 02E7     		b	.L62
 1297              	.LVL127:
 1298              	.L119:
 1299              	.LBE345:
 1300              	.LBE344:
 1301              	.LBB346:
 1302              	.LBB341:
 1303              	.LBB338:
 1304              	.LBB335:
 1305              	.LBB329:
 1306              	.LBB325:
 1307              	.LBB321:
 1308              	.LBB317:
 1309              	.LBB310:
 1310              	.LBB306:
 1311              	.LBB302:
 1312              	.LBB297:
 1313              	.LBB294:
 1314              	.LBB291:
 1315              	.LBB288:
 1316              	.LBB282:
 148:address.h     ****                 }
ARM GAS  C:\Users\jrdia\AppData\Local\Temp\ccmJQ9RW.s 			page 40


 1317              		.loc 2 148 0
 1318 024e 5B46     		mov	r3, fp
 1319 0250 013B     		subs	r3, r3, #1
 1320 0252 FB71     		strb	r3, [r7, #7]
 1321 0254 8BE7     		b	.L88
 1322              	.LVL128:
 1323              	.L61:
 1324              	.LBE282:
 1325              	.LBE288:
 1326              	.LBE291:
 1327              	.LBE294:
 1328              	.LBE297:
 1329              	.LBE302:
 1330              	.LBE306:
 1331              	.LBE310:
 1332              	.LBE317:
 1333              	.LBE321:
 1334              	.LBE325:
 1335              	.LBE329:
 1336              	.LBE335:
 1337              	.LBE338:
 1338              	.LBE341:
 1339              	.LBE346:
 1340              	.LBE348:
 1341              	.LBE350:
 1342              	.LBE352:
 1343              	.LBE356:
 1344              	.LBE224:
 147:address.h     ****                                 hubCounter--;
 1345              		.loc 2 147 0
 1346 0256 5B46     		mov	r3, fp
 1347 0258 0B9A     		ldr	r2, [sp, #44]
 1348 025a DB79     		ldrb	r3, [r3, #7]
 1349 025c 9342     		cmp	r3, r2
 1350 025e 2BD0     		beq	.L123
 1351              	.L59:
 1352              	.LVL129:
 1353              	.LBE223:
 1354              	.LBE222:
 1355              	.LBB360:
 1356              	.LBB361:
 107:address.h     ****                 thePool[index].epcount = 1;
 1357              		.loc 2 107 0
 1358 0260 0D9A     		ldr	r2, [sp, #52]
 1359 0262 0E9B     		ldr	r3, [sp, #56]
 108:address.h     ****                 thePool[index].lowspeed = 0;
 1360              		.loc 2 108 0
 1361 0264 0121     		movs	r1, #1
 107:address.h     ****                 thePool[index].epcount = 1;
 1362              		.loc 2 107 0
 1363 0266 9B1A     		subs	r3, r3, r2
 1364 0268 0022     		movs	r2, #0
 1365 026a 5B44     		add	r3, r3, fp
 1366 026c 1A73     		strb	r2, [r3, #12]
 109:address.h     ****                 thePool[index].epinfo = &dev0ep;
 1367              		.loc 2 109 0
 1368 026e 9A73     		strb	r2, [r3, #14]
ARM GAS  C:\Users\jrdia\AppData\Local\Temp\ccmJQ9RW.s 			page 41


 110:address.h     ****         };
 1369              		.loc 2 110 0
 1370 0270 1A00     		movs	r2, r3
 108:address.h     ****                 thePool[index].lowspeed = 0;
 1371              		.loc 2 108 0
 1372 0272 5973     		strb	r1, [r3, #13]
 110:address.h     ****         };
 1373              		.loc 2 110 0
 1374 0274 0C99     		ldr	r1, [sp, #48]
 1375 0276 1972     		strb	r1, [r3, #8]
 1376 0278 0B0A     		lsrs	r3, r1, #8
 1377 027a 5372     		strb	r3, [r2, #9]
 1378 027c 0B0C     		lsrs	r3, r1, #16
 1379 027e 9372     		strb	r3, [r2, #10]
 1380 0280 0B0E     		lsrs	r3, r1, #24
 1381 0282 D372     		strb	r3, [r2, #11]
 1382              	.LVL130:
 1383              	.LBE361:
 1384              	.LBE360:
 151:address.h     **** 
 1385              		.loc 2 151 0
 1386 0284 11B0     		add	sp, sp, #68
 1387              		@ sp needed
 1388              	.LVL131:
 1389 0286 3CBC     		pop	{r2, r3, r4, r5}
 1390 0288 9046     		mov	r8, r2
 1391 028a 9946     		mov	r9, r3
 1392 028c A246     		mov	r10, r4
 1393 028e AB46     		mov	fp, r5
 1394 0290 F0BD     		pop	{r4, r5, r6, r7, pc}
 1395              	.LVL132:
 1396              	.L117:
 1397              	.LBB362:
 1398              	.LBB359:
 1399              	.LBB358:
 1400              	.LBB357:
 1401              	.LBB353:
 1402              	.LBB351:
 1403              	.LBB349:
 1404              	.LBB347:
 1405              	.LBB342:
 1406              	.LBB339:
 1407              	.LBB336:
 1408              	.LBB330:
 1409              	.LBB326:
 1410              	.LBB322:
 1411              	.LBB318:
 1412              	.LBB311:
 148:address.h     ****                 }
 1413              		.loc 2 148 0
 1414 0292 019B     		ldr	r3, [sp, #4]
 1415 0294 013B     		subs	r3, r3, #1
 1416 0296 FB71     		strb	r3, [r7, #7]
 1417 0298 35E7     		b	.L84
 1418              	.LVL133:
 1419              	.L114:
 1420 029a 0C9B     		ldr	r3, [sp, #48]
ARM GAS  C:\Users\jrdia\AppData\Local\Temp\ccmJQ9RW.s 			page 42


 1421 029c 1A0C     		lsrs	r2, r3, #16
 1422 029e 1B0E     		lsrs	r3, r3, #24
 1423 02a0 0492     		str	r2, [sp, #16]
 1424 02a2 0593     		str	r3, [sp, #20]
 1425 02a4 B8E7     		b	.L82
 1426              	.LVL134:
 1427              	.L122:
 1428              	.LBE311:
 1429              	.LBE318:
 1430              	.LBE322:
 1431              	.LBE326:
 1432              	.LBE330:
 1433              	.LBE336:
 1434              	.LBE339:
 1435 02a6 5A46     		mov	r2, fp
 1436 02a8 089B     		ldr	r3, [sp, #32]
 1437 02aa 013B     		subs	r3, r3, #1
 1438 02ac D371     		strb	r3, [r2, #7]
 1439 02ae B3E7     		b	.L82
 1440              	.LVL135:
 1441              	.L112:
 1442 02b0 0300     		movs	r3, r0
 1443 02b2 0433     		adds	r3, r3, #4
 1444 02b4 0C93     		str	r3, [sp, #48]
 1445 02b6 D3E7     		b	.L59
 1446              	.LVL136:
 1447              	.L123:
 1448              	.LBE342:
 1449              	.LBE347:
 1450              	.LBE349:
 1451              	.LBE351:
 1452              	.LBE353:
 1453              	.LBE357:
 1454              	.LBE358:
 1455 02b8 5A46     		mov	r2, fp
 1456 02ba 0B9B     		ldr	r3, [sp, #44]
 1457 02bc 013B     		subs	r3, r3, #1
 1458 02be D371     		strb	r3, [r2, #7]
 1459 02c0 CEE7     		b	.L59
 1460              	.LBE359:
 1461              	.LBE362:
 1462              		.cfi_endproc
 1463              	.LFE279:
 1464              		.cantunwind
 1465              		.fnend
 1466              		.size	_ZN15AddressPoolImplILh16EE18FreeAddressByIndexEh.part.8.constprop.11, .-_ZN15AddressPoolImp
 1467 02c2 C046     		.section	.text._ZN15AddressPoolImplILh16EE11FreeAddressEh,"axG",%progbits,_ZN15AddressPoolImplILh1
 1468              		.align	2
 1469              		.weak	_ZN15AddressPoolImplILh16EE11FreeAddressEh
 1470              		.code	16
 1471              		.thumb_func
 1472              		.type	_ZN15AddressPoolImplILh16EE11FreeAddressEh, %function
 1473              	_ZN15AddressPoolImplILh16EE11FreeAddressEh:
 1474              		.fnstart
 1475              	.LFB258:
 252:address.h     **** 
 253:address.h     ****         // Empties pool entry
ARM GAS  C:\Users\jrdia\AppData\Local\Temp\ccmJQ9RW.s 			page 43


 254:address.h     **** 
 255:address.h     ****         virtual void FreeAddress(uint8_t addr) {
 1476              		.loc 2 255 0
 1477              		.cfi_startproc
 1478              		@ args = 0, pretend = 0, frame = 0
 1479              		@ frame_needed = 0, uses_anonymous_args = 0
 1480              	.LVL137:
 1481 0000 F8B5     		push	{r3, r4, r5, r6, r7, lr}
 1482              		.cfi_def_cfa_offset 24
 1483              		.cfi_offset 3, -24
 1484              		.cfi_offset 4, -20
 1485              		.cfi_offset 5, -16
 1486              		.cfi_offset 6, -12
 1487              		.cfi_offset 7, -8
 1488              		.cfi_offset 14, -4
 1489 0002 5646     		mov	r6, r10
 1490 0004 5F46     		mov	r7, fp
 1491 0006 4D46     		mov	r5, r9
 1492 0008 4446     		mov	r4, r8
 1493 000a F0B4     		push	{r4, r5, r6, r7}
 1494              		.cfi_def_cfa_offset 40
 1495              		.cfi_offset 8, -40
 1496              		.cfi_offset 9, -36
 1497              		.cfi_offset 10, -32
 1498              		.cfi_offset 11, -28
 1499              		.loc 2 255 0
 1500 000c 0600     		movs	r6, r0
 256:address.h     ****                 // if the root hub is disconnected all the addresses should be initialized
 257:address.h     ****                 if(addr == 0x41) {
 1501              		.loc 2 257 0
 1502 000e 4129     		cmp	r1, #65
 1503 0010 45D0     		beq	.L145
 1504 0012 0122     		movs	r2, #1
 1505 0014 0300     		movs	r3, r0
 1506 0016 9046     		mov	r8, r2
 1507 0018 1333     		adds	r3, r3, #19
 1508              	.L129:
 1509              	.LVL138:
 1510              	.LBB401:
 1511              	.LBB402:
 117:address.h     ****                                 return i;
 1512              		.loc 2 117 0
 1513 001a 1A78     		ldrb	r2, [r3]
 1514 001c 8A42     		cmp	r2, r1
 1515 001e 0CD0     		beq	.L128
 1516              	.LVL139:
 1517 0020 0122     		movs	r2, #1
 1518 0022 9446     		mov	ip, r2
 1519 0024 E044     		add	r8, r8, ip
 1520              	.LVL140:
 116:address.h     ****                         if(thePool[i].address.devAddress == address)
 1521              		.loc 2 116 0
 1522 0026 4246     		mov	r2, r8
 1523 0028 0733     		adds	r3, r3, #7
 1524 002a 102A     		cmp	r2, #16
 1525 002c F5D1     		bne	.L129
 1526              	.LVL141:
ARM GAS  C:\Users\jrdia\AppData\Local\Temp\ccmJQ9RW.s 			page 44


 1527              	.L124:
 1528              	.LBE402:
 1529              	.LBE401:
 258:address.h     ****                         InitAllAddresses();
 259:address.h     ****                         return;
 260:address.h     ****                 }
 261:address.h     ****                 uint8_t index = FindAddressIndex(addr);
 262:address.h     ****                 FreeAddressByIndex(index);
 263:address.h     ****         };
 1530              		.loc 2 263 0
 1531              		@ sp needed
 1532 002e 3CBC     		pop	{r2, r3, r4, r5}
 1533 0030 9046     		mov	r8, r2
 1534 0032 9946     		mov	r9, r3
 1535 0034 A246     		mov	r10, r4
 1536 0036 AB46     		mov	fp, r5
 1537 0038 F8BD     		pop	{r3, r4, r5, r6, r7, pc}
 1538              	.LVL142:
 1539              	.L128:
 1540              	.LBB403:
 1541              	.LBB404:
 1542              	.LBB405:
 1543              	.LBB406:
 140:address.h     ****                 // If a hub was switched off all port addresses should be freed
 1544              		.loc 2 140 0
 1545 003a 4346     		mov	r3, r8
 1546 003c 4246     		mov	r2, r8
 1547 003e DB00     		lsls	r3, r3, #3
 1548 0040 9946     		mov	r9, r3
 1549 0042 9B1A     		subs	r3, r3, r2
 1550 0044 F218     		adds	r2, r6, r3
 1551 0046 127B     		ldrb	r2, [r2, #12]
 1552 0048 5707     		lsls	r7, r2, #29
 1553 004a 7F0F     		lsrs	r7, r7, #29
 1554              	.LVL143:
 1555              	.LBB407:
 142:address.h     ****                         for(uint8_t i = 1; (i = FindChildIndex(uda, i));)
 1556              		.loc 2 142 0
 1557 004c 5306     		lsls	r3, r2, #25
 1558 004e 13D5     		bpl	.L135
 1559 0050 0124     		movs	r4, #1
 1560 0052 0825     		movs	r5, #8
 1561 0054 00E0     		b	.L132
 1562              	.LVL144:
 1563              	.L146:
 1564 0056 E500     		lsls	r5, r4, #3
 1565              	.LVL145:
 1566              	.L132:
 1567              	.LBB408:
 1568              	.LBB409:
 1569              	.LBB410:
 1570              	.LBB411:
 127:address.h     ****                                 return i;
 1571              		.loc 2 127 0
 1572 0058 2B1B     		subs	r3, r5, r4
 1573 005a F318     		adds	r3, r6, r3
 1574 005c 1B7B     		ldrb	r3, [r3, #12]
ARM GAS  C:\Users\jrdia\AppData\Local\Temp\ccmJQ9RW.s 			page 45


 1575 005e 9B06     		lsls	r3, r3, #26
 1576 0060 5B0F     		lsrs	r3, r3, #29
 1577 0062 BB42     		cmp	r3, r7
 1578 0064 45D0     		beq	.L130
 126:address.h     ****                         if(thePool[i].address.bmParent == addr.bmAddress)
 1579              		.loc 2 126 0
 1580 0066 0134     		adds	r4, r4, #1
 1581              	.LVL146:
 1582 0068 E4B2     		uxtb	r4, r4
 1583              	.LVL147:
 1584 006a 102C     		cmp	r4, #16
 1585 006c F3D1     		bne	.L146
 1586              	.LVL148:
 1587              	.LBE411:
 1588              	.LBE410:
 1589              	.LBE409:
 147:address.h     ****                                 hubCounter--;
 1590              		.loc 2 147 0
 1591 006e F379     		ldrb	r3, [r6, #7]
 1592 0070 BB42     		cmp	r3, r7
 1593 0072 01D1     		bne	.L135
 148:address.h     ****                 }
 1594              		.loc 2 148 0
 1595 0074 013F     		subs	r7, r7, #1
 1596 0076 F771     		strb	r7, [r6, #7]
 1597              	.L135:
 1598              	.LVL149:
 1599              	.LBE408:
 1600              	.LBE407:
 1601              	.LBB416:
 1602              	.LBB417:
 107:address.h     ****                 thePool[index].epcount = 1;
 1603              		.loc 2 107 0
 1604 0078 4246     		mov	r2, r8
 1605 007a 4B46     		mov	r3, r9
 1606 007c 9B1A     		subs	r3, r3, r2
 1607 007e 0022     		movs	r2, #0
 1608 0080 F318     		adds	r3, r6, r3
 108:address.h     ****                 thePool[index].lowspeed = 0;
 1609              		.loc 2 108 0
 1610 0082 0121     		movs	r1, #1
 107:address.h     ****                 thePool[index].epcount = 1;
 1611              		.loc 2 107 0
 1612 0084 1A73     		strb	r2, [r3, #12]
 109:address.h     ****                 thePool[index].epinfo = &dev0ep;
 1613              		.loc 2 109 0
 1614 0086 9A73     		strb	r2, [r3, #14]
 110:address.h     ****         };
 1615              		.loc 2 110 0
 1616 0088 1A00     		movs	r2, r3
 1617 008a 0436     		adds	r6, r6, #4
 1618              	.LVL150:
 1619 008c 1E72     		strb	r6, [r3, #8]
 108:address.h     ****                 thePool[index].lowspeed = 0;
 1620              		.loc 2 108 0
 1621 008e 5973     		strb	r1, [r3, #13]
 110:address.h     ****         };
ARM GAS  C:\Users\jrdia\AppData\Local\Temp\ccmJQ9RW.s 			page 46


 1622              		.loc 2 110 0
 1623 0090 330A     		lsrs	r3, r6, #8
 1624 0092 5372     		strb	r3, [r2, #9]
 1625 0094 330C     		lsrs	r3, r6, #16
 1626 0096 360E     		lsrs	r6, r6, #24
 1627              	.LVL151:
 1628 0098 9372     		strb	r3, [r2, #10]
 1629 009a D672     		strb	r6, [r2, #11]
 1630              	.LVL152:
 1631 009c C7E7     		b	.L124
 1632              	.LVL153:
 1633              	.L145:
 1634 009e 7C23     		movs	r3, #124
 1635 00a0 041D     		adds	r4, r0, #4
 1636 00a2 9946     		mov	r9, r3
 1637 00a4 230E     		lsrs	r3, r4, #24
 1638 00a6 9846     		mov	r8, r3
 1639              	.LBE417:
 1640              	.LBE416:
 1641              	.LBE406:
 1642              	.LBE405:
 1643              	.LBE404:
 1644              	.LBE403:
 1645              	.LBB422:
 1646              	.LBB423:
 1647              	.LBB424:
 1648              	.LBB425:
 1649              	.LBB426:
 1650              	.LBB427:
 1651              	.LBB428:
 108:address.h     ****                 thePool[index].lowspeed = 0;
 1652              		.loc 2 108 0
 1653 00a8 0123     		movs	r3, #1
 1654 00aa 250C     		lsrs	r5, r4, #16
 1655 00ac 9C46     		mov	ip, r3
 110:address.h     ****         };
 1656              		.loc 2 110 0
 1657 00ae FE33     		adds	r3, r3, #254
 1658 00b0 0200     		movs	r2, r0
 1659 00b2 270A     		lsrs	r7, r4, #8
 1660 00b4 1D40     		ands	r5, r3
 1661 00b6 1C40     		ands	r4, r3
 1662 00b8 8144     		add	r9, r9, r0
 1663 00ba A246     		mov	r10, r4
 107:address.h     ****                 thePool[index].epcount = 1;
 1664              		.loc 2 107 0
 1665 00bc 0020     		movs	r0, #0
 1666              	.LVL154:
 110:address.h     ****         };
 1667              		.loc 2 110 0
 1668 00be AB46     		mov	fp, r5
 1669 00c0 1332     		adds	r2, r2, #19
 1670              	.LBE428:
 1671              	.LBE427:
 1672              	.LBE426:
 1673              	.LBE425:
 1674              	.LBE424:
ARM GAS  C:\Users\jrdia\AppData\Local\Temp\ccmJQ9RW.s 			page 47


 1675              	.LBE423:
 1676              	.LBE422:
 257:address.h     ****                         InitAllAddresses();
 1677              		.loc 2 257 0
 1678 00c2 4039     		subs	r1, r1, #64
 1679              	.LVL155:
 1680              	.LBB435:
 1681              	.LBB434:
 1682              	.LBB433:
 1683              	.LBB432:
 1684              	.LBB431:
 1685              	.LBB430:
 1686              	.LBB429:
 110:address.h     ****         };
 1687              		.loc 2 110 0
 1688 00c4 1F40     		ands	r7, r3
 1689              	.L126:
 1690              	.LVL156:
 108:address.h     ****                 thePool[index].lowspeed = 0;
 1691              		.loc 2 108 0
 1692 00c6 6346     		mov	r3, ip
 110:address.h     ****         };
 1693              		.loc 2 110 0
 1694 00c8 5546     		mov	r5, r10
 108:address.h     ****                 thePool[index].lowspeed = 0;
 1695              		.loc 2 108 0
 1696 00ca 5370     		strb	r3, [r2, #1]
 110:address.h     ****         };
 1697              		.loc 2 110 0
 1698 00cc CB00     		lsls	r3, r1, #3
 1699 00ce 5B1A     		subs	r3, r3, r1
 1700 00d0 F318     		adds	r3, r6, r3
 107:address.h     ****                 thePool[index].epcount = 1;
 1701              		.loc 2 107 0
 1702 00d2 1070     		strb	r0, [r2]
 109:address.h     ****                 thePool[index].epinfo = &dev0ep;
 1703              		.loc 2 109 0
 1704 00d4 9070     		strb	r0, [r2, #2]
 110:address.h     ****         };
 1705              		.loc 2 110 0
 1706 00d6 1C00     		movs	r4, r3
 1707 00d8 1D72     		strb	r5, [r3, #8]
 1708 00da 5F72     		strb	r7, [r3, #9]
 1709 00dc 5B46     		mov	r3, fp
 1710 00de A372     		strb	r3, [r4, #10]
 1711 00e0 4346     		mov	r3, r8
 1712 00e2 0732     		adds	r2, r2, #7
 1713 00e4 E372     		strb	r3, [r4, #11]
 1714              	.LVL157:
 1715 00e6 0131     		adds	r1, r1, #1
 1716              	.LVL158:
 1717              	.LBE429:
 1718              	.LBE430:
 156:address.h     ****                         InitEntry(i);
 1719              		.loc 2 156 0
 1720 00e8 9145     		cmp	r9, r2
 1721 00ea ECD1     		bne	.L126
ARM GAS  C:\Users\jrdia\AppData\Local\Temp\ccmJQ9RW.s 			page 48


 1722              	.LBE431:
 159:address.h     ****         };
 1723              		.loc 2 159 0
 1724 00ec 0023     		movs	r3, #0
 1725 00ee F371     		strb	r3, [r6, #7]
 1726 00f0 9DE7     		b	.L124
 1727              	.LVL159:
 1728              	.L130:
 1729              	.LBE432:
 1730              	.LBE433:
 1731              	.LBE434:
 1732              	.LBE435:
 1733              	.LBB436:
 1734              	.LBB421:
 1735              	.LBB420:
 1736              	.LBB419:
 1737              	.LBB418:
 1738              	.LBB415:
 1739              	.LBB414:
 1740              	.LBB412:
 1741              	.LBB413:
 1742 00f2 2100     		movs	r1, r4
 1743 00f4 3000     		movs	r0, r6
 1744 00f6 FFF7FEFF 		bl	_ZN15AddressPoolImplILh16EE18FreeAddressByIndexEh.part.8.constprop.11
 1745              	.LVL160:
 1746 00fa ADE7     		b	.L132
 1747              	.LBE413:
 1748              	.LBE412:
 1749              	.LBE414:
 1750              	.LBE415:
 1751              	.LBE418:
 1752              	.LBE419:
 1753              	.LBE420:
 1754              	.LBE421:
 1755              	.LBE436:
 1756              		.cfi_endproc
 1757              	.LFE258:
 1758              		.cantunwind
 1759              		.fnend
 1760              		.size	_ZN15AddressPoolImplILh16EE11FreeAddressEh, .-_ZN15AddressPoolImplILh16EE11FreeAddressEh
 1761              		.section	.text._ZN3USBC2Ev,"ax",%progbits
 1762              		.align	2
 1763              		.global	_ZN3USBC2Ev
 1764              		.code	16
 1765              		.thumb_func
 1766              		.type	_ZN3USBC2Ev, %function
 1767              	_ZN3USBC2Ev:
 1768              		.fnstart
 1769              	.LFB214:
 1770              		.file 4 "Usb.c"
   1:Usb.c         **** /* Copyright (C) 2011 Circuits At Home, LTD. All rights reserved.
   2:Usb.c         **** 
   3:Usb.c         **** This software may be distributed and modified under the terms of the GNU
   4:Usb.c         **** General Public License version 2 (GPL2) as published by the Free Software
   5:Usb.c         **** Foundation and appearing in the file GPL2.TXT included in the packaging of
   6:Usb.c         **** this file. Please note that GPL2 Section 2[b] requires that all works based
   7:Usb.c         **** on this software must also be made publicly available under the terms of
ARM GAS  C:\Users\jrdia\AppData\Local\Temp\ccmJQ9RW.s 			page 49


   8:Usb.c         **** the GPL2 ("Copyleft").
   9:Usb.c         **** 
  10:Usb.c         **** Contact information
  11:Usb.c         **** -------------------
  12:Usb.c         **** 
  13:Usb.c         **** Circuits At Home, LTD
  14:Usb.c         **** Web      :  http://www.circuitsathome.com
  15:Usb.c         **** e-mail   :  support@circuitsathome.com
  16:Usb.c         ****  */
  17:Usb.c         **** /* USB functions */
  18:Usb.c         **** 
  19:Usb.c         **** #include "Usb.h"
  20:Usb.c         **** //#include "Arduino.h" //UNC added
  21:Usb.c         **** 
  22:Usb.c         **** static uint8_t usb_error = 0;
  23:Usb.c         **** static uint8_t usb_task_state;
  24:Usb.c         **** 
  25:Usb.c         **** /* constructor */
  26:Usb.c         **** USB::USB() : bmHubPre(0) {
 1771              		.loc 4 26 0
 1772              		.cfi_startproc
 1773              		@ args = 0, pretend = 0, frame = 0
 1774              		@ frame_needed = 0, uses_anonymous_args = 0
 1775              	.LVL161:
 1776              	.LBB437:
 1777              	.LBB438:
 1778              	.LBB439:
 164:address.h     ****                 // Zero address is reserved
 1779              		.loc 2 164 0
 1780 0000 254B     		ldr	r3, .L150
 1781              	.LBB440:
 1782              	.LBB441:
 108:address.h     ****                 thePool[index].lowspeed = 0;
 1783              		.loc 2 108 0
 1784 0002 0122     		movs	r2, #1
 1785              	.LBE441:
 1786              	.LBE440:
 164:address.h     ****                 // Zero address is reserved
 1787              		.loc 2 164 0
 1788 0004 0360     		str	r3, [r0]
 1789 0006 0023     		movs	r3, #0
 1790 0008 C371     		strb	r3, [r0, #7]
 1791              	.LVL162:
 1792              	.LBB446:
 1793              	.LBB442:
 107:address.h     ****                 thePool[index].epcount = 1;
 1794              		.loc 2 107 0
 1795 000a 0373     		strb	r3, [r0, #12]
 109:address.h     ****                 thePool[index].epinfo = &dev0ep;
 1796              		.loc 2 109 0
 1797 000c 8373     		strb	r3, [r0, #14]
 1798              	.LBE442:
 1799              	.LBE446:
 170:address.h     ****                 dev0ep.maxPktSize = 8;
 1800              		.loc 2 170 0
 1801 000e 0371     		strb	r3, [r0, #4]
 171:address.h     ****                 dev0ep.bmSndToggle = 0; // Set DATA0/1 toggles to 0
ARM GAS  C:\Users\jrdia\AppData\Local\Temp\ccmJQ9RW.s 			page 50


 1802              		.loc 2 171 0
 1803 0010 0833     		adds	r3, r3, #8
 1804 0012 4371     		strb	r3, [r0, #5]
 172:address.h     ****                 dev0ep.bmRcvToggle = 0;
 1805              		.loc 2 172 0
 1806 0014 8379     		ldrb	r3, [r0, #6]
 1807              	.LBB447:
 1808              	.LBB443:
 108:address.h     ****                 thePool[index].lowspeed = 0;
 1809              		.loc 2 108 0
 1810 0016 4273     		strb	r2, [r0, #13]
 1811              	.LBE443:
 1812              	.LBE447:
 173:address.h     ****                 dev0ep.bmNakPower = USB_NAK_MAX_POWER;
 1813              		.loc 2 173 0
 1814 0018 9343     		bics	r3, r2
 174:address.h     **** 
 1815              		.loc 2 174 0
 1816 001a 1340     		ands	r3, r2
 1817 001c 3C22     		movs	r2, #60
 1818              	.LBE439:
 1819              	.LBE438:
 1820              	.LBE437:
 1821              		.loc 4 26 0
 1822 001e F0B5     		push	{r4, r5, r6, r7, lr}
 1823              		.cfi_def_cfa_offset 20
 1824              		.cfi_offset 4, -20
 1825              		.cfi_offset 5, -16
 1826              		.cfi_offset 6, -12
 1827              		.cfi_offset 7, -8
 1828              		.cfi_offset 14, -4
 1829              	.LBB468:
 1830              	.LBB465:
 1831              	.LBB462:
 174:address.h     **** 
 1832              		.loc 2 174 0
 1833 0020 1343     		orrs	r3, r2
 1834              	.LBE462:
 1835              	.LBE465:
 1836              	.LBE468:
 1837              		.loc 4 26 0
 1838 0022 5F46     		mov	r7, fp
 1839 0024 5646     		mov	r6, r10
 1840 0026 4D46     		mov	r5, r9
 1841 0028 4446     		mov	r4, r8
 1842              	.LBB469:
 1843              	.LBB466:
 1844              	.LBB463:
 174:address.h     **** 
 1845              		.loc 2 174 0
 1846 002a 8371     		strb	r3, [r0, #6]
 1847 002c 7C23     		movs	r3, #124
 1848              	.LBE463:
 1849              	.LBE466:
 1850              	.LBE469:
 1851              		.loc 4 26 0
 1852 002e F0B4     		push	{r4, r5, r6, r7}
ARM GAS  C:\Users\jrdia\AppData\Local\Temp\ccmJQ9RW.s 			page 51


 1853              		.cfi_def_cfa_offset 36
 1854              		.cfi_offset 8, -36
 1855              		.cfi_offset 9, -32
 1856              		.cfi_offset 10, -28
 1857              		.cfi_offset 11, -24
 1858              	.LBB470:
 1859              	.LBB467:
 1860              	.LBB464:
 1861              	.LBB448:
 1862              	.LBB444:
 110:address.h     ****         };
 1863              		.loc 2 110 0
 1864 0030 051D     		adds	r5, r0, #4
 1865 0032 9946     		mov	r9, r3
 1866 0034 2B0E     		lsrs	r3, r5, #24
 1867 0036 9846     		mov	r8, r3
 1868              	.LBE444:
 1869              	.LBE448:
 1870              	.LBB449:
 1871              	.LBB450:
 1872              	.LBB451:
 1873              	.LBB452:
 108:address.h     ****                 thePool[index].lowspeed = 0;
 1874              		.loc 2 108 0
 1875 0038 0123     		movs	r3, #1
 1876 003a 2E0C     		lsrs	r6, r5, #16
 1877 003c 9C46     		mov	ip, r3
 110:address.h     ****         };
 1878              		.loc 2 110 0
 1879 003e FE33     		adds	r3, r3, #254
 1880 0040 2F0A     		lsrs	r7, r5, #8
 1881              	.LBE452:
 1882              	.LBE451:
 1883              	.LBE450:
 1884              	.LBE449:
 1885              	.LBB459:
 1886              	.LBB445:
 1887 0042 8560     		str	r5, [r0, #8]
 1888              	.LVL163:
 1889 0044 0200     		movs	r2, r0
 1890              	.LBE445:
 1891              	.LBE459:
 1892              	.LBB460:
 1893              	.LBB457:
 1894              	.LBB455:
 1895              	.LBB453:
 1896 0046 1D40     		ands	r5, r3
 1897 0048 1E40     		ands	r6, r3
 1898              	.LBE453:
 1899              	.LBE455:
 1900              	.LBE457:
 1901              	.LBE460:
 174:address.h     **** 
 1902              		.loc 2 174 0
 1903 004a 0121     		movs	r1, #1
 1904              	.LBB461:
 1905              	.LBB458:
ARM GAS  C:\Users\jrdia\AppData\Local\Temp\ccmJQ9RW.s 			page 52


 1906              	.LBB456:
 1907              	.LBB454:
 107:address.h     ****                 thePool[index].epcount = 1;
 1908              		.loc 2 107 0
 1909 004c 0024     		movs	r4, #0
 110:address.h     ****         };
 1910              		.loc 2 110 0
 1911 004e AA46     		mov	r10, r5
 1912 0050 B346     		mov	fp, r6
 1913 0052 1332     		adds	r2, r2, #19
 1914 0054 8144     		add	r9, r9, r0
 1915 0056 1F40     		ands	r7, r3
 1916              	.LVL164:
 1917              	.L148:
 108:address.h     ****                 thePool[index].lowspeed = 0;
 1918              		.loc 2 108 0
 1919 0058 6346     		mov	r3, ip
 110:address.h     ****         };
 1920              		.loc 2 110 0
 1921 005a 5646     		mov	r6, r10
 108:address.h     ****                 thePool[index].lowspeed = 0;
 1922              		.loc 2 108 0
 1923 005c 5370     		strb	r3, [r2, #1]
 110:address.h     ****         };
 1924              		.loc 2 110 0
 1925 005e CB00     		lsls	r3, r1, #3
 1926 0060 5B1A     		subs	r3, r3, r1
 1927 0062 C318     		adds	r3, r0, r3
 107:address.h     ****                 thePool[index].epcount = 1;
 1928              		.loc 2 107 0
 1929 0064 1470     		strb	r4, [r2]
 109:address.h     ****                 thePool[index].epinfo = &dev0ep;
 1930              		.loc 2 109 0
 1931 0066 9470     		strb	r4, [r2, #2]
 110:address.h     ****         };
 1932              		.loc 2 110 0
 1933 0068 1D00     		movs	r5, r3
 1934 006a 1E72     		strb	r6, [r3, #8]
 1935 006c 5F72     		strb	r7, [r3, #9]
 1936 006e 5B46     		mov	r3, fp
 1937 0070 AB72     		strb	r3, [r5, #10]
 1938 0072 4346     		mov	r3, r8
 1939 0074 0732     		adds	r2, r2, #7
 1940 0076 EB72     		strb	r3, [r5, #11]
 1941              	.LVL165:
 1942 0078 0131     		adds	r1, r1, #1
 1943              	.LVL166:
 1944              	.LBE454:
 1945              	.LBE456:
 156:address.h     ****                         InitEntry(i);
 1946              		.loc 2 156 0
 1947 007a 4A45     		cmp	r2, r9
 1948 007c ECD1     		bne	.L148
 1949              	.LVL167:
 1950              	.LBE458:
 1951              	.LBE461:
 1952              	.LBE464:
ARM GAS  C:\Users\jrdia\AppData\Local\Temp\ccmJQ9RW.s 			page 53


 1953              	.LBE467:
 1954              		.loc 4 26 0
 1955 007e B823     		movs	r3, #184
 1956 0080 0022     		movs	r2, #0
 1957 0082 C254     		strb	r2, [r0, r3]
  27:Usb.c         ****         usb_task_state = USB_DETACHED_SUBSTATE_INITIALIZE; //set up state machine
 1958              		.loc 4 27 0
 1959 0084 054B     		ldr	r3, .L150+4
 1960 0086 1132     		adds	r2, r2, #17
 1961 0088 1A70     		strb	r2, [r3]
 1962              	.LBE470:
  28:Usb.c         ****         init();
  29:Usb.c         **** }
 1963              		.loc 4 29 0
 1964              		@ sp needed
 1965 008a 3CBC     		pop	{r2, r3, r4, r5}
 1966 008c 9046     		mov	r8, r2
 1967 008e 9946     		mov	r9, r3
 1968 0090 A246     		mov	r10, r4
 1969 0092 AB46     		mov	fp, r5
 1970 0094 F0BD     		pop	{r4, r5, r6, r7, pc}
 1971              	.L151:
 1972 0096 C046     		.align	2
 1973              	.L150:
 1974 0098 08000000 		.word	_ZTV15AddressPoolImplILh16EE+8
 1975 009c 00000000 		.word	.LANCHOR0
 1976              		.cfi_endproc
 1977              	.LFE214:
 1978              		.cantunwind
 1979              		.fnend
 1980              		.size	_ZN3USBC2Ev, .-_ZN3USBC2Ev
 1981              		.global	_ZN3USBC1Ev
 1982              		.thumb_set _ZN3USBC1Ev,_ZN3USBC2Ev
 1983              		.section	.text._ZN3USB4initEv,"ax",%progbits
 1984              		.align	2
 1985              		.global	_ZN3USB4initEv
 1986              		.code	16
 1987              		.thumb_func
 1988              		.type	_ZN3USB4initEv, %function
 1989              	_ZN3USB4initEv:
 1990              		.fnstart
 1991              	.LFB216:
  30:Usb.c         **** 
  31:Usb.c         **** /* Initialize data structures */
  32:Usb.c         **** void USB::init() {
 1992              		.loc 4 32 0
 1993              		.cfi_startproc
 1994              		@ args = 0, pretend = 0, frame = 0
 1995              		@ frame_needed = 0, uses_anonymous_args = 0
 1996              		@ link register save eliminated.
 1997              	.LVL168:
  33:Usb.c         ****         //devConfigIndex = 0;
  34:Usb.c         ****         bmHubPre = 0;
 1998              		.loc 4 34 0
 1999 0000 0022     		movs	r2, #0
 2000 0002 B823     		movs	r3, #184
  35:Usb.c         **** }
ARM GAS  C:\Users\jrdia\AppData\Local\Temp\ccmJQ9RW.s 			page 54


 2001              		.loc 4 35 0
 2002              		@ sp needed
  34:Usb.c         **** }
 2003              		.loc 4 34 0
 2004 0004 C254     		strb	r2, [r0, r3]
 2005              		.loc 4 35 0
 2006 0006 7047     		bx	lr
 2007              		.cfi_endproc
 2008              	.LFE216:
 2009              		.cantunwind
 2010              		.fnend
 2011              		.size	_ZN3USB4initEv, .-_ZN3USB4initEv
 2012              		.section	.text._ZN3USB15getUsbTaskStateEv,"ax",%progbits
 2013              		.align	2
 2014              		.global	_ZN3USB15getUsbTaskStateEv
 2015              		.code	16
 2016              		.thumb_func
 2017              		.type	_ZN3USB15getUsbTaskStateEv, %function
 2018              	_ZN3USB15getUsbTaskStateEv:
 2019              		.fnstart
 2020              	.LFB217:
  36:Usb.c         **** 
  37:Usb.c         **** uint8_t USB::getUsbTaskState(void) {
 2021              		.loc 4 37 0
 2022              		.cfi_startproc
 2023              		@ args = 0, pretend = 0, frame = 0
 2024              		@ frame_needed = 0, uses_anonymous_args = 0
 2025              		@ link register save eliminated.
 2026              	.LVL169:
  38:Usb.c         ****         return ( usb_task_state);
 2027              		.loc 4 38 0
 2028 0000 014B     		ldr	r3, .L154
  39:Usb.c         **** }
 2029              		.loc 4 39 0
 2030              		@ sp needed
  38:Usb.c         ****         return ( usb_task_state);
 2031              		.loc 4 38 0
 2032 0002 1878     		ldrb	r0, [r3]
 2033              	.LVL170:
 2034              		.loc 4 39 0
 2035 0004 7047     		bx	lr
 2036              	.L155:
 2037 0006 C046     		.align	2
 2038              	.L154:
 2039 0008 00000000 		.word	.LANCHOR0
 2040              		.cfi_endproc
 2041              	.LFE217:
 2042              		.cantunwind
 2043              		.fnend
 2044              		.size	_ZN3USB15getUsbTaskStateEv, .-_ZN3USB15getUsbTaskStateEv
 2045              		.section	.text._ZN3USB15setUsbTaskStateEh,"ax",%progbits
 2046              		.align	2
 2047              		.global	_ZN3USB15setUsbTaskStateEh
 2048              		.code	16
 2049              		.thumb_func
 2050              		.type	_ZN3USB15setUsbTaskStateEh, %function
 2051              	_ZN3USB15setUsbTaskStateEh:
ARM GAS  C:\Users\jrdia\AppData\Local\Temp\ccmJQ9RW.s 			page 55


 2052              		.fnstart
 2053              	.LFB218:
  40:Usb.c         **** 
  41:Usb.c         **** void USB::setUsbTaskState(uint8_t state) {
 2054              		.loc 4 41 0
 2055              		.cfi_startproc
 2056              		@ args = 0, pretend = 0, frame = 0
 2057              		@ frame_needed = 0, uses_anonymous_args = 0
 2058              		@ link register save eliminated.
 2059              	.LVL171:
  42:Usb.c         ****         usb_task_state = state;
 2060              		.loc 4 42 0
 2061 0000 014B     		ldr	r3, .L157
  43:Usb.c         **** }
 2062              		.loc 4 43 0
 2063              		@ sp needed
  42:Usb.c         ****         usb_task_state = state;
 2064              		.loc 4 42 0
 2065 0002 1970     		strb	r1, [r3]
 2066              		.loc 4 43 0
 2067 0004 7047     		bx	lr
 2068              	.L158:
 2069 0006 C046     		.align	2
 2070              	.L157:
 2071 0008 00000000 		.word	.LANCHOR0
 2072              		.cfi_endproc
 2073              	.LFE218:
 2074              		.cantunwind
 2075              		.fnend
 2076              		.size	_ZN3USB15setUsbTaskStateEh, .-_ZN3USB15setUsbTaskStateEh
 2077              		.section	.text._ZN3USB14getEpInfoEntryEhh,"ax",%progbits
 2078              		.align	2
 2079              		.global	_ZN3USB14getEpInfoEntryEhh
 2080              		.code	16
 2081              		.thumb_func
 2082              		.type	_ZN3USB14getEpInfoEntryEhh, %function
 2083              	_ZN3USB14getEpInfoEntryEhh:
 2084              		.fnstart
 2085              	.LFB219:
  44:Usb.c         **** 
  45:Usb.c         **** EpInfo* USB::getEpInfoEntry(uint8_t addr, uint8_t ep) {
 2086              		.loc 4 45 0
 2087              		.cfi_startproc
 2088              		@ args = 0, pretend = 0, frame = 0
 2089              		@ frame_needed = 0, uses_anonymous_args = 0
 2090              	.LVL172:
 2091 0000 70B5     		push	{r4, r5, r6, lr}
 2092              		.cfi_def_cfa_offset 16
 2093              		.cfi_offset 4, -16
 2094              		.cfi_offset 5, -12
 2095              		.cfi_offset 6, -8
 2096              		.cfi_offset 14, -4
 2097              	.LBB479:
 2098              	.LBB480:
 182:address.h     ****                         return thePool;
 2099              		.loc 2 182 0
 2100 0002 0029     		cmp	r1, #0
ARM GAS  C:\Users\jrdia\AppData\Local\Temp\ccmJQ9RW.s 			page 56


 2101 0004 0CD0     		beq	.L160
 2102 0006 0400     		movs	r4, r0
 2103 0008 0123     		movs	r3, #1
 2104 000a 1334     		adds	r4, r4, #19
 2105              	.L163:
 2106              	.LVL173:
 2107              	.LBB481:
 2108              	.LBB482:
 2109              	.LBB483:
 2110              	.LBB484:
 117:address.h     ****                                 return i;
 2111              		.loc 2 117 0
 2112 000c 2578     		ldrb	r5, [r4]
 2113 000e 8D42     		cmp	r5, r1
 2114 0010 2DD0     		beq	.L161
 116:address.h     ****                         if(thePool[i].address.devAddress == address)
 2115              		.loc 2 116 0
 2116 0012 0133     		adds	r3, r3, #1
 2117              	.LVL174:
 2118 0014 DBB2     		uxtb	r3, r3
 2119              	.LVL175:
 2120 0016 0734     		adds	r4, r4, #7
 2121 0018 102B     		cmp	r3, #16
 2122 001a F7D1     		bne	.L163
 2123              	.LVL176:
 2124              	.L167:
 2125              	.LBE484:
 2126              	.LBE483:
 2127              	.LBE482:
 2128              	.LBE481:
 2129              	.LBE480:
 2130              	.LBE479:
  46:Usb.c         ****         UsbDevice *p = addrPool.GetUsbDevicePtr(addr);
  47:Usb.c         **** 
  48:Usb.c         ****         if(!p || !p->epinfo)
  49:Usb.c         ****                 return NULL;
 2131              		.loc 4 49 0
 2132 001c 0020     		movs	r0, #0
 2133              	.L173:
  50:Usb.c         **** 
  51:Usb.c         ****         EpInfo *pep = p->epinfo;
  52:Usb.c         **** 
  53:Usb.c         ****         for(uint8_t i = 0; i < p->epcount; i++) {
  54:Usb.c         ****                 if((pep)->epAddr == ep)
  55:Usb.c         ****                         return pep;
  56:Usb.c         **** 
  57:Usb.c         ****                 pep++;
  58:Usb.c         ****         }
  59:Usb.c         ****         return NULL;
  60:Usb.c         **** }
 2134              		.loc 4 60 0
 2135              		@ sp needed
 2136 001e 70BD     		pop	{r4, r5, r6, pc}
 2137              	.LVL177:
 2138              	.L160:
 2139              	.LBB489:
 2140              	.LBB487:
ARM GAS  C:\Users\jrdia\AppData\Local\Temp\ccmJQ9RW.s 			page 57


 183:address.h     **** 
 2141              		.loc 2 183 0
 2142 0020 0830     		adds	r0, r0, #8
 2143              	.LVL178:
 2144 0022 0600     		movs	r6, r0
 2145              	.LVL179:
 2146              	.L166:
 2147              	.LBE487:
 2148              	.LBE489:
  49:Usb.c         **** 
 2149              		.loc 4 49 0
 2150 0024 0020     		movs	r0, #0
  48:Usb.c         ****                 return NULL;
 2151              		.loc 4 48 0
 2152 0026 002E     		cmp	r6, #0
 2153 0028 F9D0     		beq	.L173
  48:Usb.c         ****                 return NULL;
 2154              		.loc 4 48 0 is_stmt 0 discriminator 1
 2155 002a 7178     		ldrb	r1, [r6, #1]
 2156 002c 3578     		ldrb	r5, [r6]
 2157 002e B378     		ldrb	r3, [r6, #2]
 2158 0030 0902     		lsls	r1, r1, #8
 2159 0032 2943     		orrs	r1, r5
 2160 0034 1B04     		lsls	r3, r3, #16
 2161 0036 0B43     		orrs	r3, r1
 2162 0038 1900     		movs	r1, r3
 2163 003a F378     		ldrb	r3, [r6, #3]
 2164 003c 1B06     		lsls	r3, r3, #24
 2165 003e 0B43     		orrs	r3, r1
 2166 0040 EDD0     		beq	.L173
 2167              	.LVL180:
 2168              	.LBB490:
  53:Usb.c         ****                 if((pep)->epAddr == ep)
 2169              		.loc 4 53 0 is_stmt 1 discriminator 1
 2170 0042 7179     		ldrb	r1, [r6, #5]
 2171 0044 0029     		cmp	r1, #0
 2172 0046 EAD0     		beq	.L173
  54:Usb.c         ****                         return pep;
 2173              		.loc 4 54 0
 2174 0048 1878     		ldrb	r0, [r3]
 2175 004a 9042     		cmp	r0, r2
 2176 004c 0DD0     		beq	.L172
 2177 004e 0139     		subs	r1, r1, #1
 2178 0050 C9B2     		uxtb	r1, r1
 2179 0052 0131     		adds	r1, r1, #1
 2180 0054 4800     		lsls	r0, r1, #1
 2181 0056 4118     		adds	r1, r0, r1
 2182 0058 5918     		adds	r1, r3, r1
 2183 005a 02E0     		b	.L164
 2184              	.LVL181:
 2185              	.L165:
 2186 005c 1878     		ldrb	r0, [r3]
 2187 005e 9042     		cmp	r0, r2
 2188 0060 03D0     		beq	.L172
 2189              	.L164:
  57:Usb.c         ****         }
 2190              		.loc 4 57 0 discriminator 2
ARM GAS  C:\Users\jrdia\AppData\Local\Temp\ccmJQ9RW.s 			page 58


 2191 0062 0333     		adds	r3, r3, #3
 2192              	.LVL182:
  53:Usb.c         ****                 if((pep)->epAddr == ep)
 2193              		.loc 4 53 0 discriminator 2
 2194 0064 8B42     		cmp	r3, r1
 2195 0066 F9D1     		bne	.L165
 2196 0068 D8E7     		b	.L167
 2197              	.L172:
  57:Usb.c         ****         }
 2198              		.loc 4 57 0
 2199 006a 1800     		movs	r0, r3
 2200 006c D7E7     		b	.L173
 2201              	.LVL183:
 2202              	.L161:
 2203              	.LBE490:
 2204              	.LBB491:
 2205              	.LBB488:
 2206              	.LBB486:
 2207              	.LBB485:
 187:address.h     ****         };
 2208              		.loc 2 187 0
 2209 006e D900     		lsls	r1, r3, #3
 2210              	.LVL184:
 2211 0070 0830     		adds	r0, r0, #8
 2212              	.LVL185:
 2213 0072 CB1A     		subs	r3, r1, r3
 2214 0074 C618     		adds	r6, r0, r3
 2215 0076 D5E7     		b	.L166
 2216              	.LBE485:
 2217              	.LBE486:
 2218              	.LBE488:
 2219              	.LBE491:
 2220              		.cfi_endproc
 2221              	.LFE219:
 2222              		.cantunwind
 2223              		.fnend
 2224              		.size	_ZN3USB14getEpInfoEntryEhh, .-_ZN3USB14getEpInfoEntryEhh
 2225              		.section	.text._ZN3USB14setEpInfoEntryEhhP6EpInfo,"ax",%progbits
 2226              		.align	2
 2227              		.global	_ZN3USB14setEpInfoEntryEhhP6EpInfo
 2228              		.code	16
 2229              		.thumb_func
 2230              		.type	_ZN3USB14setEpInfoEntryEhhP6EpInfo, %function
 2231              	_ZN3USB14setEpInfoEntryEhhP6EpInfo:
 2232              		.fnstart
 2233              	.LFB220:
  61:Usb.c         **** 
  62:Usb.c         **** /* set device table entry */
  63:Usb.c         **** 
  64:Usb.c         **** /* each device is different and has different number of endpoints. This function plugs endpoint rec
  65:Usb.c         **** uint8_t USB::setEpInfoEntry(uint8_t addr, uint8_t epcount, EpInfo* eprecord_ptr) {
 2234              		.loc 4 65 0
 2235              		.cfi_startproc
 2236              		@ args = 0, pretend = 0, frame = 0
 2237              		@ frame_needed = 0, uses_anonymous_args = 0
 2238              	.LVL186:
 2239 0000 70B5     		push	{r4, r5, r6, lr}
ARM GAS  C:\Users\jrdia\AppData\Local\Temp\ccmJQ9RW.s 			page 59


 2240              		.cfi_def_cfa_offset 16
 2241              		.cfi_offset 4, -16
 2242              		.cfi_offset 5, -12
 2243              		.cfi_offset 6, -8
 2244              		.cfi_offset 14, -4
  66:Usb.c         ****         if(!eprecord_ptr)
 2245              		.loc 4 66 0
 2246 0002 002B     		cmp	r3, #0
 2247 0004 23D0     		beq	.L181
 2248              	.LVL187:
 2249              	.LBB499:
 2250              	.LBB500:
 182:address.h     ****                         return thePool;
 2251              		.loc 2 182 0
 2252 0006 0029     		cmp	r1, #0
 2253 0008 0FD1     		bne	.L187
 183:address.h     **** 
 2254              		.loc 2 183 0
 2255 000a 0830     		adds	r0, r0, #8
 2256              	.LVL188:
 2257 000c 0400     		movs	r4, r0
 2258              	.LVL189:
 2259              	.L180:
 2260              	.LBE500:
 2261              	.LBE499:
  67:Usb.c         ****                 return USB_ERROR_INVALID_ARGUMENT;
  68:Usb.c         **** 
  69:Usb.c         ****         UsbDevice *p = addrPool.GetUsbDevicePtr(addr);
  70:Usb.c         **** 
  71:Usb.c         ****         if(!p)
  72:Usb.c         ****                 return USB_ERROR_ADDRESS_NOT_FOUND_IN_POOL;
 2262              		.loc 4 72 0
 2263 000e D620     		movs	r0, #214
  71:Usb.c         ****                 return USB_ERROR_ADDRESS_NOT_FOUND_IN_POOL;
 2264              		.loc 4 71 0
 2265 0010 002C     		cmp	r4, #0
 2266 0012 09D0     		beq	.L184
  73:Usb.c         **** 
  74:Usb.c         ****         p->address.devAddress = addr;
  75:Usb.c         ****         p->epinfo = eprecord_ptr;
  76:Usb.c         ****         p->epcount = epcount;
  77:Usb.c         **** 
  78:Usb.c         ****         return 0;
 2267              		.loc 4 78 0
 2268 0014 0020     		movs	r0, #0
  74:Usb.c         ****         p->epinfo = eprecord_ptr;
 2269              		.loc 4 74 0
 2270 0016 2171     		strb	r1, [r4, #4]
  75:Usb.c         ****         p->epcount = epcount;
 2271              		.loc 4 75 0
 2272 0018 190A     		lsrs	r1, r3, #8
 2273              	.LVL190:
 2274 001a 2370     		strb	r3, [r4]
 2275 001c 6170     		strb	r1, [r4, #1]
 2276 001e 190C     		lsrs	r1, r3, #16
 2277 0020 1B0E     		lsrs	r3, r3, #24
 2278              	.LVL191:
ARM GAS  C:\Users\jrdia\AppData\Local\Temp\ccmJQ9RW.s 			page 60


 2279 0022 A170     		strb	r1, [r4, #2]
 2280 0024 E370     		strb	r3, [r4, #3]
  76:Usb.c         **** 
 2281              		.loc 4 76 0
 2282 0026 6271     		strb	r2, [r4, #5]
 2283              	.LVL192:
 2284              	.L184:
  79:Usb.c         **** }
 2285              		.loc 4 79 0
 2286              		@ sp needed
 2287 0028 70BD     		pop	{r4, r5, r6, pc}
 2288              	.LVL193:
 2289              	.L187:
 2290 002a 0500     		movs	r5, r0
 2291              	.LBB509:
 2292              	.LBB507:
 182:address.h     ****                         return thePool;
 2293              		.loc 2 182 0
 2294 002c 0124     		movs	r4, #1
 2295 002e 1335     		adds	r5, r5, #19
 2296              	.L179:
 2297              	.LVL194:
 2298              	.LBB501:
 2299              	.LBB502:
 2300              	.LBB503:
 2301              	.LBB504:
 117:address.h     ****                                 return i;
 2302              		.loc 2 117 0
 2303 0030 2E78     		ldrb	r6, [r5]
 2304 0032 8E42     		cmp	r6, r1
 2305 0034 06D0     		beq	.L178
 116:address.h     ****                         if(thePool[i].address.devAddress == address)
 2306              		.loc 2 116 0
 2307 0036 0134     		adds	r4, r4, #1
 2308              	.LVL195:
 2309 0038 E4B2     		uxtb	r4, r4
 2310              	.LVL196:
 2311 003a 0735     		adds	r5, r5, #7
 2312 003c 102C     		cmp	r4, #16
 2313 003e F7D1     		bne	.L179
 2314              	.LBE504:
 2315              	.LBE503:
 2316              	.LBE502:
 2317              	.LBE501:
 2318              	.LBE507:
 2319              	.LBE509:
  72:Usb.c         **** 
 2320              		.loc 4 72 0
 2321 0040 D620     		movs	r0, #214
 2322              	.LVL197:
 2323 0042 F1E7     		b	.L184
 2324              	.LVL198:
 2325              	.L178:
 2326              	.LBB510:
 2327              	.LBB508:
 2328              	.LBB506:
 2329              	.LBB505:
ARM GAS  C:\Users\jrdia\AppData\Local\Temp\ccmJQ9RW.s 			page 61


 187:address.h     ****         };
 2330              		.loc 2 187 0
 2331 0044 E500     		lsls	r5, r4, #3
 2332 0046 0830     		adds	r0, r0, #8
 2333              	.LVL199:
 2334 0048 2D1B     		subs	r5, r5, r4
 2335 004a 4419     		adds	r4, r0, r5
 2336 004c DFE7     		b	.L180
 2337              	.LVL200:
 2338              	.L181:
 2339              	.LBE505:
 2340              	.LBE506:
 2341              	.LBE508:
 2342              	.LBE510:
  67:Usb.c         **** 
 2343              		.loc 4 67 0
 2344 004e D820     		movs	r0, #216
 2345              	.LVL201:
 2346 0050 EAE7     		b	.L184
 2347              		.cfi_endproc
 2348              	.LFE220:
 2349              		.cantunwind
 2350              		.fnend
 2351              		.size	_ZN3USB14setEpInfoEntryEhhP6EpInfo, .-_ZN3USB14setEpInfoEntryEhhP6EpInfo
 2352 0052 C046     		.section	.text._ZN3USB10SetAddressEhhPP6EpInfoPt,"ax",%progbits
 2353              		.align	2
 2354              		.global	_ZN3USB10SetAddressEhhPP6EpInfoPt
 2355              		.code	16
 2356              		.thumb_func
 2357              		.type	_ZN3USB10SetAddressEhhPP6EpInfoPt, %function
 2358              	_ZN3USB10SetAddressEhhPP6EpInfoPt:
 2359              		.fnstart
 2360              	.LFB221:
  80:Usb.c         **** 
  81:Usb.c         **** uint8_t USB::SetAddress(uint8_t addr, uint8_t ep, EpInfo **ppep, uint16_t *nak_limit) {
 2361              		.loc 4 81 0
 2362              		.cfi_startproc
 2363              		@ args = 4, pretend = 0, frame = 0
 2364              		@ frame_needed = 0, uses_anonymous_args = 0
 2365              	.LVL202:
 2366 0000 F8B5     		push	{r3, r4, r5, r6, r7, lr}
 2367              		.save {r3, r4, r5, r6, r7, lr}
 2368              		.cfi_def_cfa_offset 24
 2369              		.cfi_offset 3, -24
 2370              		.cfi_offset 4, -20
 2371              		.cfi_offset 5, -16
 2372              		.cfi_offset 6, -12
 2373              		.cfi_offset 7, -8
 2374              		.cfi_offset 14, -4
 2375              		.loc 4 81 0
 2376 0002 0600     		movs	r6, r0
 2377 0004 0C00     		movs	r4, r1
 2378 0006 1F00     		movs	r7, r3
 2379              	.LBB518:
 2380              	.LBB519:
 182:address.h     ****                         return thePool;
 2381              		.loc 2 182 0
ARM GAS  C:\Users\jrdia\AppData\Local\Temp\ccmJQ9RW.s 			page 62


 2382 0008 0029     		cmp	r1, #0
 2383 000a 0CD0     		beq	.L189
 2384 000c 0100     		movs	r1, r0
 2385              	.LVL203:
 2386 000e 0123     		movs	r3, #1
 2387              	.LVL204:
 2388 0010 1331     		adds	r1, r1, #19
 2389              	.LVL205:
 2390              	.L192:
 2391              	.LBB520:
 2392              	.LBB521:
 2393              	.LBB522:
 2394              	.LBB523:
 117:address.h     ****                                 return i;
 2395              		.loc 2 117 0
 2396 0012 0878     		ldrb	r0, [r1]
 2397 0014 A042     		cmp	r0, r4
 2398 0016 3CD0     		beq	.L190
 116:address.h     ****                         if(thePool[i].address.devAddress == address)
 2399              		.loc 2 116 0
 2400 0018 0133     		adds	r3, r3, #1
 2401              	.LVL206:
 2402 001a DBB2     		uxtb	r3, r3
 2403              	.LVL207:
 2404 001c 0731     		adds	r1, r1, #7
 2405 001e 102B     		cmp	r3, #16
 2406 0020 F7D1     		bne	.L192
 2407              	.LBE523:
 2408              	.LBE522:
 2409              	.LBE521:
 2410              	.LBE520:
 2411              	.LBE519:
 2412              	.LBE518:
  82:Usb.c         ****         UsbDevice *p = addrPool.GetUsbDevicePtr(addr);
  83:Usb.c         **** 
  84:Usb.c         ****         if(!p)
  85:Usb.c         ****                 return USB_ERROR_ADDRESS_NOT_FOUND_IN_POOL;
 2413              		.loc 4 85 0
 2414 0022 D620     		movs	r0, #214
 2415              	.LVL208:
 2416              	.L201:
  86:Usb.c         **** 
  87:Usb.c         ****         if(!p->epinfo)
  88:Usb.c         ****                 return USB_ERROR_EPINFO_IS_NULL;
  89:Usb.c         **** 
  90:Usb.c         ****         *ppep = getEpInfoEntry(addr, ep);
  91:Usb.c         **** 
  92:Usb.c         ****         if(!*ppep)
  93:Usb.c         ****                 return USB_ERROR_EP_NOT_FOUND_IN_TBL;
  94:Usb.c         **** 
  95:Usb.c         ****         *nak_limit = (0x0001UL << (((*ppep)->bmNakPower > USB_NAK_MAX_POWER) ? USB_NAK_MAX_POWER : 
  96:Usb.c         ****         (*nak_limit)--;
  97:Usb.c         ****         /*
  98:Usb.c         ****           USBTRACE2("\r\nAddress: ", addr);
  99:Usb.c         ****           USBTRACE2(" EP: ", ep);
 100:Usb.c         ****           USBTRACE2(" NAK Power: ",(*ppep)->bmNakPower);
 101:Usb.c         ****           USBTRACE2(" NAK Limit: ", nak_limit);
ARM GAS  C:\Users\jrdia\AppData\Local\Temp\ccmJQ9RW.s 			page 63


 102:Usb.c         ****           USBTRACE("\r\n");
 103:Usb.c         ****          */
 104:Usb.c         ****         regWr(rPERADDR, addr); //set peripheral address
 105:Usb.c         **** 
 106:Usb.c         ****         uint8_t mode = regRd(rMODE);
 107:Usb.c         **** 
 108:Usb.c         ****         //Serial.print("\r\nMode: ");
 109:Usb.c         ****         //Serial.println( mode, HEX);
 110:Usb.c         ****         //Serial.print("\r\nLS: ");
 111:Usb.c         ****         //Serial.println(p->lowspeed, HEX);
 112:Usb.c         **** 
 113:Usb.c         **** 
 114:Usb.c         **** 
 115:Usb.c         ****         // Set bmLOWSPEED and bmHUBPRE in case of low-speed device, reset them otherwise
 116:Usb.c         ****         regWr(rMODE, (p->lowspeed) ? mode | bmLOWSPEED | bmHubPre : mode & ~(bmHUBPRE | bmLOWSPEED)
 117:Usb.c         **** 
 118:Usb.c         ****         return 0;
 119:Usb.c         **** }
 2417              		.loc 4 119 0
 2418              		@ sp needed
 2419              	.LVL209:
 2420              	.LVL210:
 2421 0024 F8BD     		pop	{r3, r4, r5, r6, r7, pc}
 2422              	.LVL211:
 2423              	.L189:
 2424              	.LBB528:
 2425              	.LBB526:
 183:address.h     **** 
 2426              		.loc 2 183 0
 2427 0026 0500     		movs	r5, r0
 2428 0028 0835     		adds	r5, r5, #8
 2429              	.LVL212:
 2430              	.L196:
 2431              	.LBE526:
 2432              	.LBE528:
  85:Usb.c         **** 
 2433              		.loc 4 85 0
 2434 002a D620     		movs	r0, #214
  84:Usb.c         ****                 return USB_ERROR_ADDRESS_NOT_FOUND_IN_POOL;
 2435              		.loc 4 84 0
 2436 002c 002D     		cmp	r5, #0
 2437 002e F9D0     		beq	.L201
  87:Usb.c         ****                 return USB_ERROR_EPINFO_IS_NULL;
 2438              		.loc 4 87 0
 2439 0030 6978     		ldrb	r1, [r5, #1]
 2440 0032 2B78     		ldrb	r3, [r5]
 2441 0034 0902     		lsls	r1, r1, #8
 2442 0036 1943     		orrs	r1, r3
 2443 0038 AB78     		ldrb	r3, [r5, #2]
  88:Usb.c         **** 
 2444              		.loc 4 88 0
 2445 003a D720     		movs	r0, #215
  87:Usb.c         ****                 return USB_ERROR_EPINFO_IS_NULL;
 2446              		.loc 4 87 0
 2447 003c 1B04     		lsls	r3, r3, #16
 2448 003e 0B43     		orrs	r3, r1
 2449 0040 1900     		movs	r1, r3
ARM GAS  C:\Users\jrdia\AppData\Local\Temp\ccmJQ9RW.s 			page 64


 2450 0042 EB78     		ldrb	r3, [r5, #3]
 2451 0044 1B06     		lsls	r3, r3, #24
 2452 0046 0B43     		orrs	r3, r1
 2453 0048 ECD0     		beq	.L201
  90:Usb.c         **** 
 2454              		.loc 4 90 0
 2455 004a 2100     		movs	r1, r4
 2456 004c 3000     		movs	r0, r6
 2457 004e FFF7FEFF 		bl	_ZN3USB14getEpInfoEntryEhh
 2458              	.LVL213:
 2459 0052 0300     		movs	r3, r0
 2460 0054 3860     		str	r0, [r7]
  93:Usb.c         **** 
 2461              		.loc 4 93 0
 2462 0056 DB20     		movs	r0, #219
  92:Usb.c         ****                 return USB_ERROR_EP_NOT_FOUND_IN_TBL;
 2463              		.loc 4 92 0
 2464 0058 002B     		cmp	r3, #0
 2465 005a E3D0     		beq	.L201
  95:Usb.c         ****         (*nak_limit)--;
 2466              		.loc 4 95 0
 2467 005c 9A78     		ldrb	r2, [r3, #2]
  96:Usb.c         ****         /*
 2468              		.loc 4 96 0
 2469 005e 9208     		lsrs	r2, r2, #2
 2470 0060 0F2A     		cmp	r2, #15
 2471 0062 23DC     		bgt	.L206
 2472              	.L193:
 2473 0064 0123     		movs	r3, #1
 2474 0066 9340     		lsls	r3, r3, r2
 2475 0068 069A     		ldr	r2, [sp, #24]
 2476 006a 013B     		subs	r3, r3, #1
 2477 006c 1380     		strh	r3, [r2]
 104:Usb.c         **** 
 2478              		.loc 4 104 0
 2479 006e 2100     		movs	r1, r4
 2480 0070 E020     		movs	r0, #224
 2481 0072 FFF7FEFF 		bl	_ZN8MAX3421eI4TPinI5PortbLh2EES0_IS1_Lh1EEE5regWrEhh.isra.0
 2482              	.LVL214:
 106:Usb.c         **** 
 2483              		.loc 4 106 0
 2484 0076 D820     		movs	r0, #216
 2485 0078 FFF7FEFF 		bl	_ZN8MAX3421eI4TPinI5PortbLh2EES0_IS1_Lh1EEE5regRdEh.isra.1
 2486              	.LVL215:
 116:Usb.c         **** 
 2487              		.loc 4 116 0
 2488 007c AB79     		ldrb	r3, [r5, #6]
 2489 007e 002B     		cmp	r3, #0
 2490 0080 0DD1     		bne	.L207
 116:Usb.c         **** 
 2491              		.loc 4 116 0 is_stmt 0 discriminator 2
 2492 0082 F923     		movs	r3, #249
 2493 0084 0100     		movs	r1, r0
 2494 0086 1940     		ands	r1, r3
 2495              	.LVL216:
 2496              	.L195:
 116:Usb.c         **** 
ARM GAS  C:\Users\jrdia\AppData\Local\Temp\ccmJQ9RW.s 			page 65


 2497              		.loc 4 116 0 discriminator 4
 2498 0088 D820     		movs	r0, #216
 2499 008a FFF7FEFF 		bl	_ZN8MAX3421eI4TPinI5PortbLh2EES0_IS1_Lh1EEE5regWrEhh.isra.0
 2500              	.LVL217:
 118:Usb.c         **** }
 2501              		.loc 4 118 0 is_stmt 1 discriminator 4
 2502 008e 0020     		movs	r0, #0
 2503 0090 C8E7     		b	.L201
 2504              	.LVL218:
 2505              	.L190:
 2506              	.LBB529:
 2507              	.LBB527:
 2508              	.LBB525:
 2509              	.LBB524:
 187:address.h     ****         };
 2510              		.loc 2 187 0
 2511 0092 DD00     		lsls	r5, r3, #3
 2512 0094 EB1A     		subs	r3, r5, r3
 2513 0096 3500     		movs	r5, r6
 2514 0098 0835     		adds	r5, r5, #8
 2515 009a ED18     		adds	r5, r5, r3
 2516 009c C5E7     		b	.L196
 2517              	.LVL219:
 2518              	.L207:
 2519              	.LBE524:
 2520              	.LBE525:
 2521              	.LBE527:
 2522              	.LBE529:
 116:Usb.c         **** 
 2523              		.loc 4 116 0 discriminator 1
 2524 009e B823     		movs	r3, #184
 2525 00a0 F15C     		ldrb	r1, [r6, r3]
 2526 00a2 0223     		movs	r3, #2
 2527 00a4 0B43     		orrs	r3, r1
 2528 00a6 1843     		orrs	r0, r3
 2529              	.LVL220:
 2530 00a8 C1B2     		uxtb	r1, r0
 2531 00aa EDE7     		b	.L195
 2532              	.L206:
  96:Usb.c         ****         /*
 2533              		.loc 4 96 0
 2534 00ac 0F22     		movs	r2, #15
 2535 00ae D9E7     		b	.L193
 2536              		.cfi_endproc
 2537              	.LFE221:
 2538              		.fnend
 2539              		.size	_ZN3USB10SetAddressEhhPP6EpInfoPt, .-_ZN3USB10SetAddressEhhPP6EpInfoPt
 2540              		.section	.text._ZN3USB11OutTransferEP6EpInfottPh,"ax",%progbits
 2541              		.align	2
 2542              		.global	_ZN3USB11OutTransferEP6EpInfottPh
 2543              		.code	16
 2544              		.thumb_func
 2545              		.type	_ZN3USB11OutTransferEP6EpInfottPh, %function
 2546              	_ZN3USB11OutTransferEP6EpInfottPh:
 2547              		.fnstart
 2548              	.LFB226:
 120:Usb.c         **** 
ARM GAS  C:\Users\jrdia\AppData\Local\Temp\ccmJQ9RW.s 			page 66


 121:Usb.c         **** /* Control transfer. Sets address, endpoint, fills control packet with necessary data, dispatches c
 122:Usb.c         **** /* depending on request. Actual requests are defined as inlines                                    
 123:Usb.c         **** /* return codes:                */
 124:Usb.c         **** /* 00       =   success         */
 125:Usb.c         **** 
 126:Usb.c         **** /* 01-0f    =   non-zero HRSLT  */
 127:Usb.c         **** uint8_t USB::ctrlReq(uint8_t addr, uint8_t ep, uint8_t bmReqType, uint8_t bRequest, uint8_t wValLo,
 128:Usb.c         ****         uint16_t wInd, uint16_t total, uint16_t nbytes, uint8_t* dataptr, USBReadParser *p) {
 129:Usb.c         ****         bool direction = false; //request direction, IN or OUT
 130:Usb.c         ****         uint8_t rcode;
 131:Usb.c         ****         SETUP_PKT setup_pkt;
 132:Usb.c         **** 
 133:Usb.c         ****         EpInfo *pep = NULL;
 134:Usb.c         ****         uint16_t nak_limit = 0;
 135:Usb.c         **** 
 136:Usb.c         ****         rcode = SetAddress(addr, ep, &pep, &nak_limit);
 137:Usb.c         **** 
 138:Usb.c         ****         if(rcode)
 139:Usb.c         ****                 return rcode;
 140:Usb.c         **** 
 141:Usb.c         ****         direction = ((bmReqType & 0x80) > 0);
 142:Usb.c         **** 
 143:Usb.c         ****         /* fill in setup packet */
 144:Usb.c         ****         setup_pkt.ReqType_u.bmRequestType = bmReqType;
 145:Usb.c         ****         setup_pkt.bRequest = bRequest;
 146:Usb.c         ****         setup_pkt.wVal_u.wValueLo = wValLo;
 147:Usb.c         ****         setup_pkt.wVal_u.wValueHi = wValHi;
 148:Usb.c         ****         setup_pkt.wIndex = wInd;
 149:Usb.c         ****         setup_pkt.wLength = total;
 150:Usb.c         **** 
 151:Usb.c         ****         bytesWr(rSUDFIFO, 8, (uint8_t*) & setup_pkt); //transfer to setup packet FIFO
 152:Usb.c         **** 
 153:Usb.c         ****         rcode = dispatchPkt(tokSETUP, ep, nak_limit); //dispatch packet
 154:Usb.c         **** 
 155:Usb.c         ****         if(rcode) //return HRSLT if not zero
 156:Usb.c         ****                 return ( rcode);
 157:Usb.c         **** 
 158:Usb.c         ****         if(dataptr != NULL) //data stage, if present
 159:Usb.c         ****         {
 160:Usb.c         ****                 if(direction) //IN transfer
 161:Usb.c         ****                 {
 162:Usb.c         ****                         uint16_t left = total;
 163:Usb.c         **** 
 164:Usb.c         ****                         pep->bmRcvToggle = 1; //bmRCVTOG1;
 165:Usb.c         **** 
 166:Usb.c         ****                         while(left) {
 167:Usb.c         ****                                 // Bytes read into buffer
 168:Usb.c         ****                                 uint16_t read = nbytes;
 169:Usb.c         ****                                 //uint16_t read = (left<nbytes) ? left : nbytes;
 170:Usb.c         **** 
 171:Usb.c         ****                                 rcode = InTransfer(pep, nak_limit, &read, dataptr);
 172:Usb.c         ****                                 if(rcode == hrTOGERR) {
 173:Usb.c         ****                                         // yes, we flip it wrong here so that next time it is actua
 174:Usb.c         ****                                         pep->bmRcvToggle = (regRd(rHRSL) & bmSNDTOGRD) ? 0 : 1;
 175:Usb.c         ****                                         continue;
 176:Usb.c         ****                                 }
 177:Usb.c         **** 
ARM GAS  C:\Users\jrdia\AppData\Local\Temp\ccmJQ9RW.s 			page 67


 178:Usb.c         ****                                 if(rcode)
 179:Usb.c         ****                                         return rcode;
 180:Usb.c         **** 
 181:Usb.c         ****                                 // Invoke callback function if inTransfer completed successfully an
 182:Usb.c         ****                                 if(!rcode && p)
 183:Usb.c         ****                                         ((USBReadParser*)p)->Parse(read, dataptr, total - left);
 184:Usb.c         **** 
 185:Usb.c         ****                                 left -= read;
 186:Usb.c         **** 
 187:Usb.c         ****                                 if(read < nbytes)
 188:Usb.c         ****                                         break;
 189:Usb.c         ****                         }
 190:Usb.c         ****                 } else //OUT transfer
 191:Usb.c         ****                 {
 192:Usb.c         ****                         pep->bmSndToggle = 1; //bmSNDTOG1;
 193:Usb.c         ****                         rcode = OutTransfer(pep, nak_limit, nbytes, dataptr);
 194:Usb.c         ****                 }
 195:Usb.c         ****                 if(rcode) //return error
 196:Usb.c         ****                         return ( rcode);
 197:Usb.c         ****         }
 198:Usb.c         ****         // Status stage
 199:Usb.c         ****         return dispatchPkt((direction) ? tokOUTHS : tokINHS, ep, nak_limit); //GET if direction
 200:Usb.c         **** }
 201:Usb.c         **** 
 202:Usb.c         **** /* IN transfer to arbitrary endpoint. Assumes PERADDR is set. Handles multiple packets if necessary
 203:Usb.c         **** /* Keep sending INs and writes data to memory area pointed by 'data'                               
 204:Usb.c         **** 
 205:Usb.c         **** /* rcode 0 if no errors. rcode 01-0f is relayed from dispatchPkt(). Rcode f0 means RCVDAVIRQ error,
 206:Usb.c         ****             fe USB xfer timeout */
 207:Usb.c         **** uint8_t USB::inTransfer(uint8_t addr, uint8_t ep, uint16_t *nbytesptr, uint8_t* data, uint8_t bInte
 208:Usb.c         ****         EpInfo *pep = NULL;
 209:Usb.c         ****         uint16_t nak_limit = 0;
 210:Usb.c         **** 
 211:Usb.c         ****         uint8_t rcode = SetAddress(addr, ep, &pep, &nak_limit);
 212:Usb.c         **** 
 213:Usb.c         ****         if(rcode) {
 214:Usb.c         ****                 USBTRACE3("(USB::InTransfer) SetAddress Failed ", rcode, 0x81);
 215:Usb.c         ****                 USBTRACE3("(USB::InTransfer) addr requested ", addr, 0x81);
 216:Usb.c         ****                 USBTRACE3("(USB::InTransfer) ep requested ", ep, 0x81);
 217:Usb.c         ****                 return rcode;
 218:Usb.c         ****         }
 219:Usb.c         ****         return InTransfer(pep, nak_limit, nbytesptr, data, bInterval);
 220:Usb.c         **** }
 221:Usb.c         **** 
 222:Usb.c         **** uint8_t USB::InTransfer(EpInfo *pep, uint16_t nak_limit, uint16_t *nbytesptr, uint8_t* data, uint8_
 223:Usb.c         ****         uint8_t rcode = 0;
 224:Usb.c         ****         uint8_t pktsize;
 225:Usb.c         **** 
 226:Usb.c         ****         uint16_t nbytes = *nbytesptr;
 227:Usb.c         ****         //printf("Requesting %i bytes ", nbytes);
 228:Usb.c         ****         uint8_t maxpktsize = pep->maxPktSize;
 229:Usb.c         **** 
 230:Usb.c         ****         *nbytesptr = 0;
 231:Usb.c         ****         regWr(rHCTL, (pep->bmRcvToggle) ? bmRCVTOG1 : bmRCVTOG0); //set toggle value
 232:Usb.c         **** 
 233:Usb.c         ****         // use a 'break' to exit this loop
 234:Usb.c         ****         while(1) {
ARM GAS  C:\Users\jrdia\AppData\Local\Temp\ccmJQ9RW.s 			page 68


 235:Usb.c         ****                 rcode = dispatchPkt(tokIN, pep->epAddr, nak_limit); //IN packet to EP-'endpoint'. F
 236:Usb.c         ****                 if(rcode == hrTOGERR) {
 237:Usb.c         ****                         // yes, we flip it wrong here so that next time it is actually correct!
 238:Usb.c         ****                         pep->bmRcvToggle = (regRd(rHRSL) & bmRCVTOGRD) ? 0 : 1;
 239:Usb.c         ****                         regWr(rHCTL, (pep->bmRcvToggle) ? bmRCVTOG1 : bmRCVTOG0); //set toggle valu
 240:Usb.c         ****                         continue;
 241:Usb.c         ****                 }
 242:Usb.c         ****                 if(rcode) {
 243:Usb.c         ****                         //printf(">>>>>>>> Problem! dispatchPkt %2.2x\r\n", rcode);
 244:Usb.c         ****                         break; //should be 0, indicating ACK. Else return error code.
 245:Usb.c         ****                 }
 246:Usb.c         ****                 /* check for RCVDAVIRQ and generate error if not present */
 247:Usb.c         ****                 /* the only case when absence of RCVDAVIRQ makes sense is when toggle error occurre
 248:Usb.c         ****                 if((regRd(rHIRQ) & bmRCVDAVIRQ) == 0) {
 249:Usb.c         ****                         //printf(">>>>>>>> Problem! NO RCVDAVIRQ!\r\n");
 250:Usb.c         ****                         rcode = 0xf0; //receive error
 251:Usb.c         ****                         break;
 252:Usb.c         ****                 }
 253:Usb.c         ****                 pktsize = regRd(rRCVBC); //number of received bytes
 254:Usb.c         ****                 //printf("Got %i bytes \r\n", pktsize);
 255:Usb.c         ****                 // This would be OK, but...
 256:Usb.c         ****                 //assert(pktsize <= nbytes);
 257:Usb.c         ****                 if(pktsize > nbytes) {
 258:Usb.c         ****                         // This can happen. Use of assert on Arduino locks up the Arduino.
 259:Usb.c         ****                         // So I will trim the value, and hope for the best.
 260:Usb.c         ****                         //printf(">>>>>>>> Problem! Wanted %i bytes but got %i.\r\n", nbytes, pktsi
 261:Usb.c         ****                         pktsize = nbytes;
 262:Usb.c         ****                 }
 263:Usb.c         **** 
 264:Usb.c         ****                 int16_t mem_left = (int16_t)nbytes - *((int16_t*)nbytesptr);
 265:Usb.c         **** 
 266:Usb.c         ****                 if(mem_left < 0)
 267:Usb.c         ****                         mem_left = 0;
 268:Usb.c         **** 
 269:Usb.c         ****                 data = bytesRd(rRCVFIFO, ((pktsize > mem_left) ? mem_left : pktsize), data);
 270:Usb.c         **** 
 271:Usb.c         ****                 regWr(rHIRQ, bmRCVDAVIRQ); // Clear the IRQ & free the buffer
 272:Usb.c         ****                 *nbytesptr += pktsize; // add this packet's byte count to total transfer length
 273:Usb.c         **** 
 274:Usb.c         ****                 /* The transfer is complete under two conditions:           */
 275:Usb.c         ****                 /* 1. The device sent a short packet (L.T. maxPacketSize)   */
 276:Usb.c         ****                 /* 2. 'nbytes' have been transferred.                       */
 277:Usb.c         ****                 if((pktsize < maxpktsize) || (*nbytesptr >= nbytes)) // have we transferred 'nbytes
 278:Usb.c         ****                 {
 279:Usb.c         ****                         // Save toggle value
 280:Usb.c         ****                         pep->bmRcvToggle = ((regRd(rHRSL) & bmRCVTOGRD)) ? 1 : 0;
 281:Usb.c         ****                         //printf("\r\n");
 282:Usb.c         ****                         rcode = 0;
 283:Usb.c         ****                         break;
 284:Usb.c         ****                 } else if(bInterval > 0)
 285:Usb.c         ****                         delay(bInterval); // Delay according to polling interval
 286:Usb.c         ****         } //while( 1 )
 287:Usb.c         ****         return ( rcode);
 288:Usb.c         **** }
 289:Usb.c         **** 
 290:Usb.c         **** /* OUT transfer to arbitrary endpoint. Handles multiple packets if necessary. Transfers 'nbytes' by
 291:Usb.c         **** /* Handles NAK bug per Maxim Application Note 4000 for single buffer transfer   */
ARM GAS  C:\Users\jrdia\AppData\Local\Temp\ccmJQ9RW.s 			page 69


 292:Usb.c         **** 
 293:Usb.c         **** /* rcode 0 if no errors. rcode 01-0f is relayed from HRSL                       */
 294:Usb.c         **** uint8_t USB::outTransfer(uint8_t addr, uint8_t ep, uint16_t nbytes, uint8_t* data) {
 295:Usb.c         ****         EpInfo *pep = NULL;
 296:Usb.c         ****         uint16_t nak_limit = 0;
 297:Usb.c         **** 
 298:Usb.c         ****         uint8_t rcode = SetAddress(addr, ep, &pep, &nak_limit);
 299:Usb.c         **** 
 300:Usb.c         ****         if(rcode)
 301:Usb.c         ****                 return rcode;
 302:Usb.c         **** 
 303:Usb.c         ****         return OutTransfer(pep, nak_limit, nbytes, data);
 304:Usb.c         **** }
 305:Usb.c         **** 
 306:Usb.c         **** uint8_t USB::OutTransfer(EpInfo *pep, uint16_t nak_limit, uint16_t nbytes, uint8_t *data) {
 2549              		.loc 4 306 0
 2550              		.cfi_startproc
 2551              		@ args = 4, pretend = 0, frame = 24
 2552              		@ frame_needed = 0, uses_anonymous_args = 0
 2553              	.LVL221:
 2554 0000 F0B5     		push	{r4, r5, r6, r7, lr}
 2555              		.save {r4, r5, r6, r7, lr}
 2556              		.cfi_def_cfa_offset 20
 2557              		.cfi_offset 4, -20
 2558              		.cfi_offset 5, -16
 2559              		.cfi_offset 6, -12
 2560              		.cfi_offset 7, -8
 2561              		.cfi_offset 14, -4
 2562 0002 4446     		mov	r4, r8
 2563 0004 5F46     		mov	r7, fp
 2564 0006 5646     		mov	r6, r10
 2565 0008 4D46     		mov	r5, r9
 2566 000a F0B4     		push	{r4, r5, r6, r7}
 2567              		.save {r8, r9, r10, fp}
 2568              		.cfi_def_cfa_offset 36
 2569              		.cfi_offset 8, -36
 2570              		.cfi_offset 9, -32
 2571              		.cfi_offset 10, -28
 2572              		.cfi_offset 11, -24
 307:Usb.c         ****         uint8_t rcode = hrSUCCESS, retry_count;
 308:Usb.c         ****         uint8_t *data_p = data; //local copy of the data pointer
 309:Usb.c         ****         uint16_t bytes_tosend, nak_count;
 310:Usb.c         ****         uint16_t bytes_left = nbytes;
 311:Usb.c         **** 
 312:Usb.c         ****         uint8_t maxpktsize = pep->maxPktSize;
 2573              		.loc 4 312 0
 2574 000c 4C78     		ldrb	r4, [r1, #1]
 306:Usb.c         ****         uint8_t rcode = hrSUCCESS, retry_count;
 2575              		.loc 4 306 0
 2576 000e 1F00     		movs	r7, r3
 313:Usb.c         **** 
 314:Usb.c         ****         if(maxpktsize < 1 || maxpktsize > 64)
 2577              		.loc 4 314 0
 2578 0010 631E     		subs	r3, r4, #1
 2579              	.LVL222:
 306:Usb.c         ****         uint8_t rcode = hrSUCCESS, retry_count;
 2580              		.loc 4 306 0
ARM GAS  C:\Users\jrdia\AppData\Local\Temp\ccmJQ9RW.s 			page 70


 2581              		.pad #28
 2582 0012 87B0     		sub	sp, sp, #28
 2583              		.cfi_def_cfa_offset 64
 2584              	.LVL223:
 306:Usb.c         ****         uint8_t rcode = hrSUCCESS, retry_count;
 2585              		.loc 4 306 0
 2586 0014 0E00     		movs	r6, r1
 2587 0016 9046     		mov	r8, r2
 315:Usb.c         ****                 return USB_ERROR_INVALID_MAX_PKT_SIZE;
 2588              		.loc 4 315 0
 2589 0018 DA20     		movs	r0, #218
 2590              	.LVL224:
 314:Usb.c         ****                 return USB_ERROR_INVALID_MAX_PKT_SIZE;
 2591              		.loc 4 314 0
 2592 001a 3F2B     		cmp	r3, #63
 2593 001c 06D9     		bls	.L252
 2594              	.LVL225:
 2595              	.L237:
 316:Usb.c         **** 
 317:Usb.c         ****         uint32_t timeout = (uint32_t)millis() + USB_XFER_TIMEOUT;
 318:Usb.c         **** 
 319:Usb.c         ****         regWr(rHCTL, (pep->bmSndToggle) ? bmSNDTOG1 : bmSNDTOG0); //set toggle value
 320:Usb.c         **** 
 321:Usb.c         ****         while(bytes_left) {
 322:Usb.c         ****                 retry_count = 0;
 323:Usb.c         ****                 nak_count = 0;
 324:Usb.c         ****                 bytes_tosend = (bytes_left >= maxpktsize) ? maxpktsize : bytes_left;
 325:Usb.c         ****                 bytesWr(rSNDFIFO, bytes_tosend, data_p); //filling output FIFO
 326:Usb.c         ****                 regWr(rSNDBC, bytes_tosend); //set number of bytes
 327:Usb.c         ****                 regWr(rHXFR, (tokOUT | pep->epAddr)); //dispatch packet
 328:Usb.c         ****                 while(!(regRd(rHIRQ) & bmHXFRDNIRQ)); //wait for the completion IRQ
 329:Usb.c         ****                 regWr(rHIRQ, bmHXFRDNIRQ); //clear IRQ
 330:Usb.c         ****                 rcode = (regRd(rHRSL) & 0x0f);
 331:Usb.c         **** 
 332:Usb.c         ****                 while(rcode && ((int32_t)((uint32_t)millis() - timeout) < 0L)) {
 333:Usb.c         ****                         switch(rcode) {
 334:Usb.c         ****                                 case hrNAK:
 335:Usb.c         ****                                         nak_count++;
 336:Usb.c         ****                                         if(nak_limit && (nak_count == nak_limit))
 337:Usb.c         ****                                                 goto breakout;
 338:Usb.c         ****                                         //return ( rcode);
 339:Usb.c         ****                                         break;
 340:Usb.c         ****                                 case hrTIMEOUT:
 341:Usb.c         ****                                         retry_count++;
 342:Usb.c         ****                                         if(retry_count == USB_RETRY_LIMIT)
 343:Usb.c         ****                                                 goto breakout;
 344:Usb.c         ****                                         //return ( rcode);
 345:Usb.c         ****                                         break;
 346:Usb.c         ****                                 case hrTOGERR:
 347:Usb.c         ****                                         // yes, we flip it wrong here so that next time it is actua
 348:Usb.c         ****                                         pep->bmSndToggle = (regRd(rHRSL) & bmSNDTOGRD) ? 0 : 1;
 349:Usb.c         ****                                         regWr(rHCTL, (pep->bmSndToggle) ? bmSNDTOG1 : bmSNDTOG0); /
 350:Usb.c         ****                                         break;
 351:Usb.c         ****                                 default:
 352:Usb.c         ****                                         goto breakout;
 353:Usb.c         ****                         }//switch( rcode
 354:Usb.c         **** 
ARM GAS  C:\Users\jrdia\AppData\Local\Temp\ccmJQ9RW.s 			page 71


 355:Usb.c         ****                         /* process NAK according to Host out NAK bug */
 356:Usb.c         ****                         regWr(rSNDBC, 0);
 357:Usb.c         ****                         regWr(rSNDFIFO, *data_p);
 358:Usb.c         ****                         regWr(rSNDBC, bytes_tosend);
 359:Usb.c         ****                         regWr(rHXFR, (tokOUT | pep->epAddr)); //dispatch packet
 360:Usb.c         ****                         while(!(regRd(rHIRQ) & bmHXFRDNIRQ)); //wait for the completion IRQ
 361:Usb.c         ****                         regWr(rHIRQ, bmHXFRDNIRQ); //clear IRQ
 362:Usb.c         ****                         rcode = (regRd(rHRSL) & 0x0f);
 363:Usb.c         ****                 }//while( rcode && ....
 364:Usb.c         ****                 bytes_left -= bytes_tosend;
 365:Usb.c         ****                 data_p += bytes_tosend;
 366:Usb.c         ****         }//while( bytes_left...
 367:Usb.c         **** breakout:
 368:Usb.c         **** 
 369:Usb.c         ****         pep->bmSndToggle = (regRd(rHRSL) & bmSNDTOGRD) ? 1 : 0; //bmSNDTOG1 : bmSNDTOG0;  //update 
 370:Usb.c         ****         return ( rcode); //should be 0 in all cases
 371:Usb.c         **** }
 2596              		.loc 4 371 0
 2597 001e 07B0     		add	sp, sp, #28
 2598              		@ sp needed
 2599              	.LVL226:
 2600              	.LVL227:
 2601 0020 3CBC     		pop	{r2, r3, r4, r5}
 2602 0022 9046     		mov	r8, r2
 2603 0024 9946     		mov	r9, r3
 2604 0026 A246     		mov	r10, r4
 2605 0028 AB46     		mov	fp, r5
 2606 002a F0BD     		pop	{r4, r5, r6, r7, pc}
 2607              	.LVL228:
 2608              	.L252:
 317:Usb.c         **** 
 2609              		.loc 4 317 0
 2610 002c FFF7FEFF 		bl	millis
 2611              	.LVL229:
 2612 0030 5C4A     		ldr	r2, .L256
 2613 0032 0300     		movs	r3, r0
 2614 0034 9446     		mov	ip, r2
 2615 0036 6344     		add	r3, r3, ip
 2616 0038 0393     		str	r3, [sp, #12]
 2617              	.LVL230:
 319:Usb.c         **** 
 2618              		.loc 4 319 0
 2619 003a B378     		ldrb	r3, [r6, #2]
 2620              	.LVL231:
 2621 003c 4021     		movs	r1, #64
 2622 003e DB07     		lsls	r3, r3, #31
 2623 0040 00D5     		bpl	.L210
 2624 0042 4031     		adds	r1, r1, #64
 2625              	.L210:
 319:Usb.c         **** 
 2626              		.loc 4 319 0 is_stmt 0 discriminator 4
 2627 0044 E820     		movs	r0, #232
 2628 0046 FFF7FEFF 		bl	_ZN8MAX3421eI4TPinI5PortbLh2EES0_IS1_Lh1EEE5regWrEhh.isra.0
 2629              	.LVL232:
 321:Usb.c         ****                 retry_count = 0;
 2630              		.loc 4 321 0 is_stmt 1 discriminator 4
 2631 004a 002F     		cmp	r7, #0
ARM GAS  C:\Users\jrdia\AppData\Local\Temp\ccmJQ9RW.s 			page 72


 2632 004c 00D1     		bne	.LCB2948
 2633 004e A6E0     		b	.L227	@long jump
 2634              	.LCB2948:
 324:Usb.c         ****                 bytesWr(rSNDFIFO, bytes_tosend, data_p); //filling output FIFO
 2635              		.loc 4 324 0
 2636 0050 6A46     		mov	r2, sp
 2637 0052 A3B2     		uxth	r3, r4
 2638 0054 0493     		str	r3, [sp, #16]
 2639 0056 D382     		strh	r3, [r2, #22]
 327:Usb.c         ****                 while(!(regRd(rHIRQ) & bmHXFRDNIRQ)); //wait for the completion IRQ
 2640              		.loc 4 327 0
 2641 0058 2023     		movs	r3, #32
 2642 005a 9946     		mov	r9, r3
 330:Usb.c         **** 
 2643              		.loc 4 330 0
 2644 005c 0F23     		movs	r3, #15
 2645 005e B246     		mov	r10, r6
 2646 0060 9B46     		mov	fp, r3
 2647              	.LVL233:
 2648              	.L224:
 324:Usb.c         ****                 bytesWr(rSNDFIFO, bytes_tosend, data_p); //filling output FIFO
 2649              		.loc 4 324 0
 2650 0062 6B46     		mov	r3, sp
 2651 0064 DD8A     		ldrh	r5, [r3, #22]
 2652 0066 049B     		ldr	r3, [sp, #16]
 2653 0068 BB42     		cmp	r3, r7
 2654 006a 00D9     		bls	.L212
 2655 006c 3D1C     		adds	r5, r7, #0
 2656              	.L212:
 2657 006e ADB2     		uxth	r5, r5
 2658              	.LVL234:
 325:Usb.c         ****                 regWr(rSNDBC, bytes_tosend); //set number of bytes
 2659              		.loc 4 325 0
 2660 0070 EEB2     		uxtb	r6, r5
 2661 0072 109A     		ldr	r2, [sp, #64]
 2662 0074 3100     		movs	r1, r6
 2663 0076 1020     		movs	r0, #16
 2664 0078 FFF7FEFF 		bl	_ZN8MAX3421eI4TPinI5PortbLh2EES0_IS1_Lh1EEE7bytesWrEhhPh.isra.2
 2665              	.LVL235:
 326:Usb.c         ****                 regWr(rHXFR, (tokOUT | pep->epAddr)); //dispatch packet
 2666              		.loc 4 326 0
 2667 007c 3100     		movs	r1, r6
 2668 007e 3820     		movs	r0, #56
 2669 0080 FFF7FEFF 		bl	_ZN8MAX3421eI4TPinI5PortbLh2EES0_IS1_Lh1EEE5regWrEhh.isra.0
 2670              	.LVL236:
 327:Usb.c         ****                 while(!(regRd(rHIRQ) & bmHXFRDNIRQ)); //wait for the completion IRQ
 2671              		.loc 4 327 0
 2672 0084 5346     		mov	r3, r10
 2673 0086 1978     		ldrb	r1, [r3]
 2674 0088 4B46     		mov	r3, r9
 2675 008a 1943     		orrs	r1, r3
 2676 008c C9B2     		uxtb	r1, r1
 2677 008e F020     		movs	r0, #240
 2678 0090 FFF7FEFF 		bl	_ZN8MAX3421eI4TPinI5PortbLh2EES0_IS1_Lh1EEE5regWrEhh.isra.0
 2679              	.LVL237:
 2680              	.L213:
 328:Usb.c         ****                 regWr(rHIRQ, bmHXFRDNIRQ); //clear IRQ
ARM GAS  C:\Users\jrdia\AppData\Local\Temp\ccmJQ9RW.s 			page 73


 2681              		.loc 4 328 0
 2682 0094 C820     		movs	r0, #200
 2683 0096 FFF7FEFF 		bl	_ZN8MAX3421eI4TPinI5PortbLh2EES0_IS1_Lh1EEE5regRdEh.isra.1
 2684              	.LVL238:
 2685 009a 0306     		lsls	r3, r0, #24
 2686 009c FAD5     		bpl	.L213
 329:Usb.c         ****                 rcode = (regRd(rHRSL) & 0x0f);
 2687              		.loc 4 329 0
 2688 009e 8021     		movs	r1, #128
 2689 00a0 C820     		movs	r0, #200
 2690 00a2 FFF7FEFF 		bl	_ZN8MAX3421eI4TPinI5PortbLh2EES0_IS1_Lh1EEE5regWrEhh.isra.0
 2691              	.LVL239:
 330:Usb.c         **** 
 2692              		.loc 4 330 0
 2693 00a6 F820     		movs	r0, #248
 2694 00a8 FFF7FEFF 		bl	_ZN8MAX3421eI4TPinI5PortbLh2EES0_IS1_Lh1EEE5regRdEh.isra.1
 2695              	.LVL240:
 2696 00ac 5C46     		mov	r4, fp
 2697 00ae 0440     		ands	r4, r0
 2698              	.LVL241:
 332:Usb.c         ****                         switch(rcode) {
 2699              		.loc 4 332 0
 2700 00b0 0BD1     		bne	.L253
 2701              	.LVL242:
 2702              	.L214:
 330:Usb.c         **** 
 2703              		.loc 4 330 0
 2704 00b2 0024     		movs	r4, #0
 2705              	.LVL243:
 2706              	.L216:
 365:Usb.c         ****         }//while( bytes_left...
 2707              		.loc 4 365 0
 2708 00b4 109B     		ldr	r3, [sp, #64]
 364:Usb.c         ****                 data_p += bytes_tosend;
 2709              		.loc 4 364 0
 2710 00b6 7F1B     		subs	r7, r7, r5
 2711              	.LVL244:
 365:Usb.c         ****         }//while( bytes_left...
 2712              		.loc 4 365 0
 2713 00b8 9C46     		mov	ip, r3
 2714 00ba AC44     		add	ip, ip, r5
 2715 00bc 6346     		mov	r3, ip
 364:Usb.c         ****                 data_p += bytes_tosend;
 2716              		.loc 4 364 0
 2717 00be BFB2     		uxth	r7, r7
 2718              	.LVL245:
 365:Usb.c         ****         }//while( bytes_left...
 2719              		.loc 4 365 0
 2720 00c0 1093     		str	r3, [sp, #64]
 2721              	.LVL246:
 321:Usb.c         ****                 retry_count = 0;
 2722              		.loc 4 321 0
 2723 00c2 002F     		cmp	r7, #0
 2724 00c4 CDD1     		bne	.L224
 2725 00c6 5646     		mov	r6, r10
 2726 00c8 12E0     		b	.L211
 2727              	.LVL247:
ARM GAS  C:\Users\jrdia\AppData\Local\Temp\ccmJQ9RW.s 			page 74


 2728              	.L253:
 332:Usb.c         ****                         switch(rcode) {
 2729              		.loc 4 332 0 discriminator 1
 2730 00ca 0023     		movs	r3, #0
 2731 00cc 0293     		str	r3, [sp, #8]
 2732 00ce 0193     		str	r3, [sp, #4]
 348:Usb.c         ****                                         regWr(rHCTL, (pep->bmSndToggle) ? bmSNDTOG1 : bmSNDTOG0); /
 2733              		.loc 4 348 0 discriminator 1
 2734 00d0 5346     		mov	r3, r10
 2735 00d2 B246     		mov	r10, r6
 2736              	.LVL248:
 2737 00d4 1E00     		movs	r6, r3
 2738              	.LVL249:
 2739              	.L223:
 332:Usb.c         ****                         switch(rcode) {
 2740              		.loc 4 332 0 discriminator 1
 2741 00d6 FFF7FEFF 		bl	millis
 2742              	.LVL250:
 2743 00da 039B     		ldr	r3, [sp, #12]
 2744 00dc C01A     		subs	r0, r0, r3
 2745 00de 01D4     		bmi	.L254
 2746 00e0 B246     		mov	r10, r6
 2747 00e2 E7E7     		b	.L216
 2748              	.L254:
 333:Usb.c         ****                                 case hrNAK:
 2749              		.loc 4 333 0
 2750 00e4 062C     		cmp	r4, #6
 2751 00e6 10D0     		beq	.L220
 2752 00e8 0E2C     		cmp	r4, #14
 2753 00ea 51D0     		beq	.L219
 2754 00ec 042C     		cmp	r4, #4
 2755 00ee 45D0     		beq	.L255
 2756              	.LVL251:
 2757              	.L211:
 369:Usb.c         ****         return ( rcode); //should be 0 in all cases
 2758              		.loc 4 369 0
 2759 00f0 F820     		movs	r0, #248
 2760 00f2 FFF7FEFF 		bl	_ZN8MAX3421eI4TPinI5PortbLh2EES0_IS1_Lh1EEE5regRdEh.isra.1
 2761              	.LVL252:
 2762 00f6 4009     		lsrs	r0, r0, #5
 2763 00f8 0122     		movs	r2, #1
 2764 00fa 0300     		movs	r3, r0
 2765 00fc B078     		ldrb	r0, [r6, #2]
 2766 00fe 1340     		ands	r3, r2
 2767 0100 9043     		bics	r0, r2
 2768 0102 1843     		orrs	r0, r3
 2769 0104 B070     		strb	r0, [r6, #2]
 370:Usb.c         **** }
 2770              		.loc 4 370 0
 2771 0106 2000     		movs	r0, r4
 2772 0108 89E7     		b	.L237
 2773              	.LVL253:
 2774              	.L220:
 348:Usb.c         ****                                         regWr(rHCTL, (pep->bmSndToggle) ? bmSNDTOG1 : bmSNDTOG0); /
 2775              		.loc 4 348 0
 2776 010a F820     		movs	r0, #248
 2777 010c FFF7FEFF 		bl	_ZN8MAX3421eI4TPinI5PortbLh2EES0_IS1_Lh1EEE5regRdEh.isra.1
ARM GAS  C:\Users\jrdia\AppData\Local\Temp\ccmJQ9RW.s 			page 75


 2778              	.LVL254:
 2779 0110 0123     		movs	r3, #1
 2780 0112 4009     		lsrs	r0, r0, #5
 2781 0114 4340     		eors	r3, r0
 2782 0116 0120     		movs	r0, #1
 2783 0118 0122     		movs	r2, #1
 2784 011a 1840     		ands	r0, r3
 2785 011c B378     		ldrb	r3, [r6, #2]
 349:Usb.c         ****                                         break;
 2786              		.loc 4 349 0
 2787 011e 4021     		movs	r1, #64
 348:Usb.c         ****                                         regWr(rHCTL, (pep->bmSndToggle) ? bmSNDTOG1 : bmSNDTOG0); /
 2788              		.loc 4 348 0
 2789 0120 9343     		bics	r3, r2
 2790 0122 0343     		orrs	r3, r0
 2791 0124 B370     		strb	r3, [r6, #2]
 349:Usb.c         ****                                         break;
 2792              		.loc 4 349 0
 2793 0126 1A42     		tst	r2, r3
 2794 0128 00D0     		beq	.L221
 2795 012a 4031     		adds	r1, r1, #64
 2796              	.L221:
 349:Usb.c         ****                                         break;
 2797              		.loc 4 349 0 is_stmt 0 discriminator 4
 2798 012c E820     		movs	r0, #232
 2799 012e FFF7FEFF 		bl	_ZN8MAX3421eI4TPinI5PortbLh2EES0_IS1_Lh1EEE5regWrEhh.isra.0
 2800              	.LVL255:
 2801              	.L218:
 356:Usb.c         ****                         regWr(rSNDFIFO, *data_p);
 2802              		.loc 4 356 0 is_stmt 1
 2803 0132 0021     		movs	r1, #0
 2804 0134 3820     		movs	r0, #56
 2805 0136 FFF7FEFF 		bl	_ZN8MAX3421eI4TPinI5PortbLh2EES0_IS1_Lh1EEE5regWrEhh.isra.0
 2806              	.LVL256:
 357:Usb.c         ****                         regWr(rSNDBC, bytes_tosend);
 2807              		.loc 4 357 0
 2808 013a 109B     		ldr	r3, [sp, #64]
 2809 013c 1020     		movs	r0, #16
 2810 013e 1978     		ldrb	r1, [r3]
 2811 0140 FFF7FEFF 		bl	_ZN8MAX3421eI4TPinI5PortbLh2EES0_IS1_Lh1EEE5regWrEhh.isra.0
 2812              	.LVL257:
 358:Usb.c         ****                         regWr(rHXFR, (tokOUT | pep->epAddr)); //dispatch packet
 2813              		.loc 4 358 0
 2814 0144 5146     		mov	r1, r10
 2815 0146 3820     		movs	r0, #56
 2816 0148 FFF7FEFF 		bl	_ZN8MAX3421eI4TPinI5PortbLh2EES0_IS1_Lh1EEE5regWrEhh.isra.0
 2817              	.LVL258:
 359:Usb.c         ****                         while(!(regRd(rHIRQ) & bmHXFRDNIRQ)); //wait for the completion IRQ
 2818              		.loc 4 359 0
 2819 014c 4B46     		mov	r3, r9
 2820 014e 3178     		ldrb	r1, [r6]
 2821 0150 F020     		movs	r0, #240
 2822 0152 1943     		orrs	r1, r3
 2823 0154 C9B2     		uxtb	r1, r1
 2824 0156 FFF7FEFF 		bl	_ZN8MAX3421eI4TPinI5PortbLh2EES0_IS1_Lh1EEE5regWrEhh.isra.0
 2825              	.LVL259:
 2826              	.L222:
ARM GAS  C:\Users\jrdia\AppData\Local\Temp\ccmJQ9RW.s 			page 76


 360:Usb.c         ****                         regWr(rHIRQ, bmHXFRDNIRQ); //clear IRQ
 2827              		.loc 4 360 0
 2828 015a C820     		movs	r0, #200
 2829 015c FFF7FEFF 		bl	_ZN8MAX3421eI4TPinI5PortbLh2EES0_IS1_Lh1EEE5regRdEh.isra.1
 2830              	.LVL260:
 2831 0160 0306     		lsls	r3, r0, #24
 2832 0162 FAD5     		bpl	.L222
 361:Usb.c         ****                         rcode = (regRd(rHRSL) & 0x0f);
 2833              		.loc 4 361 0
 2834 0164 8021     		movs	r1, #128
 2835 0166 C820     		movs	r0, #200
 2836 0168 FFF7FEFF 		bl	_ZN8MAX3421eI4TPinI5PortbLh2EES0_IS1_Lh1EEE5regWrEhh.isra.0
 2837              	.LVL261:
 362:Usb.c         ****                 }//while( rcode && ....
 2838              		.loc 4 362 0
 2839 016c F820     		movs	r0, #248
 2840 016e FFF7FEFF 		bl	_ZN8MAX3421eI4TPinI5PortbLh2EES0_IS1_Lh1EEE5regRdEh.isra.1
 2841              	.LVL262:
 2842 0172 5C46     		mov	r4, fp
 2843              	.LVL263:
 2844 0174 0440     		ands	r4, r0
 2845              	.LVL264:
 332:Usb.c         ****                         switch(rcode) {
 2846              		.loc 4 332 0
 2847 0176 AED1     		bne	.L223
 2848 0178 B246     		mov	r10, r6
 2849 017a 9AE7     		b	.L214
 2850              	.L255:
 336:Usb.c         ****                                                 goto breakout;
 2851              		.loc 4 336 0
 2852 017c 4246     		mov	r2, r8
 335:Usb.c         ****                                         if(nak_limit && (nak_count == nak_limit))
 2853              		.loc 4 335 0
 2854 017e 029B     		ldr	r3, [sp, #8]
 2855 0180 0133     		adds	r3, r3, #1
 2856 0182 9BB2     		uxth	r3, r3
 2857 0184 0293     		str	r3, [sp, #8]
 2858              	.LVL265:
 336:Usb.c         ****                                                 goto breakout;
 2859              		.loc 4 336 0
 2860 0186 002A     		cmp	r2, #0
 2861 0188 D3D0     		beq	.L218
 336:Usb.c         ****                                                 goto breakout;
 2862              		.loc 4 336 0 is_stmt 0 discriminator 1
 2863 018a 4345     		cmp	r3, r8
 2864 018c D1D1     		bne	.L218
 2865 018e AFE7     		b	.L211
 2866              	.LVL266:
 2867              	.L219:
 341:Usb.c         ****                                         if(retry_count == USB_RETRY_LIMIT)
 2868              		.loc 4 341 0 is_stmt 1
 2869 0190 019B     		ldr	r3, [sp, #4]
 2870 0192 0133     		adds	r3, r3, #1
 2871 0194 DBB2     		uxtb	r3, r3
 2872 0196 0193     		str	r3, [sp, #4]
 2873              	.LVL267:
 342:Usb.c         ****                                                 goto breakout;
ARM GAS  C:\Users\jrdia\AppData\Local\Temp\ccmJQ9RW.s 			page 77


 2874              		.loc 4 342 0
 2875 0198 032B     		cmp	r3, #3
 2876 019a CAD1     		bne	.L218
 2877 019c A8E7     		b	.L211
 2878              	.LVL268:
 2879              	.L227:
 307:Usb.c         ****         uint8_t *data_p = data; //local copy of the data pointer
 2880              		.loc 4 307 0
 2881 019e 0024     		movs	r4, #0
 2882              	.LVL269:
 2883 01a0 A6E7     		b	.L211
 2884              	.L257:
 2885 01a2 C046     		.align	2
 2886              	.L256:
 2887 01a4 88130000 		.word	5000
 2888              		.cfi_endproc
 2889              	.LFE226:
 2890              		.fnend
 2891              		.size	_ZN3USB11OutTransferEP6EpInfottPh, .-_ZN3USB11OutTransferEP6EpInfottPh
 2892              		.section	.text._ZN3USB11outTransferEhhtPh,"ax",%progbits
 2893              		.align	2
 2894              		.global	_ZN3USB11outTransferEhhtPh
 2895              		.code	16
 2896              		.thumb_func
 2897              		.type	_ZN3USB11outTransferEhhtPh, %function
 2898              	_ZN3USB11outTransferEhhtPh:
 2899              		.fnstart
 2900              	.LFB225:
 294:Usb.c         ****         EpInfo *pep = NULL;
 2901              		.loc 4 294 0
 2902              		.cfi_startproc
 2903              		@ args = 4, pretend = 0, frame = 8
 2904              		@ frame_needed = 0, uses_anonymous_args = 0
 2905              	.LVL270:
 2906 0000 70B5     		push	{r4, r5, r6, lr}
 2907              		.save {r4, r5, r6, lr}
 2908              		.cfi_def_cfa_offset 16
 2909              		.cfi_offset 4, -16
 2910              		.cfi_offset 5, -12
 2911              		.cfi_offset 6, -8
 2912              		.cfi_offset 14, -4
 296:Usb.c         **** 
 2913              		.loc 4 296 0
 2914 0002 0A24     		movs	r4, #10
 294:Usb.c         ****         EpInfo *pep = NULL;
 2915              		.loc 4 294 0
 2916 0004 1E00     		movs	r6, r3
 295:Usb.c         ****         uint16_t nak_limit = 0;
 2917              		.loc 4 295 0
 2918 0006 0023     		movs	r3, #0
 2919              	.LVL271:
 294:Usb.c         ****         EpInfo *pep = NULL;
 2920              		.loc 4 294 0
 2921              		.pad #16
 2922 0008 84B0     		sub	sp, sp, #16
 2923              		.cfi_def_cfa_offset 32
 296:Usb.c         **** 
ARM GAS  C:\Users\jrdia\AppData\Local\Temp\ccmJQ9RW.s 			page 78


 2924              		.loc 4 296 0
 2925 000a 6C44     		add	r4, r4, sp
 2926 000c 2380     		strh	r3, [r4]
 295:Usb.c         ****         uint16_t nak_limit = 0;
 2927              		.loc 4 295 0
 2928 000e 0393     		str	r3, [sp, #12]
 298:Usb.c         **** 
 2929              		.loc 4 298 0
 2930 0010 0094     		str	r4, [sp]
 2931 0012 03AB     		add	r3, sp, #12
 294:Usb.c         ****         EpInfo *pep = NULL;
 2932              		.loc 4 294 0
 2933 0014 0500     		movs	r5, r0
 298:Usb.c         **** 
 2934              		.loc 4 298 0
 2935 0016 FFF7FEFF 		bl	_ZN3USB10SetAddressEhhPP6EpInfoPt
 2936              	.LVL272:
 300:Usb.c         ****                 return rcode;
 2937              		.loc 4 300 0
 2938 001a 0028     		cmp	r0, #0
 2939 001c 07D1     		bne	.L259
 303:Usb.c         **** }
 2940              		.loc 4 303 0
 2941 001e 089B     		ldr	r3, [sp, #32]
 2942 0020 2288     		ldrh	r2, [r4]
 2943 0022 0399     		ldr	r1, [sp, #12]
 2944 0024 0093     		str	r3, [sp]
 2945 0026 2800     		movs	r0, r5
 2946              	.LVL273:
 2947 0028 3300     		movs	r3, r6
 2948 002a FFF7FEFF 		bl	_ZN3USB11OutTransferEP6EpInfottPh
 2949              	.LVL274:
 2950              	.L259:
 304:Usb.c         **** 
 2951              		.loc 4 304 0
 2952 002e 04B0     		add	sp, sp, #16
 2953              		@ sp needed
 2954              	.LVL275:
 2955 0030 70BD     		pop	{r4, r5, r6, pc}
 2956              		.cfi_endproc
 2957              	.LFE225:
 2958              		.fnend
 2959              		.size	_ZN3USB11outTransferEhhtPh, .-_ZN3USB11outTransferEhhtPh
 2960 0032 C046     		.section	.text._ZN3USB11dispatchPktEhht,"ax",%progbits
 2961              		.align	2
 2962              		.global	_ZN3USB11dispatchPktEhht
 2963              		.code	16
 2964              		.thumb_func
 2965              		.type	_ZN3USB11dispatchPktEhht, %function
 2966              	_ZN3USB11dispatchPktEhht:
 2967              		.fnstart
 2968              	.LFB227:
 372:Usb.c         **** /* dispatch USB packet. Assumes peripheral address is set and relevant buffer is loaded/empty      
 373:Usb.c         **** /* If NAK, tries to re-send up to nak_limit times                                                  
 374:Usb.c         **** /* If nak_limit == 0, do not count NAKs, exit after timeout                                        
 375:Usb.c         **** /* If bus timeout, re-sends up to USB_RETRY_LIMIT times                                            
 376:Usb.c         **** 
ARM GAS  C:\Users\jrdia\AppData\Local\Temp\ccmJQ9RW.s 			page 79


 377:Usb.c         **** /* return codes 0x00-0x0f are HRSLT( 0x00 being success ), 0xff means timeout                      
 378:Usb.c         **** uint8_t USB::dispatchPkt(uint8_t token, uint8_t ep, uint16_t nak_limit) {
 2969              		.loc 4 378 0
 2970              		.cfi_startproc
 2971              		@ args = 0, pretend = 0, frame = 0
 2972              		@ frame_needed = 0, uses_anonymous_args = 0
 2973              	.LVL276:
 2974 0000 F0B5     		push	{r4, r5, r6, r7, lr}
 2975              		.save {r4, r5, r6, r7, lr}
 2976              		.cfi_def_cfa_offset 20
 2977              		.cfi_offset 4, -20
 2978              		.cfi_offset 5, -16
 2979              		.cfi_offset 6, -12
 2980              		.cfi_offset 7, -8
 2981              		.cfi_offset 14, -4
 2982 0002 5746     		mov	r7, r10
 2983 0004 4E46     		mov	r6, r9
 2984 0006 4546     		mov	r5, r8
 2985 0008 E0B4     		push	{r5, r6, r7}
 2986              		.save {r8, r9, r10}
 2987              		.cfi_def_cfa_offset 32
 2988              		.cfi_offset 8, -32
 2989              		.cfi_offset 9, -28
 2990              		.cfi_offset 10, -24
 2991              		.loc 4 378 0
 2992 000a 8846     		mov	r8, r1
 2993 000c 1500     		movs	r5, r2
 2994 000e 9946     		mov	r9, r3
 379:Usb.c         ****         uint32_t timeout = (uint32_t)millis() + USB_XFER_TIMEOUT;
 2995              		.loc 4 379 0
 2996 0010 FFF7FEFF 		bl	millis
 2997              	.LVL277:
 2998 0014 224B     		ldr	r3, .L276
 380:Usb.c         ****         uint8_t tmpdata;
 381:Usb.c         ****         uint8_t rcode = hrSUCCESS;
 382:Usb.c         ****         uint8_t retry_count = 0;
 383:Usb.c         ****         uint16_t nak_count = 0;
 2999              		.loc 4 383 0
 3000 0016 0027     		movs	r7, #0
 379:Usb.c         ****         uint32_t timeout = (uint32_t)millis() + USB_XFER_TIMEOUT;
 3001              		.loc 4 379 0
 3002 0018 C418     		adds	r4, r0, r3
 3003              	.LVL278:
 381:Usb.c         ****         uint8_t retry_count = 0;
 3004              		.loc 4 381 0
 3005 001a 0023     		movs	r3, #0
 3006 001c 9A46     		mov	r10, r3
 384:Usb.c         **** 
 385:Usb.c         ****         while((int32_t)((uint32_t)millis() - timeout) < 0L) {
 386:Usb.c         ****                 regWr(rHXFR, (token | ep)); //launch the transfer
 3007              		.loc 4 386 0
 3008 001e 4346     		mov	r3, r8
 3009 0020 2B43     		orrs	r3, r5
 3010 0022 1D00     		movs	r5, r3
 387:Usb.c         ****                 rcode = USB_ERROR_TRANSFER_TIMEOUT;
 388:Usb.c         **** 
 389:Usb.c         ****                 while((int32_t)((uint32_t)millis() - timeout) < 0L) //wait for transfer completion
ARM GAS  C:\Users\jrdia\AppData\Local\Temp\ccmJQ9RW.s 			page 80


 390:Usb.c         ****                 {
 391:Usb.c         ****                         tmpdata = regRd(rHIRQ);
 392:Usb.c         **** 
 393:Usb.c         ****                         if(tmpdata & bmHXFRDNIRQ) {
 394:Usb.c         ****                                 regWr(rHIRQ, bmHXFRDNIRQ); //clear the interrupt
 395:Usb.c         ****                                 rcode = 0x00;
 396:Usb.c         ****                                 break;
 397:Usb.c         ****                         }//if( tmpdata & bmHXFRDNIRQ
 398:Usb.c         **** 
 399:Usb.c         ****                 }//while ( millis() < timeout
 400:Usb.c         **** 
 401:Usb.c         ****                 //if (rcode != 0x00) //exit if timeout
 402:Usb.c         ****                 //        return ( rcode);
 403:Usb.c         **** 
 404:Usb.c         ****                 rcode = (regRd(rHRSL) & 0x0f); //analyze transfer result
 3011              		.loc 4 404 0
 3012 0024 0F23     		movs	r3, #15
 382:Usb.c         ****         uint16_t nak_count = 0;
 3013              		.loc 4 382 0
 3014 0026 0026     		movs	r6, #0
 3015              		.loc 4 404 0
 3016 0028 9846     		mov	r8, r3
 3017              	.LVL279:
 3018              	.L262:
 385:Usb.c         ****                 regWr(rHXFR, (token | ep)); //launch the transfer
 3019              		.loc 4 385 0
 3020 002a FFF7FEFF 		bl	millis
 3021              	.LVL280:
 3022 002e 001B     		subs	r0, r0, r4
 3023 0030 1BD5     		bpl	.L263
 386:Usb.c         ****                 rcode = USB_ERROR_TRANSFER_TIMEOUT;
 3024              		.loc 4 386 0
 3025 0032 2900     		movs	r1, r5
 3026 0034 F020     		movs	r0, #240
 3027 0036 FFF7FEFF 		bl	_ZN8MAX3421eI4TPinI5PortbLh2EES0_IS1_Lh1EEE5regWrEhh.isra.0
 3028              	.LVL281:
 3029 003a 04E0     		b	.L265
 3030              	.L274:
 391:Usb.c         **** 
 3031              		.loc 4 391 0
 3032 003c C820     		movs	r0, #200
 3033 003e FFF7FEFF 		bl	_ZN8MAX3421eI4TPinI5PortbLh2EES0_IS1_Lh1EEE5regRdEh.isra.1
 3034              	.LVL282:
 393:Usb.c         ****                                 regWr(rHIRQ, bmHXFRDNIRQ); //clear the interrupt
 3035              		.loc 4 393 0
 3036 0042 0306     		lsls	r3, r0, #24
 3037 0044 17D4     		bmi	.L273
 3038              	.LVL283:
 3039              	.L265:
 389:Usb.c         ****                 {
 3040              		.loc 4 389 0
 3041 0046 FFF7FEFF 		bl	millis
 3042              	.LVL284:
 3043 004a 001B     		subs	r0, r0, r4
 3044 004c F6D4     		bmi	.L274
 3045              		.loc 4 404 0
 3046 004e F820     		movs	r0, #248
ARM GAS  C:\Users\jrdia\AppData\Local\Temp\ccmJQ9RW.s 			page 81


 3047 0050 FFF7FEFF 		bl	_ZN8MAX3421eI4TPinI5PortbLh2EES0_IS1_Lh1EEE5regRdEh.isra.1
 3048              	.LVL285:
 3049 0054 4346     		mov	r3, r8
 3050 0056 0340     		ands	r3, r0
 3051 0058 9A46     		mov	r10, r3
 3052              	.LVL286:
 405:Usb.c         **** 
 406:Usb.c         ****                 switch(rcode) {
 3053              		.loc 4 406 0
 3054 005a 042B     		cmp	r3, #4
 3055 005c 17D0     		beq	.L266
 3056              	.L275:
 3057 005e 0E2B     		cmp	r3, #14
 3058 0060 03D1     		bne	.L263
 407:Usb.c         ****                         case hrNAK:
 408:Usb.c         ****                                 nak_count++;
 409:Usb.c         ****                                 if(nak_limit && (nak_count == nak_limit))
 410:Usb.c         ****                                         return (rcode);
 411:Usb.c         ****                                 break;
 412:Usb.c         ****                         case hrTIMEOUT:
 413:Usb.c         ****                                 retry_count++;
 3059              		.loc 4 413 0
 3060 0062 0136     		adds	r6, r6, #1
 3061              	.LVL287:
 3062 0064 F6B2     		uxtb	r6, r6
 3063              	.LVL288:
 414:Usb.c         ****                                 if(retry_count == USB_RETRY_LIMIT)
 3064              		.loc 4 414 0
 3065 0066 032E     		cmp	r6, #3
 3066 0068 DFD1     		bne	.L262
 3067              	.LVL289:
 3068              	.L263:
 415:Usb.c         ****                                         return (rcode);
 416:Usb.c         ****                                 break;
 417:Usb.c         ****                         default:
 418:Usb.c         ****                                 return (rcode);
 419:Usb.c         ****                 }//switch( rcode
 420:Usb.c         **** 
 421:Usb.c         ****         }//while( timeout > millis()
 422:Usb.c         ****         return ( rcode);
 423:Usb.c         **** }
 3069              		.loc 4 423 0
 3070 006a 5046     		mov	r0, r10
 3071              		@ sp needed
 3072              	.LVL290:
 3073              	.LVL291:
 3074              	.LVL292:
 3075 006c 1CBC     		pop	{r2, r3, r4}
 3076 006e 9046     		mov	r8, r2
 3077 0070 9946     		mov	r9, r3
 3078 0072 A246     		mov	r10, r4
 3079 0074 F0BD     		pop	{r4, r5, r6, r7, pc}
 3080              	.LVL293:
 3081              	.L273:
 394:Usb.c         ****                                 rcode = 0x00;
 3082              		.loc 4 394 0
 3083 0076 8021     		movs	r1, #128
ARM GAS  C:\Users\jrdia\AppData\Local\Temp\ccmJQ9RW.s 			page 82


 3084 0078 C820     		movs	r0, #200
 3085              	.LVL294:
 3086 007a FFF7FEFF 		bl	_ZN8MAX3421eI4TPinI5PortbLh2EES0_IS1_Lh1EEE5regWrEhh.isra.0
 3087              	.LVL295:
 404:Usb.c         **** 
 3088              		.loc 4 404 0
 3089 007e F820     		movs	r0, #248
 3090 0080 FFF7FEFF 		bl	_ZN8MAX3421eI4TPinI5PortbLh2EES0_IS1_Lh1EEE5regRdEh.isra.1
 3091              	.LVL296:
 3092 0084 4346     		mov	r3, r8
 3093 0086 0340     		ands	r3, r0
 3094 0088 9A46     		mov	r10, r3
 3095              	.LVL297:
 406:Usb.c         ****                         case hrNAK:
 3096              		.loc 4 406 0
 3097 008a 042B     		cmp	r3, #4
 3098 008c E7D1     		bne	.L275
 3099              	.L266:
 409:Usb.c         ****                                         return (rcode);
 3100              		.loc 4 409 0
 3101 008e 4B46     		mov	r3, r9
 3102              	.LVL298:
 408:Usb.c         ****                                 if(nak_limit && (nak_count == nak_limit))
 3103              		.loc 4 408 0
 3104 0090 0137     		adds	r7, r7, #1
 3105              	.LVL299:
 3106 0092 BFB2     		uxth	r7, r7
 3107              	.LVL300:
 409:Usb.c         ****                                         return (rcode);
 3108              		.loc 4 409 0
 3109 0094 002B     		cmp	r3, #0
 3110 0096 C8D0     		beq	.L262
 409:Usb.c         ****                                         return (rcode);
 3111              		.loc 4 409 0 is_stmt 0 discriminator 1
 3112 0098 4F45     		cmp	r7, r9
 3113 009a C6D1     		bne	.L262
 3114 009c E5E7     		b	.L263
 3115              	.L277:
 3116 009e C046     		.align	2
 3117              	.L276:
 3118 00a0 88130000 		.word	5000
 3119              		.cfi_endproc
 3120              	.LFE227:
 3121              		.fnend
 3122              		.size	_ZN3USB11dispatchPktEhht, .-_ZN3USB11dispatchPktEhht
 3123              		.section	.text._ZN3USB10InTransferEP6EpInfotPtPhh,"ax",%progbits
 3124              		.align	2
 3125              		.global	_ZN3USB10InTransferEP6EpInfotPtPhh
 3126              		.code	16
 3127              		.thumb_func
 3128              		.type	_ZN3USB10InTransferEP6EpInfotPtPhh, %function
 3129              	_ZN3USB10InTransferEP6EpInfotPtPhh:
 3130              		.fnstart
 3131              	.LFB224:
 222:Usb.c         ****         uint8_t rcode = 0;
 3132              		.loc 4 222 0 is_stmt 1
 3133              		.cfi_startproc
ARM GAS  C:\Users\jrdia\AppData\Local\Temp\ccmJQ9RW.s 			page 83


 3134              		@ args = 8, pretend = 0, frame = 24
 3135              		@ frame_needed = 0, uses_anonymous_args = 0
 3136              	.LVL301:
 3137 0000 F0B5     		push	{r4, r5, r6, r7, lr}
 3138              		.save {r4, r5, r6, r7, lr}
 3139              		.cfi_def_cfa_offset 20
 3140              		.cfi_offset 4, -20
 3141              		.cfi_offset 5, -16
 3142              		.cfi_offset 6, -12
 3143              		.cfi_offset 7, -8
 3144              		.cfi_offset 14, -4
 3145 0002 5F46     		mov	r7, fp
 3146 0004 5646     		mov	r6, r10
 3147 0006 4D46     		mov	r5, r9
 3148 0008 4446     		mov	r4, r8
 3149 000a 9B46     		mov	fp, r3
 3150 000c F0B4     		push	{r4, r5, r6, r7}
 3151              		.save {r8, r9, r10, fp}
 3152              		.cfi_def_cfa_offset 36
 3153              		.cfi_offset 8, -36
 3154              		.cfi_offset 9, -32
 3155              		.cfi_offset 10, -28
 3156              		.cfi_offset 11, -24
 3157              		.pad #28
 3158 000e 87B0     		sub	sp, sp, #28
 3159              		.cfi_def_cfa_offset 64
 222:Usb.c         ****         uint8_t rcode = 0;
 3160              		.loc 4 222 0
 3161 0010 10AB     		add	r3, sp, #64
 3162              	.LVL302:
 3163 0012 20CB     		ldmia	r3!, {r5}
 3164              	.LVL303:
 3165 0014 0292     		str	r2, [sp, #8]
 3166 0016 1A78     		ldrb	r2, [r3]
 3167              	.LVL304:
 3168 0018 0091     		str	r1, [sp]
 3169 001a 0392     		str	r2, [sp, #12]
 226:Usb.c         ****         //printf("Requesting %i bytes ", nbytes);
 3170              		.loc 4 226 0
 3171 001c 5A46     		mov	r2, fp
 222:Usb.c         ****         uint8_t rcode = 0;
 3172              		.loc 4 222 0
 3173 001e 0190     		str	r0, [sp, #4]
 228:Usb.c         **** 
 3174              		.loc 4 228 0
 3175 0020 4B78     		ldrb	r3, [r1, #1]
 3176              	.LVL305:
 226:Usb.c         ****         //printf("Requesting %i bytes ", nbytes);
 3177              		.loc 4 226 0
 3178 0022 1288     		ldrh	r2, [r2]
 228:Usb.c         **** 
 3179              		.loc 4 228 0
 3180 0024 0493     		str	r3, [sp, #16]
 226:Usb.c         ****         //printf("Requesting %i bytes ", nbytes);
 3181              		.loc 4 226 0
 3182 0026 9246     		mov	r10, r2
 3183              	.LVL306:
ARM GAS  C:\Users\jrdia\AppData\Local\Temp\ccmJQ9RW.s 			page 84


 230:Usb.c         ****         regWr(rHCTL, (pep->bmRcvToggle) ? bmRCVTOG1 : bmRCVTOG0); //set toggle value
 3184              		.loc 4 230 0
 3185 0028 0023     		movs	r3, #0
 228:Usb.c         **** 
 3186              		.loc 4 228 0
 3187 002a 0A00     		movs	r2, r1
 230:Usb.c         ****         regWr(rHCTL, (pep->bmRcvToggle) ? bmRCVTOG1 : bmRCVTOG0); //set toggle value
 3188              		.loc 4 230 0
 3189 002c 5946     		mov	r1, fp
 3190              	.LVL307:
 3191 002e 0B80     		strh	r3, [r1]
 231:Usb.c         **** 
 3192              		.loc 4 231 0
 3193 0030 9378     		ldrb	r3, [r2, #2]
 3194 0032 1021     		movs	r1, #16
 3195 0034 9B07     		lsls	r3, r3, #30
 3196 0036 00D5     		bpl	.L279
 3197 0038 1031     		adds	r1, r1, #16
 3198              	.L279:
 231:Usb.c         **** 
 3199              		.loc 4 231 0 is_stmt 0 discriminator 4
 3200 003a E820     		movs	r0, #232
 3201              	.LVL308:
 3202 003c FFF7FEFF 		bl	_ZN8MAX3421eI4TPinI5PortbLh2EES0_IS1_Lh1EEE5regWrEhh.isra.0
 3203              	.LVL309:
 3204              	.LBB533:
 261:Usb.c         ****                 }
 3205              		.loc 4 261 0 is_stmt 1 discriminator 4
 3206 0040 5346     		mov	r3, r10
 3207 0042 6A46     		mov	r2, sp
 3208 0044 1375     		strb	r3, [r2, #20]
 3209 0046 137D     		ldrb	r3, [r2, #20]
 3210 0048 0593     		str	r3, [sp, #20]
 3211              	.LVL310:
 3212              	.L280:
 235:Usb.c         ****                 if(rcode == hrTOGERR) {
 3213              		.loc 4 235 0
 3214 004a 009B     		ldr	r3, [sp]
 3215 004c 0021     		movs	r1, #0
 3216 004e 1A78     		ldrb	r2, [r3]
 3217 0050 0198     		ldr	r0, [sp, #4]
 3218 0052 029B     		ldr	r3, [sp, #8]
 3219 0054 FFF7FEFF 		bl	_ZN3USB11dispatchPktEhht
 3220              	.LVL311:
 3221 0058 0700     		movs	r7, r0
 3222              	.LVL312:
 236:Usb.c         ****                         // yes, we flip it wrong here so that next time it is actually correct!
 3223              		.loc 4 236 0
 3224 005a 0628     		cmp	r0, #6
 3225 005c 63D0     		beq	.L311
 242:Usb.c         ****                         //printf(">>>>>>>> Problem! dispatchPkt %2.2x\r\n", rcode);
 3226              		.loc 4 242 0
 3227 005e 0028     		cmp	r0, #0
 3228 0060 00D0     		beq	.LCB3593
 3229 0062 8CE0     		b	.L310	@long jump
 3230              	.LCB3593:
 248:Usb.c         ****                         //printf(">>>>>>>> Problem! NO RCVDAVIRQ!\r\n");
ARM GAS  C:\Users\jrdia\AppData\Local\Temp\ccmJQ9RW.s 			page 85


 3231              		.loc 4 248 0
 3232 0064 C820     		movs	r0, #200
 3233              	.LVL313:
 3234 0066 FFF7FEFF 		bl	_ZN8MAX3421eI4TPinI5PortbLh2EES0_IS1_Lh1EEE5regRdEh.isra.1
 3235              	.LVL314:
 3236 006a 0423     		movs	r3, #4
 3237 006c 0342     		tst	r3, r0
 3238 006e 00D1     		bne	.LCB3602
 3239 0070 87E0     		b	.L296	@long jump
 3240              	.LCB3602:
 253:Usb.c         ****                 //printf("Got %i bytes \r\n", pktsize);
 3241              		.loc 4 253 0
 3242 0072 3020     		movs	r0, #48
 3243 0074 FFF7FEFF 		bl	_ZN8MAX3421eI4TPinI5PortbLh2EES0_IS1_Lh1EEE5regRdEh.isra.1
 3244              	.LVL315:
 257:Usb.c         ****                         // This can happen. Use of assert on Arduino locks up the Arduino.
 3245              		.loc 4 257 0
 3246 0078 83B2     		uxth	r3, r0
 253:Usb.c         ****                 //printf("Got %i bytes \r\n", pktsize);
 3247              		.loc 4 253 0
 3248 007a 0600     		movs	r6, r0
 3249              	.LVL316:
 257:Usb.c         ****                         // This can happen. Use of assert on Arduino locks up the Arduino.
 3250              		.loc 4 257 0
 3251 007c 9846     		mov	r8, r3
 3252 007e 9A45     		cmp	r10, r3
 3253 0080 01D2     		bcs	.L285
 3254 0082 D046     		mov	r8, r10
 261:Usb.c         ****                 }
 3255              		.loc 4 261 0
 3256 0084 059E     		ldr	r6, [sp, #20]
 3257              	.LVL317:
 3258              	.L285:
 264:Usb.c         **** 
 3259              		.loc 4 264 0
 3260 0086 5B46     		mov	r3, fp
 3261 0088 5246     		mov	r2, r10
 3262 008a 1B88     		ldrh	r3, [r3]
 3263 008c D31A     		subs	r3, r2, r3
 3264 008e 1BB2     		sxth	r3, r3
 3265              	.LVL318:
 269:Usb.c         **** 
 3266              		.loc 4 269 0
 3267 0090 1C1C     		adds	r4, r3, #0
 3268 0092 002B     		cmp	r3, #0
 3269 0094 45DB     		blt	.L312
 3270              	.L286:
 3271 0096 24B2     		sxth	r4, r4
 3272 0098 B442     		cmp	r4, r6
 3273 009a 00DD     		ble	.L287
 3274 009c 3400     		movs	r4, r6
 3275              	.L287:
 3276 009e E3B2     		uxtb	r3, r4
 3277              	.LVL319:
 3278              	.LBB534:
 3279              	.LBB535:
 372:usbhost.h     **** /* multiple-byte register read  */
ARM GAS  C:\Users\jrdia\AppData\Local\Temp\ccmJQ9RW.s 			page 86


 373:usbhost.h     **** 
 374:usbhost.h     **** /* returns a pointer to a memory position after last read   */
 375:usbhost.h     **** template< typename SPI_SS, typename INTR >
 376:usbhost.h     **** uint8_t* MAX3421e< SPI_SS, INTR >::bytesRd(uint8_t reg, uint8_t nbytes, uint8_t* data_p) {
 377:usbhost.h     ****         //UNC XMEM_ACQUIRE_SPI();
 378:usbhost.h     ****     
 379:usbhost.h     ****     
 380:usbhost.h     ****         CyDelayUs(SPI_DELAY);
 3280              		.loc 3 380 0
 3281 00a0 1920     		movs	r0, #25
 3282              	.LBE535:
 3283              	.LBE534:
 269:Usb.c         **** 
 3284              		.loc 4 269 0
 3285 00a2 9946     		mov	r9, r3
 3286              	.LVL320:
 3287              	.LBB537:
 3288              	.LBB536:
 3289              		.loc 3 380 0
 3290 00a4 FFF7FEFF 		bl	CyDelayUs
 3291              	.LVL321:
 381:usbhost.h     ****     SS_Write(0);
 3292              		.loc 3 381 0
 3293 00a8 0020     		movs	r0, #0
 3294 00aa FFF7FEFF 		bl	SS_Write
 3295              	.LVL322:
 382:usbhost.h     ****     SPI_WriteTxData(reg);
 3296              		.loc 3 382 0
 3297 00ae 0820     		movs	r0, #8
 3298 00b0 FFF7FEFF 		bl	SPI_WriteTxData
 3299              	.LVL323:
 3300              	.L288:
 383:usbhost.h     ****             //UNC SPI.transfer(reg | 0x02);
 384:usbhost.h     ****             while(SPI_GetRxBufferSize()==0);
 3301              		.loc 3 384 0
 3302 00b4 FFF7FEFF 		bl	SPI_GetRxBufferSize
 3303              	.LVL324:
 3304 00b8 0028     		cmp	r0, #0
 3305 00ba FBD0     		beq	.L288
 385:usbhost.h     ****             SPI_ReadRxData();
 3306              		.loc 3 385 0
 3307 00bc FFF7FEFF 		bl	SPI_ReadRxData
 3308              	.LVL325:
 386:usbhost.h     ****         while(nbytes) {
 3309              		.loc 3 386 0
 3310 00c0 002C     		cmp	r4, #0
 3311 00c2 12D0     		beq	.L289
 3312 00c4 4B46     		mov	r3, r9
 3313 00c6 013B     		subs	r3, r3, #1
 3314 00c8 DBB2     		uxtb	r3, r3
 3315 00ca 0133     		adds	r3, r3, #1
 3316 00cc 2C00     		movs	r4, r5
 3317 00ce ED18     		adds	r5, r5, r3
 3318              	.LVL326:
 3319              	.L291:
 387:usbhost.h     ****             //UNC *data_p++ = SPI.transfer(0);
 388:usbhost.h     ****             SPI_WriteTxData(0);
ARM GAS  C:\Users\jrdia\AppData\Local\Temp\ccmJQ9RW.s 			page 87


 3320              		.loc 3 388 0
 3321 00d0 0020     		movs	r0, #0
 3322 00d2 FFF7FEFF 		bl	SPI_WriteTxData
 3323              	.LVL327:
 3324              	.L290:
 389:usbhost.h     ****             while(SPI_GetRxBufferSize()==0);
 3325              		.loc 3 389 0
 3326 00d6 FFF7FEFF 		bl	SPI_GetRxBufferSize
 3327              	.LVL328:
 3328 00da 0028     		cmp	r0, #0
 3329 00dc FBD0     		beq	.L290
 3330              	.LVL329:
 390:usbhost.h     ****             *data_p++ = SPI_ReadRxData();
 3331              		.loc 3 390 0
 3332 00de FFF7FEFF 		bl	SPI_ReadRxData
 3333              	.LVL330:
 3334 00e2 2070     		strb	r0, [r4]
 3335 00e4 0134     		adds	r4, r4, #1
 3336              	.LVL331:
 386:usbhost.h     ****             //UNC *data_p++ = SPI.transfer(0);
 3337              		.loc 3 386 0
 3338 00e6 A542     		cmp	r5, r4
 3339 00e8 F2D1     		bne	.L291
 3340              	.LVL332:
 3341              	.L289:
 391:usbhost.h     ****             nbytes--;
 392:usbhost.h     ****         }
 393:usbhost.h     ****         CyDelayUs(SPI_DELAY);
 3342              		.loc 3 393 0
 3343 00ea 1920     		movs	r0, #25
 3344 00ec FFF7FEFF 		bl	CyDelayUs
 3345              	.LVL333:
 394:usbhost.h     ****         SS_Write(1);
 3346              		.loc 3 394 0
 3347 00f0 0120     		movs	r0, #1
 3348 00f2 FFF7FEFF 		bl	SS_Write
 3349              	.LVL334:
 3350              	.LBE536:
 3351              	.LBE537:
 271:Usb.c         ****                 *nbytesptr += pktsize; // add this packet's byte count to total transfer length
 3352              		.loc 4 271 0
 3353 00f6 0421     		movs	r1, #4
 3354 00f8 C820     		movs	r0, #200
 3355 00fa FFF7FEFF 		bl	_ZN8MAX3421eI4TPinI5PortbLh2EES0_IS1_Lh1EEE5regWrEhh.isra.0
 3356              	.LVL335:
 272:Usb.c         **** 
 3357              		.loc 4 272 0
 3358 00fe 5B46     		mov	r3, fp
 3359 0100 5A46     		mov	r2, fp
 3360 0102 1B88     		ldrh	r3, [r3]
 3361 0104 4344     		add	r3, r3, r8
 3362 0106 9BB2     		uxth	r3, r3
 3363 0108 1380     		strh	r3, [r2]
 277:Usb.c         ****                 {
 3364              		.loc 4 277 0
 3365 010a 049A     		ldr	r2, [sp, #16]
 3366 010c 9642     		cmp	r6, r2
ARM GAS  C:\Users\jrdia\AppData\Local\Temp\ccmJQ9RW.s 			page 88


 3367 010e 21D3     		bcc	.L292
 277:Usb.c         ****                 {
 3368              		.loc 4 277 0 is_stmt 0 discriminator 1
 3369 0110 9A45     		cmp	r10, r3
 3370 0112 1FD9     		bls	.L292
 284:Usb.c         ****                         delay(bInterval); // Delay according to polling interval
 3371              		.loc 4 284 0 is_stmt 1
 3372 0114 039B     		ldr	r3, [sp, #12]
 3373 0116 002B     		cmp	r3, #0
 3374 0118 97D0     		beq	.L280
 285:Usb.c         ****         } //while( 1 )
 3375              		.loc 4 285 0
 3376 011a 1800     		movs	r0, r3
 3377 011c FFF7FEFF 		bl	delay
 3378              	.LVL336:
 3379 0120 93E7     		b	.L280
 3380              	.LVL337:
 3381              	.L312:
 269:Usb.c         **** 
 3382              		.loc 4 269 0
 3383 0122 0024     		movs	r4, #0
 3384 0124 B7E7     		b	.L286
 3385              	.LVL338:
 3386              	.L311:
 238:Usb.c         ****                         regWr(rHCTL, (pep->bmRcvToggle) ? bmRCVTOG1 : bmRCVTOG0); //set toggle valu
 3387              		.loc 4 238 0
 3388 0126 F820     		movs	r0, #248
 3389              	.LVL339:
 3390 0128 FFF7FEFF 		bl	_ZN8MAX3421eI4TPinI5PortbLh2EES0_IS1_Lh1EEE5regRdEh.isra.1
 3391              	.LVL340:
 3392 012c 0123     		movs	r3, #1
 3393 012e 0209     		lsrs	r2, r0, #4
 3394 0130 5340     		eors	r3, r2
 3395 0132 0122     		movs	r2, #1
 3396 0134 0220     		movs	r0, #2
 3397 0136 0099     		ldr	r1, [sp]
 3398 0138 1340     		ands	r3, r2
 3399 013a 5A00     		lsls	r2, r3, #1
 3400 013c 8B78     		ldrb	r3, [r1, #2]
 3401 013e 8343     		bics	r3, r0
 3402 0140 1343     		orrs	r3, r2
 3403 0142 8B70     		strb	r3, [r1, #2]
 239:Usb.c         ****                         continue;
 3404              		.loc 4 239 0
 3405 0144 1021     		movs	r1, #16
 3406 0146 1842     		tst	r0, r3
 3407 0148 00D0     		beq	.L282
 3408 014a 1031     		adds	r1, r1, #16
 3409              	.L282:
 239:Usb.c         ****                         continue;
 3410              		.loc 4 239 0 is_stmt 0 discriminator 4
 3411 014c E820     		movs	r0, #232
 3412 014e FFF7FEFF 		bl	_ZN8MAX3421eI4TPinI5PortbLh2EES0_IS1_Lh1EEE5regWrEhh.isra.0
 3413              	.LVL341:
 240:Usb.c         ****                 }
 3414              		.loc 4 240 0 is_stmt 1 discriminator 4
 3415 0152 7AE7     		b	.L280
ARM GAS  C:\Users\jrdia\AppData\Local\Temp\ccmJQ9RW.s 			page 89


 3416              	.LVL342:
 3417              	.L292:
 280:Usb.c         ****                         //printf("\r\n");
 3418              		.loc 4 280 0
 3419 0154 F820     		movs	r0, #248
 3420 0156 FFF7FEFF 		bl	_ZN8MAX3421eI4TPinI5PortbLh2EES0_IS1_Lh1EEE5regRdEh.isra.1
 3421              	.LVL343:
 3422 015a 0221     		movs	r1, #2
 3423 015c B946     		mov	r9, r7
 3424 015e C306     		lsls	r3, r0, #27
 3425 0160 0098     		ldr	r0, [sp]
 3426 0162 DB0F     		lsrs	r3, r3, #31
 3427 0164 5A00     		lsls	r2, r3, #1
 3428 0166 8378     		ldrb	r3, [r0, #2]
 3429 0168 8B43     		bics	r3, r1
 3430 016a 1343     		orrs	r3, r2
 3431 016c 8370     		strb	r3, [r0, #2]
 3432              	.LVL344:
 3433              	.L284:
 3434              	.LBE533:
 288:Usb.c         **** 
 3435              		.loc 4 288 0
 3436 016e 4846     		mov	r0, r9
 3437 0170 07B0     		add	sp, sp, #28
 3438              	.LVL345:
 3439              		@ sp needed
 3440              	.LVL346:
 3441              	.LVL347:
 3442              	.LVL348:
 3443 0172 3CBC     		pop	{r2, r3, r4, r5}
 3444 0174 9046     		mov	r8, r2
 3445 0176 9946     		mov	r9, r3
 3446 0178 A246     		mov	r10, r4
 3447 017a AB46     		mov	fp, r5
 3448 017c F0BD     		pop	{r4, r5, r6, r7, pc}
 3449              	.LVL349:
 3450              	.L310:
 3451 017e 8146     		mov	r9, r0
 3452 0180 F5E7     		b	.L284
 3453              	.LVL350:
 3454              	.L296:
 3455              	.LBB538:
 250:Usb.c         ****                         break;
 3456              		.loc 4 250 0
 3457 0182 F023     		movs	r3, #240
 3458 0184 9946     		mov	r9, r3
 3459 0186 F2E7     		b	.L284
 3460              	.LBE538:
 3461              		.cfi_endproc
 3462              	.LFE224:
 3463              		.fnend
 3464              		.size	_ZN3USB10InTransferEP6EpInfotPtPhh, .-_ZN3USB10InTransferEP6EpInfotPtPhh
 3465              		.section	.text._ZN3USB10inTransferEhhPtPhh,"ax",%progbits
 3466              		.align	2
 3467              		.global	_ZN3USB10inTransferEhhPtPhh
 3468              		.code	16
 3469              		.thumb_func
ARM GAS  C:\Users\jrdia\AppData\Local\Temp\ccmJQ9RW.s 			page 90


 3470              		.type	_ZN3USB10inTransferEhhPtPhh, %function
 3471              	_ZN3USB10inTransferEhhPtPhh:
 3472              		.fnstart
 3473              	.LFB223:
 207:Usb.c         ****         EpInfo *pep = NULL;
 3474              		.loc 4 207 0
 3475              		.cfi_startproc
 3476              		@ args = 8, pretend = 0, frame = 8
 3477              		@ frame_needed = 0, uses_anonymous_args = 0
 3478              	.LVL351:
 3479 0000 F0B5     		push	{r4, r5, r6, r7, lr}
 3480              		.save {r4, r5, r6, r7, lr}
 3481              		.cfi_def_cfa_offset 20
 3482              		.cfi_offset 4, -20
 3483              		.cfi_offset 5, -16
 3484              		.cfi_offset 6, -12
 3485              		.cfi_offset 7, -8
 3486              		.cfi_offset 14, -4
 3487 0002 4746     		mov	r7, r8
 3488 0004 80B4     		push	{r7}
 3489              		.save {r8}
 3490              		.cfi_def_cfa_offset 24
 3491              		.cfi_offset 8, -24
 3492              		.pad #16
 3493 0006 84B0     		sub	sp, sp, #16
 3494              		.cfi_def_cfa_offset 40
 207:Usb.c         ****         EpInfo *pep = NULL;
 3495              		.loc 4 207 0
 3496 0008 1E00     		movs	r6, r3
 3497 000a 0AAB     		add	r3, sp, #40
 3498              	.LVL352:
 3499 000c 80CB     		ldmia	r3!, {r7}
 3500              	.LVL353:
 209:Usb.c         **** 
 3501              		.loc 4 209 0
 3502 000e 0A24     		movs	r4, #10
 207:Usb.c         ****         EpInfo *pep = NULL;
 3503              		.loc 4 207 0
 3504 0010 1B78     		ldrb	r3, [r3]
 3505              	.LVL354:
 209:Usb.c         **** 
 3506              		.loc 4 209 0
 3507 0012 6C44     		add	r4, r4, sp
 207:Usb.c         ****         EpInfo *pep = NULL;
 3508              		.loc 4 207 0
 3509 0014 9846     		mov	r8, r3
 208:Usb.c         ****         uint16_t nak_limit = 0;
 3510              		.loc 4 208 0
 3511 0016 0023     		movs	r3, #0
 209:Usb.c         **** 
 3512              		.loc 4 209 0
 3513 0018 2380     		strh	r3, [r4]
 208:Usb.c         ****         uint16_t nak_limit = 0;
 3514              		.loc 4 208 0
 3515 001a 0393     		str	r3, [sp, #12]
 211:Usb.c         **** 
 3516              		.loc 4 211 0
ARM GAS  C:\Users\jrdia\AppData\Local\Temp\ccmJQ9RW.s 			page 91


 3517 001c 0094     		str	r4, [sp]
 3518 001e 03AB     		add	r3, sp, #12
 207:Usb.c         ****         EpInfo *pep = NULL;
 3519              		.loc 4 207 0
 3520 0020 0500     		movs	r5, r0
 211:Usb.c         **** 
 3521              		.loc 4 211 0
 3522 0022 FFF7FEFF 		bl	_ZN3USB10SetAddressEhhPP6EpInfoPt
 3523              	.LVL355:
 213:Usb.c         ****                 USBTRACE3("(USB::InTransfer) SetAddress Failed ", rcode, 0x81);
 3524              		.loc 4 213 0
 3525 0026 0028     		cmp	r0, #0
 3526 0028 08D1     		bne	.L314
 219:Usb.c         **** }
 3527              		.loc 4 219 0
 3528 002a 4346     		mov	r3, r8
 3529 002c 2288     		ldrh	r2, [r4]
 3530 002e 0399     		ldr	r1, [sp, #12]
 3531 0030 0193     		str	r3, [sp, #4]
 3532 0032 0097     		str	r7, [sp]
 3533 0034 3300     		movs	r3, r6
 3534 0036 2800     		movs	r0, r5
 3535              	.LVL356:
 3536 0038 FFF7FEFF 		bl	_ZN3USB10InTransferEP6EpInfotPtPhh
 3537              	.LVL357:
 3538              	.L314:
 220:Usb.c         **** 
 3539              		.loc 4 220 0
 3540 003c 04B0     		add	sp, sp, #16
 3541              		@ sp needed
 3542              	.LVL358:
 3543              	.LVL359:
 3544 003e 04BC     		pop	{r2}
 3545 0040 9046     		mov	r8, r2
 3546 0042 F0BD     		pop	{r4, r5, r6, r7, pc}
 3547              		.cfi_endproc
 3548              	.LFE223:
 3549              		.fnend
 3550              		.size	_ZN3USB10inTransferEhhPtPhh, .-_ZN3USB10inTransferEhhPtPhh
 3551              		.section	.text._ZN3USB7ctrlReqEhhhhhhtttPhP13USBReadParser,"ax",%progbits
 3552              		.align	2
 3553              		.global	_ZN3USB7ctrlReqEhhhhhhtttPhP13USBReadParser
 3554              		.code	16
 3555              		.thumb_func
 3556              		.type	_ZN3USB7ctrlReqEhhhhhhtttPhP13USBReadParser, %function
 3557              	_ZN3USB7ctrlReqEhhhhhhtttPhP13USBReadParser:
 3558              		.fnstart
 3559              	.LFB222:
 128:Usb.c         ****         bool direction = false; //request direction, IN or OUT
 3560              		.loc 4 128 0
 3561              		.cfi_startproc
 3562              		@ args = 32, pretend = 0, frame = 32
 3563              		@ frame_needed = 0, uses_anonymous_args = 0
 3564              	.LVL360:
 3565 0000 F0B5     		push	{r4, r5, r6, r7, lr}
 3566              		.save {r4, r5, r6, r7, lr}
 3567              		.cfi_def_cfa_offset 20
ARM GAS  C:\Users\jrdia\AppData\Local\Temp\ccmJQ9RW.s 			page 92


 3568              		.cfi_offset 4, -20
 3569              		.cfi_offset 5, -16
 3570              		.cfi_offset 6, -12
 3571              		.cfi_offset 7, -8
 3572              		.cfi_offset 14, -4
 3573 0002 5F46     		mov	r7, fp
 3574 0004 5646     		mov	r6, r10
 3575 0006 4D46     		mov	r5, r9
 3576 0008 4446     		mov	r4, r8
 3577 000a F0B4     		push	{r4, r5, r6, r7}
 3578              		.save {r8, r9, r10, fp}
 3579              		.cfi_def_cfa_offset 36
 3580              		.cfi_offset 8, -36
 3581              		.cfi_offset 9, -32
 3582              		.cfi_offset 10, -28
 3583              		.cfi_offset 11, -24
 3584              		.pad #44
 3585 000c 8BB0     		sub	sp, sp, #44
 3586              		.cfi_def_cfa_offset 80
 128:Usb.c         ****         bool direction = false; //request direction, IN or OUT
 3587              		.loc 4 128 0
 3588 000e 1C00     		movs	r4, r3
 3589 0010 14AB     		add	r3, sp, #80
 3590              	.LVL361:
 3591 0012 1B78     		ldrb	r3, [r3]
 3592              	.LVL362:
 3593 0014 9346     		mov	fp, r2
 3594 0016 0393     		str	r3, [sp, #12]
 3595 0018 15AB     		add	r3, sp, #84
 3596              	.LVL363:
 3597 001a 1B78     		ldrb	r3, [r3]
 3598              	.LVL364:
 134:Usb.c         **** 
 3599              		.loc 4 134 0
 3600 001c 02AA     		add	r2, sp, #8
 3601              	.LVL365:
 128:Usb.c         ****         bool direction = false; //request direction, IN or OUT
 3602              		.loc 4 128 0
 3603 001e 9A46     		mov	r10, r3
 3604 0020 16AB     		add	r3, sp, #88
 3605              	.LVL366:
 3606 0022 1B78     		ldrb	r3, [r3]
 3607              	.LVL367:
 134:Usb.c         **** 
 3608              		.loc 4 134 0
 3609 0024 9446     		mov	ip, r2
 128:Usb.c         ****         bool direction = false; //request direction, IN or OUT
 3610              		.loc 4 128 0
 3611 0026 9946     		mov	r9, r3
 3612 0028 17AB     		add	r3, sp, #92
 3613              	.LVL368:
 3614 002a 1B88     		ldrh	r3, [r3]
 3615              	.LVL369:
 134:Usb.c         **** 
 3616              		.loc 4 134 0
 3617 002c 0E25     		movs	r5, #14
 128:Usb.c         ****         bool direction = false; //request direction, IN or OUT
ARM GAS  C:\Users\jrdia\AppData\Local\Temp\ccmJQ9RW.s 			page 93


 3618              		.loc 4 128 0
 3619 002e 9846     		mov	r8, r3
 3620 0030 18AB     		add	r3, sp, #96
 3621              	.LVL370:
 3622 0032 1B88     		ldrh	r3, [r3]
 3623              	.LVL371:
 134:Usb.c         **** 
 3624              		.loc 4 134 0
 3625 0034 6544     		add	r5, r5, ip
 128:Usb.c         ****         bool direction = false; //request direction, IN or OUT
 3626              		.loc 4 128 0
 3627 0036 0293     		str	r3, [sp, #8]
 3628 0038 19AB     		add	r3, sp, #100
 3629              	.LVL372:
 3630 003a 1E88     		ldrh	r6, [r3]
 133:Usb.c         ****         uint16_t nak_limit = 0;
 3631              		.loc 4 133 0
 3632 003c 0023     		movs	r3, #0
 3633              	.LVL373:
 136:Usb.c         **** 
 3634              		.loc 4 136 0
 3635 003e 5A46     		mov	r2, fp
 134:Usb.c         **** 
 3636              		.loc 4 134 0
 3637 0040 2B80     		strh	r3, [r5]
 133:Usb.c         ****         uint16_t nak_limit = 0;
 3638              		.loc 4 133 0
 3639 0042 0793     		str	r3, [sp, #28]
 136:Usb.c         **** 
 3640              		.loc 4 136 0
 3641 0044 0095     		str	r5, [sp]
 3642 0046 07AB     		add	r3, sp, #28
 128:Usb.c         ****         bool direction = false; //request direction, IN or OUT
 3643              		.loc 4 128 0
 3644 0048 0700     		movs	r7, r0
 136:Usb.c         **** 
 3645              		.loc 4 136 0
 3646 004a FFF7FEFF 		bl	_ZN3USB10SetAddressEhhPP6EpInfoPt
 3647              	.LVL374:
 138:Usb.c         ****                 return rcode;
 3648              		.loc 4 138 0
 3649 004e 0028     		cmp	r0, #0
 3650 0050 06D0     		beq	.L344
 3651              	.LVL375:
 3652              	.L317:
 200:Usb.c         **** 
 3653              		.loc 4 200 0
 3654 0052 0BB0     		add	sp, sp, #44
 3655              		@ sp needed
 3656 0054 3CBC     		pop	{r2, r3, r4, r5}
 3657 0056 9046     		mov	r8, r2
 3658 0058 9946     		mov	r9, r3
 3659 005a A246     		mov	r10, r4
 3660 005c AB46     		mov	fp, r5
 3661 005e F0BD     		pop	{r4, r5, r6, r7, pc}
 3662              	.LVL376:
 3663              	.L344:
ARM GAS  C:\Users\jrdia\AppData\Local\Temp\ccmJQ9RW.s 			page 94


 145:Usb.c         ****         setup_pkt.wVal_u.wValueLo = wValLo;
 3664              		.loc 4 145 0
 3665 0060 6B46     		mov	r3, sp
 3666 0062 1B7B     		ldrb	r3, [r3, #12]
 144:Usb.c         ****         setup_pkt.bRequest = bRequest;
 3667              		.loc 4 144 0
 3668 0064 08AA     		add	r2, sp, #32
 145:Usb.c         ****         setup_pkt.wVal_u.wValueLo = wValLo;
 3669              		.loc 4 145 0
 3670 0066 5370     		strb	r3, [r2, #1]
 146:Usb.c         ****         setup_pkt.wVal_u.wValueHi = wValHi;
 3671              		.loc 4 146 0
 3672 0068 5346     		mov	r3, r10
 3673 006a 9370     		strb	r3, [r2, #2]
 147:Usb.c         ****         setup_pkt.wIndex = wInd;
 3674              		.loc 4 147 0
 3675 006c 4B46     		mov	r3, r9
 3676 006e D370     		strb	r3, [r2, #3]
 148:Usb.c         ****         setup_pkt.wLength = total;
 3677              		.loc 4 148 0
 3678 0070 4346     		mov	r3, r8
 3679 0072 9380     		strh	r3, [r2, #4]
 149:Usb.c         **** 
 3680              		.loc 4 149 0
 3681 0074 029B     		ldr	r3, [sp, #8]
 151:Usb.c         **** 
 3682              		.loc 4 151 0
 3683 0076 0821     		movs	r1, #8
 3684 0078 2030     		adds	r0, r0, #32
 3685              	.LVL377:
 149:Usb.c         **** 
 3686              		.loc 4 149 0
 3687 007a D380     		strh	r3, [r2, #6]
 144:Usb.c         ****         setup_pkt.bRequest = bRequest;
 3688              		.loc 4 144 0
 3689 007c 1470     		strb	r4, [r2]
 149:Usb.c         **** 
 3690              		.loc 4 149 0
 3691 007e 9846     		mov	r8, r3
 151:Usb.c         **** 
 3692              		.loc 4 151 0
 3693 0080 FFF7FEFF 		bl	_ZN8MAX3421eI4TPinI5PortbLh2EES0_IS1_Lh1EEE7bytesWrEhhPh.isra.2
 3694              	.LVL378:
 153:Usb.c         **** 
 3695              		.loc 4 153 0
 3696 0084 2B88     		ldrh	r3, [r5]
 3697 0086 5A46     		mov	r2, fp
 3698 0088 1021     		movs	r1, #16
 3699 008a 3800     		movs	r0, r7
 3700 008c FFF7FEFF 		bl	_ZN3USB11dispatchPktEhht
 3701              	.LVL379:
 155:Usb.c         ****                 return ( rcode);
 3702              		.loc 4 155 0
 3703 0090 0028     		cmp	r0, #0
 3704 0092 DED1     		bne	.L317
 3705 0094 7F23     		movs	r3, #127
 3706              	.LBB539:
ARM GAS  C:\Users\jrdia\AppData\Local\Temp\ccmJQ9RW.s 			page 95


 158:Usb.c         ****         {
 3707              		.loc 4 158 0
 3708 0096 1A9A     		ldr	r2, [sp, #104]
 3709 0098 9C43     		bics	r4, r3
 3710              	.LVL380:
 3711 009a 002A     		cmp	r2, #0
 3712 009c 65D0     		beq	.L318
 3713              	.LBB540:
 3714              	.LBB541:
 160:Usb.c         ****                 {
 3715              		.loc 4 160 0
 3716 009e 002C     		cmp	r4, #0
 3717 00a0 52D0     		beq	.L319
 3718              	.LVL381:
 3719              	.LBB542:
 164:Usb.c         **** 
 3720              		.loc 4 164 0
 3721 00a2 0223     		movs	r3, #2
 3722 00a4 079A     		ldr	r2, [sp, #28]
 3723 00a6 9178     		ldrb	r1, [r2, #2]
 3724 00a8 0B43     		orrs	r3, r1
 3725 00aa 9370     		strb	r3, [r2, #2]
 3726              	.LVL382:
 166:Usb.c         ****                                 // Bytes read into buffer
 3727              		.loc 4 166 0
 3728 00ac 4346     		mov	r3, r8
 3729 00ae 002B     		cmp	r3, #0
 3730 00b0 2ED0     		beq	.L320
 3731              	.LBB543:
 171:Usb.c         ****                                 if(rcode == hrTOGERR) {
 3732              		.loc 4 171 0
 3733 00b2 0023     		movs	r3, #0
 3734 00b4 9946     		mov	r9, r3
 174:Usb.c         ****                                         continue;
 3735              		.loc 4 174 0
 3736 00b6 3300     		movs	r3, r6
 3737 00b8 4646     		mov	r6, r8
 3738 00ba B846     		mov	r8, r7
 3739              	.LVL383:
 3740 00bc 1F00     		movs	r7, r3
 3741              	.LVL384:
 3742 00be 06AC     		add	r4, sp, #24
 3743              	.LVL385:
 3744              	.L321:
 171:Usb.c         ****                                 if(rcode == hrTOGERR) {
 3745              		.loc 4 171 0
 3746 00c0 4B46     		mov	r3, r9
 168:Usb.c         ****                                 //uint16_t read = (left<nbytes) ? left : nbytes;
 3747              		.loc 4 168 0
 3748 00c2 2780     		strh	r7, [r4]
 171:Usb.c         ****                                 if(rcode == hrTOGERR) {
 3749              		.loc 4 171 0
 3750 00c4 2A88     		ldrh	r2, [r5]
 3751 00c6 0193     		str	r3, [sp, #4]
 3752 00c8 1A9B     		ldr	r3, [sp, #104]
 3753 00ca 0799     		ldr	r1, [sp, #28]
 3754 00cc 0093     		str	r3, [sp]
ARM GAS  C:\Users\jrdia\AppData\Local\Temp\ccmJQ9RW.s 			page 96


 3755 00ce 4046     		mov	r0, r8
 3756 00d0 2300     		movs	r3, r4
 3757 00d2 FFF7FEFF 		bl	_ZN3USB10InTransferEP6EpInfotPtPhh
 3758              	.LVL386:
 172:Usb.c         ****                                         // yes, we flip it wrong here so that next time it is actua
 3759              		.loc 4 172 0
 3760 00d6 0628     		cmp	r0, #6
 3761 00d8 1CD0     		beq	.L345
 178:Usb.c         ****                                         return rcode;
 3762              		.loc 4 178 0
 3763 00da 0028     		cmp	r0, #0
 3764 00dc B9D1     		bne	.L317
 182:Usb.c         ****                                         ((USBReadParser*)p)->Parse(read, dataptr, total - left);
 3765              		.loc 4 182 0 discriminator 1
 3766 00de 1B9B     		ldr	r3, [sp, #108]
 3767 00e0 002B     		cmp	r3, #0
 3768 00e2 0DD0     		beq	.L325
 183:Usb.c         **** 
 3769              		.loc 4 183 0
 3770 00e4 1B68     		ldr	r3, [r3]
 3771 00e6 02AA     		add	r2, sp, #8
 3772 00e8 1B68     		ldr	r3, [r3]
 3773 00ea 9446     		mov	ip, r2
 3774 00ec 9A46     		mov	r10, r3
 3775 00ee 029B     		ldr	r3, [sp, #8]
 3776 00f0 2188     		ldrh	r1, [r4]
 3777 00f2 9B1B     		subs	r3, r3, r6
 3778 00f4 5382     		strh	r3, [r2, #18]
 3779 00f6 1223     		movs	r3, #18
 3780 00f8 1A9A     		ldr	r2, [sp, #104]
 3781 00fa 6344     		add	r3, r3, ip
 3782 00fc 1B98     		ldr	r0, [sp, #108]
 3783              	.LVL387:
 3784 00fe D047     		blx	r10
 3785              	.LVL388:
 3786              	.L325:
 185:Usb.c         **** 
 3787              		.loc 4 185 0
 3788 0100 2388     		ldrh	r3, [r4]
 3789 0102 F61A     		subs	r6, r6, r3
 3790              	.LVL389:
 3791 0104 B6B2     		uxth	r6, r6
 3792              	.LVL390:
 187:Usb.c         ****                                         break;
 3793              		.loc 4 187 0
 3794 0106 9F42     		cmp	r7, r3
 3795 0108 16D8     		bhi	.L326
 3796              	.LVL391:
 3797              	.LBE543:
 166:Usb.c         ****                                 // Bytes read into buffer
 3798              		.loc 4 166 0
 3799 010a 002E     		cmp	r6, #0
 3800 010c D8D1     		bne	.L321
 3801 010e 4746     		mov	r7, r8
 3802              	.LVL392:
 3803              	.L320:
 3804              	.LBE542:
ARM GAS  C:\Users\jrdia\AppData\Local\Temp\ccmJQ9RW.s 			page 97


 3805              	.LBE541:
 3806              	.LBE540:
 3807              	.LBE539:
 199:Usb.c         **** }
 3808              		.loc 4 199 0
 3809 0110 A021     		movs	r1, #160
 3810 0112 13E0     		b	.L327
 3811              	.LVL393:
 3812              	.L345:
 3813              	.LBB550:
 3814              	.LBB548:
 3815              	.LBB546:
 3816              	.LBB545:
 3817              	.LBB544:
 174:Usb.c         ****                                         continue;
 3818              		.loc 4 174 0
 3819 0114 079B     		ldr	r3, [sp, #28]
 3820 0116 F230     		adds	r0, r0, #242
 3821              	.LVL394:
 3822 0118 9A46     		mov	r10, r3
 3823 011a FFF7FEFF 		bl	_ZN8MAX3421eI4TPinI5PortbLh2EES0_IS1_Lh1EEE5regRdEh.isra.1
 3824              	.LVL395:
 3825 011e 0123     		movs	r3, #1
 3826 0120 4009     		lsrs	r0, r0, #5
 3827 0122 5840     		eors	r0, r3
 3828 0124 0340     		ands	r3, r0
 3829 0126 5800     		lsls	r0, r3, #1
 3830 0128 5346     		mov	r3, r10
 3831 012a 0222     		movs	r2, #2
 3832 012c 9B78     		ldrb	r3, [r3, #2]
 3833 012e 9343     		bics	r3, r2
 3834 0130 5246     		mov	r2, r10
 3835 0132 0343     		orrs	r3, r0
 3836 0134 9370     		strb	r3, [r2, #2]
 3837              	.LVL396:
 3838 0136 C3E7     		b	.L321
 3839              	.LVL397:
 3840              	.L326:
 3841 0138 4746     		mov	r7, r8
 3842              	.LVL398:
 3843              	.LBE544:
 3844              	.LBE545:
 3845              	.LBE546:
 3846              	.LBE548:
 3847              	.LBE550:
 199:Usb.c         **** }
 3848              		.loc 4 199 0
 3849 013a A021     		movs	r1, #160
 3850              	.LVL399:
 3851              	.L327:
 199:Usb.c         **** }
 3852              		.loc 4 199 0 is_stmt 0 discriminator 4
 3853 013c 2B88     		ldrh	r3, [r5]
 3854 013e 5A46     		mov	r2, fp
 3855 0140 3800     		movs	r0, r7
 3856 0142 FFF7FEFF 		bl	_ZN3USB11dispatchPktEhht
 3857              	.LVL400:
ARM GAS  C:\Users\jrdia\AppData\Local\Temp\ccmJQ9RW.s 			page 98


 3858 0146 84E7     		b	.L317
 3859              	.LVL401:
 3860              	.L319:
 3861              	.LBB551:
 3862              	.LBB549:
 3863              	.LBB547:
 192:Usb.c         ****                         rcode = OutTransfer(pep, nak_limit, nbytes, dataptr);
 3864              		.loc 4 192 0 is_stmt 1
 3865 0148 0123     		movs	r3, #1
 3866 014a 0799     		ldr	r1, [sp, #28]
 193:Usb.c         ****                 }
 3867              		.loc 4 193 0
 3868 014c 3800     		movs	r0, r7
 3869              	.LVL402:
 192:Usb.c         ****                         rcode = OutTransfer(pep, nak_limit, nbytes, dataptr);
 3870              		.loc 4 192 0
 3871 014e 8A78     		ldrb	r2, [r1, #2]
 3872 0150 1343     		orrs	r3, r2
 3873 0152 8B70     		strb	r3, [r1, #2]
 193:Usb.c         ****                 }
 3874              		.loc 4 193 0
 3875 0154 1A9B     		ldr	r3, [sp, #104]
 3876 0156 2A88     		ldrh	r2, [r5]
 3877 0158 0093     		str	r3, [sp]
 3878 015a 3300     		movs	r3, r6
 3879 015c FFF7FEFF 		bl	_ZN3USB11OutTransferEP6EpInfottPh
 3880              	.LVL403:
 3881              	.LBE547:
 195:Usb.c         ****                         return ( rcode);
 3882              		.loc 4 195 0
 3883 0160 0028     		cmp	r0, #0
 3884 0162 00D0     		beq	.LCB4283
 3885 0164 75E7     		b	.L317	@long jump
 3886              	.LCB4283:
 3887              	.LVL404:
 3888              	.L328:
 3889              	.LBE549:
 3890              	.LBE551:
 199:Usb.c         **** }
 3891              		.loc 4 199 0 discriminator 2
 3892 0166 8021     		movs	r1, #128
 3893 0168 E8E7     		b	.L327
 3894              	.LVL405:
 3895              	.L318:
 199:Usb.c         **** }
 3896              		.loc 4 199 0 is_stmt 0
 3897 016a 002C     		cmp	r4, #0
 3898 016c FBD0     		beq	.L328
 3899 016e A021     		movs	r1, #160
 3900 0170 E4E7     		b	.L327
 3901              		.cfi_endproc
 3902              	.LFE222:
 3903              		.fnend
 3904              		.size	_ZN3USB7ctrlReqEhhhhhhtttPhP13USBReadParser, .-_ZN3USB7ctrlReqEhhhhhhtttPhP13USBReadParser
 3905 0172 C046     		.section	.text._ZN3USB13AttemptConfigEhhhb,"ax",%progbits
 3906              		.align	2
 3907              		.global	_ZN3USB13AttemptConfigEhhhb
ARM GAS  C:\Users\jrdia\AppData\Local\Temp\ccmJQ9RW.s 			page 99


 3908              		.code	16
 3909              		.thumb_func
 3910              		.type	_ZN3USB13AttemptConfigEhhhb, %function
 3911              	_ZN3USB13AttemptConfigEhhhb:
 3912              		.fnstart
 3913              	.LFB230:
 424:Usb.c         **** 
 425:Usb.c         **** /* USB main task. Performs enumeration/cleanup */
 426:Usb.c         **** void USB::Task(void) //USB state machine
 427:Usb.c         **** {
 428:Usb.c         ****         uint8_t rcode;
 429:Usb.c         ****         uint8_t tmpdata;
 430:Usb.c         ****         static uint32_t delay = 0;
 431:Usb.c         ****         //USB_DEVICE_DESCRIPTOR buf;
 432:Usb.c         ****         bool lowspeed = false;
 433:Usb.c         **** 
 434:Usb.c         ****         MAX3421E::Task();
 435:Usb.c         **** 
 436:Usb.c         ****         tmpdata = getVbusState();
 437:Usb.c         **** 
 438:Usb.c         ****         /* modify USB task state if Vbus changed */
 439:Usb.c         ****         switch(tmpdata) {
 440:Usb.c         ****                 case SE1: //illegal state
 441:Usb.c         ****                         usb_task_state = USB_DETACHED_SUBSTATE_ILLEGAL;
