ARM GAS  C:\Users\jrdia\AppData\Local\Temp\ccJ9Fnzg.s 			page 1


   1              		.syntax unified
   2              		.cpu cortex-m0
   3              		.fpu softvfp
   4              		.eabi_attribute 20, 1
   5              		.eabi_attribute 21, 1
   6              		.eabi_attribute 23, 3
   7              		.eabi_attribute 24, 1
   8              		.eabi_attribute 25, 1
   9              		.eabi_attribute 26, 1
  10              		.eabi_attribute 30, 2
  11              		.eabi_attribute 34, 0
  12              		.eabi_attribute 18, 4
  13              		.thumb
  14              		.syntax unified
  15              		.file	"usbhub.c"
  16              		.text
  17              	.Ltext0:
  18              		.cfi_sections	.debug_frame
  19              		.section	.text._ZN15USBDeviceConfig4InitEhhb,"axG",%progbits,_ZN15USBDeviceConfig4InitEhhb,comdat
  20              		.align	2
  21              		.weak	_ZN15USBDeviceConfig4InitEhhb
  22              		.code	16
  23              		.thumb_func
  24              		.type	_ZN15USBDeviceConfig4InitEhhb, %function
  25              	_ZN15USBDeviceConfig4InitEhhb:
  26              		.fnstart
  27              	.LFB179:
  28              		.file 1 "UsbCore.h"
   1:UsbCore.h     **** /* Copyright (C) 2011 Circuits At Home, LTD. All rights reserved.
   2:UsbCore.h     **** 
   3:UsbCore.h     **** This software may be distributed and modified under the terms of the GNU
   4:UsbCore.h     **** General Public License version 2 (GPL2) as published by the Free Software
   5:UsbCore.h     **** Foundation and appearing in the file GPL2.TXT included in the packaging of
   6:UsbCore.h     **** this file. Please note that GPL2 Section 2[b] requires that all works based
   7:UsbCore.h     **** on this software must also be made publicly available under the terms of
   8:UsbCore.h     **** the GPL2 ("Copyleft").
   9:UsbCore.h     **** 
  10:UsbCore.h     **** Contact information
  11:UsbCore.h     **** -------------------
  12:UsbCore.h     **** 
  13:UsbCore.h     **** Circuits At Home, LTD
  14:UsbCore.h     **** Web      :  http://www.circuitsathome.com
  15:UsbCore.h     **** e-mail   :  support@circuitsathome.com
  16:UsbCore.h     ****  */
  17:UsbCore.h     **** 
  18:UsbCore.h     **** #if !defined(_usb_h_) || defined(USBCORE_H)
  19:UsbCore.h     **** #error "Never include UsbCore.h directly; include Usb.h instead"
  20:UsbCore.h     **** #else
  21:UsbCore.h     **** #define USBCORE_H
  22:UsbCore.h     **** 
  23:UsbCore.h     **** // Not used anymore? If anyone uses this, please let us know so that this may be
  24:UsbCore.h     **** // moved to the proper place, settings.h.
  25:UsbCore.h     **** //#define USB_METHODS_INLINE
  26:UsbCore.h     **** 
  27:UsbCore.h     **** /* shield pins. First parameter - SS pin, second parameter - INT pin */
  28:UsbCore.h     **** #ifdef BOARD_BLACK_WIDDOW
  29:UsbCore.h     **** typedef MAX3421e<P6, P3> MAX3421E; // Black Widow
ARM GAS  C:\Users\jrdia\AppData\Local\Temp\ccJ9Fnzg.s 			page 2


  30:UsbCore.h     **** #elif defined(CORE_TEENSY) && (defined(__AVR_AT90USB646__) || defined(__AVR_AT90USB1286__))
  31:UsbCore.h     **** #if EXT_RAM
  32:UsbCore.h     **** typedef MAX3421e<P20, P7> MAX3421E; // Teensy++ 2.0 with XMEM2
  33:UsbCore.h     **** #else
  34:UsbCore.h     **** typedef MAX3421e<P9, P8> MAX3421E; // Teensy++ 1.0 and 2.0
  35:UsbCore.h     **** #endif
  36:UsbCore.h     **** #elif defined(BOARD_MEGA_ADK)
  37:UsbCore.h     **** typedef MAX3421e<P53, P54> MAX3421E; // Arduino Mega ADK
  38:UsbCore.h     **** #elif defined(ARDUINO_AVR_BALANDUINO)
  39:UsbCore.h     **** typedef MAX3421e<P20, P19> MAX3421E; // Balanduino
  40:UsbCore.h     **** #elif defined(__ARDUINO_X86__) && PLATFORM_ID == 0x06
  41:UsbCore.h     **** typedef MAX3421e<P3, P2> MAX3421E; // The Intel Galileo supports much faster read and write speed a
  42:UsbCore.h     **** #elif defined(ESP8266)
  43:UsbCore.h     **** typedef MAX3421e<P15, P5> MAX3421E; // ESP8266 boards
  44:UsbCore.h     **** #else
  45:UsbCore.h     **** typedef MAX3421e<P10, P9> MAX3421E; // Official Arduinos (UNO, Duemilanove, Mega, 2560, Leonardo, D
  46:UsbCore.h     **** #endif
  47:UsbCore.h     **** 
  48:UsbCore.h     **** /* Common setup data constant combinations  */
  49:UsbCore.h     **** #define bmREQ_GET_DESCR     USB_SETUP_DEVICE_TO_HOST|USB_SETUP_TYPE_STANDARD|USB_SETUP_RECIPIENT_DE
  50:UsbCore.h     **** #define bmREQ_SET           USB_SETUP_HOST_TO_DEVICE|USB_SETUP_TYPE_STANDARD|USB_SETUP_RECIPIENT_DE
  51:UsbCore.h     **** #define bmREQ_CL_GET_INTF   USB_SETUP_DEVICE_TO_HOST|USB_SETUP_TYPE_CLASS|USB_SETUP_RECIPIENT_INTER
  52:UsbCore.h     **** 
  53:UsbCore.h     **** // D7           data transfer direction (0 - host-to-device, 1 - device-to-host)
  54:UsbCore.h     **** // D6-5         Type (0- standard, 1 - class, 2 - vendor, 3 - reserved)
  55:UsbCore.h     **** // D4-0         Recipient (0 - device, 1 - interface, 2 - endpoint, 3 - other, 4..31 - reserved)
  56:UsbCore.h     **** 
  57:UsbCore.h     **** // USB Device Classes
  58:UsbCore.h     **** #define USB_CLASS_USE_CLASS_INFO        0x00    // Use Class Info in the Interface Descriptors
  59:UsbCore.h     **** #define USB_CLASS_AUDIO                 0x01    // Audio
  60:UsbCore.h     **** #define USB_CLASS_COM_AND_CDC_CTRL      0x02    // Communications and CDC Control
  61:UsbCore.h     **** #define USB_CLASS_HID                   0x03    // HID
  62:UsbCore.h     **** #define USB_CLASS_PHYSICAL              0x05    // Physical
  63:UsbCore.h     **** #define USB_CLASS_IMAGE                 0x06    // Image
  64:UsbCore.h     **** #define USB_CLASS_PRINTER               0x07    // Printer
  65:UsbCore.h     **** #define USB_CLASS_MASS_STORAGE          0x08    // Mass Storage
  66:UsbCore.h     **** #define USB_CLASS_HUB                   0x09    // Hub
  67:UsbCore.h     **** #define USB_CLASS_CDC_DATA              0x0a    // CDC-Data
  68:UsbCore.h     **** #define USB_CLASS_SMART_CARD            0x0b    // Smart-Card
  69:UsbCore.h     **** #define USB_CLASS_CONTENT_SECURITY      0x0d    // Content Security
  70:UsbCore.h     **** #define USB_CLASS_VIDEO                 0x0e    // Video
  71:UsbCore.h     **** #define USB_CLASS_PERSONAL_HEALTH       0x0f    // Personal Healthcare
  72:UsbCore.h     **** #define USB_CLASS_DIAGNOSTIC_DEVICE     0xdc    // Diagnostic Device
  73:UsbCore.h     **** #define USB_CLASS_WIRELESS_CTRL         0xe0    // Wireless Controller
  74:UsbCore.h     **** #define USB_CLASS_MISC                  0xef    // Miscellaneous
  75:UsbCore.h     **** #define USB_CLASS_APP_SPECIFIC          0xfe    // Application Specific
  76:UsbCore.h     **** #define USB_CLASS_VENDOR_SPECIFIC       0xff    // Vendor Specific
  77:UsbCore.h     **** 
  78:UsbCore.h     **** // Additional Error Codes
  79:UsbCore.h     **** #define USB_DEV_CONFIG_ERROR_DEVICE_NOT_SUPPORTED       0xD1
  80:UsbCore.h     **** #define USB_DEV_CONFIG_ERROR_DEVICE_INIT_INCOMPLETE     0xD2
  81:UsbCore.h     **** #define USB_ERROR_UNABLE_TO_REGISTER_DEVICE_CLASS       0xD3
  82:UsbCore.h     **** #define USB_ERROR_OUT_OF_ADDRESS_SPACE_IN_POOL          0xD4
  83:UsbCore.h     **** #define USB_ERROR_HUB_ADDRESS_OVERFLOW                  0xD5
  84:UsbCore.h     **** #define USB_ERROR_ADDRESS_NOT_FOUND_IN_POOL             0xD6
  85:UsbCore.h     **** #define USB_ERROR_EPINFO_IS_NULL                        0xD7
  86:UsbCore.h     **** #define USB_ERROR_INVALID_ARGUMENT                      0xD8
ARM GAS  C:\Users\jrdia\AppData\Local\Temp\ccJ9Fnzg.s 			page 3


  87:UsbCore.h     **** #define USB_ERROR_CLASS_INSTANCE_ALREADY_IN_USE         0xD9
  88:UsbCore.h     **** #define USB_ERROR_INVALID_MAX_PKT_SIZE                  0xDA
  89:UsbCore.h     **** #define USB_ERROR_EP_NOT_FOUND_IN_TBL                   0xDB
  90:UsbCore.h     **** #define USB_ERROR_CONFIG_REQUIRES_ADDITIONAL_RESET      0xE0
  91:UsbCore.h     **** #define USB_ERROR_FailGetDevDescr                       0xE1
  92:UsbCore.h     **** #define USB_ERROR_FailSetDevTblEntry                    0xE2
  93:UsbCore.h     **** #define USB_ERROR_FailGetConfDescr                      0xE3
  94:UsbCore.h     **** #define USB_ERROR_TRANSFER_TIMEOUT                      0xFF
  95:UsbCore.h     **** 
  96:UsbCore.h     **** #define USB_XFER_TIMEOUT        5000    // (5000) USB transfer timeout in milliseconds, per section
  97:UsbCore.h     **** //#define USB_NAK_LIMIT         32000   // NAK limit for a transfer. 0 means NAKs are not counted
  98:UsbCore.h     **** #define USB_RETRY_LIMIT         3       // 3 retry limit for a transfer
  99:UsbCore.h     **** #define USB_SETTLE_DELAY        200     // settle delay in milliseconds
 100:UsbCore.h     **** 
 101:UsbCore.h     **** #define USB_NUMDEVICES          16      //number of USB devices
 102:UsbCore.h     **** //#define HUB_MAX_HUBS          7       // maximum number of hubs that can be attached to the host 
 103:UsbCore.h     **** #define HUB_PORT_RESET_DELAY    20      // hub port reset delay 10 ms recomended, can be up to 20 m
 104:UsbCore.h     **** 
 105:UsbCore.h     **** /* USB state machine states */
 106:UsbCore.h     **** #define USB_STATE_MASK                                      0xf0
 107:UsbCore.h     **** 
 108:UsbCore.h     **** #define USB_STATE_DETACHED                                  0x10
 109:UsbCore.h     **** #define USB_DETACHED_SUBSTATE_INITIALIZE                    0x11
 110:UsbCore.h     **** #define USB_DETACHED_SUBSTATE_WAIT_FOR_DEVICE               0x12
 111:UsbCore.h     **** #define USB_DETACHED_SUBSTATE_ILLEGAL                       0x13
 112:UsbCore.h     **** #define USB_ATTACHED_SUBSTATE_SETTLE                        0x20
 113:UsbCore.h     **** #define USB_ATTACHED_SUBSTATE_RESET_DEVICE                  0x30
 114:UsbCore.h     **** #define USB_ATTACHED_SUBSTATE_WAIT_RESET_COMPLETE           0x40
 115:UsbCore.h     **** #define USB_ATTACHED_SUBSTATE_WAIT_SOF                      0x50
 116:UsbCore.h     **** #define USB_ATTACHED_SUBSTATE_WAIT_RESET                    0x51
 117:UsbCore.h     **** #define USB_ATTACHED_SUBSTATE_GET_DEVICE_DESCRIPTOR_SIZE    0x60
 118:UsbCore.h     **** #define USB_STATE_ADDRESSING                                0x70
 119:UsbCore.h     **** #define USB_STATE_CONFIGURING                               0x80
 120:UsbCore.h     **** #define USB_STATE_RUNNING                                   0x90
 121:UsbCore.h     **** #define USB_STATE_ERROR                                     0xa0
 122:UsbCore.h     **** 
 123:UsbCore.h     **** class USBDeviceConfig {
 124:UsbCore.h     **** public:
 125:UsbCore.h     **** 
 126:UsbCore.h     ****         virtual uint8_t Init(uint8_t parent, uint8_t port, bool lowspeed) {
  29              		.loc 1 126 0
  30              		.cfi_startproc
  31              		@ args = 0, pretend = 0, frame = 0
  32              		@ frame_needed = 0, uses_anonymous_args = 0
  33              		@ link register save eliminated.
  34              	.LVL0:
 127:UsbCore.h     ****                 return 0;
 128:UsbCore.h     ****         }
  35              		.loc 1 128 0
  36 0000 0020     		movs	r0, #0
  37              	.LVL1:
  38              		@ sp needed
  39 0002 7047     		bx	lr
  40              		.cfi_endproc
  41              	.LFE179:
  42              		.cantunwind
  43              		.fnend
ARM GAS  C:\Users\jrdia\AppData\Local\Temp\ccJ9Fnzg.s 			page 4


  44              		.size	_ZN15USBDeviceConfig4InitEhhb, .-_ZN15USBDeviceConfig4InitEhhb
  45              		.section	.text._ZN15USBDeviceConfig15ConfigureDeviceEhhb,"axG",%progbits,_ZN15USBDeviceConfig15Con
  46              		.align	2
  47              		.weak	_ZN15USBDeviceConfig15ConfigureDeviceEhhb
  48              		.code	16
  49              		.thumb_func
  50              		.type	_ZN15USBDeviceConfig15ConfigureDeviceEhhb, %function
  51              	_ZN15USBDeviceConfig15ConfigureDeviceEhhb:
  52              		.fnstart
  53              	.LFB180:
 129:UsbCore.h     **** 
 130:UsbCore.h     ****         virtual uint8_t ConfigureDevice(uint8_t parent, uint8_t port, bool lowspeed) {
  54              		.loc 1 130 0
  55              		.cfi_startproc
  56              		@ args = 0, pretend = 0, frame = 0
  57              		@ frame_needed = 0, uses_anonymous_args = 0
  58              		@ link register save eliminated.
  59              	.LVL2:
 131:UsbCore.h     ****                 return 0;
 132:UsbCore.h     ****         }
  60              		.loc 1 132 0
  61 0000 0020     		movs	r0, #0
  62              	.LVL3:
  63              		@ sp needed
  64 0002 7047     		bx	lr
  65              		.cfi_endproc
  66              	.LFE180:
  67              		.cantunwind
  68              		.fnend
  69              		.size	_ZN15USBDeviceConfig15ConfigureDeviceEhhb, .-_ZN15USBDeviceConfig15ConfigureDeviceEhhb
  70              		.section	.text._ZN15USBDeviceConfig7ReleaseEv,"axG",%progbits,_ZN15USBDeviceConfig7ReleaseEv,comda
  71              		.align	2
  72              		.weak	_ZN15USBDeviceConfig7ReleaseEv
  73              		.code	16
  74              		.thumb_func
  75              		.type	_ZN15USBDeviceConfig7ReleaseEv, %function
  76              	_ZN15USBDeviceConfig7ReleaseEv:
  77              		.fnstart
  78              	.LFB181:
 133:UsbCore.h     **** 
 134:UsbCore.h     ****         virtual uint8_t Release() {
  79              		.loc 1 134 0
  80              		.cfi_startproc
  81              		@ args = 0, pretend = 0, frame = 0
  82              		@ frame_needed = 0, uses_anonymous_args = 0
  83              		@ link register save eliminated.
  84              	.LVL4:
 135:UsbCore.h     ****                 return 0;
 136:UsbCore.h     ****         }
  85              		.loc 1 136 0
  86 0000 0020     		movs	r0, #0
  87              	.LVL5:
  88              		@ sp needed
  89 0002 7047     		bx	lr
  90              		.cfi_endproc
  91              	.LFE181:
  92              		.cantunwind
ARM GAS  C:\Users\jrdia\AppData\Local\Temp\ccJ9Fnzg.s 			page 5


  93              		.fnend
  94              		.size	_ZN15USBDeviceConfig7ReleaseEv, .-_ZN15USBDeviceConfig7ReleaseEv
  95              		.section	.text._ZN15USBDeviceConfig4PollEv,"axG",%progbits,_ZN15USBDeviceConfig4PollEv,comdat
  96              		.align	2
  97              		.weak	_ZN15USBDeviceConfig4PollEv
  98              		.code	16
  99              		.thumb_func
 100              		.type	_ZN15USBDeviceConfig4PollEv, %function
 101              	_ZN15USBDeviceConfig4PollEv:
 102              		.fnstart
 103              	.LFB182:
 137:UsbCore.h     **** 
 138:UsbCore.h     ****         virtual uint8_t Poll() {
 104              		.loc 1 138 0
 105              		.cfi_startproc
 106              		@ args = 0, pretend = 0, frame = 0
 107              		@ frame_needed = 0, uses_anonymous_args = 0
 108              		@ link register save eliminated.
 109              	.LVL6:
 139:UsbCore.h     ****                 return 0;
 140:UsbCore.h     ****         }
 110              		.loc 1 140 0
 111 0000 0020     		movs	r0, #0
 112              	.LVL7:
 113              		@ sp needed
 114 0002 7047     		bx	lr
 115              		.cfi_endproc
 116              	.LFE182:
 117              		.cantunwind
 118              		.fnend
 119              		.size	_ZN15USBDeviceConfig4PollEv, .-_ZN15USBDeviceConfig4PollEv
 120              		.section	.text._ZN15USBDeviceConfig10GetAddressEv,"axG",%progbits,_ZN15USBDeviceConfig10GetAddress
 121              		.align	2
 122              		.weak	_ZN15USBDeviceConfig10GetAddressEv
 123              		.code	16
 124              		.thumb_func
 125              		.type	_ZN15USBDeviceConfig10GetAddressEv, %function
 126              	_ZN15USBDeviceConfig10GetAddressEv:
 127              		.fnstart
 128              	.LFB183:
 141:UsbCore.h     **** 
 142:UsbCore.h     ****         virtual uint8_t GetAddress() {
 129              		.loc 1 142 0
 130              		.cfi_startproc
 131              		@ args = 0, pretend = 0, frame = 0
 132              		@ frame_needed = 0, uses_anonymous_args = 0
 133              		@ link register save eliminated.
 134              	.LVL8:
 143:UsbCore.h     ****                 return 0;
 144:UsbCore.h     ****         }
 135              		.loc 1 144 0
 136 0000 0020     		movs	r0, #0
 137              	.LVL9:
 138              		@ sp needed
 139 0002 7047     		bx	lr
 140              		.cfi_endproc
 141              	.LFE183:
ARM GAS  C:\Users\jrdia\AppData\Local\Temp\ccJ9Fnzg.s 			page 6


 142              		.cantunwind
 143              		.fnend
 144              		.size	_ZN15USBDeviceConfig10GetAddressEv, .-_ZN15USBDeviceConfig10GetAddressEv
 145              		.section	.text._ZN15USBDeviceConfig12ResetHubPortEh,"axG",%progbits,_ZN15USBDeviceConfig12ResetHub
 146              		.align	2
 147              		.weak	_ZN15USBDeviceConfig12ResetHubPortEh
 148              		.code	16
 149              		.thumb_func
 150              		.type	_ZN15USBDeviceConfig12ResetHubPortEh, %function
 151              	_ZN15USBDeviceConfig12ResetHubPortEh:
 152              		.fnstart
 153              	.LFB184:
 145:UsbCore.h     **** 
 146:UsbCore.h     ****         virtual void ResetHubPort(uint8_t port) {
 154              		.loc 1 146 0
 155              		.cfi_startproc
 156              		@ args = 0, pretend = 0, frame = 0
 157              		@ frame_needed = 0, uses_anonymous_args = 0
 158              		@ link register save eliminated.
 159              	.LVL10:
 147:UsbCore.h     ****                 return;
 148:UsbCore.h     ****         } // Note used for hubs only!
 160              		.loc 1 148 0
 161              		@ sp needed
 162 0000 7047     		bx	lr
 163              		.cfi_endproc
 164              	.LFE184:
 165              		.cantunwind
 166              		.fnend
 167              		.size	_ZN15USBDeviceConfig12ResetHubPortEh, .-_ZN15USBDeviceConfig12ResetHubPortEh
 168 0002 C046     		.section	.text._ZN15USBDeviceConfig8VIDPIDOKEtt,"axG",%progbits,_ZN15USBDeviceConfig8VIDPIDOKEtt,c
 169              		.align	2
 170              		.weak	_ZN15USBDeviceConfig8VIDPIDOKEtt
 171              		.code	16
 172              		.thumb_func
 173              		.type	_ZN15USBDeviceConfig8VIDPIDOKEtt, %function
 174              	_ZN15USBDeviceConfig8VIDPIDOKEtt:
 175              		.fnstart
 176              	.LFB185:
 149:UsbCore.h     **** 
 150:UsbCore.h     ****         virtual bool VIDPIDOK(uint16_t vid, uint16_t pid) {
 177              		.loc 1 150 0
 178              		.cfi_startproc
 179              		@ args = 0, pretend = 0, frame = 0
 180              		@ frame_needed = 0, uses_anonymous_args = 0
 181              		@ link register save eliminated.
 182              	.LVL11:
 151:UsbCore.h     ****                 return false;
 152:UsbCore.h     ****         }
 183              		.loc 1 152 0
 184 0000 0020     		movs	r0, #0
 185              	.LVL12:
 186              		@ sp needed
 187 0002 7047     		bx	lr
 188              		.cfi_endproc
 189              	.LFE185:
 190              		.cantunwind
ARM GAS  C:\Users\jrdia\AppData\Local\Temp\ccJ9Fnzg.s 			page 7


 191              		.fnend
 192              		.size	_ZN15USBDeviceConfig8VIDPIDOKEtt, .-_ZN15USBDeviceConfig8VIDPIDOKEtt
 193              		.section	.text._ZN15USBDeviceConfig10DEVCLASSOKEh,"axG",%progbits,_ZN15USBDeviceConfig10DEVCLASSOK
 194              		.align	2
 195              		.weak	_ZN15USBDeviceConfig10DEVCLASSOKEh
 196              		.code	16
 197              		.thumb_func
 198              		.type	_ZN15USBDeviceConfig10DEVCLASSOKEh, %function
 199              	_ZN15USBDeviceConfig10DEVCLASSOKEh:
 200              		.fnstart
 201              	.LFB186:
 153:UsbCore.h     **** 
 154:UsbCore.h     ****         virtual bool DEVCLASSOK(uint8_t klass) {
 202              		.loc 1 154 0
 203              		.cfi_startproc
 204              		@ args = 0, pretend = 0, frame = 0
 205              		@ frame_needed = 0, uses_anonymous_args = 0
 206              		@ link register save eliminated.
 207              	.LVL13:
 155:UsbCore.h     ****                 return false;
 156:UsbCore.h     ****         }
 208              		.loc 1 156 0
 209 0000 0020     		movs	r0, #0
 210              	.LVL14:
 211              		@ sp needed
 212 0002 7047     		bx	lr
 213              		.cfi_endproc
 214              	.LFE186:
 215              		.cantunwind
 216              		.fnend
 217              		.size	_ZN15USBDeviceConfig10DEVCLASSOKEh, .-_ZN15USBDeviceConfig10DEVCLASSOKEh
 218              		.section	.text._ZN15USBDeviceConfig13DEVSUBCLASSOKEh,"axG",%progbits,_ZN15USBDeviceConfig13DEVSUBC
 219              		.align	2
 220              		.weak	_ZN15USBDeviceConfig13DEVSUBCLASSOKEh
 221              		.code	16
 222              		.thumb_func
 223              		.type	_ZN15USBDeviceConfig13DEVSUBCLASSOKEh, %function
 224              	_ZN15USBDeviceConfig13DEVSUBCLASSOKEh:
 225              		.fnstart
 226              	.LFB187:
 157:UsbCore.h     **** 
 158:UsbCore.h     ****         virtual bool DEVSUBCLASSOK(uint8_t subklass) {
 227              		.loc 1 158 0
 228              		.cfi_startproc
 229              		@ args = 0, pretend = 0, frame = 0
 230              		@ frame_needed = 0, uses_anonymous_args = 0
 231              		@ link register save eliminated.
 232              	.LVL15:
 159:UsbCore.h     ****                 return true;
 160:UsbCore.h     ****         }
 233              		.loc 1 160 0
 234 0000 0120     		movs	r0, #1
 235              	.LVL16:
 236              		@ sp needed
 237 0002 7047     		bx	lr
 238              		.cfi_endproc
 239              	.LFE187:
ARM GAS  C:\Users\jrdia\AppData\Local\Temp\ccJ9Fnzg.s 			page 8


 240              		.cantunwind
 241              		.fnend
 242              		.size	_ZN15USBDeviceConfig13DEVSUBCLASSOKEh, .-_ZN15USBDeviceConfig13DEVSUBCLASSOKEh
 243              		.section	.text._ZN6USBHub10GetAddressEv,"axG",%progbits,_ZN6USBHub10GetAddressEv,comdat
 244              		.align	2
 245              		.weak	_ZN6USBHub10GetAddressEv
 246              		.code	16
 247              		.thumb_func
 248              		.type	_ZN6USBHub10GetAddressEv, %function
 249              	_ZN6USBHub10GetAddressEv:
 250              		.fnstart
 251              	.LFB213:
 252              		.file 2 "usbhub.h"
   1:usbhub.h      **** /* Copyright (C) 2011 Circuits At Home, LTD. All rights reserved.
   2:usbhub.h      **** 
   3:usbhub.h      **** This software may be distributed and modified under the terms of the GNU
   4:usbhub.h      **** General Public License version 2 (GPL2) as published by the Free Software
   5:usbhub.h      **** Foundation and appearing in the file GPL2.TXT included in the packaging of
   6:usbhub.h      **** this file. Please note that GPL2 Section 2[b] requires that all works based
   7:usbhub.h      **** on this software must also be made publicly available under the terms of
   8:usbhub.h      **** the GPL2 ("Copyleft").
   9:usbhub.h      **** 
  10:usbhub.h      **** Contact information
  11:usbhub.h      **** -------------------
  12:usbhub.h      **** 
  13:usbhub.h      **** Circuits At Home, LTD
  14:usbhub.h      **** Web      :  http://www.circuitsathome.com
  15:usbhub.h      **** e-mail   :  support@circuitsathome.com
  16:usbhub.h      ****  */
  17:usbhub.h      **** #if !defined(__USBHUB_H__)
  18:usbhub.h      **** #define __USBHUB_H__
  19:usbhub.h      **** 
  20:usbhub.h      **** #include "Usb.h"
  21:usbhub.h      **** #include "project.h"
  22:usbhub.h      **** #define USB_DESCRIPTOR_HUB                      0x09 // Hub descriptor type
  23:usbhub.h      **** 
  24:usbhub.h      **** // Hub Requests
  25:usbhub.h      **** #define bmREQ_CLEAR_HUB_FEATURE                 USB_SETUP_HOST_TO_DEVICE|USB_SETUP_TYPE_CLASS|USB_S
  26:usbhub.h      **** #define bmREQ_CLEAR_PORT_FEATURE                USB_SETUP_HOST_TO_DEVICE|USB_SETUP_TYPE_CLASS|USB_S
  27:usbhub.h      **** #define bmREQ_CLEAR_TT_BUFFER                   USB_SETUP_HOST_TO_DEVICE|USB_SETUP_TYPE_CLASS|USB_S
  28:usbhub.h      **** #define bmREQ_GET_HUB_DESCRIPTOR                USB_SETUP_DEVICE_TO_HOST|USB_SETUP_TYPE_CLASS|USB_S
  29:usbhub.h      **** #define bmREQ_GET_HUB_STATUS                    USB_SETUP_DEVICE_TO_HOST|USB_SETUP_TYPE_CLASS|USB_S
  30:usbhub.h      **** #define bmREQ_GET_PORT_STATUS                   USB_SETUP_DEVICE_TO_HOST|USB_SETUP_TYPE_CLASS|USB_S
  31:usbhub.h      **** #define bmREQ_RESET_TT                          USB_SETUP_HOST_TO_DEVICE|USB_SETUP_TYPE_CLASS|USB_S
  32:usbhub.h      **** #define bmREQ_SET_HUB_DESCRIPTOR                USB_SETUP_HOST_TO_DEVICE|USB_SETUP_TYPE_CLASS|USB_S
  33:usbhub.h      **** #define bmREQ_SET_HUB_FEATURE                   USB_SETUP_HOST_TO_DEVICE|USB_SETUP_TYPE_CLASS|USB_S
  34:usbhub.h      **** #define bmREQ_SET_PORT_FEATURE                  USB_SETUP_HOST_TO_DEVICE|USB_SETUP_TYPE_CLASS|USB_S
  35:usbhub.h      **** #define bmREQ_GET_TT_STATE                      USB_SETUP_DEVICE_TO_HOST|USB_SETUP_TYPE_CLASS|USB_S
  36:usbhub.h      **** #define bmREQ_STOP_TT                           USB_SETUP_HOST_TO_DEVICE|USB_SETUP_TYPE_CLASS|USB_S
  37:usbhub.h      **** 
  38:usbhub.h      **** // Hub Class Requests
  39:usbhub.h      **** #define HUB_REQUEST_CLEAR_TT_BUFFER             8
  40:usbhub.h      **** #define HUB_REQUEST_RESET_TT                    9
  41:usbhub.h      **** #define HUB_REQUEST_GET_TT_STATE                10
  42:usbhub.h      **** #define HUB_REQUEST_STOP_TT                     11
  43:usbhub.h      **** 
  44:usbhub.h      **** // Hub Features
ARM GAS  C:\Users\jrdia\AppData\Local\Temp\ccJ9Fnzg.s 			page 9


  45:usbhub.h      **** #define HUB_FEATURE_C_HUB_LOCAL_POWER           0
  46:usbhub.h      **** #define HUB_FEATURE_C_HUB_OVER_CURRENT          1
  47:usbhub.h      **** #define HUB_FEATURE_PORT_CONNECTION             0
  48:usbhub.h      **** #define HUB_FEATURE_PORT_ENABLE                 1
  49:usbhub.h      **** #define HUB_FEATURE_PORT_SUSPEND                2
  50:usbhub.h      **** #define HUB_FEATURE_PORT_OVER_CURRENT           3
  51:usbhub.h      **** #define HUB_FEATURE_PORT_RESET                  4
  52:usbhub.h      **** #define HUB_FEATURE_PORT_POWER                  8
  53:usbhub.h      **** #define HUB_FEATURE_PORT_LOW_SPEED              9
  54:usbhub.h      **** #define HUB_FEATURE_C_PORT_CONNECTION           16
  55:usbhub.h      **** #define HUB_FEATURE_C_PORT_ENABLE               17
  56:usbhub.h      **** #define HUB_FEATURE_C_PORT_SUSPEND              18
  57:usbhub.h      **** #define HUB_FEATURE_C_PORT_OVER_CURRENT         19
  58:usbhub.h      **** #define HUB_FEATURE_C_PORT_RESET                20
  59:usbhub.h      **** #define HUB_FEATURE_PORT_TEST                   21
  60:usbhub.h      **** #define HUB_FEATURE_PORT_INDICATOR              22
  61:usbhub.h      **** 
  62:usbhub.h      **** // Hub Port Test Modes
  63:usbhub.h      **** #define HUB_PORT_TEST_MODE_J                    1
  64:usbhub.h      **** #define HUB_PORT_TEST_MODE_K                    2
  65:usbhub.h      **** #define HUB_PORT_TEST_MODE_SE0_NAK              3
  66:usbhub.h      **** #define HUB_PORT_TEST_MODE_PACKET               4
  67:usbhub.h      **** #define HUB_PORT_TEST_MODE_FORCE_ENABLE         5
  68:usbhub.h      **** 
  69:usbhub.h      **** // Hub Port Indicator Color
  70:usbhub.h      **** #define HUB_PORT_INDICATOR_AUTO                 0
  71:usbhub.h      **** #define HUB_PORT_INDICATOR_AMBER                1
  72:usbhub.h      **** #define HUB_PORT_INDICATOR_GREEN                2
  73:usbhub.h      **** #define HUB_PORT_INDICATOR_OFF                  3
  74:usbhub.h      **** 
  75:usbhub.h      **** // Hub Port Status Bitmasks
  76:usbhub.h      **** #define bmHUB_PORT_STATUS_PORT_CONNECTION       0x0001
  77:usbhub.h      **** #define bmHUB_PORT_STATUS_PORT_ENABLE           0x0002
  78:usbhub.h      **** #define bmHUB_PORT_STATUS_PORT_SUSPEND          0x0004
  79:usbhub.h      **** #define bmHUB_PORT_STATUS_PORT_OVER_CURRENT     0x0008
  80:usbhub.h      **** #define bmHUB_PORT_STATUS_PORT_RESET            0x0010
  81:usbhub.h      **** #define bmHUB_PORT_STATUS_PORT_POWER            0x0100
  82:usbhub.h      **** #define bmHUB_PORT_STATUS_PORT_LOW_SPEED        0x0200
  83:usbhub.h      **** #define bmHUB_PORT_STATUS_PORT_HIGH_SPEED       0x0400
  84:usbhub.h      **** #define bmHUB_PORT_STATUS_PORT_TEST             0x0800
  85:usbhub.h      **** #define bmHUB_PORT_STATUS_PORT_INDICATOR        0x1000
  86:usbhub.h      **** 
  87:usbhub.h      **** // Hub Port Status Change Bitmasks (used one byte instead of two)
  88:usbhub.h      **** #define bmHUB_PORT_STATUS_C_PORT_CONNECTION     0x0001
  89:usbhub.h      **** #define bmHUB_PORT_STATUS_C_PORT_ENABLE         0x0002
  90:usbhub.h      **** #define bmHUB_PORT_STATUS_C_PORT_SUSPEND        0x0004
  91:usbhub.h      **** #define bmHUB_PORT_STATUS_C_PORT_OVER_CURRENT   0x0008
  92:usbhub.h      **** #define bmHUB_PORT_STATUS_C_PORT_RESET          0x0010
  93:usbhub.h      **** 
  94:usbhub.h      **** // Hub Status Bitmasks (used one byte instead of two)
  95:usbhub.h      **** #define bmHUB_STATUS_LOCAL_POWER_SOURCE         0x01
  96:usbhub.h      **** #define bmHUB_STATUS_OVER_CURRENT               0x12
  97:usbhub.h      **** 
  98:usbhub.h      **** // Hub Status Change Bitmasks (used one byte instead of two)
  99:usbhub.h      **** #define bmHUB_STATUS_C_LOCAL_POWER_SOURCE       0x01
 100:usbhub.h      **** #define bmHUB_STATUS_C_OVER_CURRENT             0x12
 101:usbhub.h      **** 
ARM GAS  C:\Users\jrdia\AppData\Local\Temp\ccJ9Fnzg.s 			page 10


 102:usbhub.h      **** 
 103:usbhub.h      **** // Hub Port Configuring Substates
 104:usbhub.h      **** #define USB_STATE_HUB_PORT_CONFIGURING          0xb0
 105:usbhub.h      **** #define USB_STATE_HUB_PORT_POWERED_OFF          0xb1
 106:usbhub.h      **** #define USB_STATE_HUB_PORT_WAIT_FOR_POWER_GOOD  0xb2
 107:usbhub.h      **** #define USB_STATE_HUB_PORT_DISCONNECTED         0xb3
 108:usbhub.h      **** #define USB_STATE_HUB_PORT_DISABLED             0xb4
 109:usbhub.h      **** #define USB_STATE_HUB_PORT_RESETTING            0xb5
 110:usbhub.h      **** #define USB_STATE_HUB_PORT_ENABLED              0xb6
 111:usbhub.h      **** 
 112:usbhub.h      **** // Additional Error Codes
 113:usbhub.h      **** #define HUB_ERROR_PORT_HAS_BEEN_RESET           0xb1
 114:usbhub.h      **** 
 115:usbhub.h      **** // The bit mask to check for all necessary state bits
 116:usbhub.h      **** #define bmHUB_PORT_STATUS_ALL_MAIN              ((0UL | bmHUB_PORT_STATUS_C_PORT_CONNECTION | bmHUB
 117:usbhub.h      **** 
 118:usbhub.h      **** // Bit mask to check for DISABLED state in HubEvent::bmStatus field
 119:usbhub.h      **** #define bmHUB_PORT_STATE_CHECK_DISABLED         (0x0000 | bmHUB_PORT_STATUS_PORT_POWER | bmHUB_PORT
 120:usbhub.h      **** 
 121:usbhub.h      **** // Hub Port States
 122:usbhub.h      **** #define bmHUB_PORT_STATE_DISABLED               (0x0000 | bmHUB_PORT_STATUS_PORT_POWER | bmHUB_PORT
 123:usbhub.h      **** 
 124:usbhub.h      **** // Hub Port Events
 125:usbhub.h      **** #define bmHUB_PORT_EVENT_CONNECT                (((0UL | bmHUB_PORT_STATUS_C_PORT_CONNECTION) << 16
 126:usbhub.h      **** #define bmHUB_PORT_EVENT_DISCONNECT             (((0UL | bmHUB_PORT_STATUS_C_PORT_CONNECTION) << 16
 127:usbhub.h      **** #define bmHUB_PORT_EVENT_RESET_COMPLETE         (((0UL | bmHUB_PORT_STATUS_C_PORT_RESET) << 16) | b
 128:usbhub.h      **** 
 129:usbhub.h      **** #define bmHUB_PORT_EVENT_LS_CONNECT             (((0UL | bmHUB_PORT_STATUS_C_PORT_CONNECTION) << 16
 130:usbhub.h      **** #define bmHUB_PORT_EVENT_LS_RESET_COMPLETE      (((0UL | bmHUB_PORT_STATUS_C_PORT_RESET) << 16) | b
 131:usbhub.h      **** #define bmHUB_PORT_EVENT_LS_PORT_ENABLED        (((0UL | bmHUB_PORT_STATUS_C_PORT_CONNECTION | bmHU
 132:usbhub.h      **** 
 133:usbhub.h      **** struct HubDescriptor {
 134:usbhub.h      ****         uint8_t bDescLength; // descriptor length
 135:usbhub.h      ****         uint8_t bDescriptorType; // descriptor type
 136:usbhub.h      ****         uint8_t bNbrPorts; // number of ports a hub equiped with
 137:usbhub.h      **** 
 138:usbhub.h      ****         struct {
 139:usbhub.h      ****                 uint16_t LogPwrSwitchMode : 2;
 140:usbhub.h      ****                 uint16_t CompoundDevice : 1;
 141:usbhub.h      ****                 uint16_t OverCurrentProtectMode : 2;
 142:usbhub.h      ****                 uint16_t TTThinkTime : 2;
 143:usbhub.h      ****                 uint16_t PortIndicatorsSupported : 1;
 144:usbhub.h      ****                 uint16_t Reserved : 8;
 145:usbhub.h      ****         } __attribute__((packed));
 146:usbhub.h      **** 
 147:usbhub.h      ****         uint8_t bPwrOn2PwrGood;
 148:usbhub.h      ****         uint8_t bHubContrCurrent;
 149:usbhub.h      **** } __attribute__((packed));
 150:usbhub.h      **** 
 151:usbhub.h      **** struct HubEvent {
 152:usbhub.h      **** 
 153:usbhub.h      ****         union {
 154:usbhub.h      **** 
 155:usbhub.h      ****                 struct {
 156:usbhub.h      ****                         uint16_t bmStatus; // port status bits
 157:usbhub.h      ****                         uint16_t bmChange; // port status change bits
 158:usbhub.h      ****                 } __attribute__((packed));
ARM GAS  C:\Users\jrdia\AppData\Local\Temp\ccJ9Fnzg.s 			page 11


 159:usbhub.h      ****                 uint32_t bmEvent;
 160:usbhub.h      ****                 uint8_t evtBuff[4];
 161:usbhub.h      ****         };
 162:usbhub.h      **** } __attribute__((packed));
 163:usbhub.h      **** 
 164:usbhub.h      **** class USBHub : USBDeviceConfig {
 165:usbhub.h      ****         static bool bResetInitiated; // True when reset is triggered
 166:usbhub.h      **** 
 167:usbhub.h      ****         USB *pUsb; // USB class instance pointer
 168:usbhub.h      **** 
 169:usbhub.h      ****         EpInfo epInfo[2]; // interrupt endpoint info structure
 170:usbhub.h      **** 
 171:usbhub.h      ****         uint8_t bAddress; // address
 172:usbhub.h      ****         uint8_t bNbrPorts; // number of ports
 173:usbhub.h      ****         //        uint8_t bInitState; // initialization state variable
 174:usbhub.h      ****         uint32_t qNextPollTime; // next poll time
 175:usbhub.h      ****         bool bPollEnable; // poll enable flag
 176:usbhub.h      **** 
 177:usbhub.h      ****         uint8_t CheckHubStatus();
 178:usbhub.h      ****         uint8_t PortStatusChange(uint8_t port, HubEvent &evt);
 179:usbhub.h      **** 
 180:usbhub.h      **** public:
 181:usbhub.h      ****         USBHub(USB *p);
 182:usbhub.h      **** 
 183:usbhub.h      ****         uint8_t ClearHubFeature(uint8_t fid);
 184:usbhub.h      ****         uint8_t ClearPortFeature(uint8_t fid, uint8_t port, uint8_t sel = 0);
 185:usbhub.h      ****         uint8_t GetHubDescriptor(uint8_t index, uint16_t nbytes, uint8_t *dataptr);
 186:usbhub.h      ****         uint8_t GetHubStatus(uint16_t nbytes, uint8_t* dataptr);
 187:usbhub.h      ****         uint8_t GetPortStatus(uint8_t port, uint16_t nbytes, uint8_t* dataptr);
 188:usbhub.h      ****         uint8_t SetHubDescriptor(uint8_t port, uint16_t nbytes, uint8_t* dataptr);
 189:usbhub.h      ****         uint8_t SetHubFeature(uint8_t fid);
 190:usbhub.h      ****         uint8_t SetPortFeature(uint8_t fid, uint8_t port, uint8_t sel = 0);
 191:usbhub.h      **** 
 192:usbhub.h      ****         void PrintHubStatus();
 193:usbhub.h      **** 
 194:usbhub.h      ****         uint8_t Init(uint8_t parent, uint8_t port, bool lowspeed);
 195:usbhub.h      ****         uint8_t Release();
 196:usbhub.h      ****         uint8_t Poll();
 197:usbhub.h      ****         void ResetHubPort(uint8_t port);
 198:usbhub.h      **** 
 199:usbhub.h      ****         virtual uint8_t GetAddress() {
 253              		.loc 2 199 0
 254              		.cfi_startproc
 255              		@ args = 0, pretend = 0, frame = 0
 256              		@ frame_needed = 0, uses_anonymous_args = 0
 257              		@ link register save eliminated.
 258              	.LVL17:
 200:usbhub.h      ****                 return bAddress;
 259              		.loc 2 200 0
 260 0000 807B     		ldrb	r0, [r0, #14]
 261              	.LVL18:
 201:usbhub.h      ****         };
 262              		.loc 2 201 0
 263              		@ sp needed
 264 0002 7047     		bx	lr
 265              		.cfi_endproc
 266              	.LFE213:
ARM GAS  C:\Users\jrdia\AppData\Local\Temp\ccJ9Fnzg.s 			page 12


 267              		.cantunwind
 268              		.fnend
 269              		.size	_ZN6USBHub10GetAddressEv, .-_ZN6USBHub10GetAddressEv
 270              		.section	.text._ZN6USBHub10DEVCLASSOKEh,"axG",%progbits,_ZN6USBHub10DEVCLASSOKEh,comdat
 271              		.align	2
 272              		.weak	_ZN6USBHub10DEVCLASSOKEh
 273              		.code	16
 274              		.thumb_func
 275              		.type	_ZN6USBHub10DEVCLASSOKEh, %function
 276              	_ZN6USBHub10DEVCLASSOKEh:
 277              		.fnstart
 278              	.LFB214:
 202:usbhub.h      **** 
 203:usbhub.h      ****         virtual bool DEVCLASSOK(uint8_t klass) {
 279              		.loc 2 203 0
 280              		.cfi_startproc
 281              		@ args = 0, pretend = 0, frame = 0
 282              		@ frame_needed = 0, uses_anonymous_args = 0
 283              		@ link register save eliminated.
 284              	.LVL19:
 204:usbhub.h      ****                 return (klass == 0x09);
 285              		.loc 2 204 0
 286 0000 0939     		subs	r1, r1, #9
 287              	.LVL20:
 288 0002 4842     		rsbs	r0, r1, #0
 289 0004 4841     		adcs	r0, r0, r1
 290              	.LVL21:
 205:usbhub.h      ****         }
 291              		.loc 2 205 0
 292              		@ sp needed
 204:usbhub.h      ****                 return (klass == 0x09);
 293              		.loc 2 204 0
 294 0006 C0B2     		uxtb	r0, r0
 295              		.loc 2 205 0
 296 0008 7047     		bx	lr
 297              		.cfi_endproc
 298              	.LFE214:
 299              		.cantunwind
 300              		.fnend
 301              		.size	_ZN6USBHub10DEVCLASSOKEh, .-_ZN6USBHub10DEVCLASSOKEh
 302 000a C046     		.section	.text._ZN6USBHub7ReleaseEv,"ax",%progbits
 303              		.align	2
 304              		.global	_ZN6USBHub7ReleaseEv
 305              		.code	16
 306              		.thumb_func
 307              		.type	_ZN6USBHub7ReleaseEv, %function
 308              	_ZN6USBHub7ReleaseEv:
 309              		.fnstart
 310              	.LFB230:
 311              		.file 3 "usbhub.c"
   1:usbhub.c      **** /* Copyright (C) 2011 Circuits At Home, LTD. All rights reserved.
   2:usbhub.c      **** 
   3:usbhub.c      **** This software may be distributed and modified under the terms of the GNU
   4:usbhub.c      **** General Public License version 2 (GPL2) as published by the Free Software
   5:usbhub.c      **** Foundation and appearing in the file GPL2.TXT included in the packaging of
   6:usbhub.c      **** this file. Please note that GPL2 Section 2[b] requires that all works based
   7:usbhub.c      **** on this software must also be made publicly available under the terms of
ARM GAS  C:\Users\jrdia\AppData\Local\Temp\ccJ9Fnzg.s 			page 13


   8:usbhub.c      **** the GPL2 ("Copyleft").
   9:usbhub.c      **** 
  10:usbhub.c      **** Contact information
  11:usbhub.c      **** -------------------
  12:usbhub.c      **** 
  13:usbhub.c      **** Circuits At Home, LTD
  14:usbhub.c      **** Web      :  http://www.circuitsathome.com
  15:usbhub.c      **** e-mail   :  support@circuitsathome.com
  16:usbhub.c      ****  */
  17:usbhub.c      **** #include "usbhub.h"
  18:usbhub.c      **** 
  19:usbhub.c      **** bool USBHub::bResetInitiated = false;
  20:usbhub.c      **** 
  21:usbhub.c      **** USBHub::USBHub(USB *p) :
  22:usbhub.c      **** pUsb(p),
  23:usbhub.c      **** bAddress(0),
  24:usbhub.c      **** bNbrPorts(0),
  25:usbhub.c      **** //bInitState(0),
  26:usbhub.c      **** qNextPollTime(0),
  27:usbhub.c      **** bPollEnable(false) {
  28:usbhub.c      ****         epInfo[0].epAddr = 0;
  29:usbhub.c      ****         epInfo[0].maxPktSize = 8;
  30:usbhub.c      ****         epInfo[0].bmSndToggle = 0;
  31:usbhub.c      ****         epInfo[0].bmRcvToggle = 0;
  32:usbhub.c      ****         epInfo[0].bmNakPower = USB_NAK_MAX_POWER;
  33:usbhub.c      **** 
  34:usbhub.c      ****         epInfo[1].epAddr = 1;
  35:usbhub.c      ****         epInfo[1].maxPktSize = 8; //kludge
  36:usbhub.c      ****         epInfo[1].bmSndToggle = 0;
  37:usbhub.c      ****         epInfo[1].bmRcvToggle = 0;
  38:usbhub.c      ****         epInfo[1].bmNakPower = USB_NAK_NOWAIT;
  39:usbhub.c      **** 
  40:usbhub.c      ****         if(pUsb)
  41:usbhub.c      ****                 pUsb->RegisterDeviceClass(this);
  42:usbhub.c      **** }
  43:usbhub.c      **** 
  44:usbhub.c      **** uint8_t USBHub::Init(uint8_t parent, uint8_t port, bool lowspeed) {
  45:usbhub.c      ****         uint8_t buf[32];
  46:usbhub.c      ****         USB_DEVICE_DESCRIPTOR * udd = reinterpret_cast<USB_DEVICE_DESCRIPTOR*>(buf);
  47:usbhub.c      ****         HubDescriptor* hd = reinterpret_cast<HubDescriptor*>(buf);
  48:usbhub.c      ****         USB_CONFIGURATION_DESCRIPTOR * ucd = reinterpret_cast<USB_CONFIGURATION_DESCRIPTOR*>(buf);
  49:usbhub.c      ****         uint8_t rcode;
  50:usbhub.c      ****         UsbDevice *p = NULL;
  51:usbhub.c      ****         EpInfo *oldep_ptr = NULL;
  52:usbhub.c      ****         uint8_t len = 0;
  53:usbhub.c      ****         uint16_t cd_len = 0;
  54:usbhub.c      **** 
  55:usbhub.c      ****         //USBTRACE("\r\nHub Init Start ");
  56:usbhub.c      ****         //D_PrintHex<uint8_t > (bInitState, 0x80);
  57:usbhub.c      **** 
  58:usbhub.c      ****         AddressPool &addrPool = pUsb->GetAddressPool();
  59:usbhub.c      **** 
  60:usbhub.c      ****         //switch (bInitState) {
  61:usbhub.c      ****         //        case 0:
  62:usbhub.c      ****         if(bAddress)
  63:usbhub.c      ****                 return USB_ERROR_CLASS_INSTANCE_ALREADY_IN_USE;
  64:usbhub.c      **** 
ARM GAS  C:\Users\jrdia\AppData\Local\Temp\ccJ9Fnzg.s 			page 14


  65:usbhub.c      ****         // Get pointer to pseudo device with address 0 assigned
  66:usbhub.c      ****         p = addrPool.GetUsbDevicePtr(0);
  67:usbhub.c      **** 
  68:usbhub.c      ****         if(!p)
  69:usbhub.c      ****                 return USB_ERROR_ADDRESS_NOT_FOUND_IN_POOL;
  70:usbhub.c      **** 
  71:usbhub.c      ****         if(!p->epinfo)
  72:usbhub.c      ****                 return USB_ERROR_EPINFO_IS_NULL;
  73:usbhub.c      **** 
  74:usbhub.c      ****         // Save old pointer to EP_RECORD of address 0
  75:usbhub.c      ****         oldep_ptr = p->epinfo;
  76:usbhub.c      **** 
  77:usbhub.c      ****         // Temporary assign new pointer to epInfo to p->epinfo in order to avoid toggle inconsisten
  78:usbhub.c      ****         p->epinfo = epInfo;
  79:usbhub.c      **** 
  80:usbhub.c      ****         p->lowspeed = lowspeed;
  81:usbhub.c      **** 
  82:usbhub.c      ****         // Get device descriptor
  83:usbhub.c      ****         rcode = pUsb->getDevDescr(0, 0, 8, (uint8_t*)buf);
  84:usbhub.c      **** 
  85:usbhub.c      ****         p->lowspeed = false;
  86:usbhub.c      **** 
  87:usbhub.c      ****         if(!rcode)
  88:usbhub.c      ****                 len = (buf[0] > 32) ? 32 : buf[0];
  89:usbhub.c      **** 
  90:usbhub.c      ****         if(rcode) {
  91:usbhub.c      ****                 // Restore p->epinfo
  92:usbhub.c      ****                 p->epinfo = oldep_ptr;
  93:usbhub.c      ****                 return rcode;
  94:usbhub.c      ****         }
  95:usbhub.c      **** 
  96:usbhub.c      ****         // Extract device class from device descriptor
  97:usbhub.c      ****         // If device class is not a hub return
  98:usbhub.c      ****         if(udd->bDeviceClass != 0x09)
  99:usbhub.c      ****                 return USB_DEV_CONFIG_ERROR_DEVICE_NOT_SUPPORTED;
 100:usbhub.c      **** 
 101:usbhub.c      ****         // Allocate new address according to device class
 102:usbhub.c      ****         bAddress = addrPool.AllocAddress(parent, (udd->bDeviceClass == 0x09) ? true : false, port);
 103:usbhub.c      **** 
 104:usbhub.c      ****         if(!bAddress)
 105:usbhub.c      ****                 return USB_ERROR_OUT_OF_ADDRESS_SPACE_IN_POOL;
 106:usbhub.c      **** 
 107:usbhub.c      ****         // Extract Max Packet Size from the device descriptor
 108:usbhub.c      ****         epInfo[0].maxPktSize = udd->bMaxPacketSize0;
 109:usbhub.c      **** 
 110:usbhub.c      ****         // Assign new address to the device
 111:usbhub.c      ****         rcode = pUsb->setAddr(0, 0, bAddress);
 112:usbhub.c      **** 
 113:usbhub.c      ****         if(rcode) {
 114:usbhub.c      ****                 // Restore p->epinfo
 115:usbhub.c      ****                 p->epinfo = oldep_ptr;
 116:usbhub.c      ****                 addrPool.FreeAddress(bAddress);
 117:usbhub.c      ****                 bAddress = 0;
 118:usbhub.c      ****                 return rcode;
 119:usbhub.c      ****         }
 120:usbhub.c      **** 
 121:usbhub.c      ****         //USBTRACE2("\r\nHub address: ", bAddress );
ARM GAS  C:\Users\jrdia\AppData\Local\Temp\ccJ9Fnzg.s 			page 15


 122:usbhub.c      **** 
 123:usbhub.c      ****         // Restore p->epinfo
 124:usbhub.c      ****         p->epinfo = oldep_ptr;
 125:usbhub.c      **** 
 126:usbhub.c      ****         if(len)
 127:usbhub.c      ****                 rcode = pUsb->getDevDescr(bAddress, 0, len, (uint8_t*)buf);
 128:usbhub.c      **** 
 129:usbhub.c      ****         if(rcode)
 130:usbhub.c      ****                 goto FailGetDevDescr;
 131:usbhub.c      **** 
 132:usbhub.c      ****         // Assign epInfo to epinfo pointer
 133:usbhub.c      ****         rcode = pUsb->setEpInfoEntry(bAddress, 2, epInfo);
 134:usbhub.c      **** 
 135:usbhub.c      ****         if(rcode)
 136:usbhub.c      ****                 goto FailSetDevTblEntry;
 137:usbhub.c      **** 
 138:usbhub.c      ****         //                bInitState = 1;
 139:usbhub.c      **** 
 140:usbhub.c      ****         //        case 1:
 141:usbhub.c      ****         // Get hub descriptor
 142:usbhub.c      ****         rcode = GetHubDescriptor(0, 8, buf);
 143:usbhub.c      **** 
 144:usbhub.c      ****         if(rcode)
 145:usbhub.c      ****                 goto FailGetHubDescr;
 146:usbhub.c      **** 
 147:usbhub.c      ****         // Save number of ports for future use
 148:usbhub.c      ****         bNbrPorts = hd->bNbrPorts;
 149:usbhub.c      **** 
 150:usbhub.c      ****         //                bInitState = 2;
 151:usbhub.c      **** 
 152:usbhub.c      ****         //        case 2:
 153:usbhub.c      ****         // Read configuration Descriptor in Order To Obtain Proper Configuration Value
 154:usbhub.c      ****         rcode = pUsb->getConfDescr(bAddress, 0, 8, 0, buf);
 155:usbhub.c      **** 
 156:usbhub.c      ****         if(!rcode) {
 157:usbhub.c      ****                 cd_len = ucd->wTotalLength;
 158:usbhub.c      ****                 rcode = pUsb->getConfDescr(bAddress, 0, cd_len, 0, buf);
 159:usbhub.c      ****         }
 160:usbhub.c      ****         if(rcode)
 161:usbhub.c      ****                 goto FailGetConfDescr;
 162:usbhub.c      **** 
 163:usbhub.c      ****         // The following code is of no practical use in real life applications.
 164:usbhub.c      ****         // It only intended for the usb protocol sniffer to properly parse hub-class requests.
 165:usbhub.c      ****         {
 166:usbhub.c      ****                 uint8_t buf2[24];
 167:usbhub.c      **** 
 168:usbhub.c      ****                 rcode = pUsb->getConfDescr(bAddress, 0, buf[0], 0, buf2);
 169:usbhub.c      **** 
 170:usbhub.c      ****                 if(rcode)
 171:usbhub.c      ****                         goto FailGetConfDescr;
 172:usbhub.c      ****         }
 173:usbhub.c      **** 
 174:usbhub.c      ****         // Set Configuration Value
 175:usbhub.c      ****         rcode = pUsb->setConf(bAddress, 0, buf[5]);
 176:usbhub.c      **** 
 177:usbhub.c      ****         if(rcode)
 178:usbhub.c      ****                 goto FailSetConfDescr;
ARM GAS  C:\Users\jrdia\AppData\Local\Temp\ccJ9Fnzg.s 			page 16


 179:usbhub.c      **** 
 180:usbhub.c      ****         //                bInitState = 3;
 181:usbhub.c      **** 
 182:usbhub.c      ****         //        case 3:
 183:usbhub.c      ****         // Power on all ports
 184:usbhub.c      ****         for(uint8_t j = 1; j <= bNbrPorts; j++)
 185:usbhub.c      ****                 SetPortFeature(HUB_FEATURE_PORT_POWER, j, 0); //HubPortPowerOn(j);
 186:usbhub.c      **** 
 187:usbhub.c      ****         pUsb->SetHubPreMask();
 188:usbhub.c      ****         bPollEnable = true;
 189:usbhub.c      ****         //                bInitState = 0;
 190:usbhub.c      ****         //}
 191:usbhub.c      ****         //bInitState = 0;
 192:usbhub.c      ****         //USBTRACE("...OK\r\n");
 193:usbhub.c      ****         return 0;
 194:usbhub.c      **** 
 195:usbhub.c      ****         // Oleg, No debugging?? -- xxxajk
 196:usbhub.c      **** FailGetDevDescr:
 197:usbhub.c      ****         goto Fail;
 198:usbhub.c      **** 
 199:usbhub.c      **** FailSetDevTblEntry:
 200:usbhub.c      ****         goto Fail;
 201:usbhub.c      **** 
 202:usbhub.c      **** FailGetHubDescr:
 203:usbhub.c      ****         goto Fail;
 204:usbhub.c      **** 
 205:usbhub.c      **** FailGetConfDescr:
 206:usbhub.c      ****         goto Fail;
 207:usbhub.c      **** 
 208:usbhub.c      **** FailSetConfDescr:
 209:usbhub.c      ****         goto Fail;
 210:usbhub.c      **** 
 211:usbhub.c      **** Fail:
 212:usbhub.c      ****         USBTRACE("...FAIL\r\n");
 213:usbhub.c      ****         return rcode;
 214:usbhub.c      **** }
 215:usbhub.c      **** 
 216:usbhub.c      **** uint8_t USBHub::Release() {
 312              		.loc 3 216 0
 313              		.cfi_startproc
 314              		@ args = 0, pretend = 0, frame = 0
 315              		@ frame_needed = 0, uses_anonymous_args = 0
 316              	.LVL22:
 317 0000 10B5     		push	{r4, lr}
 318              		.save {r4, lr}
 319              		.cfi_def_cfa_offset 8
 320              		.cfi_offset 4, -8
 321              		.cfi_offset 14, -4
 322              		.loc 3 216 0
 323 0002 0400     		movs	r4, r0
 217:usbhub.c      ****         pUsb->GetAddressPool().FreeAddress(bAddress);
 324              		.loc 3 217 0
 325 0004 4068     		ldr	r0, [r0, #4]
 326              	.LVL23:
 327 0006 A17B     		ldrb	r1, [r4, #14]
 328 0008 0368     		ldr	r3, [r0]
 329 000a 9B68     		ldr	r3, [r3, #8]
ARM GAS  C:\Users\jrdia\AppData\Local\Temp\ccJ9Fnzg.s 			page 17


 330 000c 9847     		blx	r3
 331              	.LVL24:
 218:usbhub.c      **** 
 219:usbhub.c      ****         if(bAddress == 0x41)
 332              		.loc 3 219 0
 333 000e A37B     		ldrb	r3, [r4, #14]
 334 0010 412B     		cmp	r3, #65
 335 0012 05D1     		bne	.L13
 336              	.LBB33:
 337              	.LBB34:
 161:UsbCore.h     **** 
 162:UsbCore.h     **** };
 163:UsbCore.h     **** 
 164:UsbCore.h     **** /* USB Setup Packet Structure   */
 165:UsbCore.h     **** typedef struct {
 166:UsbCore.h     **** 
 167:UsbCore.h     ****         union { // offset   description
 168:UsbCore.h     ****                 uint8_t bmRequestType; //   0      Bit-map of request type
 169:UsbCore.h     **** 
 170:UsbCore.h     ****                 struct {
 171:UsbCore.h     ****                         uint8_t recipient : 5; //          Recipient of the request
 172:UsbCore.h     ****                         uint8_t type : 2; //          Type of request
 173:UsbCore.h     ****                         uint8_t direction : 1; //          Direction of data X-fer
 174:UsbCore.h     ****                 } __attribute__((packed));
 175:UsbCore.h     ****         } ReqType_u;
 176:UsbCore.h     ****         uint8_t bRequest; //   1      Request
 177:UsbCore.h     **** 
 178:UsbCore.h     ****         union {
 179:UsbCore.h     ****                 uint16_t wValue; //   2      Depends on bRequest
 180:UsbCore.h     **** 
 181:UsbCore.h     ****                 struct {
 182:UsbCore.h     ****                         uint8_t wValueLo;
 183:UsbCore.h     ****                         uint8_t wValueHi;
 184:UsbCore.h     ****                 } __attribute__((packed));
 185:UsbCore.h     ****         } wVal_u;
 186:UsbCore.h     ****         uint16_t wIndex; //   4      Depends on bRequest
 187:UsbCore.h     ****         uint16_t wLength; //   6      Depends on bRequest
 188:UsbCore.h     **** } __attribute__((packed)) SETUP_PKT, *PSETUP_PKT;
 189:UsbCore.h     **** 
 190:UsbCore.h     **** 
 191:UsbCore.h     **** 
 192:UsbCore.h     **** // Base class for incoming data parser
 193:UsbCore.h     **** 
 194:UsbCore.h     **** class USBReadParser {
 195:UsbCore.h     **** public:
 196:UsbCore.h     ****         virtual void Parse(const uint16_t len, const uint8_t *pbuf, const uint16_t &offset) = 0;
 197:UsbCore.h     **** };
 198:UsbCore.h     **** 
 199:UsbCore.h     **** class USB : public MAX3421E {
 200:UsbCore.h     ****         AddressPoolImpl<USB_NUMDEVICES> addrPool;
 201:UsbCore.h     ****         USBDeviceConfig* devConfig[USB_NUMDEVICES];
 202:UsbCore.h     ****         uint8_t bmHubPre;
 203:UsbCore.h     **** 
 204:UsbCore.h     **** public:
 205:UsbCore.h     ****         USB(void);
 206:UsbCore.h     **** 
 207:UsbCore.h     ****         void SetHubPreMask() {
ARM GAS  C:\Users\jrdia\AppData\Local\Temp\ccJ9Fnzg.s 			page 18


 208:UsbCore.h     ****                 bmHubPre |= bmHUBPRE;
 338              		.loc 1 208 0
 339 0014 B822     		movs	r2, #184
 340 0016 0423     		movs	r3, #4
 341              	.LBE34:
 342              	.LBE33:
 220:usbhub.c      ****                 pUsb->SetHubPreMask();
 343              		.loc 3 220 0
 344 0018 6168     		ldr	r1, [r4, #4]
 345              	.LVL25:
 346              	.LBB36:
 347              	.LBB35:
 348              		.loc 1 208 0
 349 001a 885C     		ldrb	r0, [r1, r2]
 350 001c 0343     		orrs	r3, r0
 351 001e 8B54     		strb	r3, [r1, r2]
 352              	.LVL26:
 353              	.L13:
 354              	.LBE35:
 355              	.LBE36:
 221:usbhub.c      **** 
 222:usbhub.c      ****         bAddress = 0;
 356              		.loc 3 222 0
 357 0020 0023     		movs	r3, #0
 223:usbhub.c      ****         bNbrPorts = 0;
 224:usbhub.c      ****         qNextPollTime = 0;
 225:usbhub.c      ****         bPollEnable = false;
 226:usbhub.c      ****         return 0;
 227:usbhub.c      **** }
 358              		.loc 3 227 0
 359 0022 0020     		movs	r0, #0
 222:usbhub.c      ****         bNbrPorts = 0;
 360              		.loc 3 222 0
 361 0024 A373     		strb	r3, [r4, #14]
 223:usbhub.c      ****         bNbrPorts = 0;
 362              		.loc 3 223 0
 363 0026 E373     		strb	r3, [r4, #15]
 224:usbhub.c      ****         bPollEnable = false;
 364              		.loc 3 224 0
 365 0028 2361     		str	r3, [r4, #16]
 225:usbhub.c      ****         return 0;
 366              		.loc 3 225 0
 367 002a 2375     		strb	r3, [r4, #20]
 368              		.loc 3 227 0
 369              		@ sp needed
 370              	.LVL27:
 371 002c 10BD     		pop	{r4, pc}
 372              		.cfi_endproc
 373              	.LFE230:
 374              		.fnend
 375              		.size	_ZN6USBHub7ReleaseEv, .-_ZN6USBHub7ReleaseEv
 376 002e C046     		.section	.text._ZN6USBHub4InitEhhb,"ax",%progbits
 377              		.align	2
 378              		.global	_ZN6USBHub4InitEhhb
 379              		.code	16
 380              		.thumb_func
 381              		.type	_ZN6USBHub4InitEhhb, %function
ARM GAS  C:\Users\jrdia\AppData\Local\Temp\ccJ9Fnzg.s 			page 19


 382              	_ZN6USBHub4InitEhhb:
 383              		.fnstart
 384              	.LFB229:
  44:usbhub.c      ****         uint8_t buf[32];
 385              		.loc 3 44 0
 386              		.cfi_startproc
 387              		@ args = 0, pretend = 0, frame = 64
 388              		@ frame_needed = 0, uses_anonymous_args = 0
 389              	.LVL28:
 390 0000 F0B5     		push	{r4, r5, r6, r7, lr}
 391              		.save {r4, r5, r6, r7, lr}
 392              		.cfi_def_cfa_offset 20
 393              		.cfi_offset 4, -20
 394              		.cfi_offset 5, -16
 395              		.cfi_offset 6, -12
 396              		.cfi_offset 7, -8
 397              		.cfi_offset 14, -4
 398 0002 5646     		mov	r6, r10
 399 0004 4D46     		mov	r5, r9
 400 0006 4446     		mov	r4, r8
 401 0008 5F46     		mov	r7, fp
 402 000a F0B4     		push	{r4, r5, r6, r7}
 403              		.save {r8, r9, r10, fp}
 404              		.cfi_def_cfa_offset 36
 405              		.cfi_offset 8, -36
 406              		.cfi_offset 9, -32
 407              		.cfi_offset 10, -28
 408              		.cfi_offset 11, -24
  62:usbhub.c      ****                 return USB_ERROR_CLASS_INSTANCE_ALREADY_IN_USE;
 409              		.loc 3 62 0
 410 000c 867B     		ldrb	r6, [r0, #14]
  44:usbhub.c      ****         uint8_t buf[32];
 411              		.loc 3 44 0
 412              		.pad #100
 413 000e 99B0     		sub	sp, sp, #100
 414              		.cfi_def_cfa_offset 136
 415              	.LVL29:
  44:usbhub.c      ****         uint8_t buf[32];
 416              		.loc 3 44 0
 417 0010 0400     		movs	r4, r0
 418 0012 8946     		mov	r9, r1
 419 0014 9246     		mov	r10, r2
 420 0016 9846     		mov	r8, r3
  63:usbhub.c      **** 
 421              		.loc 3 63 0
 422 0018 D925     		movs	r5, #217
  62:usbhub.c      ****                 return USB_ERROR_CLASS_INSTANCE_ALREADY_IN_USE;
 423              		.loc 3 62 0
 424 001a 002E     		cmp	r6, #0
 425 001c 07D0     		beq	.L41
 426              	.LVL30:
 427              	.L36:
 214:usbhub.c      **** 
 428              		.loc 3 214 0
 429 001e 2800     		movs	r0, r5
 430 0020 19B0     		add	sp, sp, #100
 431              		@ sp needed
ARM GAS  C:\Users\jrdia\AppData\Local\Temp\ccJ9Fnzg.s 			page 20


 432              	.LVL31:
 433 0022 3CBC     		pop	{r2, r3, r4, r5}
 434 0024 9046     		mov	r8, r2
 435 0026 9946     		mov	r9, r3
 436 0028 A246     		mov	r10, r4
 437 002a AB46     		mov	fp, r5
 438 002c F0BD     		pop	{r4, r5, r6, r7, pc}
 439              	.LVL32:
 440              	.L41:
  58:usbhub.c      **** 
 441              		.loc 3 58 0
 442 002e 4368     		ldr	r3, [r0, #4]
 443              	.LVL33:
  66:usbhub.c      **** 
 444              		.loc 3 66 0
 445 0030 0021     		movs	r1, #0
 446              	.LVL34:
  58:usbhub.c      **** 
 447              		.loc 3 58 0
 448 0032 9B46     		mov	fp, r3
  66:usbhub.c      **** 
 449              		.loc 3 66 0
 450 0034 1B68     		ldr	r3, [r3]
 451 0036 5846     		mov	r0, fp
 452              	.LVL35:
 453 0038 1B68     		ldr	r3, [r3]
 454 003a 9847     		blx	r3
 455              	.LVL36:
 456 003c 071E     		subs	r7, r0, #0
 457              	.LVL37:
  68:usbhub.c      ****                 return USB_ERROR_ADDRESS_NOT_FOUND_IN_POOL;
 458              		.loc 3 68 0
 459 003e 00D1     		bne	.LCB312
 460 0040 95E0     		b	.L27	@long jump
 461              	.LCB312:
  71:usbhub.c      ****                 return USB_ERROR_EPINFO_IS_NULL;
 462              		.loc 3 71 0
 463 0042 4378     		ldrb	r3, [r0, #1]
 464 0044 0178     		ldrb	r1, [r0]
 465 0046 1B02     		lsls	r3, r3, #8
 466 0048 0B43     		orrs	r3, r1
 467 004a 1A00     		movs	r2, r3
 468 004c 8378     		ldrb	r3, [r0, #2]
  72:usbhub.c      **** 
 469              		.loc 3 72 0
 470 004e 023D     		subs	r5, r5, #2
  71:usbhub.c      ****                 return USB_ERROR_EPINFO_IS_NULL;
 471              		.loc 3 71 0
 472 0050 1B04     		lsls	r3, r3, #16
 473 0052 1343     		orrs	r3, r2
 474 0054 C278     		ldrb	r2, [r0, #3]
 475 0056 1206     		lsls	r2, r2, #24
 476 0058 1A43     		orrs	r2, r3
 477 005a 0892     		str	r2, [sp, #32]
 478 005c DFD0     		beq	.L36
 479              	.LVL38:
  78:usbhub.c      **** 
ARM GAS  C:\Users\jrdia\AppData\Local\Temp\ccJ9Fnzg.s 			page 21


 480              		.loc 3 78 0
 481 005e 0823     		movs	r3, #8
 482 0060 9C46     		mov	ip, r3
 483 0062 A444     		add	ip, ip, r4
 484 0064 6346     		mov	r3, ip
 485 0066 6246     		mov	r2, ip
 486              	.LVL39:
 487 0068 3B70     		strb	r3, [r7]
 488 006a 0993     		str	r3, [sp, #36]
 489 006c 1B0A     		lsrs	r3, r3, #8
 490 006e 4370     		strb	r3, [r0, #1]
 491 0070 130C     		lsrs	r3, r2, #16
 492 0072 8370     		strb	r3, [r0, #2]
 493 0074 130E     		lsrs	r3, r2, #24
 494 0076 C370     		strb	r3, [r0, #3]
  80:usbhub.c      **** 
 495              		.loc 3 80 0
 496 0078 4346     		mov	r3, r8
 497 007a 8371     		strb	r3, [r0, #6]
  83:usbhub.c      **** 
 498              		.loc 3 83 0
 499 007c 10AB     		add	r3, sp, #64
 500              	.LVL40:
 501 007e 0093     		str	r3, [sp]
 502 0080 0022     		movs	r2, #0
 503 0082 0823     		movs	r3, #8
 504              	.LVL41:
 505 0084 0021     		movs	r1, #0
 506 0086 6068     		ldr	r0, [r4, #4]
 507              	.LVL42:
 508 0088 FFF7FEFF 		bl	_ZN3USB11getDevDescrEhhtPh
 509              	.LVL43:
  85:usbhub.c      **** 
 510              		.loc 3 85 0
 511 008c BE71     		strb	r6, [r7, #6]
  83:usbhub.c      **** 
 512              		.loc 3 83 0
 513 008e 8046     		mov	r8, r0
 514              	.LVL44:
  87:usbhub.c      ****                 len = (buf[0] > 32) ? 32 : buf[0];
 515              		.loc 3 87 0
 516 0090 0028     		cmp	r0, #0
 517 0092 62D1     		bne	.L17
 518              	.LVL45:
  98:usbhub.c      ****                 return USB_DEV_CONFIG_ERROR_DEVICE_NOT_SUPPORTED;
 519              		.loc 3 98 0
 520 0094 3C22     		movs	r2, #60
 521 0096 02AB     		add	r3, sp, #8
 522 0098 9B18     		adds	r3, r3, r2
 523 009a 1B78     		ldrb	r3, [r3]
  99:usbhub.c      **** 
 524              		.loc 3 99 0
 525 009c 063D     		subs	r5, r5, #6
  98:usbhub.c      ****                 return USB_DEV_CONFIG_ERROR_DEVICE_NOT_SUPPORTED;
 526              		.loc 3 98 0
 527 009e 092B     		cmp	r3, #9
 528 00a0 BDD1     		bne	.L36
ARM GAS  C:\Users\jrdia\AppData\Local\Temp\ccJ9Fnzg.s 			page 22


  88:usbhub.c      **** 
 529              		.loc 3 88 0
 530 00a2 043A     		subs	r2, r2, #4
 531 00a4 02AB     		add	r3, sp, #8
 532 00a6 9B18     		adds	r3, r3, r2
 533 00a8 1E78     		ldrb	r6, [r3]
 102:usbhub.c      **** 
 534              		.loc 3 102 0
 535 00aa 5B46     		mov	r3, fp
 536 00ac 1B68     		ldr	r3, [r3]
 537 00ae 373A     		subs	r2, r2, #55
 538 00b0 5D68     		ldr	r5, [r3, #4]
 539 00b2 4946     		mov	r1, r9
 540 00b4 5346     		mov	r3, r10
 541 00b6 5846     		mov	r0, fp
 542              	.LVL46:
 543 00b8 A847     		blx	r5
 544              	.LVL47:
 105:usbhub.c      **** 
 545              		.loc 3 105 0
 546 00ba D425     		movs	r5, #212
 102:usbhub.c      **** 
 547              		.loc 3 102 0
 548 00bc A073     		strb	r0, [r4, #14]
 104:usbhub.c      ****                 return USB_ERROR_OUT_OF_ADDRESS_SPACE_IN_POOL;
 549              		.loc 3 104 0
 550 00be 0028     		cmp	r0, #0
 551 00c0 ADD0     		beq	.L36
 108:usbhub.c      **** 
 552              		.loc 3 108 0
 553 00c2 3F22     		movs	r2, #63
 554 00c4 02AB     		add	r3, sp, #8
 555 00c6 9B18     		adds	r3, r3, r2
 111:usbhub.c      **** 
 556              		.loc 3 111 0
 557 00c8 0022     		movs	r2, #0
 108:usbhub.c      **** 
 558              		.loc 3 108 0
 559 00ca 1B78     		ldrb	r3, [r3]
 111:usbhub.c      **** 
 560              		.loc 3 111 0
 561 00cc 1100     		movs	r1, r2
 108:usbhub.c      **** 
 562              		.loc 3 108 0
 563 00ce 6372     		strb	r3, [r4, #9]
 111:usbhub.c      **** 
 564              		.loc 3 111 0
 565 00d0 0300     		movs	r3, r0
 566 00d2 6068     		ldr	r0, [r4, #4]
 567 00d4 FFF7FEFF 		bl	_ZN3USB7setAddrEhhh
 568              	.LVL48:
 569 00d8 051E     		subs	r5, r0, #0
 570              	.LVL49:
 113:usbhub.c      ****                 // Restore p->epinfo
 571              		.loc 3 113 0
 572 00da 4AD1     		bne	.L42
  88:usbhub.c      **** 
ARM GAS  C:\Users\jrdia\AppData\Local\Temp\ccJ9Fnzg.s 			page 23


 573              		.loc 3 88 0
 574 00dc 331C     		adds	r3, r6, #0
 575 00de 202E     		cmp	r6, #32
 576 00e0 00D9     		bls	.L19
 577 00e2 2023     		movs	r3, #32
 578              	.L19:
 124:usbhub.c      **** 
 579              		.loc 3 124 0
 580 00e4 0899     		ldr	r1, [sp, #32]
  88:usbhub.c      **** 
 581              		.loc 3 88 0
 582 00e6 DBB2     		uxtb	r3, r3
 124:usbhub.c      **** 
 583              		.loc 3 124 0
 584 00e8 0A0A     		lsrs	r2, r1, #8
 585 00ea 7A70     		strb	r2, [r7, #1]
 586 00ec 0A0C     		lsrs	r2, r1, #16
 587 00ee BA70     		strb	r2, [r7, #2]
 588 00f0 0A0E     		lsrs	r2, r1, #24
 589 00f2 3970     		strb	r1, [r7]
 590 00f4 FA70     		strb	r2, [r7, #3]
 126:usbhub.c      ****                 rcode = pUsb->getDevDescr(bAddress, 0, len, (uint8_t*)buf);
 591              		.loc 3 126 0
 592 00f6 002B     		cmp	r3, #0
 593 00f8 4CD1     		bne	.L20
 594              	.LVL50:
 595              	.L22:
 133:usbhub.c      **** 
 596              		.loc 3 133 0
 597 00fa A17B     		ldrb	r1, [r4, #14]
 598 00fc 099B     		ldr	r3, [sp, #36]
 599 00fe 0222     		movs	r2, #2
 600 0100 6068     		ldr	r0, [r4, #4]
 601 0102 FFF7FEFF 		bl	_ZN3USB14setEpInfoEntryEhhP6EpInfo
 602              	.LVL51:
 603 0106 051E     		subs	r5, r0, #0
 604              	.LVL52:
 135:usbhub.c      ****                 goto FailSetDevTblEntry;
 605              		.loc 3 135 0
 606 0108 00D0     		beq	.LCB448
 607 010a 88E7     		b	.L36	@long jump
 608              	.LCB448:
 609              	.LVL53:
 610              	.LBB47:
 611              	.LBB48:
 206:usbhub.h      **** 
 207:usbhub.h      **** };
 208:usbhub.h      **** 
 209:usbhub.h      **** // Clear Hub Feature
 210:usbhub.h      **** 
 211:usbhub.h      **** inline uint8_t USBHub::ClearHubFeature(uint8_t fid) {
 212:usbhub.h      ****         return ( pUsb->ctrlReq(bAddress, 0, bmREQ_CLEAR_HUB_FEATURE, USB_REQUEST_CLEAR_FEATURE, fid
 213:usbhub.h      **** }
 214:usbhub.h      **** // Clear Port Feature
 215:usbhub.h      **** 
 216:usbhub.h      **** inline uint8_t USBHub::ClearPortFeature(uint8_t fid, uint8_t port, uint8_t sel) {
 217:usbhub.h      ****         return ( pUsb->ctrlReq(bAddress, 0, bmREQ_CLEAR_PORT_FEATURE, USB_REQUEST_CLEAR_FEATURE, fi
ARM GAS  C:\Users\jrdia\AppData\Local\Temp\ccJ9Fnzg.s 			page 24


 218:usbhub.h      **** }
 219:usbhub.h      **** // Get Hub Descriptor
 220:usbhub.h      **** 
 221:usbhub.h      **** inline uint8_t USBHub::GetHubDescriptor(uint8_t index, uint16_t nbytes, uint8_t *dataptr) {
 222:usbhub.h      ****         return ( pUsb->ctrlReq(bAddress, 0, bmREQ_GET_HUB_DESCRIPTOR, USB_REQUEST_GET_DESCRIPTOR, i
 612              		.loc 2 222 0
 613 010c 10AB     		add	r3, sp, #64
 614              	.LVL54:
 615 010e 0693     		str	r3, [sp, #24]
 616 0110 2923     		movs	r3, #41
 617              	.LVL55:
 618 0112 0826     		movs	r6, #8
 619 0114 0293     		str	r3, [sp, #8]
 620 0116 233B     		subs	r3, r3, #35
 621 0118 0790     		str	r0, [sp, #28]
 622 011a 0390     		str	r0, [sp, #12]
 623 011c 0190     		str	r0, [sp, #4]
 624 011e 0093     		str	r3, [sp]
 625 0120 0200     		movs	r2, r0
 626 0122 A17B     		ldrb	r1, [r4, #14]
 627 0124 0596     		str	r6, [sp, #20]
 628 0126 0496     		str	r6, [sp, #16]
 629 0128 9A33     		adds	r3, r3, #154
 630 012a 6068     		ldr	r0, [r4, #4]
 631              	.LVL56:
 632 012c FFF7FEFF 		bl	_ZN3USB7ctrlReqEhhhhhhtttPhP13USBReadParser
 633              	.LVL57:
 634 0130 051E     		subs	r5, r0, #0
 635              	.LVL58:
 636              	.LBE48:
 637              	.LBE47:
 144:usbhub.c      ****                 goto FailGetHubDescr;
 638              		.loc 3 144 0
 639 0132 00D0     		beq	.LCB497
 640 0134 73E7     		b	.L36	@long jump
 641              	.LCB497:
 148:usbhub.c      **** 
 642              		.loc 3 148 0
 643 0136 3A22     		movs	r2, #58
 644 0138 02AB     		add	r3, sp, #8
 645 013a 9B18     		adds	r3, r3, r2
 646 013c 1B78     		ldrb	r3, [r3]
 154:usbhub.c      **** 
 647              		.loc 3 154 0
 648 013e 0200     		movs	r2, r0
 148:usbhub.c      **** 
 649              		.loc 3 148 0
 650 0140 E373     		strb	r3, [r4, #15]
 154:usbhub.c      **** 
 651              		.loc 3 154 0
 652 0142 10AB     		add	r3, sp, #64
 653              	.LVL59:
 654 0144 0193     		str	r3, [sp, #4]
 655 0146 0090     		str	r0, [sp]
 656 0148 A17B     		ldrb	r1, [r4, #14]
 657 014a 3300     		movs	r3, r6
 658              	.LVL60:
ARM GAS  C:\Users\jrdia\AppData\Local\Temp\ccJ9Fnzg.s 			page 25


 659 014c 6068     		ldr	r0, [r4, #4]
 660              	.LVL61:
 661 014e FFF7FEFF 		bl	_ZN3USB12getConfDescrEhhthPh
 662              	.LVL62:
 156:usbhub.c      ****                 cd_len = ucd->wTotalLength;
 663              		.loc 3 156 0
 664 0152 0028     		cmp	r0, #0
 665 0154 2AD0     		beq	.L43
 666              	.LVL63:
 667              	.L35:
 668 0156 0500     		movs	r5, r0
 669 0158 61E7     		b	.L36
 670              	.LVL64:
 671              	.L17:
  92:usbhub.c      ****                 return rcode;
 672              		.loc 3 92 0
 673 015a 089A     		ldr	r2, [sp, #32]
  93:usbhub.c      ****         }
 674              		.loc 3 93 0
 675 015c 0500     		movs	r5, r0
  92:usbhub.c      ****                 return rcode;
 676              		.loc 3 92 0
 677 015e 130A     		lsrs	r3, r2, #8
 678 0160 7B70     		strb	r3, [r7, #1]
 679 0162 130C     		lsrs	r3, r2, #16
 680 0164 BB70     		strb	r3, [r7, #2]
 681 0166 130E     		lsrs	r3, r2, #24
 682 0168 3A70     		strb	r2, [r7]
 683 016a FB70     		strb	r3, [r7, #3]
  93:usbhub.c      ****         }
 684              		.loc 3 93 0
 685 016c 57E7     		b	.L36
 686              	.LVL65:
 687              	.L27:
  69:usbhub.c      **** 
 688              		.loc 3 69 0
 689 016e D625     		movs	r5, #214
 690 0170 55E7     		b	.L36
 691              	.LVL66:
 692              	.L42:
 115:usbhub.c      ****                 addrPool.FreeAddress(bAddress);
 693              		.loc 3 115 0
 694 0172 089A     		ldr	r2, [sp, #32]
 116:usbhub.c      ****                 bAddress = 0;
 695              		.loc 3 116 0
 696 0174 5846     		mov	r0, fp
 697              	.LVL67:
 115:usbhub.c      ****                 addrPool.FreeAddress(bAddress);
 698              		.loc 3 115 0
 699 0176 130A     		lsrs	r3, r2, #8
 700 0178 7B70     		strb	r3, [r7, #1]
 701 017a 130C     		lsrs	r3, r2, #16
 702 017c BB70     		strb	r3, [r7, #2]
 703 017e 130E     		lsrs	r3, r2, #24
 704 0180 FB70     		strb	r3, [r7, #3]
 116:usbhub.c      ****                 bAddress = 0;
 705              		.loc 3 116 0
ARM GAS  C:\Users\jrdia\AppData\Local\Temp\ccJ9Fnzg.s 			page 26


 706 0182 5B46     		mov	r3, fp
 707 0184 1B68     		ldr	r3, [r3]
 115:usbhub.c      ****                 addrPool.FreeAddress(bAddress);
 708              		.loc 3 115 0
 709 0186 3A70     		strb	r2, [r7]
 116:usbhub.c      ****                 bAddress = 0;
 710              		.loc 3 116 0
 711 0188 9B68     		ldr	r3, [r3, #8]
 712 018a A17B     		ldrb	r1, [r4, #14]
 713 018c 9847     		blx	r3
 714              	.LVL68:
 117:usbhub.c      ****                 return rcode;
 715              		.loc 3 117 0
 716 018e 4346     		mov	r3, r8
 717 0190 A373     		strb	r3, [r4, #14]
 118:usbhub.c      ****         }
 718              		.loc 3 118 0
 719 0192 44E7     		b	.L36
 720              	.LVL69:
 721              	.L20:
 127:usbhub.c      **** 
 722              		.loc 3 127 0
 723 0194 10AA     		add	r2, sp, #64
 724              	.LVL70:
 725 0196 0092     		str	r2, [sp]
 726 0198 9BB2     		uxth	r3, r3
 727 019a A17B     		ldrb	r1, [r4, #14]
 728 019c 0022     		movs	r2, #0
 729              	.LVL71:
 730 019e 6068     		ldr	r0, [r4, #4]
 731              	.LVL72:
 732 01a0 FFF7FEFF 		bl	_ZN3USB11getDevDescrEhhtPh
 733              	.LVL73:
 734 01a4 051E     		subs	r5, r0, #0
 735              	.LVL74:
 129:usbhub.c      ****                 goto FailGetDevDescr;
 736              		.loc 3 129 0
 737 01a6 00D0     		beq	.LCB623
 738 01a8 39E7     		b	.L36	@long jump
 739              	.LCB623:
 740 01aa A6E7     		b	.L22
 741              	.LVL75:
 742              	.L43:
 158:usbhub.c      ****         }
 743              		.loc 3 158 0
 744 01ac 10AA     		add	r2, sp, #64
 745              	.LVL76:
 746 01ae 02AB     		add	r3, sp, #8
 747 01b0 5B8F     		ldrh	r3, [r3, #58]
 748 01b2 A17B     		ldrb	r1, [r4, #14]
 749 01b4 0192     		str	r2, [sp, #4]
 750 01b6 0095     		str	r5, [sp]
 751 01b8 2A00     		movs	r2, r5
 752              	.LVL77:
 753 01ba 6068     		ldr	r0, [r4, #4]
 754              	.LVL78:
 755 01bc FFF7FEFF 		bl	_ZN3USB12getConfDescrEhhthPh
ARM GAS  C:\Users\jrdia\AppData\Local\Temp\ccJ9Fnzg.s 			page 27


 756              	.LVL79:
 160:usbhub.c      ****                 goto FailGetConfDescr;
 757              		.loc 3 160 0
 758 01c0 0028     		cmp	r0, #0
 759 01c2 C8D1     		bne	.L35
 760              	.LBB49:
 168:usbhub.c      **** 
 761              		.loc 3 168 0
 762 01c4 3822     		movs	r2, #56
 763 01c6 02AB     		add	r3, sp, #8
 764 01c8 9B18     		adds	r3, r3, r2
 765 01ca 0AAA     		add	r2, sp, #40
 766 01cc 1B78     		ldrb	r3, [r3]
 767 01ce A17B     		ldrb	r1, [r4, #14]
 768 01d0 0192     		str	r2, [sp, #4]
 769 01d2 0095     		str	r5, [sp]
 770 01d4 2A00     		movs	r2, r5
 771 01d6 6068     		ldr	r0, [r4, #4]
 772              	.LVL80:
 773 01d8 FFF7FEFF 		bl	_ZN3USB12getConfDescrEhhthPh
 774              	.LVL81:
 170:usbhub.c      ****                         goto FailGetConfDescr;
 775              		.loc 3 170 0
 776 01dc 0028     		cmp	r0, #0
 777 01de BAD1     		bne	.L35
 778              	.LBE49:
 175:usbhub.c      **** 
 779              		.loc 3 175 0
 780 01e0 3D22     		movs	r2, #61
 781 01e2 02AB     		add	r3, sp, #8
 782 01e4 9B18     		adds	r3, r3, r2
 783 01e6 1B78     		ldrb	r3, [r3]
 784 01e8 A17B     		ldrb	r1, [r4, #14]
 785 01ea 2A00     		movs	r2, r5
 786 01ec 6068     		ldr	r0, [r4, #4]
 787              	.LVL82:
 788 01ee FFF7FEFF 		bl	_ZN3USB7setConfEhhh
 789              	.LVL83:
 177:usbhub.c      ****                 goto FailSetConfDescr;
 790              		.loc 3 177 0
 791 01f2 0028     		cmp	r0, #0
 792 01f4 AFD1     		bne	.L35
 793 01f6 0127     		movs	r7, #1
 794              	.LVL84:
 795              	.LBB50:
 796              	.LBB51:
 797              	.LBB52:
 223:usbhub.h      **** }
 224:usbhub.h      **** // Get Hub Status
 225:usbhub.h      **** 
 226:usbhub.h      **** inline uint8_t USBHub::GetHubStatus(uint16_t nbytes, uint8_t* dataptr) {
 227:usbhub.h      ****         return ( pUsb->ctrlReq(bAddress, 0, bmREQ_GET_HUB_STATUS, USB_REQUEST_GET_STATUS, 0, 0, 0x0
 228:usbhub.h      **** }
 229:usbhub.h      **** // Get Port Status
 230:usbhub.h      **** 
 231:usbhub.h      **** inline uint8_t USBHub::GetPortStatus(uint8_t port, uint16_t nbytes, uint8_t* dataptr) {
 232:usbhub.h      ****         return ( pUsb->ctrlReq(bAddress, 0, bmREQ_GET_PORT_STATUS, USB_REQUEST_GET_STATUS, 0, 0, po
ARM GAS  C:\Users\jrdia\AppData\Local\Temp\ccJ9Fnzg.s 			page 28


 233:usbhub.h      **** }
 234:usbhub.h      **** // Set Hub Descriptor
 235:usbhub.h      **** 
 236:usbhub.h      **** inline uint8_t USBHub::SetHubDescriptor(uint8_t port, uint16_t nbytes, uint8_t* dataptr) {
 237:usbhub.h      ****         return ( pUsb->ctrlReq(bAddress, 0, bmREQ_SET_HUB_DESCRIPTOR, USB_REQUEST_SET_DESCRIPTOR, 0
 238:usbhub.h      **** }
 239:usbhub.h      **** // Set Hub Feature
 240:usbhub.h      **** 
 241:usbhub.h      **** inline uint8_t USBHub::SetHubFeature(uint8_t fid) {
 242:usbhub.h      ****         return ( pUsb->ctrlReq(bAddress, 0, bmREQ_SET_HUB_FEATURE, USB_REQUEST_SET_FEATURE, fid, 0,
 243:usbhub.h      **** }
 244:usbhub.h      **** // Set Port Feature
 245:usbhub.h      **** 
 246:usbhub.h      **** inline uint8_t USBHub::SetPortFeature(uint8_t fid, uint8_t port, uint8_t sel) {
 247:usbhub.h      ****         return ( pUsb->ctrlReq(bAddress, 0, bmREQ_SET_PORT_FEATURE, USB_REQUEST_SET_FEATURE, fid, 0
 798              		.loc 2 247 0 discriminator 1
 799 01f8 A946     		mov	r9, r5
 800 01fa B046     		mov	r8, r6
 801 01fc 053E     		subs	r6, r6, #5
 802              	.LVL85:
 803              	.L24:
 804              	.LBE52:
 805              	.LBE51:
 184:usbhub.c      ****                 SetPortFeature(HUB_FEATURE_PORT_POWER, j, 0); //HubPortPowerOn(j);
 806              		.loc 3 184 0 discriminator 1
 807 01fe E37B     		ldrb	r3, [r4, #15]
 808 0200 BB42     		cmp	r3, r7
 809 0202 12D3     		bcc	.L25
 810              	.LVL86:
 811              	.LBB55:
 812              	.LBB53:
 813              		.loc 2 247 0
 814 0204 4B46     		mov	r3, r9
 815 0206 0793     		str	r3, [sp, #28]
 816 0208 0693     		str	r3, [sp, #24]
 817 020a 0593     		str	r3, [sp, #20]
 818 020c 0493     		str	r3, [sp, #16]
 819 020e 0293     		str	r3, [sp, #8]
 820 0210 4346     		mov	r3, r8
 821 0212 0397     		str	r7, [sp, #12]
 822 0214 0193     		str	r3, [sp, #4]
 823 0216 A17B     		ldrb	r1, [r4, #14]
 824 0218 0096     		str	r6, [sp]
 825 021a 2323     		movs	r3, #35
 826 021c 0022     		movs	r2, #0
 827 021e 6068     		ldr	r0, [r4, #4]
 828              	.LBE53:
 829              	.LBE55:
 184:usbhub.c      ****                 SetPortFeature(HUB_FEATURE_PORT_POWER, j, 0); //HubPortPowerOn(j);
 830              		.loc 3 184 0
 831 0220 0137     		adds	r7, r7, #1
 832              	.LVL87:
 833              	.LBB56:
 834              	.LBB54:
 835              		.loc 2 247 0
 836 0222 FFF7FEFF 		bl	_ZN3USB7ctrlReqEhhhhhhtttPhP13USBReadParser
 837              	.LVL88:
ARM GAS  C:\Users\jrdia\AppData\Local\Temp\ccJ9Fnzg.s 			page 29


 838              	.LBE54:
 839              	.LBE56:
 184:usbhub.c      ****                 SetPortFeature(HUB_FEATURE_PORT_POWER, j, 0); //HubPortPowerOn(j);
 840              		.loc 3 184 0
 841 0226 FFB2     		uxtb	r7, r7
 842              	.LVL89:
 843 0228 E9E7     		b	.L24
 844              	.LVL90:
 845              	.L25:
 846              	.LBE50:
 847              	.LBB57:
 848              	.LBB58:
 849              		.loc 1 208 0
 850 022a B822     		movs	r2, #184
 851 022c 0420     		movs	r0, #4
 852              	.LBE58:
 853              	.LBE57:
 187:usbhub.c      ****         bPollEnable = true;
 854              		.loc 3 187 0
 855 022e 6168     		ldr	r1, [r4, #4]
 856              	.LVL91:
 857              	.LBB60:
 858              	.LBB59:
 859              		.loc 1 208 0
 860 0230 8B5C     		ldrb	r3, [r1, r2]
 861 0232 0343     		orrs	r3, r0
 862 0234 8B54     		strb	r3, [r1, r2]
 863              	.LBE59:
 864              	.LBE60:
 188:usbhub.c      ****         //                bInitState = 0;
 865              		.loc 3 188 0
 866 0236 0123     		movs	r3, #1
 867 0238 2375     		strb	r3, [r4, #20]
 193:usbhub.c      **** 
 868              		.loc 3 193 0
 869 023a F0E6     		b	.L36
 870              		.cfi_endproc
 871              	.LFE229:
 872              		.fnend
 873              		.size	_ZN6USBHub4InitEhhb, .-_ZN6USBHub4InitEhhb
 874              		.section	.text._ZN6USBHub12ResetHubPortEh,"ax",%progbits
 875              		.align	2
 876              		.global	_ZN6USBHub12ResetHubPortEh
 877              		.code	16
 878              		.thumb_func
 879              		.type	_ZN6USBHub12ResetHubPortEh, %function
 880              	_ZN6USBHub12ResetHubPortEh:
 881              		.fnstart
 882              	.LFB233:
 228:usbhub.c      **** 
 229:usbhub.c      **** uint8_t USBHub::Poll() {
 230:usbhub.c      ****         uint8_t rcode = 0;
 231:usbhub.c      **** 
 232:usbhub.c      ****         if(!bPollEnable)
 233:usbhub.c      ****                 return 0;
 234:usbhub.c      **** 
 235:usbhub.c      ****         if(((int32_t)((uint32_t)millis() - qNextPollTime) >= 0L)) {
ARM GAS  C:\Users\jrdia\AppData\Local\Temp\ccJ9Fnzg.s 			page 30


 236:usbhub.c      ****                 rcode = CheckHubStatus();
 237:usbhub.c      ****                 qNextPollTime = (uint32_t)millis() + 100;
 238:usbhub.c      ****         }
 239:usbhub.c      ****         return rcode;
 240:usbhub.c      **** }
 241:usbhub.c      **** 
 242:usbhub.c      **** uint8_t USBHub::CheckHubStatus() {
 243:usbhub.c      ****         uint8_t rcode;
 244:usbhub.c      ****         uint8_t buf[8];
 245:usbhub.c      ****         uint16_t read = 1;
 246:usbhub.c      **** 
 247:usbhub.c      ****         rcode = pUsb->inTransfer(bAddress, 1, &read, buf);
 248:usbhub.c      **** 
 249:usbhub.c      ****         if(rcode)
 250:usbhub.c      ****                 return rcode;
 251:usbhub.c      **** 
 252:usbhub.c      ****         //if (buf[0] & 0x01) // Hub Status Change
 253:usbhub.c      ****         //{
 254:usbhub.c      ****         //        pUsb->PrintHubStatus(addr);
 255:usbhub.c      ****         //        rcode = GetHubStatus(1, 0, 1, 4, buf);
 256:usbhub.c      ****         //        if (rcode)
 257:usbhub.c      ****         //        {
 258:usbhub.c      ****         //                USB_HOST_SERIAL.print("GetHubStatus Error");
 259:usbhub.c      ****         //                USB_HOST_SERIAL.println(rcode, HEX);
 260:usbhub.c      ****         //                return rcode;
 261:usbhub.c      ****         //        }
 262:usbhub.c      ****         //}
 263:usbhub.c      ****         for(uint8_t port = 1, mask = 0x02; port < 8; mask <<= 1, port++) {
 264:usbhub.c      ****                 if(buf[0] & mask) {
 265:usbhub.c      ****                         HubEvent evt;
 266:usbhub.c      ****                         evt.bmEvent = 0;
 267:usbhub.c      **** 
 268:usbhub.c      ****                         rcode = GetPortStatus(port, 4, evt.evtBuff);
 269:usbhub.c      **** 
 270:usbhub.c      ****                         if(rcode)
 271:usbhub.c      ****                                 continue;
 272:usbhub.c      **** 
 273:usbhub.c      ****                         rcode = PortStatusChange(port, evt);
 274:usbhub.c      **** 
 275:usbhub.c      ****                         if(rcode == HUB_ERROR_PORT_HAS_BEEN_RESET)
 276:usbhub.c      ****                                 return 0;
 277:usbhub.c      **** 
 278:usbhub.c      ****                         if(rcode)
 279:usbhub.c      ****                                 return rcode;
 280:usbhub.c      ****                 }
 281:usbhub.c      ****         } // for
 282:usbhub.c      **** 
 283:usbhub.c      ****         for(uint8_t port = 1; port <= bNbrPorts; port++) {
 284:usbhub.c      ****                 HubEvent evt;
 285:usbhub.c      ****                 evt.bmEvent = 0;
 286:usbhub.c      **** 
 287:usbhub.c      ****                 rcode = GetPortStatus(port, 4, evt.evtBuff);
 288:usbhub.c      **** 
 289:usbhub.c      ****                 if(rcode)
 290:usbhub.c      ****                         continue;
 291:usbhub.c      **** 
 292:usbhub.c      ****                 if((evt.bmStatus & bmHUB_PORT_STATE_CHECK_DISABLED) != bmHUB_PORT_STATE_DISABLED)
ARM GAS  C:\Users\jrdia\AppData\Local\Temp\ccJ9Fnzg.s 			page 31


 293:usbhub.c      ****                         continue;
 294:usbhub.c      **** 
 295:usbhub.c      ****                 // Emulate connection event for the port
 296:usbhub.c      ****                 evt.bmChange |= bmHUB_PORT_STATUS_C_PORT_CONNECTION;
 297:usbhub.c      **** 
 298:usbhub.c      ****                 rcode = PortStatusChange(port, evt);
 299:usbhub.c      **** 
 300:usbhub.c      ****                 if(rcode == HUB_ERROR_PORT_HAS_BEEN_RESET)
 301:usbhub.c      ****                         return 0;
 302:usbhub.c      **** 
 303:usbhub.c      ****                 if(rcode)
 304:usbhub.c      ****                         return rcode;
 305:usbhub.c      ****         } // for
 306:usbhub.c      ****         return 0;
 307:usbhub.c      **** }
 308:usbhub.c      **** 
 309:usbhub.c      **** void USBHub::ResetHubPort(uint8_t port) {
 883              		.loc 3 309 0
 884              		.cfi_startproc
 885              		@ args = 0, pretend = 0, frame = 8
 886              		@ frame_needed = 0, uses_anonymous_args = 0
 887              	.LVL92:
 888 0000 F0B5     		push	{r4, r5, r6, r7, lr}
 889              		.save {r4, r5, r6, r7, lr}
 890              		.cfi_def_cfa_offset 20
 891              		.cfi_offset 4, -20
 892              		.cfi_offset 5, -16
 893              		.cfi_offset 6, -12
 894              		.cfi_offset 7, -8
 895              		.cfi_offset 14, -4
 896 0002 5746     		mov	r7, r10
 897 0004 4E46     		mov	r6, r9
 898 0006 4546     		mov	r5, r8
 310:usbhub.c      ****         HubEvent evt;
 311:usbhub.c      ****         evt.bmEvent = 0;
 899              		.loc 3 311 0
 900 0008 0024     		movs	r4, #0
 309:usbhub.c      ****         HubEvent evt;
 901              		.loc 3 309 0
 902 000a E0B4     		push	{r5, r6, r7}
 903              		.save {r8, r9, r10}
 904              		.cfi_def_cfa_offset 32
 905              		.cfi_offset 8, -32
 906              		.cfi_offset 9, -28
 907              		.cfi_offset 10, -24
 908              	.LBB74:
 909              	.LBB75:
 217:usbhub.h      **** }
 910              		.loc 2 217 0
 911 000c 1123     		movs	r3, #17
 912 000e 0127     		movs	r7, #1
 913              	.LBE75:
 914              	.LBE74:
 309:usbhub.c      ****         HubEvent evt;
 915              		.loc 3 309 0
 916              		.pad #40
 917 0010 8AB0     		sub	sp, sp, #40
ARM GAS  C:\Users\jrdia\AppData\Local\Temp\ccJ9Fnzg.s 			page 32


 918              		.cfi_def_cfa_offset 72
 919              	.LBB79:
 920              	.LBB76:
 217:usbhub.h      **** }
 921              		.loc 2 217 0
 922 0012 8EB2     		uxth	r6, r1
 923 0014 817B     		ldrb	r1, [r0, #14]
 924              	.LVL93:
 925 0016 0193     		str	r3, [sp, #4]
 926 0018 0097     		str	r7, [sp]
 927 001a 0794     		str	r4, [sp, #28]
 928 001c 0694     		str	r4, [sp, #24]
 929 001e 0594     		str	r4, [sp, #20]
 930 0020 0494     		str	r4, [sp, #16]
 931 0022 0396     		str	r6, [sp, #12]
 932 0024 0294     		str	r4, [sp, #8]
 933              	.LBE76:
 934              	.LBE79:
 309:usbhub.c      ****         HubEvent evt;
 935              		.loc 3 309 0
 936 0026 0500     		movs	r5, r0
 937              	.LBB80:
 938              	.LBB77:
 217:usbhub.h      **** }
 939              		.loc 2 217 0
 940 0028 1233     		adds	r3, r3, #18
 941 002a 0022     		movs	r2, #0
 942 002c 4068     		ldr	r0, [r0, #4]
 943              	.LVL94:
 944              	.LBE77:
 945              	.LBE80:
 946              		.loc 3 311 0
 947 002e 0994     		str	r4, [sp, #36]
 948              	.LVL95:
 949              	.LBB81:
 950              	.LBB78:
 217:usbhub.h      **** }
 951              		.loc 2 217 0
 952 0030 FFF7FEFF 		bl	_ZN3USB7ctrlReqEhhhhhhtttPhP13USBReadParser
 953              	.LVL96:
 954              	.LBE78:
 955              	.LBE81:
 956              	.LBB82:
 957              	.LBB83:
 958 0034 1023     		movs	r3, #16
 959 0036 A97B     		ldrb	r1, [r5, #14]
 960 0038 0193     		str	r3, [sp, #4]
 961 003a 0097     		str	r7, [sp]
 962 003c 1333     		adds	r3, r3, #19
 963 003e 0022     		movs	r2, #0
 964 0040 0794     		str	r4, [sp, #28]
 965 0042 0694     		str	r4, [sp, #24]
 966 0044 0594     		str	r4, [sp, #20]
 967 0046 0494     		str	r4, [sp, #16]
 968 0048 0396     		str	r6, [sp, #12]
 969 004a 0294     		str	r4, [sp, #8]
 970 004c 6868     		ldr	r0, [r5, #4]
ARM GAS  C:\Users\jrdia\AppData\Local\Temp\ccJ9Fnzg.s 			page 33


 971 004e FFF7FEFF 		bl	_ZN3USB7ctrlReqEhhhhhhtttPhP13USBReadParser
 972              	.LVL97:
 973              	.LBE83:
 974              	.LBE82:
 975              	.LBB84:
 976              	.LBB85:
 977              		.loc 2 247 0
 978 0052 0423     		movs	r3, #4
 979 0054 0193     		str	r3, [sp, #4]
 980 0056 013B     		subs	r3, r3, #1
 981 0058 0093     		str	r3, [sp]
 982 005a A97B     		ldrb	r1, [r5, #14]
 983 005c 2033     		adds	r3, r3, #32
 984 005e 0794     		str	r4, [sp, #28]
 985 0060 0694     		str	r4, [sp, #24]
 986 0062 0594     		str	r4, [sp, #20]
 987 0064 0494     		str	r4, [sp, #16]
 988 0066 0396     		str	r6, [sp, #12]
 989 0068 0294     		str	r4, [sp, #8]
 990 006a 0022     		movs	r2, #0
 991 006c 6868     		ldr	r0, [r5, #4]
 992 006e FFF7FEFF 		bl	_ZN3USB7ctrlReqEhhhhhhtttPhP13USBReadParser
 993              	.LVL98:
 994 0072 0323     		movs	r3, #3
 995 0074 9846     		mov	r8, r3
 996              	.LBE85:
 997              	.LBE84:
 998              	.LBB86:
 999              	.LBB87:
 1000              	.LBB88:
 232:usbhub.h      **** }
 1001              		.loc 2 232 0
 1002 0076 0133     		adds	r3, r3, #1
 1003 0078 9946     		mov	r9, r3
 1004              	.LBE88:
 1005              	.LBE87:
 312:usbhub.c      ****         uint8_t rcode;
 313:usbhub.c      **** 
 314:usbhub.c      ****         ClearPortFeature(HUB_FEATURE_C_PORT_ENABLE, port, 0);
 315:usbhub.c      ****         ClearPortFeature(HUB_FEATURE_C_PORT_CONNECTION, port, 0);
 316:usbhub.c      ****         SetPortFeature(HUB_FEATURE_PORT_RESET, port, 0);
 317:usbhub.c      **** 
 318:usbhub.c      **** 
 319:usbhub.c      ****         for(int i = 0; i < 3; i++) {
 320:usbhub.c      ****                 rcode = GetPortStatus(port, 4, evt.evtBuff);
 321:usbhub.c      ****                 if(rcode) break; // Some kind of error, bail.
 322:usbhub.c      ****                 if(evt.bmEvent == bmHUB_PORT_EVENT_RESET_COMPLETE || evt.bmEvent == bmHUB_PORT_EVEN
 1006              		.loc 3 322 0
 1007 007a 264B     		ldr	r3, .L52
 1008 007c 09AF     		add	r7, sp, #36
 1009 007e 9A46     		mov	r10, r3
 1010              	.LVL99:
 1011              	.L47:
 1012              	.LBB90:
 1013              	.LBB89:
 232:usbhub.h      **** }
 1014              		.loc 2 232 0
ARM GAS  C:\Users\jrdia\AppData\Local\Temp\ccJ9Fnzg.s 			page 34


 1015 0080 4B46     		mov	r3, r9
 1016 0082 A97B     		ldrb	r1, [r5, #14]
 1017 0084 0593     		str	r3, [sp, #20]
 1018 0086 0493     		str	r3, [sp, #16]
 1019 0088 0794     		str	r4, [sp, #28]
 1020 008a 0697     		str	r7, [sp, #24]
 1021 008c 0396     		str	r6, [sp, #12]
 1022 008e 0294     		str	r4, [sp, #8]
 1023 0090 0194     		str	r4, [sp, #4]
 1024 0092 0094     		str	r4, [sp]
 1025 0094 A323     		movs	r3, #163
 1026 0096 0022     		movs	r2, #0
 1027 0098 6868     		ldr	r0, [r5, #4]
 1028 009a FFF7FEFF 		bl	_ZN3USB7ctrlReqEhhhhhhtttPhP13USBReadParser
 1029              	.LVL100:
 1030              	.LBE89:
 1031              	.LBE90:
 321:usbhub.c      ****                 if(evt.bmEvent == bmHUB_PORT_EVENT_RESET_COMPLETE || evt.bmEvent == bmHUB_PORT_EVEN
 1032              		.loc 3 321 0
 1033 009e 0028     		cmp	r0, #0
 1034 00a0 0FD1     		bne	.L46
 1035              		.loc 3 322 0
 1036 00a2 5246     		mov	r2, r10
 1037 00a4 3B68     		ldr	r3, [r7]
 1038 00a6 1340     		ands	r3, r2
 1039 00a8 1B4A     		ldr	r2, .L52+4
 1040 00aa 9342     		cmp	r3, r2
 1041 00ac 09D0     		beq	.L46
 323:usbhub.c      ****                         break;
 324:usbhub.c      ****                 }
 325:usbhub.c      ****                 delay(100); // simulate polling.
 1042              		.loc 3 325 0
 1043 00ae 6420     		movs	r0, #100
 1044              	.LVL101:
 1045 00b0 FFF7FEFF 		bl	delay
 1046              	.LVL102:
 1047 00b4 0123     		movs	r3, #1
 1048 00b6 5B42     		rsbs	r3, r3, #0
 1049 00b8 9C46     		mov	ip, r3
 1050 00ba E044     		add	r8, r8, ip
 1051              	.LVL103:
 319:usbhub.c      ****                 rcode = GetPortStatus(port, 4, evt.evtBuff);
 1052              		.loc 3 319 0
 1053 00bc 4346     		mov	r3, r8
 1054 00be 002B     		cmp	r3, #0
 1055 00c0 DED1     		bne	.L47
 1056              	.LVL104:
 1057              	.L46:
 1058              	.LBE86:
 1059              	.LBB91:
 1060              	.LBB92:
 217:usbhub.h      **** }
 1061              		.loc 2 217 0
 1062 00c2 0024     		movs	r4, #0
 1063 00c4 0127     		movs	r7, #1
 1064 00c6 1423     		movs	r3, #20
 1065 00c8 A97B     		ldrb	r1, [r5, #14]
ARM GAS  C:\Users\jrdia\AppData\Local\Temp\ccJ9Fnzg.s 			page 35


 1066 00ca 0193     		str	r3, [sp, #4]
 1067 00cc 0794     		str	r4, [sp, #28]
 1068 00ce 0694     		str	r4, [sp, #24]
 1069 00d0 0594     		str	r4, [sp, #20]
 1070 00d2 0494     		str	r4, [sp, #16]
 1071 00d4 0396     		str	r6, [sp, #12]
 1072 00d6 0294     		str	r4, [sp, #8]
 1073 00d8 0097     		str	r7, [sp]
 1074 00da 0F33     		adds	r3, r3, #15
 1075 00dc 0022     		movs	r2, #0
 1076 00de 6868     		ldr	r0, [r5, #4]
 1077 00e0 FFF7FEFF 		bl	_ZN3USB7ctrlReqEhhhhhhtttPhP13USBReadParser
 1078              	.LVL105:
 1079              	.LBE92:
 1080              	.LBE91:
 1081              	.LBB93:
 1082              	.LBB94:
 1083 00e4 1023     		movs	r3, #16
 1084 00e6 A97B     		ldrb	r1, [r5, #14]
 1085 00e8 0193     		str	r3, [sp, #4]
 1086 00ea 0022     		movs	r2, #0
 1087 00ec 1333     		adds	r3, r3, #19
 1088 00ee 6868     		ldr	r0, [r5, #4]
 1089 00f0 0794     		str	r4, [sp, #28]
 1090 00f2 0694     		str	r4, [sp, #24]
 1091 00f4 0594     		str	r4, [sp, #20]
 1092 00f6 0494     		str	r4, [sp, #16]
 1093 00f8 0396     		str	r6, [sp, #12]
 1094 00fa 0294     		str	r4, [sp, #8]
 1095 00fc 0097     		str	r7, [sp]
 1096 00fe FFF7FEFF 		bl	_ZN3USB7ctrlReqEhhhhhhtttPhP13USBReadParser
 1097              	.LVL106:
 1098              	.LBE94:
 1099              	.LBE93:
 326:usbhub.c      ****         }
 327:usbhub.c      ****         ClearPortFeature(HUB_FEATURE_C_PORT_RESET, port, 0);
 328:usbhub.c      ****         ClearPortFeature(HUB_FEATURE_C_PORT_CONNECTION, port, 0);
 329:usbhub.c      ****         delay(20);
 1100              		.loc 3 329 0
 1101 0102 1420     		movs	r0, #20
 1102 0104 FFF7FEFF 		bl	delay
 1103              	.LVL107:
 330:usbhub.c      **** }
 1104              		.loc 3 330 0
 1105 0108 0AB0     		add	sp, sp, #40
 1106              		@ sp needed
 1107              	.LVL108:
 1108 010a 1CBC     		pop	{r2, r3, r4}
 1109 010c 9046     		mov	r8, r2
 1110 010e 9946     		mov	r9, r3
 1111 0110 A246     		mov	r10, r4
 1112 0112 F0BD     		pop	{r4, r5, r6, r7, pc}
 1113              	.L53:
 1114              		.align	2
 1115              	.L52:
 1116 0114 FFFDFFFF 		.word	-513
 1117 0118 03011000 		.word	1048835
ARM GAS  C:\Users\jrdia\AppData\Local\Temp\ccJ9Fnzg.s 			page 36


 1118              		.cfi_endproc
 1119              	.LFE233:
 1120              		.fnend
 1121              		.size	_ZN6USBHub12ResetHubPortEh, .-_ZN6USBHub12ResetHubPortEh
 1122              		.section	.text._ZN6USBHubC2EP3USB,"ax",%progbits
 1123              		.align	2
 1124              		.global	_ZN6USBHubC2EP3USB
 1125              		.code	16
 1126              		.thumb_func
 1127              		.type	_ZN6USBHubC2EP3USB, %function
 1128              	_ZN6USBHubC2EP3USB:
 1129              		.fnstart
 1130              	.LFB227:
  21:usbhub.c      **** pUsb(p),
 1131              		.loc 3 21 0
 1132              		.cfi_startproc
 1133              		@ args = 0, pretend = 0, frame = 0
 1134              		@ frame_needed = 0, uses_anonymous_args = 0
 1135              	.LVL109:
 1136 0000 F0B5     		push	{r4, r5, r6, r7, lr}
 1137              		.cfi_def_cfa_offset 20
 1138              		.cfi_offset 4, -20
 1139              		.cfi_offset 5, -16
 1140              		.cfi_offset 6, -12
 1141              		.cfi_offset 7, -8
 1142              		.cfi_offset 14, -4
 1143              	.LBB95:
  30:usbhub.c      ****         epInfo[0].bmRcvToggle = 0;
 1144              		.loc 3 30 0
 1145 0002 0124     		movs	r4, #1
  31:usbhub.c      ****         epInfo[0].bmNakPower = USB_NAK_MAX_POWER;
 1146              		.loc 3 31 0
 1147 0004 0227     		movs	r7, #2
  32:usbhub.c      **** 
 1148              		.loc 3 32 0
 1149 0006 0326     		movs	r6, #3
 1150 0008 3C25     		movs	r5, #60
  27:usbhub.c      ****         epInfo[0].epAddr = 0;
 1151              		.loc 3 27 0
 1152 000a 164B     		ldr	r3, .L63
  30:usbhub.c      ****         epInfo[0].bmRcvToggle = 0;
 1153              		.loc 3 30 0
 1154 000c 827A     		ldrb	r2, [r0, #10]
  27:usbhub.c      ****         epInfo[0].epAddr = 0;
 1155              		.loc 3 27 0
 1156 000e 0833     		adds	r3, r3, #8
 1157 0010 0360     		str	r3, [r0]
 1158 0012 0023     		movs	r3, #0
  31:usbhub.c      ****         epInfo[0].bmNakPower = USB_NAK_MAX_POWER;
 1159              		.loc 3 31 0
 1160 0014 A243     		bics	r2, r4
  32:usbhub.c      **** 
 1161              		.loc 3 32 0
 1162 0016 BA43     		bics	r2, r7
 1163 0018 3240     		ands	r2, r6
 1164 001a 2A43     		orrs	r2, r5
 1165 001c 8272     		strb	r2, [r0, #10]
ARM GAS  C:\Users\jrdia\AppData\Local\Temp\ccJ9Fnzg.s 			page 37


  38:usbhub.c      **** 
 1166              		.loc 3 38 0
 1167 001e 0422     		movs	r2, #4
  27:usbhub.c      ****         epInfo[0].epAddr = 0;
 1168              		.loc 3 27 0
 1169 0020 8373     		strb	r3, [r0, #14]
 1170 0022 C373     		strb	r3, [r0, #15]
 1171 0024 0361     		str	r3, [r0, #16]
 1172 0026 0375     		strb	r3, [r0, #20]
  28:usbhub.c      ****         epInfo[0].maxPktSize = 8;
 1173              		.loc 3 28 0
 1174 0028 0372     		strb	r3, [r0, #8]
  29:usbhub.c      ****         epInfo[0].bmSndToggle = 0;
 1175              		.loc 3 29 0
 1176 002a 0833     		adds	r3, r3, #8
 1177 002c 4372     		strb	r3, [r0, #9]
  35:usbhub.c      ****         epInfo[1].bmSndToggle = 0;
 1178              		.loc 3 35 0
 1179 002e 0373     		strb	r3, [r0, #12]
  36:usbhub.c      ****         epInfo[1].bmRcvToggle = 0;
 1180              		.loc 3 36 0
 1181 0030 437B     		ldrb	r3, [r0, #13]
  27:usbhub.c      ****         epInfo[0].epAddr = 0;
 1182              		.loc 3 27 0
 1183 0032 4160     		str	r1, [r0, #4]
  37:usbhub.c      ****         epInfo[1].bmNakPower = USB_NAK_NOWAIT;
 1184              		.loc 3 37 0
 1185 0034 A343     		bics	r3, r4
  38:usbhub.c      **** 
 1186              		.loc 3 38 0
 1187 0036 BB43     		bics	r3, r7
 1188 0038 3340     		ands	r3, r6
 1189 003a 1343     		orrs	r3, r2
  34:usbhub.c      ****         epInfo[1].maxPktSize = 8; //kludge
 1190              		.loc 3 34 0
 1191 003c C472     		strb	r4, [r0, #11]
  38:usbhub.c      **** 
 1192              		.loc 3 38 0
 1193 003e 4373     		strb	r3, [r0, #13]
  40:usbhub.c      ****                 pUsb->RegisterDeviceClass(this);
 1194              		.loc 3 40 0
 1195 0040 0029     		cmp	r1, #0
 1196 0042 09D0     		beq	.L55
 1197              	.LVL110:
 1198 0044 0A00     		movs	r2, r1
 1199 0046 0023     		movs	r3, #0
 1200 0048 7832     		adds	r2, r2, #120
 1201              	.LVL111:
 1202              	.L57:
 1203              	.LBB96:
 1204              	.LBB97:
 209:UsbCore.h     ****         };
 210:UsbCore.h     **** 
 211:UsbCore.h     ****         void ResetHubPreMask() {
 212:UsbCore.h     ****                 bmHubPre &= (~bmHUBPRE);
 213:UsbCore.h     ****         };
 214:UsbCore.h     **** 
ARM GAS  C:\Users\jrdia\AppData\Local\Temp\ccJ9Fnzg.s 			page 38


 215:UsbCore.h     ****         AddressPool& GetAddressPool() {
 216:UsbCore.h     ****                 return (AddressPool&)addrPool;
 217:UsbCore.h     ****         };
 218:UsbCore.h     **** 
 219:UsbCore.h     ****         uint8_t RegisterDeviceClass(USBDeviceConfig *pdev) {
 220:UsbCore.h     ****                 for(uint8_t i = 0; i < USB_NUMDEVICES; i++) {
 221:UsbCore.h     ****                         if(!devConfig[i]) {
 1205              		.loc 1 221 0
 1206 004a 1468     		ldr	r4, [r2]
 1207 004c 002C     		cmp	r4, #0
 1208 004e 04D0     		beq	.L62
 1209              	.LVL112:
 1210 0050 0133     		adds	r3, r3, #1
 1211              	.LVL113:
 1212 0052 0432     		adds	r2, r2, #4
 220:UsbCore.h     ****                         if(!devConfig[i]) {
 1213              		.loc 1 220 0
 1214 0054 102B     		cmp	r3, #16
 1215 0056 F8D1     		bne	.L57
 1216              	.LVL114:
 1217              	.L55:
 1218              	.LBE97:
 1219              	.LBE96:
 1220              	.LBE95:
  42:usbhub.c      **** 
 1221              		.loc 3 42 0
 1222              		@ sp needed
 1223 0058 F0BD     		pop	{r4, r5, r6, r7, pc}
 1224              	.LVL115:
 1225              	.L62:
 1226              	.LBB100:
 1227              	.LBB99:
 1228              	.LBB98:
 222:UsbCore.h     ****                                 devConfig[i] = pdev;
 1229              		.loc 1 222 0
 1230 005a 1E33     		adds	r3, r3, #30
 1231              	.LVL116:
 1232 005c 9B00     		lsls	r3, r3, #2
 1233 005e 5850     		str	r0, [r3, r1]
 1234 0060 FAE7     		b	.L55
 1235              	.L64:
 1236 0062 C046     		.align	2
 1237              	.L63:
 1238 0064 00000000 		.word	.LANCHOR0
 1239              	.LBE98:
 1240              	.LBE99:
 1241              	.LBE100:
 1242              		.cfi_endproc
 1243              	.LFE227:
 1244              		.cantunwind
 1245              		.fnend
 1246              		.size	_ZN6USBHubC2EP3USB, .-_ZN6USBHubC2EP3USB
 1247              		.global	_ZN6USBHubC1EP3USB
 1248              		.thumb_set _ZN6USBHubC1EP3USB,_ZN6USBHubC2EP3USB
 1249              		.section	.text._ZN6USBHub16PortStatusChangeEhR8HubEvent,"ax",%progbits
 1250              		.align	2
 1251              		.global	_ZN6USBHub16PortStatusChangeEhR8HubEvent
ARM GAS  C:\Users\jrdia\AppData\Local\Temp\ccJ9Fnzg.s 			page 39


 1252              		.code	16
 1253              		.thumb_func
 1254              		.type	_ZN6USBHub16PortStatusChangeEhR8HubEvent, %function
 1255              	_ZN6USBHub16PortStatusChangeEhR8HubEvent:
 1256              		.fnstart
 1257              	.LFB234:
 331:usbhub.c      **** 
 332:usbhub.c      **** uint8_t USBHub::PortStatusChange(uint8_t port, HubEvent &evt) {
 1258              		.loc 3 332 0
 1259              		.cfi_startproc
 1260              		@ args = 0, pretend = 0, frame = 0
 1261              		@ frame_needed = 0, uses_anonymous_args = 0
 1262              	.LVL117:
 1263 0000 F0B5     		push	{r4, r5, r6, r7, lr}
 1264              		.save {r4, r5, r6, r7, lr}
 1265              		.cfi_def_cfa_offset 20
 1266              		.cfi_offset 4, -20
 1267              		.cfi_offset 5, -16
 1268              		.cfi_offset 6, -12
 1269              		.cfi_offset 7, -8
 1270              		.cfi_offset 14, -4
 1271 0002 4F46     		mov	r7, r9
 1272 0004 4646     		mov	r6, r8
 1273 0006 1500     		movs	r5, r2
 1274 0008 C0B4     		push	{r6, r7}
 1275              		.save {r8, r9}
 1276              		.cfi_def_cfa_offset 28
 1277              		.cfi_offset 8, -28
 1278              		.cfi_offset 9, -24
 1279              	.LBB117:
 333:usbhub.c      ****         switch(evt.bmEvent) {
 1280              		.loc 3 333 0
 1281 000a 1478     		ldrb	r4, [r2]
 1282 000c 5278     		ldrb	r2, [r2, #1]
 1283              	.LVL118:
 1284 000e AB78     		ldrb	r3, [r5, #2]
 1285 0010 1202     		lsls	r2, r2, #8
 1286 0012 2243     		orrs	r2, r4
 1287 0014 1B04     		lsls	r3, r3, #16
 1288 0016 1343     		orrs	r3, r2
 1289 0018 1A00     		movs	r2, r3
 1290 001a EB78     		ldrb	r3, [r5, #3]
 1291              	.LBE117:
 332:usbhub.c      ****         switch(evt.bmEvent) {
 1292              		.loc 3 332 0
 1293              		.pad #36
 1294 001c 89B0     		sub	sp, sp, #36
 1295              		.cfi_def_cfa_offset 64
 1296              	.LBB135:
 1297              		.loc 3 333 0
 1298 001e 1B06     		lsls	r3, r3, #24
 1299 0020 1343     		orrs	r3, r2
 1300 0022 5D4A     		ldr	r2, .L75
 1301              	.LBE135:
 332:usbhub.c      ****         switch(evt.bmEvent) {
 1302              		.loc 3 332 0
 1303 0024 0600     		movs	r6, r0
ARM GAS  C:\Users\jrdia\AppData\Local\Temp\ccJ9Fnzg.s 			page 40


 1304 0026 0F00     		movs	r7, r1
 1305              	.LBB136:
 1306              		.loc 3 333 0
 1307 0028 9342     		cmp	r3, r2
 1308 002a 3BD0     		beq	.L67
 1309 002c 00D9     		bls	.LCB1241
 1310 002e 74E0     		b	.L68	@long jump
 1311              	.LCB1241:
 1312 0030 5A4A     		ldr	r2, .L75+4
 1313 0032 9342     		cmp	r3, r2
 1314 0034 33D1     		bne	.L74
 1315              	.LVL119:
 1316              	.LBB118:
 1317              	.LBB119:
 1318              	.LBB120:
 217:usbhub.h      **** }
 1319              		.loc 2 217 0
 1320 0036 8BB2     		uxth	r3, r1
 1321 0038 0024     		movs	r4, #0
 1322 003a 9846     		mov	r8, r3
 1323 003c 0393     		str	r3, [sp, #12]
 1324 003e 0125     		movs	r5, #1
 1325              	.LVL120:
 1326 0040 1123     		movs	r3, #17
 1327 0042 B17B     		ldrb	r1, [r6, #14]
 1328              	.LVL121:
 1329 0044 0193     		str	r3, [sp, #4]
 1330 0046 0022     		movs	r2, #0
 1331 0048 1233     		adds	r3, r3, #18
 1332 004a 0794     		str	r4, [sp, #28]
 1333 004c 0694     		str	r4, [sp, #24]
 1334 004e 0594     		str	r4, [sp, #20]
 1335 0050 0494     		str	r4, [sp, #16]
 1336 0052 0294     		str	r4, [sp, #8]
 1337 0054 0095     		str	r5, [sp]
 1338 0056 7068     		ldr	r0, [r6, #4]
 1339              	.LVL122:
 1340 0058 FFF7FEFF 		bl	_ZN3USB7ctrlReqEhhhhhhtttPhP13USBReadParser
 1341              	.LVL123:
 1342              	.LBE120:
 1343              	.LBE119:
 1344              	.LBB121:
 1345              	.LBB122:
 1346 005c 4346     		mov	r3, r8
 1347 005e 0393     		str	r3, [sp, #12]
 1348 0060 1023     		movs	r3, #16
 1349 0062 B17B     		ldrb	r1, [r6, #14]
 1350 0064 0193     		str	r3, [sp, #4]
 1351 0066 0794     		str	r4, [sp, #28]
 1352 0068 1333     		adds	r3, r3, #19
 1353 006a 0694     		str	r4, [sp, #24]
 1354 006c 0594     		str	r4, [sp, #20]
 1355 006e 0494     		str	r4, [sp, #16]
 1356 0070 0294     		str	r4, [sp, #8]
 1357 0072 0095     		str	r5, [sp]
 1358 0074 0022     		movs	r2, #0
 1359 0076 7068     		ldr	r0, [r6, #4]
ARM GAS  C:\Users\jrdia\AppData\Local\Temp\ccJ9Fnzg.s 			page 41


 1360 0078 FFF7FEFF 		bl	_ZN3USB7ctrlReqEhhhhhhtttPhP13USBReadParser
 1361              	.LVL124:
 1362              	.LBE122:
 1363              	.LBE121:
 334:usbhub.c      ****                         // Device connected event
 335:usbhub.c      ****                 case bmHUB_PORT_EVENT_CONNECT:
 336:usbhub.c      ****                 case bmHUB_PORT_EVENT_LS_CONNECT:
 337:usbhub.c      ****                         if(bResetInitiated)
 338:usbhub.c      ****                                 return 0;
 339:usbhub.c      **** 
 340:usbhub.c      ****                         ClearPortFeature(HUB_FEATURE_C_PORT_ENABLE, port, 0);
 341:usbhub.c      ****                         ClearPortFeature(HUB_FEATURE_C_PORT_CONNECTION, port, 0);
 342:usbhub.c      ****                         SetPortFeature(HUB_FEATURE_PORT_RESET, port, 0);
 343:usbhub.c      ****                         bResetInitiated = true;
 344:usbhub.c      ****                         return HUB_ERROR_PORT_HAS_BEEN_RESET;
 345:usbhub.c      **** 
 346:usbhub.c      ****                         // Device disconnected event
 347:usbhub.c      ****                 case bmHUB_PORT_EVENT_DISCONNECT:
 348:usbhub.c      ****                         ClearPortFeature(HUB_FEATURE_C_PORT_ENABLE, port, 0);
 349:usbhub.c      ****                         ClearPortFeature(HUB_FEATURE_C_PORT_CONNECTION, port, 0);
 350:usbhub.c      ****                         bResetInitiated = false;
 1364              		.loc 3 350 0
 1365 007c 484B     		ldr	r3, .L75+8
 351:usbhub.c      **** 
 352:usbhub.c      ****                         UsbDeviceAddress a;
 353:usbhub.c      ****                         a.devAddress = 0;
 354:usbhub.c      ****                         a.bmHub = 0;
 355:usbhub.c      ****                         a.bmParent = bAddress;
 356:usbhub.c      ****                         a.bmAddress = port;
 357:usbhub.c      ****                         pUsb->ReleaseDevice(a.devAddress);
 1366              		.loc 3 357 0
 1367 007e 7068     		ldr	r0, [r6, #4]
 350:usbhub.c      **** 
 1368              		.loc 3 350 0
 1369 0080 1C70     		strb	r4, [r3]
 355:usbhub.c      ****                         a.bmAddress = port;
 1370              		.loc 3 355 0
 1371 0082 0723     		movs	r3, #7
 1372 0084 B17B     		ldrb	r1, [r6, #14]
 356:usbhub.c      ****                         pUsb->ReleaseDevice(a.devAddress);
 1373              		.loc 3 356 0
 1374 0086 1F40     		ands	r7, r3
 355:usbhub.c      ****                         a.bmAddress = port;
 1375              		.loc 3 355 0
 1376 0088 1940     		ands	r1, r3
 1377 008a C900     		lsls	r1, r1, #3
 1378              		.loc 3 357 0
 1379 008c 3943     		orrs	r1, r7
 1380              	.LVL125:
 1381 008e FFF7FEFF 		bl	_ZN3USB13ReleaseDeviceEh
 1382              	.LVL126:
 1383              	.L66:
 1384              	.LBE118:
 1385              	.LBE136:
 358:usbhub.c      ****                         return 0;
 359:usbhub.c      **** 
 360:usbhub.c      ****                         // Reset complete event
ARM GAS  C:\Users\jrdia\AppData\Local\Temp\ccJ9Fnzg.s 			page 42


 361:usbhub.c      ****                 case bmHUB_PORT_EVENT_RESET_COMPLETE:
 362:usbhub.c      ****                 case bmHUB_PORT_EVENT_LS_RESET_COMPLETE:
 363:usbhub.c      ****                         ClearPortFeature(HUB_FEATURE_C_PORT_RESET, port, 0);
 364:usbhub.c      ****                         ClearPortFeature(HUB_FEATURE_C_PORT_CONNECTION, port, 0);
 365:usbhub.c      **** 
 366:usbhub.c      ****                         delay(20);
 367:usbhub.c      **** 
 368:usbhub.c      ****                         a.devAddress = bAddress;
 369:usbhub.c      **** 
 370:usbhub.c      ****                         pUsb->Configuring(a.bmAddress, port, (evt.bmStatus & bmHUB_PORT_STATUS_PORT
 371:usbhub.c      ****                         bResetInitiated = false;
 372:usbhub.c      ****                         break;
 373:usbhub.c      **** 
 374:usbhub.c      ****         } // switch (evt.bmEvent)
 375:usbhub.c      ****         return 0;
 376:usbhub.c      **** }
 1386              		.loc 3 376 0
 1387 0092 2000     		movs	r0, r4
 1388 0094 09B0     		add	sp, sp, #36
 1389              		@ sp needed
 1390              	.LVL127:
 1391 0096 0CBC     		pop	{r2, r3}
 1392 0098 9046     		mov	r8, r2
 1393 009a 9946     		mov	r9, r3
 1394 009c F0BD     		pop	{r4, r5, r6, r7, pc}
 1395              	.LVL128:
 1396              	.L74:
 1397              	.LBB137:
 333:usbhub.c      ****                         // Device connected event
 1398              		.loc 3 333 0
 1399 009e 414A     		ldr	r2, .L75+12
 1400 00a0 9342     		cmp	r3, r2
 1401 00a2 40D1     		bne	.L72
 1402              	.L67:
 1403              	.LBB133:
 337:usbhub.c      ****                                 return 0;
 1404              		.loc 3 337 0
 1405 00a4 3E4D     		ldr	r5, .L75+8
 1406              	.LVL129:
 338:usbhub.c      **** 
 1407              		.loc 3 338 0
 1408 00a6 0024     		movs	r4, #0
 337:usbhub.c      ****                                 return 0;
 1409              		.loc 3 337 0
 1410 00a8 2B78     		ldrb	r3, [r5]
 1411 00aa 002B     		cmp	r3, #0
 1412 00ac F1D1     		bne	.L66
 1413              	.LVL130:
 1414              	.LBB123:
 1415              	.LBB124:
 217:usbhub.h      **** }
 1416              		.loc 2 217 0
 1417 00ae BBB2     		uxth	r3, r7
 1418 00b0 9846     		mov	r8, r3
 1419 00b2 0127     		movs	r7, #1
 1420 00b4 0393     		str	r3, [sp, #12]
 1421 00b6 1123     		movs	r3, #17
ARM GAS  C:\Users\jrdia\AppData\Local\Temp\ccJ9Fnzg.s 			page 43


 1422 00b8 B17B     		ldrb	r1, [r6, #14]
 1423              	.LVL131:
 1424 00ba 0794     		str	r4, [sp, #28]
 1425 00bc 0694     		str	r4, [sp, #24]
 1426 00be 0594     		str	r4, [sp, #20]
 1427 00c0 0494     		str	r4, [sp, #16]
 1428 00c2 0294     		str	r4, [sp, #8]
 1429 00c4 0193     		str	r3, [sp, #4]
 1430 00c6 0022     		movs	r2, #0
 1431 00c8 1233     		adds	r3, r3, #18
 1432 00ca 0097     		str	r7, [sp]
 1433 00cc 7068     		ldr	r0, [r6, #4]
 1434              	.LVL132:
 1435 00ce FFF7FEFF 		bl	_ZN3USB7ctrlReqEhhhhhhtttPhP13USBReadParser
 1436              	.LVL133:
 1437              	.LBE124:
 1438              	.LBE123:
 1439              	.LBB125:
 1440              	.LBB126:
 1441 00d2 4346     		mov	r3, r8
 1442 00d4 0393     		str	r3, [sp, #12]
 1443 00d6 1023     		movs	r3, #16
 1444 00d8 B17B     		ldrb	r1, [r6, #14]
 1445 00da 0794     		str	r4, [sp, #28]
 1446 00dc 0694     		str	r4, [sp, #24]
 1447 00de 0594     		str	r4, [sp, #20]
 1448 00e0 0494     		str	r4, [sp, #16]
 1449 00e2 0294     		str	r4, [sp, #8]
 1450 00e4 0193     		str	r3, [sp, #4]
 1451 00e6 0022     		movs	r2, #0
 1452 00e8 1333     		adds	r3, r3, #19
 1453 00ea 0097     		str	r7, [sp]
 1454 00ec 7068     		ldr	r0, [r6, #4]
 1455 00ee FFF7FEFF 		bl	_ZN3USB7ctrlReqEhhhhhhtttPhP13USBReadParser
 1456              	.LVL134:
 1457              	.LBE126:
 1458              	.LBE125:
 1459              	.LBB127:
 1460              	.LBB128:
 1461              		.loc 2 247 0
 1462 00f2 4346     		mov	r3, r8
 1463 00f4 0393     		str	r3, [sp, #12]
 1464 00f6 0423     		movs	r3, #4
 1465 00f8 0193     		str	r3, [sp, #4]
 1466 00fa 013B     		subs	r3, r3, #1
 1467 00fc 0794     		str	r4, [sp, #28]
 1468 00fe 0694     		str	r4, [sp, #24]
 1469 0100 0594     		str	r4, [sp, #20]
 1470 0102 0494     		str	r4, [sp, #16]
 1471 0104 0294     		str	r4, [sp, #8]
 1472 0106 0093     		str	r3, [sp]
 1473 0108 B17B     		ldrb	r1, [r6, #14]
 1474 010a 7068     		ldr	r0, [r6, #4]
 1475 010c 2033     		adds	r3, r3, #32
 1476 010e 0022     		movs	r2, #0
 1477 0110 FFF7FEFF 		bl	_ZN3USB7ctrlReqEhhhhhhtttPhP13USBReadParser
 1478              	.LVL135:
ARM GAS  C:\Users\jrdia\AppData\Local\Temp\ccJ9Fnzg.s 			page 44


 1479              	.LBE128:
 1480              	.LBE127:
 344:usbhub.c      **** 
 1481              		.loc 3 344 0
 1482 0114 B134     		adds	r4, r4, #177
 343:usbhub.c      ****                         return HUB_ERROR_PORT_HAS_BEEN_RESET;
 1483              		.loc 3 343 0
 1484 0116 2F70     		strb	r7, [r5]
 344:usbhub.c      **** 
 1485              		.loc 3 344 0
 1486 0118 BBE7     		b	.L66
 1487              	.LVL136:
 1488              	.L68:
 1489              	.LBE133:
 333:usbhub.c      ****                         // Device connected event
 1490              		.loc 3 333 0
 1491 011a 234A     		ldr	r2, .L75+16
 1492 011c 9342     		cmp	r3, r2
 1493 011e 04D0     		beq	.L70
 1494 0120 224A     		ldr	r2, .L75+20
 1495 0122 9342     		cmp	r3, r2
 1496 0124 01D0     		beq	.L70
 1497              	.L72:
 1498              	.LBE137:
 375:usbhub.c      **** }
 1499              		.loc 3 375 0
 1500 0126 0024     		movs	r4, #0
 1501 0128 B3E7     		b	.L66
 1502              	.L70:
 1503              	.LVL137:
 1504              	.LBB138:
 1505              	.LBB134:
 1506              	.LBB129:
 1507              	.LBB130:
 217:usbhub.h      **** }
 1508              		.loc 2 217 0
 1509 012a BBB2     		uxth	r3, r7
 1510 012c 9946     		mov	r9, r3
 1511 012e 0393     		str	r3, [sp, #12]
 1512 0130 1423     		movs	r3, #20
 1513 0132 0024     		movs	r4, #0
 1514 0134 0193     		str	r3, [sp, #4]
 1515 0136 133B     		subs	r3, r3, #19
 1516 0138 9846     		mov	r8, r3
 1517 013a B17B     		ldrb	r1, [r6, #14]
 1518              	.LVL138:
 1519 013c 0093     		str	r3, [sp]
 1520 013e 0022     		movs	r2, #0
 1521 0140 2233     		adds	r3, r3, #34
 1522 0142 0794     		str	r4, [sp, #28]
 1523 0144 0694     		str	r4, [sp, #24]
 1524 0146 0594     		str	r4, [sp, #20]
 1525 0148 0494     		str	r4, [sp, #16]
 1526 014a 0294     		str	r4, [sp, #8]
 1527 014c 7068     		ldr	r0, [r6, #4]
 1528              	.LVL139:
 1529 014e FFF7FEFF 		bl	_ZN3USB7ctrlReqEhhhhhhtttPhP13USBReadParser
ARM GAS  C:\Users\jrdia\AppData\Local\Temp\ccJ9Fnzg.s 			page 45


 1530              	.LVL140:
 1531              	.LBE130:
 1532              	.LBE129:
 1533              	.LBB131:
 1534              	.LBB132:
 1535 0152 4B46     		mov	r3, r9
 1536 0154 0393     		str	r3, [sp, #12]
 1537 0156 1023     		movs	r3, #16
 1538 0158 0193     		str	r3, [sp, #4]
 1539 015a 4346     		mov	r3, r8
 1540 015c B17B     		ldrb	r1, [r6, #14]
 1541 015e 0022     		movs	r2, #0
 1542 0160 0093     		str	r3, [sp]
 1543 0162 0794     		str	r4, [sp, #28]
 1544 0164 2233     		adds	r3, r3, #34
 1545 0166 0694     		str	r4, [sp, #24]
 1546 0168 0594     		str	r4, [sp, #20]
 1547 016a 0494     		str	r4, [sp, #16]
 1548 016c 0294     		str	r4, [sp, #8]
 1549 016e 7068     		ldr	r0, [r6, #4]
 1550 0170 FFF7FEFF 		bl	_ZN3USB7ctrlReqEhhhhhhtttPhP13USBReadParser
 1551              	.LVL141:
 1552              	.LBE132:
 1553              	.LBE131:
 366:usbhub.c      **** 
 1554              		.loc 3 366 0
 1555 0174 1420     		movs	r0, #20
 1556 0176 FFF7FEFF 		bl	delay
 1557              	.LVL142:
 370:usbhub.c      ****                         bResetInitiated = false;
 1558              		.loc 3 370 0
 1559 017a 4246     		mov	r2, r8
 368:usbhub.c      **** 
 1560              		.loc 3 368 0
 1561 017c B17B     		ldrb	r1, [r6, #14]
 370:usbhub.c      ****                         bResetInitiated = false;
 1562              		.loc 3 370 0
 1563 017e 6B78     		ldrb	r3, [r5, #1]
 1564 0180 4907     		lsls	r1, r1, #29
 1565 0182 5B08     		lsrs	r3, r3, #1
 1566 0184 1340     		ands	r3, r2
 1567 0186 490F     		lsrs	r1, r1, #29
 1568 0188 7068     		ldr	r0, [r6, #4]
 1569 018a 3A00     		movs	r2, r7
 1570 018c FFF7FEFF 		bl	_ZN3USB11ConfiguringEhhb
 1571              	.LVL143:
 371:usbhub.c      ****                         break;
 1572              		.loc 3 371 0
 1573 0190 034B     		ldr	r3, .L75+8
 1574 0192 1C70     		strb	r4, [r3]
 1575 0194 7DE7     		b	.L66
 1576              	.L76:
 1577 0196 C046     		.align	2
 1578              	.L75:
 1579 0198 01030100 		.word	66305
 1580 019c 00010100 		.word	65792
 1581 01a0 00000000 		.word	.LANCHOR1
ARM GAS  C:\Users\jrdia\AppData\Local\Temp\ccJ9Fnzg.s 			page 46


 1582 01a4 01010100 		.word	65793
 1583 01a8 03011000 		.word	1048835
 1584 01ac 03031000 		.word	1049347
 1585              	.LBE134:
 1586              	.LBE138:
 1587              		.cfi_endproc
 1588              	.LFE234:
 1589              		.fnend
 1590              		.size	_ZN6USBHub16PortStatusChangeEhR8HubEvent, .-_ZN6USBHub16PortStatusChangeEhR8HubEvent
 1591              		.section	.text._ZN6USBHub14CheckHubStatusEv,"ax",%progbits
 1592              		.align	2
 1593              		.global	_ZN6USBHub14CheckHubStatusEv
 1594              		.code	16
 1595              		.thumb_func
 1596              		.type	_ZN6USBHub14CheckHubStatusEv, %function
 1597              	_ZN6USBHub14CheckHubStatusEv:
 1598              		.fnstart
 1599              	.LFB232:
 242:usbhub.c      ****         uint8_t rcode;
 1600              		.loc 3 242 0
 1601              		.cfi_startproc
 1602              		@ args = 0, pretend = 0, frame = 16
 1603              		@ frame_needed = 0, uses_anonymous_args = 0
 1604              	.LVL144:
 1605 0000 F0B5     		push	{r4, r5, r6, r7, lr}
 1606              		.save {r4, r5, r6, r7, lr}
 1607              		.cfi_def_cfa_offset 20
 1608              		.cfi_offset 4, -20
 1609              		.cfi_offset 5, -16
 1610              		.cfi_offset 6, -12
 1611              		.cfi_offset 7, -8
 1612              		.cfi_offset 14, -4
 1613 0002 5646     		mov	r6, r10
 1614 0004 4D46     		mov	r5, r9
 1615 0006 4446     		mov	r4, r8
 1616 0008 5F46     		mov	r7, fp
 245:usbhub.c      **** 
 1617              		.loc 3 245 0
 1618 000a 2223     		movs	r3, #34
 1619 000c 0122     		movs	r2, #1
 242:usbhub.c      ****         uint8_t rcode;
 1620              		.loc 3 242 0
 1621 000e F0B4     		push	{r4, r5, r6, r7}
 1622              		.save {r8, r9, r10, fp}
 1623              		.cfi_def_cfa_offset 36
 1624              		.cfi_offset 8, -36
 1625              		.cfi_offset 9, -32
 1626              		.cfi_offset 10, -28
 1627              		.cfi_offset 11, -24
 1628              		.pad #52
 1629 0010 8DB0     		sub	sp, sp, #52
 1630              		.cfi_def_cfa_offset 88
 245:usbhub.c      **** 
 1631              		.loc 3 245 0
 1632 0012 6B44     		add	r3, r3, sp
 1633 0014 1A80     		strh	r2, [r3]
 247:usbhub.c      **** 
ARM GAS  C:\Users\jrdia\AppData\Local\Temp\ccJ9Fnzg.s 			page 47


 1634              		.loc 3 247 0
 1635 0016 0022     		movs	r2, #0
 1636 0018 0AAD     		add	r5, sp, #40
 1637 001a 817B     		ldrb	r1, [r0, #14]
 1638 001c 0192     		str	r2, [sp, #4]
 1639 001e 0095     		str	r5, [sp]
 242:usbhub.c      ****         uint8_t rcode;
 1640              		.loc 3 242 0
 1641 0020 0600     		movs	r6, r0
 247:usbhub.c      **** 
 1642              		.loc 3 247 0
 1643 0022 0132     		adds	r2, r2, #1
 1644 0024 4068     		ldr	r0, [r0, #4]
 1645              	.LVL145:
 1646 0026 FFF7FEFF 		bl	_ZN3USB10inTransferEhhPtPhh
 1647              	.LVL146:
 1648 002a 8046     		mov	r8, r0
 249:usbhub.c      ****                 return rcode;
 1649              		.loc 3 249 0
 1650 002c 031E     		subs	r3, r0, #0
 1651 002e 30D1     		bne	.L78
 1652              	.LBB139:
 1653              	.LBB140:
 1654              	.LBB141:
 1655              	.LBB142:
 1656              	.LBB143:
 232:usbhub.h      **** }
 1657              		.loc 2 232 0
 1658 0030 0433     		adds	r3, r3, #4
 1659              	.LBE143:
 1660              	.LBE142:
 1661              	.LBE141:
 1662              	.LBE140:
 1663              	.LBE139:
 1664 0032 0124     		movs	r4, #1
 1665 0034 0227     		movs	r7, #2
 1666              	.LBB152:
 1667              	.LBB150:
 1668              	.LBB148:
 266:usbhub.c      **** 
 1669              		.loc 3 266 0
 1670 0036 8146     		mov	r9, r0
 1671              	.LBB146:
 1672              	.LBB144:
 232:usbhub.h      **** }
 1673              		.loc 2 232 0
 1674 0038 9B46     		mov	fp, r3
 1675 003a 05E0     		b	.L82
 1676              	.LVL147:
 1677              	.L79:
 1678 003c 0134     		adds	r4, r4, #1
 1679              	.LBE144:
 1680              	.LBE146:
 1681              	.LBE148:
 1682              	.LBE150:
 263:usbhub.c      ****                 if(buf[0] & mask) {
 1683              		.loc 3 263 0 discriminator 2
ARM GAS  C:\Users\jrdia\AppData\Local\Temp\ccJ9Fnzg.s 			page 48


 1684 003e 7F00     		lsls	r7, r7, #1
 1685              	.LVL148:
 1686 0040 A4B2     		uxth	r4, r4
 1687 0042 FFB2     		uxtb	r7, r7
 1688              	.LVL149:
 1689 0044 082C     		cmp	r4, #8
 1690 0046 2CD0     		beq	.L105
 1691              	.LVL150:
 1692              	.L82:
 1693 0048 E3B2     		uxtb	r3, r4
 1694 004a 9A46     		mov	r10, r3
 1695              	.LVL151:
 1696              	.LBB151:
 264:usbhub.c      ****                         HubEvent evt;
 1697              		.loc 3 264 0
 1698 004c 2B78     		ldrb	r3, [r5]
 1699 004e 3B42     		tst	r3, r7
 1700 0050 F4D0     		beq	.L79
 1701              	.LBB149:
 266:usbhub.c      **** 
 1702              		.loc 3 266 0
 1703 0052 4B46     		mov	r3, r9
 1704 0054 0993     		str	r3, [sp, #36]
 1705              	.LVL152:
 1706              	.LBB147:
 1707              	.LBB145:
 232:usbhub.h      **** }
 1708              		.loc 2 232 0
 1709 0056 0793     		str	r3, [sp, #28]
 1710 0058 09AB     		add	r3, sp, #36
 1711              	.LVL153:
 1712 005a 0693     		str	r3, [sp, #24]
 1713 005c 5B46     		mov	r3, fp
 1714              	.LVL154:
 1715 005e 0593     		str	r3, [sp, #20]
 1716 0060 0493     		str	r3, [sp, #16]
 1717 0062 4B46     		mov	r3, r9
 1718 0064 B17B     		ldrb	r1, [r6, #14]
 1719 0066 0293     		str	r3, [sp, #8]
 1720 0068 0193     		str	r3, [sp, #4]
 1721 006a 0093     		str	r3, [sp]
 1722 006c 0394     		str	r4, [sp, #12]
 1723 006e A323     		movs	r3, #163
 1724 0070 0022     		movs	r2, #0
 1725 0072 7068     		ldr	r0, [r6, #4]
 1726 0074 FFF7FEFF 		bl	_ZN3USB7ctrlReqEhhhhhhtttPhP13USBReadParser
 1727              	.LVL155:
 1728 0078 8046     		mov	r8, r0
 1729              	.LVL156:
 1730              	.LBE145:
 1731              	.LBE147:
 270:usbhub.c      ****                                 continue;
 1732              		.loc 3 270 0
 1733 007a 0028     		cmp	r0, #0
 1734 007c DED1     		bne	.L79
 273:usbhub.c      **** 
 1735              		.loc 3 273 0
ARM GAS  C:\Users\jrdia\AppData\Local\Temp\ccJ9Fnzg.s 			page 49


 1736 007e 09AA     		add	r2, sp, #36
 1737 0080 5146     		mov	r1, r10
 1738 0082 3000     		movs	r0, r6
 1739              	.LVL157:
 1740 0084 FFF7FEFF 		bl	_ZN6USBHub16PortStatusChangeEhR8HubEvent
 1741              	.LVL158:
 275:usbhub.c      ****                                 return 0;
 1742              		.loc 3 275 0
 1743 0088 B128     		cmp	r0, #177
 1744 008a 02D0     		beq	.L78
 278:usbhub.c      ****                                 return rcode;
 1745              		.loc 3 278 0
 1746 008c 0028     		cmp	r0, #0
 1747 008e D5D0     		beq	.L79
 1748              	.LVL159:
 1749              	.L103:
 1750              	.LBE149:
 1751              	.LBE151:
 1752              	.LBE152:
 1753              	.LBB153:
 1754              	.LBB154:
 298:usbhub.c      **** 
 1755              		.loc 3 298 0
 1756 0090 8046     		mov	r8, r0
 1757              	.LVL160:
 1758              	.L78:
 1759              	.LBE154:
 1760              	.LBE153:
 307:usbhub.c      **** 
 1761              		.loc 3 307 0
 1762 0092 4046     		mov	r0, r8
 1763 0094 0DB0     		add	sp, sp, #52
 1764              		@ sp needed
 1765              	.LVL161:
 1766 0096 3CBC     		pop	{r2, r3, r4, r5}
 1767 0098 9046     		mov	r8, r2
 1768 009a 9946     		mov	r9, r3
 1769 009c A246     		mov	r10, r4
 1770 009e AB46     		mov	fp, r5
 1771 00a0 F0BD     		pop	{r4, r5, r6, r7, pc}
 1772              	.LVL162:
 1773              	.L105:
 1774              	.LBB163:
 283:usbhub.c      ****                 HubEvent evt;
 1775              		.loc 3 283 0 discriminator 1
 1776 00a2 F37B     		ldrb	r3, [r6, #15]
 1777 00a4 073C     		subs	r4, r4, #7
 1778 00a6 09AF     		add	r7, sp, #36
 1779              	.LVL163:
 1780 00a8 002B     		cmp	r3, #0
 1781 00aa 37D0     		beq	.L87
 1782              	.LBB161:
 1783              	.LBB155:
 1784              	.LBB156:
 232:usbhub.h      **** }
 1785              		.loc 2 232 0
 1786 00ac 0423     		movs	r3, #4
ARM GAS  C:\Users\jrdia\AppData\Local\Temp\ccJ9Fnzg.s 			page 50


 1787 00ae 9946     		mov	r9, r3
 1788              	.LBE156:
 1789              	.LBE155:
 292:usbhub.c      ****                         continue;
 1790              		.loc 3 292 0
 1791 00b0 0823     		movs	r3, #8
 1792 00b2 FF33     		adds	r3, r3, #255
 285:usbhub.c      **** 
 1793              		.loc 3 285 0
 1794 00b4 0025     		movs	r5, #0
 292:usbhub.c      ****                         continue;
 1795              		.loc 3 292 0
 1796 00b6 9A46     		mov	r10, r3
 1797 00b8 04E0     		b	.L102
 1798              	.LVL164:
 1799              	.L86:
 1800              	.LBE161:
 283:usbhub.c      ****                 HubEvent evt;
 1801              		.loc 3 283 0 discriminator 2
 1802 00ba 0134     		adds	r4, r4, #1
 1803              	.LVL165:
 1804 00bc F37B     		ldrb	r3, [r6, #15]
 1805 00be E4B2     		uxtb	r4, r4
 1806              	.LVL166:
 1807 00c0 A342     		cmp	r3, r4
 1808 00c2 2BD3     		bcc	.L87
 1809              	.LVL167:
 1810              	.L102:
 1811              	.LBB162:
 1812              	.LBB159:
 1813              	.LBB157:
 232:usbhub.h      **** }
 1814              		.loc 2 232 0
 1815 00c4 4B46     		mov	r3, r9
 1816              	.LBE157:
 1817              	.LBE159:
 285:usbhub.c      **** 
 1818              		.loc 3 285 0
 1819 00c6 3D60     		str	r5, [r7]
 1820              	.LVL168:
 1821              	.LBB160:
 1822              	.LBB158:
 232:usbhub.h      **** }
 1823              		.loc 2 232 0
 1824 00c8 B17B     		ldrb	r1, [r6, #14]
 1825 00ca 0593     		str	r3, [sp, #20]
 1826 00cc 0493     		str	r3, [sp, #16]
 1827 00ce 0795     		str	r5, [sp, #28]
 1828 00d0 0697     		str	r7, [sp, #24]
 1829 00d2 0394     		str	r4, [sp, #12]
 1830 00d4 0295     		str	r5, [sp, #8]
 1831 00d6 0195     		str	r5, [sp, #4]
 1832 00d8 0095     		str	r5, [sp]
 1833 00da A323     		movs	r3, #163
 1834 00dc 0022     		movs	r2, #0
 1835 00de 7068     		ldr	r0, [r6, #4]
 1836 00e0 FFF7FEFF 		bl	_ZN3USB7ctrlReqEhhhhhhtttPhP13USBReadParser
ARM GAS  C:\Users\jrdia\AppData\Local\Temp\ccJ9Fnzg.s 			page 51


 1837              	.LVL169:
 1838 00e4 8046     		mov	r8, r0
 1839              	.LVL170:
 1840              	.LBE158:
 1841              	.LBE160:
 289:usbhub.c      ****                         continue;
 1842              		.loc 3 289 0
 1843 00e6 0028     		cmp	r0, #0
 1844 00e8 E7D1     		bne	.L86
 292:usbhub.c      ****                         continue;
 1845              		.loc 3 292 0
 1846 00ea 0222     		movs	r2, #2
 1847 00ec 5146     		mov	r1, r10
 1848 00ee 3B88     		ldrh	r3, [r7]
 1849 00f0 FF32     		adds	r2, r2, #255
 1850 00f2 0B40     		ands	r3, r1
 1851 00f4 9342     		cmp	r3, r2
 1852 00f6 E0D1     		bne	.L86
 296:usbhub.c      **** 
 1853              		.loc 3 296 0
 1854 00f8 0123     		movs	r3, #1
 1855 00fa 7A88     		ldrh	r2, [r7, #2]
 298:usbhub.c      **** 
 1856              		.loc 3 298 0
 1857 00fc 2100     		movs	r1, r4
 296:usbhub.c      **** 
 1858              		.loc 3 296 0
 1859 00fe 1343     		orrs	r3, r2
 298:usbhub.c      **** 
 1860              		.loc 3 298 0
 1861 0100 3000     		movs	r0, r6
 1862              	.LVL171:
 1863 0102 3A00     		movs	r2, r7
 296:usbhub.c      **** 
 1864              		.loc 3 296 0
 1865 0104 7B80     		strh	r3, [r7, #2]
 298:usbhub.c      **** 
 1866              		.loc 3 298 0
 1867 0106 FFF7FEFF 		bl	_ZN6USBHub16PortStatusChangeEhR8HubEvent
 1868              	.LVL172:
 300:usbhub.c      ****                         return 0;
 1869              		.loc 3 300 0
 1870 010a B128     		cmp	r0, #177
 1871 010c C1D0     		beq	.L78
 303:usbhub.c      ****                         return rcode;
 1872              		.loc 3 303 0
 1873 010e 0028     		cmp	r0, #0
 1874 0110 BED1     		bne	.L103
 1875              	.LBE162:
 283:usbhub.c      ****                 HubEvent evt;
 1876              		.loc 3 283 0
 1877 0112 0134     		adds	r4, r4, #1
 1878              	.LVL173:
 1879 0114 F37B     		ldrb	r3, [r6, #15]
 1880 0116 E4B2     		uxtb	r4, r4
 1881              	.LVL174:
 1882 0118 A342     		cmp	r3, r4
ARM GAS  C:\Users\jrdia\AppData\Local\Temp\ccJ9Fnzg.s 			page 52


 1883 011a D3D2     		bcs	.L102
 1884              	.LVL175:
 1885              	.L87:
 1886              	.LBE163:
 306:usbhub.c      **** }
 1887              		.loc 3 306 0
 1888 011c 0023     		movs	r3, #0
 1889 011e 9846     		mov	r8, r3
 1890 0120 B7E7     		b	.L78
 1891              		.cfi_endproc
 1892              	.LFE232:
 1893              		.fnend
 1894              		.size	_ZN6USBHub14CheckHubStatusEv, .-_ZN6USBHub14CheckHubStatusEv
 1895 0122 C046     		.section	.text._ZN6USBHub4PollEv,"ax",%progbits
 1896              		.align	2
 1897              		.global	_ZN6USBHub4PollEv
 1898              		.code	16
 1899              		.thumb_func
 1900              		.type	_ZN6USBHub4PollEv, %function
 1901              	_ZN6USBHub4PollEv:
 1902              		.fnstart
 1903              	.LFB231:
 229:usbhub.c      ****         uint8_t rcode = 0;
 1904              		.loc 3 229 0
 1905              		.cfi_startproc
 1906              		@ args = 0, pretend = 0, frame = 0
 1907              		@ frame_needed = 0, uses_anonymous_args = 0
 1908              	.LVL176:
 1909 0000 70B5     		push	{r4, r5, r6, lr}
 1910              		.save {r4, r5, r6, lr}
 1911              		.cfi_def_cfa_offset 16
 1912              		.cfi_offset 4, -16
 1913              		.cfi_offset 5, -12
 1914              		.cfi_offset 6, -8
 1915              		.cfi_offset 14, -4
 232:usbhub.c      ****                 return 0;
 1916              		.loc 3 232 0
 1917 0002 037D     		ldrb	r3, [r0, #20]
 229:usbhub.c      ****         uint8_t rcode = 0;
 1918              		.loc 3 229 0
 1919 0004 0400     		movs	r4, r0
 232:usbhub.c      ****                 return 0;
 1920              		.loc 3 232 0
 1921 0006 002B     		cmp	r3, #0
 1922 0008 01D1     		bne	.L107
 1923              	.LVL177:
 1924              	.L109:
 233:usbhub.c      **** 
 1925              		.loc 3 233 0
 1926 000a 0020     		movs	r0, #0
 1927              	.L108:
 240:usbhub.c      **** 
 1928              		.loc 3 240 0
 1929              		@ sp needed
 1930              	.LVL178:
 1931 000c 70BD     		pop	{r4, r5, r6, pc}
 1932              	.LVL179:
ARM GAS  C:\Users\jrdia\AppData\Local\Temp\ccJ9Fnzg.s 			page 53


 1933              	.L107:
 235:usbhub.c      ****                 rcode = CheckHubStatus();
 1934              		.loc 3 235 0
 1935 000e FFF7FEFF 		bl	millis
 1936              	.LVL180:
 1937 0012 2369     		ldr	r3, [r4, #16]
 1938 0014 C01A     		subs	r0, r0, r3
 1939 0016 F8D4     		bmi	.L109
 1940              	.LVL181:
 1941              	.LBB166:
 1942              	.LBB167:
 236:usbhub.c      ****                 qNextPollTime = (uint32_t)millis() + 100;
 1943              		.loc 3 236 0
 1944 0018 2000     		movs	r0, r4
 1945 001a FFF7FEFF 		bl	_ZN6USBHub14CheckHubStatusEv
 1946              	.LVL182:
 1947 001e 0500     		movs	r5, r0
 1948              	.LVL183:
 237:usbhub.c      ****         }
 1949              		.loc 3 237 0
 1950 0020 FFF7FEFF 		bl	millis
 1951              	.LVL184:
 1952 0024 6430     		adds	r0, r0, #100
 1953 0026 2061     		str	r0, [r4, #16]
 1954              	.LVL185:
 1955 0028 2800     		movs	r0, r5
 1956 002a EFE7     		b	.L108
 1957              	.LBE167:
 1958              	.LBE166:
 1959              		.cfi_endproc
 1960              	.LFE231:
 1961              		.fnend
 1962              		.size	_ZN6USBHub4PollEv, .-_ZN6USBHub4PollEv
 1963              		.weak	_ZTS15USBDeviceConfig
 1964              		.section	.rodata._ZTS15USBDeviceConfig,"aG",%progbits,_ZTS15USBDeviceConfig,comdat
 1965              		.align	2
 1966              		.type	_ZTS15USBDeviceConfig, %object
 1967              		.size	_ZTS15USBDeviceConfig, 18
 1968              	_ZTS15USBDeviceConfig:
 1969 0000 31355553 		.ascii	"15USBDeviceConfig\000"
 1969      42446576 
 1969      69636543 
 1969      6F6E6669 
 1969      6700
 1970              		.weak	_ZTI15USBDeviceConfig
 1971              		.section	.rodata._ZTI15USBDeviceConfig,"aG",%progbits,_ZTI15USBDeviceConfig,comdat
 1972              		.align	2
 1973              		.type	_ZTI15USBDeviceConfig, %object
 1974              		.size	_ZTI15USBDeviceConfig, 8
 1975              	_ZTI15USBDeviceConfig:
 1976 0000 08000000 		.word	_ZTVN10__cxxabiv117__class_type_infoE+8
 1977 0004 00000000 		.word	_ZTS15USBDeviceConfig
 1978              		.global	_ZTS6USBHub
 1979              		.global	_ZTI6USBHub
 1980              		.global	_ZTV6USBHub
 1981              		.global	_ZN6USBHub15bResetInitiatedE
 1982              		.section	.rodata
ARM GAS  C:\Users\jrdia\AppData\Local\Temp\ccJ9Fnzg.s 			page 54


 1983              		.align	2
 1984              		.set	.LANCHOR0,. + 0
 1985              		.type	_ZTV6USBHub, %object
 1986              		.size	_ZTV6USBHub, 44
 1987              	_ZTV6USBHub:
 1988 0000 00000000 		.word	0
 1989 0004 00000000 		.word	_ZTI6USBHub
 1990 0008 00000000 		.word	_ZN6USBHub4InitEhhb
 1991 000c 00000000 		.word	_ZN15USBDeviceConfig15ConfigureDeviceEhhb
 1992 0010 00000000 		.word	_ZN6USBHub7ReleaseEv
 1993 0014 00000000 		.word	_ZN6USBHub4PollEv
 1994 0018 00000000 		.word	_ZN6USBHub10GetAddressEv
 1995 001c 00000000 		.word	_ZN6USBHub12ResetHubPortEh
 1996 0020 00000000 		.word	_ZN15USBDeviceConfig8VIDPIDOKEtt
 1997 0024 00000000 		.word	_ZN6USBHub10DEVCLASSOKEh
 1998 0028 00000000 		.word	_ZN15USBDeviceConfig13DEVSUBCLASSOKEh
 1999              		.type	_ZTS6USBHub, %object
 2000              		.size	_ZTS6USBHub, 8
 2001              	_ZTS6USBHub:
 2002 002c 36555342 		.ascii	"6USBHub\000"
 2002      48756200 
 2003              		.type	_ZTI6USBHub, %object
 2004              		.size	_ZTI6USBHub, 24
 2005              	_ZTI6USBHub:
 2006 0034 08000000 		.word	_ZTVN10__cxxabiv121__vmi_class_type_infoE+8
 2007 0038 00000000 		.word	_ZTS6USBHub
 2008 003c 00000000 		.word	0
 2009 0040 01000000 		.word	1
 2010 0044 00000000 		.word	_ZTI15USBDeviceConfig
 2011 0048 00000000 		.word	0
 2012              		.bss
 2013              		.set	.LANCHOR1,. + 0
 2014              		.type	_ZN6USBHub15bResetInitiatedE, %object
 2015              		.size	_ZN6USBHub15bResetInitiatedE, 1
 2016              	_ZN6USBHub15bResetInitiatedE:
 2017 0000 00       		.space	1
 2018              		.text
 2019              	.Letext0:
 2020              		.file 4 "c:\\program files (x86)\\cypress\\psoc creator\\4.1\\psoc creator\\import\\gnu\\arm\\5.4.
 2021              		.file 5 "c:\\program files (x86)\\cypress\\psoc creator\\4.1\\psoc creator\\import\\gnu\\arm\\5.4.
 2022              		.file 6 "address.h"
 2023              		.file 7 "usb_ch9.h"
 2024              		.file 8 "usbhost.h"
 2025              		.file 9 "sink_parser.h"
 2026              		.file 10 "avrpins.h"
 2027              		.file 11 "./Arduino.h"
 2028              		.file 12 "./Stream.h"