ARM GAS  C:\Users\jrdia\AppData\Local\Temp\ccj580XH.s 			page 1


   1              		.syntax unified
   2              		.cpu cortex-m0
   3              		.fpu softvfp
   4              		.eabi_attribute 20, 1
   5              		.eabi_attribute 21, 1
   6              		.eabi_attribute 23, 3
   7              		.eabi_attribute 24, 1
   8              		.eabi_attribute 25, 1
   9              		.eabi_attribute 26, 1
  10              		.eabi_attribute 30, 2
  11              		.eabi_attribute 34, 0
  12              		.eabi_attribute 18, 4
  13              		.thumb
  14              		.syntax unified
  15              		.file	"usbhid.c"
  16              		.text
  17              	.Ltext0:
  18              		.cfi_sections	.debug_frame
  19              		.section	.text._ZN6USBHID14GetReportDescrEtP13USBReadParser,"ax",%progbits
  20              		.align	2
  21              		.global	_ZN6USBHID14GetReportDescrEtP13USBReadParser
  22              		.code	16
  23              		.thumb_func
  24              		.type	_ZN6USBHID14GetReportDescrEtP13USBReadParser, %function
  25              	_ZN6USBHID14GetReportDescrEtP13USBReadParser:
  26              		.fnstart
  27              	.LFB225:
  28              		.file 1 "usbhid.c"
   1:usbhid.c      **** /* Copyright (C) 2011 Circuits At Home, LTD. All rights reserved.
   2:usbhid.c      **** 
   3:usbhid.c      **** This software may be distributed and modified under the terms of the GNU
   4:usbhid.c      **** General Public License version 2 (GPL2) as published by the Free Software
   5:usbhid.c      **** Foundation and appearing in the file GPL2.TXT included in the packaging of
   6:usbhid.c      **** this file. Please note that GPL2 Section 2[b] requires that all works based
   7:usbhid.c      **** on this software must also be made publicly available under the terms of
   8:usbhid.c      **** the GPL2 ("Copyleft").
   9:usbhid.c      **** 
  10:usbhid.c      **** Contact information
  11:usbhid.c      **** -------------------
  12:usbhid.c      **** 
  13:usbhid.c      **** Circuits At Home, LTD
  14:usbhid.c      **** Web      :  http://www.circuitsathome.com
  15:usbhid.c      **** e-mail   :  support@circuitsathome.com
  16:usbhid.c      ****  */
  17:usbhid.c      **** 
  18:usbhid.c      **** #include "usbhid.h"
  19:usbhid.c      **** 
  20:usbhid.c      **** //get HID report descriptor
  21:usbhid.c      **** 
  22:usbhid.c      **** /* WRONG! Endpoint is _ALWAYS_ ZERO for HID! We want the _INTERFACE_ value here!
  23:usbhid.c      **** uint8_t USBHID::GetReportDescr(uint8_t ep, USBReadParser *parser) {
  24:usbhid.c      ****         const uint8_t constBufLen = 64;
  25:usbhid.c      ****         uint8_t buf[constBufLen];
  26:usbhid.c      **** 
  27:usbhid.c      ****         uint8_t rcode = pUsb->ctrlReq(bAddress, ep, bmREQ_HID_REPORT, USB_REQUEST_GET_DESCRIPTOR, 0
  28:usbhid.c      ****                 HID_DESCRIPTOR_REPORT, 0x0000, 128, constBufLen, buf, (USBReadParser*)parser);
  29:usbhid.c      **** 
ARM GAS  C:\Users\jrdia\AppData\Local\Temp\ccj580XH.s 			page 2


  30:usbhid.c      ****         //return ((rcode != hrSTALL) ? rcode : 0);
  31:usbhid.c      ****         return rcode;
  32:usbhid.c      **** }
  33:usbhid.c      ****  */
  34:usbhid.c      **** uint8_t USBHID::GetReportDescr(uint16_t wIndex, USBReadParser *parser) {
  29              		.loc 1 34 0
  30              		.cfi_startproc
  31              		@ args = 0, pretend = 0, frame = 64
  32              		@ frame_needed = 0, uses_anonymous_args = 0
  33              	.LVL0:
  34 0000 0B00     		movs	r3, r1
  35 0002 00B5     		push	{lr}
  36              		.save {lr}
  37              		.cfi_def_cfa_offset 4
  38              		.cfi_offset 14, -4
  39              		.pad #100
  40 0004 99B0     		sub	sp, sp, #100
  41              		.cfi_def_cfa_offset 104
  35:usbhid.c      ****         const uint8_t constBufLen = 64;
  36:usbhid.c      ****         uint8_t buf[constBufLen];
  37:usbhid.c      **** 
  38:usbhid.c      ****         uint8_t rcode = pUsb->ctrlReq(bAddress, 0x00, bmREQ_HID_REPORT, USB_REQUEST_GET_DESCRIPTOR,
  39:usbhid.c      ****                 HID_DESCRIPTOR_REPORT, wIndex, 128, constBufLen, buf, (USBReadParser*)parser);
  42              		.loc 1 39 0
  43 0006 017B     		ldrb	r1, [r0, #12]
  44              	.LVL1:
  45 0008 8068     		ldr	r0, [r0, #8]
  46              	.LVL2:
  47 000a 0393     		str	r3, [sp, #12]
  48 000c 2223     		movs	r3, #34
  49 000e 0792     		str	r2, [sp, #28]
  50 0010 08AA     		add	r2, sp, #32
  51              	.LVL3:
  52 0012 0692     		str	r2, [sp, #24]
  53 0014 0293     		str	r3, [sp, #8]
  54 0016 4022     		movs	r2, #64
  55 0018 0023     		movs	r3, #0
  56 001a 0592     		str	r2, [sp, #20]
  57 001c 0193     		str	r3, [sp, #4]
  58 001e 4032     		adds	r2, r2, #64
  59 0020 0633     		adds	r3, r3, #6
  60 0022 0492     		str	r2, [sp, #16]
  61 0024 0093     		str	r3, [sp]
  62 0026 0022     		movs	r2, #0
  63 0028 7B33     		adds	r3, r3, #123
  64 002a FFF7FEFF 		bl	_ZN3USB7ctrlReqEhhhhhhtttPhP13USBReadParser
  65              	.LVL4:
  40:usbhid.c      **** 
  41:usbhid.c      ****         //return ((rcode != hrSTALL) ? rcode : 0);
  42:usbhid.c      ****         return rcode;
  43:usbhid.c      **** }
  66              		.loc 1 43 0
  67 002e 19B0     		add	sp, sp, #100
  68              		@ sp needed
  69 0030 00BD     		pop	{pc}
  70              		.cfi_endproc
  71              	.LFE225:
ARM GAS  C:\Users\jrdia\AppData\Local\Temp\ccj580XH.s 			page 3


  72              		.fnend
  73              		.size	_ZN6USBHID14GetReportDescrEtP13USBReadParser, .-_ZN6USBHID14GetReportDescrEtP13USBReadParser
  74 0032 C046     		.section	.text._ZN6USBHID9SetReportEhhhhtPh,"ax",%progbits
  75              		.align	2
  76              		.global	_ZN6USBHID9SetReportEhhhhtPh
  77              		.code	16
  78              		.thumb_func
  79              		.type	_ZN6USBHID9SetReportEhhhhtPh, %function
  80              	_ZN6USBHID9SetReportEhhhhtPh:
  81              		.fnstart
  82              	.LFB226:
  44:usbhid.c      **** 
  45:usbhid.c      **** //uint8_t USBHID::getHidDescr( uint8_t ep, uint16_t nbytes, uint8_t* dataptr )
  46:usbhid.c      **** //{
  47:usbhid.c      **** //    return( pUsb->ctrlReq( bAddress, ep, bmREQ_GET_DESCR, USB_REQUEST_GET_DESCRIPTOR, 0x00, HID_D
  48:usbhid.c      **** //}
  49:usbhid.c      **** 
  50:usbhid.c      **** uint8_t USBHID::SetReport(uint8_t ep, uint8_t iface, uint8_t report_type, uint8_t report_id, uint16
  83              		.loc 1 50 0
  84              		.cfi_startproc
  85              		@ args = 12, pretend = 0, frame = 0
  86              		@ frame_needed = 0, uses_anonymous_args = 0
  87              	.LVL5:
  88 0000 F0B5     		push	{r4, r5, r6, r7, lr}
  89              		.save {r4, r5, r6, r7, lr}
  90              		.cfi_def_cfa_offset 20
  91              		.cfi_offset 4, -20
  92              		.cfi_offset 5, -16
  93              		.cfi_offset 6, -12
  94              		.cfi_offset 7, -8
  95              		.cfi_offset 14, -4
  96              		.pad #36
  97 0002 89B0     		sub	sp, sp, #36
  98              		.cfi_def_cfa_offset 56
  99              		.loc 1 50 0
 100 0004 0D00     		movs	r5, r1
  51:usbhid.c      ****         return ( pUsb->ctrlReq(bAddress, ep, bmREQ_HID_OUT, HID_REQUEST_SET_REPORT, report_id, repo
 101              		.loc 1 51 0
 102 0006 0027     		movs	r7, #0
  50:usbhid.c      ****         return ( pUsb->ctrlReq(bAddress, ep, bmREQ_HID_OUT, HID_REQUEST_SET_REPORT, report_id, repo
 103              		.loc 1 50 0
 104 0008 0EA9     		add	r1, sp, #56
 105              	.LVL6:
 106 000a 0E78     		ldrb	r6, [r1]
 107 000c 0FA9     		add	r1, sp, #60
 108              	.LVL7:
 109 000e 0C88     		ldrh	r4, [r1]
 110              		.loc 1 51 0
 111 0010 017B     		ldrb	r1, [r0, #12]
 112              	.LVL8:
 113 0012 8068     		ldr	r0, [r0, #8]
 114              	.LVL9:
 115 0014 0293     		str	r3, [sp, #8]
 116 0016 0923     		movs	r3, #9
 117              	.LVL10:
 118 0018 0797     		str	r7, [sp, #28]
 119 001a 109F     		ldr	r7, [sp, #64]
ARM GAS  C:\Users\jrdia\AppData\Local\Temp\ccj580XH.s 			page 4


 120 001c 0392     		str	r2, [sp, #12]
 121 001e 0093     		str	r3, [sp]
 122 0020 0697     		str	r7, [sp, #24]
 123 0022 0594     		str	r4, [sp, #20]
 124 0024 0494     		str	r4, [sp, #16]
 125 0026 0196     		str	r6, [sp, #4]
 126 0028 1833     		adds	r3, r3, #24
 127 002a 2A00     		movs	r2, r5
 128              	.LVL11:
 129 002c FFF7FEFF 		bl	_ZN3USB7ctrlReqEhhhhhhtttPhP13USBReadParser
 130              	.LVL12:
  52:usbhid.c      **** }
 131              		.loc 1 52 0
 132 0030 09B0     		add	sp, sp, #36
 133              		@ sp needed
 134 0032 F0BD     		pop	{r4, r5, r6, r7, pc}
 135              		.cfi_endproc
 136              	.LFE226:
 137              		.fnend
 138              		.size	_ZN6USBHID9SetReportEhhhhtPh, .-_ZN6USBHID9SetReportEhhhhtPh
 139              		.section	.text._ZN6USBHID9GetReportEhhhhtPh,"ax",%progbits
 140              		.align	2
 141              		.global	_ZN6USBHID9GetReportEhhhhtPh
 142              		.code	16
 143              		.thumb_func
 144              		.type	_ZN6USBHID9GetReportEhhhhtPh, %function
 145              	_ZN6USBHID9GetReportEhhhhtPh:
 146              		.fnstart
 147              	.LFB227:
  53:usbhid.c      **** 
  54:usbhid.c      **** uint8_t USBHID::GetReport(uint8_t ep, uint8_t iface, uint8_t report_type, uint8_t report_id, uint16
 148              		.loc 1 54 0
 149              		.cfi_startproc
 150              		@ args = 12, pretend = 0, frame = 0
 151              		@ frame_needed = 0, uses_anonymous_args = 0
 152              	.LVL13:
 153 0000 F0B5     		push	{r4, r5, r6, r7, lr}
 154              		.save {r4, r5, r6, r7, lr}
 155              		.cfi_def_cfa_offset 20
 156              		.cfi_offset 4, -20
 157              		.cfi_offset 5, -16
 158              		.cfi_offset 6, -12
 159              		.cfi_offset 7, -8
 160              		.cfi_offset 14, -4
 161              		.pad #36
 162 0002 89B0     		sub	sp, sp, #36
 163              		.cfi_def_cfa_offset 56
 164              		.loc 1 54 0
 165 0004 0D00     		movs	r5, r1
  55:usbhid.c      ****         return ( pUsb->ctrlReq(bAddress, ep, bmREQ_HID_IN, HID_REQUEST_GET_REPORT, report_id, repor
 166              		.loc 1 55 0
 167 0006 0027     		movs	r7, #0
  54:usbhid.c      ****         return ( pUsb->ctrlReq(bAddress, ep, bmREQ_HID_IN, HID_REQUEST_GET_REPORT, report_id, repor
 168              		.loc 1 54 0
 169 0008 0EA9     		add	r1, sp, #56
 170              	.LVL14:
 171 000a 0E78     		ldrb	r6, [r1]
ARM GAS  C:\Users\jrdia\AppData\Local\Temp\ccj580XH.s 			page 5


 172 000c 0FA9     		add	r1, sp, #60
 173              	.LVL15:
 174 000e 0C88     		ldrh	r4, [r1]
 175              		.loc 1 55 0
 176 0010 017B     		ldrb	r1, [r0, #12]
 177              	.LVL16:
 178 0012 8068     		ldr	r0, [r0, #8]
 179              	.LVL17:
 180 0014 0293     		str	r3, [sp, #8]
 181 0016 0123     		movs	r3, #1
 182              	.LVL18:
 183 0018 0797     		str	r7, [sp, #28]
 184 001a 109F     		ldr	r7, [sp, #64]
 185 001c 0392     		str	r2, [sp, #12]
 186 001e 0093     		str	r3, [sp]
 187 0020 0697     		str	r7, [sp, #24]
 188 0022 0594     		str	r4, [sp, #20]
 189 0024 0494     		str	r4, [sp, #16]
 190 0026 0196     		str	r6, [sp, #4]
 191 0028 A033     		adds	r3, r3, #160
 192 002a 2A00     		movs	r2, r5
 193              	.LVL19:
 194 002c FFF7FEFF 		bl	_ZN3USB7ctrlReqEhhhhhhtttPhP13USBReadParser
 195              	.LVL20:
  56:usbhid.c      **** }
 196              		.loc 1 56 0
 197 0030 09B0     		add	sp, sp, #36
 198              		@ sp needed
 199 0032 F0BD     		pop	{r4, r5, r6, r7, pc}
 200              		.cfi_endproc
 201              	.LFE227:
 202              		.fnend
 203              		.size	_ZN6USBHID9GetReportEhhhhtPh, .-_ZN6USBHID9GetReportEhhhhtPh
 204              		.section	.text._ZN6USBHID7GetIdleEhhPh,"ax",%progbits
 205              		.align	2
 206              		.global	_ZN6USBHID7GetIdleEhhPh
 207              		.code	16
 208              		.thumb_func
 209              		.type	_ZN6USBHID7GetIdleEhhPh, %function
 210              	_ZN6USBHID7GetIdleEhhPh:
 211              		.fnstart
 212              	.LFB228:
  57:usbhid.c      **** 
  58:usbhid.c      **** uint8_t USBHID::GetIdle(uint8_t iface, uint8_t reportID, uint8_t* dataptr) {
 213              		.loc 1 58 0
 214              		.cfi_startproc
 215              		@ args = 0, pretend = 0, frame = 0
 216              		@ frame_needed = 0, uses_anonymous_args = 0
 217              	.LVL21:
 218 0000 30B5     		push	{r4, r5, lr}
 219              		.save {r4, r5, lr}
 220              		.cfi_def_cfa_offset 12
 221              		.cfi_offset 4, -12
 222              		.cfi_offset 5, -8
 223              		.cfi_offset 14, -4
 224              		.pad #36
 225 0002 89B0     		sub	sp, sp, #36
ARM GAS  C:\Users\jrdia\AppData\Local\Temp\ccj580XH.s 			page 6


 226              		.cfi_def_cfa_offset 48
 227              		.loc 1 58 0
 228 0004 0D00     		movs	r5, r1
  59:usbhid.c      ****         return ( pUsb->ctrlReq(bAddress, 0, bmREQ_HID_IN, HID_REQUEST_GET_IDLE, reportID, 0, iface,
 229              		.loc 1 59 0
 230 0006 017B     		ldrb	r1, [r0, #12]
 231              	.LVL22:
 232 0008 8068     		ldr	r0, [r0, #8]
 233              	.LVL23:
 234 000a 0693     		str	r3, [sp, #24]
 235 000c 0123     		movs	r3, #1
 236              	.LVL24:
 237 000e 0024     		movs	r4, #0
 238 0010 0593     		str	r3, [sp, #20]
 239 0012 0493     		str	r3, [sp, #16]
 240 0014 0133     		adds	r3, r3, #1
 241 0016 0192     		str	r2, [sp, #4]
 242 0018 0093     		str	r3, [sp]
 243 001a 0794     		str	r4, [sp, #28]
 244 001c 0395     		str	r5, [sp, #12]
 245 001e 0294     		str	r4, [sp, #8]
 246 0020 9F33     		adds	r3, r3, #159
 247 0022 0022     		movs	r2, #0
 248              	.LVL25:
 249 0024 FFF7FEFF 		bl	_ZN3USB7ctrlReqEhhhhhhtttPhP13USBReadParser
 250              	.LVL26:
  60:usbhid.c      **** }
 251              		.loc 1 60 0
 252 0028 09B0     		add	sp, sp, #36
 253              		@ sp needed
 254 002a 30BD     		pop	{r4, r5, pc}
 255              		.cfi_endproc
 256              	.LFE228:
 257              		.fnend
 258              		.size	_ZN6USBHID7GetIdleEhhPh, .-_ZN6USBHID7GetIdleEhhPh
 259              		.section	.text._ZN6USBHID7SetIdleEhhh,"ax",%progbits
 260              		.align	2
 261              		.global	_ZN6USBHID7SetIdleEhhh
 262              		.code	16
 263              		.thumb_func
 264              		.type	_ZN6USBHID7SetIdleEhhh, %function
 265              	_ZN6USBHID7SetIdleEhhh:
 266              		.fnstart
 267              	.LFB229:
  61:usbhid.c      **** 
  62:usbhid.c      **** uint8_t USBHID::SetIdle(uint8_t iface, uint8_t reportID, uint8_t duration) {
 268              		.loc 1 62 0
 269              		.cfi_startproc
 270              		@ args = 0, pretend = 0, frame = 0
 271              		@ frame_needed = 0, uses_anonymous_args = 0
 272              	.LVL27:
 273 0000 30B5     		push	{r4, r5, lr}
 274              		.save {r4, r5, lr}
 275              		.cfi_def_cfa_offset 12
 276              		.cfi_offset 4, -12
 277              		.cfi_offset 5, -8
 278              		.cfi_offset 14, -4
ARM GAS  C:\Users\jrdia\AppData\Local\Temp\ccj580XH.s 			page 7


 279              		.pad #36
 280 0002 89B0     		sub	sp, sp, #36
 281              		.cfi_def_cfa_offset 48
  63:usbhid.c      ****         return ( pUsb->ctrlReq(bAddress, 0, bmREQ_HID_OUT, HID_REQUEST_SET_IDLE, reportID, duration
 282              		.loc 1 63 0
 283 0004 0024     		movs	r4, #0
  62:usbhid.c      ****         return ( pUsb->ctrlReq(bAddress, 0, bmREQ_HID_OUT, HID_REQUEST_SET_IDLE, reportID, duration
 284              		.loc 1 62 0
 285 0006 0D00     		movs	r5, r1
 286              		.loc 1 63 0
 287 0008 017B     		ldrb	r1, [r0, #12]
 288              	.LVL28:
 289 000a 8068     		ldr	r0, [r0, #8]
 290              	.LVL29:
 291 000c 0293     		str	r3, [sp, #8]
 292 000e 0A23     		movs	r3, #10
 293              	.LVL30:
 294 0010 0192     		str	r2, [sp, #4]
 295 0012 0093     		str	r3, [sp]
 296 0014 0794     		str	r4, [sp, #28]
 297 0016 0694     		str	r4, [sp, #24]
 298 0018 0594     		str	r4, [sp, #20]
 299 001a 0494     		str	r4, [sp, #16]
 300 001c 0395     		str	r5, [sp, #12]
 301 001e 1733     		adds	r3, r3, #23
 302 0020 0022     		movs	r2, #0
 303              	.LVL31:
 304 0022 FFF7FEFF 		bl	_ZN3USB7ctrlReqEhhhhhhtttPhP13USBReadParser
 305              	.LVL32:
  64:usbhid.c      **** }
 306              		.loc 1 64 0
 307 0026 09B0     		add	sp, sp, #36
 308              		@ sp needed
 309 0028 30BD     		pop	{r4, r5, pc}
 310              		.cfi_endproc
 311              	.LFE229:
 312              		.fnend
 313              		.size	_ZN6USBHID7SetIdleEhhh, .-_ZN6USBHID7SetIdleEhhh
 314 002a C046     		.section	.text._ZN6USBHID11SetProtocolEhh,"ax",%progbits
 315              		.align	2
 316              		.global	_ZN6USBHID11SetProtocolEhh
 317              		.code	16
 318              		.thumb_func
 319              		.type	_ZN6USBHID11SetProtocolEhh, %function
 320              	_ZN6USBHID11SetProtocolEhh:
 321              		.fnstart
 322              	.LFB230:
  65:usbhid.c      **** 
  66:usbhid.c      **** uint8_t USBHID::SetProtocol(uint8_t iface, uint8_t protocol) {
 323              		.loc 1 66 0
 324              		.cfi_startproc
 325              		@ args = 0, pretend = 0, frame = 0
 326              		@ frame_needed = 0, uses_anonymous_args = 0
 327              	.LVL33:
  67:usbhid.c      ****         return ( pUsb->ctrlReq(bAddress, 0, bmREQ_HID_OUT, HID_REQUEST_SET_PROTOCOL, protocol, 0x00
 328              		.loc 1 67 0
 329 0000 0023     		movs	r3, #0
ARM GAS  C:\Users\jrdia\AppData\Local\Temp\ccj580XH.s 			page 8


  66:usbhid.c      ****         return ( pUsb->ctrlReq(bAddress, 0, bmREQ_HID_OUT, HID_REQUEST_SET_PROTOCOL, protocol, 0x00
 330              		.loc 1 66 0
 331 0002 10B5     		push	{r4, lr}
 332              		.save {r4, lr}
 333              		.cfi_def_cfa_offset 8
 334              		.cfi_offset 4, -8
 335              		.cfi_offset 14, -4
 336 0004 0C00     		movs	r4, r1
 337              		.pad #32
 338 0006 88B0     		sub	sp, sp, #32
 339              		.cfi_def_cfa_offset 40
 340              		.loc 1 67 0
 341 0008 017B     		ldrb	r1, [r0, #12]
 342              	.LVL34:
 343 000a 8068     		ldr	r0, [r0, #8]
 344              	.LVL35:
 345 000c 0793     		str	r3, [sp, #28]
 346 000e 0693     		str	r3, [sp, #24]
 347 0010 0593     		str	r3, [sp, #20]
 348 0012 0493     		str	r3, [sp, #16]
 349 0014 0293     		str	r3, [sp, #8]
 350 0016 0B33     		adds	r3, r3, #11
 351 0018 0192     		str	r2, [sp, #4]
 352 001a 0093     		str	r3, [sp]
 353 001c 0394     		str	r4, [sp, #12]
 354 001e 1633     		adds	r3, r3, #22
 355 0020 0022     		movs	r2, #0
 356              	.LVL36:
 357 0022 FFF7FEFF 		bl	_ZN3USB7ctrlReqEhhhhhhtttPhP13USBReadParser
 358              	.LVL37:
  68:usbhid.c      **** }
 359              		.loc 1 68 0
 360 0026 08B0     		add	sp, sp, #32
 361              		@ sp needed
 362 0028 10BD     		pop	{r4, pc}
 363              		.cfi_endproc
 364              	.LFE230:
 365              		.fnend
 366              		.size	_ZN6USBHID11SetProtocolEhh, .-_ZN6USBHID11SetProtocolEhh
 367 002a C046     		.section	.text._ZN6USBHID11GetProtocolEhPh,"ax",%progbits
 368              		.align	2
 369              		.global	_ZN6USBHID11GetProtocolEhPh
 370              		.code	16
 371              		.thumb_func
 372              		.type	_ZN6USBHID11GetProtocolEhPh, %function
 373              	_ZN6USBHID11GetProtocolEhPh:
 374              		.fnstart
 375              	.LFB231:
  69:usbhid.c      **** 
  70:usbhid.c      **** uint8_t USBHID::GetProtocol(uint8_t iface, uint8_t* dataptr) {
 376              		.loc 1 70 0
 377              		.cfi_startproc
 378              		@ args = 0, pretend = 0, frame = 0
 379              		@ frame_needed = 0, uses_anonymous_args = 0
 380              	.LVL38:
 381 0000 10B5     		push	{r4, lr}
 382              		.save {r4, lr}
ARM GAS  C:\Users\jrdia\AppData\Local\Temp\ccj580XH.s 			page 9


 383              		.cfi_def_cfa_offset 8
 384              		.cfi_offset 4, -8
 385              		.cfi_offset 14, -4
  71:usbhid.c      ****         return ( pUsb->ctrlReq(bAddress, 0, bmREQ_HID_IN, HID_REQUEST_GET_PROTOCOL, 0x00, 0x00, ifa
 386              		.loc 1 71 0
 387 0002 0023     		movs	r3, #0
  70:usbhid.c      ****         return ( pUsb->ctrlReq(bAddress, 0, bmREQ_HID_IN, HID_REQUEST_GET_PROTOCOL, 0x00, 0x00, ifa
 388              		.loc 1 70 0
 389              		.pad #32
 390 0004 88B0     		sub	sp, sp, #32
 391              		.cfi_def_cfa_offset 40
  70:usbhid.c      ****         return ( pUsb->ctrlReq(bAddress, 0, bmREQ_HID_IN, HID_REQUEST_GET_PROTOCOL, 0x00, 0x00, ifa
 392              		.loc 1 70 0
 393 0006 0C00     		movs	r4, r1
 394              		.loc 1 71 0
 395 0008 017B     		ldrb	r1, [r0, #12]
 396              	.LVL39:
 397 000a 8068     		ldr	r0, [r0, #8]
 398              	.LVL40:
 399 000c 0692     		str	r2, [sp, #24]
 400 000e 0122     		movs	r2, #1
 401              	.LVL41:
 402 0010 0793     		str	r3, [sp, #28]
 403 0012 0293     		str	r3, [sp, #8]
 404 0014 0193     		str	r3, [sp, #4]
 405 0016 0333     		adds	r3, r3, #3
 406 0018 0592     		str	r2, [sp, #20]
 407 001a 0492     		str	r2, [sp, #16]
 408 001c 0093     		str	r3, [sp]
 409 001e 0394     		str	r4, [sp, #12]
 410 0020 9E33     		adds	r3, r3, #158
 411 0022 0022     		movs	r2, #0
 412 0024 FFF7FEFF 		bl	_ZN3USB7ctrlReqEhhhhhhtttPhP13USBReadParser
 413              	.LVL42:
  72:usbhid.c      **** }
 414              		.loc 1 72 0
 415 0028 08B0     		add	sp, sp, #32
 416              		@ sp needed
 417 002a 10BD     		pop	{r4, pc}
 418              		.cfi_endproc
 419              	.LFE231:
 420              		.fnend
 421              		.size	_ZN6USBHID11GetProtocolEhPh, .-_ZN6USBHID11GetProtocolEhPh
 422              		.section	.text._ZN6USBHID23PrintEndpointDescriptorEPK23USB_ENDPOINT_DESCRIPTOR,"ax",%progbits
 423              		.align	2
 424              		.global	_ZN6USBHID23PrintEndpointDescriptorEPK23USB_ENDPOINT_DESCRIPTOR
 425              		.code	16
 426              		.thumb_func
 427              		.type	_ZN6USBHID23PrintEndpointDescriptorEPK23USB_ENDPOINT_DESCRIPTOR, %function
 428              	_ZN6USBHID23PrintEndpointDescriptorEPK23USB_ENDPOINT_DESCRIPTOR:
 429              		.fnstart
 430              	.LFB240:
 431              		.cfi_startproc
 432              		@ args = 0, pretend = 0, frame = 0
 433              		@ frame_needed = 0, uses_anonymous_args = 0
 434              		@ link register save eliminated.
 435              		@ sp needed
ARM GAS  C:\Users\jrdia\AppData\Local\Temp\ccj580XH.s 			page 10


 436 0000 7047     		bx	lr
 437              		.cfi_endproc
 438              	.LFE240:
 439              		.cantunwind
 440              		.fnend
 441              		.size	_ZN6USBHID23PrintEndpointDescriptorEPK23USB_ENDPOINT_DESCRIPTOR, .-_ZN6USBHID23PrintEndpoint
 442 0002 C046     		.section	.text._ZN6USBHID18PrintHidDescriptorEPK18USB_HID_DESCRIPTOR,"ax",%progbits
 443              		.align	2
 444              		.global	_ZN6USBHID18PrintHidDescriptorEPK18USB_HID_DESCRIPTOR
 445              		.code	16
 446              		.thumb_func
 447              		.type	_ZN6USBHID18PrintHidDescriptorEPK18USB_HID_DESCRIPTOR, %function
 448              	_ZN6USBHID18PrintHidDescriptorEPK18USB_HID_DESCRIPTOR:
 449              		.fnstart
 450              	.LFB233:
  73:usbhid.c      **** 
  74:usbhid.c      **** void USBHID::PrintEndpointDescriptor(const USB_ENDPOINT_DESCRIPTOR* ep_ptr) {
  75:usbhid.c      ****         Notify(PSTR("Endpoint descriptor:"), 0x80);
  76:usbhid.c      ****         Notify(PSTR("\r\nLength:\t\t"), 0x80);
  77:usbhid.c      ****         D_PrintHex<uint8_t > (ep_ptr->bLength, 0x80);
  78:usbhid.c      ****         Notify(PSTR("\r\nType:\t\t"), 0x80);
  79:usbhid.c      ****         D_PrintHex<uint8_t > (ep_ptr->bDescriptorType, 0x80);
  80:usbhid.c      ****         Notify(PSTR("\r\nAddress:\t"), 0x80);
  81:usbhid.c      ****         D_PrintHex<uint8_t > (ep_ptr->bEndpointAddress, 0x80);
  82:usbhid.c      ****         Notify(PSTR("\r\nAttributes:\t"), 0x80);
  83:usbhid.c      ****         D_PrintHex<uint8_t > (ep_ptr->bmAttributes, 0x80);
  84:usbhid.c      ****         Notify(PSTR("\r\nMaxPktSize:\t"), 0x80);
  85:usbhid.c      ****         D_PrintHex<uint16_t > (ep_ptr->wMaxPacketSize, 0x80);
  86:usbhid.c      ****         Notify(PSTR("\r\nPoll Intrv:\t"), 0x80);
  87:usbhid.c      ****         D_PrintHex<uint8_t > (ep_ptr->bInterval, 0x80);
  88:usbhid.c      **** }
  89:usbhid.c      **** 
  90:usbhid.c      **** void USBHID::PrintHidDescriptor(const USB_HID_DESCRIPTOR *pDesc) {
 451              		.loc 1 90 0
 452              		.cfi_startproc
 453              		@ args = 0, pretend = 0, frame = 0
 454              		@ frame_needed = 0, uses_anonymous_args = 0
 455              		@ link register save eliminated.
 456              	.LVL43:
  91:usbhid.c      ****         Notify(PSTR("\r\n\r\nHID Descriptor:\r\n"), 0x80);
  92:usbhid.c      ****         Notify(PSTR("bDescLength:\t\t"), 0x80);
  93:usbhid.c      ****         D_PrintHex<uint8_t > (pDesc->bLength, 0x80);
  94:usbhid.c      **** 
  95:usbhid.c      ****         Notify(PSTR("\r\nbDescriptorType:\t"), 0x80);
  96:usbhid.c      ****         D_PrintHex<uint8_t > (pDesc->bDescriptorType, 0x80);
  97:usbhid.c      **** 
  98:usbhid.c      ****         Notify(PSTR("\r\nbcdHID:\t\t\t"), 0x80);
  99:usbhid.c      ****         D_PrintHex<uint16_t > (pDesc->bcdHID, 0x80);
 100:usbhid.c      **** 
 101:usbhid.c      ****         Notify(PSTR("\r\nbCountryCode:\t\t"), 0x80);
 102:usbhid.c      ****         D_PrintHex<uint8_t > (pDesc->bCountryCode, 0x80);
 103:usbhid.c      **** 
 104:usbhid.c      ****         Notify(PSTR("\r\nbNumDescriptors:\t"), 0x80);
 105:usbhid.c      ****         D_PrintHex<uint8_t > (pDesc->bNumDescriptors, 0x80);
 106:usbhid.c      **** 
 107:usbhid.c      ****         Notify(PSTR("\r\nbDescrType:\t\t"), 0x80);
 108:usbhid.c      ****         D_PrintHex<uint8_t > (pDesc->bDescrType, 0x80);
ARM GAS  C:\Users\jrdia\AppData\Local\Temp\ccj580XH.s 			page 11


 109:usbhid.c      **** 
 110:usbhid.c      ****         Notify(PSTR("\r\nwDescriptorLength:\t"), 0x80);
 111:usbhid.c      ****         D_PrintHex<uint16_t > (pDesc->wDescriptorLength, 0x80);
 112:usbhid.c      **** }
 457              		.loc 1 112 0
 458              		@ sp needed
 459 0000 7047     		bx	lr
 460              		.cfi_endproc
 461              	.LFE233:
 462              		.cantunwind
 463              		.fnend
 464              		.size	_ZN6USBHID18PrintHidDescriptorEPK18USB_HID_DESCRIPTOR, .-_ZN6USBHID18PrintHidDescriptorEPK18
 465 0002 C046     		.text
 466              	.Letext0:
 467              		.file 2 "c:\\program files (x86)\\cypress\\psoc creator\\4.1\\psoc creator\\import\\gnu\\arm\\5.4.
 468              		.file 3 "c:\\program files (x86)\\cypress\\psoc creator\\4.1\\psoc creator\\import\\gnu\\arm\\5.4.
 469              		.file 4 "address.h"
 470              		.file 5 "usb_ch9.h"
 471              		.file 6 "usbhost.h"
 472              		.file 7 "UsbCore.h"
 473              		.file 8 "usbhid.h"
 474              		.file 9 "confdescparser.h"
 475              		.file 10 "printhex.h"
 476              		.file 11 "sink_parser.h"
 477              		.file 12 "avrpins.h"
 478              		.file 13 "hidusagestr.h"
 479              		.file 14 "./Stream.h"