ARM GAS  C:\Users\jrdia\AppData\Local\Temp\ccJ9Fnzg.s 			page 1


   1              		.syntax unified
   2              		.cpu cortex-m0
   3              		.fpu softvfp
   4              		.eabi_attribute 20, 1
   5              		.eabi_attribute 21, 1
   6              		.eabi_attribute 23, 3
   7              		.eabi_attribute 24, 1
   8              		.eabi_attribute 25, 1
   9              		.eabi_attribute 26, 1
  10              		.eabi_attribute 30, 2
  11              		.eabi_attribute 34, 0
  12              		.eabi_attribute 18, 4
  13              		.thumb
  14              		.syntax unified
  15              		.file	"usbhub.c"
  16              		.text
  17              	.Ltext0:
  18              		.cfi_sections	.debug_frame
  19              		.section	.text._ZN15USBDeviceConfig4InitEhhb,"axG",%progbits,_ZN15USBDeviceConfig4InitEhhb,comdat
  20              		.align	2
  21              		.weak	_ZN15USBDeviceConfig4InitEhhb
  22              		.code	16
  23              		.thumb_func
  24              		.type	_ZN15USBDeviceConfig4InitEhhb, %function
  25              	_ZN15USBDeviceConfig4InitEhhb:
  26              		.fnstart
  27              	.LFB179:
  28              		.file 1 "UsbCore.h"
   1:UsbCore.h     **** /* Copyright (C) 2011 Circuits At Home, LTD. All rights reserved.
   2:UsbCore.h     **** 
   3:UsbCore.h     **** This software may be distributed and modified under the terms of the GNU
   4:UsbCore.h     **** General Public License version 2 (GPL2) as published by the Free Software
   5:UsbCore.h     **** Foundation and appearing in the file GPL2.TXT included in the packaging of
   6:UsbCore.h     **** this file. Please note that GPL2 Section 2[b] requires that all works based
   7:UsbCore.h     **** on this software must also be made publicly available under the terms of
   8:UsbCore.h     **** the GPL2 ("Copyleft").
   9:UsbCore.h     **** 
  10:UsbCore.h     **** Contact information
  11:UsbCore.h     **** -------------------
  12:UsbCore.h     **** 
  13:UsbCore.h     **** Circuits At Home, LTD
  14:UsbCore.h     **** Web      :  http://www.circuitsathome.com
  15:UsbCore.h     **** e-mail   :  support@circuitsathome.com
  16:UsbCore.h     ****  */
  17:UsbCore.h     **** 
  18:UsbCore.h     **** #if !defined(_usb_h_) || defined(USBCORE_H)
  19:UsbCore.h     **** #error "Never include UsbCore.h directly; include Usb.h instead"
  20:UsbCore.h     **** #else
  21:UsbCore.h     **** #define USBCORE_H
  22:UsbCore.h     **** 
  23:UsbCore.h     **** // Not used anymore? If anyone uses this, please let us know so that this may be
  24:UsbCore.h     **** // moved to the proper place, settings.h.
  25:UsbCore.h     **** //#define USB_METHODS_INLINE
  26:UsbCore.h     **** 
  27:UsbCore.h     **** /* shield pins. First parameter - SS pin, second parameter - INT pin */
  28:UsbCore.h     **** #ifdef BOARD_BLACK_WIDDOW
  29:UsbCore.h     **** typedef MAX3421e<P6, P3> MAX3421E; // Black Widow
ARM GAS  C:\Users\jrdia\AppData\Local\Temp\ccJ9Fnzg.s 			page 2


  30:UsbCore.h     **** #elif defined(CORE_TEENSY) && (defined(__AVR_AT90USB646__) || defined(__AVR_AT90USB1286__))
  31:UsbCore.h     **** #if EXT_RAM
  32:UsbCore.h     **** typedef MAX3421e<P20, P7> MAX3421E; // Teensy++ 2.0 with XMEM2
  33:UsbCore.h     **** #else
  34:UsbCore.h     **** typedef MAX3421e<P9, P8> MAX3421E; // Teensy++ 1.0 and 2.0
  35:UsbCore.h     **** #endif
  36:UsbCore.h     **** #elif defined(BOARD_MEGA_ADK)
  37:UsbCore.h     **** typedef MAX3421e<P53, P54> MAX3421E; // Arduino Mega ADK
  38:UsbCore.h     **** #elif defined(ARDUINO_AVR_BALANDUINO)
  39:UsbCore.h     **** typedef MAX3421e<P20, P19> MAX3421E; // Balanduino
  40:UsbCore.h     **** #elif defined(__ARDUINO_X86__) && PLATFORM_ID == 0x06
  41:UsbCore.h     **** typedef MAX3421e<P3, P2> MAX3421E; // The Intel Galileo supports much faster read and write speed a
  42:UsbCore.h     **** #elif defined(ESP8266)
  43:UsbCore.h     **** typedef MAX3421e<P15, P5> MAX3421E; // ESP8266 boards
  44:UsbCore.h     **** #else
  45:UsbCore.h     **** typedef MAX3421e<P10, P9> MAX3421E; // Official Arduinos (UNO, Duemilanove, Mega, 2560, Leonardo, D
  46:UsbCore.h     **** #endif
  47:UsbCore.h     **** 
  48:UsbCore.h     **** /* Common setup data constant combinations  */
  49:UsbCore.h     **** #define bmREQ_GET_DESCR     USB_SETUP_DEVICE_TO_HOST|USB_SETUP_TYPE_STANDARD|USB_SETUP_RECIPIENT_DE
  50:UsbCore.h     **** #define bmREQ_SET           USB_SETUP_HOST_TO_DEVICE|USB_SETUP_TYPE_STANDARD|USB_SETUP_RECIPIENT_DE
  51:UsbCore.h     **** #define bmREQ_CL_GET_INTF   USB_SETUP_DEVICE_TO_HOST|USB_SETUP_TYPE_CLASS|USB_SETUP_RECIPIENT_INTER
  52:UsbCore.h     **** 
  53:UsbCore.h     **** // D7           data transfer direction (0 - host-to-device, 1 - device-to-host)
  54:UsbCore.h     **** // D6-5         Type (0- standard, 1 - class, 2 - vendor, 3 - reserved)
  55:UsbCore.h     **** // D4-0         Recipient (0 - device, 1 - interface, 2 - endpoint, 3 - other, 4..31 - reserved)
  56:UsbCore.h     **** 
  57:UsbCore.h     **** // USB Device Classes
  58:UsbCore.h     **** #define USB_CLASS_USE_CLASS_INFO        0x00    // Use Class Info in the Interface Descriptors
  59:UsbCore.h     **** #define USB_CLASS_AUDIO                 0x01    // Audio
  60:UsbCore.h     **** #define USB_CLASS_COM_AND_CDC_CTRL      0x02    // Communications and CDC Control
  61:UsbCore.h     **** #define USB_CLASS_HID                   0x03    // HID
  62:UsbCore.h     **** #define USB_CLASS_PHYSICAL              0x05    // Physical
  63:UsbCore.h     **** #define USB_CLASS_IMAGE                 0x06    // Image
  64:UsbCore.h     **** #define USB_CLASS_PRINTER               0x07    // Printer
  65:UsbCore.h     **** #define USB_CLASS_MASS_STORAGE          0x08    // Mass Storage
  66:UsbCore.h     **** #define USB_CLASS_HUB                   0x09    // Hub
  67:UsbCore.h     **** #define USB_CLASS_CDC_DATA              0x0a    // CDC-Data
  68:UsbCore.h     **** #define USB_CLASS_SMART_CARD            0x0b    // Smart-Card
  69:UsbCore.h     **** #define USB_CLASS_CONTENT_SECURITY      0x0d    // Content Security
  70:UsbCore.h     **** #define USB_CLASS_VIDEO                 0x0e    // Video
  71:UsbCore.h     **** #define USB_CLASS_PERSONAL_HEALTH       0x0f    // Personal Healthcare
  72:UsbCore.h     **** #define USB_CLASS_DIAGNOSTIC_DEVICE     0xdc    // Diagnostic Device
  73:UsbCore.h     **** #define USB_CLASS_WIRELESS_CTRL         0xe0    // Wireless Controller
  74:UsbCore.h     **** #define USB_CLASS_MISC                  0xef    // Miscellaneous
  75:UsbCore.h     **** #define USB_CLASS_APP_SPECIFIC          0xfe    // Application Specific
  76:UsbCore.h     **** #define USB_CLASS_VENDOR_SPECIFIC       0xff    // Vendor Specific
  77:UsbCore.h     **** 
  78:UsbCore.h     **** // Additional Error Codes
  79:UsbCore.h     **** #define USB_DEV_CONFIG_ERROR_DEVICE_NOT_SUPPORTED       0xD1
  80:UsbCore.h     **** #define USB_DEV_CONFIG_ERROR_DEVICE_INIT_INCOMPLETE     0xD2
  81:UsbCore.h     **** #define USB_ERROR_UNABLE_TO_REGISTER_DEVICE_CLASS       0xD3
  82:UsbCore.h     **** #define USB_ERROR_OUT_OF_ADDRESS_SPACE_IN_POOL          0xD4
  83:UsbCore.h     **** #define USB_ERROR_HUB_ADDRESS_OVERFLOW                  0xD5
  84:UsbCore.h     **** #define USB_ERROR_ADDRESS_NOT_FOUND_IN_POOL             0xD6
  85:UsbCore.h     **** #define USB_ERROR_EPINFO_IS_NULL                        0xD7
  86:UsbCore.h     **** #define USB_ERROR_INVALID_ARGUMENT                      0xD8
ARM GAS  C:\Users\jrdia\AppData\Local\Temp\ccJ9Fnzg.s 			page 3


  87:UsbCore.h     **** #define USB_ERROR_CLASS_INSTANCE_ALREADY_IN_USE         0xD9
  88:UsbCore.h     **** #define USB_ERROR_INVALID_MAX_PKT_SIZE                  0xDA
  89:UsbCore.h     **** #define USB_ERROR_EP_NOT_FOUND_IN_TBL                   0xDB
  90:UsbCore.h     **** #define USB_ERROR_CONFIG_REQUIRES_ADDITIONAL_RESET      0xE0
  91:UsbCore.h     **** #define USB_ERROR_FailGetDevDescr                       0xE1
  92:UsbCore.h     **** #define USB_ERROR_FailSetDevTblEntry                    0xE2
  93:UsbCore.h     **** #define USB_ERROR_FailGetConfDescr                      0xE3
  94:UsbCore.h     **** #define USB_ERROR_TRANSFER_TIMEOUT                      0xFF
  95:UsbCore.h     **** 
  96:UsbCore.h     **** #define USB_XFER_TIMEOUT        5000    // (5000) USB transfer timeout in milliseconds, per section
  97:UsbCore.h     **** //#define USB_NAK_LIMIT         32000   // NAK limit for a transfer. 0 means NAKs are not counted
  98:UsbCore.h     **** #define USB_RETRY_LIMIT         3       // 3 retry limit for a transfer
  99:UsbCore.h     **** #define USB_SETTLE_DELAY        200     // settle delay in milliseconds
 100:UsbCore.h     **** 
 101:UsbCore.h     **** #define USB_NUMDEVICES          16      //number of USB devices
 102:UsbCore.h     **** //#define HUB_MAX_HUBS          7       // maximum number of hubs that can be attached to the host 
 103:UsbCore.h     **** #define HUB_PORT_RESET_DELAY    20      // hub port reset delay 10 ms recomended, can be up to 20 m
 104:UsbCore.h     **** 
 105:UsbCore.h     **** /* USB state machine states */
 106:UsbCore.h     **** #define USB_STATE_MASK                                      0xf0
 107:UsbCore.h     **** 
 108:UsbCore.h     **** #define USB_STATE_DETACHED                                  0x10
 109:UsbCore.h     **** #define USB_DETACHED_SUBSTATE_INITIALIZE                    0x11
 110:UsbCore.h     **** #define USB_DETACHED_SUBSTATE_WAIT_FOR_DEVICE               0x12
 111:UsbCore.h     **** #define USB_DETACHED_SUBSTATE_ILLEGAL                       0x13
 112:UsbCore.h     **** #define USB_ATTACHED_SUBSTATE_SETTLE                        0x20
 113:UsbCore.h     **** #define USB_ATTACHED_SUBSTATE_RESET_DEVICE                  0x30
 114:UsbCore.h     **** #define USB_ATTACHED_SUBSTATE_WAIT_RESET_COMPLETE           0x40
 115:UsbCore.h     **** #define USB_ATTACHED_SUBSTATE_WAIT_SOF                      0x50
 116:UsbCore.h     **** #define USB_ATTACHED_SUBSTATE_WAIT_RESET                    0x51
 117:UsbCore.h     **** #define USB_ATTACHED_SUBSTATE_GET_DEVICE_DESCRIPTOR_SIZE    0x60
 118:UsbCore.h     **** #define USB_STATE_ADDRESSING                                0x70
 119:UsbCore.h     **** #define USB_STATE_CONFIGURING                               0x80
 120:UsbCore.h     **** #define USB_STATE_RUNNING                                   0x90
 121:UsbCore.h     **** #define USB_STATE_ERROR                                     0xa0
 122:UsbCore.h     **** 
 123:UsbCore.h     **** class USBDeviceConfig {
 124:UsbCore.h     **** public:
 125:UsbCore.h     **** 
 126:UsbCore.h     ****         virtual uint8_t Init(uint8_t parent, uint8_t port, bool lowspeed) {
  29              		.loc 1 126 0
  30              		.cfi_startproc
  31              		@ args = 0, pretend = 0, frame = 0
  32              		@ frame_needed = 0, uses_anonymous_args = 0
  33              		@ link register save eliminated.
  34              	.LVL0:
 127:UsbCore.h     ****                 return 0;
 128:UsbCore.h     ****         }
  35              		.loc 1 128 0
  36 0000 0020     		movs	r0, #0
  37              	.LVL1:
  38              		@ sp needed
  39 0002 7047     		bx	lr
  40              		.cfi_endproc
  41              	.LFE179:
  42              		.cantunwind
  43              		.fnend
ARM GAS  C:\Users\jrdia\AppData\Local\Temp\ccJ9Fnzg.s 			page 4


  44              		.size	_ZN15USBDeviceConfig4InitEhhb, .-_ZN15USBDeviceConfig4InitEhhb
  45              		.section	.text._ZN15USBDeviceConfig15ConfigureDeviceEhhb,"axG",%progbits,_ZN15USBDeviceConfig15Con
  46              		.align	2
  47              		.weak	_ZN15USBDeviceConfig15ConfigureDeviceEhhb
  48              		.code	16
  49              		.thumb_func
  50              		.type	_ZN15USBDeviceConfig15ConfigureDeviceEhhb, %function
  51              	_ZN15USBDeviceConfig15ConfigureDeviceEhhb:
  52              		.fnstart
  53              	.LFB180:
 129:UsbCore.h     **** 
 130:UsbCore.h     ****         virtual uint8_t ConfigureDevice(uint8_t parent, uint8_t port, bool lowspeed) {
  54              		.loc 1 130 0
  55              		.cfi_startproc
  56              		@ args = 0, pretend = 0, frame = 0
  57              		@ frame_needed = 0, uses_anonymous_args = 0
  58              		@ link register save eliminated.
  59              	.LVL2:
 131:UsbCore.h     ****                 return 0;
 132:UsbCore.h     ****         }
  60              		.loc 1 132 0
  61 0000 0020     		movs	r0, #0
  62              	.LVL3:
  63              		@ sp needed
  64 0002 7047     		bx	lr
  65              		.cfi_endproc
  66              	.LFE180:
  67              		.cantunwind
  68              		.fnend
  69              		.size	_ZN15USBDeviceConfig15ConfigureDeviceEhhb, .-_ZN15USBDeviceConfig15ConfigureDeviceEhhb
  70              		.section	.text._ZN15USBDeviceConfig7ReleaseEv,"axG",%progbits,_ZN15USBDeviceConfig7ReleaseEv,comda
  71              		.align	2
  72              		.weak	_ZN15USBDeviceConfig7ReleaseEv
  73              		.code	16
  74              		.thumb_func
  75              		.type	_ZN15USBDeviceConfig7ReleaseEv, %function
  76              	_ZN15USBDeviceConfig7ReleaseEv:
  77              		.fnstart
  78              	.LFB181:
 133:UsbCore.h     **** 
 134:UsbCore.h     ****         virtual uint8_t Release() {
  79              		.loc 1 134 0
  80              		.cfi_startproc
  81              		@ args = 0, pretend = 0, frame = 0
  82              		@ frame_needed = 0, uses_anonymous_args = 0
  83              		@ link register save eliminated.
  84              	.LVL4:
 135:UsbCore.h     ****                 return 0;
 136:UsbCore.h     ****         }
  85              		.loc 1 136 0
  86 0000 0020     		movs	r0, #0
  87              	.LVL5:
  88              		@ sp needed
  89 0002 7047     		bx	lr
  90              		.cfi_endproc
  91              	.LFE181:
  92              		.cantunwind
ARM GAS  C:\Users\jrdia\AppData\Local\Temp\ccJ9Fnzg.s 			page 5


  93              		.fnend
  94              		.size	_ZN15USBDeviceConfig7ReleaseEv, .-_ZN15USBDeviceConfig7ReleaseEv
  95              		.section	.text._ZN15USBDeviceConfig4PollEv,"axG",%progbits,_ZN15USBDeviceConfig4PollEv,comdat
  96              		.align	2
  97              		.weak	_ZN15USBDeviceConfig4PollEv
  98              		.code	16
  99              		.thumb_func
 100              		.type	_ZN15USBDeviceConfig4PollEv, %function
 101              	_ZN15USBDeviceConfig4PollEv:
 102              		.fnstart
 103              	.LFB182:
 137:UsbCore.h     **** 
 138:UsbCore.h     ****         virtual uint8_t Poll() {
 104              		.loc 1 138 0
 105              		.cfi_startproc
 106              		@ args = 0, pretend = 0, frame = 0
 107              		@ frame_needed = 0, uses_anonymous_args = 0
 108              		@ link register save eliminated.
 109              	.LVL6:
 139:UsbCore.h     ****                 return 0;
 140:UsbCore.h     ****         }
 110              		.loc 1 140 0
 111 0000 0020     		movs	r0, #0
 112              	.LVL7:
 113              		@ sp needed
 114 0002 7047     		bx	lr
 115              		.cfi_endproc
 116              	.LFE182:
 117              		.cantunwind
 118              		.fnend
 119              		.size	_ZN15USBDeviceConfig4PollEv, .-_ZN15USBDeviceConfig4PollEv
 120              		.section	.text._ZN15USBDeviceConfig10GetAddressEv,"axG",%progbits,_ZN15USBDeviceConfig10GetAddress
 121              		.align	2
 122              		.weak	_ZN15USBDeviceConfig10GetAddressEv
 123              		.code	16
 124              		.thumb_func
 125              		.type	_ZN15USBDeviceConfig10GetAddressEv, %function
 126              	_ZN15USBDeviceConfig10GetAddressEv:
 127              		.fnstart
 128              	.LFB183:
 141:UsbCore.h     **** 
 142:UsbCore.h     ****         virtual uint8_t GetAddress() {
 129              		.loc 1 142 0
 130              		.cfi_startproc
 131              		@ args = 0, pretend = 0, frame = 0
 132              		@ frame_needed = 0, uses_anonymous_args = 0
 133              		@ link register save eliminated.
 134              	.LVL8:
 143:UsbCore.h     ****                 return 0;
 144:UsbCore.h     ****         }
 135              		.loc 1 144 0
 136 0000 0020     		movs	r0, #0
 137              	.LVL9:
 138              		@ sp needed
 139 0002 7047     		bx	lr
 140              		.cfi_endproc
 141              	.LFE183:
ARM GAS  C:\Users\jrdia\AppData\Local\Temp\ccJ9Fnzg.s 			page 6


 142              		.cantunwind
 143              		.fnend
 144              		.size	_ZN15USBDeviceConfig10GetAddressEv, .-_ZN15USBDeviceConfig10GetAddressEv
 145              		.section	.text._ZN15USBDeviceConfig12ResetHubPortEh,"axG",%progbits,_ZN15USBDeviceConfig12ResetHub
 146              		.align	2
 147              		.weak	_ZN15USBDeviceConfig12ResetHubPortEh
 148              		.code	16
 149              		.thumb_func
 150              		.type	_ZN15USBDeviceConfig12ResetHubPortEh, %function
 151              	_ZN15USBDeviceConfig12ResetHubPortEh:
 152              		.fnstart
 153              	.LFB184:
 145:UsbCore.h     **** 
 146:UsbCore.h     ****         virtual void ResetHubPort(uint8_t port) {
 154              		.loc 1 146 0
 155              		.cfi_startproc
 156              		@ args = 0, pretend = 0, frame = 0
 157              		@ frame_needed = 0, uses_anonymous_args = 0
 158              		@ link register save eliminated.
 159              	.LVL10:
 147:UsbCore.h     ****                 return;
 148:UsbCore.h     ****         } // Note used for hubs only!
 160              		.loc 1 148 0
 161              		@ sp needed
 162 0000 7047     		bx	lr
 163              		.cfi_endproc
 164              	.LFE184:
 165              		.cantunwind
 166              		.fnend
 167              		.size	_ZN15USBDeviceConfig12ResetHubPortEh, .-_ZN15USBDeviceConfig12ResetHubPortEh
 168 0002 C046     		.section	.text._ZN15USBDeviceConfig8VIDPIDOKEtt,"axG",%progbits,_ZN15USBDeviceConfig8VIDPIDOKEtt,c
 169              		.align	2
 170              		.weak	_ZN15USBDeviceConfig8VIDPIDOKEtt
 171              		.code	16
 172              		.thumb_func
 173              		.type	_ZN15USBDeviceConfig8VIDPIDOKEtt, %function
 174              	_ZN15USBDeviceConfig8VIDPIDOKEtt:
 175              		.fnstart
 176              	.LFB185:
 149:UsbCore.h     **** 
 150:UsbCore.h     ****         virtual bool VIDPIDOK(uint16_t vid, uint16_t pid) {
 177              		.loc 1 150 0
 178              		.cfi_startproc
 179              		@ args = 0, pretend = 0, frame = 0
 180              		@ frame_needed = 0, uses_anonymous_args = 0
 181              		@ link register save eliminated.
 182              	.LVL11:
 151:UsbCore.h     ****                 return false;
 152:UsbCore.h     ****         }
 183              		.loc 1 152 0
 184 0000 0020     		movs	r0, #0
 185              	.LVL12:
 186              		@ sp needed
 187 0002 7047     		bx	lr
 188              		.cfi_endproc
 189              	.LFE185:
 190              		.cantunwind
ARM GAS  C:\Users\jrdia\AppData\Local\Temp\ccJ9Fnzg.s 			page 7


 191              		.fnend
 192              		.size	_ZN15USBDeviceConfig8VIDPIDOKEtt, .-_ZN15USBDeviceConfig8VIDPIDOKEtt
 193              		.section	.text._ZN15USBDeviceConfig10DEVCLASSOKEh,"axG",%progbits,_ZN15USBDeviceConfig10DEVCLASSOK
 194              		.align	2
 195              		.weak	_ZN15USBDeviceConfig10DEVCLASSOKEh
 196              		.code	16
 197              		.thumb_func
 198              		.type	_ZN15USBDeviceConfig10DEVCLASSOKEh, %function
 199              	_ZN15USBDeviceConfig10DEVCLASSOKEh:
 200              		.fnstart
 201              	.LFB186:
 153:UsbCore.h     **** 
 154:UsbCore.h     ****         virtual bool DEVCLASSOK(uint8_t klass) {
 202              		.loc 1 154 0
 203              		.cfi_startproc
 204              		@ args = 0, pretend = 0, frame = 0
 205              		@ frame_needed = 0, uses_anonymous_args = 0
 206              		@ link register save eliminated.
 207              	.LVL13:
 155:UsbCore.h     ****                 return false;
 156:UsbCore.h     ****         }
 208              		.loc 1 156 0
 209 0000 0020     		movs	r0, #0
 210              	.LVL14:
 211              		@ sp needed
 212 0002 7047     		bx	lr
 213              		.cfi_endproc
 214              	.LFE186:
 215              		.cantunwind
 216              		.fnend
 217              		.size	_ZN15USBDeviceConfig10DEVCLASSOKEh, .-_ZN15USBDeviceConfig10DEVCLASSOKEh
 218              		.section	.text._ZN15USBDeviceConfig13DEVSUBCLASSOKEh,"axG",%progbits,_ZN15USBDeviceConfig13DEVSUBC
 219              		.align	2
 220              		.weak	_ZN15USBDeviceConfig13DEVSUBCLASSOKEh
 221              		.code	16
 222              		.thumb_func
 223              		.type	_ZN15USBDeviceConfig13DEVSUBCLASSOKEh, %function
 224              	_ZN15USBDeviceConfig13DEVSUBCLASSOKEh:
 225              		.fnstart
 226              	.LFB187:
 157:UsbCore.h     **** 
 158:UsbCore.h     ****         virtual bool DEVSUBCLASSOK(uint8_t subklass) {
 227              		.loc 1 158 0
 228              		.cfi_startproc
 229              		@ args = 0, pretend = 0, frame = 0
 230              		@ frame_needed = 0, uses_anonymous_args = 0
 231              		@ link register save eliminated.
 232              	.LVL15:
 159:UsbCore.h     ****                 return true;
 160:UsbCore.h     ****         }
 233              		.loc 1 160 0
 234 0000 0120     		movs	r0, #1
 235              	.LVL16:
 236              		@ sp needed
 237 0002 7047     		bx	lr
 238              		.cfi_endproc
 239              	.LFE187:
ARM GAS  C:\Users\jrdia\AppData\Local\Temp\ccJ9Fnzg.s 			page 8


 240              		.cantunwind
 241              		.fnend
 242              		.size	_ZN15USBDeviceConfig13DEVSUBCLASSOKEh, .-_ZN15USBDeviceConfig13DEVSUBCLASSOKEh
 243              		.section	.text._ZN6USBHub10GetAddressEv,"axG",%progbits,_ZN6USBHub10GetAddressEv,comdat
 244              		.align	2
 245              		.weak	_ZN6USBHub10GetAddressEv
 246              		.code	16
 247              		.thumb_func
 248              		.type	_ZN6USBHub10GetAddressEv, %function
 249              	_ZN6USBHub10GetAddressEv:
 250              		.fnstart
 251              	.LFB213:
 252              		.file 2 "usbhub.h"
   1:usbhub.h      **** /* Copyright (C) 2011 Circuits At Home, LTD. All rights reserved.
   2:usbhub.h      **** 
   3:usbhub.h      **** This software may be distributed and modified under the terms of the GNU
   4:usbhub.h      **** General Public License version 2 (GPL2) as published by the Free Software
   5:usbhub.h      **** Foundation and appearing in the file GPL2.TXT included in the packaging of
   6:usbhub.h      **** this file. Please note that GPL2 Section 2[b] requires that all works based
   7:usbhub.h      **** on this software must also be made publicly available under the terms of
   8:usbhub.h      **** the GPL2 ("Copyleft").
   9:usbhub.h      **** 
  10:usbhub.h      **** Contact information
  11:usbhub.h      **** -------------------
  12:usbhub.h      **** 
  13:usbhub.h      **** Circuits At Home, LTD
  14:usbhub.h      **** Web      :  http://www.circuitsathome.com
  15:usbhub.h      **** e-mail   :  support@circuitsathome.com
  16:usbhub.h      ****  */
  17:usbhub.h      **** #if !defined(__USBHUB_H__)
  18:usbhub.h      **** #define __USBHUB_H__
  19:usbhub.h      **** 
  20:usbhub.h      **** #include "Usb.h"
  21:usbhub.h      **** #include "project.h"
  22:usbhub.h      **** #define USB_DESCRIPTOR_HUB                      0x09 // Hub descriptor type
  23:usbhub.h      **** 
  24:usbhub.h      **** // Hub Requests
  25:usbhub.h      **** #define bmREQ_CLEAR_HUB_FEATURE                 USB_SETUP_HOST_TO_DEVICE|USB_SETUP_TYPE_CLASS|USB_S
  26:usbhub.h      **** #define bmREQ_CLEAR_PORT_FEATURE                USB_SETUP_HOST_TO_DEVICE|USB_SETUP_TYPE_CLASS|USB_S
  27:usbhub.h      **** #define bmREQ_CLEAR_TT_BUFFER                   USB_SETUP_HOST_TO_DEVICE|USB_SETUP_TYPE_CLASS|USB_S
  28:usbhub.h      **** #define bmREQ_GET_HUB_DESCRIPTOR                USB_SETUP_DEVICE_TO_HOST|USB_SETUP_TYPE_CLASS|USB_S
  29:usbhub.h      **** #define bmREQ_GET_HUB_STATUS                    USB_SETUP_DEVICE_TO_HOST|USB_SETUP_TYPE_CLASS|USB_S
  30:usbhub.h      **** #define bmREQ_GET_PORT_STATUS                   USB_SETUP_DEVICE_TO_HOST|USB_SETUP_TYPE_CLASS|USB_S
  31:usbhub.h      **** #define bmREQ_RESET_TT                          USB_SETUP_HOST_TO_DEVICE|USB_SETUP_TYPE_CLASS|USB_S
  32:usbhub.h      **** #define bmREQ_SET_HUB_DESCRIPTOR                USB_SETUP_HOST_TO_DEVICE|USB_SETUP_TYPE_CLASS|USB_S
  33:usbhub.h      **** #define bmREQ_SET_HUB_FEATURE                   USB_SETUP_HOST_TO_DEVICE|USB_SETUP_TYPE_CLASS|USB_S
  34:usbhub.h      **** #define bmREQ_SET_PORT_FEATURE                  USB_SETUP_HOST_TO_DEVICE|USB_SETUP_TYPE_CLASS|USB_S
  35:usbhub.h      **** #define bmREQ_GET_TT_STATE                      USB_SETUP_DEVICE_TO_HOST|USB_SETUP_TYPE_CLASS|USB_S
  36:usbhub.h      **** #define bmREQ_STOP_TT                           USB_SETUP_HOST_TO_DEVICE|USB_SETUP_TYPE_CLASS|USB_S
  37:usbhub.h      **** 
  38:usbhub.h      **** // Hub Class Requests
  39:usbhub.h      **** #define HUB_REQUEST_CLEAR_TT_BUFFER             8
  40:usbhub.h      **** #define HUB_REQUEST_RESET_TT                    9
  41:usbhub.h      **** #define HUB_REQUEST_GET_TT_STATE                10
  42:usbhub.h      **** #define HUB_REQUEST_STOP_TT                     11
  43:usbhub.h      **** 
  44:usbhub.h      **** // Hub Features
ARM GAS  C:\Users\jrdia\AppData\Local\Temp\ccJ9Fnzg.s 			page 9


  45:usbhub.h      **** #define HUB_FEATURE_C_HUB_LOCAL_POWER           0
  46:usbhub.h      **** #define HUB_FEATURE_C_HUB_OVER_CURRENT          1
  47:usbhub.h      **** #define HUB_FEATURE_PORT_CONNECTION             0
  48:usbhub.h      **** #define HUB_FEATURE_PORT_ENABLE                 1
  49:usbhub.h      **** #define HUB_FEATURE_PORT_SUSPEND                2
  50:usbhub.h      **** #define HUB_FEATURE_PORT_OVER_CURRENT           3
  51:usbhub.h      **** #define HUB_FEATURE_PORT_RESET                  4
  52:usbhub.h      **** #define HUB_FEATURE_PORT_POWER                  8
  53:usbhub.h      **** #define HUB_FEATURE_PORT_LOW_SPEED              9
  54:usbhub.h      **** #define HUB_FEATURE_C_PORT_CONNECTION           16
  55:usbhub.h      **** #define HUB_FEATURE_C_PORT_ENABLE               17
  56:usbhub.h      **** #define HUB_FEATURE_C_PORT_SUSPEND              18
  57:usbhub.h      **** #define HUB_FEATURE_C_PORT_OVER_CURRENT         19
  58:usbhub.h      **** #define HUB_FEATURE_C_PORT_RESET                20
  59:usbhub.h      **** #define HUB_FEATURE_PORT_TEST                   21
  60:usbhub.h      **** #define HUB_FEATURE_PORT_INDICATOR              22
  61:usbhub.h      **** 
  62:usbhub.h      **** // Hub Port Test Modes
  63:usbhub.h      **** #define HUB_PORT_TEST_MODE_J                    1
  64:usbhub.h      **** #define HUB_PORT_TEST_MODE_K                    2
  65:usbhub.h      **** #define HUB_PORT_TEST_MODE_SE0_NAK              3
  66:usbhub.h      **** #define HUB_PORT_TEST_MODE_PACKET               4
  67:usbhub.h      **** #define HUB_PORT_TEST_MODE_FORCE_ENABLE         5
  68:usbhub.h      **** 
  69:usbhub.h      **** // Hub Port Indicator Color
  70:usbhub.h      **** #define HUB_PORT_INDICATOR_AUTO                 0
  71:usbhub.h      **** #define HUB_PORT_INDICATOR_AMBER                1
  72:usbhub.h      **** #define HUB_PORT_INDICATOR_GREEN                2
  73:usbhub.h      **** #define HUB_PORT_INDICATOR_OFF                  3
  74:usbhub.h      **** 
  75:usbhub.h      **** // Hub Port Status Bitmasks
  76:usbhub.h      **** #define bmHUB_PORT_STATUS_PORT_CONNECTION       0x0001
  77:usbhub.h      **** #define bmHUB_PORT_STATUS_PORT_ENABLE           0x0002
  78:usbhub.h      **** #define bmHUB_PORT_STATUS_PORT_SUSPEND          0x0004
  79:usbhub.h      **** #define bmHUB_PORT_STATUS_PORT_OVER_CURRENT     0x0008
  80:usbhub.h      **** #define bmHUB_PORT_STATUS_PORT_RESET            0x0010
  81:usbhub.h      **** #define bmHUB_PORT_STATUS_PORT_POWER            0x0100
  82:usbhub.h      **** #define bmHUB_PORT_STATUS_PORT_LOW_SPEED        0x0200
  83:usbhub.h      **** #define bmHUB_PORT_STATUS_PORT_HIGH_SPEED       0x0400
  84:usbhub.h      **** #define bmHUB_PORT_STATUS_PORT_TEST             0x0800
  85:usbhub.h      **** #define bmHUB_PORT_STATUS_PORT_INDICATOR        0x1000
  86:usbhub.h      **** 
  87:usbhub.h      **** // Hub Port Status Change Bitmasks (used one byte instead of two)
  88:usbhub.h      **** #define bmHUB_PORT_STATUS_C_PORT_CONNECTION     0x0001
  89:usbhub.h      **** #define bmHUB_PORT_STATUS_C_PORT_ENABLE         0x0002
  90:usbhub.h      **** #define bmHUB_PORT_STATUS_C_PORT_SUSPEND        0x0004
  91:usbhub.h      **** #define bmHUB_PORT_STATUS_C_PORT_OVER_CURRENT   0x0008
  92:usbhub.h      **** #define bmHUB_PORT_STATUS_C_PORT_RESET          0x0010
  93:usbhub.h      **** 
  94:usbhub.h      **** // Hub Status Bitmasks (used one byte instead of two)
  95:usbhub.h      **** #define bmHUB_STATUS_LOCAL_POWER_SOURCE         0x01
  96:usbhub.h      **** #define bmHUB_STATUS_OVER_CURRENT               0x12
  97:usbhub.h      **** 
  98:usbhub.h      **** // Hub Status Change Bitmasks (used one byte instead of two)
  99:usbhub.h      **** #define bmHUB_STATUS_C_LOCAL_POWER_SOURCE       0x01
 100:usbhub.h      **** #define bmHUB_STATUS_C_OVER_CURRENT             0x12
 101:usbhub.h      **** 
ARM GAS  C:\Users\jrdia\AppData\Local\Temp\ccJ9Fnzg.s 			page 10


 102:usbhub.h      **** 
 103:usbhub.h      **** // Hub Port Configuring Substates
 104:usbhub.h      **** #define USB_STATE_HUB_PORT_CONFIGURING          0xb0
 105:usbhub.h      **** #define USB_STATE_HUB_PORT_POWERED_OFF          0xb1
 106:usbhub.h      **** #define USB_STATE_HUB_PORT_WAIT_FOR_POWER_GOOD  0xb2
 107:usbhub.h      **** #define USB_STATE_HUB_PORT_DISCONNECTED         0xb3
 108:usbhub.h      **** #define USB_STATE_HUB_PORT_DISABLED             0xb4
 109:usbhub.h      **** #define USB_STATE_HUB_PORT_RESETTING            0xb5
 110:usbhub.h      **** #define USB_STATE_HUB_PORT_ENABLED              0xb6
 111:usbhub.h      **** 
 112:usbhub.h      **** // Additional Error Codes
 113:usbhub.h      **** #define HUB_ERROR_PORT_HAS_BEEN_RESET           0xb1
 114:usbhub.h      **** 
 115:usbhub.h      **** // The bit mask to check for all necessary state bits
 116:usbhub.h      **** #define bmHUB_PORT_STATUS_ALL_MAIN              ((0UL | bmHUB_PORT_STATUS_C_PORT_CONNECTION | bmHUB
 117:usbhub.h      **** 
 118:usbhub.h      **** // Bit mask to check for DISABLED state in HubEvent::bmStatus field
 119:usbhub.h      **** #define bmHUB_PORT_STATE_CHECK_DISABLED         (0x0000 | bmHUB_PORT_STATUS_PORT_POWER | bmHUB_PORT
 120:usbhub.h      **** 
 121:usbhub.h      **** // Hub Port States
 122:usbhub.h      **** #define bmHUB_PORT_STATE_DISABLED               (0x0000 | bmHUB_PORT_STATUS_PORT_POWER | bmHUB_PORT
 123:usbhub.h      **** 
 124:usbhub.h      **** // Hub Port Events
 125:usbhub.h      **** #define bmHUB_PORT_EVENT_CONNECT                (((0UL | bmHUB_PORT_STATUS_C_PORT_CONNECTION) << 16
 126:usbhub.h      **** #define bmHUB_PORT_EVENT_DISCONNECT             (((0UL | bmHUB_PORT_STATUS_C_PORT_CONNECTION) << 16
 127:usbhub.h      **** #define bmHUB_PORT_EVENT_RESET_COMPLETE         (((0UL | bmHUB_PORT_STATUS_C_PORT_RESET) << 16) | b
 128:usbhub.h      **** 
 129:usbhub.h      **** #define bmHUB_PORT_EVENT_LS_CONNECT             (((0UL | bmHUB_PORT_STATUS_C_PORT_CONNECTION) << 16
 130:usbhub.h      **** #define bmHUB_PORT_EVENT_LS_RESET_COMPLETE      (((0UL | bmHUB_PORT_STATUS_C_PORT_RESET) << 16) | b
 131:usbhub.h      **** #define bmHUB_PORT_EVENT_LS_PORT_ENABLED        (((0UL | bmHUB_PORT_STATUS_C_PORT_CONNECTION | bmHU
 132:usbhub.h      **** 
 133:usbhub.h      **** struct HubDescriptor {
 134:usbhub.h      ****         uint8_t bDescLength; // descriptor length
 135:usbhub.h      ****         uint8_t bDescriptorType; // descriptor type
 136:usbhub.h      ****         uint8_t bNbrPorts; // number of ports a hub equiped with
 137:usbhub.h      **** 
 138:usbhub.h      ****         struct {
 139:usbhub.h      ****                 uint16_t LogPwrSwitchMode : 2;
 140:usbhub.h      ****                 uint16_t CompoundDevice : 1;
 141:usbhub.h      ****                 uint16_t OverCurrentProtectMode : 2;
 142:usbhub.h      ****                 uint16_t TTThinkTime : 2;
 143:usbhub.h      ****                 uint16_t PortIndicatorsSupported : 1;
 144:usbhub.h      ****                 uint16_t Reserved : 8;
 145:usbhub.h      ****         } __attribute__((packed));
 146:usbhub.h      **** 
 147:usbhub.h      ****         uint8_t bPwrOn2PwrGood;
 148:usbhub.h      ****         uint8_t bHubContrCurrent;
 149:usbhub.h      **** } __attribute__((packed));
 150:usbhub.h      **** 
 151:usbhub.h      **** struct HubEvent {
 152:usbhub.h      **** 
 153:usbhub.h      ****         union {
 154:usbhub.h      **** 
 155:usbhub.h      ****                 struct {
 156:usbhub.h      ****                         uint16_t bmStatus; // port status bits
 157:usbhub.h      ****                         uint16_t bmChange; // port status change bits
 158:usbhub.h      ****                 } __attribute__((packed));
ARM GAS  C:\Users\jrdia\AppData\Local\Temp\ccJ9Fnzg.s 			page 11


 159:usbhub.h      ****                 uint32_t bmEvent;
 160:usbhub.h      ****                 uint8_t evtBuff[4];
 161:usbhub.h      ****         };
 162:usbhub.h      **** } __attribute__((packed));
 163:usbhub.h      **** 
 164:usbhub.h      **** class USBHub : USBDeviceConfig {
 165:usbhub.h      ****         static bool bResetInitiated; // True when reset is triggered
 166:usbhub.h      **** 
 167:usbhub.h      ****         USB *pUsb; // USB class instance pointer
 168:usbhub.h      **** 
 169:usbhub.h      ****         EpInfo epInfo[2]; // interrupt endpoint info structure
 170:usbhub.h      **** 
 171:usbhub.h      ****         uint8_t bAddress; // address
 172:usbhub.h      ****         uint8_t bNbrPorts; // number of ports
 173:usbhub.h      ****         //        uint8_t bInitState; // initialization state variable
 174:usbhub.h      ****         uint32_t qNextPollTime; // next poll time
 175:usbhub.h      ****         bool bPollEnable; // poll enable flag
 176:usbhub.h      **** 
 177:usbhub.h      ****         uint8_t CheckHubStatus();
 178:usbhub.h      ****         uint8_t PortStatusChange(uint8_t port, HubEvent &evt);
 179:usbhub.h      **** 
 180:usbhub.h      **** public:
 181:usbhub.h      ****         USBHub(USB *p);
 182:usbhub.h      **** 
 183:usbhub.h      ****         uint8_t ClearHubFeature(uint8_t fid);
 184:usbhub.h      ****         uint8_t ClearPortFeature(uint8_t fid, uint8_t port, uint8_t sel = 0);
 185:usbhub.h      ****         uint8_t GetHubDescriptor(uint8_t index, uint16_t nbytes, uint8_t *dataptr);
 186:usbhub.h      ****         uint8_t GetHubStatus(uint16_t nbytes, uint8_t* dataptr);
 187:usbhub.h      ****         uint8_t GetPortStatus(uint8_t port, uint16_t nbytes, uint8_t* dataptr);
 188:usbhub.h      ****         uint8_t SetHubDescriptor(uint8_t port, uint16_t nbytes, uint8_t* dataptr);
 189:usbhub.h      ****         uint8_t SetHubFeature(uint8_t fid);
 190:usbhub.h      ****         uint8_t SetPortFeature(uint8_t fid, uint8_t port, uint8_t sel = 0);
 191:usbhub.h      **** 
 192:usbhub.h      ****         void PrintHubStatus();
 193:usbhub.h      **** 
 194:usbhub.h      ****         uint8_t Init(uint8_t parent, uint8_t port, bool lowspeed);
 195:usbhub.h      ****         uint8_t Release();
 196:usbhub.h      ****         uint8_t Poll();
 197:usbhub.h      ****         void ResetHubPort(uint8_t port);
 198:usbhub.h      **** 
 199:usbhub.h      ****         virtual uint8_t GetAddress() {
 253              		.loc 2 199 0
 254              		.cfi_startproc
 255              		@ args = 0, pretend = 0, frame = 0
 256              		@ frame_needed = 0, uses_anonymous_args = 0
 257              		@ link register save eliminated.
 258              	.LVL17:
 200:usbhub.h      ****                 return bAddress;
 259              		.loc 2 200 0
 260 0000 807B     		ldrb	r0, [r0, #14]
 261              	.LVL18:
 201:usbhub.h      ****         };
 262              		.loc 2 201 0
 263              		@ sp needed
 264 0002 7047     		bx	lr
 265              		.cfi_endproc
 266              	.LFE213:
ARM GAS  C:\Users\jrdia\AppData\Local\Temp\ccJ9Fnzg.s 			page 12


 267              		.cantunwind
 268              		.fnend
 269              		.size	_ZN6USBHub10GetAddressEv, .-_ZN6USBHub10GetAddressEv
 270              		.section	.text._ZN6USBHub10DEVCLASSOKEh,"axG",%progbits,_ZN6USBHub10DEVCLASSOKEh,comdat
 271              		.align	2
 272              		.weak	_ZN6USBHub10DEVCLASSOKEh
 273              		.code	16
 274              		.thumb_func
 275              		.type	_ZN6USBHub10DEVCLASSOKEh, %function
 276              	_ZN6USBHub10DEVCLASSOKEh:
 277              		.fnstart
 278              	.LFB214:
 202:usbhub.h      **** 
 203:usbhub.h      ****         virtual bool DEVCLASSOK(uint8_t klass) {
 279              		.loc 2 203 0
 280              		.cfi_startproc
 281              		@ args = 0, pretend = 0, frame = 0
 282              		@ frame_needed = 0, uses_anonymous_args = 0
 283              		@ link register save eliminated.
 284              	.LVL19:
 204:usbhub.h      ****                 return (klass == 0x09);
 285              		.loc 2 204 0
 286 0000 0939     		subs	r1, r1, #9
 287              	.LVL20:
 288 0002 4842     		rsbs	r0, r1, #0
 289 0004 4841     		adcs	r0, r0, r1
 290              	.LVL21:
 205:usbhub.h      ****         }
 291              		.loc 2 205 0
 292              		@ sp needed
 204:usbhub.h      ****                 return (klass == 0x09);
 293              		.loc 2 204 0
 294 0006 C0B2     		uxtb	r0, r0
 295              		.loc 2 205 0
 296 0008 7047     		bx	lr
 297              		.cfi_endproc
 298              	.LFE214:
 299              		.cantunwind
 300              		.fnend
 301              		.size	_ZN6USBHub10DEVCLASSOKEh, .-_ZN6USBHub10DEVCLASSOKEh
 302 000a C046     		.section	.text._ZN6USBHub7ReleaseEv,"ax",%progbits
 303              		.align	2
 304              		.global	_ZN6USBHub7ReleaseEv
 305              		.code	16
 306              		.thumb_func
 307              		.type	_ZN6USBHub7ReleaseEv, %function
 308              	_ZN6USBHub7ReleaseEv:
 309              		.fnstart
 310              	.LFB230:
 311              		.file 3 "usbhub.c"
   1:usbhub.c      **** /* Copyright (C) 2011 Circuits At Home, LTD. All rights reserved.
   2:usbhub.c      **** 
   3:usbhub.c      **** This software may be distributed and modified under the terms of the GNU
   4:usbhub.c      **** General Public License version 2 (GPL2) as published by the Free Software
   5:usbhub.c      **** Foundation and appearing in the file GPL2.TXT included in the packaging of
   6:usbhub.c      **** this file. Please note that GPL2 Section 2[b] requires that all works based
   7:usbhub.c      **** on this software must also be made publicly available under the terms of
ARM GAS  C:\Users\jrdia\AppData\Local\Temp\ccJ9Fnzg.s 			page 13


   8:usbhub.c      **** the GPL2 ("Copyleft").
   9:usbhub.c      **** 
  10:usbhub.c      **** Contact information
  11:usbhub.c      **** -------------------
  12:usbhub.c      **** 
  13:usbhub.c      **** Circuits At Home, LTD
  14:usbhub.c      **** Web      :  http://www.circuitsathome.com
  15:usbhub.c      **** e-mail   :  support@circuitsathome.com
  16:usbhub.c      ****  */
  17:usbhub.c      **** #include "usbhub.h"
  18:usbhub.c      **** 
  19:usbhub.c      **** bool USBHub::bResetInitiated = false;
  20:usbhub.c      **** 
  21:usbhub.c      **** USBHub::USBHub(USB *p) :
  22:usbhub.c      **** pUsb(p),
  23:usbhub.c      **** bAddress(0),
  24:usbhub.c      **** bNbrPorts(0),
  25:usbhub.c      **** //bInitState(0),
  26:usbhub.c      **** qNextPollTime(0),
  27:usbhub.c      **** bPollEnable(false) {
  28:usbhub.c      ****         epInfo[0].epAddr = 0;
  29:usbhub.c      ****         epInfo[0].maxPktSize = 8;
  30:usbhub.c      ****         epInfo[0].bmSndToggle = 0;
  31:usbhub.c      ****         epInfo[0].bmRcvToggle = 0;
  32:usbhub.c      ****         epInfo[0].bmNakPower = USB_NAK_MAX_POWER;
  33:usbhub.c      **** 
  34:usbhub.c      ****         epInfo[1].epAddr = 1;
  35:usbhub.c      ****         epInfo[1].maxPktSize = 8; //kludge
  36:usbhub.c      ****         epInfo[1].bmSndToggle = 0;
  37:usbhub.c      ****         epInfo[1].bmRcvToggle = 0;
  38:usbhub.c      ****         epInfo[1].bmNakPower = USB_NAK_NOWAIT;
  39:usbhub.c      **** 
  40:usbhub.c      ****         if(pUsb)
  41:usbhub.c      ****                 pUsb->RegisterDeviceClass(this);
  42:usbhub.c      **** }
  43:usbhub.c      **** 
  44:usbhub.c      **** uint8_t USBHub::Init(uint8_t parent, uint8_t port, bool lowspeed) {
  45:usbhub.c      ****         uint8_t buf[32];
  46:usbhub.c      ****         USB_DEVICE_DESCRIPTOR * udd = reinterpret_cast<USB_DEVICE_DESCRIPTOR*>(buf);
  47:usbhub.c      ****         HubDescriptor* hd = reinterpret_cast<HubDescriptor*>(buf);
  48:usbhub.c      ****         USB_CONFIGURATION_DESCRIPTOR * ucd = reinterpret_cast<USB_CONFIGURATION_DESCRIPTOR*>(buf);
  49:usbhub.c      ****         uint8_t rcode;
  50:usbhub.c      ****         UsbDevice *p = NULL;
  51:usbhub.c      ****         EpInfo *oldep_ptr = NULL;
  52:usbhub.c      ****         uint8_t len = 0;
  53:usbhub.c      ****         uint16_t cd_len = 0;
  54:usbhub.c      **** 
  55:usbhub.c      ****         //USBTRACE("\r\nHub Init Start ");
  56:usbhub.c      ****         //D_PrintHex<uint8_t > (bInitState, 0x80);
  57:usbhub.c      **** 
  58:usbhub.c      ****         AddressPool &addrPool = pUsb->GetAddressPool();
  59:usbhub.c      **** 
  60:usbhub.c      ****         //switch (bInitState) {
  61:usbhub.c      ****         //        case 0:
  62:usbhub.c      ****         if(bAddress)
  63:usbhub.c      ****                 return USB_ERROR_CLASS_INSTANCE_ALREADY_IN_USE;
  64:usbhub.c      **** 
ARM GAS  C:\Users\jrdia\AppData\Local\Temp\ccJ9Fnzg.s 			page 14


  65:usbhub.c      ****         // Get pointer to pseudo device with address 0 assigned
  66:usbhub.c      ****         p = addrPool.GetUsbDevicePtr(0);
  67:usbhub.c      **** 
  68:usbhub.c      ****         if(!p)
  69:usbhub.c      ****                 return USB_ERROR_ADDRESS_NOT_FOUND_IN_POOL;
  70:usbhub.c      **** 
  71:usbhub.c      ****         if(!p->epinfo)
  72:usbhub.c      ****                 return USB_ERROR_EPINFO_IS_NULL;
  73:usbhub.c      **** 
  74:usbhub.c      ****         // Save old pointer to EP_RECORD of address 0
  75:usbhub.c      ****         oldep_ptr = p->epinfo;
  76:usbhub.c      **** 
  77:usbhub.c      ****         // Temporary assign new pointer to epInfo to p->epinfo in order to avoid toggle inconsisten
  78:usbhub.c      ****         p->epinfo = epInfo;
  79:usbhub.c      **** 
  80:usbhub.c      ****         p->lowspeed = lowspeed;
  81:usbhub.c      **** 
  82:usbhub.c      ****         // Get device descriptor
  83:usbhub.c      ****         rcode = pUsb->getDevDescr(0, 0, 8, (uint8_t*)buf);
  84:usbhub.c      **** 
  85:usbhub.c      ****         p->lowspeed = false;
  86:usbhub.c      **** 
  87:usbhub.c      ****         if(!rcode)
  88:usbhub.c      ****                 len = (buf[0] > 32) ? 32 : buf[0];
  89:usbhub.c      **** 
  90:usbhub.c      ****         if(rcode) {
  91:usbhub.c      ****                 // Restore p->epinfo
  92:usbhub.c      ****                 p->epinfo = oldep_ptr;
  93:usbhub.c      ****                 return rcode;
  94:usbhub.c      ****         }
  95:usbhub.c      **** 
  96:usbhub.c      ****         // Extract device class from device descriptor
  97:usbhub.c      ****         // If device class is not a hub return
  98:usbhub.c      ****         if(udd->bDeviceClass != 0x09)
  99:usbhub.c      ****                 return USB_DEV_CONFIG_ERROR_DEVICE_NOT_SUPPORTED;
 100:usbhub.c      **** 
 101:usbhub.c      ****         // Allocate new address according to device class
 102:usbhub.c      ****         bAddress = addrPool.AllocAddress(parent, (udd->bDeviceClass == 0x09) ? true : false, port);
 103:usbhub.c      **** 
 104:usbhub.c      ****         if(!bAddress)
 105:usbhub.c      ****                 return USB_ERROR_OUT_OF_ADDRESS_SPACE_IN_POOL;
 106:usbhub.c      **** 
 107:usbhub.c      ****         // Extract Max Packet Size from the device descriptor
 108:usbhub.c      ****         epInfo[0].maxPktSize = udd->bMaxPacketSize0;
 109:usbhub.c      **** 
 110:usbhub.c      ****         // Assign new address to the device
 111:usbhub.c      ****         rcode = pUsb->setAddr(0, 0, bAddress);
 112:usbhub.c      **** 
 113:usbhub.c      ****         if(rcode) {
 114:usbhub.c      ****                 // Restore p->epinfo
 115:usbhub.c      ****                 p->epinfo = oldep_ptr;
 116:usbhub.c      ****                 addrPool.FreeAddress(bAddress);
 117:usbhub.c      ****                 bAddress = 0;
 118:usbhub.c      ****                 return rcode;
 119:usbhub.c      ****         }
 120:usbhub.c      **** 
 121:usbhub.c      ****         //USBTRACE2("\r\nHub address: ", bAddress );
ARM GAS  C:\Users\jrdia\AppData\Local\Temp\ccJ9Fnzg.s 			page 15


 122:usbhub.c      **** 
 123:usbhub.c      ****         // Restore p->epinfo
 124:usbhub.c      ****         p->epinfo = oldep_ptr;
 125:usbhub.c      **** 
 126:usbhub.c      ****         if(len)
 127:usbhub.c      ****                 rcode = pUsb->getDevDescr(bAddress, 0, len, (uint8_t*)buf);
 128:usbhub.c      **** 
 129:usbhub.c      ****         if(rcode)
 130:usbhub.c      ****                 goto FailGetDevDescr;
 131:usbhub.c      **** 
 132:usbhub.c      ****         // Assign epInfo to epinfo pointer
 133:usbhub.c      ****         rcode = pUsb->setEpInfoEntry(bAddress, 2, epInfo);
 134:usbhub.c      **** 
 135:usbhub.c      ****         if(rcode)
 136:usbhub.c      ****                 goto FailSetDevTblEntry;
 137:usbhub.c      **** 
 138:usbhub.c      ****         //                bInitState = 1;
 139:usbhub.c      **** 
 140:usbhub.c      ****         //        case 1:
 141:usbhub.c      ****         // Get hub descriptor
 142:usbhub.c      ****         rcode = GetHubDescriptor(0, 8, buf);
 143:usbhub.c      **** 
 144:usbhub.c      ****         if(rcode)
 145:usbhub.c      ****                 goto FailGetHubDescr;
 146:usbhub.c      **** 
 147:usbhub.c      ****         // Save number of ports for future use
 148:usbhub.c      ****         bNbrPorts = hd->bNbrPorts;
 149:usbhub.c      **** 
 150:usbhub.c      ****         //                bInitState = 2;
 151:usbhub.c      **** 
 152:usbhub.c      ****         //        case 2:
 153:usbhub.c      ****         // Read configuration Descriptor in Order To Obtain Proper Configuration Value
 154:usbhub.c      ****         rcode = pUsb->getConfDescr(bAddress, 0, 8, 0, buf);
 155:usbhub.c      **** 
 156:usbhub.c      ****         if(!rcode) {
 157:usbhub.c      ****                 cd_len = ucd->wTotalLength;
 158:usbhub.c      ****                 rcode = pUsb->getConfDescr(bAddress, 0, cd_len, 0, buf);
 159:usbhub.c      ****         }
 160:usbhub.c      ****         if(rcode)
 161:usbhub.c      ****                 goto FailGetConfDescr;
 162:usbhub.c      **** 
 163:usbhub.c      ****         // The following code is of no practical use in real life applications.
 164:usbhub.c      ****         // It only intended for the usb protocol sniffer to properly parse hub-class requests.
 165:usbhub.c      ****         {
 166:usbhub.c      ****                 uint8_t buf2[24];
 167:usbhub.c      **** 
 168:usbhub.c      ****                 rcode = pUsb->getConfDescr(bAddress, 0, buf[0], 0, buf2);
 169:usbhub.c      **** 
 170:usbhub.c      ****                 if(rcode)
 171:usbhub.c      ****                         goto FailGetConfDescr;
 172:usbhub.c      ****         }
 173:usbhub.c      **** 
 174:usbhub.c      ****         // Set Configuration Value
 175:usbhub.c      ****         rcode = pUsb->setConf(bAddress, 0, buf[5]);
 176:usbhub.c      **** 
 177:usbhub.c      ****         if(rcode)
 178:usbhub.c      ****                 goto FailSetConfDescr;
ARM GAS  C:\Users\jrdia\AppData\Local\Temp\ccJ9Fnzg.s 			page 16


 179:usbhub.c      **** 
 180:usbhub.c      ****         //                bInitState = 3;
 181:usbhub.c      **** 
 182:usbhub.c      ****         //        case 3:
 183:usbhub.c      ****         // Power on all ports
 184:usbhub.c      ****         for(uint8_t j = 1; j <= bNbrPorts; j++)
 185:usbhub.c      ****                 SetPortFeature(HUB_FEATURE_PORT_POWER, j, 0); //HubPortPowerOn(j);
 186:usbhub.c      **** 
 187:usbhub.c      ****         pUsb->SetHubPreMask();
 188:usbhub.c      ****         bPollEnable = true;
 189:usbhub.c      ****         //                bInitState = 0;
 190:usbhub.c      ****         //}
 191:usbhub.c      ****         //bInitState = 0;
 192:usbhub.c      ****         //USBTRACE("...OK\r\n");
 193:usbhub.c      ****         return 0;
 194:usbhub.c      **** 
 195:usbhub.c      ****         // Oleg, No debugging?? -- xxxajk
 196:usbhub.c      **** FailGetDevDescr:
 197:usbhub.c      ****         goto Fail;
 198:usbhub.c      **** 
 199:usbhub.c      **** FailSetDevTblEntry:
 200:usbhub.c      ****         goto Fail;
 201:usbhub.c      **** 
 202:usbhub.c      **** FailGetHubDescr:
 203:usbhub.c      ****         goto Fail;
 204:usbhub.c      **** 
 205:usbhub.c      **** FailGetConfDescr:
 206:usbhub.c      ****         goto Fail;
 207:usbhub.c      **** 
 208:usbhub.c      **** FailSetConfDescr:
 209:usbhub.c      ****         goto Fail;
 210:usbhub.c      **** 
 211:usbhub.c      **** Fail:
 212:usbhub.c      ****         USBTRACE("...FAIL\r\n");
 213:usbhub.c      ****         return rcode;
 214:usbhub.c      **** }
 215:usbhub.c      **** 
 216:usbhub.c      **** uint8_t USBHub::Release() {
 312              		.loc 3 216 0
 313              		.cfi_startproc
 314              		@ args = 0, pretend = 0, frame = 0
 315              		@ frame_needed = 0, uses_anonymous_args = 0
 316              	.LVL22:
 317 0000 10B5     		push	{r4, lr}
 318              		.save {r4, lr}
 319              		.cfi_def_cfa_offset 8
 320              		.cfi_offset 4, -8
 321              		.cfi_offset 14, -4
 322              		.loc 3 216 0
 323 0002 0400     		movs	r4, r0
 217:usbhub.c      ****         pUsb->GetAddressPool().FreeAddress(bAddress);
 324              		.loc 3 217 0
 325 0004 4068     		ldr	r0, [r0, #4]
 326              	.LVL23:
 327 0006 A17B     		ldrb	r1, [r4, #14]
 328 0008 0368     		ldr	r3, [r0]
 329 000a 9B68     		ldr	r3, [r3, #8]
ARM GAS  C:\Users\jrdia\AppData\Local\Temp\ccJ9Fnzg.s 			page 17


 330 000c 9847     		blx	r3
 331              	.LVL24:
 218:usbhub.c      **** 
 219:usbhub.c      ****         if(bAddress == 0x41)
 332              		.loc 3 219 0
 333 000e A37B     		ldrb	r3, [r4, #14]
 334 0010 412B     		cmp	r3, #65
 335 0012 05D1     		bne	.L13
 336              	.LBB33:
 337              	.LBB34:
 161:UsbCore.h     **** 
 162:UsbCore.h     **** };
 163:UsbCore.h     **** 
 164:UsbCore.h     **** /* USB Setup Packet Structure   */
 165:UsbCore.h     **** typedef struct {
 166:UsbCore.h     **** 
 167:UsbCore.h     ****         union { // offset   description
 168:UsbCore.h     ****                 uint8_t bmRequestType; //   0      Bit-map of request type
 169:UsbCore.h     **** 
 170:UsbCore.h     ****                 struct {
 171:UsbCore.h     ****                         uint8_t recipient : 5; //          Recipient of the request
 172:UsbCore.h     ****                         uint8_t type : 2; //          Type of request
 173:UsbCore.h     ****                         uint8_t direction : 1; //          Direction of data X-fer
 174:UsbCore.h     ****                 } __attribute__((packed));
 175:UsbCore.h     ****         } ReqType_u;
 176:UsbCore.h     ****         uint8_t bRequest; //   1      Request
 177:UsbCore.h     **** 
 178:UsbCore.h     ****         union {
 179:UsbCore.h     ****                 uint16_t wValue; //   2      Depends on bRequest
 180:UsbCore.h     **** 
 181:UsbCore.h     ****                 struct {
 182:UsbCore.h     ****                         uint8_t wValueLo;
 183:UsbCore.h     ****                         uint8_t wValueHi;
 184:UsbCore.h     ****                 } __attribute__((packed));
 185:UsbCore.h     ****         } wVal_u;
 186:UsbCore.h     ****         uint16_t wIndex; //   4      Depends on bRequest
 187:UsbCore.h     ****         uint16_t wLength; //   6      Depends on bRequest
 188:UsbCore.h     **** } __attribute__((packed)) SETUP_PKT, *PSETUP_PKT;
 189:UsbCore.h     **** 
 190:UsbCore.h     **** 
 191:UsbCore.h     **** 
 192:UsbCore.h     **** // Base class for incoming data parser
 193:UsbCore.h     **** 
 194:UsbCore.h     **** class USBReadParser {
 195:UsbCore.h     **** public:
 196:UsbCore.h     ****         virtual void Parse(const uint16_t len, const uint8_t *pbuf, const uint16_t &offset) = 0;
 197:UsbCore.h     **** };
 198:UsbCore.h     **** 
 199:UsbCore.h     **** class USB : public MAX3421E {
 200:UsbCore.h     ****         AddressPoolImpl<USB_NUMDEVICES> addrPool;
 201:UsbCore.h     ****         USBDeviceConfig* devConfig[USB_NUMDEVICES];
 202:UsbCore.h     ****         uint8_t bmHubPre;
 203:UsbCore.h     **** 
 204:UsbCore.h     **** public:
 205:UsbCore.h     ****         USB(void);
 206:UsbCore.h     **** 
 207:UsbCore.h     ****         void SetHubPreMask() {
ARM GAS  C:\Users\jrdia\AppData\Local\Temp\ccJ9Fnzg.s 			page 18


 208:UsbCore.h     ****                 bmHubPre |= bmHUBPRE;
 338              		.loc 1 208 0
 339 0014 B822     		movs	r2, #184
 340 0016 0423     		movs	r3, #4
 341              	.LBE34:
 342              	.LBE33:
 220:usbhub.c      ****                 pUsb->SetHubPreMask();
 343              		.loc 3 220 0
 344 0018 6168     		ldr	r1, [r4, #4]
 345              	.LVL25:
 346              	.LBB36:
 347              	.LBB35:
 348              		.loc 1 208 0
 349 001a 885C     		ldrb	r0, [r1, r2]
 350 001c 0343     		orrs	r3, r0
 351 001e 8B54     		strb	r3, [r1, r2]
 352              	.LVL26:
 353              	.L13:
 354              	.LBE35:
 355              	.LBE36:
 221:usbhub.c      **** 
 222:usbhub.c      ****         bAddress = 0;
 356              		.loc 3 222 0
 357 0020 0023     		movs	r3, #0
 223:usbhub.c      ****         bNbrPorts = 0;
 224:usbhub.c      ****         qNextPollTime = 0;
 225:usbhub.c      ****         bPollEnable = false;
 226:usbhub.c      ****         return 0;
 227:usbhub.c      **** }
 358              		.loc 3 227 0
 359 0022 0020     		movs	r0, #0
 222:usbhub.c      ****         bNbrPorts = 0;
 360              		.loc 3 222 0
 361 0024 A373     		strb	r3, [r4, #14]
 223:usbhub.c      ****         bNbrPorts = 0;
 362              		.loc 3 223 0
 363 0026 E373     		strb	r3, [r4, #15]
 224:usbhub.c      ****         bPollEnable = false;
 364              		.loc 3 224 0
 365 0028 2361     		str	r3, [r4, #16]
 225:usbhub.c      ****         return 0;
 366              		.loc 3 225 0
 367 002a 2375     		strb	r3, [r4, #20]
 368              		.loc 3 227 0
 369              		@ sp needed
 370              	.LVL27:
 371 002c 10BD     		pop	{r4, pc}
 372              		.cfi_endproc
 373              	.LFE230:
 374              		.fnend
 375              		.size	_ZN6USBHub7ReleaseEv, .-_ZN6USBHub7ReleaseEv
 376 002e C046     		.section	.text._ZN6USBHub4InitEhhb,"ax",%progbits
 377              		.align	2
 378              		.global	_ZN6USBHub4InitEhhb
 379              		.code	16
 380              		.thumb_func
 381              		.type	_ZN6USBHub4InitEhhb, %function
ARM GAS  C:\Users\jrdia\AppData\Local\Temp\ccJ9Fnzg.s 			page 19


 382              	_ZN6USBHub4InitEhhb:
 383              		.fnstart
 384              	.LFB229:
  44:usbhub.c      ****         uint8_t buf[32];
 385              		.loc 3 44 0
 386              		.cfi_startproc
 387              		@ args = 0, pretend = 0, frame = 64
 388              		@ frame_needed = 0, uses_anonymous_args = 0
 389              	.LVL28:
 390 0000 F0B5     		push	{r4, r5, r6, r7, lr}
 391              		.save {r4, r5, r6, r7, lr}
 392              		.cfi_def_cfa_offset 20
 393              		.cfi_offset 4, -20
 394              		.cfi_offset 5, -16
 395              		.cfi_offset 6, -12
 396              		.cfi_offset 7, -8
 397              		.cfi_offset 14, -4
 398 0002 5646     		mov	r6, r10
 399 0004 4D46     		mov	r5, r9
 400 0006 4446     		mov	r4, r8
 401 0008 5F46     		mov	r7, fp
 402 000a F0B4     		push	{r4, r5, r6, r7}
 403              		.save {r8, r9, r10, fp}
 404              		.cfi_def_cfa_offset 36
 405              		.cfi_offset 8, -36
 406              		.cfi_offset 9, -32
 407              		.cfi_offset 10, -28
 408              		.cfi_offset 11, -24
  62:usbhub.c      ****                 return USB_ERROR_CLASS_INSTANCE_ALREADY_IN_USE;
 409              		.loc 3 62 0
 410 000c 867B     		ldrb	r6, [r0, #14]
  44:usbhub.c      ****         uint8_t buf[32];
 411              		.loc 3 44 0
 412              		.pad #100
 413 000e 99B0     		sub	sp, sp, #100
 414              		.cfi_def_cfa_offset 136
 415              	.LVL29:
  44:usbhub.c      ****         uint8_t buf[32];
 416              		.loc 3 44 0
 417 0010 0400     		movs	r4, r0
 418 0012 8946     		mov	r9, r1
 419 0014 9246     		mov	r10, r2
 420 0016 9846     		mov	r8, r3
  63:usbhub.c      **** 
 421              		.loc 3 63 0
 422 0018 D925     		movs	r5, #217
  62:usbhub.c      ****                 return USB_ERROR_CLASS_INSTANCE_ALREADY_IN_USE;
 423              		.loc 3 62 0
 424 001a 002E     		cmp	r6, #0
 425 001c 07D0     		beq	.L41
 426              	.LVL30:
 427              	.L36:
 214:usbhub.c      **** 
 428              		.loc 3 214 0
 429 001e 2800     		movs	r0, r5
 430 0020 19B0     		add	sp, sp, #100
 431              		@ sp needed
ARM GAS  C:\Users\jrdia\AppData\Local\Temp\ccJ9Fnzg.s 			page 20


 432              	.LVL31:
 433 0022 3CBC     		pop	{r2, r3, r4, r5}
 434 0024 9046     		mov	r8, r2
 435 0026 9946     		mov	r9, r3
 436 0028 A246     		mov	r10, r4
 437 002a AB46     		mov	fp, r5
 438 002c F0BD     		pop	{r4, r5, r6, r7, pc}
 439              	.LVL32:
 440              	.L41:
  58:usbhub.c      **** 
 441              		.loc 3 58 0
 442 002e 4368     		ldr	r3, [r0, #4]
 443              	.LVL33:
  66:usbhub.c      **** 
 444              		.loc 3 66 0
 445 0030 0021     		movs	r1, #0
 446              	.LVL34:
  58:usbhub.c      **** 
 447              		.loc 3 58 0
 448 0032 9B46     		mov	fp, r3
  66:usbhub.c      **** 
 449              		.loc 3 66 0
 450 0034 1B68     		ldr	r3, [r3]
 451 0036 5846     		mov	r0, fp
 452              	.LVL35:
 453 0038 1B68     		ldr	r3, [r3]
 454 003a 9847     		blx	r3
 455              	.LVL36:
 456 003c 071E     		subs	r7, r0, #0
 457              	.LVL37:
  68:usbhub.c      ****                 return USB_ERROR_ADDRESS_NOT_FOUND_IN_POOL;
 458              		.loc 3 68 0
 459 003e 00D1     		bne	.LCB312
 460 0040 95E0     		b	.L27	@long jump
 461              	.LCB312:
  71:usbhub.c      ****                 return USB_ERROR_EPINFO_IS_NULL;
 462              		.loc 3 71 0
 463 0042 4378     		ldrb	r3, [r0, #1]
 464 0044 0178     		ldrb	r1, [r0]
 465 0046 1B02     		lsls	r3, r3, #8
 466 0048 0B43     		orrs	r3, r1
 467 004a 1A00     		movs	r2, r3
 468 004c 8378     		ldrb	r3, [r0, #2]
  72:usbhub.c      **** 
 469              		.loc 3 72 0
 470 004e 023D     		subs	r5, r5, #2
  71:usbhub.c      ****                 return USB_ERROR_EPINFO_IS_NULL;
 471              		.loc 3 71 0
 472 0050 1B04     		lsls	r3, r3, #16
 473 0052 1343     		orrs	r3, r2
 474 0054 C278     		ldrb	r2, [r0, #3]
 475 0056 1206     		lsls	r2, r2, #24
 476 0058 1A43     		orrs	r2, r3
 477 005a 0892     		str	r2, [sp, #32]
 478 005c DFD0     		beq	.L36
 479              	.LVL38:
  78:usbhub.c      **** 
ARM GAS  C:\Users\jrdia\AppData\Local\Temp\ccJ9Fnzg.s 			page 21


 480              		.loc 3 78 0
 481 005e 0823     		movs	r3, #8
 482 0060 9C46     		mov	ip, r3
 483 0062 A444     		add	ip, ip, r4
 484 0064 6346     		mov	r3, ip
 485 0066 6246     		mov	r2, ip
 486              	.LVL39:
 487 0068 3B70     		strb	r3, [r7]
 488 006a 0993     		str	r3, [sp, #36]
 489 006c 1B0A     		lsrs	r3, r3, #8
 490 006e 4370     		strb	r3, [r0, #1]
 491 0070 130C     		lsrs	r3, r2, #16
 492 0072 8370     		strb	r3, [r0, #2]
 493 0074 130E     		lsrs	r3, r2, #24
 494 0076 C370     		strb	r3, [r0, #3]
  80:usbhub.c      **** 
 495              		.loc 3 80 0
 496 0078 4346     		mov	r3, r8
 497 007a 8371     		strb	r3, [r0, #6]
  83:usbhub.c      **** 
 498              		.loc 3 83 0
 499 007c 10AB     		add	r3, sp, #64
 500              	.LVL40:
 501 007e 0093     		str	r3, [sp]
 502 0080 0022     		movs	r2, #0
 503 0082 0823     		movs	r3, #8
 504              	.LVL41:
 505 0084 0021     		movs	r1, #0
 506 0086 6068     		ldr	r0, [r4, #4]
 507              	.LVL42:
 508 0088 FFF7FEFF 		bl	_ZN3USB11getDevDescrEhhtPh
 509              	.LVL43:
  85:usbhub.c      **** 
 510              		.loc 3 85 0
 511 008c BE71     		strb	r6, [r7, #6]
  83:usbhub.c      **** 
 512              		.loc 3 83 0
 513 008e 8046     		mov	r8, r0
 514              	.LVL44:
  87:usbhub.c      ****                 len = (buf[0] > 32) ? 32 : buf[0];
 515              		.loc 3 87 0
 516 0090 0028     		cmp	r0, #0
 517 0092 62D1     		bne	.L17
 518              	.LVL45:
  98:usbhub.c      ****                 return USB_DEV_CONFIG_ERROR_DEVICE_NOT_SUPPORTED;
 519              		.loc 3 98 0
 520 0094 3C22     		movs	r2, #60
 521 0096 02AB     		add	r3, sp, #8
 522 0098 9B18     		adds	r3, r3, r2
 523 009a 1B78     		ldrb	r3, [r3]
  99:usbhub.c      **** 
 524              		.loc 3 99 0
 525 009c 063D     		subs	r5, r5, #6
  98:usbhub.c      ****                 return USB_DEV_CONFIG_ERROR_DEVICE_NOT_SUPPORTED;
 526              		.loc 3 98 0
 527 009e 092B     		cmp	r3, #9
 528 00a0 BDD1     		bne	.L36
ARM GAS  C:\Users\jrdia\AppData\Local\Temp\ccJ9Fnzg.s 			page 22


  88:usbhub.c      **** 
 529              		.loc 3 88 0
 530 00a2 043A     		subs	r2, r2, #4
 531 00a4 02AB     		add	r3, sp, #8
 532 00a6 9B18     		adds	r3, r3, r2
 533 00a8 1E78     		ldrb	r6, [r3]
 102:usbhub.c      **** 
 534              		.loc 3 102 0
 535 00aa 5B46     		mov	r3, fp
 536 00ac 1B68     		ldr	r3, [r3]
 537 00ae 373A     		subs	r2, r2, #55
 538 00b0 5D68     		ldr	r5, [r3, #4]
 539 00b2 4946     		mov	r1, r9
 540 00b4 5346     		mov	r3, r10
 541 00b6 5846     		mov	r0, fp
 542              	.LVL46:
 543 00b8 A847     		blx	r5
 544              	.LVL47:
 105:usbhub.c      **** 
 545              		.loc 3 105 0
 546 00ba D425     		movs	r5, #212
 102:usbhub.c      **** 
 547              		.loc 3 102 0
 548 00bc A073     		strb	r0, [r4, #14]
 104:usbhub.c      ****                 return USB_ERROR_OUT_OF_ADDRESS_SPACE_IN_POOL;
 549              		.loc 3 104 0
 550 00be 0028     		cmp	r0, #0
 551 00c0 ADD0     		beq	.L36
 108:usbhub.c      **** 
 552              		.loc 3 108 0
 553 00c2 3F22     		movs	r2, #63
 554 00c4 02AB     		add	r3, sp, #8
 555 00c6 9B18     		adds	r3, r3, r2
 111:usbhub.c      **** 
 556              		.loc 3 111 0
 557 00c8 0022     		movs	r2, #0
 108:usbhub.c      **** 
 558              		.loc 3 108 0
 559 00ca 1B78     		ldrb	r3, [r3]
 111:usbhub.c      **** 
 560              		.loc 3 111 0
 561 00cc 1100     		movs	r1, r2
 108:usbhub.c      **** 
 562              		.loc 3 108 0
 563 00ce 6372     		strb	r3, [r4, #9]
 111:usbhub.c      **** 
 564              		.loc 3 111 0
 565 00d0 0300     		movs	r3, r0
 566 00d2 6068     		ldr	r0, [r4, #4]
 567 00d4 FFF7FEFF 		bl	_ZN3USB7setAddrEhhh
 568              	.LVL48:
 569 00d8 051E     		subs	r5, r0, #0
 570              	.LVL49:
 113:usbhub.c      ****                 // Restore p->epinfo
 571              		.loc 3 113 0
 572 00da 4AD1     		bne	.L42
  88:usbhub.c      **** 
ARM GAS  C:\Users\jrdia\AppData\Local\Temp\ccJ9Fnzg.s 			page 23


 573              		.loc 3 88 0
 574 00dc 331C     		adds	r3, r6, #0
 575 00de 202E     		cmp	r6, #32
 576 00e0 00D9     		bls	.L19
 577 00e2 2023     		movs	r3, #32
 578              	.L19:
 124:usbhub.c      **** 
 579              		.loc 3 124 0
 580 00e4 0899     		ldr	r1, [sp, #32]
  88:usbhub.c      **** 
 581              		.loc 3 88 0
 582 00e6 DBB2     		uxtb	r3, r3
 124:usbhub.c      **** 
 583              		.loc 3 124 0
 584 00e8 0A0A     		lsrs	r2, r1, #8
 585 00ea 7A70     		strb	r2, [r7, #1]
 586 00ec 0A0C     		lsrs	r2, r1, #16
 587 00ee BA70     		strb	r2, [r7, #2]
 588 00f0 0A0E     		lsrs	r2, r1, #24
 589 00f2 3970     		strb	r1, [r7]
 590 00f4 FA70     		strb	r2, [r7, #3]
 126:usbhub.c      ****                 rcode = pUsb->getDevDescr(bAddress, 0, len, (uint8_t*)buf);
 591              		.loc 3 126 0
 592 00f6 002B     		cmp	r3, #0
 593 00f8 4CD1     		bne	.L20
 594              	.LVL50:
 595              	.L22:
 133:usbhub.c      **** 
 596              		.loc 3 133 0
 597 00fa A17B     		ldrb	r1, [r4, #14]
 598 00fc 099B     		ldr	r3, [sp, #36]
 599 00fe 0222     		movs	r2, #2
 600 0100 6068     		ldr	r0, [r4, #4]
 601 0102 FFF7FEFF 		bl	_ZN3USB14setEpInfoEntryEhhP6EpInfo
 602              	.LVL51:
 603 0106 051E     		subs	r5, r0, #0
 604              	.LVL52:
 135:usbhub.c      ****                 goto FailSetDevTblEntry;
 605              		.loc 3 135 0
 606 0108 00D0     		beq	.LCB448
 607 010a 88E7     		b	.L36	@long jump
 608              	.LCB448:
 609              	.LVL53:
 610              	.LBB47:
 611              	.LBB48:
 206:usbhub.h      **** 
 207:usbhub.h      **** };
 208:usbhub.h      **** 
 209:usbhub.h      **** // Clear Hub Feature
 210:usbhub.h      **** 
 211:usbhub.h      **** inline uint8_t USBHub::ClearHubFeature(uint8_t fid) {
 212:usbhub.h      ****         return ( pUsb->ctrlReq(bAddress, 0, bmREQ_CLEAR_HUB_FEATURE, USB_REQUEST_CLEAR_FEATURE, fid
 213:usbhub.h      **** }
 214:usbhub.h      **** // Clear Port Feature
 215:usbhub.h      **** 
 216:usbhub.h      **** inline uint8_t USBHub::ClearPortFeature(uint8_t fid, uint8_t port, uint8_t sel) {
 217:usbhub.h      ****         return ( pUsb->ctrlReq(bAddress, 0, bmREQ_CLEAR_PORT_FEATURE, USB_REQUEST_CLEAR_FEATURE, fi
ARM GAS  C:\Users\jrdia\AppData\Local\Temp\ccJ9Fnzg.s 			page 24


 218:usbhub.h      **** }
 219:usbhub.h      **** // Get Hub Descriptor
 220:usbhub.h      **** 
 221:usbhub.h      **** inline uint8_t USBHub::GetHubDescriptor(uint8_t index, uint16_t nbytes, uint8_t *dataptr) {
 222:usbhub.h      ****         return ( pUsb->ctrlReq(bAddress, 0, bmREQ_GET_HUB_DESCRIPTOR, USB_REQUEST_GET_DESCRIPTOR, i
 612              		.loc 2 222 0
 613 010c 10AB     		add	r3, sp, #64
 614              	.LVL54:
 615 010e 0693     		str	r3, [sp, #24]
 616 0110 2923     		movs	r3, #41
 617              	.LVL55:
 618 0112 0826     		movs	r6, #8
 619 0114 0293     		str	r3, [sp, #8]
 620 0116 233B     		subs	r3, r3, #35
 621 0118 0790     		str	r0, [sp, #28]
 622 011a 0390     		str	r0, [sp, #12]
 623 011c 0190     		str	r0, [sp, #4]
 624 011e 0093     		str	r3, [sp]
 625 0120 0200     		movs	r2, r0
 626 0122 A17B     		ldrb	r1, [r4, #14]
 627 0124 0596     		str	r6, [sp, #20]
 628 0126 0496     		str	r6, [sp, #16]
 629 0128 9A33     		adds	r3, r3, #154
 630 012a 6068     		ldr	r0, [r4, #4]
 631              	.LVL56:
 632 012c FFF7FEFF 		bl	_ZN3USB7ctrlReqEhhhhhhtttPhP13USBReadParser
 633              	.LVL57:
 634 0130 051E     		subs	r5, r0, #0
 635              	.LVL58:
 636              	.LBE48:
 637              	.LBE47:
 144:usbhub.c      ****                 goto FailGetHubDescr;
 638              		.loc 3 144 0
 639 0132 00D0     		beq	.LCB497
 640 0134 73E7     		b	.L36	@long jump
 641              	.LCB497:
 148:usbhub.c      **** 
 642              		.loc 3 148 0
 643 0136 3A22     		movs	r2, #58
 644 0138 02AB     		add	r3, sp, #8
 645 013a 9B18     		adds	r3, r3, r2
 646 013c 1B78     		ldrb	r3, [r3]
 154:usbhub.c      **** 
 647              		.loc 3 154 0
 648 013e 0200     		movs	r2, r0
 148:usbhub.c      **** 
 649              		.loc 3 148 0
 650 0140 E373     		strb	r3, [r4, #15]
 154:usbhub.c      **** 
 651              		.loc 3 154 0
 652 0142 10AB     		add	r3, sp, #64
 653              	.LVL59:
 654 0144 0193     		str	r3, [sp, #4]
 655 0146 0090     		str	r0, [sp]
 656 0148 A17B     		ldrb	r1, [r4, #14]
 657 014a 3300     		movs	r3, r6
 658              	.LVL60:
ARM GAS  C:\Users\jrdia\AppData\Local\Temp\ccJ9Fnzg.s 			page 25


 659 014c 6068     		ldr	r0, [r4, #4]
 660              	.LVL61:
 661 014e FFF7FEFF 		bl	_ZN3USB12getConfDescrEhhthPh
 662              	.LVL62:
 156:usbhub.c      ****                 cd_len = ucd->wTotalLength;
 663              		.loc 3 156 0
 664 0152 0028     		cmp	r0, #0
 665 0154 2AD0     		beq	.L43
 666              	.LVL63:
 667              	.L35:
 668 0156 0500     		movs	r5, r0
 669 0158 61E7     		b	.L36
 670              	.LVL64:
 671              	.L17:
  92:usbhub.c      ****                 return rcode;
 672              		.loc 3 92 0
 673 015a 089A     		ldr	r2, [sp, #32]
  93:usbhub.c      ****         }
 674              		.loc 3 93 0
 675 015c 0500     		movs	r5, r0
  92:usbhub.c      ****                 return rcode;
 676              		.loc 3 92 0
 677 015e 130A     		lsrs	r3, r2, #8
 678 0160 7B70     		strb	r3, [r7, #1]
 679 0162 130C     		lsrs	r3, r2, #16
 680 0164 BB70     		strb	r3, [r7, #2]
 681 0166 130E     		lsrs	r3, r2, #24
 682 0168 3A70     		strb	r2, [r7]
 683 016a FB70     		strb	r3, [r7, #3]
  93:usbhub.c      ****         }
 684              		.loc 3 93 0
 685 016c 57E7     		b	.L36
 686              	.LVL65:
 687              	.L27:
  69:usbhub.c      **** 
 688              		.loc 3 69 0
 689 016e D625     		movs	r5, #214
 690 0170 55E7     		b	.L36
 691              	.LVL66:
 692              	.L42:
 115:usbhub.c      ****                 addrPool.FreeAddress(bAddress);
 693              		.loc 3 115 0
 694 0172 089A     		ldr	r2, [sp, #32]
 116:usbhub.c      ****                 bAddress = 0;
 695              		.loc 3 116 0
 696 0174 5846     		mov	r0, fp
 697              	.LVL67:
 115:usbhub.c      ****                 addrPool.FreeAddress(bAddress);
 698              		.loc 3 115 0
 699 0176 130A     		lsrs	r3, r2, #8
 700 0178 7B70     		strb	r3, [r7, #1]
 701 017a 130C     		lsrs	r3, r2, #16
 702 017c BB70     		strb	r3, [r7, #2]
 703 017e 130E     		lsrs	r3, r2, #24
 704 0180 FB70     		strb	r3, [r7, #3]
 116:usbhub.c      ****                 bAddress = 0;
 705              		.loc 3 116 0
ARM GAS  C:\Users\jrdia\AppData\Local\Temp\ccJ9Fnzg.s 			page 26


 706 0182 5B46     		mov	r3, fp
 707 0184 1B68     		ldr	r3, [r3]
 115:usbhub.c      ****                 addrPool.FreeAddress(bAddress);
 708              		.loc 3 115 0
 709 0186 3A70     		strb	r2, [r7]
 116:usbhub.c      ****                 bAddress = 0;
 710              		.loc 3 116 0
 711 0188 9B68     		ldr	r3, [r3, #8]
 712 018a A17B     		ldrb	r1, [r4, #14]
 713 018c 9847     		blx	r3
 714              	.LVL68:
 117:usbhub.c      ****                 return rcode;
 715              		.loc 3 117 0
 716 018e 4346     		mov	r3, r8
 717 0190 A373     		strb	r3, [r4, #14]
 118:usbhub.c      ****         }
 718              		.loc 3 118 0
 719 0192 44E7     		b	.L36
 720              	.LVL69:
 721              	.L20:
 127:usbhub.c      **** 
 722              		.loc 3 127 0
 723 0194 10AA     		add	r2, sp, #64
 724              	.LVL70:
 725 0196 0092     		str	r2, [sp]
 726 0198 9BB2     		uxth	r3, r3
 727 019a A17B     		ldrb	r1, [r4, #14]
 728 019c 0022     		movs	r2, #0
 729              	.LVL71:
 730 019e 6068     		ldr	r0, [r4, #4]
 731              	.LVL72:
 732 01a0 FFF7FEFF 		bl	_ZN3USB11getDevDescrEhhtPh
 733              	.LVL73:
 734 01a4 051E     		subs	r5, r0, #0
 735              	.LVL74:
 129:usbhub.c      ****                 goto FailGetDevDescr;
 736              		.loc 3 129 0
 737 01a6 00D0     		beq	.LCB623
 738 01a8 39E7     		b	.L36	@long jump
 739              	.LCB623:
 740 01aa A6E7     		b	.L22
 741              	.LVL75:
 742              	.L43:
 158:usbhub.c      ****         }
 743              		.loc 3 158 0
 744 01ac 10AA     		add	r2, sp, #64
 745              	.LVL76:
 746 01ae 02AB     		add	r3, sp, #8
 747 01b0 5B8F     		ldrh	r3, [r3, #58]
 748 01b2 A17B     		ldrb	r1, [r4, #14]
 749 01b4 0192     		str	r2, [sp, #4]
 750 01b6 0095     		str	r5, [sp]
 751 01b8 2A00     		movs	r2, r5
 752              	.LVL77:
 753 01ba 6068     		ldr	r0, [r4, #4]
 754              	.LVL78:
 755 01bc FFF7FEFF 		bl	_ZN3USB12getConfDescrEhhthPh
ARM GAS  C:\Users\jrdia\AppData\Local\Temp\ccJ9Fnzg.s 			page 27


 756              	.LVL79:
 160:usbhub.c      ****                 goto FailGetConfDescr;
 757              		.loc 3 160 0
 758 01c0 0028     		cmp	r0, #0
 759 01c2 C8D1     		bne	.L35
 760              	.LBB49:
 168:usbhub.c      **** 
 761              		.loc 3 168 0
 762 01c4 3822     		movs	r2, #56
 763 01c6 02AB     		add	r3, sp, #8
 764 01c8 9B18     		adds	r3, r3, r2
 765 01ca 0AAA     		add	r2, sp, #40
 766 01cc 1B78     		ldrb	r3, [r3]
 767 01ce A17B     		ldrb	r1, [r4, #14]
 768 01d0 0192     		str	r2, [sp, #4]
 769 01d2 0095     		str	r5, [sp]
 770 01d4 2A00     		movs	r2, r5
 771 01d6 6068     		ldr	r0, [r4, #4]
 772              	.LVL80:
 773 01d8 FFF7FEFF 		bl	_ZN3USB12getConfDescrEhhthPh
 774              	.LVL81:
 170:usbhub.c      ****                         goto FailGetConfDescr;
 775              		.loc 3 170 0
 776 01dc 0028     		cmp	r0, #0
 777 01de BAD1     		bne	.L35
 778              	.LBE49:
 175:usbhub.c      **** 
 779              		.loc 3 175 0
 780 01e0 3D22     		movs	r2, #61
 781 01e2 02AB     		add	r3, sp, #8
 782 01e4 9B18     		adds	r3, r3, r2
 783 01e6 1B78     		ldrb	r3, [r3]
 784 01e8 A17B     		ldrb	r1, [r4, #14]
 785 01ea 2A00     		movs	r2, r5
 786 01ec 6068     		ldr	r0, [r4, #4]
 787              	.LVL82:
 788 01ee FFF7FEFF 		bl	_ZN3USB7setConfEhhh
 789              	.LVL83:
 177:usbhub.c      ****                 goto FailSetConfDescr;
 790              		.loc 3 177 0
 791 01f2 0028     		cmp	r0, #0
 792 01f4 AFD1     		bne	.L35
 793 01f6 0127     		movs	r7, #1
 794              	.LVL84:
 795              	.LBB50:
 796              	.LBB51:
 797              	.LBB52:
 223:usbhub.h      **** }
 224:usbhub.h      **** // Get Hub Status
 225:usbhub.h      **** 
 226:usbhub.h      **** inline uint8_t USBHub::GetHubStatus(uint16_t nbytes, uint8_t* dataptr) {
 227:usbhub.h      ****         return ( pUsb->ctrlReq(bAddress, 0, bmREQ_GET_HUB_STATUS, USB_REQUEST_GET_STATUS, 0, 0, 0x0
 228:usbhub.h      **** }
 229:usbhub.h      **** // Get Port Status
 230:usbhub.h      **** 
 231:usbhub.h      **** inline uint8_t USBHub::GetPortStatus(uint8_t port, uint16_t nbytes, uint8_t* dataptr) {
 232:usbhub.h      ****         return ( pUsb->ctrlReq(bAddress, 0, bmREQ_GET_PORT_STATUS, USB_REQUEST_GET_STATUS, 0, 0, po
ARM GAS  C:\Users\jrdia\AppData\Local\Temp\ccJ9Fnzg.s 			page 28


 233:usbhub.h      **** }
 234:usbhub.h      **** // Set Hub Descriptor
 235:usbhub.h      **** 
 236:usbhub.h      **** inline uint8_t USBHub::SetHubDescriptor(uint8_t port, uint16_t nbytes, uint8_t* dataptr) {
 237:usbhub.h      ****         return ( pUsb->ctrlReq(bAddress, 0, bmREQ_SET_HUB_DESCRIPTOR, USB_REQUEST_SET_DESCRIPTOR, 0
 238:usbhub.h      **** }
 239:usbhub.h      **** // Set Hub Feature
 240:usbhub.h      **** 
 241:usbhub.h      **** inline uint8_t USBHub::SetHubFeature(uint8_t fid) {
 242:usbhub.h      ****         return ( pUsb->ctrlReq(bAddress, 0, bmREQ_SET_HUB_FEATURE, USB_REQUEST_SET_FEATURE, fid, 0,
 243:usbhub.h      **** }
 244:usbhub.h      **** // Set Port Feature
 245:usbhub.h      **** 
 246:usbhub.h      **** inline uint8_t USBHub::SetPortFeature(uint8_t fid, uint8_t port, uint8_t sel) {
 247:usbhub.h      ****         return ( pUsb->ctrlReq(bAddress, 0, bmREQ_SET_PORT_FEATURE, USB_REQUEST_SET_FEATURE, fid, 0
 798              		.loc 2 247 0 discriminator 1
 799 01f8 A946     		mov	r9, r5
 800 01fa B046     		mov	r8, r6
 801 01fc 053E     		subs	r6, r6, #5
 802              	.LVL85:
 803              	.L24:
 804              	.LBE52:
 805              	.LBE51:
 184:usbhub.c      ****                 SetPortFeature(HUB_FEATURE_PORT_POWER, j, 0); //HubPortPowerOn(j);
 806              		.loc 3 184 0 discriminator 1
 807 01fe E37B     		ldrb	r3, [r4, #15]
 808 0200 BB42     		cmp	r3, r7
 809 0202 12D3     		bcc	.L25
 810              	.LVL86:
 811              	.LBB55:
 812              	.LBB53:
 813              		.loc 2 247 0
 814 0204 4B46     		mov	r3, r9
 815 0206 0793     		str	r3, [sp, #28]
 816 0208 0693     		str	r3, [sp, #24]
 817 020a 0593     		str	r3, [sp, #20]
 818 020c 0493     		str	r3, [sp, #16]
 819 020e 0293     		str	r3, [sp, #8]
 820 0210 4346     		mov	r3, r8
 821 0212 0397     		str	r7, [sp, #12]
 822 0214 0193     		str	r3, [sp, #4]
 823 0216 A17B     		ldrb	r1, [r4, #14]
 824 0218 0096     		str	r6, [sp]
 825 021a 2323     		movs	r3, #35
 826 021c 0022     		movs	r2, #0
 827 021e 6068     		ldr	r0, [r4, #4]
 828              	.LBE53:
 829              	.LBE55:
 184:usbhub.c      ****                 SetPortFeature(HUB_FEATURE_PORT_POWER, j, 0); //HubPortPowerOn(j);
 830              		.loc 3 184 0
 831 0220 0137     		adds	r7, r7, #1
 832              	.LVL87:
 833              	.LBB56:
 834              	.LBB54:
 835              		.loc 2 247 0
 836 0222 FFF7FEFF 		bl	_ZN3USB7ctrlReqEhhhhhhtttPhP13USBReadParser
 837              	.LVL88:
ARM GAS  C:\Users\jrdia\AppData\Local\Temp\ccJ9Fnzg.s 			page 29


 838              	.LBE54:
 839              	.LBE56:
 184:usbhub.c      ****                 SetPortFeature(HUB_FEATURE_PORT_POWER, j, 0); //HubPortPowerOn(j);
 840              		.loc 3 184 0
 841 0226 FFB2     		uxtb	r7, r7
 842              	.LVL89:
 843 0228 E9E7     		b	.L24
 844              	.LVL90:
 845              	.L25:
 846              	.LBE50:
 847              	.LBB57:
 848              	.LBB58:
 849              		.loc 1 208 0
 850 022a B822     		movs	r2, #184
 851 022c 0420     		movs	r0, #4
 852              	.LBE58:
 853              	.LBE57:
 187:usbhub.c      ****         bPollEnable = true;
 854              		.loc 3 187 0
 855 022e 6168     		ldr	r1, [r4, #4]
 856              	.LVL91:
 857              	.LBB60:
 858              	.LBB59:
 859              		.loc 1 208 0
 860 0230 8B5C     		ldrb	r3, [r1, r2]
 861 0232 0343     		orrs	r3, r0
 862 0234 8B54     		strb	r3, [r1, r2]
 863              	.LBE59:
 864              	.LBE60:
 188:usbhub.c      ****         //                bInitState = 0;
 865              		.loc 3 188 0
 866 0236 0123     		movs	r3, #1
 867 0238 2375     		strb	r3, [r4, #20]
 193:usbhub.c      **** 
 868              		.loc 3 193 0
 869 023a F0E6     		b	.L36
 870              		.cfi_endproc
 871              	.LFE229:
 872              		.fnend
 873              		.size	_ZN6USBHub4InitEhhb, .-_ZN6USBHub4InitEhhb
 874              		.section	.text._ZN6USBHub12ResetHubPortEh,"ax",%progbits
 875              		.align	2
 876              		.global	_ZN6USBHub12ResetHubPortEh
 877              		.code	16
 878              		.thumb_func
 879              		.type	_ZN6USBHub12ResetHubPortEh, %function
 880              	_ZN6USBHub12ResetHubPortEh:
 881              		.fnstart
 882              	.LFB233:
 228:usbhub.c      **** 
 229:usbhub.c      **** uint8_t USBHub::Poll() {
 230:usbhub.c      ****         uint8_t rcode = 0;
 231:usbhub.c      **** 
 232:usbhub.c      ****         if(!bPollEnable)
 233:usbhub.c      ****                 return 0;
 234:usbhub.c      **** 
 235:usbhub.c      ****         if(((int32_t)((uint32_t)millis() - qNextPollTime) >= 0L)) {
ARM GAS  C:\Users\jrdia\AppData\Local\Temp\ccJ9Fnzg.s 			page 30


 236:usbhub.c      ****                 rcode = CheckHubStatus();
 237:usbhub.c      ****                 qNextPollTime = (uint32_t)millis() + 100;
 238:usbhub.c      ****         }
 239:usbhub.c      ****         return rcode;
 240:usbhub.c      **** }
 241:usbhub.c      **** 
 242:usbhub.c      **** uint8_t USBHub::CheckHubStatus() {
 243:usbhub.c      ****         uint8_t rcode;
 244:usbhub.c      ****         uint8_t buf[8];
 245:usbhub.c      ****         uint16_t read = 1;
 246:usbhub.c      **** 
 247:usbhub.c      ****         rcode = pUsb->inTransfer(bAddress, 1, &read, buf);
 248:usbhub.c      **** 
 249:usbhub.c      ****         if(rcode)
 250:usbhub.c      ****                 return rcode;
 251:usbhub.c      **** 
 252:usbhub.c      ****         //if (buf[0] & 0x01) // Hub Status Change
 253:usbhub.c      ****         //{
 254:usbhub.c      ****         //        pUsb->PrintHubStatus(addr);
 255:usbhub.c      ****         //        rcode = GetHubStatus(1, 0, 1, 4, buf);
 256:usbhub.c      ****         //        if (rcode)
 257:usbhub.c      ****         //        {
 258:usbhub.c      ****         //                USB_HOST_SERIAL.print("GetHubStatus Error");
 259:usbhub.c      ****         //                USB_HOST_SERIAL.println(rcode, HEX);
 260:usbhub.c      ****         //                return rcode;
 261:usbhub.c      ****         //        }
 262:usbhub.c      ****         //}
 263:usbhub.c      ****         for(uint8_t port = 1, mask = 0x02; port < 8; mask <<= 1, port++) {
 264:usbhub.c      ****                 if(buf[0] & mask) {
 265:usbhub.c      ****                         HubEvent evt;
 266:usbhub.c      ****                         evt.bmEvent = 0;
 267:usbhub.c      **** 
 268:usbhub.c      ****                         rcode = GetPortStatus(port, 4, evt.evtBuff);
 269:usbhub.c      **** 
 270:usbhub.c      ****                         if(rcode)
 271:usbhub.c      ****                                 continue;
 272:usbhub.c      **** 
 273:usbhub.c      ****                         rcode = PortStatusChange(port, evt);
 274:usbhub.c      **** 
 275:usbhub.c      ****                         if(rcode == HUB_ERROR_PORT_HAS_BEEN_RESET)
 276:usbhub.c      ****                                 return 0;
 277:usbhub.c      **** 
 278:usbhub.c      ****                         if(rcode)
 279:usbhub.c      ****                                 return rcode;
 280:usbhub.c      ****                 }
 281:usbhub.c      ****         } // for
 282:usbhub.c      **** 
 283:usbhub.c      ****         for(uint8_t port = 1; port <= bNbrPorts; port++) {
 284:usbhub.c      ****                 HubEvent evt;
 285:usbhub.c      ****                 evt.bmEvent = 0;
 286:usbhub.c      **** 
 287:usbhub.c      ****                 rcode = GetPortStatus(port, 4, evt.evtBuff);
 288:usbhub.c      **** 
 289:usbhub.c      ****                 if(rcode)
 290:usbhub.c      ****                         continue;
 291:usbhub.c      **** 
 292:usbhub.c      ****                 if((evt.bmStatus & bmHUB_PORT_STATE_CHECK_DISABLED) != bmHUB_PORT_STATE_DISABLED)
ARM GAS  C:\Users\jrdia\AppData\Local\Temp\ccJ9Fnzg.s 			page 31


 293:usbhub.c      ****                         continue;
 294:usbhub.c      **** 
 295:usbhub.c      ****                 // Emulate connection event for the port
 296:usbhub.c      ****                 evt.bmChange |= bmHUB_PORT_STATUS_C_PORT_CONNECTION;
 297:usbhub.c      **** 
 298:usbhub.c      ****                 rcode = PortStatusChange(port, evt);
 299:usbhub.c      **** 
 300:usbhub.c      ****                 if(rcode == HUB_ERROR_PORT_HAS_BEEN_RESET)
 301:usbhub.c      ****                         return 0;
 302:usbhub.c      **** 
 303:usbhub.c      ****                 if(rcode)
 304:usbhub.c      ****                         return rcode;
 305:usbhub.c      ****         } // for
 306:usbhub.c      ****         return 0;
 307:usbhub.c      **** }
 308:usbhub.c      **** 
 309:usbhub.c      **** void USBHub::ResetHubPort(uint8_t port) {
 883              		.loc 3 309 0
 884              		.cfi_startproc
 885              		@ args = 0, pretend = 0, frame = 8
 886              		@ frame_needed = 0, uses_anonymous_args = 0
 887              	.LVL92:
 888 0000 F0B5     		push	{r4, r5, r6, r7, lr}
 889              		.save {r4, r5, r6, r7, lr}
 890              		.cfi_def_cfa_offset 20
 891              		.cfi_offset 4, -20
 892              		.cfi_offset 5, -16
 893              		.cfi_offset 6, -12
 894              		.cfi_offset 7, -8
 895              		.cfi_offset 14, -4
 896 0002 5746     		mov	r7, r10
 897 0004 4E46     		mov	r6, r9
 898 0006 4546     		mov	r5, r8
 310:usbhub.c      ****         HubEvent evt;
 311:usbhub.c      ****         evt.bmEvent = 0;
 899              		.loc 3 311 0
 900 0008 0024     		movs	r4, #0
 309:usbhub.c      ****         HubEvent evt;
 901              		.loc 3 309 0
 902 000a E0B4     		push	{r5, r6, r7}
 903              		.save {r8, r9, r10}
 904              		.cfi_def_cfa_offset 32
 905              		.cfi_offset 8, -32
 906              		.cfi_offset 9, -28
 907              		.cfi_offset 10, -24
 908              	.LBB74:
 909              	.LBB75:
 217:usbhub.h      **** }
 910              		.loc 2 217 0
 911 000c 1123     		movs	r3, #17
 912 000e 0127     		movs	r7, #1
 913              	.LBE75:
 914              	.LBE74:
 309:usbhub.c      ****         HubEvent evt;
 915              		.loc 3 309 0
 916              		.pad #40
 917 0010 8AB0     		sub	sp, sp, #40
ARM GAS  C:\Users\jrdia\AppData\Local\Temp\ccJ9Fnzg.s 			page 32


 918              		.cfi_def_cfa_offset 72
 919              	.LBB79:
 920              	.LBB76:
 217:usbhub.h      **** }
 921              		.loc 2 217 0
 922 0012 8EB2     		uxth	r6, r1
 923 0014 817B     		ldrb	r1, [r0, #14]
 924              	.LVL93:
 925 0016 0193     		str	r3, [sp, #4]
 926 0018 0097     		str	r7, [sp]
 927 001a 0794     		str	r4, [sp, #28]
 928 001c 0694     		str	r4, [sp, #24]
 929 001e 0594     		str	r4, [sp, #20]
 930 0020 0494     		str	r4, [sp, #16]
 931 0022 0396     		str	r6, [sp, #12]
 932 0024 0294     		str	r4, [sp, #8]
 933              	.LBE76:
 934              	.LBE79:
 309:usbhub.c      ****         HubEvent evt;
 935              		.loc 3 309 0
 936 0026 0500     		movs	r5, r0
 937              	.LBB80:
 938              	.LBB77:
 217:usbhub.h      **** }
 939              		.loc 2 217 0
 940 0028 1233     		adds	r3, r3, #18
 941 002a 0022     		movs	r2, #0
 942 002c 4068     		ldr	r0, [r0, #4]
 943              	.LVL94:
 944              	.LBE77:
 945              	.LBE80:
 946              		.loc 3 311 0
 947 002e 0994     		str	r4, [sp, #36]
 948              	.LVL95:
 949              	.LBB81:
 950              	.LBB78:
 217:usbhub.h      **** }
 951              		.loc 2 217 0
 952 0030 FFF7FEFF 		bl	_ZN3USB7ctrlReqEhhhhhhtttPhP13USBReadParser
 953              	.LVL96:
 954              	.LBE78:
 955              	.LBE81:
 956              	.LBB82:
 957              	.LBB83:
 958 0034 1023     		movs	r3, #16
 959 0036 A97B     		ldrb	r1, [r5, #14]
 960 0038 0193     		str	r3, [sp, #4]
 961 003a 0097     		str	r7, [sp]
 962 003c 1333     		adds	r3, r3, #19
 963 003e 0022     		movs	r2, #0
 964 0040 0794     		str	r4, [sp, #28]
 965 0042 0694     		str	r4, [sp, #24]
 966 0044 0594     		str	r4, [sp, #20]
 967 0046 0494     		str	r4, [sp, #16]
 968 0048 0396     		str	r6, [sp, #12]
 969 004a 0294     		str	r4, [sp, #8]
 970 004c 6868     		ldr	r0, [r5, #4]
ARM GAS  C:\Users\jrdia\AppData\Local\Temp\ccJ9Fnzg.s 			page 33


 971 004e FFF7FEFF 		bl	_ZN3USB7ctrlReqEhhhhhhtttPhP13USBReadParser
 972              	.LVL97:
 973              	.LBE83:
 974              	.LBE82:
 975              	.LBB84:
 976              	.LBB85:
 977              		.loc 2 247 0
 978 0052 0423     		movs	r3, #4
 979 0054 0193     		str	r3, [sp, #4]
 980 0056 013B     		subs	r3, r3, #1
 981 0058 0093     		str	r3, [sp]
 982 005a A97B     		ldrb	r1, [r5, #14]
 983 005c 2033     		adds	r3, r3, #32
 984 005e 0794     		str	r4, [sp, #28]
 985 0060 0694     		str	r4, [sp, #24]
 986 0062 0594     		str	r4, [sp, #20]
 987 0064 0494     		str	r4, [sp, #16]
 988 0066 0396     		str	r6, [sp, #12]
 989 0068 0294     		str	r4, [sp, #8]
 990 006a 0022     		movs	r2, #0
 991 006c 6868     		ldr	r0, [r5, #4]
 992 006e FFF7FEFF 		bl	_ZN3USB7ctrlReqEhhhhhhtttPhP13USBReadParser
 993              	.LVL98:
 994 0072 0323     		movs	r3, #3
 995 0074 9846     		mov	r8, r3
 996              	.LBE85:
 997              	.LBE84:
 998              	.LBB86:
 999              	.LBB87:
 1000              	.LBB88:
 232:usbhub.h      **** }
 1001              		.loc 2 232 0
 1002 0076 0133     		adds	r3, r3, #1
 1003 0078 9946     		mov	r9, r3
 1004              	.LBE88:
 1005              	.LBE87:
 312:usbhub.c      ****         uint8_t rcode;
 313:usbhub.c      **** 
 314:usbhub.c      ****         ClearPortFeature(HUB_FEATURE_C_PORT_ENABLE, port, 0);
 315:usbhub.c      ****         ClearPortFeature(HUB_FEATURE_C_PORT_CONNECTION, port, 0);
 316:usbhub.c      ****         SetPortFeature(HUB_FEATURE_PORT_RESET, port, 0);
 317:usbhub.c      **** 
 318:usbhub.c      **** 
 319:usbhub.c      ****         for(int i = 0; i < 3; i++) {
 320:usbhub.c      ****                 rcode = GetPortStatus(port, 4, evt.evtBuff);
 321:usbhub.c      ****                 if(rcode) break; // Some kind of error, bail.
 322:usbhub.c      ****                 if(evt.bmEvent == bmHUB_PORT_EVENT_RESET_COMPLETE || evt.bmEvent == bmHUB_PORT_EVEN
 1006              		.loc 3 322 0
 1007 007a 264B     		ldr	r3, .L52
 1008 007c 09AF     		add	r7, sp, #36
 1009 007e 9A46     		mov	r10, r3
 1010              	.LVL99:
 1011              	.L47:
 1012              	.LBB90:
 1013              	.LBB89:
 232:usbhub.h      **** }
 1014              		.loc 2 232 0
ARM GAS  C:\Users\jrdia\AppData\Local\Temp\ccJ9Fnzg.s 			page 34


 1015 0080 4B46     		mov	r3, r9
 1016 0082 A97B     		ldrb	r1, [r5, #14]
 1017 0084 0593     		str	r3, [sp, #20]
 1018 0086 0493     		str	r3, [sp, #16]
 1019 0088 0794     		str	r4, [sp, #28]
 1020 008a 0697     		str	r7, [sp, #24]
 1021 008c 0396     		str	r6, [sp, #12]
 1022 008e 0294     		str	r4, [sp, #8]
 1023 0090 0194     		str	r4, [sp, #4]
 1024 0092 0094     		str	r4, [sp]
 1025 0094 A323     		movs	r3, #163
 1026 0096 0022     		movs	r2, #0
 1027 0098 6868     		ldr	r0, [r5, #4]
 1028 009a FFF7FEFF 		bl	_ZN3USB7ctrlReqEhhhhhhtttPhP13USBReadParser
 1029              	.LVL100:
 1030              	.LBE89:
 1031              	.LBE90:
 321:usbhub.c      ****                 if(evt.bmEvent == bmHUB_PORT_EVENT_RESET_COMPLETE || evt.bmEvent == bmHUB_PORT_EVEN
 1032              		.loc 3 321 0
 1033 009e 0028     		cmp	r0, #0
 1034 00a0 0FD1     		bne	.L46
 1035              		.loc 3 322 0
 1036 00a2 5246     		mov	r2, r10
 1037 00a4 3B68     		ldr	r3, [r7]
 1038 00a6 1340     		ands	r3, r2
 1039 00a8 1B4A     		ldr	r2, .L52+4
 1040 00aa 9342     		cmp	r3, r2
 1041 00ac 09D0     		beq	.L46
 323:usbhub.c      ****                         break;
 324:usbhub.c      ****                 }
 325:usbhub.c      ****                 delay(100); // simulate polling.
 1042              		.loc 3 325 0
 1043 00ae 6420     		movs	r0, #100
 1044              	.LVL101:
 1045 00b0 FFF7FEFF 		bl	delay
 1046              	.LVL102:
 1047 00b4 0123     		movs	r3, #1
 1048 00b6 5B42     		rsbs	r3, r3, #0
 1049 00b8 9C46     		mov	ip, r3
 1050 00ba E044     		add	r8, r8, ip
 1051              	.LVL103:
 319:usbhub.c      ****                 rcode = GetPortStatus(port, 4, evt.evtBuff);
 1052              		.loc 3 319 0
 1053 00bc 4346     		mov	r3, r8
 1054 00be 002B     		cmp	r3, #0
 1055 00c0 DED1     		bne	.L47
 1056              	.LVL104:
 1057              	.L46:
 1058              	.LBE86:
 1059              	.LBB91:
 1060              	.LBB92:
 217:usbhub.h      **** }
 1061              		.loc 2 217 0
 1062 00c2 0024     		movs	r4, #0
 1063 00c4 0127     		movs	r7, #1
 1064 00c6 1423     		movs	r3, #20
 1065 00c8 A97B     		ldrb	r1, [r5, #14]
ARM GAS  C:\Users\jrdia\AppData\Local\Temp\ccJ9Fnzg.s 			page 35


 1066 00ca 0193     		str	r3, [sp, #4]
 1067 00cc 0794     		str	r4, [sp, #28]
 1068 00ce 0694     		str	r4, [sp, #24]
 1069 00d0 0594     		str	r4, [sp, #20]
 1070 00d2 0494     		str	r4, [sp, #16]
 1071 00d4 0396     		str	r6, [sp, #12]
 1072 00d6 0294     		str	r4, [sp, #8]
 1073 00d8 0097     		str	r7, [sp]
 1074 00da 0F33     		adds	r3, r3, #15
 1075 00dc 0022     		movs	r2, #0
 1076 00de 6868     		ldr	r0, [r5, #4]
 1077 00e0 FFF7FEFF 		bl	_ZN3USB7ctrlReqEhhhhhhtttPhP13USBReadParser
 1078              	.LVL105:
 1079              	.LBE92:
 1080              	.LBE91:
 1081              	.LBB93:
 1082              	.LBB94:
 1083 00e4 1023     		movs	r3, #16
 1084 00e6 A97B     		ldrb	r1, [r5, #14]
 1085 00e8 0193     		str	r3, [sp, #4]
 1086 00ea 0022     		movs	r2, #0
 1087 00ec 1333     		adds	r3, r3, #19
 1088 00ee 6868     		ldr	r0, [r5, #4]
 1089 00f0 0794     		str	r4, [sp, #28]
 1090 00f2 0694     		str	r4, [sp, #24]
 1091 00f4 0594     		str	r4, [sp, #20]
 1092 00f6 0494     		str	r4, [sp, #16]
 1093 00f8 0396     		str	r6, [sp, #12]
 1094 00fa 0294     		str	r4, [sp, #8]
 1095 00fc 0097     		str	r7, [sp]
 1096 00fe FFF7FEFF 		bl	_ZN3USB7ctrlReqEhhhhhhtttPhP13USBReadParser
 1097              	.LVL106:
 1098              	.LBE94:
 1099              	.LBE93:
 326:usbhub.c      ****         }
 327:usbhub.c      ****         ClearPortFeature(HUB_FEATURE_C_PORT_RESET, port, 0);
 328:usbhub.c      ****         ClearPortFeature(HUB_FEATURE_C_PORT_CONNECTION, port, 0);
 329:usbhub.c      ****         delay(20);
 1100              		.loc 3 329 0
 1101 0102 1420     		movs	r0, #20
 1102 0104 FFF7FEFF 		bl	delay
 1103              	.LVL107:
 330:usbhub.c      **** }
 1104              		.loc 3 330 0
 1105 0108 0AB0     		add	sp, sp, #40
 1106              		@ sp needed
 1107              	.LVL108:
 1108 010a 1CBC     		pop	{r2, r3, r4}
 1109 010c 9046     		mov	r8, r2
 1110 010e 9946     		mov	r9, r3
 1111 0110 A246     		mov	r10, r4
 1112 0112 F0BD     		pop	{r4, r5, r6, r7, pc}
 1113              	.L53:
 1114              		.align	2
 1115              	.L52:
 1116 0114 FFFDFFFF 		.word	-513
 1117 0118 03011000 		.word	1048835
ARM GAS  C:\Users\jrdia\AppData\Local\Temp\ccJ9Fnzg.s 			page 36


 1118              		.cfi_endproc
 1119              	.LFE233:
 1120              		.fnend
 1121              		.size	_ZN6USBHub12ResetHubPortEh, .-_ZN6USBHub12ResetHubPortEh
 1122              		.section	.text._ZN6USBHubC2EP3USB,"ax",%progbits
 1123              		.align	2
 1124              		.global	_ZN6USBHubC2EP3USB
 1125              		.code	16
 1126              		.thumb_func
 1127              		.type	_ZN6USBHubC2EP3USB, %function
 1128              	_ZN6USBHubC2EP3USB:
 1129              		.fnstart
 1130              	.LFB227:
  21:usbhub.c      **** pUsb(p),
 1131              		.loc 3 21 0
 1132              		.cfi_startproc
 1133              		@ args = 0, pretend = 0, frame = 0
 1134              		@ frame_needed = 0, uses_anonymous_args = 0
 1135              	.LVL109:
 1136 0000 F0B5     		push	{r4, r5, r6, r7, lr}
 1137              		.cfi_def_cfa_offset 20
 1138              		.cfi_offset 4, -20
 1139              		.cfi_offset 5, -16
 1140              		.cfi_offset 6, -12
 1141              		.cfi_offset 7, -8
 1142              		.cfi_offset 14, -4
 1143              	.LBB95:
  30:usbhub.c      ****         epInfo[0].bmRcvToggle = 0;
 1144              		.loc 3 30 0
 1145 0002 0124     		movs	r4, #1
  31:usbhub.c      ****         epInfo[0].bmNakPower = USB_NAK_MAX_POWER;
 1146              		.loc 3 31 0
 1147 0004 0227     		movs	r7, #2
  32:usbhub.c      **** 
 1148              		.loc 3 32 0
 1149 0006 0326     		movs	r6, #3
 1150 0008 3C25     		movs	r5, #60
  27:usbhub.c      ****         epInfo[0].epAddr = 0;
 1151              		.loc 3 27 0
 1152 000a 164B     		ldr	r3, .L63
  30:usbhub.c      ****         epInfo[0].bmRcvToggle = 0;
 1153              		.loc 3 30 0
 1154 000c 827A     		ldrb	r2, [r0, #10]
  27:usbhub.c      ****         epInfo[0].epAddr = 0;
 1155              		.loc 3 27 0
 1156 000e 0833     		adds	r3, r3, #8
 1157 0010 0360     		str	r3, [r0]
 1158 0012 0023     		movs	r3, #0
  31:usbhub.c      ****         epInfo[0].bmNakPower = USB_NAK_MAX_POWER;
 1159              		.loc 3 31 0
 1160 0014 A243     		bics	r2, r4
  32:usbhub.c      **** 
 1161              		.loc 3 32 0
 1162 0016 BA43     		bics	r2, r7
 1163 0018 3240     		ands	r2, r6
 1164 001a 2A43     		orrs	r2, r5
 1165 001c 8272     		strb	r2, [r0, #10]
ARM GAS  C:\Users\jrdia\AppData\Local\Temp\ccJ9Fnzg.s 			page 37


  38:usbhub.c      **** 
 1166              		.loc 3 38 0
 1167 001e 0422     		movs	r2, #4
  27:usbhub.c      ****         epInfo[0].epAddr = 0;
 1168              		.loc 3 27 0
 1169 0020 8373     		strb	r3, [r0, #14]
 1170 0022 C373     		strb	r3, [r0, #15]
 1171 0024 0361     		str	r3, [r0, #16]
 1172 0026 0375     		strb	r3, [r0, #20]
  28:usbhub.c      ****         epInfo[0].maxPktSize = 8;
 1173              		.loc 3 28 0
 1174 0028 0372     		strb	r3, [r0, #8]
  29:usbhub.c      ****         epInfo[0].bmSndToggle = 0;
 1175              		.loc 3 29 0
 1176 002a 0833     		adds	r3, r3, #8
 1177 002c 4372     		strb	r3, [r0, #9]
  35:usbhub.c      ****         epInfo[1].bmSndToggle = 0;
 1178              		.loc 3 35 0
 1179 002e 0373     		strb	r3, [r0, #12]
  36:usbhub.c      ****         epInfo[1].bmRcvToggle = 0;
 1180              		.loc 3 36 0
 1181 0030 437B     		ldrb	r3, [r0, #13]
  27:usbhub.c      ****         epInfo[0].epAddr = 0;
 1182              		.loc 3 27 0
 1183 0032 4160     		str	r1, [r0, #4]
  37:usbhub.c      ****         epInfo[1].bmNakPower = USB_NAK_NOWAIT;
 1184              		.loc 3 37 0
 1185 0034 A343     		bics	r3, r4
  38:usbhub.c      **** 
 1186              		.loc 3 38 0
 1187 0036 BB43     		bics	r3, r7
 1188 0038 3340     		ands	r3, r6
 1189 003a 1343     		orrs	r3, r2
  34:usbhub.c      ****         epInfo[1].maxPktSize = 8; //kludge
 1190              		.loc 3 34 0
 1191 003c C472     		strb	r4, [r0, #11]
  38:usbhub.c      **** 
 1192              		.loc 3 38 0
 1193 003e 4373     		strb	r3, [r0, #13]
  40:usbhub.c      ****                 pUsb->RegisterDeviceClass(this);
 1194              		.loc 3 40 0
 1195 0040 0029     		cmp	r1, #0
 1196 0042 09D0     		beq	.L55
 1197              	.LVL110:
 1198 0044 0A00     		movs	r2, r1
 1199 0046 0023     		movs	r3, #0
 1200 0048 7832     		adds	r2, r2, #120
 1201              	.LVL111:
 1202              	.L57:
 1203              	.LBB96:
 1204              	.LBB97:
 209:UsbCore.h     ****         };
 210:UsbCore.h     **** 
 211:UsbCore.h     ****         void ResetHubPreMask() {
 212:UsbCore.h     ****                 bmHubPre &= (~bmHUBPRE);
 213:UsbCore.h     ****         };
 214:UsbCore.h     **** 
ARM GAS  C:\Users\jrdia\AppData\Local\Temp\ccJ9Fnzg.s 			page 38


 215:UsbCore.h     ****         AddressPool& GetAddressPool() {
 216:UsbCore.h     ****                 return (AddressPool&)addrPool;
 217:UsbCore.h     ****         };
 218:UsbCore.h     **** 
 219:UsbCore.h     ****         uint8_t RegisterDeviceClass(USBDeviceConfig *pdev) {
 220:UsbCore.h     ****                 for(uint8_t i = 0; i < USB_NUMDEVICES; i++) {
 221:UsbCore.h     ****                         if(!devConfig[i]) {
 1205              		.loc 1 221 0
 1206 004a 1468     		ldr	r4, [r2]
 1207 004c 002C     		cmp	r4, #0
 1208 004e 04D0     		beq	.L62
 1209              	.LVL112:
 1210 0050 0133     		adds	r3, r3, #1
 1211              	.LVL113:
 1212 0052 0432     		adds	r2, r2, #4
 220:UsbCore.h     ****                         if(!devConfig[i]) {
 1213              		.loc 1 220 0
 1214 0054 102B     		cmp	r3, #16
 1215 0056 F8D1     		bne	.L57
 1216              	.LVL114:
 1217              	.L55:
 1218              	.LBE97:
 1219              	.LBE96:
 1220              	.LBE95:
  42:usbhub.c      **** 
 1221              		.loc 3 42 0
 1222              		@ sp needed
 1223 0058 F0BD     		pop	{r4, r5, r6, r7, pc}
 1224              	.LVL115:
 1225              	.L62:
 1226              	.LBB100:
 1227              	.LBB99:
 1228              	.LBB98:
 222:UsbCore.h     ****                                 devConfig[i] = pdev;
 1229              		.loc 1 222 0
 1230 005a 1E33     		adds	r3, r3, #30
 1231              	.LVL116:
 1232 005c 9B00     		lsls	r3, r3, #2
 1233 005e 5850     		str	r0, [r3, r1]
 1234 0060 FAE7     		b	.L55
 1235              	.L64:
 1236 0062 C046     		.align	2
 1237              	.L63:
 1238 0064 00000000 		.word	.LANCHOR0
 1239              	.LBE98:
 1240              	.LBE99:
 1241              	.LBE100:
 1242              		.cfi_endproc
 1243              	.LFE227:
 1244              		.cantunwind
 1245              		.fnend
 1246              		.size	_ZN6USBHubC2EP3USB, .-_ZN6USBHubC2EP3USB
 1247              		.global	_ZN6USBHubC1EP3USB
 1248              		.thumb_set _ZN6USBHubC1EP3USB,_ZN6USBHubC2EP3USB
 1249              		.section	.text._ZN6USBHub16PortStatusChangeEhR8HubEvent,"ax",%progbits
 1250              		.align	2
 1251              		.global	_ZN6USBHub16PortStatusChangeEhR8HubEvent
ARM GAS  C:\Users\jrdia\AppData\Local\Temp\ccJ9Fnzg.s 			page 39


 1252              		.code	16
 1253              		.thumb_func
 1254              		.type	_ZN6USBHub16PortStatusChangeEhR8HubEvent, %function
 1255              	_ZN6USBHub16PortStatusChangeEhR8HubEvent:
 1256              		.fnstart
 1257              	.LFB234:
 331:usbhub.c      **** 
 332:usbhub.c      **** uint8_t USBHub::PortStatusChange(uint8_t port, HubEvent &evt) {
 1258              		.loc 3 332 0
 1259              		.cfi_startproc
 1260              		@ args = 0, pretend = 0, frame = 0
 1261              		@ frame_needed = 0, uses_anonymous_args = 0
 1262              	.LVL117:
 1263 0000 F0B5     		push	{r4, r5, r6, r7, lr}
 1264              		.save {r4, r5, r6, r7, lr}
 1265              		.cfi_def_cfa_offset 20
 1266              		.cfi_offset 4, -20
 1267              		.cfi_offset 5, -16
 1268              		.cfi_offset 6, -12
 1269              		.cfi_offset 7, -8
 1270              		.cfi_offset 14, -4
 1271 0002 4F46     		mov	r7, r9
 1272 0004 4646     		mov	r6, r8
 1273 0006 1500     		movs	r5, r2
 1274 0008 C0B4     		push	{r6, r7}
 1275              		.save {r8, r9}
 1276              		.cfi_def_cfa_offset 28
 1277              		.cfi_offset 8, -28
 1278              		.cfi_offset 9, -24
 1279              	.LBB117:
 333:usbhub.c      ****         switch(evt.bmEvent) {
 1280              		.loc 3 333 0
 1281 000a 1478     		ldrb	r4, [r2]
 1282 000c 5278     		ldrb	r2, [r2, #1]
 1283              	.LVL118:
 1284 000e AB78     		ldrb	r3, [r5, #2]
 1285 0010 1202     		lsls	r2, r2, #8
 1286 0012 2243     		orrs	r2, r4
 1287 0014 1B04     		lsls	r3, r3, #16
 1288 0016 1343     		orrs	r3, r2
 1289 0018 1A00     		movs	r2, r3
 1290 001a EB78     		ldrb	r3, [r5, #3]
 1291              	.LBE117:
 332:usbhub.c      ****         switch(evt.bmEvent) {
 1292              		.loc 3 332 0
 1293              		.pad #36
 1294 001c 89B0     		sub	sp, sp, #36
 1295              		.cfi_def_cfa_offset 64
 1296              	.LBB135:
 1297              		.loc 3 333 0
 1298 001e 1B06     		lsls	r3, r3, #24
 1299 0020 1343     		orrs	r3, r2
 1300 0022 5D4A     		ldr	r2, .L75
 1301              	.LBE135:
 332:usbhub.c      ****         switch(evt.bmEvent) {
 1302              		.loc 3 332 0
 1303 0024 0600     		movs	r6, r0
ARM GAS  C:\Users\jrdia\AppData\Local\Temp\ccJ9Fnzg.s 			page 40


 1304 0026 0F00     		movs	r7, r1
 1305              	.LBB136:
 1306              		.loc 3 333 0
 1307 0028 9342     		cmp	r3, r2
 1308 002a 3BD0     		beq	.L67
 1309 002c 00D9     		bls	.LCB1241
 1310 002e 74E0     		b	.L68	@long jump
 1311              	.LCB1241:
 1312 0030 5A4A     		ldr	r2, .L75+4
 1313 0032 9342     		cmp	r3, r2
 1314 0034 33D1     		bne	.L74
 1315              	.LVL119:
 1316              	.LBB118:
 1317              	.LBB119:
 1318              	.LBB120:
 217:usbhub.h      **** }
 1319              		.loc 2 217 0
 1320 0036 8BB2     		uxth	r3, r1
 1321 0038 0024     		movs	r4, #0
 1322 003a 9846     		mov	r8, r3
 1323 003c 0393     		str	r3, [sp, #12]
 1324 003e 0125     		movs	r5, #1
 1325              	.LVL120:
 1326 0040 1123     		movs	r3, #17
 1327 0042 B17B     		ldrb	r1, [r6, #14]
 1328              	.LVL121:
 1329 0044 0193     		str	r3, [sp, #4]
 1330 0046 0022     		movs	r2, #0
 1331 0048 1233     		adds	r3, r3, #18
 1332 004a 0794     		str	r4, [sp, #28]
 1333 004c 0694     		str	r4, [sp, #24]
 1334 004e 0594     		str	r4, [sp, #20]
 1335 0050 0494     		str	r4, [sp, #16]
 1336 0052 0294     		str	r4, [sp, #8]
 1337 0054 0095     		str	r5, [sp]
 1338 0056 7068     		ldr	r0, [r6, #4]
 1339              	.LVL122:
 1340 0058 FFF7FEFF 		bl	_ZN3USB7ctrlReqEhhhhhhtttPhP13USBReadParser
 1341              	.LVL123:
 1342              	.LBE120:
 1343              	.LBE119:
 1344              	.LBB121:
 1345              	.LBB122:
 1346 005c 4346     		mov	r3, r8
 1347 005e 0393     		str	r3, [sp, #12]
 1348 0060 1023     		movs	r3, #16
 1349 0062 B17B     		ldrb	r1, [r6, #14]
 1350 0064 0193     		str	r3, [sp, #4]
 1351 0066 0794     		str	r4, [sp, #28]
 1352 0068 1333     		adds	r3, r3, #19
 1353 006a 0694     		str	r4, [sp, #24]
 1354 006c 0594     		str	r4, [sp, #20]
 1355 006e 0494     		str	r4, [sp, #16]
 1356 0070 0294     		str	r4, [sp, #8]
 1357 0072 0095     		str	r5, [sp]
 1358 0074 0022     		movs	r2, #0
 1359 0076 7068     		ldr	r0, [r6, #4]
ARM GAS  C:\Users\jrdia\AppData\Local\Temp\ccJ9Fnzg.s 			page 41


 1360 0078 FFF7FEFF 		bl	_ZN3USB7ctrlReqEhhhhhhtttPhP13USBReadParser
 1361              	.LVL124:
 1362              	.LBE122:
 1363              	.LBE121:
 334:usbhub.c      ****                         // Device connected event
 335:usbhub.c      ****                 case bmHUB_PORT_EVENT_CONNECT:
 336:usbhub.c      ****                 case bmHUB_PORT_EVENT_LS_CONNECT:
 337:usbhub.c      ****                         if(bResetInitiated)
 338:usbhub.c      ****                                 return 0;
 339:usbhub.c      **** 
 340:usbhub.c      ****                         ClearPortFeature(HUB_FEATURE_C_PORT_ENABLE, port, 0);
 341:usbhub.c      ****                         ClearPortFeature(HUB_FEATURE_C_PORT_CONNECTION, port, 0);
 342:usbhub.c      ****                         SetPortFeature(HUB_FEATURE_PORT_RESET, port, 0);
 343:usbhub.c      ****                         bResetInitiated = true;
 344:usbhub.c      ****                         return HUB_ERROR_PORT_HAS_BEEN_RESET;
 345:usbhub.c      **** 
 346:usbhub.c      ****                         // Device disconnected event
 347:usbhub.c      ****                 case bmHUB_PORT_EVENT_DISCONNECT:
 348:usbhub.c      ****                         ClearPortFeature(HUB_FEATURE_C_PORT_ENABLE, port, 0);
 349:usbhub.c      ****                         ClearPortFeature(HUB_FEATURE_C_PORT_CONNECTION, port, 0);
 350:usbhub.c      ****                         bResetInitiated = false;
 1364              		.loc 3 350 0
 1365 007c 484B     		ldr	r3, .L75+8
 351:usbhub.c      **** 
 352:usbhub.c      ****                         UsbDeviceAddress a;
 353:usbhub.c      ****                         a.devAddress = 0;
 354:usbhub.c      ****                         a.bmHub = 0;
 355:usbhub.c      ****                         a.bmParent = bAddress;
 356:usbhub.c      ****                         a.bmAddress = port;
 357:usbhub.c      ****                         pUsb->ReleaseDevice(a.devAddress);
 1366              		.loc 3 357 0
 1367 007e 7068     		ldr	r0, [r6, #4]
 350:usbhub.c      **** 
 1368              		.loc 3 350 0
 1369 0080 1C70     		strb	r4, [r3]
 355:usbhub.c      ****                         a.bmAddress = port;
 1370              		.loc 3 355 0
 1371 0082 0723     		movs	r3, #7
 1372 0084 B17B     		ldrb	r1, [r6, #14]
 356:usbhub.c      ****                         pUsb->ReleaseDevice(a.devAddress);
 1373              		.loc 3 356 0
 1374 0086 1F40     		ands	r7, r3
 355:usbhub.c      ****                         a.bmAddress = port;
 1375              		.loc 3 355 0
 1376 0088 1940     		ands	r1, r3
 1377 008a C900     		lsls	r1, r1, #3
 1378              		.loc 3 357 0
 1379 008c 3943     		orrs	r1, r7
 1380              	.LVL125:
 1381 008e FFF7FEFF 		bl	_ZN3USB13ReleaseDeviceEh
 1382              	.LVL126:
 1383              	.L66:
 1384              	.LBE118:
 1385              	.LBE136:
 358:usbhub.c      ****                         return 0;
 359:usbhub.c      **** 
 360:usbhub.c      ****                         // Reset complete event
ARM GAS  C:\Users\jrdia\AppData\Local\Temp\ccJ9Fnzg.s 			page 42


 361:usbhub.c      ****                 case bmHUB_PORT_EVENT_RESET_COMPLETE:
 362:usbhub.c      ****                 case bmHUB_PORT_EVENT_LS_RESET_COMPLETE:
 363:usbhub.c      ****                         ClearPortFeature(HUB_FEATURE_C_PORT_RESET, port, 0);
 364:usbhub.c      ****                         ClearPortFeature(HUB_FEATURE_C_PORT_CONNECTION, port, 0);
 365:usbhub.c      **** 
 366:usbhub.c      ****                         delay(20);
 367:usbhub.c      **** 
 368:usbhub.c      ****                         a.devAddress = bAddress;
 369:usbhub.c      **** 
 370:usbhub.c      ****                         pUsb->Configuring(a.bmAddress, port, (evt.bmStatus & bmHUB_PORT_STATUS_PORT
 371:usbhub.c      ****                         bResetInitiated = false;
 372:usbhub.c      ****                         break;
 373:usbhub.c      **** 
 374:usbhub.c      ****         } // switch (evt.bmEvent)
 375:usbhub.c      ****         return 0;
 376:usbhub.c      **** }
 1386              		.loc 3 376 0
 1387 0092 2000     		movs	r0, r4
 1388 0094 09B0     		add	sp, sp, #36
 1389              		@ sp needed
 1390              	.LVL127:
 1391 0096 0CBC     		pop	{r2, r3}
 1392 0098 9046     		mov	r8, r2
 1393 009a 9946     		mov	r9, r3
 1394 009c F0BD     		pop	{r4, r5, r6, r7, pc}
 1395              	.LVL128:
 1396              	.L74:
 1397              	.LBB137:
 333:usbhub.c      ****                         // Device connected event
 1398              		.loc 3 333 0
 1399 009e 414A     		ldr	r2, .L75+12
 1400 00a0 9342     		cmp	r3, r2
 1401 00a2 40D1     		bne	.L72
 1402              	.L67:
 1403              	.LBB133:
 337:usbhub.c      ****                                 return 0;
 1404              		.loc 3 337 0
 1405 00a4 3E4D     		ldr	r5, .L75+8
 1406              	.LVL129:
 338:usbhub.c      **** 
 1407              		.loc 3 338 0
 1408 00a6 0024     		movs	r4, #0
 337:usbhub.c      ****                                 return 0;
 1409              		.loc 3 337 0
 1410 00a8 2B78     		ldrb	r3, [r5]
 1411 00aa 002B     		cmp	r3, #0
 1412 00ac F1D1     		bne	.L66
 1413              	.LVL130:
 1414              	.LBB123:
 1415              	.LBB124:
 217:usbhub.h      **** }
 1416              		.loc 2 217 0
 1417 00ae BBB2     		uxth	r3, r7
 1418 00b0 9846     		mov	r8, r3
 1419 00b2 0127     		movs	r7, #1
 1420 00b4 0393     		str	r3, [sp, #12]
 1421 00b6 1123     		movs	r3, #17
ARM GAS  C:\Users\jrdia\AppData\Local\Temp\ccJ9Fnzg.s 			page 43


 1422 00b8 B17B     		ldrb	r1, [r6, #14]
 1423              	.LVL131:
 1424 00ba 0794     		str	r4, [sp, #28]
 1425 00bc 0694     		str	r4, [sp, #24]
 1426 00be 0594     		str	r4, [sp, #20]
 1427 00c0 0494     		str	r4, [sp, #16]
 1428 00c2 0294     		str	r4, [sp, #8]
 1429 00c4 0193     		str	r3, [sp, #4]
 1430 00c6 0022     		movs	r2, #0
 1431 00c8 1233     		adds	r3, r3, #18
 1432 00ca 0097     		str	r7, [sp]
 1433 00cc 7068     		ldr	r0, [r6, #4]
 1434              	.LVL132:
 1435 00ce FFF7FEFF 		bl	_ZN3USB7ctrlReqEhhhhhhtttPhP13USBReadParser
 1436              	.LVL133:
 1437              	.LBE124:
 1438              	.LBE123:
 1439              	.LBB125:
 1440              	.LBB126:
 1441 00d2 4346     		mov	r3, r8
 1442 00d4 0393     		str	r3, [sp, #12]
 1443 00d6 1023     		movs	r3, #16
 1444 00d8 B17B     		ldrb	r1, [r6, #14]
 1445 00da 0794     		str	r4, [sp, #28]
 1446 00dc 0694     		str	r4, [sp, #24]
 1447 00de 0594     		str	r4, [sp, #20]
 1448 00e0 0494     		str	r4, [sp, #16]
 1449 00e2 0294     		str	r4, [sp, #8]
 1450 00e4 0193     		str	r3, [sp, #4]
 1451 00e6 0022     		movs	r2, #0
 1452 00e8 1333     		adds	r3, r3, #19
 1453 00ea 0097     		str	r7, [sp]
 1454 00ec 7068     		ldr	r0, [r6, #4]
 1455 00ee FFF7FEFF 		bl	_ZN3USB7ctrlReqEhhhhhhtttPhP13USBReadParser
 1456              	.LVL134:
 1457              	.LBE126:
 1458              	.LBE125:
 1459              	.LBB127:
 1460              	.LBB128:
 1461              		.loc 2 247 0
 1462 00f2 4346     		mov	r3, r8
 1463 00f4 0393     		str	r3, [sp, #12]
 1464 00f6 0423     		movs	r3, #4
 1465 00f8 0193     		str	r3, [sp, #4]
 1466 00fa 013B     		subs	r3, r3, #1
 1467 00fc 0794     		str	r4, [sp, #28]
 1468 00fe 0694     		str	r4, [sp, #24]
 1469 0100 0594     		str	r4, [sp, #20]
 1470 0102 0494     		str	r4, [sp, #16]
 1471 0104 0294     		str	r4, [sp, #8]
 1472 0106 0093     		str	r3, [sp]
 1473 0108 B17B     		ldrb	r1, [r6, #14]
 1474 010a 7068     		ldr	r0, [r6, #4]
 1475 010c 2033     		adds	r3, r3, #32
 1476 010e 0022     		movs	r2, #0
 1477 0110 FFF7FEFF 		bl	_ZN3USB7ctrlReqEhhhhhhtttPhP13USBReadParser
 1478              	.LVL135:
ARM GAS  C:\Users\jrdia\AppData\Local\Temp\ccJ9Fnzg.s 			page 44


 1479              	.LBE128:
 1480              	.LBE127:
 344:usbhub.c      **** 
 1481              		.loc 3 344 0
 1482 0114 B134     		adds	r4, r4, #177
 343:usbhub.c      ****                         return HUB_ERROR_PORT_HAS_BEEN_RESET;
 1483              		.loc 3 343 0
 1484 0116 2F70     		strb	r7, [r5]
 344:usbhub.c      **** 
 1485              		.loc 3 344 0
 1486 0118 BBE7     		b	.L66
 1487              	.LVL136:
 1488              	.L68:
 1489              	.LBE133:
 333:usbhub.c      ****                         // Device connected event
 1490              		.loc 3 333 0
 1491 011a 234A     		ldr	r2, .L75+16
 1492 011c 9342     		cmp	r3, r2
 1493 011e 04D0     		beq	.L70
 1494 0120 224A     		ldr	r2, .L75+20
 1495 0122 9342     		cmp	r3, r2
 1496 0124 01D0     		beq	.L70
 1497              	.L72:
 1498              	.LBE137:
 375:usbhub.c      **** }
 1499              		.loc 3 375 0
 1500 0126 0024     		movs	r4, #0
 1501 0128 B3E7     		b	.L66
 1502              	.L70:
 1503              	.LVL137:
 1504              	.LBB138:
 1505              	.LBB134:
 1506              	.LBB129:
 1507              	.LBB130:
 217:usbhub.h      **** }
 1508              		.loc 2 217 0
 1509 012a BBB2     		uxth	r3, r7
 1510 012c 9946     		mov	r9, r3
 1511 012e 0393     		str	r3, [sp, #12]
 1512 0130 1423     		movs	r3, #20
 1513 0132 0024     		movs	r4, #0
 1514 0134 0193     		str	r3, [sp, #4]
 1515 0136 133B     		subs	r3, r3, #19
 1516 0138 9846     		mov	r8, r3
 1517 013a B17B     		ldrb	r1, [r6, #14]
 1518              	.LVL138:
 1519 013c 0093     		str	r3, [sp]
 1520 013e 0022     		movs	r2, #0
 1521 0140 2233     		adds	r3, r3, #34
 1522 0142 0794     		str	r4, [sp, #28]
 1523 0144 0694     		str	r4, [sp, #24]
 1524 0146 0594     		str	r4, [sp, #20]
 1525 0148 0494     		str	r4, [sp, #16]
 1526 014a 0294     		str	r4, [sp, #8]
 1527 014c 7068     		ldr	r0, [r6, #4]
 1528              	.LVL139:
 1529 014e FFF7FEFF 		bl	_ZN3USB7ctrlReqEhhhhhhtttPhP13USBReadParser
ARM GAS  C:\Users\jrdia\AppData\Local\Temp\ccJ9Fnzg.s 			page 45


 1530              	.LVL140:
 1531              	.LBE130:
 1532              	.LBE129:
 1533              	.LBB131:
 1534              	.LBB132:
 1535 0152 4B46     		mov	r3, r9
 1536 0154 0393     		str	r3, [sp, #12]
 1537 0156 1023     		movs	r3, #16
 1538 0158 0193     		str	r3, [sp, #4]
 1539 015a 4346     		mov	r3, r8
 1540 015c B17B     		ldrb	r1, [r6, #14]
 1541 015e 0022     		movs	r2, #0
 1542 0160 0093     		str	r3, [sp]
 1543 0162 0794     		str	r4, [sp, #28]
 1544 0164 2233     		adds	r3, r3, #34
 1545 0166 0694     		str	r4, [sp, #24]
 1546 0168 0594     		str	r4, [sp, #20]
 1547 016a 0494     		str	r4, [sp, #16]
 1548 016c 0294     		str	r4, [sp, #8]
 1549 016e 7068     		ldr	r0, [r6, #4]
 1550 0170 FFF7FEFF 		bl	_ZN3USB7ctrlReqEhhhhhhtttPhP13USBReadParser
 1551              	.LVL141:
 1552              	.LBE132:
 1553              	.LBE131:
 366:usbhub.c      **** 
 1554              		.loc 3 366 0
 1555 0174 1420     		movs	r0, #20
 1556 0176 FFF7FEFF 		bl	delay
 1557              	.LVL142:
 370:usbhub.c      ****                         bResetInitiated = false;
 1558              		.loc 3 370 0
 1559 017a 4246     		mov	r2, r8
 368:usbhub.c      **** 
 1560              		.loc 3 368 0
 1561 017c B17B     		ldrb	r1, [r6, #14]
 370:usbhub.c      ****                         bResetInitiated = false;
 1562              		.loc 3 370 0
 1563 017e 6B78     		ldrb	r3, [r5, #1]
 1564 0180 4907     		lsls	r1, r1, #29
 1565 0182 5B08     		lsrs	r3, r3, #1
 1566 0184 1340     		ands	r3, r2
 1567 0186 490F     		lsrs	r1, r1, #29
 1568 0188 7068     		ldr	r0, [r6, #4]
 1569 018a 3A00     		movs	r2, r7
 1570 018c FFF7FEFF 		bl	_ZN3USB11ConfiguringEhhb
 1571              	.LVL143:
 371:usbhub.c      ****                         break;
 1572              		.loc 3 371 0
 1573 0190 034B     		ldr	r3, .L75+8
 1574 0192 1C70     		strb	r4, [r3]
 1575 0194 7DE7     		b	.L66
 1576              	.L76:
 1577 0196 C046     		.align	2
 1578              	.L75:
 1579 0198 01030100 		.word	66305
 1580 019c 00010100 		.word	65792
 1581 01a0 00000000 		.word	.LANCHOR1
ARM GAS  C:\Users\jrdia\AppData\Local\Temp\ccJ9Fnzg.s 			page 46


 1582 01a4 01010100 		.word	65793
 1583 01a8 03011000 		.word	1048835
 1584 01ac 03031000 		.word	1049347
 1585              	.LBE134:
 1586              	.LBE138:
 1587              		.cfi_endproc
 1588              	.LFE234:
 1589              		.fnend
 1590              		.size	_ZN6USBHub16PortStatusChangeEhR8HubEvent, .-_ZN6USBHub16PortStatusChangeEhR8HubEvent
 1591              		.section	.text._ZN6USBHub14CheckHubStatusEv,"ax",%progbits
 1592              		.align	2
 1593              		.global	_ZN6USBHub14CheckHubStatusEv
 1594              		.code	16
 1595              		.thumb_func
 1596              		.type	_ZN6USBHub14CheckHubStatusEv, %function
 1597              	_ZN6USBHub14CheckHubStatusEv:
 1598              		.fnstart
 1599              	.LFB232:
 242:usbhub.c      ****         uint8_t rcode;
 1600              		.loc 3 242 0
 1601              		.cfi_startproc
 1602              		@ args = 0, pretend = 0, frame = 16
 1603              		@ frame_needed = 0, uses_anonymous_args = 0
 1604              	.LVL144:
 1605 0000 F0B5     		push	{r4, r5, r6, r7, lr}
 1606              		.save {r4, r5, r6, r7, lr}
 1607              		.cfi_def_cfa_offset 20
 1608              		.cfi_offset 4, -20
 1609              		.cfi_offset 5, -16
 1610              		.cfi_offset 6, -12
 1611              		.cfi_offset 7, -8
 1612              		.cfi_offset 14, -4
 1613 0002 5646     		mov	r6, r10
 1614 0004 4D46     		mov	r5, r9
 1615 0006 4446     		mov	r4, r8
 1616 0008 5F46     		mov	r7, fp
 245:usbhub.c      **** 
 1617              		.loc 3 245 0
 1618 000a 2223     		movs	r3, #34
 1619 000c 0122     		movs	r2, #1
 242:usbhub.c      ****         uint8_t rcode;
 1620              		.loc 3 242 0
 1621 000e F0B4     		push	{r4, r5, r6, r7}
 1622              		.save {r8, r9, r10, fp}
 1623              		.cfi_def_cfa_offset 36
 1624              		.cfi_offset 8, -36
 1625              		.cfi_offset 9, -32
 1626              		.cfi_offset 10, -28
 1627              		.cfi_offset 11, -24
 1628              		.pad #52
 1629 0010 8DB0     		sub	sp, sp, #52
 1630              		.cfi_def_cfa_offset 88
 245:usbhub.c      **** 
 1631              		.loc 3 245 0
 1632 0012 6B44     		add	r3, r3, sp
 1633 0014 1A80     		strh	r2, [r3]
 247:usbhub.c      **** 
ARM GAS  C:\Users\jrdia\AppData\Local\Temp\ccJ9Fnzg.s 			page 47


 1634              		.loc 3 247 0
 1635 0016 0022     		movs	r2, #0
 1636 0018 0AAD     		add	r5, sp, #40
 1637 001a 817B     		ldrb	r1, [r0, #14]
 1638 001c 0192     		str	r2, [sp, #4]
 1639 001e 0095     		str	r5, [sp]
 242:usbhub.c      ****         uint8_t rcode;
 1640              		.loc 3 242 0
 1641 0020 0600     		movs	r6, r0
 247:usbhub.c      **** 
 1642              		.loc 3 247 0
 1643 0022 0132     		adds	r2, r2, #1
 1644 0024 4068     		ldr	r0, [r0, #4]
 1645              	.LVL145:
 1646 0026 FFF7FEFF 		bl	_ZN3USB10inTransferEhhPtPhh
 1647              	.LVL146:
 1648 002a 8046     		mov	r8, r0
 249:usbhub.c      ****                 return rcode;
 1649              		.loc 3 249 0
 1650 002c 031E     		subs	r3, r0, #0
 1651 002e 30D1     		bne	.L78
 1652              	.LBB139:
 1653              	.LBB140:
 1654              	.LBB141:
 1655              	.LBB142:
 1656              	.LBB143:
 232:usbhub.h      **** }
 1657              		.loc 2 232 0
 1658 0030 0433     		adds	r3, r3, #4
 1659              	.LBE143:
 1660              	.LBE142:
 1661              	.LBE141:
 1662              	.LBE140:
 1663              	.LBE139:
 1664 0032 0124     		movs	r4, #1
 1665 0034 0227     		movs	r7, #2
 1666              	.LBB152:
 1667              	.LBB150:
 1668              	.LBB148:
 266:usbhub.c      **** 
 1669              		.loc 3 266 0
 1670 0036 8146     		mov	r9, r0
 1671              	.LBB146:
 1672              	.LBB144:
 232:usbhub.h      **** }
 1673              		.loc 2 232 0
 1674 0038 9B46     		mov	fp, r3
 1675 003a 05E0     		b	.L82
 1676              	.LVL147:
 1677              	.L79:
 1678 003c 0134     		adds	r4, r4, #1
 1679              	.LBE144:
 1680              	.LBE146:
 1681              	.LBE148:
 1682              	.LBE150:
 263:usbhub.c      ****                 if(buf[0] & mask) {
 1683              		.loc 3 263 0 discriminator 2
ARM GAS  C:\Users\jrdia\AppData\Local\Temp\ccJ9Fnzg.s 			page 48


 1684 003e 7F00     		lsls	r7, r7, #1
 1685              	.LVL148:
 1686 0040 A4B2     		uxth	r4, r4
 1687 0042 FFB2     		uxtb	r7, r7
 1688              	.LVL149:
 1689 0044 082C     		cmp	r4, #8
 1690 0046 2CD0     		beq	.L105
 1691              	.LVL150:
 1692              	.L82:
 1693 0048 E3B2     		uxtb	r3, r4
 1694 004a 9A46     		mov	r10, r3
 1695              	.LVL151:
 1696              	.LBB151:
 264:usbhub.c      ****                         HubEvent evt;
 1697              		.loc 3 264 0
 1698 004c 2B78     		ldrb	r3, [r5]
 1699 004e 3B42     		tst	r3, r7
 1700 0050 F4D0     		beq	.L79
 1701              	.LBB149:
 266:usbhub.c      **** 
 1702              		.loc 3 266 0
 1703 0052 4B46     		mov	r3, r9
 1704 0054 0993     		str	r3, [sp, #36]
 1705              	.LVL152:
 1706              	.LBB147:
 1707              	.LBB145:
 232:usbhub.h      **** }
 1708              		.loc 2 232 0
 1709 0056 0793     		str	r3, [sp, #28]
 1710 0058 09AB     		add	r3, sp, #36
 1711              	.LVL153:
 1712 005a 0693     		str	r3, [sp, #24]
 1713 005c 5B46     		mov	r3, fp
 1714              	.LVL154:
 1715 005e 0593     		str	r3, [sp, #20]
 1716 0060 0493     		str	r3, [sp, #16]
 1717 0062 4B46     		mov	r3, r9
 1718 0064 B17B     		ldrb	r1, [r6, #14]
 1719 0066 0293     		str	r3, [sp, #8]
 1720 0068 0193     		str	r3, [sp, #4]
 1721 006a 0093     		str	r3, [sp]
 1722 006c 0394     		str	r4, [sp, #12]
 1723 006e A323     		movs	r3, #163
 1724 0070 0022     		movs	r2, #0
 1725 0072 7068     		ldr	r0, [r6, #4]
 1726 0074 FFF7FEFF 		bl	_ZN3USB7ctrlReqEhhhhhhtttPhP13USBReadParser
 1727              	.LVL155:
 1728 0078 8046     		mov	r8, r0
 1729              	.LVL156:
 1730              	.LBE145:
 1731              	.LBE147:
 270:usbhub.c      ****                                 continue;
 1732              		.loc 3 270 0
 1733 007a 0028     		cmp	r0, #0
 1734 007c DED1     		bne	.L79
 273:usbhub.c      **** 
 1735              		.loc 3 273 0
ARM GAS  C:\Users\jrdia\AppData\Local\Temp\ccJ9Fnzg.s 			page 49


 1736 007e 09AA     		add	r2, sp, #36
 1737 0080 5146     		mov	r1, r10
 1738 0082 3000     		movs	r0, r6
 1739              	.LVL157:
 1740 0084 FFF7FEFF 		bl	_ZN6USBHub16PortStatusChangeEhR8HubEvent
 1741              	.LVL158:
 275:usbhub.c      ****                                 return 0;
 1742              		.loc 3 275 0
 1743 0088 B128     		cmp	r0, #177
 1744 008a 02D0     		beq	.L78
 278:usbhub.c      ****                                 return rcode;
 1745              		.loc 3 278 0
 1746 008c 0028     		cmp	r0, #0
 1747 008e D5D0     		beq	.L79
 1748              	.LVL159:
 1749              	.L103:
 1750              	.LBE149:
 1751              	.LBE151:
 1752              	.LBE152:
 1753              	.LBB153:
 1754              	.LBB154:
 298:usbhub.c      **** 
 1755              		.loc 3 298 0
 1756 0090 8046     		mov	r8, r0
 1757              	.LVL160:
 1758              	.L78:
 1759              	.LBE154:
 1760              	.LBE153:
 307:usbhub.c      **** 
 1761              		.loc 3 307 0
 1762 0092 4046     		mov	r0, r8
 1763 0094 0DB0     		add	sp, sp, #52
 1764              		@ sp needed
 1765              	.LVL161:
 1766 0096 3CBC     		pop	{r2, r3, r4, r5}
 1767 0098 9046     		mov	r8, r2
 1768 009a 9946     		mov	r9, r3
 1769 009c A246     		mov	r10, r4
 1770 009e AB46     		mov	fp, r5
 1771 00a0 F0BD     		pop	{r4, r5, r6, r7, pc}
 1772              	.LVL162:
 1773              	.L105:
 1774              	.LBB163:
 283:usbhub.c      ****                 HubEvent evt;
 1775              		.loc 3 283 0 discriminator 1
 1776 00a2 F37B     		ldrb	r3, [r6, #15]
 1777 00a4 073C     		subs	r4, r4, #7
 1778 00a6 09AF     		add	r7, sp, #36
 1779              	.LVL163:
 1780 00a8 002B     		cmp	r3, #0
 1781 00aa 37D0     		beq	.L87
 1782              	.LBB161:
 1783              	.LBB155:
 1784              	.LBB156:
 232:usbhub.h      **** }
 1785              		.loc 2 232 0
 1786 00ac 0423     		movs	r3, #4
ARM GAS  C:\Users\jrdia\AppData\Local\Temp\ccJ9Fnzg.s 			page 50


 1787 00ae 9946     		mov	r9, r3
 1788              	.LBE156:
 1789              	.LBE155:
 292:usbhub.c      ****                         continue;
 1790              		.loc 3 292 0
 1791 00b0 0823     		movs	r3, #8
 1792 00b2 FF33     		adds	r3, r3, #255
 285:usbhub.c      **** 
 1793              		.loc 3 285 0
 1794 00b4 0025     		movs	r5, #0
 292:usbhub.c      ****                         continue;
 1795              		.loc 3 292 0
 1796 00b6 9A46     		mov	r10, r3
 1797 00b8 04E0     		b	.L102
 1798              	.LVL164:
 1799              	.L86:
 1800              	.LBE161:
 283:usbhub.c      ****                 HubEvent evt;
 1801              		.loc 3 283 0 discriminator 2
 1802 00ba 0134     		adds	r4, r4, #1
 1803              	.LVL165:
 1804 00bc F37B     		ldrb	r3, [r6, #15]
 1805 00be E4B2     		uxtb	r4, r4
 1806              	.LVL166:
 1807 00c0 A342     		cmp	r3, r4
 1808 00c2 2BD3     		bcc	.L87
 1809              	.LVL167:
 1810              	.L102:
 1811              	.LBB162:
 1812              	.LBB159:
 1813              	.LBB157:
 232:usbhub.h      **** }
 1814              		.loc 2 232 0
 1815 00c4 4B46     		mov	r3, r9
 1816              	.LBE157:
 1817              	.LBE159:
 285:usbhub.c      **** 
 1818              		.loc 3 285 0
 1819 00c6 3D60     		str	r5, [r7]
 1820              	.LVL168:
 1821              	.LBB160:
 1822              	.LBB158:
 232:usbhub.h      **** }
 1823              		.loc 2 232 0
 1824 00c8 B17B     		ldrb	r1, [r6, #14]
 1825 00ca 0593     		str	r3, [sp, #20]
 1826 00cc 0493     		str	r3, [sp, #16]
 1827 00ce 0795     		str	r5, [sp, #28]
 1828 00d0 0697     		str	r7, [sp, #24]
 1829 00d2 0394     		str	r4, [sp, #12]
 1830 00d4 0295     		str	r5, [sp, #8]
 1831 00d6 0195     		str	r5, [sp, #4]
 1832 00d8 0095     		str	r5, [sp]
 1833 00da A323     		movs	r3, #163
 1834 00dc 0022     		movs	r2, #0
 1835 00de 7068     		ldr	r0, [r6, #4]
 1836 00e0 FFF7FEFF 		bl	_ZN3USB7ctrlReqEhhhhhhtttPhP13USBReadParser
ARM GAS  C:\Users\jrdia\AppData\Local\Temp\ccJ9Fnzg.s 			page 51


 1837              	.LVL169:
 1838 00e4 8046     		mov	r8, r0
 1839              	.LVL170:
 1840              	.LBE158:
 1841              	.LBE160:
 289:usbhub.c      ****                         continue;
 1842              		.loc 3 289 0
 1843 00e6 0028     		cmp	r0, #0
 1844 00e8 E7D1     		bne	.L86
 292:usbhub.c      ****                         continue;
 1845              		.loc 3 292 0
 1846 00ea 0222     		movs	r2, #2
 1847 00ec 5146     		mov	r1, r10
 1848 00ee 3B88     		ldrh	r3, [r7]
 1849 00f0 FF32     		adds	r2, r2, #255
 1850 00f2 0B40     		ands	r3, r1
 1851 00f4 9342     		cmp	r3, r2
 1852 00f6 E0D1     		bne	.L86
 296:usbhub.c      **** 
 1853              		.loc 3 296 0
 1854 00f8 0123     		movs	r3, #1
 1855 00fa 7A88     		ldrh	r2, [r7, #2]
 298:usbhub.c      **** 
 1856              		.loc 3 298 0
 1857 00fc 2100     		movs	r1, r4
 296:usbhub.c      **** 
 1858              		.loc 3 296 0
 1859 00fe 1343     		orrs	r3, r2
 298:usbhub.c      **** 
 1860              		.loc 3 298 0
 1861 0100 3000     		movs	r0, r6
 1862              	.LVL171:
 1863 0102 3A00     		movs	r2, r7
 296:usbhub.c      **** 
 1864              		.loc 3 296 0
 1865 0104 7B80     		strh	r3, [r7, #2]
 298:usbhub.c      **** 
 1866              		.loc 3 298 0
 1867 0106 FFF7FEFF 		bl	_ZN6USBHub16PortStatusChangeEhR8HubEvent
 1868              	.LVL172:
 300:usbhub.c      ****                         return 0;
 1869              		.loc 3 300 0
 1870 010a B128     		cmp	r0, #177
 1871 010c C1D0     		beq	.L78
 303:usbhub.c      ****                         return rcode;
 1872              		.loc 3 303 0
 1873 010e 0028     		cmp	r0, #0
 1874 0110 BED1     		bne	.L103
 1875              	.LBE162:
 283:usbhub.c      ****                 HubEvent evt;
 1876              		.loc 3 283 0
 1877 0112 0134     		adds	r4, r4, #1
 1878              	.LVL173:
 1879 0114 F37B     		ldrb	r3, [r6, #15]
 1880 0116 E4B2     		uxtb	r4, r4
 1881              	.LVL174:
 1882 0118 A342     		cmp	r3, r4
ARM GAS  C:\Users\jrdia\AppData\Local\Temp\ccJ9Fnzg.s 			page 52


 1883 011a D3D2     		bcs	.L102
 1884              	.LVL175:
 1885              	.L87:
 1886              	.LBE163:
 306:usbhub.c      **** }
 1887              		.loc 3 306 0
 1888 011c 0023     		movs	r3, #0
 1889 011e 9846     		mov	r8, r3
 1890 0120 B7E7     		b	.L78
 1891              		.cfi_endproc
 1892              	.LFE232:
 1893              		.fnend
 1894              		.size	_ZN6USBHub14CheckHubStatusEv, .-_ZN6USBHub14CheckHubStatusEv
 1895 0122 C046     		.section	.text._ZN6USBHub4PollEv,"ax",%progbits
 1896              		.align	2
 1897              		.global	_ZN6USBHub4PollEv
 1898              		.code	16
 1899              		.thumb_func
 1900              		.type	_ZN6USBHub4PollEv, %function
 1901              	_ZN6USBHub4PollEv:
 1902              		.fnstart
 1903              	.LFB231:
 229:usbhub.c      ****         uint8_t rcode = 0;
 1904              		.loc 3 229 0
 1905              		.cfi_startproc
 1906              		@ args = 0, pretend = 0, frame = 0
 1907              		@ frame_needed = 0, uses_anonymous_args = 0
 1908              	.LVL176:
 1909 0000 70B5     		push	{r4, r5, r6, lr}
 1910              		.save {r4, r5, r6, lr}
 1911              		.cfi_def_cfa_offset 16
 1912              		.cfi_offset 4, -16
 1913              		.cfi_offset 5, -12
 1914              		.cfi_offset 6, -8
 1915              		.cfi_offset 14, -4
 232:usbhub.c      ****                 return 0;
 1916              		.loc 3 232 0
 1917 0002 037D     		ldrb	r3, [r0, #20]
 229:usbhub.c      ****         uint8_t rcode = 0;
 1918              		.loc 3 229 0
 1919 0004 0400     		movs	r4, r0
 232:usbhub.c      ****                 return 0;
 1920              		.loc 3 232 0
 1921 0006 002B     		cmp	r3, #0
 1922 0008 01D1     		bne	.L107
 1923              	.LVL177:
 1924              	.L109:
 233:usbhub.c      **** 
 1925              		.loc 3 233 0
 1926 000a 0020     		movs	r0, #0
 1927              	.L108:
 240:usbhub.c      **** 
 1928              		.loc 3 240 0
 1929              		@ sp needed
 1930              	.LVL178:
 1931 000c 70BD     		pop	{r4, r5, r6, pc}
 1932              	.LVL179:
ARM GAS  C:\Users\jrdia\AppData\Local\Temp\ccJ9Fnzg.s 			page 53


 1933              	.L107:
 235:usbhub.c      ****                 rcode = CheckHubStatus();
 1934              		.loc 3 235 0
 1935 000e FFF7FEFF 		bl	millis
 1936              	.LVL180:
 1937 0012 2369     		ldr	r3, [r4, #16]
 1938 0014 C01A     		subs	r0, r0, r3
 1939 0016 F8D4     		bmi	.L109
 1940              	.LVL181:
 1941              	.LBB166:
 1942              	.LBB167:
 236:usbhub.c      ****                 qNextPollTime = (uint32_t)millis() + 100;
 1943              		.loc 3 236 0
 1944 0018 2000     		movs	r0, r4
 1945 001a FFF7FEFF 		bl	_ZN6USBHub14CheckHubStatusEv
 1946              	.LVL182:
 1947 001e 0500     		movs	r5, r0
 1948              	.LVL183:
 237:usbhub.c      ****         }
 1949              		.loc 3 237 0
 1950 0020 FFF7FEFF 		bl	millis
 1951              	.LVL184:
 1952 0024 6430     		adds	r0, r0, #100
 1953 0026 2061     		str	r0, [r4, #16]
 1954              	.LVL185:
 1955 0028 2800     		movs	r0, r5
 1956 002a EFE7     		b	.L108
 1957              	.LBE167:
 1958              	.LBE166:
 1959              		.cfi_endproc
 1960              	.LFE231:
 1961              		.fnend
 1962              		.size	_ZN6USBHub4PollEv, .-_ZN6USBHub4PollEv
 1963              		.weak	_ZTS15USBDeviceConfig
 1964              		.section	.rodata._ZTS15USBDeviceConfig,"aG",%progbits,_ZTS15USBDeviceConfig,comdat
 1965              		.align	2
 1966              		.type	_ZTS15USBDeviceConfig, %object
 1967              		.size	_ZTS15USBDeviceConfig, 18
 1968              	_ZTS15USBDeviceConfig:
 1969 0000 31355553 		.ascii	"15USBDeviceConfig\000"
 1969      42446576 
 1969      69636543 
 1969      6F6E6669 
 1969      6700
 1970              		.weak	_ZTI15USBDeviceConfig
 1971              		.section	.rodata._ZTI15USBDeviceConfig,"aG",%progbits,_ZTI15USBDeviceConfig,comdat
 1972              		.align	2
 1973              		.type	_ZTI15USBDeviceConfig, %object
 1974              		.size	_ZTI15USBDeviceConfig, 8
 1975              	_ZTI15USBDeviceConfig:
 1976 0000 08000000 		.word	_ZTVN10__cxxabiv117__class_type_infoE+8
 1977 0004 00000000 		.word	_ZTS15USBDeviceConfig
 1978              		.global	_ZTS6USBHub
 1979              		.global	_ZTI6USBHub
 1980              		.global	_ZTV6USBHub
 1981              		.global	_ZN6USBHub15bResetInitiatedE
 1982              		.section	.rodata
ARM GAS  C:\Users\jrdia\AppData\Local\Temp\ccJ9Fnzg.s 			page 54


 1983              		.align	2
 1984              		.set	.LANCHOR0,. + 0
 1985              		.type	_ZTV6USBHub, %object
 1986              		.size	_ZTV6USBHub, 44
 1987              	_ZTV6USBHub:
 1988 0000 00000000 		.word	0
 1989 0004 00000000 		.word	_ZTI6USBHub
 1990 0008 00000000 		.word	_ZN6USBHub4InitEhhb
 1991 000c 00000000 		.word	_ZN15USBDeviceConfig15ConfigureDeviceEhhb
 1992 0010 00000000 		.word	_ZN6USBHub7ReleaseEv
 1993 0014 00000000 		.word	_ZN6USBHub4PollEv
 1994 0018 00000000 		.word	_ZN6USBHub10GetAddressEv
 1995 001c 00000000 		.word	_ZN6USBHub12ResetHubPortEh
 1996 0020 00000000 		.word	_ZN15USBDeviceConfig8VIDPIDOKEtt
 1997 0024 00000000 		.word	_ZN6USBHub10DEVCLASSOKEh
 1998 0028 00000000 		.word	_ZN15USBDeviceConfig13DEVSUBCLASSOKEh
 1999              		.type	_ZTS6USBHub, %object
 2000              		.size	_ZTS6USBHub, 8
 2001              	_ZTS6USBHub:
 2002 002c 36555342 		.ascii	"6USBHub\000"
 2002      48756200 
 2003              		.type	_ZTI6USBHub, %object
 2004              		.size	_ZTI6USBHub, 24
 2005              	_ZTI6USBHub:
 2006 0034 08000000 		.word	_ZTVN10__cxxabiv121__vmi_class_type_infoE+8
 2007 0038 00000000 		.word	_ZTS6USBHub
 2008 003c 00000000 		.word	0
 2009 0040 01000000 		.word	1
 2010 0044 00000000 		.word	_ZTI15USBDeviceConfig
 2011 0048 00000000 		.word	0
 2012              		.bss
 2013              		.set	.LANCHOR1,. + 0
 2014              		.type	_ZN6USBHub15bResetInitiatedE, %object
 2015              		.size	_ZN6USBHub15bResetInitiatedE, 1
 2016              	_ZN6USBHub15bResetInitiatedE:
 2017 0000 00       		.space	1
 2018              		.text
 2019              	.Letext0:
 2020              		.file 4 "c:\\program files (x86)\\cypress\\psoc creator\\4.1\\psoc creator\\import\\gnu\\arm\\5.4.
 2021              		.file 5 "c:\\program files (x86)\\cypress\\psoc creator\\4.1\\psoc creator\\import\\gnu\\arm\\5.4.
 2022              		.file 6 "address.h"
 2023              		.file 7 "usb_ch9.h"
 2024              		.file 8 "usbhost.h"
 2025              		.file 9 "sink_parser.h"
 2026              		.file 10 "avrpins.h"
 2027              		.file 11 "./Arduino.h"
 2028              		.file 12 "./Stream.h"
 2029              		.section	.debug_info,"",%progbits
 2030              	.Ldebug_info0:
 2031 0000 4F260000 		.4byte	0x264f
 2032 0004 0400     		.2byte	0x4
 2033 0006 00000000 		.4byte	.Ldebug_abbrev0
 2034 000a 04       		.byte	0x4
 2035 000b 01       		.uleb128 0x1
 2036 000c 47050000 		.4byte	.LASF277
 2037 0010 04       		.byte	0x4
 2038 0011 89140000 		.4byte	.LASF278
ARM GAS  C:\Users\jrdia\AppData\Local\Temp\ccJ9Fnzg.s 			page 55


 2039 0015 D30A0000 		.4byte	.LASF279
 2040 0019 78010000 		.4byte	.Ldebug_ranges0+0x178
 2041 001d 00000000 		.4byte	0
 2042 0021 00000000 		.4byte	.Ldebug_line0
 2043 0025 02       		.uleb128 0x2
 2044 0026 B00E0000 		.4byte	.LASF0
 2045 002a 04       		.byte	0x4
 2046 002b 1B       		.byte	0x1b
 2047 002c 30000000 		.4byte	0x30
 2048 0030 03       		.uleb128 0x3
 2049 0031 01       		.byte	0x1
 2050 0032 06       		.byte	0x6
 2051 0033 2A040000 		.4byte	.LASF2
 2052 0037 02       		.uleb128 0x2
 2053 0038 C4020000 		.4byte	.LASF1
 2054 003c 04       		.byte	0x4
 2055 003d 1D       		.byte	0x1d
 2056 003e 42000000 		.4byte	0x42
 2057 0042 03       		.uleb128 0x3
 2058 0043 01       		.byte	0x1
 2059 0044 08       		.byte	0x8
 2060 0045 AB040000 		.4byte	.LASF3
 2061 0049 03       		.uleb128 0x3
 2062 004a 02       		.byte	0x2
 2063 004b 05       		.byte	0x5
 2064 004c 6A110000 		.4byte	.LASF4
 2065 0050 02       		.uleb128 0x2
 2066 0051 11060000 		.4byte	.LASF5
 2067 0055 04       		.byte	0x4
 2068 0056 2B       		.byte	0x2b
 2069 0057 5B000000 		.4byte	0x5b
 2070 005b 03       		.uleb128 0x3
 2071 005c 02       		.byte	0x2
 2072 005d 07       		.byte	0x7
 2073 005e F6130000 		.4byte	.LASF6
 2074 0062 02       		.uleb128 0x2
 2075 0063 0F140000 		.4byte	.LASF7
 2076 0067 04       		.byte	0x4
 2077 0068 3F       		.byte	0x3f
 2078 0069 6D000000 		.4byte	0x6d
 2079 006d 03       		.uleb128 0x3
 2080 006e 04       		.byte	0x4
 2081 006f 05       		.byte	0x5
 2082 0070 41030000 		.4byte	.LASF8
 2083 0074 02       		.uleb128 0x2
 2084 0075 DB090000 		.4byte	.LASF9
 2085 0079 04       		.byte	0x4
 2086 007a 41       		.byte	0x41
 2087 007b 7F000000 		.4byte	0x7f
 2088 007f 03       		.uleb128 0x3
 2089 0080 04       		.byte	0x4
 2090 0081 07       		.byte	0x7
 2091 0082 7A080000 		.4byte	.LASF10
 2092 0086 03       		.uleb128 0x3
 2093 0087 08       		.byte	0x8
 2094 0088 05       		.byte	0x5
 2095 0089 E6090000 		.4byte	.LASF11
ARM GAS  C:\Users\jrdia\AppData\Local\Temp\ccJ9Fnzg.s 			page 56


 2096 008d 03       		.uleb128 0x3
 2097 008e 08       		.byte	0x8
 2098 008f 07       		.byte	0x7
 2099 0090 C10E0000 		.4byte	.LASF12
 2100 0094 04       		.uleb128 0x4
 2101 0095 04       		.byte	0x4
 2102 0096 05       		.byte	0x5
 2103 0097 696E7400 		.ascii	"int\000"
 2104 009b 03       		.uleb128 0x3
 2105 009c 04       		.byte	0x4
 2106 009d 07       		.byte	0x7
 2107 009e 5A0B0000 		.4byte	.LASF13
 2108 00a2 02       		.uleb128 0x2
 2109 00a3 09000000 		.4byte	.LASF14
 2110 00a7 05       		.byte	0x5
 2111 00a8 14       		.byte	0x14
 2112 00a9 25000000 		.4byte	0x25
 2113 00ad 02       		.uleb128 0x2
 2114 00ae 36040000 		.4byte	.LASF15
 2115 00b2 05       		.byte	0x5
 2116 00b3 18       		.byte	0x18
 2117 00b4 37000000 		.4byte	0x37
 2118 00b8 02       		.uleb128 0x2
 2119 00b9 ED0E0000 		.4byte	.LASF16
 2120 00bd 05       		.byte	0x5
 2121 00be 24       		.byte	0x24
 2122 00bf 50000000 		.4byte	0x50
 2123 00c3 02       		.uleb128 0x2
 2124 00c4 B4000000 		.4byte	.LASF17
 2125 00c8 05       		.byte	0x5
 2126 00c9 2C       		.byte	0x2c
 2127 00ca 62000000 		.4byte	0x62
 2128 00ce 02       		.uleb128 0x2
 2129 00cf 4F130000 		.4byte	.LASF18
 2130 00d3 05       		.byte	0x5
 2131 00d4 30       		.byte	0x30
 2132 00d5 74000000 		.4byte	0x74
 2133 00d9 05       		.uleb128 0x5
 2134 00da 04       		.byte	0x4
 2135 00db 03       		.uleb128 0x3
 2136 00dc 04       		.byte	0x4
 2137 00dd 07       		.byte	0x7
 2138 00de 3A000000 		.4byte	.LASF19
 2139 00e2 03       		.uleb128 0x3
 2140 00e3 01       		.byte	0x1
 2141 00e4 08       		.byte	0x8
 2142 00e5 42050000 		.4byte	.LASF20
 2143 00e9 03       		.uleb128 0x3
 2144 00ea 08       		.byte	0x8
 2145 00eb 04       		.byte	0x4
 2146 00ec 7A0A0000 		.4byte	.LASF21
 2147 00f0 03       		.uleb128 0x3
 2148 00f1 04       		.byte	0x4
 2149 00f2 04       		.byte	0x4
 2150 00f3 3B0B0000 		.4byte	.LASF22
 2151 00f7 03       		.uleb128 0x3
 2152 00f8 08       		.byte	0x8
ARM GAS  C:\Users\jrdia\AppData\Local\Temp\ccJ9Fnzg.s 			page 57


 2153 00f9 04       		.byte	0x4
 2154 00fa F80D0000 		.4byte	.LASF23
 2155 00fe 03       		.uleb128 0x3
 2156 00ff 01       		.byte	0x1
 2157 0100 02       		.byte	0x2
 2158 0101 7D0D0000 		.4byte	.LASF24
 2159 0105 06       		.uleb128 0x6
 2160 0106 220D0000 		.4byte	.LASF280
 2161 010a 01       		.byte	0x1
 2162 010b 42000000 		.4byte	0x42
 2163 010f 0C       		.byte	0xc
 2164 0110 29       		.byte	0x29
 2165 0111 28010000 		.4byte	0x128
 2166 0115 07       		.uleb128 0x7
 2167 0116 1E070000 		.4byte	.LASF25
 2168 011a 00       		.byte	0
 2169 011b 07       		.uleb128 0x7
 2170 011c 01030000 		.4byte	.LASF26
 2171 0120 01       		.byte	0x1
 2172 0121 07       		.uleb128 0x7
 2173 0122 CE020000 		.4byte	.LASF27
 2174 0126 02       		.byte	0x2
 2175 0127 00       		.byte	0
 2176 0128 08       		.uleb128 0x8
 2177 0129 84070000 		.4byte	.LASF33
 2178 012d 03       		.byte	0x3
 2179 012e 06       		.byte	0x6
 2180 012f 20       		.byte	0x20
 2181 0130 A2010000 		.4byte	0x1a2
 2182 0134 09       		.uleb128 0x9
 2183 0135 01       		.byte	0x1
 2184 0136 06       		.byte	0x6
 2185 0137 24       		.byte	0x24
 2186 0138 83010000 		.4byte	0x183
 2187 013c 0A       		.uleb128 0xa
 2188 013d 01       		.byte	0x1
 2189 013e 06       		.byte	0x6
 2190 013f 27       		.byte	0x27
 2191 0140 72010000 		.4byte	0x172
 2192 0144 0B       		.uleb128 0xb
 2193 0145 04040000 		.4byte	.LASF28
 2194 0149 06       		.byte	0x6
 2195 014a 28       		.byte	0x28
 2196 014b AD000000 		.4byte	0xad
 2197 014f 01       		.byte	0x1
 2198 0150 01       		.byte	0x1
 2199 0151 07       		.byte	0x7
 2200 0152 00       		.byte	0
 2201 0153 0B       		.uleb128 0xb
 2202 0154 8E120000 		.4byte	.LASF29
 2203 0158 06       		.byte	0x6
 2204 0159 29       		.byte	0x29
 2205 015a AD000000 		.4byte	0xad
 2206 015e 01       		.byte	0x1
 2207 015f 01       		.byte	0x1
 2208 0160 06       		.byte	0x6
 2209 0161 00       		.byte	0
ARM GAS  C:\Users\jrdia\AppData\Local\Temp\ccJ9Fnzg.s 			page 58


 2210 0162 0B       		.uleb128 0xb
 2211 0163 64090000 		.4byte	.LASF30
 2212 0167 06       		.byte	0x6
 2213 0168 2A       		.byte	0x2a
 2214 0169 AD000000 		.4byte	0xad
 2215 016d 01       		.byte	0x1
 2216 016e 06       		.byte	0x6
 2217 016f 00       		.byte	0
 2218 0170 00       		.byte	0
 2219 0171 00       		.byte	0
 2220 0172 0C       		.uleb128 0xc
 2221 0173 F7020000 		.4byte	.LASF39
 2222 0177 06       		.byte	0x6
 2223 0178 25       		.byte	0x25
 2224 0179 AD000000 		.4byte	0xad
 2225 017d 0D       		.uleb128 0xd
 2226 017e 3C010000 		.4byte	0x13c
 2227 0182 00       		.byte	0
 2228 0183 0E       		.uleb128 0xe
 2229 0184 D3030000 		.4byte	.LASF31
 2230 0188 06       		.byte	0x6
 2231 0189 21       		.byte	0x21
 2232 018a AD000000 		.4byte	0xad
 2233 018e 00       		.byte	0
 2234 018f 0E       		.uleb128 0xe
 2235 0190 DE070000 		.4byte	.LASF32
 2236 0194 06       		.byte	0x6
 2237 0195 22       		.byte	0x22
 2238 0196 AD000000 		.4byte	0xad
 2239 019a 01       		.byte	0x1
 2240 019b 0F       		.uleb128 0xf
 2241 019c 34010000 		.4byte	0x134
 2242 01a0 02       		.byte	0x2
 2243 01a1 00       		.byte	0
 2244 01a2 08       		.uleb128 0x8
 2245 01a3 CC140000 		.4byte	.LASF34
 2246 01a7 01       		.byte	0x1
 2247 01a8 06       		.byte	0x6
 2248 01a9 39       		.byte	0x39
 2249 01aa 13020000 		.4byte	0x213
 2250 01ae 09       		.uleb128 0x9
 2251 01af 01       		.byte	0x1
 2252 01b0 06       		.byte	0x6
 2253 01b1 3B       		.byte	0x3b
 2254 01b2 0C020000 		.4byte	0x20c
 2255 01b6 0A       		.uleb128 0xa
 2256 01b7 01       		.byte	0x1
 2257 01b8 06       		.byte	0x6
 2258 01b9 3D       		.byte	0x3d
 2259 01ba FB010000 		.4byte	0x1fb
 2260 01be 0B       		.uleb128 0xb
 2261 01bf 9D060000 		.4byte	.LASF35
 2262 01c3 06       		.byte	0x6
 2263 01c4 3E       		.byte	0x3e
 2264 01c5 AD000000 		.4byte	0xad
 2265 01c9 01       		.byte	0x1
 2266 01ca 03       		.byte	0x3
ARM GAS  C:\Users\jrdia\AppData\Local\Temp\ccJ9Fnzg.s 			page 59


 2267 01cb 05       		.byte	0x5
 2268 01cc 00       		.byte	0
 2269 01cd 0B       		.uleb128 0xb
 2270 01ce 10040000 		.4byte	.LASF36
 2271 01d2 06       		.byte	0x6
 2272 01d3 3F       		.byte	0x3f
 2273 01d4 AD000000 		.4byte	0xad
 2274 01d8 01       		.byte	0x1
 2275 01d9 03       		.byte	0x3
 2276 01da 02       		.byte	0x2
 2277 01db 00       		.byte	0
 2278 01dc 0B       		.uleb128 0xb
 2279 01dd 22120000 		.4byte	.LASF37
 2280 01e1 06       		.byte	0x6
 2281 01e2 40       		.byte	0x40
 2282 01e3 AD000000 		.4byte	0xad
 2283 01e7 01       		.byte	0x1
 2284 01e8 01       		.byte	0x1
 2285 01e9 01       		.byte	0x1
 2286 01ea 00       		.byte	0
 2287 01eb 0B       		.uleb128 0xb
 2288 01ec 870F0000 		.4byte	.LASF38
 2289 01f0 06       		.byte	0x6
 2290 01f1 41       		.byte	0x41
 2291 01f2 AD000000 		.4byte	0xad
 2292 01f6 01       		.byte	0x1
 2293 01f7 01       		.byte	0x1
 2294 01f8 00       		.byte	0
 2295 01f9 00       		.byte	0
 2296 01fa 00       		.byte	0
 2297 01fb 0D       		.uleb128 0xd
 2298 01fc B6010000 		.4byte	0x1b6
 2299 0200 0C       		.uleb128 0xc
 2300 0201 F60E0000 		.4byte	.LASF40
 2301 0205 06       		.byte	0x6
 2302 0206 43       		.byte	0x43
 2303 0207 AD000000 		.4byte	0xad
 2304 020b 00       		.byte	0
 2305 020c 0F       		.uleb128 0xf
 2306 020d AE010000 		.4byte	0x1ae
 2307 0211 00       		.byte	0
 2308 0212 00       		.byte	0
 2309 0213 08       		.uleb128 0x8
 2310 0214 79010000 		.4byte	.LASF41
 2311 0218 07       		.byte	0x7
 2312 0219 06       		.byte	0x6
 2313 021a 4B       		.byte	0x4b
 2314 021b 50020000 		.4byte	0x250
 2315 021f 0E       		.uleb128 0xe
 2316 0220 6F090000 		.4byte	.LASF42
 2317 0224 06       		.byte	0x6
 2318 0225 4C       		.byte	0x4c
 2319 0226 50020000 		.4byte	0x250
 2320 022a 00       		.byte	0
 2321 022b 0E       		.uleb128 0xe
 2322 022c CB080000 		.4byte	.LASF43
 2323 0230 06       		.byte	0x6
ARM GAS  C:\Users\jrdia\AppData\Local\Temp\ccJ9Fnzg.s 			page 60


 2324 0231 4D       		.byte	0x4d
 2325 0232 A2010000 		.4byte	0x1a2
 2326 0236 04       		.byte	0x4
 2327 0237 0E       		.uleb128 0xe
 2328 0238 32000000 		.4byte	.LASF44
 2329 023c 06       		.byte	0x6
 2330 023d 4E       		.byte	0x4e
 2331 023e AD000000 		.4byte	0xad
 2332 0242 05       		.byte	0x5
 2333 0243 0E       		.uleb128 0xe
 2334 0244 62020000 		.4byte	.LASF45
 2335 0248 06       		.byte	0x6
 2336 0249 4F       		.byte	0x4f
 2337 024a FE000000 		.4byte	0xfe
 2338 024e 06       		.byte	0x6
 2339 024f 00       		.byte	0
 2340 0250 10       		.uleb128 0x10
 2341 0251 04       		.byte	0x4
 2342 0252 28010000 		.4byte	0x128
 2343 0256 02       		.uleb128 0x2
 2344 0257 60130000 		.4byte	.LASF46
 2345 025b 06       		.byte	0x6
 2346 025c 5A       		.byte	0x5a
 2347 025d 61020000 		.4byte	0x261
 2348 0261 10       		.uleb128 0x10
 2349 0262 04       		.byte	0x4
 2350 0263 67020000 		.4byte	0x267
 2351 0267 11       		.uleb128 0x11
 2352 0268 72020000 		.4byte	0x272
 2353 026c 12       		.uleb128 0x12
 2354 026d 72020000 		.4byte	0x272
 2355 0271 00       		.byte	0
 2356 0272 10       		.uleb128 0x10
 2357 0273 04       		.byte	0x4
 2358 0274 13020000 		.4byte	0x213
 2359 0278 13       		.uleb128 0x13
 2360 0279 29020000 		.4byte	.LASF47
 2361 027d 13       		.uleb128 0x13
 2362 027e 5A060000 		.4byte	.LASF48
 2363 0282 14       		.uleb128 0x14
 2364 0283 12       		.byte	0x12
 2365 0284 07       		.byte	0x7
 2366 0285 62       		.byte	0x62
 2367 0286 E10F0000 		.4byte	.LASF64
 2368 028a 37030000 		.4byte	0x337
 2369 028e 0E       		.uleb128 0xe
 2370 028f B90E0000 		.4byte	.LASF49
 2371 0293 07       		.byte	0x7
 2372 0294 63       		.byte	0x63
 2373 0295 AD000000 		.4byte	0xad
 2374 0299 00       		.byte	0
 2375 029a 0E       		.uleb128 0xe
 2376 029b FD070000 		.4byte	.LASF50
 2377 029f 07       		.byte	0x7
 2378 02a0 64       		.byte	0x64
 2379 02a1 AD000000 		.4byte	0xad
 2380 02a5 01       		.byte	0x1
ARM GAS  C:\Users\jrdia\AppData\Local\Temp\ccJ9Fnzg.s 			page 61


 2381 02a6 0E       		.uleb128 0xe
 2382 02a7 22020000 		.4byte	.LASF51
 2383 02ab 07       		.byte	0x7
 2384 02ac 65       		.byte	0x65
 2385 02ad B8000000 		.4byte	0xb8
 2386 02b1 02       		.byte	0x2
 2387 02b2 0E       		.uleb128 0xe
 2388 02b3 14110000 		.4byte	.LASF52
 2389 02b7 07       		.byte	0x7
 2390 02b8 66       		.byte	0x66
 2391 02b9 AD000000 		.4byte	0xad
 2392 02bd 04       		.byte	0x4
 2393 02be 0E       		.uleb128 0xe
 2394 02bf CA000000 		.4byte	.LASF53
 2395 02c3 07       		.byte	0x7
 2396 02c4 67       		.byte	0x67
 2397 02c5 AD000000 		.4byte	0xad
 2398 02c9 05       		.byte	0x5
 2399 02ca 0E       		.uleb128 0xe
 2400 02cb 31030000 		.4byte	.LASF54
 2401 02cf 07       		.byte	0x7
 2402 02d0 68       		.byte	0x68
 2403 02d1 AD000000 		.4byte	0xad
 2404 02d5 06       		.byte	0x6
 2405 02d6 0E       		.uleb128 0xe
 2406 02d7 8C080000 		.4byte	.LASF55
 2407 02db 07       		.byte	0x7
 2408 02dc 69       		.byte	0x69
 2409 02dd AD000000 		.4byte	0xad
 2410 02e1 07       		.byte	0x7
 2411 02e2 0E       		.uleb128 0xe
 2412 02e3 D80F0000 		.4byte	.LASF56
 2413 02e7 07       		.byte	0x7
 2414 02e8 6A       		.byte	0x6a
 2415 02e9 B8000000 		.4byte	0xb8
 2416 02ed 08       		.byte	0x8
 2417 02ee 0E       		.uleb128 0xe
 2418 02ef 710F0000 		.4byte	.LASF57
 2419 02f3 07       		.byte	0x7
 2420 02f4 6B       		.byte	0x6b
 2421 02f5 B8000000 		.4byte	0xb8
 2422 02f9 0A       		.byte	0xa
 2423 02fa 0E       		.uleb128 0xe
 2424 02fb 91040000 		.4byte	.LASF58
 2425 02ff 07       		.byte	0x7
 2426 0300 6C       		.byte	0x6c
 2427 0301 B8000000 		.4byte	0xb8
 2428 0305 0C       		.byte	0xc
 2429 0306 0E       		.uleb128 0xe
 2430 0307 C50A0000 		.4byte	.LASF59
 2431 030b 07       		.byte	0x7
 2432 030c 6D       		.byte	0x6d
 2433 030d AD000000 		.4byte	0xad
 2434 0311 0E       		.byte	0xe
 2435 0312 0E       		.uleb128 0xe
 2436 0313 00000000 		.4byte	.LASF60
 2437 0317 07       		.byte	0x7
ARM GAS  C:\Users\jrdia\AppData\Local\Temp\ccJ9Fnzg.s 			page 62


 2438 0318 6E       		.byte	0x6e
 2439 0319 AD000000 		.4byte	0xad
 2440 031d 0F       		.byte	0xf
 2441 031e 0E       		.uleb128 0xe
 2442 031f AD080000 		.4byte	.LASF61
 2443 0323 07       		.byte	0x7
 2444 0324 6F       		.byte	0x6f
 2445 0325 AD000000 		.4byte	0xad
 2446 0329 10       		.byte	0x10
 2447 032a 0E       		.uleb128 0xe
 2448 032b 3E0F0000 		.4byte	.LASF62
 2449 032f 07       		.byte	0x7
 2450 0330 70       		.byte	0x70
 2451 0331 AD000000 		.4byte	0xad
 2452 0335 11       		.byte	0x11
 2453 0336 00       		.byte	0
 2454 0337 02       		.uleb128 0x2
 2455 0338 5B030000 		.4byte	.LASF63
 2456 033c 07       		.byte	0x7
 2457 033d 71       		.byte	0x71
 2458 033e 82020000 		.4byte	0x282
 2459 0342 14       		.uleb128 0x14
 2460 0343 09       		.byte	0x9
 2461 0344 07       		.byte	0x7
 2462 0345 74       		.byte	0x74
 2463 0346 7E060000 		.4byte	.LASF65
 2464 034a AF030000 		.4byte	0x3af
 2465 034e 0E       		.uleb128 0xe
 2466 034f B90E0000 		.4byte	.LASF49
 2467 0353 07       		.byte	0x7
 2468 0354 75       		.byte	0x75
 2469 0355 AD000000 		.4byte	0xad
 2470 0359 00       		.byte	0
 2471 035a 0E       		.uleb128 0xe
 2472 035b FD070000 		.4byte	.LASF50
 2473 035f 07       		.byte	0x7
 2474 0360 76       		.byte	0x76
 2475 0361 AD000000 		.4byte	0xad
 2476 0365 01       		.byte	0x1
 2477 0366 0E       		.uleb128 0xe
 2478 0367 290E0000 		.4byte	.LASF66
 2479 036b 07       		.byte	0x7
 2480 036c 77       		.byte	0x77
 2481 036d B8000000 		.4byte	0xb8
 2482 0371 02       		.byte	0x2
 2483 0372 0E       		.uleb128 0xe
 2484 0373 980B0000 		.4byte	.LASF67
 2485 0377 07       		.byte	0x7
 2486 0378 78       		.byte	0x78
 2487 0379 AD000000 		.4byte	0xad
 2488 037d 04       		.byte	0x4
 2489 037e 0E       		.uleb128 0xe
 2490 037f EC0B0000 		.4byte	.LASF68
 2491 0383 07       		.byte	0x7
 2492 0384 79       		.byte	0x79
 2493 0385 AD000000 		.4byte	0xad
 2494 0389 05       		.byte	0x5
ARM GAS  C:\Users\jrdia\AppData\Local\Temp\ccJ9Fnzg.s 			page 63


 2495 038a 0E       		.uleb128 0xe
 2496 038b 300D0000 		.4byte	.LASF69
 2497 038f 07       		.byte	0x7
 2498 0390 7A       		.byte	0x7a
 2499 0391 AD000000 		.4byte	0xad
 2500 0395 06       		.byte	0x6
 2501 0396 0E       		.uleb128 0xe
 2502 0397 A0090000 		.4byte	.LASF70
 2503 039b 07       		.byte	0x7
 2504 039c 7B       		.byte	0x7b
 2505 039d AD000000 		.4byte	0xad
 2506 03a1 07       		.byte	0x7
 2507 03a2 0E       		.uleb128 0xe
 2508 03a3 8F130000 		.4byte	.LASF71
 2509 03a7 07       		.byte	0x7
 2510 03a8 7C       		.byte	0x7c
 2511 03a9 AD000000 		.4byte	0xad
 2512 03ad 08       		.byte	0x8
 2513 03ae 00       		.byte	0
 2514 03af 02       		.uleb128 0x2
 2515 03b0 040E0000 		.4byte	.LASF72
 2516 03b4 07       		.byte	0x7
 2517 03b5 7D       		.byte	0x7d
 2518 03b6 42030000 		.4byte	0x342
 2519 03ba 15       		.uleb128 0x15
 2520 03bb 01       		.byte	0x1
 2521 03bc 42000000 		.4byte	0x42
 2522 03c0 08       		.byte	0x8
 2523 03c1 7C       		.byte	0x7c
 2524 03c2 920F0000 		.4byte	.LASF281
 2525 03c6 D7030000 		.4byte	0x3d7
 2526 03ca 07       		.uleb128 0x7
 2527 03cb E8010000 		.4byte	.LASF73
 2528 03cf 00       		.byte	0
 2529 03d0 07       		.uleb128 0x7
 2530 03d1 680F0000 		.4byte	.LASF74
 2531 03d5 01       		.byte	0x1
 2532 03d6 00       		.byte	0
 2533 03d7 02       		.uleb128 0x2
 2534 03d8 32140000 		.4byte	.LASF75
 2535 03dc 08       		.byte	0x8
 2536 03dd 7F       		.byte	0x7f
 2537 03de BA030000 		.4byte	0x3ba
 2538 03e2 16       		.uleb128 0x16
 2539 03e3 9B0D0000 		.4byte	.LASF109
 2540 03e7 01       		.byte	0x1
 2541 03e8 08       		.byte	0x8
 2542 03e9 81       		.byte	0x81
 2543 03ea 22060000 		.4byte	0x622
 2544 03ee 17       		.uleb128 0x17
 2545 03ef C9070000 		.4byte	.LASF213
 2546 03f3 08       		.byte	0x8
 2547 03f4 9E       		.byte	0x9e
 2548 03f5 AD000000 		.4byte	0xad
 2549 03f9 18       		.uleb128 0x18
 2550 03fa 76020000 		.4byte	.LASF76
 2551 03fe 08       		.byte	0x8
ARM GAS  C:\Users\jrdia\AppData\Local\Temp\ccJ9Fnzg.s 			page 64


 2552 03ff A2       		.byte	0xa2
 2553 0400 BC060000 		.4byte	.LASF78
 2554 0404 22060000 		.4byte	0x622
 2555 0408 01       		.byte	0x1
 2556 0409 11040000 		.4byte	0x411
 2557 040d 17040000 		.4byte	0x417
 2558 0411 19       		.uleb128 0x19
 2559 0412 22060000 		.4byte	0x622
 2560 0416 00       		.byte	0
 2561 0417 1A       		.uleb128 0x1a
 2562 0418 89130000 		.4byte	.LASF80
 2563 041c 08       		.byte	0x8
 2564 041d AD       		.byte	0xad
 2565 041e D5050000 		.4byte	.LASF94
 2566 0422 01       		.byte	0x1
 2567 0423 2B040000 		.4byte	0x42b
 2568 0427 3B040000 		.4byte	0x43b
 2569 042b 19       		.uleb128 0x19
 2570 042c 22060000 		.4byte	0x622
 2571 0430 12       		.uleb128 0x12
 2572 0431 AD000000 		.4byte	0xad
 2573 0435 12       		.uleb128 0x12
 2574 0436 AD000000 		.4byte	0xad
 2575 043a 00       		.byte	0
 2576 043b 18       		.uleb128 0x18
 2577 043c 980A0000 		.4byte	.LASF77
 2578 0440 08       		.byte	0x8
 2579 0441 E5       		.byte	0xe5
 2580 0442 33080000 		.4byte	.LASF79
 2581 0446 28060000 		.4byte	0x628
 2582 044a 01       		.byte	0x1
 2583 044b 53040000 		.4byte	0x453
 2584 044f 68040000 		.4byte	0x468
 2585 0453 19       		.uleb128 0x19
 2586 0454 22060000 		.4byte	0x622
 2587 0458 12       		.uleb128 0x12
 2588 0459 AD000000 		.4byte	0xad
 2589 045d 12       		.uleb128 0x12
 2590 045e AD000000 		.4byte	0xad
 2591 0462 12       		.uleb128 0x12
 2592 0463 28060000 		.4byte	0x628
 2593 0467 00       		.byte	0
 2594 0468 1B       		.uleb128 0x1b
 2595 0469 1C080000 		.4byte	.LASF81
 2596 046d 08       		.byte	0x8
 2597 046e 2C01     		.2byte	0x12c
 2598 0470 C3110000 		.4byte	.LASF99
 2599 0474 01       		.byte	0x1
 2600 0475 7D040000 		.4byte	0x47d
 2601 0479 88040000 		.4byte	0x488
 2602 047d 19       		.uleb128 0x19
 2603 047e 22060000 		.4byte	0x622
 2604 0482 12       		.uleb128 0x12
 2605 0483 AD000000 		.4byte	0xad
 2606 0487 00       		.byte	0
 2607 0488 1C       		.uleb128 0x1c
 2608 0489 F90F0000 		.4byte	.LASF82
ARM GAS  C:\Users\jrdia\AppData\Local\Temp\ccJ9Fnzg.s 			page 65


 2609 048d 08       		.byte	0x8
 2610 048e 3501     		.2byte	0x135
 2611 0490 9A120000 		.4byte	.LASF84
 2612 0494 AD000000 		.4byte	0xad
 2613 0498 01       		.byte	0x1
 2614 0499 A1040000 		.4byte	0x4a1
 2615 049d AC040000 		.4byte	0x4ac
 2616 04a1 19       		.uleb128 0x19
 2617 04a2 22060000 		.4byte	0x622
 2618 04a6 12       		.uleb128 0x12
 2619 04a7 AD000000 		.4byte	0xad
 2620 04ab 00       		.byte	0
 2621 04ac 1C       		.uleb128 0x1c
 2622 04ad 27070000 		.4byte	.LASF83
 2623 04b1 08       		.byte	0x8
 2624 04b2 7801     		.2byte	0x178
 2625 04b4 DD040000 		.4byte	.LASF85
 2626 04b8 28060000 		.4byte	0x628
 2627 04bc 01       		.byte	0x1
 2628 04bd C5040000 		.4byte	0x4c5
 2629 04c1 DA040000 		.4byte	0x4da
 2630 04c5 19       		.uleb128 0x19
 2631 04c6 22060000 		.4byte	0x622
 2632 04ca 12       		.uleb128 0x12
 2633 04cb AD000000 		.4byte	0xad
 2634 04cf 12       		.uleb128 0x12
 2635 04d0 AD000000 		.4byte	0xad
 2636 04d4 12       		.uleb128 0x12
 2637 04d5 28060000 		.4byte	0x628
 2638 04d9 00       		.byte	0
 2639 04da 1C       		.uleb128 0x1c
 2640 04db D6040000 		.4byte	.LASF86
 2641 04df 08       		.byte	0x8
 2642 04e0 CE01     		.2byte	0x1ce
 2643 04e2 F4090000 		.4byte	.LASF87
 2644 04e6 AD000000 		.4byte	0xad
 2645 04ea 01       		.byte	0x1
 2646 04eb F3040000 		.4byte	0x4f3
 2647 04ef F9040000 		.4byte	0x4f9
 2648 04f3 19       		.uleb128 0x19
 2649 04f4 22060000 		.4byte	0x622
 2650 04f8 00       		.byte	0
 2651 04f9 1C       		.uleb128 0x1c
 2652 04fa 0E110000 		.4byte	.LASF88
 2653 04fe 08       		.byte	0x8
 2654 04ff D901     		.2byte	0x1d9
 2655 0501 28120000 		.4byte	.LASF89
 2656 0505 B8000000 		.4byte	0xb8
 2657 0509 01       		.byte	0x1
 2658 050a 12050000 		.4byte	0x512
 2659 050e 18050000 		.4byte	0x518
 2660 0512 19       		.uleb128 0x19
 2661 0513 22060000 		.4byte	0x622
 2662 0517 00       		.byte	0
 2663 0518 1C       		.uleb128 0x1c
 2664 0519 650D0000 		.4byte	.LASF90
 2665 051d 08       		.byte	0x8
ARM GAS  C:\Users\jrdia\AppData\Local\Temp\ccJ9Fnzg.s 			page 66


 2666 051e E701     		.2byte	0x1e7
 2667 0520 890C0000 		.4byte	.LASF91
 2668 0524 A2000000 		.4byte	0xa2
 2669 0528 01       		.byte	0x1
 2670 0529 31050000 		.4byte	0x531
 2671 052d 37050000 		.4byte	0x537
 2672 0531 19       		.uleb128 0x19
 2673 0532 22060000 		.4byte	0x622
 2674 0536 00       		.byte	0
 2675 0537 1C       		.uleb128 0x1c
 2676 0538 650D0000 		.4byte	.LASF90
 2677 053c 08       		.byte	0x8
 2678 053d 0F02     		.2byte	0x20f
 2679 053f 1A0C0000 		.4byte	.LASF92
 2680 0543 A2000000 		.4byte	0xa2
 2681 0547 01       		.byte	0x1
 2682 0548 50050000 		.4byte	0x550
 2683 054c 5B050000 		.4byte	0x55b
 2684 0550 19       		.uleb128 0x19
 2685 0551 22060000 		.4byte	0x622
 2686 0555 12       		.uleb128 0x12
 2687 0556 94000000 		.4byte	0x94
 2688 055a 00       		.byte	0
 2689 055b 1A       		.uleb128 0x1a
 2690 055c 4B0B0000 		.4byte	.LASF93
 2691 0560 08       		.byte	0x8
 2692 0561 90       		.byte	0x90
 2693 0562 AE0B0000 		.4byte	.LASF95
 2694 0566 01       		.byte	0x1
 2695 0567 6F050000 		.4byte	0x56f
 2696 056b 7A050000 		.4byte	0x57a
 2697 056f 19       		.uleb128 0x19
 2698 0570 22060000 		.4byte	0x622
 2699 0574 12       		.uleb128 0x12
 2700 0575 D7030000 		.4byte	0x3d7
 2701 0579 00       		.byte	0
 2702 057a 18       		.uleb128 0x18
 2703 057b 77070000 		.4byte	.LASF96
 2704 057f 08       		.byte	0x8
 2705 0580 94       		.byte	0x94
 2706 0581 2F070000 		.4byte	.LASF97
 2707 0585 AD000000 		.4byte	0xad
 2708 0589 01       		.byte	0x1
 2709 058a 92050000 		.4byte	0x592
 2710 058e 98050000 		.4byte	0x598
 2711 0592 19       		.uleb128 0x19
 2712 0593 22060000 		.4byte	0x622
 2713 0597 00       		.byte	0
 2714 0598 1B       		.uleb128 0x1b
 2715 0599 B3060000 		.4byte	.LASF98
 2716 059d 08       		.byte	0x8
 2717 059e 3B02     		.2byte	0x23b
 2718 05a0 EB0C0000 		.4byte	.LASF100
 2719 05a4 01       		.byte	0x1
 2720 05a5 AD050000 		.4byte	0x5ad
 2721 05a9 B3050000 		.4byte	0x5b3
 2722 05ad 19       		.uleb128 0x19
ARM GAS  C:\Users\jrdia\AppData\Local\Temp\ccJ9Fnzg.s 			page 67


 2723 05ae 22060000 		.4byte	0x622
 2724 05b2 00       		.byte	0
 2725 05b3 18       		.uleb128 0x18
 2726 05b4 6B020000 		.4byte	.LASF101
 2727 05b8 08       		.byte	0x8
 2728 05b9 98       		.byte	0x98
 2729 05ba 13090000 		.4byte	.LASF102
 2730 05be AD000000 		.4byte	0xad
 2731 05c2 01       		.byte	0x1
 2732 05c3 CB050000 		.4byte	0x5cb
 2733 05c7 D1050000 		.4byte	0x5d1
 2734 05cb 19       		.uleb128 0x19
 2735 05cc 22060000 		.4byte	0x622
 2736 05d0 00       		.byte	0
 2737 05d1 1C       		.uleb128 0x1c
 2738 05d2 9D100000 		.4byte	.LASF103
 2739 05d6 08       		.byte	0x8
 2740 05d7 7102     		.2byte	0x271
 2741 05d9 3D100000 		.4byte	.LASF104
 2742 05dd AD000000 		.4byte	0xad
 2743 05e1 01       		.byte	0x1
 2744 05e2 EA050000 		.4byte	0x5ea
 2745 05e6 F0050000 		.4byte	0x5f0
 2746 05ea 19       		.uleb128 0x19
 2747 05eb 22060000 		.4byte	0x622
 2748 05ef 00       		.byte	0
 2749 05f0 1C       		.uleb128 0x1c
 2750 05f1 80120000 		.4byte	.LASF105
 2751 05f5 08       		.byte	0x8
 2752 05f6 5E02     		.2byte	0x25e
 2753 05f8 4D0C0000 		.4byte	.LASF106
 2754 05fc AD000000 		.4byte	0xad
 2755 0600 01       		.byte	0x1
 2756 0601 09060000 		.4byte	0x609
 2757 0605 0F060000 		.4byte	0x60f
 2758 0609 19       		.uleb128 0x19
 2759 060a 22060000 		.4byte	0x622
 2760 060e 00       		.byte	0
 2761 060f 1D       		.uleb128 0x1d
 2762 0610 A70B0000 		.4byte	.LASF107
 2763 0614 7D020000 		.4byte	0x27d
 2764 0618 1D       		.uleb128 0x1d
 2765 0619 4D090000 		.4byte	.LASF108
 2766 061d 78020000 		.4byte	0x278
 2767 0621 00       		.byte	0
 2768 0622 10       		.uleb128 0x10
 2769 0623 04       		.byte	0x4
 2770 0624 E2030000 		.4byte	0x3e2
 2771 0628 10       		.uleb128 0x10
 2772 0629 04       		.byte	0x4
 2773 062a AD000000 		.4byte	0xad
 2774 062e 1E       		.uleb128 0x1e
 2775 062f 55534200 		.ascii	"USB\000"
 2776 0633 BC       		.byte	0xbc
 2777 0634 01       		.byte	0x1
 2778 0635 C7       		.byte	0xc7
 2779 0636 A80B0000 		.4byte	0xba8
ARM GAS  C:\Users\jrdia\AppData\Local\Temp\ccJ9Fnzg.s 			page 68


 2780 063a 1F       		.uleb128 0x1f
 2781 063b E2030000 		.4byte	0x3e2
 2782 063f 00       		.byte	0
 2783 0640 01       		.byte	0x1
 2784 0641 0E       		.uleb128 0xe
 2785 0642 5C0D0000 		.4byte	.LASF110
 2786 0646 01       		.byte	0x1
 2787 0647 C8       		.byte	0xc8
 2788 0648 A80B0000 		.4byte	0xba8
 2789 064c 00       		.byte	0
 2790 064d 0E       		.uleb128 0xe
 2791 064e 410B0000 		.4byte	.LASF111
 2792 0652 01       		.byte	0x1
 2793 0653 C9       		.byte	0xc9
 2794 0654 BC0B0000 		.4byte	0xbbc
 2795 0658 78       		.byte	0x78
 2796 0659 0E       		.uleb128 0xe
 2797 065a EC060000 		.4byte	.LASF112
 2798 065e 01       		.byte	0x1
 2799 065f CA       		.byte	0xca
 2800 0660 AD000000 		.4byte	0xad
 2801 0664 B8       		.byte	0xb8
 2802 0665 20       		.uleb128 0x20
 2803 0666 55534200 		.ascii	"USB\000"
 2804 066a 01       		.byte	0x1
 2805 066b CD       		.byte	0xcd
 2806 066c A7060000 		.4byte	.LASF282
 2807 0670 D10D0000 		.4byte	0xdd1
 2808 0674 01       		.byte	0x1
 2809 0675 7D060000 		.4byte	0x67d
 2810 0679 83060000 		.4byte	0x683
 2811 067d 19       		.uleb128 0x19
 2812 067e D10D0000 		.4byte	0xdd1
 2813 0682 00       		.byte	0
 2814 0683 1A       		.uleb128 0x1a
 2815 0684 F8110000 		.4byte	.LASF113
 2816 0688 01       		.byte	0x1
 2817 0689 CF       		.byte	0xcf
 2818 068a A50A0000 		.4byte	.LASF114
 2819 068e 01       		.byte	0x1
 2820 068f 97060000 		.4byte	0x697
 2821 0693 9D060000 		.4byte	0x69d
 2822 0697 19       		.uleb128 0x19
 2823 0698 D10D0000 		.4byte	0xdd1
 2824 069c 00       		.byte	0
 2825 069d 1A       		.uleb128 0x1a
 2826 069e 23080000 		.4byte	.LASF115
 2827 06a2 01       		.byte	0x1
 2828 06a3 D3       		.byte	0xd3
 2829 06a4 CE120000 		.4byte	.LASF116
 2830 06a8 01       		.byte	0x1
 2831 06a9 B1060000 		.4byte	0x6b1
 2832 06ad B7060000 		.4byte	0x6b7
 2833 06b1 19       		.uleb128 0x19
 2834 06b2 D10D0000 		.4byte	0xdd1
 2835 06b6 00       		.byte	0
 2836 06b7 18       		.uleb128 0x18
ARM GAS  C:\Users\jrdia\AppData\Local\Temp\ccJ9Fnzg.s 			page 69


 2837 06b8 890B0000 		.4byte	.LASF117
 2838 06bc 01       		.byte	0x1
 2839 06bd D7       		.byte	0xd7
 2840 06be 000C0000 		.4byte	.LASF118
 2841 06c2 DC0D0000 		.4byte	0xddc
 2842 06c6 01       		.byte	0x1
 2843 06c7 CF060000 		.4byte	0x6cf
 2844 06cb D5060000 		.4byte	0x6d5
 2845 06cf 19       		.uleb128 0x19
 2846 06d0 D10D0000 		.4byte	0xdd1
 2847 06d4 00       		.byte	0
 2848 06d5 18       		.uleb128 0x18
 2849 06d6 010F0000 		.4byte	.LASF119
 2850 06da 01       		.byte	0x1
 2851 06db DB       		.byte	0xdb
 2852 06dc 4A140000 		.4byte	.LASF120
 2853 06e0 AD000000 		.4byte	0xad
 2854 06e4 01       		.byte	0x1
 2855 06e5 ED060000 		.4byte	0x6ed
 2856 06e9 F8060000 		.4byte	0x6f8
 2857 06ed 19       		.uleb128 0x19
 2858 06ee D10D0000 		.4byte	0xdd1
 2859 06f2 12       		.uleb128 0x12
 2860 06f3 CC0B0000 		.4byte	0xbcc
 2861 06f7 00       		.byte	0
 2862 06f8 1A       		.uleb128 0x1a
 2863 06f9 39140000 		.4byte	.LASF121
 2864 06fd 01       		.byte	0x1
 2865 06fe E5       		.byte	0xe5
 2866 06ff 6E000000 		.4byte	.LASF122
 2867 0703 01       		.byte	0x1
 2868 0704 0C070000 		.4byte	0x70c
 2869 0708 17070000 		.4byte	0x717
 2870 070c 19       		.uleb128 0x19
 2871 070d D10D0000 		.4byte	0xdd1
 2872 0711 12       		.uleb128 0x12
 2873 0712 56020000 		.4byte	0x256
 2874 0716 00       		.byte	0
 2875 0717 18       		.uleb128 0x18
 2876 0718 90090000 		.4byte	.LASF123
 2877 071c 01       		.byte	0x1
 2878 071d E8       		.byte	0xe8
 2879 071e 74110000 		.4byte	.LASF124
 2880 0722 AD000000 		.4byte	0xad
 2881 0726 01       		.byte	0x1
 2882 0727 2F070000 		.4byte	0x72f
 2883 072b 35070000 		.4byte	0x735
 2884 072f 19       		.uleb128 0x19
 2885 0730 D10D0000 		.4byte	0xdd1
 2886 0734 00       		.byte	0
 2887 0735 1A       		.uleb128 0x1a
 2888 0736 8B070000 		.4byte	.LASF125
 2889 073a 01       		.byte	0x1
 2890 073b E9       		.byte	0xe9
 2891 073c A7130000 		.4byte	.LASF126
 2892 0740 01       		.byte	0x1
 2893 0741 49070000 		.4byte	0x749
ARM GAS  C:\Users\jrdia\AppData\Local\Temp\ccJ9Fnzg.s 			page 70


 2894 0745 54070000 		.4byte	0x754
 2895 0749 19       		.uleb128 0x19
 2896 074a D10D0000 		.4byte	0xdd1
 2897 074e 12       		.uleb128 0x12
 2898 074f AD000000 		.4byte	0xad
 2899 0753 00       		.byte	0
 2900 0754 18       		.uleb128 0x18
 2901 0755 40130000 		.4byte	.LASF127
 2902 0759 01       		.byte	0x1
 2903 075a EB       		.byte	0xeb
 2904 075b A9020000 		.4byte	.LASF128
 2905 075f 50020000 		.4byte	0x250
 2906 0763 01       		.byte	0x1
 2907 0764 6C070000 		.4byte	0x76c
 2908 0768 7C070000 		.4byte	0x77c
 2909 076c 19       		.uleb128 0x19
 2910 076d D10D0000 		.4byte	0xdd1
 2911 0771 12       		.uleb128 0x12
 2912 0772 AD000000 		.4byte	0xad
 2913 0776 12       		.uleb128 0x12
 2914 0777 AD000000 		.4byte	0xad
 2915 077b 00       		.byte	0
 2916 077c 18       		.uleb128 0x18
 2917 077d 430A0000 		.4byte	.LASF129
 2918 0781 01       		.byte	0x1
 2919 0782 EC       		.byte	0xec
 2920 0783 570A0000 		.4byte	.LASF130
 2921 0787 AD000000 		.4byte	0xad
 2922 078b 01       		.byte	0x1
 2923 078c 94070000 		.4byte	0x794
 2924 0790 A9070000 		.4byte	0x7a9
 2925 0794 19       		.uleb128 0x19
 2926 0795 D10D0000 		.4byte	0xdd1
 2927 0799 12       		.uleb128 0x12
 2928 079a AD000000 		.4byte	0xad
 2929 079e 12       		.uleb128 0x12
 2930 079f AD000000 		.4byte	0xad
 2931 07a3 12       		.uleb128 0x12
 2932 07a4 50020000 		.4byte	0x250
 2933 07a8 00       		.byte	0
 2934 07a9 18       		.uleb128 0x18
 2935 07aa 7B090000 		.4byte	.LASF131
 2936 07ae 01       		.byte	0x1
 2937 07af EF       		.byte	0xef
 2938 07b0 DD140000 		.4byte	.LASF132
 2939 07b4 AD000000 		.4byte	0xad
 2940 07b8 01       		.byte	0x1
 2941 07b9 C1070000 		.4byte	0x7c1
 2942 07bd DB070000 		.4byte	0x7db
 2943 07c1 19       		.uleb128 0x19
 2944 07c2 D10D0000 		.4byte	0xdd1
 2945 07c6 12       		.uleb128 0x12
 2946 07c7 AD000000 		.4byte	0xad
 2947 07cb 12       		.uleb128 0x12
 2948 07cc AD000000 		.4byte	0xad
 2949 07d0 12       		.uleb128 0x12
 2950 07d1 B8000000 		.4byte	0xb8
ARM GAS  C:\Users\jrdia\AppData\Local\Temp\ccJ9Fnzg.s 			page 71


 2951 07d5 12       		.uleb128 0x12
 2952 07d6 28060000 		.4byte	0x628
 2953 07da 00       		.byte	0
 2954 07db 18       		.uleb128 0x18
 2955 07dc E9130000 		.4byte	.LASF133
 2956 07e0 01       		.byte	0x1
 2957 07e1 F0       		.byte	0xf0
 2958 07e2 F6080000 		.4byte	.LASF134
 2959 07e6 AD000000 		.4byte	0xad
 2960 07ea 01       		.byte	0x1
 2961 07eb F3070000 		.4byte	0x7f3
 2962 07ef 12080000 		.4byte	0x812
 2963 07f3 19       		.uleb128 0x19
 2964 07f4 D10D0000 		.4byte	0xdd1
 2965 07f8 12       		.uleb128 0x12
 2966 07f9 AD000000 		.4byte	0xad
 2967 07fd 12       		.uleb128 0x12
 2968 07fe AD000000 		.4byte	0xad
 2969 0802 12       		.uleb128 0x12
 2970 0803 B8000000 		.4byte	0xb8
 2971 0807 12       		.uleb128 0x12
 2972 0808 AD000000 		.4byte	0xad
 2973 080c 12       		.uleb128 0x12
 2974 080d 28060000 		.4byte	0x628
 2975 0811 00       		.byte	0
 2976 0812 18       		.uleb128 0x18
 2977 0813 E9130000 		.4byte	.LASF133
 2978 0817 01       		.byte	0x1
 2979 0818 F2       		.byte	0xf2
 2980 0819 A9030000 		.4byte	.LASF135
 2981 081d AD000000 		.4byte	0xad
 2982 0821 01       		.byte	0x1
 2983 0822 2A080000 		.4byte	0x82a
 2984 0826 44080000 		.4byte	0x844
 2985 082a 19       		.uleb128 0x19
 2986 082b D10D0000 		.4byte	0xdd1
 2987 082f 12       		.uleb128 0x12
 2988 0830 AD000000 		.4byte	0xad
 2989 0834 12       		.uleb128 0x12
 2990 0835 AD000000 		.4byte	0xad
 2991 0839 12       		.uleb128 0x12
 2992 083a AD000000 		.4byte	0xad
 2993 083e 12       		.uleb128 0x12
 2994 083f E20D0000 		.4byte	0xde2
 2995 0843 00       		.byte	0
 2996 0844 18       		.uleb128 0x18
 2997 0845 710D0000 		.4byte	.LASF136
 2998 0849 01       		.byte	0x1
 2999 084a F4       		.byte	0xf4
 3000 084b A8100000 		.4byte	.LASF137
 3001 084f AD000000 		.4byte	0xad
 3002 0853 01       		.byte	0x1
 3003 0854 5C080000 		.4byte	0x85c
 3004 0858 80080000 		.4byte	0x880
 3005 085c 19       		.uleb128 0x19
 3006 085d D10D0000 		.4byte	0xdd1
 3007 0861 12       		.uleb128 0x12
ARM GAS  C:\Users\jrdia\AppData\Local\Temp\ccJ9Fnzg.s 			page 72


 3008 0862 AD000000 		.4byte	0xad
 3009 0866 12       		.uleb128 0x12
 3010 0867 AD000000 		.4byte	0xad
 3011 086b 12       		.uleb128 0x12
 3012 086c B8000000 		.4byte	0xb8
 3013 0870 12       		.uleb128 0x12
 3014 0871 AD000000 		.4byte	0xad
 3015 0875 12       		.uleb128 0x12
 3016 0876 B8000000 		.4byte	0xb8
 3017 087a 12       		.uleb128 0x12
 3018 087b 28060000 		.4byte	0x628
 3019 087f 00       		.byte	0
 3020 0880 18       		.uleb128 0x18
 3021 0881 360E0000 		.4byte	.LASF138
 3022 0885 01       		.byte	0x1
 3023 0886 F5       		.byte	0xf5
 3024 0887 0B030000 		.4byte	.LASF139
 3025 088b AD000000 		.4byte	0xad
 3026 088f 01       		.byte	0x1
 3027 0890 98080000 		.4byte	0x898
 3028 0894 AD080000 		.4byte	0x8ad
 3029 0898 19       		.uleb128 0x19
 3030 0899 D10D0000 		.4byte	0xdd1
 3031 089d 12       		.uleb128 0x12
 3032 089e AD000000 		.4byte	0xad
 3033 08a2 12       		.uleb128 0x12
 3034 08a3 AD000000 		.4byte	0xad
 3035 08a7 12       		.uleb128 0x12
 3036 08a8 AD000000 		.4byte	0xad
 3037 08ac 00       		.byte	0
 3038 08ad 18       		.uleb128 0x18
 3039 08ae 5D040000 		.4byte	.LASF140
 3040 08b2 01       		.byte	0x1
 3041 08b3 F6       		.byte	0xf6
 3042 08b4 2E050000 		.4byte	.LASF141
 3043 08b8 AD000000 		.4byte	0xad
 3044 08bc 01       		.byte	0x1
 3045 08bd C5080000 		.4byte	0x8c5
 3046 08c1 DA080000 		.4byte	0x8da
 3047 08c5 19       		.uleb128 0x19
 3048 08c6 D10D0000 		.4byte	0xdd1
 3049 08ca 12       		.uleb128 0x12
 3050 08cb AD000000 		.4byte	0xad
 3051 08cf 12       		.uleb128 0x12
 3052 08d0 AD000000 		.4byte	0xad
 3053 08d4 12       		.uleb128 0x12
 3054 08d5 AD000000 		.4byte	0xad
 3055 08d9 00       		.byte	0
 3056 08da 18       		.uleb128 0x18
 3057 08db A0020000 		.4byte	.LASF142
 3058 08df 01       		.byte	0x1
 3059 08e0 F8       		.byte	0xf8
 3060 08e1 16050000 		.4byte	.LASF143
 3061 08e5 AD000000 		.4byte	0xad
 3062 08e9 01       		.byte	0x1
 3063 08ea F2080000 		.4byte	0x8f2
 3064 08ee 11090000 		.4byte	0x911
ARM GAS  C:\Users\jrdia\AppData\Local\Temp\ccJ9Fnzg.s 			page 73


 3065 08f2 19       		.uleb128 0x19
 3066 08f3 D10D0000 		.4byte	0xdd1
 3067 08f7 12       		.uleb128 0x12
 3068 08f8 AD000000 		.4byte	0xad
 3069 08fc 12       		.uleb128 0x12
 3070 08fd AD000000 		.4byte	0xad
 3071 0901 12       		.uleb128 0x12
 3072 0902 B8000000 		.4byte	0xb8
 3073 0906 12       		.uleb128 0x12
 3074 0907 28060000 		.4byte	0x628
 3075 090b 12       		.uleb128 0x12
 3076 090c FE000000 		.4byte	0xfe
 3077 0910 00       		.byte	0
 3078 0911 18       		.uleb128 0x18
 3079 0912 D3070000 		.4byte	.LASF144
 3080 0916 01       		.byte	0x1
 3081 0917 F9       		.byte	0xf9
 3082 0918 28130000 		.4byte	.LASF145
 3083 091c AD000000 		.4byte	0xad
 3084 0920 01       		.byte	0x1
 3085 0921 29090000 		.4byte	0x929
 3086 0925 3E090000 		.4byte	0x93e
 3087 0929 19       		.uleb128 0x19
 3088 092a D10D0000 		.4byte	0xdd1
 3089 092e 12       		.uleb128 0x12
 3090 092f AD000000 		.4byte	0xad
 3091 0933 12       		.uleb128 0x12
 3092 0934 FE000000 		.4byte	0xfe
 3093 0938 12       		.uleb128 0x12
 3094 0939 B8000000 		.4byte	0xb8
 3095 093d 00       		.byte	0
 3096 093e 18       		.uleb128 0x18
 3097 093f 21110000 		.4byte	.LASF146
 3098 0943 01       		.byte	0x1
 3099 0944 FA       		.byte	0xfa
 3100 0945 06120000 		.4byte	.LASF147
 3101 0949 AD000000 		.4byte	0xad
 3102 094d 01       		.byte	0x1
 3103 094e 56090000 		.4byte	0x956
 3104 0952 75090000 		.4byte	0x975
 3105 0956 19       		.uleb128 0x19
 3106 0957 D10D0000 		.4byte	0xdd1
 3107 095b 12       		.uleb128 0x12
 3108 095c AD000000 		.4byte	0xad
 3109 0960 12       		.uleb128 0x12
 3110 0961 AD000000 		.4byte	0xad
 3111 0965 12       		.uleb128 0x12
 3112 0966 ED0D0000 		.4byte	0xded
 3113 096a 12       		.uleb128 0x12
 3114 096b 28060000 		.4byte	0x628
 3115 096f 12       		.uleb128 0x12
 3116 0970 AD000000 		.4byte	0xad
 3117 0974 00       		.byte	0
 3118 0975 18       		.uleb128 0x18
 3119 0976 6B070000 		.4byte	.LASF148
 3120 097a 01       		.byte	0x1
 3121 097b FB       		.byte	0xfb
ARM GAS  C:\Users\jrdia\AppData\Local\Temp\ccJ9Fnzg.s 			page 74


 3122 097c 5C120000 		.4byte	.LASF149
 3123 0980 AD000000 		.4byte	0xad
 3124 0984 01       		.byte	0x1
 3125 0985 8D090000 		.4byte	0x98d
 3126 0989 A7090000 		.4byte	0x9a7
 3127 098d 19       		.uleb128 0x19
 3128 098e D10D0000 		.4byte	0xdd1
 3129 0992 12       		.uleb128 0x12
 3130 0993 AD000000 		.4byte	0xad
 3131 0997 12       		.uleb128 0x12
 3132 0998 AD000000 		.4byte	0xad
 3133 099c 12       		.uleb128 0x12
 3134 099d B8000000 		.4byte	0xb8
 3135 09a1 12       		.uleb128 0x12
 3136 09a2 28060000 		.4byte	0x628
 3137 09a6 00       		.byte	0
 3138 09a7 18       		.uleb128 0x18
 3139 09a8 EC000000 		.4byte	.LASF150
 3140 09ac 01       		.byte	0x1
 3141 09ad FC       		.byte	0xfc
 3142 09ae 05070000 		.4byte	.LASF151
 3143 09b2 AD000000 		.4byte	0xad
 3144 09b6 01       		.byte	0x1
 3145 09b7 BF090000 		.4byte	0x9bf
 3146 09bb D4090000 		.4byte	0x9d4
 3147 09bf 19       		.uleb128 0x19
 3148 09c0 D10D0000 		.4byte	0xdd1
 3149 09c4 12       		.uleb128 0x12
 3150 09c5 AD000000 		.4byte	0xad
 3151 09c9 12       		.uleb128 0x12
 3152 09ca AD000000 		.4byte	0xad
 3153 09ce 12       		.uleb128 0x12
 3154 09cf B8000000 		.4byte	0xb8
 3155 09d3 00       		.byte	0
 3156 09d4 1A       		.uleb128 0x1a
 3157 09d5 80120000 		.4byte	.LASF105
 3158 09d9 01       		.byte	0x1
 3159 09da FE       		.byte	0xfe
 3160 09db 0D080000 		.4byte	.LASF152
 3161 09df 01       		.byte	0x1
 3162 09e0 E8090000 		.4byte	0x9e8
 3163 09e4 EE090000 		.4byte	0x9ee
 3164 09e8 19       		.uleb128 0x19
 3165 09e9 D10D0000 		.4byte	0xdd1
 3166 09ed 00       		.byte	0
 3167 09ee 1C       		.uleb128 0x1c
 3168 09ef 70040000 		.4byte	.LASF153
 3169 09f3 01       		.byte	0x1
 3170 09f4 0001     		.2byte	0x100
 3171 09f6 BC0C0000 		.4byte	.LASF154
 3172 09fa AD000000 		.4byte	0xad
 3173 09fe 01       		.byte	0x1
 3174 09ff 070A0000 		.4byte	0xa07
 3175 0a03 1C0A0000 		.4byte	0xa1c
 3176 0a07 19       		.uleb128 0x19
 3177 0a08 D10D0000 		.4byte	0xdd1
 3178 0a0c 12       		.uleb128 0x12
ARM GAS  C:\Users\jrdia\AppData\Local\Temp\ccJ9Fnzg.s 			page 75


 3179 0a0d AD000000 		.4byte	0xad
 3180 0a11 12       		.uleb128 0x12
 3181 0a12 AD000000 		.4byte	0xad
 3182 0a16 12       		.uleb128 0x12
 3183 0a17 FE000000 		.4byte	0xfe
 3184 0a1b 00       		.byte	0
 3185 0a1c 1C       		.uleb128 0x1c
 3186 0a1d 02110000 		.4byte	.LASF155
 3187 0a21 01       		.byte	0x1
 3188 0a22 0101     		.2byte	0x101
 3189 0a24 970E0000 		.4byte	.LASF156
 3190 0a28 AD000000 		.4byte	0xad
 3191 0a2c 01       		.byte	0x1
 3192 0a2d 350A0000 		.4byte	0xa35
 3193 0a31 4A0A0000 		.4byte	0xa4a
 3194 0a35 19       		.uleb128 0x19
 3195 0a36 D10D0000 		.4byte	0xdd1
 3196 0a3a 12       		.uleb128 0x12
 3197 0a3b AD000000 		.4byte	0xad
 3198 0a3f 12       		.uleb128 0x12
 3199 0a40 AD000000 		.4byte	0xad
 3200 0a44 12       		.uleb128 0x12
 3201 0a45 FE000000 		.4byte	0xfe
 3202 0a49 00       		.byte	0
 3203 0a4a 1C       		.uleb128 0x1c
 3204 0a4b C7010000 		.4byte	.LASF157
 3205 0a4f 01       		.byte	0x1
 3206 0a50 0201     		.2byte	0x102
 3207 0a52 250F0000 		.4byte	.LASF158
 3208 0a56 AD000000 		.4byte	0xad
 3209 0a5a 01       		.byte	0x1
 3210 0a5b 630A0000 		.4byte	0xa63
 3211 0a5f 6E0A0000 		.4byte	0xa6e
 3212 0a63 19       		.uleb128 0x19
 3213 0a64 D10D0000 		.4byte	0xdd1
 3214 0a68 12       		.uleb128 0x12
 3215 0a69 AD000000 		.4byte	0xad
 3216 0a6d 00       		.byte	0
 3217 0a6e 1C       		.uleb128 0x1c
 3218 0a6f B1110000 		.4byte	.LASF159
 3219 0a73 01       		.byte	0x1
 3220 0a74 0401     		.2byte	0x104
 3221 0a76 9A0F0000 		.4byte	.LASF160
 3222 0a7a AD000000 		.4byte	0xad
 3223 0a7e 01       		.byte	0x1
 3224 0a7f 870A0000 		.4byte	0xa87
 3225 0a83 C40A0000 		.4byte	0xac4
 3226 0a87 19       		.uleb128 0x19
 3227 0a88 D10D0000 		.4byte	0xdd1
 3228 0a8c 12       		.uleb128 0x12
 3229 0a8d AD000000 		.4byte	0xad
 3230 0a91 12       		.uleb128 0x12
 3231 0a92 AD000000 		.4byte	0xad
 3232 0a96 12       		.uleb128 0x12
 3233 0a97 AD000000 		.4byte	0xad
 3234 0a9b 12       		.uleb128 0x12
 3235 0a9c AD000000 		.4byte	0xad
ARM GAS  C:\Users\jrdia\AppData\Local\Temp\ccJ9Fnzg.s 			page 76


 3236 0aa0 12       		.uleb128 0x12
 3237 0aa1 AD000000 		.4byte	0xad
 3238 0aa5 12       		.uleb128 0x12
 3239 0aa6 AD000000 		.4byte	0xad
 3240 0aaa 12       		.uleb128 0x12
 3241 0aab B8000000 		.4byte	0xb8
 3242 0aaf 12       		.uleb128 0x12
 3243 0ab0 B8000000 		.4byte	0xb8
 3244 0ab4 12       		.uleb128 0x12
 3245 0ab5 B8000000 		.4byte	0xb8
 3246 0ab9 12       		.uleb128 0x12
 3247 0aba 28060000 		.4byte	0x628
 3248 0abe 12       		.uleb128 0x12
 3249 0abf E20D0000 		.4byte	0xde2
 3250 0ac3 00       		.byte	0
 3251 0ac4 21       		.uleb128 0x21
 3252 0ac5 C5100000 		.4byte	.LASF167
 3253 0ac9 01       		.byte	0x1
 3254 0aca 0801     		.2byte	0x108
 3255 0acc 5F000000 		.4byte	.LASF169
 3256 0ad0 D80A0000 		.4byte	0xad8
 3257 0ad4 DE0A0000 		.4byte	0xade
 3258 0ad8 19       		.uleb128 0x19
 3259 0ad9 D10D0000 		.4byte	0xdd1
 3260 0add 00       		.byte	0
 3261 0ade 22       		.uleb128 0x22
 3262 0adf 5F110000 		.4byte	.LASF161
 3263 0ae3 01       		.byte	0x1
 3264 0ae4 0901     		.2byte	0x109
 3265 0ae6 76030000 		.4byte	.LASF162
 3266 0aea AD000000 		.4byte	0xad
 3267 0aee F60A0000 		.4byte	0xaf6
 3268 0af2 100B0000 		.4byte	0xb10
 3269 0af6 19       		.uleb128 0x19
 3270 0af7 D10D0000 		.4byte	0xdd1
 3271 0afb 12       		.uleb128 0x12
 3272 0afc AD000000 		.4byte	0xad
 3273 0b00 12       		.uleb128 0x12
 3274 0b01 AD000000 		.4byte	0xad
 3275 0b05 12       		.uleb128 0x12
 3276 0b06 F30D0000 		.4byte	0xdf3
 3277 0b0a 12       		.uleb128 0x12
 3278 0b0b ED0D0000 		.4byte	0xded
 3279 0b0f 00       		.byte	0
 3280 0b10 22       		.uleb128 0x22
 3281 0b11 F6100000 		.4byte	.LASF163
 3282 0b15 01       		.byte	0x1
 3283 0b16 0A01     		.2byte	0x10a
 3284 0b18 10000000 		.4byte	.LASF164
 3285 0b1c AD000000 		.4byte	0xad
 3286 0b20 280B0000 		.4byte	0xb28
 3287 0b24 420B0000 		.4byte	0xb42
 3288 0b28 19       		.uleb128 0x19
 3289 0b29 D10D0000 		.4byte	0xdd1
 3290 0b2d 12       		.uleb128 0x12
 3291 0b2e 50020000 		.4byte	0x250
 3292 0b32 12       		.uleb128 0x12
ARM GAS  C:\Users\jrdia\AppData\Local\Temp\ccJ9Fnzg.s 			page 77


 3293 0b33 B8000000 		.4byte	0xb8
 3294 0b37 12       		.uleb128 0x12
 3295 0b38 B8000000 		.4byte	0xb8
 3296 0b3c 12       		.uleb128 0x12
 3297 0b3d 28060000 		.4byte	0x628
 3298 0b41 00       		.byte	0
 3299 0b42 22       		.uleb128 0x22
 3300 0b43 65040000 		.4byte	.LASF165
 3301 0b47 01       		.byte	0x1
 3302 0b48 0B01     		.2byte	0x10b
 3303 0b4a D50D0000 		.4byte	.LASF166
 3304 0b4e AD000000 		.4byte	0xad
 3305 0b52 5A0B0000 		.4byte	0xb5a
 3306 0b56 790B0000 		.4byte	0xb79
 3307 0b5a 19       		.uleb128 0x19
 3308 0b5b D10D0000 		.4byte	0xdd1
 3309 0b5f 12       		.uleb128 0x12
 3310 0b60 50020000 		.4byte	0x250
 3311 0b64 12       		.uleb128 0x12
 3312 0b65 B8000000 		.4byte	0xb8
 3313 0b69 12       		.uleb128 0x12
 3314 0b6a ED0D0000 		.4byte	0xded
 3315 0b6e 12       		.uleb128 0x12
 3316 0b6f 28060000 		.4byte	0x628
 3317 0b73 12       		.uleb128 0x12
 3318 0b74 AD000000 		.4byte	0xad
 3319 0b78 00       		.byte	0
 3320 0b79 23       		.uleb128 0x23
 3321 0b7a 99130000 		.4byte	.LASF168
 3322 0b7e 01       		.byte	0x1
 3323 0b7f 0C01     		.2byte	0x10c
 3324 0b81 E9120000 		.4byte	.LASF170
 3325 0b85 AD000000 		.4byte	0xad
 3326 0b89 8D0B0000 		.4byte	0xb8d
 3327 0b8d 19       		.uleb128 0x19
 3328 0b8e D10D0000 		.4byte	0xdd1
 3329 0b92 12       		.uleb128 0x12
 3330 0b93 AD000000 		.4byte	0xad
 3331 0b97 12       		.uleb128 0x12
 3332 0b98 AD000000 		.4byte	0xad
 3333 0b9c 12       		.uleb128 0x12
 3334 0b9d AD000000 		.4byte	0xad
 3335 0ba1 12       		.uleb128 0x12
 3336 0ba2 FE000000 		.4byte	0xfe
 3337 0ba6 00       		.byte	0
 3338 0ba7 00       		.byte	0
 3339 0ba8 24       		.uleb128 0x24
 3340 0ba9 D80E0000 		.4byte	.LASF283
 3341 0bad BC0B0000 		.4byte	0xbbc
 3342 0bb1 25       		.uleb128 0x25
 3343 0bb2 0E020000 		.4byte	.LASF284
 3344 0bb6 42000000 		.4byte	0x42
 3345 0bba 10       		.byte	0x10
 3346 0bbb 00       		.byte	0
 3347 0bbc 26       		.uleb128 0x26
 3348 0bbd CC0B0000 		.4byte	0xbcc
 3349 0bc1 CC0B0000 		.4byte	0xbcc
ARM GAS  C:\Users\jrdia\AppData\Local\Temp\ccJ9Fnzg.s 			page 78


 3350 0bc5 27       		.uleb128 0x27
 3351 0bc6 DB000000 		.4byte	0xdb
 3352 0bca 0F       		.byte	0xf
 3353 0bcb 00       		.byte	0
 3354 0bcc 10       		.uleb128 0x10
 3355 0bcd 04       		.byte	0x4
 3356 0bce D20B0000 		.4byte	0xbd2
 3357 0bd2 28       		.uleb128 0x28
 3358 0bd3 330A0000 		.4byte	.LASF173
 3359 0bd7 04       		.byte	0x4
 3360 0bd8 01       		.byte	0x1
 3361 0bd9 7B       		.byte	0x7b
 3362 0bda D20B0000 		.4byte	0xbd2
 3363 0bde D10D0000 		.4byte	0xdd1
 3364 0be2 29       		.uleb128 0x29
 3365 0be3 96010000 		.4byte	.LASF171
 3366 0be7 97120000 		.4byte	0x1297
 3367 0beb 00       		.byte	0
 3368 0bec 01       		.byte	0x1
 3369 0bed 2A       		.uleb128 0x2a
 3370 0bee D8130000 		.4byte	.LASF172
 3371 0bf2 820D0000 		.4byte	.LASF174
 3372 0bf6 D9000000 		.4byte	0xd9
 3373 0bfa 01       		.byte	0x1
 3374 0bfb 030C0000 		.4byte	0xc03
 3375 0bff 0E0C0000 		.4byte	0xc0e
 3376 0c03 19       		.uleb128 0x19
 3377 0c04 CC0B0000 		.4byte	0xbcc
 3378 0c08 19       		.uleb128 0x19
 3379 0c09 94000000 		.4byte	0x94
 3380 0c0d 00       		.byte	0
 3381 0c0e 2A       		.uleb128 0x2a
 3382 0c0f 330A0000 		.4byte	.LASF173
 3383 0c13 84020000 		.4byte	.LASF175
 3384 0c17 CC0B0000 		.4byte	0xbcc
 3385 0c1b 01       		.byte	0x1
 3386 0c1c 240C0000 		.4byte	0xc24
 3387 0c20 2F0C0000 		.4byte	0xc2f
 3388 0c24 19       		.uleb128 0x19
 3389 0c25 CC0B0000 		.4byte	0xbcc
 3390 0c29 12       		.uleb128 0x12
 3391 0c2a A7120000 		.4byte	0x12a7
 3392 0c2e 00       		.byte	0
 3393 0c2f 2A       		.uleb128 0x2a
 3394 0c30 330A0000 		.4byte	.LASF173
 3395 0c34 DE020000 		.4byte	.LASF176
 3396 0c38 CC0B0000 		.4byte	0xbcc
 3397 0c3c 01       		.byte	0x1
 3398 0c3d 450C0000 		.4byte	0xc45
 3399 0c41 4B0C0000 		.4byte	0xc4b
 3400 0c45 19       		.uleb128 0x19
 3401 0c46 CC0B0000 		.4byte	0xbcc
 3402 0c4a 00       		.byte	0
 3403 0c4b 2B       		.uleb128 0x2b
 3404 0c4c 650D0000 		.4byte	.LASF90
 3405 0c50 01       		.byte	0x1
 3406 0c51 7E       		.byte	0x7e
ARM GAS  C:\Users\jrdia\AppData\Local\Temp\ccJ9Fnzg.s 			page 79


 3407 0c52 F0010000 		.4byte	.LASF178
 3408 0c56 AD000000 		.4byte	0xad
 3409 0c5a 01       		.byte	0x1
 3410 0c5b 02       		.uleb128 0x2
 3411 0c5c 10       		.byte	0x10
 3412 0c5d 00       		.uleb128 0
 3413 0c5e D20B0000 		.4byte	0xbd2
 3414 0c62 01       		.byte	0x1
 3415 0c63 6B0C0000 		.4byte	0xc6b
 3416 0c67 800C0000 		.4byte	0xc80
 3417 0c6b 19       		.uleb128 0x19
 3418 0c6c CC0B0000 		.4byte	0xbcc
 3419 0c70 12       		.uleb128 0x12
 3420 0c71 AD000000 		.4byte	0xad
 3421 0c75 12       		.uleb128 0x12
 3422 0c76 AD000000 		.4byte	0xad
 3423 0c7a 12       		.uleb128 0x12
 3424 0c7b FE000000 		.4byte	0xfe
 3425 0c7f 00       		.byte	0
 3426 0c80 2B       		.uleb128 0x2b
 3427 0c81 9B040000 		.4byte	.LASF177
 3428 0c85 01       		.byte	0x1
 3429 0c86 82       		.byte	0x82
 3430 0c87 DA030000 		.4byte	.LASF179
 3431 0c8b AD000000 		.4byte	0xad
 3432 0c8f 01       		.byte	0x1
 3433 0c90 02       		.uleb128 0x2
 3434 0c91 10       		.byte	0x10
 3435 0c92 01       		.uleb128 0x1
 3436 0c93 D20B0000 		.4byte	0xbd2
 3437 0c97 01       		.byte	0x1
 3438 0c98 A00C0000 		.4byte	0xca0
 3439 0c9c B50C0000 		.4byte	0xcb5
 3440 0ca0 19       		.uleb128 0x19
 3441 0ca1 CC0B0000 		.4byte	0xbcc
 3442 0ca5 12       		.uleb128 0x12
 3443 0ca6 AD000000 		.4byte	0xad
 3444 0caa 12       		.uleb128 0x12
 3445 0cab AD000000 		.4byte	0xad
 3446 0caf 12       		.uleb128 0x12
 3447 0cb0 FE000000 		.4byte	0xfe
 3448 0cb4 00       		.byte	0
 3449 0cb5 2B       		.uleb128 0x2b
 3450 0cb6 5C0E0000 		.4byte	.LASF180
 3451 0cba 01       		.byte	0x1
 3452 0cbb 86       		.byte	0x86
 3453 0cbc 3E040000 		.4byte	.LASF181
 3454 0cc0 AD000000 		.4byte	0xad
 3455 0cc4 01       		.byte	0x1
 3456 0cc5 02       		.uleb128 0x2
 3457 0cc6 10       		.byte	0x10
 3458 0cc7 02       		.uleb128 0x2
 3459 0cc8 D20B0000 		.4byte	0xbd2
 3460 0ccc 01       		.byte	0x1
 3461 0ccd D50C0000 		.4byte	0xcd5
 3462 0cd1 DB0C0000 		.4byte	0xcdb
 3463 0cd5 19       		.uleb128 0x19
ARM GAS  C:\Users\jrdia\AppData\Local\Temp\ccJ9Fnzg.s 			page 80


 3464 0cd6 CC0B0000 		.4byte	0xbcc
 3465 0cda 00       		.byte	0
 3466 0cdb 2B       		.uleb128 0x2b
 3467 0cdc EC080000 		.4byte	.LASF182
 3468 0ce0 01       		.byte	0x1
 3469 0ce1 8A       		.byte	0x8a
 3470 0ce2 98000000 		.4byte	.LASF183
 3471 0ce6 AD000000 		.4byte	0xad
 3472 0cea 01       		.byte	0x1
 3473 0ceb 02       		.uleb128 0x2
 3474 0cec 10       		.byte	0x10
 3475 0ced 03       		.uleb128 0x3
 3476 0cee D20B0000 		.4byte	0xbd2
 3477 0cf2 01       		.byte	0x1
 3478 0cf3 FB0C0000 		.4byte	0xcfb
 3479 0cf7 010D0000 		.4byte	0xd01
 3480 0cfb 19       		.uleb128 0x19
 3481 0cfc CC0B0000 		.4byte	0xbcc
 3482 0d00 00       		.byte	0
 3483 0d01 2B       		.uleb128 0x2b
 3484 0d02 6A060000 		.4byte	.LASF184
 3485 0d06 01       		.byte	0x1
 3486 0d07 8E       		.byte	0x8e
 3487 0d08 9B070000 		.4byte	.LASF185
 3488 0d0c AD000000 		.4byte	0xad
 3489 0d10 01       		.byte	0x1
 3490 0d11 02       		.uleb128 0x2
 3491 0d12 10       		.byte	0x10
 3492 0d13 04       		.uleb128 0x4
 3493 0d14 D20B0000 		.4byte	0xbd2
 3494 0d18 01       		.byte	0x1
 3495 0d19 210D0000 		.4byte	0xd21
 3496 0d1d 270D0000 		.4byte	0xd27
 3497 0d21 19       		.uleb128 0x19
 3498 0d22 CC0B0000 		.4byte	0xbcc
 3499 0d26 00       		.byte	0
 3500 0d27 2C       		.uleb128 0x2c
 3501 0d28 E9100000 		.4byte	.LASF190
 3502 0d2c 01       		.byte	0x1
 3503 0d2d 92       		.byte	0x92
 3504 0d2e 3A110000 		.4byte	.LASF192
 3505 0d32 01       		.byte	0x1
 3506 0d33 02       		.uleb128 0x2
 3507 0d34 10       		.byte	0x10
 3508 0d35 05       		.uleb128 0x5
 3509 0d36 D20B0000 		.4byte	0xbd2
 3510 0d3a 01       		.byte	0x1
 3511 0d3b 430D0000 		.4byte	0xd43
 3512 0d3f 4E0D0000 		.4byte	0xd4e
 3513 0d43 19       		.uleb128 0x19
 3514 0d44 CC0B0000 		.4byte	0xbcc
 3515 0d48 12       		.uleb128 0x12
 3516 0d49 AD000000 		.4byte	0xad
 3517 0d4d 00       		.byte	0
 3518 0d4e 2B       		.uleb128 0x2b
 3519 0d4f FC060000 		.4byte	.LASF186
 3520 0d53 01       		.byte	0x1
ARM GAS  C:\Users\jrdia\AppData\Local\Temp\ccJ9Fnzg.s 			page 81


 3521 0d54 96       		.byte	0x96
 3522 0d55 FF0F0000 		.4byte	.LASF187
 3523 0d59 FE000000 		.4byte	0xfe
 3524 0d5d 01       		.byte	0x1
 3525 0d5e 02       		.uleb128 0x2
 3526 0d5f 10       		.byte	0x10
 3527 0d60 06       		.uleb128 0x6
 3528 0d61 D20B0000 		.4byte	0xbd2
 3529 0d65 01       		.byte	0x1
 3530 0d66 6E0D0000 		.4byte	0xd6e
 3531 0d6a 7E0D0000 		.4byte	0xd7e
 3532 0d6e 19       		.uleb128 0x19
 3533 0d6f CC0B0000 		.4byte	0xbcc
 3534 0d73 12       		.uleb128 0x12
 3535 0d74 B8000000 		.4byte	0xb8
 3536 0d78 12       		.uleb128 0x12
 3537 0d79 B8000000 		.4byte	0xb8
 3538 0d7d 00       		.byte	0
 3539 0d7e 2B       		.uleb128 0x2b
 3540 0d7f BE070000 		.4byte	.LASF188
 3541 0d83 01       		.byte	0x1
 3542 0d84 9A       		.byte	0x9a
 3543 0d85 05130000 		.4byte	.LASF189
 3544 0d89 FE000000 		.4byte	0xfe
 3545 0d8d 01       		.byte	0x1
 3546 0d8e 02       		.uleb128 0x2
 3547 0d8f 10       		.byte	0x10
 3548 0d90 07       		.uleb128 0x7
 3549 0d91 D20B0000 		.4byte	0xbd2
 3550 0d95 01       		.byte	0x1
 3551 0d96 9E0D0000 		.4byte	0xd9e
 3552 0d9a A90D0000 		.4byte	0xda9
 3553 0d9e 19       		.uleb128 0x19
 3554 0d9f CC0B0000 		.4byte	0xbcc
 3555 0da3 12       		.uleb128 0x12
 3556 0da4 AD000000 		.4byte	0xad
 3557 0da8 00       		.byte	0
 3558 0da9 2D       		.uleb128 0x2d
 3559 0daa 61010000 		.4byte	.LASF191
 3560 0dae 01       		.byte	0x1
 3561 0daf 9E       		.byte	0x9e
 3562 0db0 1C060000 		.4byte	.LASF193
 3563 0db4 FE000000 		.4byte	0xfe
 3564 0db8 01       		.byte	0x1
 3565 0db9 02       		.uleb128 0x2
 3566 0dba 10       		.byte	0x10
 3567 0dbb 08       		.uleb128 0x8
 3568 0dbc D20B0000 		.4byte	0xbd2
 3569 0dc0 01       		.byte	0x1
 3570 0dc1 C50D0000 		.4byte	0xdc5
 3571 0dc5 19       		.uleb128 0x19
 3572 0dc6 CC0B0000 		.4byte	0xbcc
 3573 0dca 12       		.uleb128 0x12
 3574 0dcb AD000000 		.4byte	0xad
 3575 0dcf 00       		.byte	0
 3576 0dd0 00       		.byte	0
 3577 0dd1 10       		.uleb128 0x10
ARM GAS  C:\Users\jrdia\AppData\Local\Temp\ccJ9Fnzg.s 			page 82


 3578 0dd2 04       		.byte	0x4
 3579 0dd3 2E060000 		.4byte	0x62e
 3580 0dd7 13       		.uleb128 0x13
 3581 0dd8 CC0F0000 		.4byte	.LASF194
 3582 0ddc 2E       		.uleb128 0x2e
 3583 0ddd 04       		.byte	0x4
 3584 0dde D70D0000 		.4byte	0xdd7
 3585 0de2 10       		.uleb128 0x10
 3586 0de3 04       		.byte	0x4
 3587 0de4 E80D0000 		.4byte	0xde8
 3588 0de8 13       		.uleb128 0x13
 3589 0de9 6C080000 		.4byte	.LASF195
 3590 0ded 10       		.uleb128 0x10
 3591 0dee 04       		.byte	0x4
 3592 0def B8000000 		.4byte	0xb8
 3593 0df3 10       		.uleb128 0x10
 3594 0df4 04       		.byte	0x4
 3595 0df5 50020000 		.4byte	0x250
 3596 0df9 08       		.uleb128 0x8
 3597 0dfa C70D0000 		.4byte	.LASF196
 3598 0dfe 07       		.byte	0x7
 3599 0dff 02       		.byte	0x2
 3600 0e00 85       		.byte	0x85
 3601 0e01 AB0E0000 		.4byte	0xeab
 3602 0e05 0A       		.uleb128 0xa
 3603 0e06 02       		.byte	0x2
 3604 0e07 02       		.byte	0x2
 3605 0e08 8A       		.byte	0x8a
 3606 0e09 680E0000 		.4byte	0xe68
 3607 0e0d 0B       		.uleb128 0xb
 3608 0e0e 98030000 		.4byte	.LASF197
 3609 0e12 02       		.byte	0x2
 3610 0e13 8B       		.byte	0x8b
 3611 0e14 B8000000 		.4byte	0xb8
 3612 0e18 02       		.byte	0x2
 3613 0e19 02       		.byte	0x2
 3614 0e1a 0E       		.byte	0xe
 3615 0e1b 00       		.byte	0
 3616 0e1c 0B       		.uleb128 0xb
 3617 0e1d 7A140000 		.4byte	.LASF198
 3618 0e21 02       		.byte	0x2
 3619 0e22 8C       		.byte	0x8c
 3620 0e23 B8000000 		.4byte	0xb8
 3621 0e27 02       		.byte	0x2
 3622 0e28 01       		.byte	0x1
 3623 0e29 0D       		.byte	0xd
 3624 0e2a 00       		.byte	0
 3625 0e2b 0B       		.uleb128 0xb
 3626 0e2c 810A0000 		.4byte	.LASF199
 3627 0e30 02       		.byte	0x2
 3628 0e31 8D       		.byte	0x8d
 3629 0e32 B8000000 		.4byte	0xb8
 3630 0e36 02       		.byte	0x2
 3631 0e37 02       		.byte	0x2
 3632 0e38 0B       		.byte	0xb
 3633 0e39 00       		.byte	0
 3634 0e3a 0B       		.uleb128 0xb
ARM GAS  C:\Users\jrdia\AppData\Local\Temp\ccJ9Fnzg.s 			page 83


 3635 0e3b 7B0F0000 		.4byte	.LASF200
 3636 0e3f 02       		.byte	0x2
 3637 0e40 8E       		.byte	0x8e
 3638 0e41 B8000000 		.4byte	0xb8
 3639 0e45 02       		.byte	0x2
 3640 0e46 02       		.byte	0x2
 3641 0e47 09       		.byte	0x9
 3642 0e48 00       		.byte	0
 3643 0e49 0B       		.uleb128 0xb
 3644 0e4a 85100000 		.4byte	.LASF201
 3645 0e4e 02       		.byte	0x2
 3646 0e4f 8F       		.byte	0x8f
 3647 0e50 B8000000 		.4byte	0xb8
 3648 0e54 02       		.byte	0x2
 3649 0e55 01       		.byte	0x1
 3650 0e56 08       		.byte	0x8
 3651 0e57 00       		.byte	0
 3652 0e58 0B       		.uleb128 0xb
 3653 0e59 800C0000 		.4byte	.LASF202
 3654 0e5d 02       		.byte	0x2
 3655 0e5e 90       		.byte	0x90
 3656 0e5f B8000000 		.4byte	0xb8
 3657 0e63 02       		.byte	0x2
 3658 0e64 08       		.byte	0x8
 3659 0e65 00       		.byte	0
 3660 0e66 00       		.byte	0
 3661 0e67 00       		.byte	0
 3662 0e68 0E       		.uleb128 0xe
 3663 0e69 52090000 		.4byte	.LASF203
 3664 0e6d 02       		.byte	0x2
 3665 0e6e 86       		.byte	0x86
 3666 0e6f AD000000 		.4byte	0xad
 3667 0e73 00       		.byte	0
 3668 0e74 0E       		.uleb128 0xe
 3669 0e75 FD070000 		.4byte	.LASF50
 3670 0e79 02       		.byte	0x2
 3671 0e7a 87       		.byte	0x87
 3672 0e7b AD000000 		.4byte	0xad
 3673 0e7f 01       		.byte	0x1
 3674 0e80 0E       		.uleb128 0xe
 3675 0e81 6F010000 		.4byte	.LASF204
 3676 0e85 02       		.byte	0x2
 3677 0e86 88       		.byte	0x88
 3678 0e87 AD000000 		.4byte	0xad
 3679 0e8b 02       		.byte	0x2
 3680 0e8c 0F       		.uleb128 0xf
 3681 0e8d 050E0000 		.4byte	0xe05
 3682 0e91 03       		.byte	0x3
 3683 0e92 0E       		.uleb128 0xe
 3684 0e93 04010000 		.4byte	.LASF205
 3685 0e97 02       		.byte	0x2
 3686 0e98 93       		.byte	0x93
 3687 0e99 AD000000 		.4byte	0xad
 3688 0e9d 05       		.byte	0x5
 3689 0e9e 0E       		.uleb128 0xe
 3690 0e9f 42060000 		.4byte	.LASF206
 3691 0ea3 02       		.byte	0x2
ARM GAS  C:\Users\jrdia\AppData\Local\Temp\ccJ9Fnzg.s 			page 84


 3692 0ea4 94       		.byte	0x94
 3693 0ea5 AD000000 		.4byte	0xad
 3694 0ea9 06       		.byte	0x6
 3695 0eaa 00       		.byte	0
 3696 0eab 08       		.uleb128 0x8
 3697 0eac 87090000 		.4byte	.LASF207
 3698 0eb0 04       		.byte	0x4
 3699 0eb1 02       		.byte	0x2
 3700 0eb2 97       		.byte	0x97
 3701 0eb3 030F0000 		.4byte	0xf03
 3702 0eb7 09       		.uleb128 0x9
 3703 0eb8 04       		.byte	0x4
 3704 0eb9 02       		.byte	0x2
 3705 0eba 99       		.byte	0x99
 3706 0ebb FC0E0000 		.4byte	0xefc
 3707 0ebf 0A       		.uleb128 0xa
 3708 0ec0 04       		.byte	0x4
 3709 0ec1 02       		.byte	0x2
 3710 0ec2 9B       		.byte	0x9b
 3711 0ec3 E00E0000 		.4byte	0xee0
 3712 0ec7 0E       		.uleb128 0xe
 3713 0ec8 85120000 		.4byte	.LASF208
 3714 0ecc 02       		.byte	0x2
 3715 0ecd 9C       		.byte	0x9c
 3716 0ece B8000000 		.4byte	0xb8
 3717 0ed2 00       		.byte	0
 3718 0ed3 0E       		.uleb128 0xe
 3719 0ed4 31110000 		.4byte	.LASF209
 3720 0ed8 02       		.byte	0x2
 3721 0ed9 9D       		.byte	0x9d
 3722 0eda B8000000 		.4byte	0xb8
 3723 0ede 02       		.byte	0x2
 3724 0edf 00       		.byte	0
 3725 0ee0 0D       		.uleb128 0xd
 3726 0ee1 BF0E0000 		.4byte	0xebf
 3727 0ee5 0C       		.uleb128 0xc
 3728 0ee6 210E0000 		.4byte	.LASF210
 3729 0eea 02       		.byte	0x2
 3730 0eeb 9F       		.byte	0x9f
 3731 0eec CE000000 		.4byte	0xce
 3732 0ef0 0C       		.uleb128 0xc
 3733 0ef1 510F0000 		.4byte	.LASF211
 3734 0ef5 02       		.byte	0x2
 3735 0ef6 A0       		.byte	0xa0
 3736 0ef7 030F0000 		.4byte	0xf03
 3737 0efb 00       		.byte	0
 3738 0efc 0F       		.uleb128 0xf
 3739 0efd B70E0000 		.4byte	0xeb7
 3740 0f01 00       		.byte	0
 3741 0f02 00       		.byte	0
 3742 0f03 26       		.uleb128 0x26
 3743 0f04 AD000000 		.4byte	0xad
 3744 0f08 130F0000 		.4byte	0xf13
 3745 0f0c 27       		.uleb128 0x27
 3746 0f0d DB000000 		.4byte	0xdb
 3747 0f11 03       		.byte	0x3
 3748 0f12 00       		.byte	0
ARM GAS  C:\Users\jrdia\AppData\Local\Temp\ccJ9Fnzg.s 			page 85


 3749 0f13 28       		.uleb128 0x28
 3750 0f14 6A0D0000 		.4byte	.LASF212
 3751 0f18 18       		.byte	0x18
 3752 0f19 02       		.byte	0x2
 3753 0f1a A4       		.byte	0xa4
 3754 0f1b D20B0000 		.4byte	0xbd2
 3755 0f1f 65120000 		.4byte	0x1265
 3756 0f23 2F       		.uleb128 0x2f
 3757 0f24 D20B0000 		.4byte	0xbd2
 3758 0f28 00       		.byte	0
 3759 0f29 17       		.uleb128 0x17
 3760 0f2a C2130000 		.4byte	.LASF214
 3761 0f2e 03       		.byte	0x3
 3762 0f2f 13       		.byte	0x13
 3763 0f30 FE000000 		.4byte	0xfe
 3764 0f34 0E       		.uleb128 0xe
 3765 0f35 7F020000 		.4byte	.LASF215
 3766 0f39 02       		.byte	0x2
 3767 0f3a A7       		.byte	0xa7
 3768 0f3b D10D0000 		.4byte	0xdd1
 3769 0f3f 04       		.byte	0x4
 3770 0f40 0E       		.uleb128 0xe
 3771 0f41 53060000 		.4byte	.LASF216
 3772 0f45 02       		.byte	0x2
 3773 0f46 A9       		.byte	0xa9
 3774 0f47 65120000 		.4byte	0x1265
 3775 0f4b 08       		.byte	0x8
 3776 0f4c 0E       		.uleb128 0xe
 3777 0f4d 75060000 		.4byte	.LASF217
 3778 0f51 02       		.byte	0x2
 3779 0f52 AB       		.byte	0xab
 3780 0f53 AD000000 		.4byte	0xad
 3781 0f57 0E       		.byte	0xe
 3782 0f58 0E       		.uleb128 0xe
 3783 0f59 6F010000 		.4byte	.LASF204
 3784 0f5d 02       		.byte	0x2
 3785 0f5e AC       		.byte	0xac
 3786 0f5f AD000000 		.4byte	0xad
 3787 0f63 0F       		.byte	0xf
 3788 0f64 0E       		.uleb128 0xe
 3789 0f65 77100000 		.4byte	.LASF218
 3790 0f69 02       		.byte	0x2
 3791 0f6a AE       		.byte	0xae
 3792 0f6b CE000000 		.4byte	0xce
 3793 0f6f 10       		.byte	0x10
 3794 0f70 0E       		.uleb128 0xe
 3795 0f71 A5140000 		.4byte	.LASF219
 3796 0f75 02       		.byte	0x2
 3797 0f76 AF       		.byte	0xaf
 3798 0f77 FE000000 		.4byte	0xfe
 3799 0f7b 14       		.byte	0x14
 3800 0f7c 2A       		.uleb128 0x2a
 3801 0f7d 6A0D0000 		.4byte	.LASF212
 3802 0f81 1F030000 		.4byte	.LASF220
 3803 0f85 75120000 		.4byte	0x1275
 3804 0f89 01       		.byte	0x1
 3805 0f8a 920F0000 		.4byte	0xf92
ARM GAS  C:\Users\jrdia\AppData\Local\Temp\ccJ9Fnzg.s 			page 86


 3806 0f8e 9D0F0000 		.4byte	0xf9d
 3807 0f92 19       		.uleb128 0x19
 3808 0f93 75120000 		.4byte	0x1275
 3809 0f97 12       		.uleb128 0x12
 3810 0f98 7B120000 		.4byte	0x127b
 3811 0f9c 00       		.byte	0
 3812 0f9d 30       		.uleb128 0x30
 3813 0f9e 82040000 		.4byte	.LASF221
 3814 0fa2 03       		.byte	0x3
 3815 0fa3 F2       		.byte	0xf2
 3816 0fa4 B9040000 		.4byte	.LASF222
 3817 0fa8 AD000000 		.4byte	0xad
 3818 0fac B40F0000 		.4byte	0xfb4
 3819 0fb0 BA0F0000 		.4byte	0xfba
 3820 0fb4 19       		.uleb128 0x19
 3821 0fb5 75120000 		.4byte	0x1275
 3822 0fb9 00       		.byte	0
 3823 0fba 22       		.uleb128 0x22
 3824 0fbb 4A030000 		.4byte	.LASF223
 3825 0fbf 03       		.byte	0x3
 3826 0fc0 4C01     		.2byte	0x14c
 3827 0fc2 39020000 		.4byte	.LASF224
 3828 0fc6 AD000000 		.4byte	0xad
 3829 0fca D20F0000 		.4byte	0xfd2
 3830 0fce E20F0000 		.4byte	0xfe2
 3831 0fd2 19       		.uleb128 0x19
 3832 0fd3 75120000 		.4byte	0x1275
 3833 0fd7 12       		.uleb128 0x12
 3834 0fd8 AD000000 		.4byte	0xad
 3835 0fdc 12       		.uleb128 0x12
 3836 0fdd 86120000 		.4byte	0x1286
 3837 0fe1 00       		.byte	0
 3838 0fe2 18       		.uleb128 0x18
 3839 0fe3 6A0D0000 		.4byte	.LASF212
 3840 0fe7 03       		.byte	0x3
 3841 0fe8 15       		.byte	0x15
 3842 0fe9 83010000 		.4byte	.LASF225
 3843 0fed 75120000 		.4byte	0x1275
 3844 0ff1 01       		.byte	0x1
 3845 0ff2 FA0F0000 		.4byte	0xffa
 3846 0ff6 05100000 		.4byte	0x1005
 3847 0ffa 19       		.uleb128 0x19
 3848 0ffb 75120000 		.4byte	0x1275
 3849 0fff 12       		.uleb128 0x12
 3850 1000 D10D0000 		.4byte	0xdd1
 3851 1004 00       		.byte	0
 3852 1005 18       		.uleb128 0x18
 3853 1006 BB080000 		.4byte	.LASF226
 3854 100a 02       		.byte	0x2
 3855 100b D3       		.byte	0xd3
 3856 100c 3E0E0000 		.4byte	.LASF227
 3857 1010 AD000000 		.4byte	0xad
 3858 1014 01       		.byte	0x1
 3859 1015 1D100000 		.4byte	0x101d
 3860 1019 28100000 		.4byte	0x1028
 3861 101d 19       		.uleb128 0x19
 3862 101e 75120000 		.4byte	0x1275
ARM GAS  C:\Users\jrdia\AppData\Local\Temp\ccJ9Fnzg.s 			page 87


 3863 1022 12       		.uleb128 0x12
 3864 1023 AD000000 		.4byte	0xad
 3865 1027 00       		.byte	0
 3866 1028 18       		.uleb128 0x18
 3867 1029 860E0000 		.4byte	.LASF228
 3868 102d 02       		.byte	0x2
 3869 102e D8       		.byte	0xd8
 3870 102f 40010000 		.4byte	.LASF229
 3871 1033 AD000000 		.4byte	0xad
 3872 1037 01       		.byte	0x1
 3873 1038 40100000 		.4byte	0x1040
 3874 103c 55100000 		.4byte	0x1055
 3875 1040 19       		.uleb128 0x19
 3876 1041 75120000 		.4byte	0x1275
 3877 1045 12       		.uleb128 0x12
 3878 1046 AD000000 		.4byte	0xad
 3879 104a 12       		.uleb128 0x12
 3880 104b AD000000 		.4byte	0xad
 3881 104f 12       		.uleb128 0x12
 3882 1050 AD000000 		.4byte	0xad
 3883 1054 00       		.byte	0
 3884 1055 18       		.uleb128 0x18
 3885 1056 670B0000 		.4byte	.LASF230
 3886 105a 02       		.byte	0x2
 3887 105b DD       		.byte	0xdd
 3888 105c 8F110000 		.4byte	.LASF231
 3889 1060 AD000000 		.4byte	0xad
 3890 1064 01       		.byte	0x1
 3891 1065 6D100000 		.4byte	0x106d
 3892 1069 82100000 		.4byte	0x1082
 3893 106d 19       		.uleb128 0x19
 3894 106e 75120000 		.4byte	0x1275
 3895 1072 12       		.uleb128 0x12
 3896 1073 AD000000 		.4byte	0xad
 3897 1077 12       		.uleb128 0x12
 3898 1078 B8000000 		.4byte	0xb8
 3899 107c 12       		.uleb128 0x12
 3900 107d 28060000 		.4byte	0x628
 3901 1081 00       		.byte	0
 3902 1082 18       		.uleb128 0x18
 3903 1083 2E0B0000 		.4byte	.LASF232
 3904 1087 02       		.byte	0x2
 3905 1088 E2       		.byte	0xe2
 3906 1089 3F0D0000 		.4byte	.LASF233
 3907 108d AD000000 		.4byte	0xad
 3908 1091 01       		.byte	0x1
 3909 1092 9A100000 		.4byte	0x109a
 3910 1096 AA100000 		.4byte	0x10aa
 3911 109a 19       		.uleb128 0x19
 3912 109b 75120000 		.4byte	0x1275
 3913 109f 12       		.uleb128 0x12
 3914 10a0 B8000000 		.4byte	0xb8
 3915 10a4 12       		.uleb128 0x12
 3916 10a5 28060000 		.4byte	0x628
 3917 10a9 00       		.byte	0
 3918 10aa 18       		.uleb128 0x18
 3919 10ab E9070000 		.4byte	.LASF234
ARM GAS  C:\Users\jrdia\AppData\Local\Temp\ccJ9Fnzg.s 			page 88


 3920 10af 02       		.byte	0x2
 3921 10b0 E7       		.byte	0xe7
 3922 10b1 BC090000 		.4byte	.LASF235
 3923 10b5 AD000000 		.4byte	0xad
 3924 10b9 01       		.byte	0x1
 3925 10ba C2100000 		.4byte	0x10c2
 3926 10be D7100000 		.4byte	0x10d7
 3927 10c2 19       		.uleb128 0x19
 3928 10c3 75120000 		.4byte	0x1275
 3929 10c7 12       		.uleb128 0x12
 3930 10c8 AD000000 		.4byte	0xad
 3931 10cc 12       		.uleb128 0x12
 3932 10cd B8000000 		.4byte	0xb8
 3933 10d1 12       		.uleb128 0x12
 3934 10d2 28060000 		.4byte	0x628
 3935 10d6 00       		.byte	0
 3936 10d7 18       		.uleb128 0x18
 3937 10d8 780B0000 		.4byte	.LASF236
 3938 10dc 02       		.byte	0x2
 3939 10dd EC       		.byte	0xec
 3940 10de 640E0000 		.4byte	.LASF237
 3941 10e2 AD000000 		.4byte	0xad
 3942 10e6 01       		.byte	0x1
 3943 10e7 EF100000 		.4byte	0x10ef
 3944 10eb 04110000 		.4byte	0x1104
 3945 10ef 19       		.uleb128 0x19
 3946 10f0 75120000 		.4byte	0x1275
 3947 10f4 12       		.uleb128 0x12
 3948 10f5 AD000000 		.4byte	0xad
 3949 10f9 12       		.uleb128 0x12
 3950 10fa B8000000 		.4byte	0xb8
 3951 10fe 12       		.uleb128 0x12
 3952 10ff 28060000 		.4byte	0x628
 3953 1103 00       		.byte	0
 3954 1104 18       		.uleb128 0x18
 3955 1105 BC000000 		.4byte	.LASF238
 3956 1109 02       		.byte	0x2
 3957 110a F1       		.byte	0xf1
 3958 110b 43000000 		.4byte	.LASF239
 3959 110f AD000000 		.4byte	0xad
 3960 1113 01       		.byte	0x1
 3961 1114 1C110000 		.4byte	0x111c
 3962 1118 27110000 		.4byte	0x1127
 3963 111c 19       		.uleb128 0x19
 3964 111d 75120000 		.4byte	0x1275
 3965 1121 12       		.uleb128 0x12
 3966 1122 AD000000 		.4byte	0xad
 3967 1126 00       		.byte	0
 3968 1127 18       		.uleb128 0x18
 3969 1128 590F0000 		.4byte	.LASF240
 3970 112c 02       		.byte	0x2
 3971 112d F6       		.byte	0xf6
 3972 112e CA100000 		.4byte	.LASF241
 3973 1132 AD000000 		.4byte	0xad
 3974 1136 01       		.byte	0x1
 3975 1137 3F110000 		.4byte	0x113f
 3976 113b 54110000 		.4byte	0x1154
ARM GAS  C:\Users\jrdia\AppData\Local\Temp\ccJ9Fnzg.s 			page 89


 3977 113f 19       		.uleb128 0x19
 3978 1140 75120000 		.4byte	0x1275
 3979 1144 12       		.uleb128 0x12
 3980 1145 AD000000 		.4byte	0xad
 3981 1149 12       		.uleb128 0x12
 3982 114a AD000000 		.4byte	0xad
 3983 114e 12       		.uleb128 0x12
 3984 114f AD000000 		.4byte	0xad
 3985 1153 00       		.byte	0
 3986 1154 1A       		.uleb128 0x1a
 3987 1155 AD090000 		.4byte	.LASF242
 3988 1159 02       		.byte	0x2
 3989 115a C0       		.byte	0xc0
 3990 115b 23010000 		.4byte	.LASF243
 3991 115f 01       		.byte	0x1
 3992 1160 68110000 		.4byte	0x1168
 3993 1164 6E110000 		.4byte	0x116e
 3994 1168 19       		.uleb128 0x19
 3995 1169 75120000 		.4byte	0x1275
 3996 116d 00       		.byte	0
 3997 116e 2B       		.uleb128 0x2b
 3998 116f 650D0000 		.4byte	.LASF90
 3999 1173 03       		.byte	0x3
 4000 1174 2C       		.byte	0x2c
 4001 1175 B3010000 		.4byte	.LASF244
 4002 1179 AD000000 		.4byte	0xad
 4003 117d 01       		.byte	0x1
 4004 117e 02       		.uleb128 0x2
 4005 117f 10       		.byte	0x10
 4006 1180 00       		.uleb128 0
 4007 1181 130F0000 		.4byte	0xf13
 4008 1185 01       		.byte	0x1
 4009 1186 8E110000 		.4byte	0x118e
 4010 118a A3110000 		.4byte	0x11a3
 4011 118e 19       		.uleb128 0x19
 4012 118f 75120000 		.4byte	0x1275
 4013 1193 12       		.uleb128 0x12
 4014 1194 AD000000 		.4byte	0xad
 4015 1198 12       		.uleb128 0x12
 4016 1199 AD000000 		.4byte	0xad
 4017 119d 12       		.uleb128 0x12
 4018 119e FE000000 		.4byte	0xfe
 4019 11a2 00       		.byte	0
 4020 11a3 2B       		.uleb128 0x2b
 4021 11a4 5C0E0000 		.4byte	.LASF180
 4022 11a8 03       		.byte	0x3
 4023 11a9 D8       		.byte	0xd8
 4024 11aa 74130000 		.4byte	.LASF245
 4025 11ae AD000000 		.4byte	0xad
 4026 11b2 01       		.byte	0x1
 4027 11b3 02       		.uleb128 0x2
 4028 11b4 10       		.byte	0x10
 4029 11b5 02       		.uleb128 0x2
 4030 11b6 130F0000 		.4byte	0xf13
 4031 11ba 01       		.byte	0x1
 4032 11bb C3110000 		.4byte	0x11c3
 4033 11bf C9110000 		.4byte	0x11c9
ARM GAS  C:\Users\jrdia\AppData\Local\Temp\ccJ9Fnzg.s 			page 90


 4034 11c3 19       		.uleb128 0x19
 4035 11c4 75120000 		.4byte	0x1275
 4036 11c8 00       		.byte	0
 4037 11c9 2B       		.uleb128 0x2b
 4038 11ca EC080000 		.4byte	.LASF182
 4039 11ce 03       		.byte	0x3
 4040 11cf E5       		.byte	0xe5
 4041 11d0 DA000000 		.4byte	.LASF246
 4042 11d4 AD000000 		.4byte	0xad
 4043 11d8 01       		.byte	0x1
 4044 11d9 02       		.uleb128 0x2
 4045 11da 10       		.byte	0x10
 4046 11db 03       		.uleb128 0x3
 4047 11dc 130F0000 		.4byte	0xf13
 4048 11e0 01       		.byte	0x1
 4049 11e1 E9110000 		.4byte	0x11e9
 4050 11e5 EF110000 		.4byte	0x11ef
 4051 11e9 19       		.uleb128 0x19
 4052 11ea 75120000 		.4byte	0x1275
 4053 11ee 00       		.byte	0
 4054 11ef 31       		.uleb128 0x31
 4055 11f0 E9100000 		.4byte	.LASF190
 4056 11f4 03       		.byte	0x3
 4057 11f5 3501     		.2byte	0x135
 4058 11f7 B1140000 		.4byte	.LASF285
 4059 11fb 01       		.byte	0x1
 4060 11fc 02       		.uleb128 0x2
 4061 11fd 10       		.byte	0x10
 4062 11fe 05       		.uleb128 0x5
 4063 11ff 130F0000 		.4byte	0xf13
 4064 1203 01       		.byte	0x1
 4065 1204 0C120000 		.4byte	0x120c
 4066 1208 17120000 		.4byte	0x1217
 4067 120c 19       		.uleb128 0x19
 4068 120d 75120000 		.4byte	0x1275
 4069 1211 12       		.uleb128 0x12
 4070 1212 AD000000 		.4byte	0xad
 4071 1216 00       		.byte	0
 4072 1217 2B       		.uleb128 0x2b
 4073 1218 6A060000 		.4byte	.LASF184
 4074 121c 02       		.byte	0x2
 4075 121d C7       		.byte	0xc7
 4076 121e D3080000 		.4byte	.LASF247
 4077 1222 AD000000 		.4byte	0xad
 4078 1226 01       		.byte	0x1
 4079 1227 02       		.uleb128 0x2
 4080 1228 10       		.byte	0x10
 4081 1229 04       		.uleb128 0x4
 4082 122a 130F0000 		.4byte	0xf13
 4083 122e 01       		.byte	0x1
 4084 122f 37120000 		.4byte	0x1237
 4085 1233 3D120000 		.4byte	0x123d
 4086 1237 19       		.uleb128 0x19
 4087 1238 75120000 		.4byte	0x1275
 4088 123c 00       		.byte	0
 4089 123d 2D       		.uleb128 0x2d
 4090 123e BE070000 		.4byte	.LASF188
ARM GAS  C:\Users\jrdia\AppData\Local\Temp\ccJ9Fnzg.s 			page 91


 4091 1242 02       		.byte	0x2
 4092 1243 CB       		.byte	0xcb
 4093 1244 19140000 		.4byte	.LASF248
 4094 1248 FE000000 		.4byte	0xfe
 4095 124c 01       		.byte	0x1
 4096 124d 02       		.uleb128 0x2
 4097 124e 10       		.byte	0x10
 4098 124f 07       		.uleb128 0x7
 4099 1250 130F0000 		.4byte	0xf13
 4100 1254 01       		.byte	0x1
 4101 1255 59120000 		.4byte	0x1259
 4102 1259 19       		.uleb128 0x19
 4103 125a 75120000 		.4byte	0x1275
 4104 125e 12       		.uleb128 0x12
 4105 125f AD000000 		.4byte	0xad
 4106 1263 00       		.byte	0
 4107 1264 00       		.byte	0
 4108 1265 26       		.uleb128 0x26
 4109 1266 28010000 		.4byte	0x128
 4110 126a 75120000 		.4byte	0x1275
 4111 126e 27       		.uleb128 0x27
 4112 126f DB000000 		.4byte	0xdb
 4113 1273 01       		.byte	0x1
 4114 1274 00       		.byte	0
 4115 1275 10       		.uleb128 0x10
 4116 1276 04       		.byte	0x4
 4117 1277 130F0000 		.4byte	0xf13
 4118 127b 2E       		.uleb128 0x2e
 4119 127c 04       		.byte	0x4
 4120 127d 81120000 		.4byte	0x1281
 4121 1281 32       		.uleb128 0x32
 4122 1282 130F0000 		.4byte	0xf13
 4123 1286 2E       		.uleb128 0x2e
 4124 1287 04       		.byte	0x4
 4125 1288 AB0E0000 		.4byte	0xeab
 4126 128c 33       		.uleb128 0x33
 4127 128d 94000000 		.4byte	0x94
 4128 1291 97120000 		.4byte	0x1297
 4129 1295 34       		.uleb128 0x34
 4130 1296 00       		.byte	0
 4131 1297 10       		.uleb128 0x10
 4132 1298 04       		.byte	0x4
 4133 1299 9D120000 		.4byte	0x129d
 4134 129d 35       		.uleb128 0x35
 4135 129e 04       		.byte	0x4
 4136 129f 13010000 		.4byte	.LASF286
 4137 12a3 8C120000 		.4byte	0x128c
 4138 12a7 2E       		.uleb128 0x2e
 4139 12a8 04       		.byte	0x4
 4140 12a9 AD120000 		.4byte	0x12ad
 4141 12ad 32       		.uleb128 0x32
 4142 12ae D20B0000 		.4byte	0xbd2
 4143 12b2 36       		.uleb128 0x36
 4144 12b3 83060000 		.4byte	0x683
 4145 12b7 03       		.byte	0x3
 4146 12b8 C0120000 		.4byte	0x12c0
 4147 12bc CA120000 		.4byte	0x12ca
ARM GAS  C:\Users\jrdia\AppData\Local\Temp\ccJ9Fnzg.s 			page 92


 4148 12c0 37       		.uleb128 0x37
 4149 12c1 F1080000 		.4byte	.LASF249
 4150 12c5 CA120000 		.4byte	0x12ca
 4151 12c9 00       		.byte	0
 4152 12ca 32       		.uleb128 0x32
 4153 12cb D10D0000 		.4byte	0xdd1
 4154 12cf 36       		.uleb128 0x36
 4155 12d0 B7060000 		.4byte	0x6b7
 4156 12d4 03       		.byte	0x3
 4157 12d5 DD120000 		.4byte	0x12dd
 4158 12d9 E7120000 		.4byte	0x12e7
 4159 12dd 37       		.uleb128 0x37
 4160 12de F1080000 		.4byte	.LASF249
 4161 12e2 CA120000 		.4byte	0x12ca
 4162 12e6 00       		.byte	0
 4163 12e7 36       		.uleb128 0x36
 4164 12e8 28100000 		.4byte	0x1028
 4165 12ec 03       		.byte	0x3
 4166 12ed F5120000 		.4byte	0x12f5
 4167 12f1 20130000 		.4byte	0x1320
 4168 12f5 37       		.uleb128 0x37
 4169 12f6 F1080000 		.4byte	.LASF249
 4170 12fa 20130000 		.4byte	0x1320
 4171 12fe 38       		.uleb128 0x38
 4172 12ff 66696400 		.ascii	"fid\000"
 4173 1303 02       		.byte	0x2
 4174 1304 D8       		.byte	0xd8
 4175 1305 AD000000 		.4byte	0xad
 4176 1309 39       		.uleb128 0x39
 4177 130a 2C110000 		.4byte	.LASF250
 4178 130e 02       		.byte	0x2
 4179 130f D8       		.byte	0xd8
 4180 1310 AD000000 		.4byte	0xad
 4181 1314 38       		.uleb128 0x38
 4182 1315 73656C00 		.ascii	"sel\000"
 4183 1319 02       		.byte	0x2
 4184 131a D8       		.byte	0xd8
 4185 131b AD000000 		.4byte	0xad
 4186 131f 00       		.byte	0
 4187 1320 32       		.uleb128 0x32
 4188 1321 75120000 		.4byte	0x1275
 4189 1325 36       		.uleb128 0x36
 4190 1326 55100000 		.4byte	0x1055
 4191 132a 03       		.byte	0x3
 4192 132b 33130000 		.4byte	0x1333
 4193 132f 5E130000 		.4byte	0x135e
 4194 1333 37       		.uleb128 0x37
 4195 1334 F1080000 		.4byte	.LASF249
 4196 1338 20130000 		.4byte	0x1320
 4197 133c 39       		.uleb128 0x39
 4198 133d F7070000 		.4byte	.LASF251
 4199 1341 02       		.byte	0x2
 4200 1342 DD       		.byte	0xdd
 4201 1343 AD000000 		.4byte	0xad
 4202 1347 39       		.uleb128 0x39
 4203 1348 AC010000 		.4byte	.LASF252
 4204 134c 02       		.byte	0x2
ARM GAS  C:\Users\jrdia\AppData\Local\Temp\ccJ9Fnzg.s 			page 93


 4205 134d DD       		.byte	0xdd
 4206 134e B8000000 		.4byte	0xb8
 4207 1352 39       		.uleb128 0x39
 4208 1353 58130000 		.4byte	.LASF253
 4209 1357 02       		.byte	0x2
 4210 1358 DD       		.byte	0xdd
 4211 1359 28060000 		.4byte	0x628
 4212 135d 00       		.byte	0
 4213 135e 36       		.uleb128 0x36
 4214 135f AA100000 		.4byte	0x10aa
 4215 1363 03       		.byte	0x3
 4216 1364 6C130000 		.4byte	0x136c
 4217 1368 97130000 		.4byte	0x1397
 4218 136c 37       		.uleb128 0x37
 4219 136d F1080000 		.4byte	.LASF249
 4220 1371 20130000 		.4byte	0x1320
 4221 1375 39       		.uleb128 0x39
 4222 1376 2C110000 		.4byte	.LASF250
 4223 137a 02       		.byte	0x2
 4224 137b E7       		.byte	0xe7
 4225 137c AD000000 		.4byte	0xad
 4226 1380 39       		.uleb128 0x39
 4227 1381 AC010000 		.4byte	.LASF252
 4228 1385 02       		.byte	0x2
 4229 1386 E7       		.byte	0xe7
 4230 1387 B8000000 		.4byte	0xb8
 4231 138b 39       		.uleb128 0x39
 4232 138c 58130000 		.4byte	.LASF253
 4233 1390 02       		.byte	0x2
 4234 1391 E7       		.byte	0xe7
 4235 1392 28060000 		.4byte	0x628
 4236 1396 00       		.byte	0
 4237 1397 36       		.uleb128 0x36
 4238 1398 27110000 		.4byte	0x1127
 4239 139c 03       		.byte	0x3
 4240 139d A5130000 		.4byte	0x13a5
 4241 13a1 D0130000 		.4byte	0x13d0
 4242 13a5 37       		.uleb128 0x37
 4243 13a6 F1080000 		.4byte	.LASF249
 4244 13aa 20130000 		.4byte	0x1320
 4245 13ae 38       		.uleb128 0x38
 4246 13af 66696400 		.ascii	"fid\000"
 4247 13b3 02       		.byte	0x2
 4248 13b4 F6       		.byte	0xf6
 4249 13b5 AD000000 		.4byte	0xad
 4250 13b9 39       		.uleb128 0x39
 4251 13ba 2C110000 		.4byte	.LASF250
 4252 13be 02       		.byte	0x2
 4253 13bf F6       		.byte	0xf6
 4254 13c0 AD000000 		.4byte	0xad
 4255 13c4 38       		.uleb128 0x38
 4256 13c5 73656C00 		.ascii	"sel\000"
 4257 13c9 02       		.byte	0x2
 4258 13ca F6       		.byte	0xf6
 4259 13cb AD000000 		.4byte	0xad
 4260 13cf 00       		.byte	0
 4261 13d0 3A       		.uleb128 0x3a
ARM GAS  C:\Users\jrdia\AppData\Local\Temp\ccJ9Fnzg.s 			page 94


 4262 13d1 2F0C0000 		.4byte	0xc2f
 4263 13d5 01       		.byte	0x1
 4264 13d6 7B       		.byte	0x7b
 4265 13d7 03       		.byte	0x3
 4266 13d8 E0130000 		.4byte	0x13e0
 4267 13dc EA130000 		.4byte	0x13ea
 4268 13e0 37       		.uleb128 0x37
 4269 13e1 F1080000 		.4byte	.LASF249
 4270 13e5 EA130000 		.4byte	0x13ea
 4271 13e9 00       		.byte	0
 4272 13ea 32       		.uleb128 0x32
 4273 13eb CC0B0000 		.4byte	0xbcc
 4274 13ef 36       		.uleb128 0x36
 4275 13f0 D5060000 		.4byte	0x6d5
 4276 13f4 03       		.byte	0x3
 4277 13f5 FD130000 		.4byte	0x13fd
 4278 13f9 1D140000 		.4byte	0x141d
 4279 13fd 37       		.uleb128 0x37
 4280 13fe F1080000 		.4byte	.LASF249
 4281 1402 CA120000 		.4byte	0x12ca
 4282 1406 39       		.uleb128 0x39
 4283 1407 71030000 		.4byte	.LASF254
 4284 140b 01       		.byte	0x1
 4285 140c DB       		.byte	0xdb
 4286 140d CC0B0000 		.4byte	0xbcc
 4287 1411 3B       		.uleb128 0x3b
 4288 1412 3C       		.uleb128 0x3c
 4289 1413 6900     		.ascii	"i\000"
 4290 1415 01       		.byte	0x1
 4291 1416 DC       		.byte	0xdc
 4292 1417 AD000000 		.4byte	0xad
 4293 141b 00       		.byte	0
 4294 141c 00       		.byte	0
 4295 141d 36       		.uleb128 0x36
 4296 141e C9110000 		.4byte	0x11c9
 4297 1422 01       		.byte	0x1
 4298 1423 2B140000 		.4byte	0x142b
 4299 1427 40140000 		.4byte	0x1440
 4300 142b 37       		.uleb128 0x37
 4301 142c F1080000 		.4byte	.LASF249
 4302 1430 20130000 		.4byte	0x1320
 4303 1434 3D       		.uleb128 0x3d
 4304 1435 09140000 		.4byte	.LASF255
 4305 1439 03       		.byte	0x3
 4306 143a E6       		.byte	0xe6
 4307 143b AD000000 		.4byte	0xad
 4308 143f 00       		.byte	0
 4309 1440 3E       		.uleb128 0x3e
 4310 1441 4B0C0000 		.4byte	0xc4b
 4311 1445 00000000 		.4byte	.LFB179
 4312 1449 04000000 		.4byte	.LFE179-.LFB179
 4313 144d 01       		.uleb128 0x1
 4314 144e 9C       		.byte	0x9c
 4315 144f 57140000 		.4byte	0x1457
 4316 1453 8C140000 		.4byte	0x148c
 4317 1457 3F       		.uleb128 0x3f
 4318 1458 F1080000 		.4byte	.LASF249
ARM GAS  C:\Users\jrdia\AppData\Local\Temp\ccJ9Fnzg.s 			page 95


 4319 145c EA130000 		.4byte	0x13ea
 4320 1460 00000000 		.4byte	.LLST0
 4321 1464 40       		.uleb128 0x40
 4322 1465 BE0A0000 		.4byte	.LASF256
 4323 1469 01       		.byte	0x1
 4324 146a 7E       		.byte	0x7e
 4325 146b AD000000 		.4byte	0xad
 4326 146f 01       		.uleb128 0x1
 4327 1470 51       		.byte	0x51
 4328 1471 40       		.uleb128 0x40
 4329 1472 2C110000 		.4byte	.LASF250
 4330 1476 01       		.byte	0x1
 4331 1477 7E       		.byte	0x7e
 4332 1478 AD000000 		.4byte	0xad
 4333 147c 01       		.uleb128 0x1
 4334 147d 52       		.byte	0x52
 4335 147e 40       		.uleb128 0x40
 4336 147f 62020000 		.4byte	.LASF45
 4337 1483 01       		.byte	0x1
 4338 1484 7E       		.byte	0x7e
 4339 1485 FE000000 		.4byte	0xfe
 4340 1489 01       		.uleb128 0x1
 4341 148a 53       		.byte	0x53
 4342 148b 00       		.byte	0
 4343 148c 3E       		.uleb128 0x3e
 4344 148d 800C0000 		.4byte	0xc80
 4345 1491 00000000 		.4byte	.LFB180
 4346 1495 04000000 		.4byte	.LFE180-.LFB180
 4347 1499 01       		.uleb128 0x1
 4348 149a 9C       		.byte	0x9c
 4349 149b A3140000 		.4byte	0x14a3
 4350 149f D8140000 		.4byte	0x14d8
 4351 14a3 3F       		.uleb128 0x3f
 4352 14a4 F1080000 		.4byte	.LASF249
 4353 14a8 EA130000 		.4byte	0x13ea
 4354 14ac 21000000 		.4byte	.LLST1
 4355 14b0 40       		.uleb128 0x40
 4356 14b1 BE0A0000 		.4byte	.LASF256
 4357 14b5 01       		.byte	0x1
 4358 14b6 82       		.byte	0x82
 4359 14b7 AD000000 		.4byte	0xad
 4360 14bb 01       		.uleb128 0x1
 4361 14bc 51       		.byte	0x51
 4362 14bd 40       		.uleb128 0x40
 4363 14be 2C110000 		.4byte	.LASF250
 4364 14c2 01       		.byte	0x1
 4365 14c3 82       		.byte	0x82
 4366 14c4 AD000000 		.4byte	0xad
 4367 14c8 01       		.uleb128 0x1
 4368 14c9 52       		.byte	0x52
 4369 14ca 40       		.uleb128 0x40
 4370 14cb 62020000 		.4byte	.LASF45
 4371 14cf 01       		.byte	0x1
 4372 14d0 82       		.byte	0x82
 4373 14d1 FE000000 		.4byte	0xfe
 4374 14d5 01       		.uleb128 0x1
 4375 14d6 53       		.byte	0x53
ARM GAS  C:\Users\jrdia\AppData\Local\Temp\ccJ9Fnzg.s 			page 96


 4376 14d7 00       		.byte	0
 4377 14d8 3E       		.uleb128 0x3e
 4378 14d9 B50C0000 		.4byte	0xcb5
 4379 14dd 00000000 		.4byte	.LFB181
 4380 14e1 04000000 		.4byte	.LFE181-.LFB181
 4381 14e5 01       		.uleb128 0x1
 4382 14e6 9C       		.byte	0x9c
 4383 14e7 EF140000 		.4byte	0x14ef
 4384 14eb FD140000 		.4byte	0x14fd
 4385 14ef 3F       		.uleb128 0x3f
 4386 14f0 F1080000 		.4byte	.LASF249
 4387 14f4 EA130000 		.4byte	0x13ea
 4388 14f8 42000000 		.4byte	.LLST2
 4389 14fc 00       		.byte	0
 4390 14fd 3E       		.uleb128 0x3e
 4391 14fe DB0C0000 		.4byte	0xcdb
 4392 1502 00000000 		.4byte	.LFB182
 4393 1506 04000000 		.4byte	.LFE182-.LFB182
 4394 150a 01       		.uleb128 0x1
 4395 150b 9C       		.byte	0x9c
 4396 150c 14150000 		.4byte	0x1514
 4397 1510 22150000 		.4byte	0x1522
 4398 1514 3F       		.uleb128 0x3f
 4399 1515 F1080000 		.4byte	.LASF249
 4400 1519 EA130000 		.4byte	0x13ea
 4401 151d 63000000 		.4byte	.LLST3
 4402 1521 00       		.byte	0
 4403 1522 3E       		.uleb128 0x3e
 4404 1523 010D0000 		.4byte	0xd01
 4405 1527 00000000 		.4byte	.LFB183
 4406 152b 04000000 		.4byte	.LFE183-.LFB183
 4407 152f 01       		.uleb128 0x1
 4408 1530 9C       		.byte	0x9c
 4409 1531 39150000 		.4byte	0x1539
 4410 1535 47150000 		.4byte	0x1547
 4411 1539 3F       		.uleb128 0x3f
 4412 153a F1080000 		.4byte	.LASF249
 4413 153e EA130000 		.4byte	0x13ea
 4414 1542 84000000 		.4byte	.LLST4
 4415 1546 00       		.byte	0
 4416 1547 3E       		.uleb128 0x3e
 4417 1548 270D0000 		.4byte	0xd27
 4418 154c 00000000 		.4byte	.LFB184
 4419 1550 02000000 		.4byte	.LFE184-.LFB184
 4420 1554 01       		.uleb128 0x1
 4421 1555 9C       		.byte	0x9c
 4422 1556 5E150000 		.4byte	0x155e
 4423 155a 77150000 		.4byte	0x1577
 4424 155e 41       		.uleb128 0x41
 4425 155f F1080000 		.4byte	.LASF249
 4426 1563 EA130000 		.4byte	0x13ea
 4427 1567 01       		.uleb128 0x1
 4428 1568 50       		.byte	0x50
 4429 1569 40       		.uleb128 0x40
 4430 156a 2C110000 		.4byte	.LASF250
 4431 156e 01       		.byte	0x1
 4432 156f 92       		.byte	0x92
ARM GAS  C:\Users\jrdia\AppData\Local\Temp\ccJ9Fnzg.s 			page 97


 4433 1570 AD000000 		.4byte	0xad
 4434 1574 01       		.uleb128 0x1
 4435 1575 51       		.byte	0x51
 4436 1576 00       		.byte	0
 4437 1577 3E       		.uleb128 0x3e
 4438 1578 4E0D0000 		.4byte	0xd4e
 4439 157c 00000000 		.4byte	.LFB185
 4440 1580 04000000 		.4byte	.LFE185-.LFB185
 4441 1584 01       		.uleb128 0x1
 4442 1585 9C       		.byte	0x9c
 4443 1586 8E150000 		.4byte	0x158e
 4444 158a B6150000 		.4byte	0x15b6
 4445 158e 3F       		.uleb128 0x3f
 4446 158f F1080000 		.4byte	.LASF249
 4447 1593 EA130000 		.4byte	0x13ea
 4448 1597 A5000000 		.4byte	.LLST5
 4449 159b 42       		.uleb128 0x42
 4450 159c 76696400 		.ascii	"vid\000"
 4451 15a0 01       		.byte	0x1
 4452 15a1 96       		.byte	0x96
 4453 15a2 B8000000 		.4byte	0xb8
 4454 15a6 01       		.uleb128 0x1
 4455 15a7 51       		.byte	0x51
 4456 15a8 42       		.uleb128 0x42
 4457 15a9 70696400 		.ascii	"pid\000"
 4458 15ad 01       		.byte	0x1
 4459 15ae 96       		.byte	0x96
 4460 15af B8000000 		.4byte	0xb8
 4461 15b3 01       		.uleb128 0x1
 4462 15b4 52       		.byte	0x52
 4463 15b5 00       		.byte	0
 4464 15b6 3E       		.uleb128 0x3e
 4465 15b7 7E0D0000 		.4byte	0xd7e
 4466 15bb 00000000 		.4byte	.LFB186
 4467 15bf 04000000 		.4byte	.LFE186-.LFB186
 4468 15c3 01       		.uleb128 0x1
 4469 15c4 9C       		.byte	0x9c
 4470 15c5 CD150000 		.4byte	0x15cd
 4471 15c9 E8150000 		.4byte	0x15e8
 4472 15cd 3F       		.uleb128 0x3f
 4473 15ce F1080000 		.4byte	.LASF249
 4474 15d2 EA130000 		.4byte	0x13ea
 4475 15d6 C6000000 		.4byte	.LLST6
 4476 15da 40       		.uleb128 0x40
 4477 15db D2130000 		.4byte	.LASF257
 4478 15df 01       		.byte	0x1
 4479 15e0 9A       		.byte	0x9a
 4480 15e1 AD000000 		.4byte	0xad
 4481 15e5 01       		.uleb128 0x1
 4482 15e6 51       		.byte	0x51
 4483 15e7 00       		.byte	0
 4484 15e8 3E       		.uleb128 0x3e
 4485 15e9 A90D0000 		.4byte	0xda9
 4486 15ed 00000000 		.4byte	.LFB187
 4487 15f1 04000000 		.4byte	.LFE187-.LFB187
 4488 15f5 01       		.uleb128 0x1
 4489 15f6 9C       		.byte	0x9c
ARM GAS  C:\Users\jrdia\AppData\Local\Temp\ccJ9Fnzg.s 			page 98


 4490 15f7 FF150000 		.4byte	0x15ff
 4491 15fb 1A160000 		.4byte	0x161a
 4492 15ff 3F       		.uleb128 0x3f
 4493 1600 F1080000 		.4byte	.LASF249
 4494 1604 EA130000 		.4byte	0x13ea
 4495 1608 E7000000 		.4byte	.LLST7
 4496 160c 40       		.uleb128 0x40
 4497 160d 77120000 		.4byte	.LASF258
 4498 1611 01       		.byte	0x1
 4499 1612 9E       		.byte	0x9e
 4500 1613 AD000000 		.4byte	0xad
 4501 1617 01       		.uleb128 0x1
 4502 1618 51       		.byte	0x51
 4503 1619 00       		.byte	0
 4504 161a 3E       		.uleb128 0x3e
 4505 161b 17120000 		.4byte	0x1217
 4506 161f 00000000 		.4byte	.LFB213
 4507 1623 04000000 		.4byte	.LFE213-.LFB213
 4508 1627 01       		.uleb128 0x1
 4509 1628 9C       		.byte	0x9c
 4510 1629 31160000 		.4byte	0x1631
 4511 162d 3F160000 		.4byte	0x163f
 4512 1631 3F       		.uleb128 0x3f
 4513 1632 F1080000 		.4byte	.LASF249
 4514 1636 20130000 		.4byte	0x1320
 4515 163a 08010000 		.4byte	.LLST8
 4516 163e 00       		.byte	0
 4517 163f 3E       		.uleb128 0x3e
 4518 1640 3D120000 		.4byte	0x123d
 4519 1644 00000000 		.4byte	.LFB214
 4520 1648 0A000000 		.4byte	.LFE214-.LFB214
 4521 164c 01       		.uleb128 0x1
 4522 164d 9C       		.byte	0x9c
 4523 164e 56160000 		.4byte	0x1656
 4524 1652 73160000 		.4byte	0x1673
 4525 1656 3F       		.uleb128 0x3f
 4526 1657 F1080000 		.4byte	.LASF249
 4527 165b 20130000 		.4byte	0x1320
 4528 165f 29010000 		.4byte	.LLST9
 4529 1663 43       		.uleb128 0x43
 4530 1664 D2130000 		.4byte	.LASF257
 4531 1668 02       		.byte	0x2
 4532 1669 CB       		.byte	0xcb
 4533 166a AD000000 		.4byte	0xad
 4534 166e 4A010000 		.4byte	.LLST10
 4535 1672 00       		.byte	0
 4536 1673 44       		.uleb128 0x44
 4537 1674 A3110000 		.4byte	0x11a3
 4538 1678 00000000 		.4byte	.LFB230
 4539 167c 2E000000 		.4byte	.LFE230-.LFB230
 4540 1680 01       		.uleb128 0x1
 4541 1681 9C       		.byte	0x9c
 4542 1682 8A160000 		.4byte	0x168a
 4543 1686 B1160000 		.4byte	0x16b1
 4544 168a 3F       		.uleb128 0x3f
 4545 168b F1080000 		.4byte	.LASF249
 4546 168f 20130000 		.4byte	0x1320
ARM GAS  C:\Users\jrdia\AppData\Local\Temp\ccJ9Fnzg.s 			page 99


 4547 1693 6B010000 		.4byte	.LLST11
 4548 1697 45       		.uleb128 0x45
 4549 1698 B2120000 		.4byte	0x12b2
 4550 169c 14000000 		.4byte	.LBB33
 4551 16a0 00000000 		.4byte	.Ldebug_ranges0+0
 4552 16a4 03       		.byte	0x3
 4553 16a5 DC       		.byte	0xdc
 4554 16a6 46       		.uleb128 0x46
 4555 16a7 C0120000 		.4byte	0x12c0
 4556 16ab 97010000 		.4byte	.LLST12
 4557 16af 00       		.byte	0
 4558 16b0 00       		.byte	0
 4559 16b1 3E       		.uleb128 0x3e
 4560 16b2 6E110000 		.4byte	0x116e
 4561 16b6 00000000 		.4byte	.LFB229
 4562 16ba 3C020000 		.4byte	.LFE229-.LFB229
 4563 16be 01       		.uleb128 0x1
 4564 16bf 9C       		.byte	0x9c
 4565 16c0 C8160000 		.4byte	0x16c8
 4566 16c4 5F1A0000 		.4byte	0x1a5f
 4567 16c8 3F       		.uleb128 0x3f
 4568 16c9 F1080000 		.4byte	.LASF249
 4569 16cd 20130000 		.4byte	0x1320
 4570 16d1 AA010000 		.4byte	.LLST13
 4571 16d5 43       		.uleb128 0x43
 4572 16d6 BE0A0000 		.4byte	.LASF256
 4573 16da 03       		.byte	0x3
 4574 16db 2C       		.byte	0x2c
 4575 16dc AD000000 		.4byte	0xad
 4576 16e0 EC010000 		.4byte	.LLST14
 4577 16e4 43       		.uleb128 0x43
 4578 16e5 2C110000 		.4byte	.LASF250
 4579 16e9 03       		.byte	0x3
 4580 16ea 2C       		.byte	0x2c
 4581 16eb AD000000 		.4byte	0xad
 4582 16ef 26020000 		.4byte	.LLST15
 4583 16f3 43       		.uleb128 0x43
 4584 16f4 62020000 		.4byte	.LASF45
 4585 16f8 03       		.byte	0x3
 4586 16f9 2C       		.byte	0x2c
 4587 16fa FE000000 		.4byte	0xfe
 4588 16fe 60020000 		.4byte	.LLST16
 4589 1702 47       		.uleb128 0x47
 4590 1703 150F0000 		.4byte	.LASF259
 4591 1707 03       		.byte	0x3
 4592 1708 C4       		.byte	0xc4
 4593 1709 47       		.uleb128 0x47
 4594 170a 76090000 		.4byte	.LASF260
 4595 170e 03       		.byte	0x3
 4596 170f D3       		.byte	0xd3
 4597 1710 47       		.uleb128 0x47
 4598 1711 9C080000 		.4byte	.LASF261
 4599 1715 03       		.byte	0x3
 4600 1716 D0       		.byte	0xd0
 4601 1717 47       		.uleb128 0x47
 4602 1718 19040000 		.4byte	.LASF262
 4603 171c 03       		.byte	0x3
ARM GAS  C:\Users\jrdia\AppData\Local\Temp\ccJ9Fnzg.s 			page 100


 4604 171d CD       		.byte	0xcd
 4605 171e 47       		.uleb128 0x47
 4606 171f DB0C0000 		.4byte	.LASF263
 4607 1723 03       		.byte	0x3
 4608 1724 CA       		.byte	0xca
 4609 1725 47       		.uleb128 0x47
 4610 1726 D5010000 		.4byte	.LASF264
 4611 172a 03       		.byte	0x3
 4612 172b C7       		.byte	0xc7
 4613 172c 48       		.uleb128 0x48
 4614 172d 62756600 		.ascii	"buf\000"
 4615 1731 03       		.byte	0x3
 4616 1732 2D       		.byte	0x2d
 4617 1733 5F1A0000 		.4byte	0x1a5f
 4618 1737 03       		.uleb128 0x3
 4619 1738 91       		.byte	0x91
 4620 1739 B87F     		.sleb128 -72
 4621 173b 49       		.uleb128 0x49
 4622 173c 75646400 		.ascii	"udd\000"
 4623 1740 03       		.byte	0x3
 4624 1741 2E       		.byte	0x2e
 4625 1742 6F1A0000 		.4byte	0x1a6f
 4626 1746 9A020000 		.4byte	.LLST17
 4627 174a 49       		.uleb128 0x49
 4628 174b 686400   		.ascii	"hd\000"
 4629 174e 03       		.byte	0x3
 4630 174f 2F       		.byte	0x2f
 4631 1750 751A0000 		.4byte	0x1a75
 4632 1754 9A020000 		.4byte	.LLST17
 4633 1758 49       		.uleb128 0x49
 4634 1759 75636400 		.ascii	"ucd\000"
 4635 175d 03       		.byte	0x3
 4636 175e 30       		.byte	0x30
 4637 175f 7B1A0000 		.4byte	0x1a7b
 4638 1763 9A020000 		.4byte	.LLST17
 4639 1767 4A       		.uleb128 0x4a
 4640 1768 09140000 		.4byte	.LASF255
 4641 176c 03       		.byte	0x3
 4642 176d 31       		.byte	0x31
 4643 176e AD000000 		.4byte	0xad
 4644 1772 6C030000 		.4byte	.LLST20
 4645 1776 49       		.uleb128 0x49
 4646 1777 7000     		.ascii	"p\000"
 4647 1779 03       		.byte	0x3
 4648 177a 32       		.byte	0x32
 4649 177b 72020000 		.4byte	0x272
 4650 177f 03040000 		.4byte	.LLST21
 4651 1783 4A       		.uleb128 0x4a
 4652 1784 290A0000 		.4byte	.LASF265
 4653 1788 03       		.byte	0x3
 4654 1789 33       		.byte	0x33
 4655 178a 50020000 		.4byte	0x250
 4656 178e 4F040000 		.4byte	.LLST22
 4657 1792 49       		.uleb128 0x49
 4658 1793 6C656E00 		.ascii	"len\000"
 4659 1797 03       		.byte	0x3
 4660 1798 34       		.byte	0x34
ARM GAS  C:\Users\jrdia\AppData\Local\Temp\ccJ9Fnzg.s 			page 101


 4661 1799 AD000000 		.4byte	0xad
 4662 179d A0040000 		.4byte	.LLST23
 4663 17a1 4A       		.uleb128 0x4a
 4664 17a2 0A060000 		.4byte	.LASF266
 4665 17a6 03       		.byte	0x3
 4666 17a7 35       		.byte	0x35
 4667 17a8 B8000000 		.4byte	0xb8
 4668 17ac ED040000 		.4byte	.LLST24
 4669 17b0 3D       		.uleb128 0x3d
 4670 17b1 5C0D0000 		.4byte	.LASF110
 4671 17b5 03       		.byte	0x3
 4672 17b6 3A       		.byte	0x3a
 4673 17b7 811A0000 		.4byte	0x1a81
 4674 17bb 4B       		.uleb128 0x4b
 4675 17bc 25130000 		.4byte	0x1325
 4676 17c0 0C010000 		.4byte	.LBB47
 4677 17c4 26000000 		.4byte	.LBE47-.LBB47
 4678 17c8 03       		.byte	0x3
 4679 17c9 8E       		.byte	0x8e
 4680 17ca 4A180000 		.4byte	0x184a
 4681 17ce 46       		.uleb128 0x46
 4682 17cf 33130000 		.4byte	0x1333
 4683 17d3 26050000 		.4byte	.LLST25
 4684 17d7 46       		.uleb128 0x46
 4685 17d8 33130000 		.4byte	0x1333
 4686 17dc 26050000 		.4byte	.LLST25
 4687 17e0 46       		.uleb128 0x46
 4688 17e1 52130000 		.4byte	0x1352
 4689 17e5 44050000 		.4byte	.LLST27
 4690 17e9 46       		.uleb128 0x46
 4691 17ea 47130000 		.4byte	0x1347
 4692 17ee 80050000 		.4byte	.LLST28
 4693 17f2 46       		.uleb128 0x46
 4694 17f3 3C130000 		.4byte	0x133c
 4695 17f7 94050000 		.4byte	.LLST29
 4696 17fb 4C       		.uleb128 0x4c
 4697 17fc 30010000 		.4byte	.LVL57
 4698 1800 6E0A0000 		.4byte	0xa6e
 4699 1804 4D       		.uleb128 0x4d
 4700 1805 01       		.uleb128 0x1
 4701 1806 52       		.byte	0x52
 4702 1807 02       		.uleb128 0x2
 4703 1808 75       		.byte	0x75
 4704 1809 00       		.sleb128 0
 4705 180a 4D       		.uleb128 0x4d
 4706 180b 01       		.uleb128 0x1
 4707 180c 53       		.byte	0x53
 4708 180d 02       		.uleb128 0x2
 4709 180e 09       		.byte	0x9
 4710 180f A0       		.byte	0xa0
 4711 1810 4D       		.uleb128 0x4d
 4712 1811 02       		.uleb128 0x2
 4713 1812 7D       		.byte	0x7d
 4714 1813 00       		.sleb128 0
 4715 1814 01       		.uleb128 0x1
 4716 1815 36       		.byte	0x36
 4717 1816 4D       		.uleb128 0x4d
ARM GAS  C:\Users\jrdia\AppData\Local\Temp\ccJ9Fnzg.s 			page 102


 4718 1817 02       		.uleb128 0x2
 4719 1818 7D       		.byte	0x7d
 4720 1819 04       		.sleb128 4
 4721 181a 02       		.uleb128 0x2
 4722 181b 75       		.byte	0x75
 4723 181c 00       		.sleb128 0
 4724 181d 4D       		.uleb128 0x4d
 4725 181e 02       		.uleb128 0x2
 4726 181f 7D       		.byte	0x7d
 4727 1820 08       		.sleb128 8
 4728 1821 02       		.uleb128 0x2
 4729 1822 08       		.byte	0x8
 4730 1823 29       		.byte	0x29
 4731 1824 4D       		.uleb128 0x4d
 4732 1825 02       		.uleb128 0x2
 4733 1826 7D       		.byte	0x7d
 4734 1827 0C       		.sleb128 12
 4735 1828 02       		.uleb128 0x2
 4736 1829 75       		.byte	0x75
 4737 182a 00       		.sleb128 0
 4738 182b 4D       		.uleb128 0x4d
 4739 182c 02       		.uleb128 0x2
 4740 182d 7D       		.byte	0x7d
 4741 182e 10       		.sleb128 16
 4742 182f 02       		.uleb128 0x2
 4743 1830 76       		.byte	0x76
 4744 1831 00       		.sleb128 0
 4745 1832 4D       		.uleb128 0x4d
 4746 1833 02       		.uleb128 0x2
 4747 1834 7D       		.byte	0x7d
 4748 1835 14       		.sleb128 20
 4749 1836 02       		.uleb128 0x2
 4750 1837 76       		.byte	0x76
 4751 1838 00       		.sleb128 0
 4752 1839 4D       		.uleb128 0x4d
 4753 183a 02       		.uleb128 0x2
 4754 183b 7D       		.byte	0x7d
 4755 183c 18       		.sleb128 24
 4756 183d 03       		.uleb128 0x3
 4757 183e 91       		.byte	0x91
 4758 183f B87F     		.sleb128 -72
 4759 1841 4D       		.uleb128 0x4d
 4760 1842 02       		.uleb128 0x2
 4761 1843 7D       		.byte	0x7d
 4762 1844 1C       		.sleb128 28
 4763 1845 02       		.uleb128 0x2
 4764 1846 75       		.byte	0x75
 4765 1847 00       		.sleb128 0
 4766 1848 00       		.byte	0
 4767 1849 00       		.byte	0
 4768 184a 4E       		.uleb128 0x4e
 4769 184b C4010000 		.4byte	.LBB49
 4770 184f 1C000000 		.4byte	.LBE49-.LBB49
 4771 1853 86180000 		.4byte	0x1886
 4772 1857 4F       		.uleb128 0x4f
 4773 1858 520A0000 		.4byte	.LASF267
 4774 185c 03       		.byte	0x3
ARM GAS  C:\Users\jrdia\AppData\Local\Temp\ccJ9Fnzg.s 			page 103


 4775 185d A6       		.byte	0xa6
 4776 185e 861A0000 		.4byte	0x1a86
 4777 1862 03       		.uleb128 0x3
 4778 1863 91       		.byte	0x91
 4779 1864 A07F     		.sleb128 -96
 4780 1866 4C       		.uleb128 0x4c
 4781 1867 DC010000 		.4byte	.LVL81
 4782 186b DB070000 		.4byte	0x7db
 4783 186f 4D       		.uleb128 0x4d
 4784 1870 01       		.uleb128 0x1
 4785 1871 52       		.byte	0x52
 4786 1872 02       		.uleb128 0x2
 4787 1873 75       		.byte	0x75
 4788 1874 00       		.sleb128 0
 4789 1875 4D       		.uleb128 0x4d
 4790 1876 02       		.uleb128 0x2
 4791 1877 7D       		.byte	0x7d
 4792 1878 00       		.sleb128 0
 4793 1879 02       		.uleb128 0x2
 4794 187a 75       		.byte	0x75
 4795 187b 00       		.sleb128 0
 4796 187c 4D       		.uleb128 0x4d
 4797 187d 02       		.uleb128 0x2
 4798 187e 7D       		.byte	0x7d
 4799 187f 04       		.sleb128 4
 4800 1880 03       		.uleb128 0x3
 4801 1881 91       		.byte	0x91
 4802 1882 A07F     		.sleb128 -96
 4803 1884 00       		.byte	0
 4804 1885 00       		.byte	0
 4805 1886 4E       		.uleb128 0x4e
 4806 1887 F8010000 		.4byte	.LBB50
 4807 188b 32000000 		.4byte	.LBE50-.LBB50
 4808 188f 2B190000 		.4byte	0x192b
 4809 1893 49       		.uleb128 0x49
 4810 1894 6A00     		.ascii	"j\000"
 4811 1896 03       		.byte	0x3
 4812 1897 B8       		.byte	0xb8
 4813 1898 AD000000 		.4byte	0xad
 4814 189c A8050000 		.4byte	.LLST30
 4815 18a0 45       		.uleb128 0x45
 4816 18a1 97130000 		.4byte	0x1397
 4817 18a5 F8010000 		.4byte	.LBB51
 4818 18a9 18000000 		.4byte	.Ldebug_ranges0+0x18
 4819 18ad 03       		.byte	0x3
 4820 18ae B9       		.byte	0xb9
 4821 18af 46       		.uleb128 0x46
 4822 18b0 C4130000 		.4byte	0x13c4
 4823 18b4 C6050000 		.4byte	.LLST31
 4824 18b8 46       		.uleb128 0x46
 4825 18b9 A5130000 		.4byte	0x13a5
 4826 18bd DA050000 		.4byte	.LLST32
 4827 18c1 46       		.uleb128 0x46
 4828 18c2 A5130000 		.4byte	0x13a5
 4829 18c6 DA050000 		.4byte	.LLST32
 4830 18ca 46       		.uleb128 0x46
 4831 18cb B9130000 		.4byte	0x13b9
ARM GAS  C:\Users\jrdia\AppData\Local\Temp\ccJ9Fnzg.s 			page 104


 4832 18cf ED050000 		.4byte	.LLST34
 4833 18d3 46       		.uleb128 0x46
 4834 18d4 AE130000 		.4byte	0x13ae
 4835 18d8 00060000 		.4byte	.LLST35
 4836 18dc 4C       		.uleb128 0x4c
 4837 18dd 26020000 		.4byte	.LVL88
 4838 18e1 6E0A0000 		.4byte	0xa6e
 4839 18e5 4D       		.uleb128 0x4d
 4840 18e6 01       		.uleb128 0x1
 4841 18e7 52       		.byte	0x52
 4842 18e8 01       		.uleb128 0x1
 4843 18e9 30       		.byte	0x30
 4844 18ea 4D       		.uleb128 0x4d
 4845 18eb 01       		.uleb128 0x1
 4846 18ec 53       		.byte	0x53
 4847 18ed 02       		.uleb128 0x2
 4848 18ee 08       		.byte	0x8
 4849 18ef 23       		.byte	0x23
 4850 18f0 4D       		.uleb128 0x4d
 4851 18f1 02       		.uleb128 0x2
 4852 18f2 7D       		.byte	0x7d
 4853 18f3 00       		.sleb128 0
 4854 18f4 02       		.uleb128 0x2
 4855 18f5 76       		.byte	0x76
 4856 18f6 00       		.sleb128 0
 4857 18f7 4D       		.uleb128 0x4d
 4858 18f8 02       		.uleb128 0x2
 4859 18f9 7D       		.byte	0x7d
 4860 18fa 04       		.sleb128 4
 4861 18fb 02       		.uleb128 0x2
 4862 18fc 78       		.byte	0x78
 4863 18fd 00       		.sleb128 0
 4864 18fe 4D       		.uleb128 0x4d
 4865 18ff 02       		.uleb128 0x2
 4866 1900 7D       		.byte	0x7d
 4867 1901 08       		.sleb128 8
 4868 1902 02       		.uleb128 0x2
 4869 1903 75       		.byte	0x75
 4870 1904 00       		.sleb128 0
 4871 1905 4D       		.uleb128 0x4d
 4872 1906 02       		.uleb128 0x2
 4873 1907 7D       		.byte	0x7d
 4874 1908 0C       		.sleb128 12
 4875 1909 02       		.uleb128 0x2
 4876 190a 77       		.byte	0x77
 4877 190b 7F       		.sleb128 -1
 4878 190c 4D       		.uleb128 0x4d
 4879 190d 02       		.uleb128 0x2
 4880 190e 7D       		.byte	0x7d
 4881 190f 10       		.sleb128 16
 4882 1910 02       		.uleb128 0x2
 4883 1911 75       		.byte	0x75
 4884 1912 00       		.sleb128 0
 4885 1913 4D       		.uleb128 0x4d
 4886 1914 02       		.uleb128 0x2
 4887 1915 7D       		.byte	0x7d
 4888 1916 14       		.sleb128 20
ARM GAS  C:\Users\jrdia\AppData\Local\Temp\ccJ9Fnzg.s 			page 105


 4889 1917 02       		.uleb128 0x2
 4890 1918 75       		.byte	0x75
 4891 1919 00       		.sleb128 0
 4892 191a 4D       		.uleb128 0x4d
 4893 191b 02       		.uleb128 0x2
 4894 191c 7D       		.byte	0x7d
 4895 191d 18       		.sleb128 24
 4896 191e 02       		.uleb128 0x2
 4897 191f 75       		.byte	0x75
 4898 1920 00       		.sleb128 0
 4899 1921 4D       		.uleb128 0x4d
 4900 1922 02       		.uleb128 0x2
 4901 1923 7D       		.byte	0x7d
 4902 1924 1C       		.sleb128 28
 4903 1925 02       		.uleb128 0x2
 4904 1926 75       		.byte	0x75
 4905 1927 00       		.sleb128 0
 4906 1928 00       		.byte	0
 4907 1929 00       		.byte	0
 4908 192a 00       		.byte	0
 4909 192b 50       		.uleb128 0x50
 4910 192c B2120000 		.4byte	0x12b2
 4911 1930 2A020000 		.4byte	.LBB57
 4912 1934 38000000 		.4byte	.Ldebug_ranges0+0x38
 4913 1938 03       		.byte	0x3
 4914 1939 BB       		.byte	0xbb
 4915 193a 46190000 		.4byte	0x1946
 4916 193e 51       		.uleb128 0x51
 4917 193f C0120000 		.4byte	0x12c0
 4918 1943 01       		.uleb128 0x1
 4919 1944 51       		.byte	0x51
 4920 1945 00       		.byte	0
 4921 1946 52       		.uleb128 0x52
 4922 1947 3C000000 		.4byte	.LVL36
 4923 194b 5B190000 		.4byte	0x195b
 4924 194f 4D       		.uleb128 0x4d
 4925 1950 01       		.uleb128 0x1
 4926 1951 50       		.byte	0x50
 4927 1952 02       		.uleb128 0x2
 4928 1953 7B       		.byte	0x7b
 4929 1954 00       		.sleb128 0
 4930 1955 4D       		.uleb128 0x4d
 4931 1956 01       		.uleb128 0x1
 4932 1957 51       		.byte	0x51
 4933 1958 01       		.uleb128 0x1
 4934 1959 30       		.byte	0x30
 4935 195a 00       		.byte	0
 4936 195b 53       		.uleb128 0x53
 4937 195c 8C000000 		.4byte	.LVL43
 4938 1960 A9070000 		.4byte	0x7a9
 4939 1964 80190000 		.4byte	0x1980
 4940 1968 4D       		.uleb128 0x4d
 4941 1969 01       		.uleb128 0x1
 4942 196a 51       		.byte	0x51
 4943 196b 01       		.uleb128 0x1
 4944 196c 30       		.byte	0x30
 4945 196d 4D       		.uleb128 0x4d
ARM GAS  C:\Users\jrdia\AppData\Local\Temp\ccJ9Fnzg.s 			page 106


 4946 196e 01       		.uleb128 0x1
 4947 196f 52       		.byte	0x52
 4948 1970 01       		.uleb128 0x1
 4949 1971 30       		.byte	0x30
 4950 1972 4D       		.uleb128 0x4d
 4951 1973 01       		.uleb128 0x1
 4952 1974 53       		.byte	0x53
 4953 1975 01       		.uleb128 0x1
 4954 1976 38       		.byte	0x38
 4955 1977 4D       		.uleb128 0x4d
 4956 1978 02       		.uleb128 0x2
 4957 1979 7D       		.byte	0x7d
 4958 197a 00       		.sleb128 0
 4959 197b 03       		.uleb128 0x3
 4960 197c 91       		.byte	0x91
 4961 197d B87F     		.sleb128 -72
 4962 197f 00       		.byte	0
 4963 1980 54       		.uleb128 0x54
 4964 1981 BA000000 		.4byte	.LVL47
 4965 1985 02       		.uleb128 0x2
 4966 1986 75       		.byte	0x75
 4967 1987 00       		.sleb128 0
 4968 1988 A4190000 		.4byte	0x19a4
 4969 198c 4D       		.uleb128 0x4d
 4970 198d 01       		.uleb128 0x1
 4971 198e 50       		.byte	0x50
 4972 198f 02       		.uleb128 0x2
 4973 1990 7B       		.byte	0x7b
 4974 1991 00       		.sleb128 0
 4975 1992 4D       		.uleb128 0x4d
 4976 1993 01       		.uleb128 0x1
 4977 1994 51       		.byte	0x51
 4978 1995 02       		.uleb128 0x2
 4979 1996 79       		.byte	0x79
 4980 1997 00       		.sleb128 0
 4981 1998 4D       		.uleb128 0x4d
 4982 1999 01       		.uleb128 0x1
 4983 199a 52       		.byte	0x52
 4984 199b 01       		.uleb128 0x1
 4985 199c 31       		.byte	0x31
 4986 199d 4D       		.uleb128 0x4d
 4987 199e 01       		.uleb128 0x1
 4988 199f 53       		.byte	0x53
 4989 19a0 02       		.uleb128 0x2
 4990 19a1 7A       		.byte	0x7a
 4991 19a2 00       		.sleb128 0
 4992 19a3 00       		.byte	0
 4993 19a4 53       		.uleb128 0x53
 4994 19a5 D8000000 		.4byte	.LVL48
 4995 19a9 80080000 		.4byte	0x880
 4996 19ad BC190000 		.4byte	0x19bc
 4997 19b1 4D       		.uleb128 0x4d
 4998 19b2 01       		.uleb128 0x1
 4999 19b3 51       		.byte	0x51
 5000 19b4 01       		.uleb128 0x1
 5001 19b5 30       		.byte	0x30
 5002 19b6 4D       		.uleb128 0x4d
ARM GAS  C:\Users\jrdia\AppData\Local\Temp\ccJ9Fnzg.s 			page 107


 5003 19b7 01       		.uleb128 0x1
 5004 19b8 52       		.byte	0x52
 5005 19b9 01       		.uleb128 0x1
 5006 19ba 30       		.byte	0x30
 5007 19bb 00       		.byte	0
 5008 19bc 53       		.uleb128 0x53
 5009 19bd 06010000 		.4byte	.LVL51
 5010 19c1 7C070000 		.4byte	0x77c
 5011 19c5 D7190000 		.4byte	0x19d7
 5012 19c9 4D       		.uleb128 0x4d
 5013 19ca 01       		.uleb128 0x1
 5014 19cb 52       		.byte	0x52
 5015 19cc 01       		.uleb128 0x1
 5016 19cd 32       		.byte	0x32
 5017 19ce 4D       		.uleb128 0x4d
 5018 19cf 01       		.uleb128 0x1
 5019 19d0 53       		.byte	0x53
 5020 19d1 04       		.uleb128 0x4
 5021 19d2 91       		.byte	0x91
 5022 19d3 9C7F     		.sleb128 -100
 5023 19d5 06       		.byte	0x6
 5024 19d6 00       		.byte	0
 5025 19d7 53       		.uleb128 0x53
 5026 19d8 52010000 		.4byte	.LVL62
 5027 19dc DB070000 		.4byte	0x7db
 5028 19e0 001A0000 		.4byte	0x1a00
 5029 19e4 4D       		.uleb128 0x4d
 5030 19e5 01       		.uleb128 0x1
 5031 19e6 52       		.byte	0x52
 5032 19e7 02       		.uleb128 0x2
 5033 19e8 75       		.byte	0x75
 5034 19e9 00       		.sleb128 0
 5035 19ea 4D       		.uleb128 0x4d
 5036 19eb 01       		.uleb128 0x1
 5037 19ec 53       		.byte	0x53
 5038 19ed 02       		.uleb128 0x2
 5039 19ee 76       		.byte	0x76
 5040 19ef 00       		.sleb128 0
 5041 19f0 4D       		.uleb128 0x4d
 5042 19f1 02       		.uleb128 0x2
 5043 19f2 7D       		.byte	0x7d
 5044 19f3 00       		.sleb128 0
 5045 19f4 02       		.uleb128 0x2
 5046 19f5 75       		.byte	0x75
 5047 19f6 00       		.sleb128 0
 5048 19f7 4D       		.uleb128 0x4d
 5049 19f8 02       		.uleb128 0x2
 5050 19f9 7D       		.byte	0x7d
 5051 19fa 04       		.sleb128 4
 5052 19fb 03       		.uleb128 0x3
 5053 19fc 91       		.byte	0x91
 5054 19fd B87F     		.sleb128 -72
 5055 19ff 00       		.byte	0
 5056 1a00 52       		.uleb128 0x52
 5057 1a01 8E010000 		.4byte	.LVL68
 5058 1a05 101A0000 		.4byte	0x1a10
 5059 1a09 4D       		.uleb128 0x4d
ARM GAS  C:\Users\jrdia\AppData\Local\Temp\ccJ9Fnzg.s 			page 108


 5060 1a0a 01       		.uleb128 0x1
 5061 1a0b 50       		.byte	0x50
 5062 1a0c 02       		.uleb128 0x2
 5063 1a0d 7B       		.byte	0x7b
 5064 1a0e 00       		.sleb128 0
 5065 1a0f 00       		.byte	0
 5066 1a10 53       		.uleb128 0x53
 5067 1a11 A4010000 		.4byte	.LVL73
 5068 1a15 A9070000 		.4byte	0x7a9
 5069 1a19 2B1A0000 		.4byte	0x1a2b
 5070 1a1d 4D       		.uleb128 0x4d
 5071 1a1e 01       		.uleb128 0x1
 5072 1a1f 52       		.byte	0x52
 5073 1a20 01       		.uleb128 0x1
 5074 1a21 30       		.byte	0x30
 5075 1a22 4D       		.uleb128 0x4d
 5076 1a23 02       		.uleb128 0x2
 5077 1a24 7D       		.byte	0x7d
 5078 1a25 00       		.sleb128 0
 5079 1a26 03       		.uleb128 0x3
 5080 1a27 91       		.byte	0x91
 5081 1a28 B87F     		.sleb128 -72
 5082 1a2a 00       		.byte	0
 5083 1a2b 53       		.uleb128 0x53
 5084 1a2c C0010000 		.4byte	.LVL79
 5085 1a30 DB070000 		.4byte	0x7db
 5086 1a34 4E1A0000 		.4byte	0x1a4e
 5087 1a38 4D       		.uleb128 0x4d
 5088 1a39 01       		.uleb128 0x1
 5089 1a3a 52       		.byte	0x52
 5090 1a3b 02       		.uleb128 0x2
 5091 1a3c 75       		.byte	0x75
 5092 1a3d 00       		.sleb128 0
 5093 1a3e 4D       		.uleb128 0x4d
 5094 1a3f 02       		.uleb128 0x2
 5095 1a40 7D       		.byte	0x7d
 5096 1a41 00       		.sleb128 0
 5097 1a42 02       		.uleb128 0x2
 5098 1a43 75       		.byte	0x75
 5099 1a44 00       		.sleb128 0
 5100 1a45 4D       		.uleb128 0x4d
 5101 1a46 02       		.uleb128 0x2
 5102 1a47 7D       		.byte	0x7d
 5103 1a48 04       		.sleb128 4
 5104 1a49 03       		.uleb128 0x3
 5105 1a4a 91       		.byte	0x91
 5106 1a4b B87F     		.sleb128 -72
 5107 1a4d 00       		.byte	0
 5108 1a4e 4C       		.uleb128 0x4c
 5109 1a4f F2010000 		.4byte	.LVL83
 5110 1a53 AD080000 		.4byte	0x8ad
 5111 1a57 4D       		.uleb128 0x4d
 5112 1a58 01       		.uleb128 0x1
 5113 1a59 52       		.byte	0x52
 5114 1a5a 02       		.uleb128 0x2
 5115 1a5b 75       		.byte	0x75
 5116 1a5c 00       		.sleb128 0
ARM GAS  C:\Users\jrdia\AppData\Local\Temp\ccJ9Fnzg.s 			page 109


 5117 1a5d 00       		.byte	0
 5118 1a5e 00       		.byte	0
 5119 1a5f 26       		.uleb128 0x26
 5120 1a60 AD000000 		.4byte	0xad
 5121 1a64 6F1A0000 		.4byte	0x1a6f
 5122 1a68 27       		.uleb128 0x27
 5123 1a69 DB000000 		.4byte	0xdb
 5124 1a6d 1F       		.byte	0x1f
 5125 1a6e 00       		.byte	0
 5126 1a6f 10       		.uleb128 0x10
 5127 1a70 04       		.byte	0x4
 5128 1a71 37030000 		.4byte	0x337
 5129 1a75 10       		.uleb128 0x10
 5130 1a76 04       		.byte	0x4
 5131 1a77 F90D0000 		.4byte	0xdf9
 5132 1a7b 10       		.uleb128 0x10
 5133 1a7c 04       		.byte	0x4
 5134 1a7d AF030000 		.4byte	0x3af
 5135 1a81 32       		.uleb128 0x32
 5136 1a82 DC0D0000 		.4byte	0xddc
 5137 1a86 26       		.uleb128 0x26
 5138 1a87 AD000000 		.4byte	0xad
 5139 1a8b 961A0000 		.4byte	0x1a96
 5140 1a8f 27       		.uleb128 0x27
 5141 1a90 DB000000 		.4byte	0xdb
 5142 1a94 17       		.byte	0x17
 5143 1a95 00       		.byte	0
 5144 1a96 3E       		.uleb128 0x3e
 5145 1a97 EF110000 		.4byte	0x11ef
 5146 1a9b 00000000 		.4byte	.LFB233
 5147 1a9f 1C010000 		.4byte	.LFE233-.LFB233
 5148 1aa3 01       		.uleb128 0x1
 5149 1aa4 9C       		.byte	0x9c
 5150 1aa5 AD1A0000 		.4byte	0x1aad
 5151 1aa9 611E0000 		.4byte	0x1e61
 5152 1aad 3F       		.uleb128 0x3f
 5153 1aae F1080000 		.4byte	.LASF249
 5154 1ab2 20130000 		.4byte	0x1320
 5155 1ab6 14060000 		.4byte	.LLST36
 5156 1aba 55       		.uleb128 0x55
 5157 1abb 2C110000 		.4byte	.LASF250
 5158 1abf 03       		.byte	0x3
 5159 1ac0 3501     		.2byte	0x135
 5160 1ac2 AD000000 		.4byte	0xad
 5161 1ac6 40060000 		.4byte	.LLST37
 5162 1aca 56       		.uleb128 0x56
 5163 1acb 65767400 		.ascii	"evt\000"
 5164 1acf 03       		.byte	0x3
 5165 1ad0 3601     		.2byte	0x136
 5166 1ad2 AB0E0000 		.4byte	0xeab
 5167 1ad6 02       		.uleb128 0x2
 5168 1ad7 91       		.byte	0x91
 5169 1ad8 5C       		.sleb128 -36
 5170 1ad9 57       		.uleb128 0x57
 5171 1ada 09140000 		.4byte	.LASF255
 5172 1ade 03       		.byte	0x3
 5173 1adf 3801     		.2byte	0x138
ARM GAS  C:\Users\jrdia\AppData\Local\Temp\ccJ9Fnzg.s 			page 110


 5174 1ae1 AD000000 		.4byte	0xad
 5175 1ae5 61060000 		.4byte	.LLST38
 5176 1ae9 58       		.uleb128 0x58
 5177 1aea E7120000 		.4byte	0x12e7
 5178 1aee 0C000000 		.4byte	.LBB74
 5179 1af2 50000000 		.4byte	.Ldebug_ranges0+0x50
 5180 1af6 03       		.byte	0x3
 5181 1af7 3A01     		.2byte	0x13a
 5182 1af9 741B0000 		.4byte	0x1b74
 5183 1afd 46       		.uleb128 0x46
 5184 1afe 14130000 		.4byte	0x1314
 5185 1b02 74060000 		.4byte	.LLST39
 5186 1b06 46       		.uleb128 0x46
 5187 1b07 F5120000 		.4byte	0x12f5
 5188 1b0b 88060000 		.4byte	.LLST40
 5189 1b0f 46       		.uleb128 0x46
 5190 1b10 F5120000 		.4byte	0x12f5
 5191 1b14 A9060000 		.4byte	.LLST41
 5192 1b18 59       		.uleb128 0x59
 5193 1b19 09130000 		.4byte	0x1309
 5194 1b1d 46       		.uleb128 0x46
 5195 1b1e FE120000 		.4byte	0x12fe
 5196 1b22 CA060000 		.4byte	.LLST42
 5197 1b26 4C       		.uleb128 0x4c
 5198 1b27 34000000 		.4byte	.LVL96
 5199 1b2b 6E0A0000 		.4byte	0xa6e
 5200 1b2f 4D       		.uleb128 0x4d
 5201 1b30 01       		.uleb128 0x1
 5202 1b31 52       		.byte	0x52
 5203 1b32 02       		.uleb128 0x2
 5204 1b33 74       		.byte	0x74
 5205 1b34 00       		.sleb128 0
 5206 1b35 4D       		.uleb128 0x4d
 5207 1b36 01       		.uleb128 0x1
 5208 1b37 53       		.byte	0x53
 5209 1b38 02       		.uleb128 0x2
 5210 1b39 08       		.byte	0x8
 5211 1b3a 23       		.byte	0x23
 5212 1b3b 4D       		.uleb128 0x4d
 5213 1b3c 02       		.uleb128 0x2
 5214 1b3d 7D       		.byte	0x7d
 5215 1b3e 00       		.sleb128 0
 5216 1b3f 02       		.uleb128 0x2
 5217 1b40 77       		.byte	0x77
 5218 1b41 00       		.sleb128 0
 5219 1b42 4D       		.uleb128 0x4d
 5220 1b43 02       		.uleb128 0x2
 5221 1b44 7D       		.byte	0x7d
 5222 1b45 04       		.sleb128 4
 5223 1b46 01       		.uleb128 0x1
 5224 1b47 41       		.byte	0x41
 5225 1b48 4D       		.uleb128 0x4d
 5226 1b49 02       		.uleb128 0x2
 5227 1b4a 7D       		.byte	0x7d
 5228 1b4b 08       		.sleb128 8
 5229 1b4c 02       		.uleb128 0x2
 5230 1b4d 74       		.byte	0x74
ARM GAS  C:\Users\jrdia\AppData\Local\Temp\ccJ9Fnzg.s 			page 111


 5231 1b4e 00       		.sleb128 0
 5232 1b4f 4D       		.uleb128 0x4d
 5233 1b50 02       		.uleb128 0x2
 5234 1b51 7D       		.byte	0x7d
 5235 1b52 0C       		.sleb128 12
 5236 1b53 02       		.uleb128 0x2
 5237 1b54 76       		.byte	0x76
 5238 1b55 00       		.sleb128 0
 5239 1b56 4D       		.uleb128 0x4d
 5240 1b57 02       		.uleb128 0x2
 5241 1b58 7D       		.byte	0x7d
 5242 1b59 10       		.sleb128 16
 5243 1b5a 02       		.uleb128 0x2
 5244 1b5b 74       		.byte	0x74
 5245 1b5c 00       		.sleb128 0
 5246 1b5d 4D       		.uleb128 0x4d
 5247 1b5e 02       		.uleb128 0x2
 5248 1b5f 7D       		.byte	0x7d
 5249 1b60 14       		.sleb128 20
 5250 1b61 02       		.uleb128 0x2
 5251 1b62 74       		.byte	0x74
 5252 1b63 00       		.sleb128 0
 5253 1b64 4D       		.uleb128 0x4d
 5254 1b65 02       		.uleb128 0x2
 5255 1b66 7D       		.byte	0x7d
 5256 1b67 18       		.sleb128 24
 5257 1b68 02       		.uleb128 0x2
 5258 1b69 74       		.byte	0x74
 5259 1b6a 00       		.sleb128 0
 5260 1b6b 4D       		.uleb128 0x4d
 5261 1b6c 02       		.uleb128 0x2
 5262 1b6d 7D       		.byte	0x7d
 5263 1b6e 1C       		.sleb128 28
 5264 1b6f 02       		.uleb128 0x2
 5265 1b70 74       		.byte	0x74
 5266 1b71 00       		.sleb128 0
 5267 1b72 00       		.byte	0
 5268 1b73 00       		.byte	0
 5269 1b74 5A       		.uleb128 0x5a
 5270 1b75 E7120000 		.4byte	0x12e7
 5271 1b79 34000000 		.4byte	.LBB82
 5272 1b7d 1E000000 		.4byte	.LBE82-.LBB82
 5273 1b81 03       		.byte	0x3
 5274 1b82 3B01     		.2byte	0x13b
 5275 1b84 FF1B0000 		.4byte	0x1bff
 5276 1b88 46       		.uleb128 0x46
 5277 1b89 14130000 		.4byte	0x1314
 5278 1b8d DE060000 		.4byte	.LLST43
 5279 1b91 46       		.uleb128 0x46
 5280 1b92 F5120000 		.4byte	0x12f5
 5281 1b96 F2060000 		.4byte	.LLST44
 5282 1b9a 46       		.uleb128 0x46
 5283 1b9b F5120000 		.4byte	0x12f5
 5284 1b9f 13070000 		.4byte	.LLST45
 5285 1ba3 59       		.uleb128 0x59
 5286 1ba4 09130000 		.4byte	0x1309
 5287 1ba8 46       		.uleb128 0x46
ARM GAS  C:\Users\jrdia\AppData\Local\Temp\ccJ9Fnzg.s 			page 112


 5288 1ba9 FE120000 		.4byte	0x12fe
 5289 1bad 34070000 		.4byte	.LLST46
 5290 1bb1 4C       		.uleb128 0x4c
 5291 1bb2 52000000 		.4byte	.LVL97
 5292 1bb6 6E0A0000 		.4byte	0xa6e
 5293 1bba 4D       		.uleb128 0x4d
 5294 1bbb 01       		.uleb128 0x1
 5295 1bbc 52       		.byte	0x52
 5296 1bbd 02       		.uleb128 0x2
 5297 1bbe 74       		.byte	0x74
 5298 1bbf 00       		.sleb128 0
 5299 1bc0 4D       		.uleb128 0x4d
 5300 1bc1 01       		.uleb128 0x1
 5301 1bc2 53       		.byte	0x53
 5302 1bc3 02       		.uleb128 0x2
 5303 1bc4 08       		.byte	0x8
 5304 1bc5 23       		.byte	0x23
 5305 1bc6 4D       		.uleb128 0x4d
 5306 1bc7 02       		.uleb128 0x2
 5307 1bc8 7D       		.byte	0x7d
 5308 1bc9 00       		.sleb128 0
 5309 1bca 02       		.uleb128 0x2
 5310 1bcb 77       		.byte	0x77
 5311 1bcc 00       		.sleb128 0
 5312 1bcd 4D       		.uleb128 0x4d
 5313 1bce 02       		.uleb128 0x2
 5314 1bcf 7D       		.byte	0x7d
 5315 1bd0 04       		.sleb128 4
 5316 1bd1 01       		.uleb128 0x1
 5317 1bd2 40       		.byte	0x40
 5318 1bd3 4D       		.uleb128 0x4d
 5319 1bd4 02       		.uleb128 0x2
 5320 1bd5 7D       		.byte	0x7d
 5321 1bd6 08       		.sleb128 8
 5322 1bd7 02       		.uleb128 0x2
 5323 1bd8 74       		.byte	0x74
 5324 1bd9 00       		.sleb128 0
 5325 1bda 4D       		.uleb128 0x4d
 5326 1bdb 02       		.uleb128 0x2
 5327 1bdc 7D       		.byte	0x7d
 5328 1bdd 0C       		.sleb128 12
 5329 1bde 02       		.uleb128 0x2
 5330 1bdf 76       		.byte	0x76
 5331 1be0 00       		.sleb128 0
 5332 1be1 4D       		.uleb128 0x4d
 5333 1be2 02       		.uleb128 0x2
 5334 1be3 7D       		.byte	0x7d
 5335 1be4 10       		.sleb128 16
 5336 1be5 02       		.uleb128 0x2
 5337 1be6 74       		.byte	0x74
 5338 1be7 00       		.sleb128 0
 5339 1be8 4D       		.uleb128 0x4d
 5340 1be9 02       		.uleb128 0x2
 5341 1bea 7D       		.byte	0x7d
 5342 1beb 14       		.sleb128 20
 5343 1bec 02       		.uleb128 0x2
 5344 1bed 74       		.byte	0x74
ARM GAS  C:\Users\jrdia\AppData\Local\Temp\ccJ9Fnzg.s 			page 113


 5345 1bee 00       		.sleb128 0
 5346 1bef 4D       		.uleb128 0x4d
 5347 1bf0 02       		.uleb128 0x2
 5348 1bf1 7D       		.byte	0x7d
 5349 1bf2 18       		.sleb128 24
 5350 1bf3 02       		.uleb128 0x2
 5351 1bf4 74       		.byte	0x74
 5352 1bf5 00       		.sleb128 0
 5353 1bf6 4D       		.uleb128 0x4d
 5354 1bf7 02       		.uleb128 0x2
 5355 1bf8 7D       		.byte	0x7d
 5356 1bf9 1C       		.sleb128 28
 5357 1bfa 02       		.uleb128 0x2
 5358 1bfb 74       		.byte	0x74
 5359 1bfc 00       		.sleb128 0
 5360 1bfd 00       		.byte	0
 5361 1bfe 00       		.byte	0
 5362 1bff 5A       		.uleb128 0x5a
 5363 1c00 97130000 		.4byte	0x1397
 5364 1c04 52000000 		.4byte	.LBB84
 5365 1c08 24000000 		.4byte	.LBE84-.LBB84
 5366 1c0c 03       		.byte	0x3
 5367 1c0d 3C01     		.2byte	0x13c
 5368 1c0f 831C0000 		.4byte	0x1c83
 5369 1c13 5B       		.uleb128 0x5b
 5370 1c14 C4130000 		.4byte	0x13c4
 5371 1c18 00       		.byte	0
 5372 1c19 46       		.uleb128 0x46
 5373 1c1a A5130000 		.4byte	0x13a5
 5374 1c1e 48070000 		.4byte	.LLST47
 5375 1c22 46       		.uleb128 0x46
 5376 1c23 A5130000 		.4byte	0x13a5
 5377 1c27 69070000 		.4byte	.LLST48
 5378 1c2b 59       		.uleb128 0x59
 5379 1c2c B9130000 		.4byte	0x13b9
 5380 1c30 5B       		.uleb128 0x5b
 5381 1c31 AE130000 		.4byte	0x13ae
 5382 1c35 04       		.byte	0x4
 5383 1c36 4C       		.uleb128 0x4c
 5384 1c37 72000000 		.4byte	.LVL98
 5385 1c3b 6E0A0000 		.4byte	0xa6e
 5386 1c3f 4D       		.uleb128 0x4d
 5387 1c40 01       		.uleb128 0x1
 5388 1c41 52       		.byte	0x52
 5389 1c42 02       		.uleb128 0x2
 5390 1c43 74       		.byte	0x74
 5391 1c44 00       		.sleb128 0
 5392 1c45 4D       		.uleb128 0x4d
 5393 1c46 01       		.uleb128 0x1
 5394 1c47 53       		.byte	0x53
 5395 1c48 02       		.uleb128 0x2
 5396 1c49 08       		.byte	0x8
 5397 1c4a 23       		.byte	0x23
 5398 1c4b 4D       		.uleb128 0x4d
 5399 1c4c 02       		.uleb128 0x2
 5400 1c4d 7D       		.byte	0x7d
 5401 1c4e 00       		.sleb128 0
ARM GAS  C:\Users\jrdia\AppData\Local\Temp\ccJ9Fnzg.s 			page 114


 5402 1c4f 01       		.uleb128 0x1
 5403 1c50 33       		.byte	0x33
 5404 1c51 4D       		.uleb128 0x4d
 5405 1c52 02       		.uleb128 0x2
 5406 1c53 7D       		.byte	0x7d
 5407 1c54 04       		.sleb128 4
 5408 1c55 01       		.uleb128 0x1
 5409 1c56 34       		.byte	0x34
 5410 1c57 4D       		.uleb128 0x4d
 5411 1c58 02       		.uleb128 0x2
 5412 1c59 7D       		.byte	0x7d
 5413 1c5a 08       		.sleb128 8
 5414 1c5b 02       		.uleb128 0x2
 5415 1c5c 74       		.byte	0x74
 5416 1c5d 00       		.sleb128 0
 5417 1c5e 4D       		.uleb128 0x4d
 5418 1c5f 02       		.uleb128 0x2
 5419 1c60 7D       		.byte	0x7d
 5420 1c61 0C       		.sleb128 12
 5421 1c62 02       		.uleb128 0x2
 5422 1c63 76       		.byte	0x76
 5423 1c64 00       		.sleb128 0
 5424 1c65 4D       		.uleb128 0x4d
 5425 1c66 02       		.uleb128 0x2
 5426 1c67 7D       		.byte	0x7d
 5427 1c68 10       		.sleb128 16
 5428 1c69 02       		.uleb128 0x2
 5429 1c6a 74       		.byte	0x74
 5430 1c6b 00       		.sleb128 0
 5431 1c6c 4D       		.uleb128 0x4d
 5432 1c6d 02       		.uleb128 0x2
 5433 1c6e 7D       		.byte	0x7d
 5434 1c6f 14       		.sleb128 20
 5435 1c70 02       		.uleb128 0x2
 5436 1c71 74       		.byte	0x74
 5437 1c72 00       		.sleb128 0
 5438 1c73 4D       		.uleb128 0x4d
 5439 1c74 02       		.uleb128 0x2
 5440 1c75 7D       		.byte	0x7d
 5441 1c76 18       		.sleb128 24
 5442 1c77 02       		.uleb128 0x2
 5443 1c78 74       		.byte	0x74
 5444 1c79 00       		.sleb128 0
 5445 1c7a 4D       		.uleb128 0x4d
 5446 1c7b 02       		.uleb128 0x2
 5447 1c7c 7D       		.byte	0x7d
 5448 1c7d 1C       		.sleb128 28
 5449 1c7e 02       		.uleb128 0x2
 5450 1c7f 74       		.byte	0x74
 5451 1c80 00       		.sleb128 0
 5452 1c81 00       		.byte	0
 5453 1c82 00       		.byte	0
 5454 1c83 4E       		.uleb128 0x4e
 5455 1c84 76000000 		.4byte	.LBB86
 5456 1c88 4C000000 		.4byte	.LBE86-.LBB86
 5457 1c8c 3B1D0000 		.4byte	0x1d3b
 5458 1c90 5C       		.uleb128 0x5c
ARM GAS  C:\Users\jrdia\AppData\Local\Temp\ccJ9Fnzg.s 			page 115


 5459 1c91 6900     		.ascii	"i\000"
 5460 1c93 03       		.byte	0x3
 5461 1c94 3F01     		.2byte	0x13f
 5462 1c96 94000000 		.4byte	0x94
 5463 1c9a 8A070000 		.4byte	.LLST49
 5464 1c9e 58       		.uleb128 0x58
 5465 1c9f 5E130000 		.4byte	0x135e
 5466 1ca3 76000000 		.4byte	.LBB87
 5467 1ca7 78000000 		.4byte	.Ldebug_ranges0+0x78
 5468 1cab 03       		.byte	0x3
 5469 1cac 4001     		.2byte	0x140
 5470 1cae 2A1D0000 		.4byte	0x1d2a
 5471 1cb2 46       		.uleb128 0x46
 5472 1cb3 6C130000 		.4byte	0x136c
 5473 1cb7 CB070000 		.4byte	.LLST50
 5474 1cbb 46       		.uleb128 0x46
 5475 1cbc 6C130000 		.4byte	0x136c
 5476 1cc0 EC070000 		.4byte	.LLST51
 5477 1cc4 46       		.uleb128 0x46
 5478 1cc5 8B130000 		.4byte	0x138b
 5479 1cc9 0D080000 		.4byte	.LLST52
 5480 1ccd 46       		.uleb128 0x46
 5481 1cce 80130000 		.4byte	0x1380
 5482 1cd2 20080000 		.4byte	.LLST53
 5483 1cd6 59       		.uleb128 0x59
 5484 1cd7 75130000 		.4byte	0x1375
 5485 1cdb 4C       		.uleb128 0x4c
 5486 1cdc 9E000000 		.4byte	.LVL100
 5487 1ce0 6E0A0000 		.4byte	0xa6e
 5488 1ce4 4D       		.uleb128 0x4d
 5489 1ce5 01       		.uleb128 0x1
 5490 1ce6 52       		.byte	0x52
 5491 1ce7 02       		.uleb128 0x2
 5492 1ce8 74       		.byte	0x74
 5493 1ce9 00       		.sleb128 0
 5494 1cea 4D       		.uleb128 0x4d
 5495 1ceb 01       		.uleb128 0x1
 5496 1cec 53       		.byte	0x53
 5497 1ced 02       		.uleb128 0x2
 5498 1cee 09       		.byte	0x9
 5499 1cef A3       		.byte	0xa3
 5500 1cf0 4D       		.uleb128 0x4d
 5501 1cf1 02       		.uleb128 0x2
 5502 1cf2 7D       		.byte	0x7d
 5503 1cf3 00       		.sleb128 0
 5504 1cf4 02       		.uleb128 0x2
 5505 1cf5 74       		.byte	0x74
 5506 1cf6 00       		.sleb128 0
 5507 1cf7 4D       		.uleb128 0x4d
 5508 1cf8 02       		.uleb128 0x2
 5509 1cf9 7D       		.byte	0x7d
 5510 1cfa 04       		.sleb128 4
 5511 1cfb 02       		.uleb128 0x2
 5512 1cfc 74       		.byte	0x74
 5513 1cfd 00       		.sleb128 0
 5514 1cfe 4D       		.uleb128 0x4d
 5515 1cff 02       		.uleb128 0x2
ARM GAS  C:\Users\jrdia\AppData\Local\Temp\ccJ9Fnzg.s 			page 116


 5516 1d00 7D       		.byte	0x7d
 5517 1d01 08       		.sleb128 8
 5518 1d02 02       		.uleb128 0x2
 5519 1d03 74       		.byte	0x74
 5520 1d04 00       		.sleb128 0
 5521 1d05 4D       		.uleb128 0x4d
 5522 1d06 02       		.uleb128 0x2
 5523 1d07 7D       		.byte	0x7d
 5524 1d08 0C       		.sleb128 12
 5525 1d09 02       		.uleb128 0x2
 5526 1d0a 76       		.byte	0x76
 5527 1d0b 00       		.sleb128 0
 5528 1d0c 4D       		.uleb128 0x4d
 5529 1d0d 02       		.uleb128 0x2
 5530 1d0e 7D       		.byte	0x7d
 5531 1d0f 10       		.sleb128 16
 5532 1d10 02       		.uleb128 0x2
 5533 1d11 79       		.byte	0x79
 5534 1d12 00       		.sleb128 0
 5535 1d13 4D       		.uleb128 0x4d
 5536 1d14 02       		.uleb128 0x2
 5537 1d15 7D       		.byte	0x7d
 5538 1d16 14       		.sleb128 20
 5539 1d17 02       		.uleb128 0x2
 5540 1d18 79       		.byte	0x79
 5541 1d19 00       		.sleb128 0
 5542 1d1a 4D       		.uleb128 0x4d
 5543 1d1b 02       		.uleb128 0x2
 5544 1d1c 7D       		.byte	0x7d
 5545 1d1d 18       		.sleb128 24
 5546 1d1e 02       		.uleb128 0x2
 5547 1d1f 77       		.byte	0x77
 5548 1d20 00       		.sleb128 0
 5549 1d21 4D       		.uleb128 0x4d
 5550 1d22 02       		.uleb128 0x2
 5551 1d23 7D       		.byte	0x7d
 5552 1d24 1C       		.sleb128 28
 5553 1d25 02       		.uleb128 0x2
 5554 1d26 74       		.byte	0x74
 5555 1d27 00       		.sleb128 0
 5556 1d28 00       		.byte	0
 5557 1d29 00       		.byte	0
 5558 1d2a 4C       		.uleb128 0x4c
 5559 1d2b B4000000 		.4byte	.LVL102
 5560 1d2f 3C260000 		.4byte	0x263c
 5561 1d33 4D       		.uleb128 0x4d
 5562 1d34 01       		.uleb128 0x1
 5563 1d35 50       		.byte	0x50
 5564 1d36 02       		.uleb128 0x2
 5565 1d37 08       		.byte	0x8
 5566 1d38 64       		.byte	0x64
 5567 1d39 00       		.byte	0
 5568 1d3a 00       		.byte	0
 5569 1d3b 5A       		.uleb128 0x5a
 5570 1d3c E7120000 		.4byte	0x12e7
 5571 1d40 C2000000 		.4byte	.LBB91
 5572 1d44 22000000 		.4byte	.LBE91-.LBB91
ARM GAS  C:\Users\jrdia\AppData\Local\Temp\ccJ9Fnzg.s 			page 117


 5573 1d48 03       		.byte	0x3
 5574 1d49 4701     		.2byte	0x147
 5575 1d4b C61D0000 		.4byte	0x1dc6
 5576 1d4f 46       		.uleb128 0x46
 5577 1d50 14130000 		.4byte	0x1314
 5578 1d54 34080000 		.4byte	.LLST54
 5579 1d58 46       		.uleb128 0x46
 5580 1d59 F5120000 		.4byte	0x12f5
 5581 1d5d 48080000 		.4byte	.LLST55
 5582 1d61 46       		.uleb128 0x46
 5583 1d62 F5120000 		.4byte	0x12f5
 5584 1d66 69080000 		.4byte	.LLST56
 5585 1d6a 59       		.uleb128 0x59
 5586 1d6b 09130000 		.4byte	0x1309
 5587 1d6f 46       		.uleb128 0x46
 5588 1d70 FE120000 		.4byte	0x12fe
 5589 1d74 8A080000 		.4byte	.LLST57
 5590 1d78 4C       		.uleb128 0x4c
 5591 1d79 E4000000 		.4byte	.LVL105
 5592 1d7d 6E0A0000 		.4byte	0xa6e
 5593 1d81 4D       		.uleb128 0x4d
 5594 1d82 01       		.uleb128 0x1
 5595 1d83 52       		.byte	0x52
 5596 1d84 02       		.uleb128 0x2
 5597 1d85 74       		.byte	0x74
 5598 1d86 00       		.sleb128 0
 5599 1d87 4D       		.uleb128 0x4d
 5600 1d88 01       		.uleb128 0x1
 5601 1d89 53       		.byte	0x53
 5602 1d8a 02       		.uleb128 0x2
 5603 1d8b 08       		.byte	0x8
 5604 1d8c 23       		.byte	0x23
 5605 1d8d 4D       		.uleb128 0x4d
 5606 1d8e 02       		.uleb128 0x2
 5607 1d8f 7D       		.byte	0x7d
 5608 1d90 00       		.sleb128 0
 5609 1d91 02       		.uleb128 0x2
 5610 1d92 77       		.byte	0x77
 5611 1d93 00       		.sleb128 0
 5612 1d94 4D       		.uleb128 0x4d
 5613 1d95 02       		.uleb128 0x2
 5614 1d96 7D       		.byte	0x7d
 5615 1d97 04       		.sleb128 4
 5616 1d98 01       		.uleb128 0x1
 5617 1d99 44       		.byte	0x44
 5618 1d9a 4D       		.uleb128 0x4d
 5619 1d9b 02       		.uleb128 0x2
 5620 1d9c 7D       		.byte	0x7d
 5621 1d9d 08       		.sleb128 8
 5622 1d9e 02       		.uleb128 0x2
 5623 1d9f 74       		.byte	0x74
 5624 1da0 00       		.sleb128 0
 5625 1da1 4D       		.uleb128 0x4d
 5626 1da2 02       		.uleb128 0x2
 5627 1da3 7D       		.byte	0x7d
 5628 1da4 0C       		.sleb128 12
 5629 1da5 02       		.uleb128 0x2
ARM GAS  C:\Users\jrdia\AppData\Local\Temp\ccJ9Fnzg.s 			page 118


 5630 1da6 76       		.byte	0x76
 5631 1da7 00       		.sleb128 0
 5632 1da8 4D       		.uleb128 0x4d
 5633 1da9 02       		.uleb128 0x2
 5634 1daa 7D       		.byte	0x7d
 5635 1dab 10       		.sleb128 16
 5636 1dac 02       		.uleb128 0x2
 5637 1dad 74       		.byte	0x74
 5638 1dae 00       		.sleb128 0
 5639 1daf 4D       		.uleb128 0x4d
 5640 1db0 02       		.uleb128 0x2
 5641 1db1 7D       		.byte	0x7d
 5642 1db2 14       		.sleb128 20
 5643 1db3 02       		.uleb128 0x2
 5644 1db4 74       		.byte	0x74
 5645 1db5 00       		.sleb128 0
 5646 1db6 4D       		.uleb128 0x4d
 5647 1db7 02       		.uleb128 0x2
 5648 1db8 7D       		.byte	0x7d
 5649 1db9 18       		.sleb128 24
 5650 1dba 02       		.uleb128 0x2
 5651 1dbb 74       		.byte	0x74
 5652 1dbc 00       		.sleb128 0
 5653 1dbd 4D       		.uleb128 0x4d
 5654 1dbe 02       		.uleb128 0x2
 5655 1dbf 7D       		.byte	0x7d
 5656 1dc0 1C       		.sleb128 28
 5657 1dc1 02       		.uleb128 0x2
 5658 1dc2 74       		.byte	0x74
 5659 1dc3 00       		.sleb128 0
 5660 1dc4 00       		.byte	0
 5661 1dc5 00       		.byte	0
 5662 1dc6 5A       		.uleb128 0x5a
 5663 1dc7 E7120000 		.4byte	0x12e7
 5664 1dcb E4000000 		.4byte	.LBB93
 5665 1dcf 1E000000 		.4byte	.LBE93-.LBB93
 5666 1dd3 03       		.byte	0x3
 5667 1dd4 4801     		.2byte	0x148
 5668 1dd6 511E0000 		.4byte	0x1e51
 5669 1dda 46       		.uleb128 0x46
 5670 1ddb 14130000 		.4byte	0x1314
 5671 1ddf 9E080000 		.4byte	.LLST58
 5672 1de3 46       		.uleb128 0x46
 5673 1de4 F5120000 		.4byte	0x12f5
 5674 1de8 B2080000 		.4byte	.LLST59
 5675 1dec 46       		.uleb128 0x46
 5676 1ded F5120000 		.4byte	0x12f5
 5677 1df1 D3080000 		.4byte	.LLST60
 5678 1df5 59       		.uleb128 0x59
 5679 1df6 09130000 		.4byte	0x1309
 5680 1dfa 46       		.uleb128 0x46
 5681 1dfb FE120000 		.4byte	0x12fe
 5682 1dff F4080000 		.4byte	.LLST61
 5683 1e03 4C       		.uleb128 0x4c
 5684 1e04 02010000 		.4byte	.LVL106
 5685 1e08 6E0A0000 		.4byte	0xa6e
 5686 1e0c 4D       		.uleb128 0x4d
ARM GAS  C:\Users\jrdia\AppData\Local\Temp\ccJ9Fnzg.s 			page 119


 5687 1e0d 01       		.uleb128 0x1
 5688 1e0e 52       		.byte	0x52
 5689 1e0f 02       		.uleb128 0x2
 5690 1e10 74       		.byte	0x74
 5691 1e11 00       		.sleb128 0
 5692 1e12 4D       		.uleb128 0x4d
 5693 1e13 01       		.uleb128 0x1
 5694 1e14 53       		.byte	0x53
 5695 1e15 02       		.uleb128 0x2
 5696 1e16 08       		.byte	0x8
 5697 1e17 23       		.byte	0x23
 5698 1e18 4D       		.uleb128 0x4d
 5699 1e19 02       		.uleb128 0x2
 5700 1e1a 7D       		.byte	0x7d
 5701 1e1b 00       		.sleb128 0
 5702 1e1c 02       		.uleb128 0x2
 5703 1e1d 77       		.byte	0x77
 5704 1e1e 00       		.sleb128 0
 5705 1e1f 4D       		.uleb128 0x4d
 5706 1e20 02       		.uleb128 0x2
 5707 1e21 7D       		.byte	0x7d
 5708 1e22 04       		.sleb128 4
 5709 1e23 01       		.uleb128 0x1
 5710 1e24 40       		.byte	0x40
 5711 1e25 4D       		.uleb128 0x4d
 5712 1e26 02       		.uleb128 0x2
 5713 1e27 7D       		.byte	0x7d
 5714 1e28 08       		.sleb128 8
 5715 1e29 02       		.uleb128 0x2
 5716 1e2a 74       		.byte	0x74
 5717 1e2b 00       		.sleb128 0
 5718 1e2c 4D       		.uleb128 0x4d
 5719 1e2d 02       		.uleb128 0x2
 5720 1e2e 7D       		.byte	0x7d
 5721 1e2f 0C       		.sleb128 12
 5722 1e30 02       		.uleb128 0x2
 5723 1e31 76       		.byte	0x76
 5724 1e32 00       		.sleb128 0
 5725 1e33 4D       		.uleb128 0x4d
 5726 1e34 02       		.uleb128 0x2
 5727 1e35 7D       		.byte	0x7d
 5728 1e36 10       		.sleb128 16
 5729 1e37 02       		.uleb128 0x2
 5730 1e38 74       		.byte	0x74
 5731 1e39 00       		.sleb128 0
 5732 1e3a 4D       		.uleb128 0x4d
 5733 1e3b 02       		.uleb128 0x2
 5734 1e3c 7D       		.byte	0x7d
 5735 1e3d 14       		.sleb128 20
 5736 1e3e 02       		.uleb128 0x2
 5737 1e3f 74       		.byte	0x74
 5738 1e40 00       		.sleb128 0
 5739 1e41 4D       		.uleb128 0x4d
 5740 1e42 02       		.uleb128 0x2
 5741 1e43 7D       		.byte	0x7d
 5742 1e44 18       		.sleb128 24
 5743 1e45 02       		.uleb128 0x2
ARM GAS  C:\Users\jrdia\AppData\Local\Temp\ccJ9Fnzg.s 			page 120


 5744 1e46 74       		.byte	0x74
 5745 1e47 00       		.sleb128 0
 5746 1e48 4D       		.uleb128 0x4d
 5747 1e49 02       		.uleb128 0x2
 5748 1e4a 7D       		.byte	0x7d
 5749 1e4b 1C       		.sleb128 28
 5750 1e4c 02       		.uleb128 0x2
 5751 1e4d 74       		.byte	0x74
 5752 1e4e 00       		.sleb128 0
 5753 1e4f 00       		.byte	0
 5754 1e50 00       		.byte	0
 5755 1e51 4C       		.uleb128 0x4c
 5756 1e52 08010000 		.4byte	.LVL107
 5757 1e56 3C260000 		.4byte	0x263c
 5758 1e5a 4D       		.uleb128 0x4d
 5759 1e5b 01       		.uleb128 0x1
 5760 1e5c 50       		.byte	0x50
 5761 1e5d 01       		.uleb128 0x1
 5762 1e5e 44       		.byte	0x44
 5763 1e5f 00       		.byte	0
 5764 1e60 00       		.byte	0
 5765 1e61 36       		.uleb128 0x36
 5766 1e62 E20F0000 		.4byte	0xfe2
 5767 1e66 00       		.byte	0
 5768 1e67 6F1E0000 		.4byte	0x1e6f
 5769 1e6b 821E0000 		.4byte	0x1e82
 5770 1e6f 37       		.uleb128 0x37
 5771 1e70 F1080000 		.4byte	.LASF249
 5772 1e74 20130000 		.4byte	0x1320
 5773 1e78 38       		.uleb128 0x38
 5774 1e79 7000     		.ascii	"p\000"
 5775 1e7b 03       		.byte	0x3
 5776 1e7c 15       		.byte	0x15
 5777 1e7d D10D0000 		.4byte	0xdd1
 5778 1e81 00       		.byte	0
 5779 1e82 5D       		.uleb128 0x5d
 5780 1e83 611E0000 		.4byte	0x1e61
 5781 1e87 92140000 		.4byte	.LASF270
 5782 1e8b 00000000 		.4byte	.LFB227
 5783 1e8f 68000000 		.4byte	.LFE227-.LFB227
 5784 1e93 01       		.uleb128 0x1
 5785 1e94 9C       		.byte	0x9c
 5786 1e95 9D1E0000 		.4byte	0x1e9d
 5787 1e99 DD1E0000 		.4byte	0x1edd
 5788 1e9d 51       		.uleb128 0x51
 5789 1e9e 6F1E0000 		.4byte	0x1e6f
 5790 1ea2 01       		.uleb128 0x1
 5791 1ea3 50       		.byte	0x50
 5792 1ea4 51       		.uleb128 0x51
 5793 1ea5 781E0000 		.4byte	0x1e78
 5794 1ea9 01       		.uleb128 0x1
 5795 1eaa 51       		.byte	0x51
 5796 1eab 45       		.uleb128 0x45
 5797 1eac EF130000 		.4byte	0x13ef
 5798 1eb0 4A000000 		.4byte	.LBB96
 5799 1eb4 90000000 		.4byte	.Ldebug_ranges0+0x90
 5800 1eb8 03       		.byte	0x3
ARM GAS  C:\Users\jrdia\AppData\Local\Temp\ccJ9Fnzg.s 			page 121


 5801 1eb9 29       		.byte	0x29
 5802 1eba 46       		.uleb128 0x46
 5803 1ebb 06140000 		.4byte	0x1406
 5804 1ebf 08090000 		.4byte	.LLST62
 5805 1ec3 46       		.uleb128 0x46
 5806 1ec4 FD130000 		.4byte	0x13fd
 5807 1ec8 26090000 		.4byte	.LLST63
 5808 1ecc 5E       		.uleb128 0x5e
 5809 1ecd 90000000 		.4byte	.Ldebug_ranges0+0x90
 5810 1ed1 5F       		.uleb128 0x5f
 5811 1ed2 12140000 		.4byte	0x1412
 5812 1ed6 44090000 		.4byte	.LLST64
 5813 1eda 00       		.byte	0
 5814 1edb 00       		.byte	0
 5815 1edc 00       		.byte	0
 5816 1edd 3E       		.uleb128 0x3e
 5817 1ede BA0F0000 		.4byte	0xfba
 5818 1ee2 00000000 		.4byte	.LFB234
 5819 1ee6 B0010000 		.4byte	.LFE234-.LFB234
 5820 1eea 01       		.uleb128 0x1
 5821 1eeb 9C       		.byte	0x9c
 5822 1eec F41E0000 		.4byte	0x1ef4
 5823 1ef0 3A230000 		.4byte	0x233a
 5824 1ef4 3F       		.uleb128 0x3f
 5825 1ef5 F1080000 		.4byte	.LASF249
 5826 1ef9 20130000 		.4byte	0x1320
 5827 1efd 7B090000 		.4byte	.LLST65
 5828 1f01 55       		.uleb128 0x55
 5829 1f02 2C110000 		.4byte	.LASF250
 5830 1f06 03       		.byte	0x3
 5831 1f07 4C01     		.2byte	0x14c
 5832 1f09 AD000000 		.4byte	0xad
 5833 1f0d D3090000 		.4byte	.LLST66
 5834 1f11 60       		.uleb128 0x60
 5835 1f12 65767400 		.ascii	"evt\000"
 5836 1f16 03       		.byte	0x3
 5837 1f17 4C01     		.2byte	0x14c
 5838 1f19 3A230000 		.4byte	0x233a
 5839 1f1d 260A0000 		.4byte	.LLST67
 5840 1f21 5E       		.uleb128 0x5e
 5841 1f22 A8000000 		.4byte	.Ldebug_ranges0+0xa8
 5842 1f26 61       		.uleb128 0x61
 5843 1f27 6100     		.ascii	"a\000"
 5844 1f29 03       		.byte	0x3
 5845 1f2a 6001     		.2byte	0x160
 5846 1f2c A2010000 		.4byte	0x1a2
 5847 1f30 5A       		.uleb128 0x5a
 5848 1f31 E7120000 		.4byte	0x12e7
 5849 1f35 36000000 		.4byte	.LBB119
 5850 1f39 26000000 		.4byte	.LBE119-.LBB119
 5851 1f3d 03       		.byte	0x3
 5852 1f3e 5C01     		.2byte	0x15c
 5853 1f40 BF1F0000 		.4byte	0x1fbf
 5854 1f44 46       		.uleb128 0x46
 5855 1f45 14130000 		.4byte	0x1314
 5856 1f49 760A0000 		.4byte	.LLST68
 5857 1f4d 46       		.uleb128 0x46
ARM GAS  C:\Users\jrdia\AppData\Local\Temp\ccJ9Fnzg.s 			page 122


 5858 1f4e F5120000 		.4byte	0x12f5
 5859 1f52 8A0A0000 		.4byte	.LLST69
 5860 1f56 46       		.uleb128 0x46
 5861 1f57 F5120000 		.4byte	0x12f5
 5862 1f5b 8A0A0000 		.4byte	.LLST69
 5863 1f5f 46       		.uleb128 0x46
 5864 1f60 09130000 		.4byte	0x1309
 5865 1f64 A80A0000 		.4byte	.LLST71
 5866 1f68 46       		.uleb128 0x46
 5867 1f69 FE120000 		.4byte	0x12fe
 5868 1f6d C60A0000 		.4byte	.LLST72
 5869 1f71 4C       		.uleb128 0x4c
 5870 1f72 5C000000 		.4byte	.LVL123
 5871 1f76 6E0A0000 		.4byte	0xa6e
 5872 1f7a 4D       		.uleb128 0x4d
 5873 1f7b 01       		.uleb128 0x1
 5874 1f7c 52       		.byte	0x52
 5875 1f7d 02       		.uleb128 0x2
 5876 1f7e 74       		.byte	0x74
 5877 1f7f 00       		.sleb128 0
 5878 1f80 4D       		.uleb128 0x4d
 5879 1f81 01       		.uleb128 0x1
 5880 1f82 53       		.byte	0x53
 5881 1f83 02       		.uleb128 0x2
 5882 1f84 08       		.byte	0x8
 5883 1f85 23       		.byte	0x23
 5884 1f86 4D       		.uleb128 0x4d
 5885 1f87 02       		.uleb128 0x2
 5886 1f88 7D       		.byte	0x7d
 5887 1f89 00       		.sleb128 0
 5888 1f8a 02       		.uleb128 0x2
 5889 1f8b 75       		.byte	0x75
 5890 1f8c 00       		.sleb128 0
 5891 1f8d 4D       		.uleb128 0x4d
 5892 1f8e 02       		.uleb128 0x2
 5893 1f8f 7D       		.byte	0x7d
 5894 1f90 04       		.sleb128 4
 5895 1f91 01       		.uleb128 0x1
 5896 1f92 41       		.byte	0x41
 5897 1f93 4D       		.uleb128 0x4d
 5898 1f94 02       		.uleb128 0x2
 5899 1f95 7D       		.byte	0x7d
 5900 1f96 08       		.sleb128 8
 5901 1f97 02       		.uleb128 0x2
 5902 1f98 74       		.byte	0x74
 5903 1f99 00       		.sleb128 0
 5904 1f9a 4D       		.uleb128 0x4d
 5905 1f9b 02       		.uleb128 0x2
 5906 1f9c 7D       		.byte	0x7d
 5907 1f9d 0C       		.sleb128 12
 5908 1f9e 02       		.uleb128 0x2
 5909 1f9f 78       		.byte	0x78
 5910 1fa0 00       		.sleb128 0
 5911 1fa1 4D       		.uleb128 0x4d
 5912 1fa2 02       		.uleb128 0x2
 5913 1fa3 7D       		.byte	0x7d
 5914 1fa4 10       		.sleb128 16
ARM GAS  C:\Users\jrdia\AppData\Local\Temp\ccJ9Fnzg.s 			page 123


 5915 1fa5 02       		.uleb128 0x2
 5916 1fa6 74       		.byte	0x74
 5917 1fa7 00       		.sleb128 0
 5918 1fa8 4D       		.uleb128 0x4d
 5919 1fa9 02       		.uleb128 0x2
 5920 1faa 7D       		.byte	0x7d
 5921 1fab 14       		.sleb128 20
 5922 1fac 02       		.uleb128 0x2
 5923 1fad 74       		.byte	0x74
 5924 1fae 00       		.sleb128 0
 5925 1faf 4D       		.uleb128 0x4d
 5926 1fb0 02       		.uleb128 0x2
 5927 1fb1 7D       		.byte	0x7d
 5928 1fb2 18       		.sleb128 24
 5929 1fb3 02       		.uleb128 0x2
 5930 1fb4 74       		.byte	0x74
 5931 1fb5 00       		.sleb128 0
 5932 1fb6 4D       		.uleb128 0x4d
 5933 1fb7 02       		.uleb128 0x2
 5934 1fb8 7D       		.byte	0x7d
 5935 1fb9 1C       		.sleb128 28
 5936 1fba 02       		.uleb128 0x2
 5937 1fbb 74       		.byte	0x74
 5938 1fbc 00       		.sleb128 0
 5939 1fbd 00       		.byte	0
 5940 1fbe 00       		.byte	0
 5941 1fbf 5A       		.uleb128 0x5a
 5942 1fc0 E7120000 		.4byte	0x12e7
 5943 1fc4 5C000000 		.4byte	.LBB121
 5944 1fc8 20000000 		.4byte	.LBE121-.LBB121
 5945 1fcc 03       		.byte	0x3
 5946 1fcd 5D01     		.2byte	0x15d
 5947 1fcf 4E200000 		.4byte	0x204e
 5948 1fd3 46       		.uleb128 0x46
 5949 1fd4 14130000 		.4byte	0x1314
 5950 1fd8 DA0A0000 		.4byte	.LLST73
 5951 1fdc 46       		.uleb128 0x46
 5952 1fdd F5120000 		.4byte	0x12f5
 5953 1fe1 EE0A0000 		.4byte	.LLST74
 5954 1fe5 46       		.uleb128 0x46
 5955 1fe6 F5120000 		.4byte	0x12f5
 5956 1fea EE0A0000 		.4byte	.LLST74
 5957 1fee 46       		.uleb128 0x46
 5958 1fef 09130000 		.4byte	0x1309
 5959 1ff3 010B0000 		.4byte	.LLST76
 5960 1ff7 46       		.uleb128 0x46
 5961 1ff8 FE120000 		.4byte	0x12fe
 5962 1ffc 140B0000 		.4byte	.LLST77
 5963 2000 4C       		.uleb128 0x4c
 5964 2001 7C000000 		.4byte	.LVL124
 5965 2005 6E0A0000 		.4byte	0xa6e
 5966 2009 4D       		.uleb128 0x4d
 5967 200a 01       		.uleb128 0x1
 5968 200b 52       		.byte	0x52
 5969 200c 02       		.uleb128 0x2
 5970 200d 74       		.byte	0x74
 5971 200e 00       		.sleb128 0
ARM GAS  C:\Users\jrdia\AppData\Local\Temp\ccJ9Fnzg.s 			page 124


 5972 200f 4D       		.uleb128 0x4d
 5973 2010 01       		.uleb128 0x1
 5974 2011 53       		.byte	0x53
 5975 2012 02       		.uleb128 0x2
 5976 2013 08       		.byte	0x8
 5977 2014 23       		.byte	0x23
 5978 2015 4D       		.uleb128 0x4d
 5979 2016 02       		.uleb128 0x2
 5980 2017 7D       		.byte	0x7d
 5981 2018 00       		.sleb128 0
 5982 2019 02       		.uleb128 0x2
 5983 201a 75       		.byte	0x75
 5984 201b 00       		.sleb128 0
 5985 201c 4D       		.uleb128 0x4d
 5986 201d 02       		.uleb128 0x2
 5987 201e 7D       		.byte	0x7d
 5988 201f 04       		.sleb128 4
 5989 2020 01       		.uleb128 0x1
 5990 2021 40       		.byte	0x40
 5991 2022 4D       		.uleb128 0x4d
 5992 2023 02       		.uleb128 0x2
 5993 2024 7D       		.byte	0x7d
 5994 2025 08       		.sleb128 8
 5995 2026 02       		.uleb128 0x2
 5996 2027 74       		.byte	0x74
 5997 2028 00       		.sleb128 0
 5998 2029 4D       		.uleb128 0x4d
 5999 202a 02       		.uleb128 0x2
 6000 202b 7D       		.byte	0x7d
 6001 202c 0C       		.sleb128 12
 6002 202d 02       		.uleb128 0x2
 6003 202e 78       		.byte	0x78
 6004 202f 00       		.sleb128 0
 6005 2030 4D       		.uleb128 0x4d
 6006 2031 02       		.uleb128 0x2
 6007 2032 7D       		.byte	0x7d
 6008 2033 10       		.sleb128 16
 6009 2034 02       		.uleb128 0x2
 6010 2035 74       		.byte	0x74
 6011 2036 00       		.sleb128 0
 6012 2037 4D       		.uleb128 0x4d
 6013 2038 02       		.uleb128 0x2
 6014 2039 7D       		.byte	0x7d
 6015 203a 14       		.sleb128 20
 6016 203b 02       		.uleb128 0x2
 6017 203c 74       		.byte	0x74
 6018 203d 00       		.sleb128 0
 6019 203e 4D       		.uleb128 0x4d
 6020 203f 02       		.uleb128 0x2
 6021 2040 7D       		.byte	0x7d
 6022 2041 18       		.sleb128 24
 6023 2042 02       		.uleb128 0x2
 6024 2043 74       		.byte	0x74
 6025 2044 00       		.sleb128 0
 6026 2045 4D       		.uleb128 0x4d
 6027 2046 02       		.uleb128 0x2
 6028 2047 7D       		.byte	0x7d
ARM GAS  C:\Users\jrdia\AppData\Local\Temp\ccJ9Fnzg.s 			page 125


 6029 2048 1C       		.sleb128 28
 6030 2049 02       		.uleb128 0x2
 6031 204a 74       		.byte	0x74
 6032 204b 00       		.sleb128 0
 6033 204c 00       		.byte	0
 6034 204d 00       		.byte	0
 6035 204e 5A       		.uleb128 0x5a
 6036 204f E7120000 		.4byte	0x12e7
 6037 2053 AE000000 		.4byte	.LBB123
 6038 2057 24000000 		.4byte	.LBE123-.LBB123
 6039 205b 03       		.byte	0x3
 6040 205c 5401     		.2byte	0x154
 6041 205e DD200000 		.4byte	0x20dd
 6042 2062 46       		.uleb128 0x46
 6043 2063 14130000 		.4byte	0x1314
 6044 2067 280B0000 		.4byte	.LLST78
 6045 206b 46       		.uleb128 0x46
 6046 206c F5120000 		.4byte	0x12f5
 6047 2070 3C0B0000 		.4byte	.LLST79
 6048 2074 46       		.uleb128 0x46
 6049 2075 F5120000 		.4byte	0x12f5
 6050 2079 3C0B0000 		.4byte	.LLST79
 6051 207d 46       		.uleb128 0x46
 6052 207e 09130000 		.4byte	0x1309
 6053 2082 5A0B0000 		.4byte	.LLST81
 6054 2086 46       		.uleb128 0x46
 6055 2087 FE120000 		.4byte	0x12fe
 6056 208b 6D0B0000 		.4byte	.LLST82
 6057 208f 4C       		.uleb128 0x4c
 6058 2090 D2000000 		.4byte	.LVL133
 6059 2094 6E0A0000 		.4byte	0xa6e
 6060 2098 4D       		.uleb128 0x4d
 6061 2099 01       		.uleb128 0x1
 6062 209a 52       		.byte	0x52
 6063 209b 02       		.uleb128 0x2
 6064 209c 74       		.byte	0x74
 6065 209d 00       		.sleb128 0
 6066 209e 4D       		.uleb128 0x4d
 6067 209f 01       		.uleb128 0x1
 6068 20a0 53       		.byte	0x53
 6069 20a1 02       		.uleb128 0x2
 6070 20a2 08       		.byte	0x8
 6071 20a3 23       		.byte	0x23
 6072 20a4 4D       		.uleb128 0x4d
 6073 20a5 02       		.uleb128 0x2
 6074 20a6 7D       		.byte	0x7d
 6075 20a7 00       		.sleb128 0
 6076 20a8 02       		.uleb128 0x2
 6077 20a9 77       		.byte	0x77
 6078 20aa 00       		.sleb128 0
 6079 20ab 4D       		.uleb128 0x4d
 6080 20ac 02       		.uleb128 0x2
 6081 20ad 7D       		.byte	0x7d
 6082 20ae 04       		.sleb128 4
 6083 20af 01       		.uleb128 0x1
 6084 20b0 41       		.byte	0x41
 6085 20b1 4D       		.uleb128 0x4d
ARM GAS  C:\Users\jrdia\AppData\Local\Temp\ccJ9Fnzg.s 			page 126


 6086 20b2 02       		.uleb128 0x2
 6087 20b3 7D       		.byte	0x7d
 6088 20b4 08       		.sleb128 8
 6089 20b5 02       		.uleb128 0x2
 6090 20b6 74       		.byte	0x74
 6091 20b7 00       		.sleb128 0
 6092 20b8 4D       		.uleb128 0x4d
 6093 20b9 02       		.uleb128 0x2
 6094 20ba 7D       		.byte	0x7d
 6095 20bb 0C       		.sleb128 12
 6096 20bc 02       		.uleb128 0x2
 6097 20bd 78       		.byte	0x78
 6098 20be 00       		.sleb128 0
 6099 20bf 4D       		.uleb128 0x4d
 6100 20c0 02       		.uleb128 0x2
 6101 20c1 7D       		.byte	0x7d
 6102 20c2 10       		.sleb128 16
 6103 20c3 02       		.uleb128 0x2
 6104 20c4 74       		.byte	0x74
 6105 20c5 00       		.sleb128 0
 6106 20c6 4D       		.uleb128 0x4d
 6107 20c7 02       		.uleb128 0x2
 6108 20c8 7D       		.byte	0x7d
 6109 20c9 14       		.sleb128 20
 6110 20ca 02       		.uleb128 0x2
 6111 20cb 74       		.byte	0x74
 6112 20cc 00       		.sleb128 0
 6113 20cd 4D       		.uleb128 0x4d
 6114 20ce 02       		.uleb128 0x2
 6115 20cf 7D       		.byte	0x7d
 6116 20d0 18       		.sleb128 24
 6117 20d1 02       		.uleb128 0x2
 6118 20d2 74       		.byte	0x74
 6119 20d3 00       		.sleb128 0
 6120 20d4 4D       		.uleb128 0x4d
 6121 20d5 02       		.uleb128 0x2
 6122 20d6 7D       		.byte	0x7d
 6123 20d7 1C       		.sleb128 28
 6124 20d8 02       		.uleb128 0x2
 6125 20d9 74       		.byte	0x74
 6126 20da 00       		.sleb128 0
 6127 20db 00       		.byte	0
 6128 20dc 00       		.byte	0
 6129 20dd 5A       		.uleb128 0x5a
 6130 20de E7120000 		.4byte	0x12e7
 6131 20e2 D2000000 		.4byte	.LBB125
 6132 20e6 20000000 		.4byte	.LBE125-.LBB125
 6133 20ea 03       		.byte	0x3
 6134 20eb 5501     		.2byte	0x155
 6135 20ed 68210000 		.4byte	0x2168
 6136 20f1 46       		.uleb128 0x46
 6137 20f2 14130000 		.4byte	0x1314
 6138 20f6 810B0000 		.4byte	.LLST83
 6139 20fa 46       		.uleb128 0x46
 6140 20fb F5120000 		.4byte	0x12f5
 6141 20ff 950B0000 		.4byte	.LLST84
 6142 2103 46       		.uleb128 0x46
ARM GAS  C:\Users\jrdia\AppData\Local\Temp\ccJ9Fnzg.s 			page 127


 6143 2104 F5120000 		.4byte	0x12f5
 6144 2108 950B0000 		.4byte	.LLST84
 6145 210c 59       		.uleb128 0x59
 6146 210d 09130000 		.4byte	0x1309
 6147 2111 46       		.uleb128 0x46
 6148 2112 FE120000 		.4byte	0x12fe
 6149 2116 A80B0000 		.4byte	.LLST86
 6150 211a 4C       		.uleb128 0x4c
 6151 211b F2000000 		.4byte	.LVL134
 6152 211f 6E0A0000 		.4byte	0xa6e
 6153 2123 4D       		.uleb128 0x4d
 6154 2124 01       		.uleb128 0x1
 6155 2125 52       		.byte	0x52
 6156 2126 02       		.uleb128 0x2
 6157 2127 74       		.byte	0x74
 6158 2128 00       		.sleb128 0
 6159 2129 4D       		.uleb128 0x4d
 6160 212a 01       		.uleb128 0x1
 6161 212b 53       		.byte	0x53
 6162 212c 02       		.uleb128 0x2
 6163 212d 08       		.byte	0x8
 6164 212e 23       		.byte	0x23
 6165 212f 4D       		.uleb128 0x4d
 6166 2130 02       		.uleb128 0x2
 6167 2131 7D       		.byte	0x7d
 6168 2132 00       		.sleb128 0
 6169 2133 02       		.uleb128 0x2
 6170 2134 77       		.byte	0x77
 6171 2135 00       		.sleb128 0
 6172 2136 4D       		.uleb128 0x4d
 6173 2137 02       		.uleb128 0x2
 6174 2138 7D       		.byte	0x7d
 6175 2139 04       		.sleb128 4
 6176 213a 01       		.uleb128 0x1
 6177 213b 40       		.byte	0x40
 6178 213c 4D       		.uleb128 0x4d
 6179 213d 02       		.uleb128 0x2
 6180 213e 7D       		.byte	0x7d
 6181 213f 08       		.sleb128 8
 6182 2140 02       		.uleb128 0x2
 6183 2141 74       		.byte	0x74
 6184 2142 00       		.sleb128 0
 6185 2143 4D       		.uleb128 0x4d
 6186 2144 02       		.uleb128 0x2
 6187 2145 7D       		.byte	0x7d
 6188 2146 0C       		.sleb128 12
 6189 2147 02       		.uleb128 0x2
 6190 2148 78       		.byte	0x78
 6191 2149 00       		.sleb128 0
 6192 214a 4D       		.uleb128 0x4d
 6193 214b 02       		.uleb128 0x2
 6194 214c 7D       		.byte	0x7d
 6195 214d 10       		.sleb128 16
 6196 214e 02       		.uleb128 0x2
 6197 214f 74       		.byte	0x74
 6198 2150 00       		.sleb128 0
 6199 2151 4D       		.uleb128 0x4d
ARM GAS  C:\Users\jrdia\AppData\Local\Temp\ccJ9Fnzg.s 			page 128


 6200 2152 02       		.uleb128 0x2
 6201 2153 7D       		.byte	0x7d
 6202 2154 14       		.sleb128 20
 6203 2155 02       		.uleb128 0x2
 6204 2156 74       		.byte	0x74
 6205 2157 00       		.sleb128 0
 6206 2158 4D       		.uleb128 0x4d
 6207 2159 02       		.uleb128 0x2
 6208 215a 7D       		.byte	0x7d
 6209 215b 18       		.sleb128 24
 6210 215c 02       		.uleb128 0x2
 6211 215d 74       		.byte	0x74
 6212 215e 00       		.sleb128 0
 6213 215f 4D       		.uleb128 0x4d
 6214 2160 02       		.uleb128 0x2
 6215 2161 7D       		.byte	0x7d
 6216 2162 1C       		.sleb128 28
 6217 2163 02       		.uleb128 0x2
 6218 2164 74       		.byte	0x74
 6219 2165 00       		.sleb128 0
 6220 2166 00       		.byte	0
 6221 2167 00       		.byte	0
 6222 2168 5A       		.uleb128 0x5a
 6223 2169 97130000 		.4byte	0x1397
 6224 216d F2000000 		.4byte	.LBB127
 6225 2171 22000000 		.4byte	.LBE127-.LBB127
 6226 2175 03       		.byte	0x3
 6227 2176 5601     		.2byte	0x156
 6228 2178 F2210000 		.4byte	0x21f2
 6229 217c 46       		.uleb128 0x46
 6230 217d C4130000 		.4byte	0x13c4
 6231 2181 BC0B0000 		.4byte	.LLST87
 6232 2185 46       		.uleb128 0x46
 6233 2186 A5130000 		.4byte	0x13a5
 6234 218a D00B0000 		.4byte	.LLST88
 6235 218e 46       		.uleb128 0x46
 6236 218f A5130000 		.4byte	0x13a5
 6237 2193 D00B0000 		.4byte	.LLST88
 6238 2197 59       		.uleb128 0x59
 6239 2198 B9130000 		.4byte	0x13b9
 6240 219c 46       		.uleb128 0x46
 6241 219d AE130000 		.4byte	0x13ae
 6242 21a1 E30B0000 		.4byte	.LLST90
 6243 21a5 4C       		.uleb128 0x4c
 6244 21a6 14010000 		.4byte	.LVL135
 6245 21aa 6E0A0000 		.4byte	0xa6e
 6246 21ae 4D       		.uleb128 0x4d
 6247 21af 01       		.uleb128 0x1
 6248 21b0 52       		.byte	0x52
 6249 21b1 02       		.uleb128 0x2
 6250 21b2 74       		.byte	0x74
 6251 21b3 00       		.sleb128 0
 6252 21b4 4D       		.uleb128 0x4d
 6253 21b5 01       		.uleb128 0x1
 6254 21b6 53       		.byte	0x53
 6255 21b7 02       		.uleb128 0x2
 6256 21b8 08       		.byte	0x8
ARM GAS  C:\Users\jrdia\AppData\Local\Temp\ccJ9Fnzg.s 			page 129


 6257 21b9 23       		.byte	0x23
 6258 21ba 4D       		.uleb128 0x4d
 6259 21bb 02       		.uleb128 0x2
 6260 21bc 7D       		.byte	0x7d
 6261 21bd 00       		.sleb128 0
 6262 21be 01       		.uleb128 0x1
 6263 21bf 33       		.byte	0x33
 6264 21c0 4D       		.uleb128 0x4d
 6265 21c1 02       		.uleb128 0x2
 6266 21c2 7D       		.byte	0x7d
 6267 21c3 04       		.sleb128 4
 6268 21c4 01       		.uleb128 0x1
 6269 21c5 34       		.byte	0x34
 6270 21c6 4D       		.uleb128 0x4d
 6271 21c7 02       		.uleb128 0x2
 6272 21c8 7D       		.byte	0x7d
 6273 21c9 08       		.sleb128 8
 6274 21ca 02       		.uleb128 0x2
 6275 21cb 74       		.byte	0x74
 6276 21cc 00       		.sleb128 0
 6277 21cd 4D       		.uleb128 0x4d
 6278 21ce 02       		.uleb128 0x2
 6279 21cf 7D       		.byte	0x7d
 6280 21d0 0C       		.sleb128 12
 6281 21d1 02       		.uleb128 0x2
 6282 21d2 78       		.byte	0x78
 6283 21d3 00       		.sleb128 0
 6284 21d4 4D       		.uleb128 0x4d
 6285 21d5 02       		.uleb128 0x2
 6286 21d6 7D       		.byte	0x7d
 6287 21d7 10       		.sleb128 16
 6288 21d8 02       		.uleb128 0x2
 6289 21d9 74       		.byte	0x74
 6290 21da 00       		.sleb128 0
 6291 21db 4D       		.uleb128 0x4d
 6292 21dc 02       		.uleb128 0x2
 6293 21dd 7D       		.byte	0x7d
 6294 21de 14       		.sleb128 20
 6295 21df 02       		.uleb128 0x2
 6296 21e0 74       		.byte	0x74
 6297 21e1 00       		.sleb128 0
 6298 21e2 4D       		.uleb128 0x4d
 6299 21e3 02       		.uleb128 0x2
 6300 21e4 7D       		.byte	0x7d
 6301 21e5 18       		.sleb128 24
 6302 21e6 02       		.uleb128 0x2
 6303 21e7 74       		.byte	0x74
 6304 21e8 00       		.sleb128 0
 6305 21e9 4D       		.uleb128 0x4d
 6306 21ea 02       		.uleb128 0x2
 6307 21eb 7D       		.byte	0x7d
 6308 21ec 1C       		.sleb128 28
 6309 21ed 02       		.uleb128 0x2
 6310 21ee 74       		.byte	0x74
 6311 21ef 00       		.sleb128 0
 6312 21f0 00       		.byte	0
 6313 21f1 00       		.byte	0
ARM GAS  C:\Users\jrdia\AppData\Local\Temp\ccJ9Fnzg.s 			page 130


 6314 21f2 5A       		.uleb128 0x5a
 6315 21f3 E7120000 		.4byte	0x12e7
 6316 21f7 2A010000 		.4byte	.LBB129
 6317 21fb 28000000 		.4byte	.LBE129-.LBB129
 6318 21ff 03       		.byte	0x3
 6319 2200 6B01     		.2byte	0x16b
 6320 2202 81220000 		.4byte	0x2281
 6321 2206 46       		.uleb128 0x46
 6322 2207 14130000 		.4byte	0x1314
 6323 220b F70B0000 		.4byte	.LLST91
 6324 220f 46       		.uleb128 0x46
 6325 2210 F5120000 		.4byte	0x12f5
 6326 2214 0B0C0000 		.4byte	.LLST92
 6327 2218 46       		.uleb128 0x46
 6328 2219 F5120000 		.4byte	0x12f5
 6329 221d 0B0C0000 		.4byte	.LLST92
 6330 2221 46       		.uleb128 0x46
 6331 2222 09130000 		.4byte	0x1309
 6332 2226 290C0000 		.4byte	.LLST94
 6333 222a 46       		.uleb128 0x46
 6334 222b FE120000 		.4byte	0x12fe
 6335 222f 470C0000 		.4byte	.LLST95
 6336 2233 4C       		.uleb128 0x4c
 6337 2234 52010000 		.4byte	.LVL140
 6338 2238 6E0A0000 		.4byte	0xa6e
 6339 223c 4D       		.uleb128 0x4d
 6340 223d 01       		.uleb128 0x1
 6341 223e 52       		.byte	0x52
 6342 223f 02       		.uleb128 0x2
 6343 2240 74       		.byte	0x74
 6344 2241 00       		.sleb128 0
 6345 2242 4D       		.uleb128 0x4d
 6346 2243 01       		.uleb128 0x1
 6347 2244 53       		.byte	0x53
 6348 2245 02       		.uleb128 0x2
 6349 2246 78       		.byte	0x78
 6350 2247 22       		.sleb128 34
 6351 2248 4D       		.uleb128 0x4d
 6352 2249 02       		.uleb128 0x2
 6353 224a 7D       		.byte	0x7d
 6354 224b 00       		.sleb128 0
 6355 224c 02       		.uleb128 0x2
 6356 224d 78       		.byte	0x78
 6357 224e 00       		.sleb128 0
 6358 224f 4D       		.uleb128 0x4d
 6359 2250 02       		.uleb128 0x2
 6360 2251 7D       		.byte	0x7d
 6361 2252 04       		.sleb128 4
 6362 2253 01       		.uleb128 0x1
 6363 2254 44       		.byte	0x44
 6364 2255 4D       		.uleb128 0x4d
 6365 2256 02       		.uleb128 0x2
 6366 2257 7D       		.byte	0x7d
 6367 2258 08       		.sleb128 8
 6368 2259 02       		.uleb128 0x2
 6369 225a 74       		.byte	0x74
 6370 225b 00       		.sleb128 0
ARM GAS  C:\Users\jrdia\AppData\Local\Temp\ccJ9Fnzg.s 			page 131


 6371 225c 4D       		.uleb128 0x4d
 6372 225d 02       		.uleb128 0x2
 6373 225e 7D       		.byte	0x7d
 6374 225f 0C       		.sleb128 12
 6375 2260 02       		.uleb128 0x2
 6376 2261 79       		.byte	0x79
 6377 2262 00       		.sleb128 0
 6378 2263 4D       		.uleb128 0x4d
 6379 2264 02       		.uleb128 0x2
 6380 2265 7D       		.byte	0x7d
 6381 2266 10       		.sleb128 16
 6382 2267 02       		.uleb128 0x2
 6383 2268 74       		.byte	0x74
 6384 2269 00       		.sleb128 0
 6385 226a 4D       		.uleb128 0x4d
 6386 226b 02       		.uleb128 0x2
 6387 226c 7D       		.byte	0x7d
 6388 226d 14       		.sleb128 20
 6389 226e 02       		.uleb128 0x2
 6390 226f 74       		.byte	0x74
 6391 2270 00       		.sleb128 0
 6392 2271 4D       		.uleb128 0x4d
 6393 2272 02       		.uleb128 0x2
 6394 2273 7D       		.byte	0x7d
 6395 2274 18       		.sleb128 24
 6396 2275 02       		.uleb128 0x2
 6397 2276 74       		.byte	0x74
 6398 2277 00       		.sleb128 0
 6399 2278 4D       		.uleb128 0x4d
 6400 2279 02       		.uleb128 0x2
 6401 227a 7D       		.byte	0x7d
 6402 227b 1C       		.sleb128 28
 6403 227c 02       		.uleb128 0x2
 6404 227d 74       		.byte	0x74
 6405 227e 00       		.sleb128 0
 6406 227f 00       		.byte	0
 6407 2280 00       		.byte	0
 6408 2281 5A       		.uleb128 0x5a
 6409 2282 E7120000 		.4byte	0x12e7
 6410 2286 52010000 		.4byte	.LBB131
 6411 228a 22000000 		.4byte	.LBE131-.LBB131
 6412 228e 03       		.byte	0x3
 6413 228f 6C01     		.2byte	0x16c
 6414 2291 0C230000 		.4byte	0x230c
 6415 2295 46       		.uleb128 0x46
 6416 2296 14130000 		.4byte	0x1314
 6417 229a 5B0C0000 		.4byte	.LLST96
 6418 229e 51       		.uleb128 0x51
 6419 229f F5120000 		.4byte	0x12f5
 6420 22a3 01       		.uleb128 0x1
 6421 22a4 56       		.byte	0x56
 6422 22a5 51       		.uleb128 0x51
 6423 22a6 F5120000 		.4byte	0x12f5
 6424 22aa 01       		.uleb128 0x1
 6425 22ab 56       		.byte	0x56
 6426 22ac 46       		.uleb128 0x46
 6427 22ad 09130000 		.4byte	0x1309
ARM GAS  C:\Users\jrdia\AppData\Local\Temp\ccJ9Fnzg.s 			page 132


 6428 22b1 6F0C0000 		.4byte	.LLST97
 6429 22b5 46       		.uleb128 0x46
 6430 22b6 FE120000 		.4byte	0x12fe
 6431 22ba 820C0000 		.4byte	.LLST98
 6432 22be 4C       		.uleb128 0x4c
 6433 22bf 74010000 		.4byte	.LVL141
 6434 22c3 6E0A0000 		.4byte	0xa6e
 6435 22c7 4D       		.uleb128 0x4d
 6436 22c8 01       		.uleb128 0x1
 6437 22c9 52       		.byte	0x52
 6438 22ca 02       		.uleb128 0x2
 6439 22cb 74       		.byte	0x74
 6440 22cc 00       		.sleb128 0
 6441 22cd 4D       		.uleb128 0x4d
 6442 22ce 01       		.uleb128 0x1
 6443 22cf 53       		.byte	0x53
 6444 22d0 02       		.uleb128 0x2
 6445 22d1 78       		.byte	0x78
 6446 22d2 22       		.sleb128 34
 6447 22d3 4D       		.uleb128 0x4d
 6448 22d4 02       		.uleb128 0x2
 6449 22d5 7D       		.byte	0x7d
 6450 22d6 00       		.sleb128 0
 6451 22d7 02       		.uleb128 0x2
 6452 22d8 78       		.byte	0x78
 6453 22d9 00       		.sleb128 0
 6454 22da 4D       		.uleb128 0x4d
 6455 22db 02       		.uleb128 0x2
 6456 22dc 7D       		.byte	0x7d
 6457 22dd 04       		.sleb128 4
 6458 22de 01       		.uleb128 0x1
 6459 22df 40       		.byte	0x40
 6460 22e0 4D       		.uleb128 0x4d
 6461 22e1 02       		.uleb128 0x2
 6462 22e2 7D       		.byte	0x7d
 6463 22e3 08       		.sleb128 8
 6464 22e4 02       		.uleb128 0x2
 6465 22e5 74       		.byte	0x74
 6466 22e6 00       		.sleb128 0
 6467 22e7 4D       		.uleb128 0x4d
 6468 22e8 02       		.uleb128 0x2
 6469 22e9 7D       		.byte	0x7d
 6470 22ea 0C       		.sleb128 12
 6471 22eb 02       		.uleb128 0x2
 6472 22ec 79       		.byte	0x79
 6473 22ed 00       		.sleb128 0
 6474 22ee 4D       		.uleb128 0x4d
 6475 22ef 02       		.uleb128 0x2
 6476 22f0 7D       		.byte	0x7d
 6477 22f1 10       		.sleb128 16
 6478 22f2 02       		.uleb128 0x2
 6479 22f3 74       		.byte	0x74
 6480 22f4 00       		.sleb128 0
 6481 22f5 4D       		.uleb128 0x4d
 6482 22f6 02       		.uleb128 0x2
 6483 22f7 7D       		.byte	0x7d
 6484 22f8 14       		.sleb128 20
ARM GAS  C:\Users\jrdia\AppData\Local\Temp\ccJ9Fnzg.s 			page 133


 6485 22f9 02       		.uleb128 0x2
 6486 22fa 74       		.byte	0x74
 6487 22fb 00       		.sleb128 0
 6488 22fc 4D       		.uleb128 0x4d
 6489 22fd 02       		.uleb128 0x2
 6490 22fe 7D       		.byte	0x7d
 6491 22ff 18       		.sleb128 24
 6492 2300 02       		.uleb128 0x2
 6493 2301 74       		.byte	0x74
 6494 2302 00       		.sleb128 0
 6495 2303 4D       		.uleb128 0x4d
 6496 2304 02       		.uleb128 0x2
 6497 2305 7D       		.byte	0x7d
 6498 2306 1C       		.sleb128 28
 6499 2307 02       		.uleb128 0x2
 6500 2308 74       		.byte	0x74
 6501 2309 00       		.sleb128 0
 6502 230a 00       		.byte	0
 6503 230b 00       		.byte	0
 6504 230c 62       		.uleb128 0x62
 6505 230d 92000000 		.4byte	.LVL126
 6506 2311 4A0A0000 		.4byte	0xa4a
 6507 2315 53       		.uleb128 0x53
 6508 2316 7A010000 		.4byte	.LVL142
 6509 231a 3C260000 		.4byte	0x263c
 6510 231e 28230000 		.4byte	0x2328
 6511 2322 4D       		.uleb128 0x4d
 6512 2323 01       		.uleb128 0x1
 6513 2324 50       		.byte	0x50
 6514 2325 01       		.uleb128 0x1
 6515 2326 44       		.byte	0x44
 6516 2327 00       		.byte	0
 6517 2328 4C       		.uleb128 0x4c
 6518 2329 90010000 		.4byte	.LVL143
 6519 232d 1C0A0000 		.4byte	0xa1c
 6520 2331 4D       		.uleb128 0x4d
 6521 2332 01       		.uleb128 0x1
 6522 2333 52       		.byte	0x52
 6523 2334 02       		.uleb128 0x2
 6524 2335 77       		.byte	0x77
 6525 2336 00       		.sleb128 0
 6526 2337 00       		.byte	0
 6527 2338 00       		.byte	0
 6528 2339 00       		.byte	0
 6529 233a 32       		.uleb128 0x32
 6530 233b 86120000 		.4byte	0x1286
 6531 233f 3E       		.uleb128 0x3e
 6532 2340 9D0F0000 		.4byte	0xf9d
 6533 2344 00000000 		.4byte	.LFB232
 6534 2348 22010000 		.4byte	.LFE232-.LFB232
 6535 234c 01       		.uleb128 0x1
 6536 234d 9C       		.byte	0x9c
 6537 234e 56230000 		.4byte	0x2356
 6538 2352 76250000 		.4byte	0x2576
 6539 2356 3F       		.uleb128 0x3f
 6540 2357 F1080000 		.4byte	.LASF249
 6541 235b 20130000 		.4byte	0x1320
ARM GAS  C:\Users\jrdia\AppData\Local\Temp\ccJ9Fnzg.s 			page 134


 6542 235f 960C0000 		.4byte	.LLST99
 6543 2363 4A       		.uleb128 0x4a
 6544 2364 09140000 		.4byte	.LASF255
 6545 2368 03       		.byte	0x3
 6546 2369 F3       		.byte	0xf3
 6547 236a AD000000 		.4byte	0xad
 6548 236e CD0C0000 		.4byte	.LLST100
 6549 2372 48       		.uleb128 0x48
 6550 2373 62756600 		.ascii	"buf\000"
 6551 2377 03       		.byte	0x3
 6552 2378 F4       		.byte	0xf4
 6553 2379 76250000 		.4byte	0x2576
 6554 237d 02       		.uleb128 0x2
 6555 237e 91       		.byte	0x91
 6556 237f 50       		.sleb128 -48
 6557 2380 4F       		.uleb128 0x4f
 6558 2381 550B0000 		.4byte	.LASF268
 6559 2385 03       		.byte	0x3
 6560 2386 F5       		.byte	0xf5
 6561 2387 B8000000 		.4byte	0xb8
 6562 238b 02       		.uleb128 0x2
 6563 238c 91       		.byte	0x91
 6564 238d 4A       		.sleb128 -54
 6565 238e 63       		.uleb128 0x63
 6566 238f C8000000 		.4byte	.Ldebug_ranges0+0xc8
 6567 2393 78240000 		.4byte	0x2478
 6568 2397 57       		.uleb128 0x57
 6569 2398 2C110000 		.4byte	.LASF250
 6570 239c 03       		.byte	0x3
 6571 239d 0701     		.2byte	0x107
 6572 239f AD000000 		.4byte	0xad
 6573 23a3 2D0D0000 		.4byte	.LLST101
 6574 23a7 57       		.uleb128 0x57
 6575 23a8 A00A0000 		.4byte	.LASF269
 6576 23ac 03       		.byte	0x3
 6577 23ad 0701     		.2byte	0x107
 6578 23af AD000000 		.4byte	0xad
 6579 23b3 4B0D0000 		.4byte	.LLST102
 6580 23b7 5E       		.uleb128 0x5e
 6581 23b8 E0000000 		.4byte	.Ldebug_ranges0+0xe0
 6582 23bc 56       		.uleb128 0x56
 6583 23bd 65767400 		.ascii	"evt\000"
 6584 23c1 03       		.byte	0x3
 6585 23c2 0901     		.2byte	0x109
 6586 23c4 AB0E0000 		.4byte	0xeab
 6587 23c8 02       		.uleb128 0x2
 6588 23c9 91       		.byte	0x91
 6589 23ca 4C       		.sleb128 -52
 6590 23cb 58       		.uleb128 0x58
 6591 23cc 5E130000 		.4byte	0x135e
 6592 23d0 30000000 		.4byte	.LBB142
 6593 23d4 00010000 		.4byte	.Ldebug_ranges0+0x100
 6594 23d8 03       		.byte	0x3
 6595 23d9 0C01     		.2byte	0x10c
 6596 23db 5A240000 		.4byte	0x245a
 6597 23df 46       		.uleb128 0x46
 6598 23e0 6C130000 		.4byte	0x136c
ARM GAS  C:\Users\jrdia\AppData\Local\Temp\ccJ9Fnzg.s 			page 135


 6599 23e4 7F0D0000 		.4byte	.LLST103
 6600 23e8 46       		.uleb128 0x46
 6601 23e9 6C130000 		.4byte	0x136c
 6602 23ed 7F0D0000 		.4byte	.LLST103
 6603 23f1 46       		.uleb128 0x46
 6604 23f2 8B130000 		.4byte	0x138b
 6605 23f6 920D0000 		.4byte	.LLST105
 6606 23fa 46       		.uleb128 0x46
 6607 23fb 80130000 		.4byte	0x1380
 6608 23ff CB0D0000 		.4byte	.LLST106
 6609 2403 46       		.uleb128 0x46
 6610 2404 75130000 		.4byte	0x1375
 6611 2408 DF0D0000 		.4byte	.LLST107
 6612 240c 4C       		.uleb128 0x4c
 6613 240d 78000000 		.4byte	.LVL155
 6614 2411 6E0A0000 		.4byte	0xa6e
 6615 2415 4D       		.uleb128 0x4d
 6616 2416 01       		.uleb128 0x1
 6617 2417 52       		.byte	0x52
 6618 2418 01       		.uleb128 0x1
 6619 2419 30       		.byte	0x30
 6620 241a 4D       		.uleb128 0x4d
 6621 241b 01       		.uleb128 0x1
 6622 241c 53       		.byte	0x53
 6623 241d 02       		.uleb128 0x2
 6624 241e 09       		.byte	0x9
 6625 241f A3       		.byte	0xa3
 6626 2420 4D       		.uleb128 0x4d
 6627 2421 02       		.uleb128 0x2
 6628 2422 7D       		.byte	0x7d
 6629 2423 00       		.sleb128 0
 6630 2424 02       		.uleb128 0x2
 6631 2425 79       		.byte	0x79
 6632 2426 00       		.sleb128 0
 6633 2427 4D       		.uleb128 0x4d
 6634 2428 02       		.uleb128 0x2
 6635 2429 7D       		.byte	0x7d
 6636 242a 04       		.sleb128 4
 6637 242b 02       		.uleb128 0x2
 6638 242c 79       		.byte	0x79
 6639 242d 00       		.sleb128 0
 6640 242e 4D       		.uleb128 0x4d
 6641 242f 02       		.uleb128 0x2
 6642 2430 7D       		.byte	0x7d
 6643 2431 08       		.sleb128 8
 6644 2432 02       		.uleb128 0x2
 6645 2433 79       		.byte	0x79
 6646 2434 00       		.sleb128 0
 6647 2435 4D       		.uleb128 0x4d
 6648 2436 02       		.uleb128 0x2
 6649 2437 7D       		.byte	0x7d
 6650 2438 0C       		.sleb128 12
 6651 2439 02       		.uleb128 0x2
 6652 243a 74       		.byte	0x74
 6653 243b 00       		.sleb128 0
 6654 243c 4D       		.uleb128 0x4d
 6655 243d 02       		.uleb128 0x2
ARM GAS  C:\Users\jrdia\AppData\Local\Temp\ccJ9Fnzg.s 			page 136


 6656 243e 7D       		.byte	0x7d
 6657 243f 10       		.sleb128 16
 6658 2440 02       		.uleb128 0x2
 6659 2441 7B       		.byte	0x7b
 6660 2442 00       		.sleb128 0
 6661 2443 4D       		.uleb128 0x4d
 6662 2444 02       		.uleb128 0x2
 6663 2445 7D       		.byte	0x7d
 6664 2446 14       		.sleb128 20
 6665 2447 02       		.uleb128 0x2
 6666 2448 7B       		.byte	0x7b
 6667 2449 00       		.sleb128 0
 6668 244a 4D       		.uleb128 0x4d
 6669 244b 02       		.uleb128 0x2
 6670 244c 7D       		.byte	0x7d
 6671 244d 18       		.sleb128 24
 6672 244e 02       		.uleb128 0x2
 6673 244f 91       		.byte	0x91
 6674 2450 4C       		.sleb128 -52
 6675 2451 4D       		.uleb128 0x4d
 6676 2452 02       		.uleb128 0x2
 6677 2453 7D       		.byte	0x7d
 6678 2454 1C       		.sleb128 28
 6679 2455 02       		.uleb128 0x2
 6680 2456 79       		.byte	0x79
 6681 2457 00       		.sleb128 0
 6682 2458 00       		.byte	0
 6683 2459 00       		.byte	0
 6684 245a 4C       		.uleb128 0x4c
 6685 245b 88000000 		.4byte	.LVL158
 6686 245f DD1E0000 		.4byte	0x1edd
 6687 2463 4D       		.uleb128 0x4d
 6688 2464 01       		.uleb128 0x1
 6689 2465 50       		.byte	0x50
 6690 2466 02       		.uleb128 0x2
 6691 2467 76       		.byte	0x76
 6692 2468 00       		.sleb128 0
 6693 2469 4D       		.uleb128 0x4d
 6694 246a 01       		.uleb128 0x1
 6695 246b 51       		.byte	0x51
 6696 246c 02       		.uleb128 0x2
 6697 246d 7A       		.byte	0x7a
 6698 246e 00       		.sleb128 0
 6699 246f 4D       		.uleb128 0x4d
 6700 2470 01       		.uleb128 0x1
 6701 2471 52       		.byte	0x52
 6702 2472 02       		.uleb128 0x2
 6703 2473 91       		.byte	0x91
 6704 2474 4C       		.sleb128 -52
 6705 2475 00       		.byte	0
 6706 2476 00       		.byte	0
 6707 2477 00       		.byte	0
 6708 2478 63       		.uleb128 0x63
 6709 2479 20010000 		.4byte	.Ldebug_ranges0+0x120
 6710 247d 53250000 		.4byte	0x2553
 6711 2481 57       		.uleb128 0x57
 6712 2482 2C110000 		.4byte	.LASF250
ARM GAS  C:\Users\jrdia\AppData\Local\Temp\ccJ9Fnzg.s 			page 137


 6713 2486 03       		.byte	0x3
 6714 2487 1B01     		.2byte	0x11b
 6715 2489 AD000000 		.4byte	0xad
 6716 248d F20D0000 		.4byte	.LLST108
 6717 2491 5E       		.uleb128 0x5e
 6718 2492 38010000 		.4byte	.Ldebug_ranges0+0x138
 6719 2496 56       		.uleb128 0x56
 6720 2497 65767400 		.ascii	"evt\000"
 6721 249b 03       		.byte	0x3
 6722 249c 1C01     		.2byte	0x11c
 6723 249e AB0E0000 		.4byte	0xeab
 6724 24a2 02       		.uleb128 0x2
 6725 24a3 91       		.byte	0x91
 6726 24a4 4C       		.sleb128 -52
 6727 24a5 58       		.uleb128 0x58
 6728 24a6 5E130000 		.4byte	0x135e
 6729 24aa AC000000 		.4byte	.LBB155
 6730 24ae 58010000 		.4byte	.Ldebug_ranges0+0x158
 6731 24b2 03       		.byte	0x3
 6732 24b3 1F01     		.2byte	0x11f
 6733 24b5 35250000 		.4byte	0x2535
 6734 24b9 46       		.uleb128 0x46
 6735 24ba 6C130000 		.4byte	0x136c
 6736 24be 270E0000 		.4byte	.LLST109
 6737 24c2 46       		.uleb128 0x46
 6738 24c3 6C130000 		.4byte	0x136c
 6739 24c7 270E0000 		.4byte	.LLST109
 6740 24cb 46       		.uleb128 0x46
 6741 24cc 8B130000 		.4byte	0x138b
 6742 24d0 450E0000 		.4byte	.LLST111
 6743 24d4 46       		.uleb128 0x46
 6744 24d5 80130000 		.4byte	0x1380
 6745 24d9 580E0000 		.4byte	.LLST112
 6746 24dd 46       		.uleb128 0x46
 6747 24de 75130000 		.4byte	0x1375
 6748 24e2 6C0E0000 		.4byte	.LLST113
 6749 24e6 4C       		.uleb128 0x4c
 6750 24e7 E4000000 		.4byte	.LVL169
 6751 24eb 6E0A0000 		.4byte	0xa6e
 6752 24ef 4D       		.uleb128 0x4d
 6753 24f0 01       		.uleb128 0x1
 6754 24f1 52       		.byte	0x52
 6755 24f2 02       		.uleb128 0x2
 6756 24f3 75       		.byte	0x75
 6757 24f4 00       		.sleb128 0
 6758 24f5 4D       		.uleb128 0x4d
 6759 24f6 01       		.uleb128 0x1
 6760 24f7 53       		.byte	0x53
 6761 24f8 02       		.uleb128 0x2
 6762 24f9 09       		.byte	0x9
 6763 24fa A3       		.byte	0xa3
 6764 24fb 4D       		.uleb128 0x4d
 6765 24fc 02       		.uleb128 0x2
 6766 24fd 7D       		.byte	0x7d
 6767 24fe 00       		.sleb128 0
 6768 24ff 02       		.uleb128 0x2
 6769 2500 75       		.byte	0x75
ARM GAS  C:\Users\jrdia\AppData\Local\Temp\ccJ9Fnzg.s 			page 138


 6770 2501 00       		.sleb128 0
 6771 2502 4D       		.uleb128 0x4d
 6772 2503 02       		.uleb128 0x2
 6773 2504 7D       		.byte	0x7d
 6774 2505 04       		.sleb128 4
 6775 2506 02       		.uleb128 0x2
 6776 2507 75       		.byte	0x75
 6777 2508 00       		.sleb128 0
 6778 2509 4D       		.uleb128 0x4d
 6779 250a 02       		.uleb128 0x2
 6780 250b 7D       		.byte	0x7d
 6781 250c 08       		.sleb128 8
 6782 250d 02       		.uleb128 0x2
 6783 250e 75       		.byte	0x75
 6784 250f 00       		.sleb128 0
 6785 2510 4D       		.uleb128 0x4d
 6786 2511 02       		.uleb128 0x2
 6787 2512 7D       		.byte	0x7d
 6788 2513 0C       		.sleb128 12
 6789 2514 02       		.uleb128 0x2
 6790 2515 74       		.byte	0x74
 6791 2516 00       		.sleb128 0
 6792 2517 4D       		.uleb128 0x4d
 6793 2518 02       		.uleb128 0x2
 6794 2519 7D       		.byte	0x7d
 6795 251a 10       		.sleb128 16
 6796 251b 02       		.uleb128 0x2
 6797 251c 79       		.byte	0x79
 6798 251d 00       		.sleb128 0
 6799 251e 4D       		.uleb128 0x4d
 6800 251f 02       		.uleb128 0x2
 6801 2520 7D       		.byte	0x7d
 6802 2521 14       		.sleb128 20
 6803 2522 02       		.uleb128 0x2
 6804 2523 79       		.byte	0x79
 6805 2524 00       		.sleb128 0
 6806 2525 4D       		.uleb128 0x4d
 6807 2526 02       		.uleb128 0x2
 6808 2527 7D       		.byte	0x7d
 6809 2528 18       		.sleb128 24
 6810 2529 02       		.uleb128 0x2
 6811 252a 77       		.byte	0x77
 6812 252b 00       		.sleb128 0
 6813 252c 4D       		.uleb128 0x4d
 6814 252d 02       		.uleb128 0x2
 6815 252e 7D       		.byte	0x7d
 6816 252f 1C       		.sleb128 28
 6817 2530 02       		.uleb128 0x2
 6818 2531 75       		.byte	0x75
 6819 2532 00       		.sleb128 0
 6820 2533 00       		.byte	0
 6821 2534 00       		.byte	0
 6822 2535 4C       		.uleb128 0x4c
 6823 2536 0A010000 		.4byte	.LVL172
 6824 253a DD1E0000 		.4byte	0x1edd
 6825 253e 4D       		.uleb128 0x4d
 6826 253f 01       		.uleb128 0x1
ARM GAS  C:\Users\jrdia\AppData\Local\Temp\ccJ9Fnzg.s 			page 139


 6827 2540 50       		.byte	0x50
 6828 2541 02       		.uleb128 0x2
 6829 2542 76       		.byte	0x76
 6830 2543 00       		.sleb128 0
 6831 2544 4D       		.uleb128 0x4d
 6832 2545 01       		.uleb128 0x1
 6833 2546 51       		.byte	0x51
 6834 2547 02       		.uleb128 0x2
 6835 2548 74       		.byte	0x74
 6836 2549 00       		.sleb128 0
 6837 254a 4D       		.uleb128 0x4d
 6838 254b 01       		.uleb128 0x1
 6839 254c 52       		.byte	0x52
 6840 254d 02       		.uleb128 0x2
 6841 254e 77       		.byte	0x77
 6842 254f 00       		.sleb128 0
 6843 2550 00       		.byte	0
 6844 2551 00       		.byte	0
 6845 2552 00       		.byte	0
 6846 2553 4C       		.uleb128 0x4c
 6847 2554 2A000000 		.4byte	.LVL146
 6848 2558 3E090000 		.4byte	0x93e
 6849 255c 4D       		.uleb128 0x4d
 6850 255d 01       		.uleb128 0x1
 6851 255e 52       		.byte	0x52
 6852 255f 01       		.uleb128 0x1
 6853 2560 31       		.byte	0x31
 6854 2561 4D       		.uleb128 0x4d
 6855 2562 01       		.uleb128 0x1
 6856 2563 53       		.byte	0x53
 6857 2564 02       		.uleb128 0x2
 6858 2565 91       		.byte	0x91
 6859 2566 4A       		.sleb128 -54
 6860 2567 4D       		.uleb128 0x4d
 6861 2568 02       		.uleb128 0x2
 6862 2569 7D       		.byte	0x7d
 6863 256a 00       		.sleb128 0
 6864 256b 02       		.uleb128 0x2
 6865 256c 75       		.byte	0x75
 6866 256d 00       		.sleb128 0
 6867 256e 4D       		.uleb128 0x4d
 6868 256f 02       		.uleb128 0x2
 6869 2570 7D       		.byte	0x7d
 6870 2571 04       		.sleb128 4
 6871 2572 01       		.uleb128 0x1
 6872 2573 30       		.byte	0x30
 6873 2574 00       		.byte	0
 6874 2575 00       		.byte	0
 6875 2576 26       		.uleb128 0x26
 6876 2577 AD000000 		.4byte	0xad
 6877 257b 86250000 		.4byte	0x2586
 6878 257f 27       		.uleb128 0x27
 6879 2580 DB000000 		.4byte	0xdb
 6880 2584 07       		.byte	0x7
 6881 2585 00       		.byte	0
 6882 2586 5D       		.uleb128 0x5d
 6883 2587 1D140000 		.4byte	0x141d
ARM GAS  C:\Users\jrdia\AppData\Local\Temp\ccJ9Fnzg.s 			page 140


 6884 258b DA000000 		.4byte	.LASF246
 6885 258f 00000000 		.4byte	.LFB231
 6886 2593 2C000000 		.4byte	.LFE231-.LFB231
 6887 2597 01       		.uleb128 0x1
 6888 2598 9C       		.byte	0x9c
 6889 2599 A1250000 		.4byte	0x25a1
 6890 259d 01260000 		.4byte	0x2601
 6891 25a1 46       		.uleb128 0x46
 6892 25a2 2B140000 		.4byte	0x142b
 6893 25a6 7F0E0000 		.4byte	.LLST114
 6894 25aa 64       		.uleb128 0x64
 6895 25ab 34140000 		.4byte	0x1434
 6896 25af 00       		.byte	0
 6897 25b0 4E       		.uleb128 0x4e
 6898 25b1 18000000 		.4byte	.LBB166
 6899 25b5 14000000 		.4byte	.LBE166-.LBB166
 6900 25b9 F7250000 		.4byte	0x25f7
 6901 25bd 46       		.uleb128 0x46
 6902 25be 2B140000 		.4byte	0x142b
 6903 25c2 C10E0000 		.4byte	.LLST115
 6904 25c6 65       		.uleb128 0x65
 6905 25c7 18000000 		.4byte	.LBB167
 6906 25cb 14000000 		.4byte	.LBE167-.LBB167
 6907 25cf 5F       		.uleb128 0x5f
 6908 25d0 34140000 		.4byte	0x1434
 6909 25d4 D40E0000 		.4byte	.LLST116
 6910 25d8 53       		.uleb128 0x53
 6911 25d9 1E000000 		.4byte	.LVL182
 6912 25dd 3F230000 		.4byte	0x233f
 6913 25e1 EC250000 		.4byte	0x25ec
 6914 25e5 4D       		.uleb128 0x4d
 6915 25e6 01       		.uleb128 0x1
 6916 25e7 50       		.byte	0x50
 6917 25e8 02       		.uleb128 0x2
 6918 25e9 74       		.byte	0x74
 6919 25ea 00       		.sleb128 0
 6920 25eb 00       		.byte	0
 6921 25ec 62       		.uleb128 0x62
 6922 25ed 24000000 		.4byte	.LVL184
 6923 25f1 47260000 		.4byte	0x2647
 6924 25f5 00       		.byte	0
 6925 25f6 00       		.byte	0
 6926 25f7 62       		.uleb128 0x62
 6927 25f8 12000000 		.4byte	.LVL180
 6928 25fc 47260000 		.4byte	0x2647
 6929 2600 00       		.byte	0
 6930 2601 66       		.uleb128 0x66
 6931 2602 F8000000 		.4byte	.LASF271
 6932 2606 09       		.byte	0x9
 6933 2607 16       		.byte	0x16
 6934 2608 94000000 		.4byte	0x94
 6935 260c 66       		.uleb128 0x66
 6936 260d C60F0000 		.4byte	.LASF272
 6937 2611 0A       		.byte	0xa
 6938 2612 19       		.byte	0x19
 6939 2613 94000000 		.4byte	0x94
 6940 2617 66       		.uleb128 0x66
ARM GAS  C:\Users\jrdia\AppData\Local\Temp\ccJ9Fnzg.s 			page 141


 6941 2618 BE110000 		.4byte	.LASF273
 6942 261c 0A       		.byte	0xa
 6943 261d 1A       		.byte	0x1a
 6944 261e 94000000 		.4byte	0x94
 6945 2622 66       		.uleb128 0x66
 6946 2623 B9110000 		.4byte	.LASF274
 6947 2627 0A       		.byte	0xa
 6948 2628 1B       		.byte	0x1b
 6949 2629 94000000 		.4byte	0x94
 6950 262d 67       		.uleb128 0x67
 6951 262e 290F0000 		.4byte	0xf29
 6952 2632 20100000 		.4byte	.LASF287
 6953 2636 05       		.uleb128 0x5
 6954 2637 03       		.byte	0x3
 6955 2638 00000000 		.4byte	_ZN6USBHub15bResetInitiatedE
 6956 263c 68       		.uleb128 0x68
 6957 263d 5E090000 		.4byte	.LASF275
 6958 2641 5E090000 		.4byte	.LASF275
 6959 2645 0B       		.byte	0xb
 6960 2646 8A       		.byte	0x8a
 6961 2647 68       		.uleb128 0x68
 6962 2648 F5060000 		.4byte	.LASF276
 6963 264c F5060000 		.4byte	.LASF276
 6964 2650 0B       		.byte	0xb
 6965 2651 88       		.byte	0x88
 6966 2652 00       		.byte	0
 6967              		.section	.debug_abbrev,"",%progbits
 6968              	.Ldebug_abbrev0:
 6969 0000 01       		.uleb128 0x1
 6970 0001 11       		.uleb128 0x11
 6971 0002 01       		.byte	0x1
 6972 0003 25       		.uleb128 0x25
 6973 0004 0E       		.uleb128 0xe
 6974 0005 13       		.uleb128 0x13
 6975 0006 0B       		.uleb128 0xb
 6976 0007 03       		.uleb128 0x3
 6977 0008 0E       		.uleb128 0xe
 6978 0009 1B       		.uleb128 0x1b
 6979 000a 0E       		.uleb128 0xe
 6980 000b 55       		.uleb128 0x55
 6981 000c 17       		.uleb128 0x17
 6982 000d 11       		.uleb128 0x11
 6983 000e 01       		.uleb128 0x1
 6984 000f 10       		.uleb128 0x10
 6985 0010 17       		.uleb128 0x17
 6986 0011 00       		.byte	0
 6987 0012 00       		.byte	0
 6988 0013 02       		.uleb128 0x2
 6989 0014 16       		.uleb128 0x16
 6990 0015 00       		.byte	0
 6991 0016 03       		.uleb128 0x3
 6992 0017 0E       		.uleb128 0xe
 6993 0018 3A       		.uleb128 0x3a
 6994 0019 0B       		.uleb128 0xb
 6995 001a 3B       		.uleb128 0x3b
 6996 001b 0B       		.uleb128 0xb
 6997 001c 49       		.uleb128 0x49
ARM GAS  C:\Users\jrdia\AppData\Local\Temp\ccJ9Fnzg.s 			page 142


 6998 001d 13       		.uleb128 0x13
 6999 001e 00       		.byte	0
 7000 001f 00       		.byte	0
 7001 0020 03       		.uleb128 0x3
 7002 0021 24       		.uleb128 0x24
 7003 0022 00       		.byte	0
 7004 0023 0B       		.uleb128 0xb
 7005 0024 0B       		.uleb128 0xb
 7006 0025 3E       		.uleb128 0x3e
 7007 0026 0B       		.uleb128 0xb
 7008 0027 03       		.uleb128 0x3
 7009 0028 0E       		.uleb128 0xe
 7010 0029 00       		.byte	0
 7011 002a 00       		.byte	0
 7012 002b 04       		.uleb128 0x4
 7013 002c 24       		.uleb128 0x24
 7014 002d 00       		.byte	0
 7015 002e 0B       		.uleb128 0xb
 7016 002f 0B       		.uleb128 0xb
 7017 0030 3E       		.uleb128 0x3e
 7018 0031 0B       		.uleb128 0xb
 7019 0032 03       		.uleb128 0x3
 7020 0033 08       		.uleb128 0x8
 7021 0034 00       		.byte	0
 7022 0035 00       		.byte	0
 7023 0036 05       		.uleb128 0x5
 7024 0037 0F       		.uleb128 0xf
 7025 0038 00       		.byte	0
 7026 0039 0B       		.uleb128 0xb
 7027 003a 0B       		.uleb128 0xb
 7028 003b 00       		.byte	0
 7029 003c 00       		.byte	0
 7030 003d 06       		.uleb128 0x6
 7031 003e 04       		.uleb128 0x4
 7032 003f 01       		.byte	0x1
 7033 0040 03       		.uleb128 0x3
 7034 0041 0E       		.uleb128 0xe
 7035 0042 0B       		.uleb128 0xb
 7036 0043 0B       		.uleb128 0xb
 7037 0044 49       		.uleb128 0x49
 7038 0045 13       		.uleb128 0x13
 7039 0046 3A       		.uleb128 0x3a
 7040 0047 0B       		.uleb128 0xb
 7041 0048 3B       		.uleb128 0x3b
 7042 0049 0B       		.uleb128 0xb
 7043 004a 01       		.uleb128 0x1
 7044 004b 13       		.uleb128 0x13
 7045 004c 00       		.byte	0
 7046 004d 00       		.byte	0
 7047 004e 07       		.uleb128 0x7
 7048 004f 28       		.uleb128 0x28
 7049 0050 00       		.byte	0
 7050 0051 03       		.uleb128 0x3
 7051 0052 0E       		.uleb128 0xe
 7052 0053 1C       		.uleb128 0x1c
 7053 0054 0B       		.uleb128 0xb
 7054 0055 00       		.byte	0
ARM GAS  C:\Users\jrdia\AppData\Local\Temp\ccJ9Fnzg.s 			page 143


 7055 0056 00       		.byte	0
 7056 0057 08       		.uleb128 0x8
 7057 0058 13       		.uleb128 0x13
 7058 0059 01       		.byte	0x1
 7059 005a 03       		.uleb128 0x3
 7060 005b 0E       		.uleb128 0xe
 7061 005c 0B       		.uleb128 0xb
 7062 005d 0B       		.uleb128 0xb
 7063 005e 3A       		.uleb128 0x3a
 7064 005f 0B       		.uleb128 0xb
 7065 0060 3B       		.uleb128 0x3b
 7066 0061 0B       		.uleb128 0xb
 7067 0062 01       		.uleb128 0x1
 7068 0063 13       		.uleb128 0x13
 7069 0064 00       		.byte	0
 7070 0065 00       		.byte	0
 7071 0066 09       		.uleb128 0x9
 7072 0067 17       		.uleb128 0x17
 7073 0068 01       		.byte	0x1
 7074 0069 0B       		.uleb128 0xb
 7075 006a 0B       		.uleb128 0xb
 7076 006b 3A       		.uleb128 0x3a
 7077 006c 0B       		.uleb128 0xb
 7078 006d 3B       		.uleb128 0x3b
 7079 006e 0B       		.uleb128 0xb
 7080 006f 01       		.uleb128 0x1
 7081 0070 13       		.uleb128 0x13
 7082 0071 00       		.byte	0
 7083 0072 00       		.byte	0
 7084 0073 0A       		.uleb128 0xa
 7085 0074 13       		.uleb128 0x13
 7086 0075 01       		.byte	0x1
 7087 0076 0B       		.uleb128 0xb
 7088 0077 0B       		.uleb128 0xb
 7089 0078 3A       		.uleb128 0x3a
 7090 0079 0B       		.uleb128 0xb
 7091 007a 3B       		.uleb128 0x3b
 7092 007b 0B       		.uleb128 0xb
 7093 007c 01       		.uleb128 0x1
 7094 007d 13       		.uleb128 0x13
 7095 007e 00       		.byte	0
 7096 007f 00       		.byte	0
 7097 0080 0B       		.uleb128 0xb
 7098 0081 0D       		.uleb128 0xd
 7099 0082 00       		.byte	0
 7100 0083 03       		.uleb128 0x3
 7101 0084 0E       		.uleb128 0xe
 7102 0085 3A       		.uleb128 0x3a
 7103 0086 0B       		.uleb128 0xb
 7104 0087 3B       		.uleb128 0x3b
 7105 0088 0B       		.uleb128 0xb
 7106 0089 49       		.uleb128 0x49
 7107 008a 13       		.uleb128 0x13
 7108 008b 0B       		.uleb128 0xb
 7109 008c 0B       		.uleb128 0xb
 7110 008d 0D       		.uleb128 0xd
 7111 008e 0B       		.uleb128 0xb
ARM GAS  C:\Users\jrdia\AppData\Local\Temp\ccJ9Fnzg.s 			page 144


 7112 008f 0C       		.uleb128 0xc
 7113 0090 0B       		.uleb128 0xb
 7114 0091 38       		.uleb128 0x38
 7115 0092 0B       		.uleb128 0xb
 7116 0093 00       		.byte	0
 7117 0094 00       		.byte	0
 7118 0095 0C       		.uleb128 0xc
 7119 0096 0D       		.uleb128 0xd
 7120 0097 00       		.byte	0
 7121 0098 03       		.uleb128 0x3
 7122 0099 0E       		.uleb128 0xe
 7123 009a 3A       		.uleb128 0x3a
 7124 009b 0B       		.uleb128 0xb
 7125 009c 3B       		.uleb128 0x3b
 7126 009d 0B       		.uleb128 0xb
 7127 009e 49       		.uleb128 0x49
 7128 009f 13       		.uleb128 0x13
 7129 00a0 00       		.byte	0
 7130 00a1 00       		.byte	0
 7131 00a2 0D       		.uleb128 0xd
 7132 00a3 0D       		.uleb128 0xd
 7133 00a4 00       		.byte	0
 7134 00a5 49       		.uleb128 0x49
 7135 00a6 13       		.uleb128 0x13
 7136 00a7 00       		.byte	0
 7137 00a8 00       		.byte	0
 7138 00a9 0E       		.uleb128 0xe
 7139 00aa 0D       		.uleb128 0xd
 7140 00ab 00       		.byte	0
 7141 00ac 03       		.uleb128 0x3
 7142 00ad 0E       		.uleb128 0xe
 7143 00ae 3A       		.uleb128 0x3a
 7144 00af 0B       		.uleb128 0xb
 7145 00b0 3B       		.uleb128 0x3b
 7146 00b1 0B       		.uleb128 0xb
 7147 00b2 49       		.uleb128 0x49
 7148 00b3 13       		.uleb128 0x13
 7149 00b4 38       		.uleb128 0x38
 7150 00b5 0B       		.uleb128 0xb
 7151 00b6 00       		.byte	0
 7152 00b7 00       		.byte	0
 7153 00b8 0F       		.uleb128 0xf
 7154 00b9 0D       		.uleb128 0xd
 7155 00ba 00       		.byte	0
 7156 00bb 49       		.uleb128 0x49
 7157 00bc 13       		.uleb128 0x13
 7158 00bd 38       		.uleb128 0x38
 7159 00be 0B       		.uleb128 0xb
 7160 00bf 00       		.byte	0
 7161 00c0 00       		.byte	0
 7162 00c1 10       		.uleb128 0x10
 7163 00c2 0F       		.uleb128 0xf
 7164 00c3 00       		.byte	0
 7165 00c4 0B       		.uleb128 0xb
 7166 00c5 0B       		.uleb128 0xb
 7167 00c6 49       		.uleb128 0x49
 7168 00c7 13       		.uleb128 0x13
ARM GAS  C:\Users\jrdia\AppData\Local\Temp\ccJ9Fnzg.s 			page 145


 7169 00c8 00       		.byte	0
 7170 00c9 00       		.byte	0
 7171 00ca 11       		.uleb128 0x11
 7172 00cb 15       		.uleb128 0x15
 7173 00cc 01       		.byte	0x1
 7174 00cd 01       		.uleb128 0x1
 7175 00ce 13       		.uleb128 0x13
 7176 00cf 00       		.byte	0
 7177 00d0 00       		.byte	0
 7178 00d1 12       		.uleb128 0x12
 7179 00d2 05       		.uleb128 0x5
 7180 00d3 00       		.byte	0
 7181 00d4 49       		.uleb128 0x49
 7182 00d5 13       		.uleb128 0x13
 7183 00d6 00       		.byte	0
 7184 00d7 00       		.byte	0
 7185 00d8 13       		.uleb128 0x13
 7186 00d9 02       		.uleb128 0x2
 7187 00da 00       		.byte	0
 7188 00db 03       		.uleb128 0x3
 7189 00dc 0E       		.uleb128 0xe
 7190 00dd 3C       		.uleb128 0x3c
 7191 00de 19       		.uleb128 0x19
 7192 00df 00       		.byte	0
 7193 00e0 00       		.byte	0
 7194 00e1 14       		.uleb128 0x14
 7195 00e2 13       		.uleb128 0x13
 7196 00e3 01       		.byte	0x1
 7197 00e4 0B       		.uleb128 0xb
 7198 00e5 0B       		.uleb128 0xb
 7199 00e6 3A       		.uleb128 0x3a
 7200 00e7 0B       		.uleb128 0xb
 7201 00e8 3B       		.uleb128 0x3b
 7202 00e9 0B       		.uleb128 0xb
 7203 00ea 6E       		.uleb128 0x6e
 7204 00eb 0E       		.uleb128 0xe
 7205 00ec 01       		.uleb128 0x1
 7206 00ed 13       		.uleb128 0x13
 7207 00ee 00       		.byte	0
 7208 00ef 00       		.byte	0
 7209 00f0 15       		.uleb128 0x15
 7210 00f1 04       		.uleb128 0x4
 7211 00f2 01       		.byte	0x1
 7212 00f3 0B       		.uleb128 0xb
 7213 00f4 0B       		.uleb128 0xb
 7214 00f5 49       		.uleb128 0x49
 7215 00f6 13       		.uleb128 0x13
 7216 00f7 3A       		.uleb128 0x3a
 7217 00f8 0B       		.uleb128 0xb
 7218 00f9 3B       		.uleb128 0x3b
 7219 00fa 0B       		.uleb128 0xb
 7220 00fb 6E       		.uleb128 0x6e
 7221 00fc 0E       		.uleb128 0xe
 7222 00fd 01       		.uleb128 0x1
 7223 00fe 13       		.uleb128 0x13
 7224 00ff 00       		.byte	0
 7225 0100 00       		.byte	0
ARM GAS  C:\Users\jrdia\AppData\Local\Temp\ccJ9Fnzg.s 			page 146


 7226 0101 16       		.uleb128 0x16
 7227 0102 02       		.uleb128 0x2
 7228 0103 01       		.byte	0x1
 7229 0104 03       		.uleb128 0x3
 7230 0105 0E       		.uleb128 0xe
 7231 0106 0B       		.uleb128 0xb
 7232 0107 0B       		.uleb128 0xb
 7233 0108 3A       		.uleb128 0x3a
 7234 0109 0B       		.uleb128 0xb
 7235 010a 3B       		.uleb128 0x3b
 7236 010b 0B       		.uleb128 0xb
 7237 010c 01       		.uleb128 0x1
 7238 010d 13       		.uleb128 0x13
 7239 010e 00       		.byte	0
 7240 010f 00       		.byte	0
 7241 0110 17       		.uleb128 0x17
 7242 0111 0D       		.uleb128 0xd
 7243 0112 00       		.byte	0
 7244 0113 03       		.uleb128 0x3
 7245 0114 0E       		.uleb128 0xe
 7246 0115 3A       		.uleb128 0x3a
 7247 0116 0B       		.uleb128 0xb
 7248 0117 3B       		.uleb128 0x3b
 7249 0118 0B       		.uleb128 0xb
 7250 0119 49       		.uleb128 0x49
 7251 011a 13       		.uleb128 0x13
 7252 011b 3F       		.uleb128 0x3f
 7253 011c 19       		.uleb128 0x19
 7254 011d 3C       		.uleb128 0x3c
 7255 011e 19       		.uleb128 0x19
 7256 011f 00       		.byte	0
 7257 0120 00       		.byte	0
 7258 0121 18       		.uleb128 0x18
 7259 0122 2E       		.uleb128 0x2e
 7260 0123 01       		.byte	0x1
 7261 0124 3F       		.uleb128 0x3f
 7262 0125 19       		.uleb128 0x19
 7263 0126 03       		.uleb128 0x3
 7264 0127 0E       		.uleb128 0xe
 7265 0128 3A       		.uleb128 0x3a
 7266 0129 0B       		.uleb128 0xb
 7267 012a 3B       		.uleb128 0x3b
 7268 012b 0B       		.uleb128 0xb
 7269 012c 6E       		.uleb128 0x6e
 7270 012d 0E       		.uleb128 0xe
 7271 012e 49       		.uleb128 0x49
 7272 012f 13       		.uleb128 0x13
 7273 0130 32       		.uleb128 0x32
 7274 0131 0B       		.uleb128 0xb
 7275 0132 3C       		.uleb128 0x3c
 7276 0133 19       		.uleb128 0x19
 7277 0134 64       		.uleb128 0x64
 7278 0135 13       		.uleb128 0x13
 7279 0136 01       		.uleb128 0x1
 7280 0137 13       		.uleb128 0x13
 7281 0138 00       		.byte	0
 7282 0139 00       		.byte	0
ARM GAS  C:\Users\jrdia\AppData\Local\Temp\ccJ9Fnzg.s 			page 147


 7283 013a 19       		.uleb128 0x19
 7284 013b 05       		.uleb128 0x5
 7285 013c 00       		.byte	0
 7286 013d 49       		.uleb128 0x49
 7287 013e 13       		.uleb128 0x13
 7288 013f 34       		.uleb128 0x34
 7289 0140 19       		.uleb128 0x19
 7290 0141 00       		.byte	0
 7291 0142 00       		.byte	0
 7292 0143 1A       		.uleb128 0x1a
 7293 0144 2E       		.uleb128 0x2e
 7294 0145 01       		.byte	0x1
 7295 0146 3F       		.uleb128 0x3f
 7296 0147 19       		.uleb128 0x19
 7297 0148 03       		.uleb128 0x3
 7298 0149 0E       		.uleb128 0xe
 7299 014a 3A       		.uleb128 0x3a
 7300 014b 0B       		.uleb128 0xb
 7301 014c 3B       		.uleb128 0x3b
 7302 014d 0B       		.uleb128 0xb
 7303 014e 6E       		.uleb128 0x6e
 7304 014f 0E       		.uleb128 0xe
 7305 0150 32       		.uleb128 0x32
 7306 0151 0B       		.uleb128 0xb
 7307 0152 3C       		.uleb128 0x3c
 7308 0153 19       		.uleb128 0x19
 7309 0154 64       		.uleb128 0x64
 7310 0155 13       		.uleb128 0x13
 7311 0156 01       		.uleb128 0x1
 7312 0157 13       		.uleb128 0x13
 7313 0158 00       		.byte	0
 7314 0159 00       		.byte	0
 7315 015a 1B       		.uleb128 0x1b
 7316 015b 2E       		.uleb128 0x2e
 7317 015c 01       		.byte	0x1
 7318 015d 3F       		.uleb128 0x3f
 7319 015e 19       		.uleb128 0x19
 7320 015f 03       		.uleb128 0x3
 7321 0160 0E       		.uleb128 0xe
 7322 0161 3A       		.uleb128 0x3a
 7323 0162 0B       		.uleb128 0xb
 7324 0163 3B       		.uleb128 0x3b
 7325 0164 05       		.uleb128 0x5
 7326 0165 6E       		.uleb128 0x6e
 7327 0166 0E       		.uleb128 0xe
 7328 0167 32       		.uleb128 0x32
 7329 0168 0B       		.uleb128 0xb
 7330 0169 3C       		.uleb128 0x3c
 7331 016a 19       		.uleb128 0x19
 7332 016b 64       		.uleb128 0x64
 7333 016c 13       		.uleb128 0x13
 7334 016d 01       		.uleb128 0x1
 7335 016e 13       		.uleb128 0x13
 7336 016f 00       		.byte	0
 7337 0170 00       		.byte	0
 7338 0171 1C       		.uleb128 0x1c
 7339 0172 2E       		.uleb128 0x2e
ARM GAS  C:\Users\jrdia\AppData\Local\Temp\ccJ9Fnzg.s 			page 148


 7340 0173 01       		.byte	0x1
 7341 0174 3F       		.uleb128 0x3f
 7342 0175 19       		.uleb128 0x19
 7343 0176 03       		.uleb128 0x3
 7344 0177 0E       		.uleb128 0xe
 7345 0178 3A       		.uleb128 0x3a
 7346 0179 0B       		.uleb128 0xb
 7347 017a 3B       		.uleb128 0x3b
 7348 017b 05       		.uleb128 0x5
 7349 017c 6E       		.uleb128 0x6e
 7350 017d 0E       		.uleb128 0xe
 7351 017e 49       		.uleb128 0x49
 7352 017f 13       		.uleb128 0x13
 7353 0180 32       		.uleb128 0x32
 7354 0181 0B       		.uleb128 0xb
 7355 0182 3C       		.uleb128 0x3c
 7356 0183 19       		.uleb128 0x19
 7357 0184 64       		.uleb128 0x64
 7358 0185 13       		.uleb128 0x13
 7359 0186 01       		.uleb128 0x1
 7360 0187 13       		.uleb128 0x13
 7361 0188 00       		.byte	0
 7362 0189 00       		.byte	0
 7363 018a 1D       		.uleb128 0x1d
 7364 018b 2F       		.uleb128 0x2f
 7365 018c 00       		.byte	0
 7366 018d 03       		.uleb128 0x3
 7367 018e 0E       		.uleb128 0xe
 7368 018f 49       		.uleb128 0x49
 7369 0190 13       		.uleb128 0x13
 7370 0191 00       		.byte	0
 7371 0192 00       		.byte	0
 7372 0193 1E       		.uleb128 0x1e
 7373 0194 02       		.uleb128 0x2
 7374 0195 01       		.byte	0x1
 7375 0196 03       		.uleb128 0x3
 7376 0197 08       		.uleb128 0x8
 7377 0198 0B       		.uleb128 0xb
 7378 0199 0B       		.uleb128 0xb
 7379 019a 3A       		.uleb128 0x3a
 7380 019b 0B       		.uleb128 0xb
 7381 019c 3B       		.uleb128 0x3b
 7382 019d 0B       		.uleb128 0xb
 7383 019e 01       		.uleb128 0x1
 7384 019f 13       		.uleb128 0x13
 7385 01a0 00       		.byte	0
 7386 01a1 00       		.byte	0
 7387 01a2 1F       		.uleb128 0x1f
 7388 01a3 1C       		.uleb128 0x1c
 7389 01a4 00       		.byte	0
 7390 01a5 49       		.uleb128 0x49
 7391 01a6 13       		.uleb128 0x13
 7392 01a7 38       		.uleb128 0x38
 7393 01a8 0B       		.uleb128 0xb
 7394 01a9 32       		.uleb128 0x32
 7395 01aa 0B       		.uleb128 0xb
 7396 01ab 00       		.byte	0
ARM GAS  C:\Users\jrdia\AppData\Local\Temp\ccJ9Fnzg.s 			page 149


 7397 01ac 00       		.byte	0
 7398 01ad 20       		.uleb128 0x20
 7399 01ae 2E       		.uleb128 0x2e
 7400 01af 01       		.byte	0x1
 7401 01b0 3F       		.uleb128 0x3f
 7402 01b1 19       		.uleb128 0x19
 7403 01b2 03       		.uleb128 0x3
 7404 01b3 08       		.uleb128 0x8
 7405 01b4 3A       		.uleb128 0x3a
 7406 01b5 0B       		.uleb128 0xb
 7407 01b6 3B       		.uleb128 0x3b
 7408 01b7 0B       		.uleb128 0xb
 7409 01b8 6E       		.uleb128 0x6e
 7410 01b9 0E       		.uleb128 0xe
 7411 01ba 49       		.uleb128 0x49
 7412 01bb 13       		.uleb128 0x13
 7413 01bc 32       		.uleb128 0x32
 7414 01bd 0B       		.uleb128 0xb
 7415 01be 3C       		.uleb128 0x3c
 7416 01bf 19       		.uleb128 0x19
 7417 01c0 64       		.uleb128 0x64
 7418 01c1 13       		.uleb128 0x13
 7419 01c2 01       		.uleb128 0x1
 7420 01c3 13       		.uleb128 0x13
 7421 01c4 00       		.byte	0
 7422 01c5 00       		.byte	0
 7423 01c6 21       		.uleb128 0x21
 7424 01c7 2E       		.uleb128 0x2e
 7425 01c8 01       		.byte	0x1
 7426 01c9 3F       		.uleb128 0x3f
 7427 01ca 19       		.uleb128 0x19
 7428 01cb 03       		.uleb128 0x3
 7429 01cc 0E       		.uleb128 0xe
 7430 01cd 3A       		.uleb128 0x3a
 7431 01ce 0B       		.uleb128 0xb
 7432 01cf 3B       		.uleb128 0x3b
 7433 01d0 05       		.uleb128 0x5
 7434 01d1 6E       		.uleb128 0x6e
 7435 01d2 0E       		.uleb128 0xe
 7436 01d3 3C       		.uleb128 0x3c
 7437 01d4 19       		.uleb128 0x19
 7438 01d5 64       		.uleb128 0x64
 7439 01d6 13       		.uleb128 0x13
 7440 01d7 01       		.uleb128 0x1
 7441 01d8 13       		.uleb128 0x13
 7442 01d9 00       		.byte	0
 7443 01da 00       		.byte	0
 7444 01db 22       		.uleb128 0x22
 7445 01dc 2E       		.uleb128 0x2e
 7446 01dd 01       		.byte	0x1
 7447 01de 3F       		.uleb128 0x3f
 7448 01df 19       		.uleb128 0x19
 7449 01e0 03       		.uleb128 0x3
 7450 01e1 0E       		.uleb128 0xe
 7451 01e2 3A       		.uleb128 0x3a
 7452 01e3 0B       		.uleb128 0xb
 7453 01e4 3B       		.uleb128 0x3b
ARM GAS  C:\Users\jrdia\AppData\Local\Temp\ccJ9Fnzg.s 			page 150


 7454 01e5 05       		.uleb128 0x5
 7455 01e6 6E       		.uleb128 0x6e
 7456 01e7 0E       		.uleb128 0xe
 7457 01e8 49       		.uleb128 0x49
 7458 01e9 13       		.uleb128 0x13
 7459 01ea 3C       		.uleb128 0x3c
 7460 01eb 19       		.uleb128 0x19
 7461 01ec 64       		.uleb128 0x64
 7462 01ed 13       		.uleb128 0x13
 7463 01ee 01       		.uleb128 0x1
 7464 01ef 13       		.uleb128 0x13
 7465 01f0 00       		.byte	0
 7466 01f1 00       		.byte	0
 7467 01f2 23       		.uleb128 0x23
 7468 01f3 2E       		.uleb128 0x2e
 7469 01f4 01       		.byte	0x1
 7470 01f5 3F       		.uleb128 0x3f
 7471 01f6 19       		.uleb128 0x19
 7472 01f7 03       		.uleb128 0x3
 7473 01f8 0E       		.uleb128 0xe
 7474 01f9 3A       		.uleb128 0x3a
 7475 01fa 0B       		.uleb128 0xb
 7476 01fb 3B       		.uleb128 0x3b
 7477 01fc 05       		.uleb128 0x5
 7478 01fd 6E       		.uleb128 0x6e
 7479 01fe 0E       		.uleb128 0xe
 7480 01ff 49       		.uleb128 0x49
 7481 0200 13       		.uleb128 0x13
 7482 0201 3C       		.uleb128 0x3c
 7483 0202 19       		.uleb128 0x19
 7484 0203 64       		.uleb128 0x64
 7485 0204 13       		.uleb128 0x13
 7486 0205 00       		.byte	0
 7487 0206 00       		.byte	0
 7488 0207 24       		.uleb128 0x24
 7489 0208 02       		.uleb128 0x2
 7490 0209 01       		.byte	0x1
 7491 020a 03       		.uleb128 0x3
 7492 020b 0E       		.uleb128 0xe
 7493 020c 3C       		.uleb128 0x3c
 7494 020d 19       		.uleb128 0x19
 7495 020e 01       		.uleb128 0x1
 7496 020f 13       		.uleb128 0x13
 7497 0210 00       		.byte	0
 7498 0211 00       		.byte	0
 7499 0212 25       		.uleb128 0x25
 7500 0213 30       		.uleb128 0x30
 7501 0214 00       		.byte	0
 7502 0215 03       		.uleb128 0x3
 7503 0216 0E       		.uleb128 0xe
 7504 0217 49       		.uleb128 0x49
 7505 0218 13       		.uleb128 0x13
 7506 0219 1C       		.uleb128 0x1c
 7507 021a 0B       		.uleb128 0xb
 7508 021b 00       		.byte	0
 7509 021c 00       		.byte	0
 7510 021d 26       		.uleb128 0x26
ARM GAS  C:\Users\jrdia\AppData\Local\Temp\ccJ9Fnzg.s 			page 151


 7511 021e 01       		.uleb128 0x1
 7512 021f 01       		.byte	0x1
 7513 0220 49       		.uleb128 0x49
 7514 0221 13       		.uleb128 0x13
 7515 0222 01       		.uleb128 0x1
 7516 0223 13       		.uleb128 0x13
 7517 0224 00       		.byte	0
 7518 0225 00       		.byte	0
 7519 0226 27       		.uleb128 0x27
 7520 0227 21       		.uleb128 0x21
 7521 0228 00       		.byte	0
 7522 0229 49       		.uleb128 0x49
 7523 022a 13       		.uleb128 0x13
 7524 022b 2F       		.uleb128 0x2f
 7525 022c 0B       		.uleb128 0xb
 7526 022d 00       		.byte	0
 7527 022e 00       		.byte	0
 7528 022f 28       		.uleb128 0x28
 7529 0230 02       		.uleb128 0x2
 7530 0231 01       		.byte	0x1
 7531 0232 03       		.uleb128 0x3
 7532 0233 0E       		.uleb128 0xe
 7533 0234 0B       		.uleb128 0xb
 7534 0235 0B       		.uleb128 0xb
 7535 0236 3A       		.uleb128 0x3a
 7536 0237 0B       		.uleb128 0xb
 7537 0238 3B       		.uleb128 0x3b
 7538 0239 0B       		.uleb128 0xb
 7539 023a 1D       		.uleb128 0x1d
 7540 023b 13       		.uleb128 0x13
 7541 023c 01       		.uleb128 0x1
 7542 023d 13       		.uleb128 0x13
 7543 023e 00       		.byte	0
 7544 023f 00       		.byte	0
 7545 0240 29       		.uleb128 0x29
 7546 0241 0D       		.uleb128 0xd
 7547 0242 00       		.byte	0
 7548 0243 03       		.uleb128 0x3
 7549 0244 0E       		.uleb128 0xe
 7550 0245 49       		.uleb128 0x49
 7551 0246 13       		.uleb128 0x13
 7552 0247 38       		.uleb128 0x38
 7553 0248 0B       		.uleb128 0xb
 7554 0249 34       		.uleb128 0x34
 7555 024a 19       		.uleb128 0x19
 7556 024b 32       		.uleb128 0x32
 7557 024c 0B       		.uleb128 0xb
 7558 024d 00       		.byte	0
 7559 024e 00       		.byte	0
 7560 024f 2A       		.uleb128 0x2a
 7561 0250 2E       		.uleb128 0x2e
 7562 0251 01       		.byte	0x1
 7563 0252 3F       		.uleb128 0x3f
 7564 0253 19       		.uleb128 0x19
 7565 0254 03       		.uleb128 0x3
 7566 0255 0E       		.uleb128 0xe
 7567 0256 6E       		.uleb128 0x6e
ARM GAS  C:\Users\jrdia\AppData\Local\Temp\ccJ9Fnzg.s 			page 152


 7568 0257 0E       		.uleb128 0xe
 7569 0258 49       		.uleb128 0x49
 7570 0259 13       		.uleb128 0x13
 7571 025a 34       		.uleb128 0x34
 7572 025b 19       		.uleb128 0x19
 7573 025c 32       		.uleb128 0x32
 7574 025d 0B       		.uleb128 0xb
 7575 025e 3C       		.uleb128 0x3c
 7576 025f 19       		.uleb128 0x19
 7577 0260 64       		.uleb128 0x64
 7578 0261 13       		.uleb128 0x13
 7579 0262 01       		.uleb128 0x1
 7580 0263 13       		.uleb128 0x13
 7581 0264 00       		.byte	0
 7582 0265 00       		.byte	0
 7583 0266 2B       		.uleb128 0x2b
 7584 0267 2E       		.uleb128 0x2e
 7585 0268 01       		.byte	0x1
 7586 0269 3F       		.uleb128 0x3f
 7587 026a 19       		.uleb128 0x19
 7588 026b 03       		.uleb128 0x3
 7589 026c 0E       		.uleb128 0xe
 7590 026d 3A       		.uleb128 0x3a
 7591 026e 0B       		.uleb128 0xb
 7592 026f 3B       		.uleb128 0x3b
 7593 0270 0B       		.uleb128 0xb
 7594 0271 6E       		.uleb128 0x6e
 7595 0272 0E       		.uleb128 0xe
 7596 0273 49       		.uleb128 0x49
 7597 0274 13       		.uleb128 0x13
 7598 0275 4C       		.uleb128 0x4c
 7599 0276 0B       		.uleb128 0xb
 7600 0277 4D       		.uleb128 0x4d
 7601 0278 18       		.uleb128 0x18
 7602 0279 1D       		.uleb128 0x1d
 7603 027a 13       		.uleb128 0x13
 7604 027b 32       		.uleb128 0x32
 7605 027c 0B       		.uleb128 0xb
 7606 027d 3C       		.uleb128 0x3c
 7607 027e 19       		.uleb128 0x19
 7608 027f 64       		.uleb128 0x64
 7609 0280 13       		.uleb128 0x13
 7610 0281 01       		.uleb128 0x1
 7611 0282 13       		.uleb128 0x13
 7612 0283 00       		.byte	0
 7613 0284 00       		.byte	0
 7614 0285 2C       		.uleb128 0x2c
 7615 0286 2E       		.uleb128 0x2e
 7616 0287 01       		.byte	0x1
 7617 0288 3F       		.uleb128 0x3f
 7618 0289 19       		.uleb128 0x19
 7619 028a 03       		.uleb128 0x3
 7620 028b 0E       		.uleb128 0xe
 7621 028c 3A       		.uleb128 0x3a
 7622 028d 0B       		.uleb128 0xb
 7623 028e 3B       		.uleb128 0x3b
 7624 028f 0B       		.uleb128 0xb
ARM GAS  C:\Users\jrdia\AppData\Local\Temp\ccJ9Fnzg.s 			page 153


 7625 0290 6E       		.uleb128 0x6e
 7626 0291 0E       		.uleb128 0xe
 7627 0292 4C       		.uleb128 0x4c
 7628 0293 0B       		.uleb128 0xb
 7629 0294 4D       		.uleb128 0x4d
 7630 0295 18       		.uleb128 0x18
 7631 0296 1D       		.uleb128 0x1d
 7632 0297 13       		.uleb128 0x13
 7633 0298 32       		.uleb128 0x32
 7634 0299 0B       		.uleb128 0xb
 7635 029a 3C       		.uleb128 0x3c
 7636 029b 19       		.uleb128 0x19
 7637 029c 64       		.uleb128 0x64
 7638 029d 13       		.uleb128 0x13
 7639 029e 01       		.uleb128 0x1
 7640 029f 13       		.uleb128 0x13
 7641 02a0 00       		.byte	0
 7642 02a1 00       		.byte	0
 7643 02a2 2D       		.uleb128 0x2d
 7644 02a3 2E       		.uleb128 0x2e
 7645 02a4 01       		.byte	0x1
 7646 02a5 3F       		.uleb128 0x3f
 7647 02a6 19       		.uleb128 0x19
 7648 02a7 03       		.uleb128 0x3
 7649 02a8 0E       		.uleb128 0xe
 7650 02a9 3A       		.uleb128 0x3a
 7651 02aa 0B       		.uleb128 0xb
 7652 02ab 3B       		.uleb128 0x3b
 7653 02ac 0B       		.uleb128 0xb
 7654 02ad 6E       		.uleb128 0x6e
 7655 02ae 0E       		.uleb128 0xe
 7656 02af 49       		.uleb128 0x49
 7657 02b0 13       		.uleb128 0x13
 7658 02b1 4C       		.uleb128 0x4c
 7659 02b2 0B       		.uleb128 0xb
 7660 02b3 4D       		.uleb128 0x4d
 7661 02b4 18       		.uleb128 0x18
 7662 02b5 1D       		.uleb128 0x1d
 7663 02b6 13       		.uleb128 0x13
 7664 02b7 32       		.uleb128 0x32
 7665 02b8 0B       		.uleb128 0xb
 7666 02b9 3C       		.uleb128 0x3c
 7667 02ba 19       		.uleb128 0x19
 7668 02bb 64       		.uleb128 0x64
 7669 02bc 13       		.uleb128 0x13
 7670 02bd 00       		.byte	0
 7671 02be 00       		.byte	0
 7672 02bf 2E       		.uleb128 0x2e
 7673 02c0 10       		.uleb128 0x10
 7674 02c1 00       		.byte	0
 7675 02c2 0B       		.uleb128 0xb
 7676 02c3 0B       		.uleb128 0xb
 7677 02c4 49       		.uleb128 0x49
 7678 02c5 13       		.uleb128 0x13
 7679 02c6 00       		.byte	0
 7680 02c7 00       		.byte	0
 7681 02c8 2F       		.uleb128 0x2f
ARM GAS  C:\Users\jrdia\AppData\Local\Temp\ccJ9Fnzg.s 			page 154


 7682 02c9 1C       		.uleb128 0x1c
 7683 02ca 00       		.byte	0
 7684 02cb 49       		.uleb128 0x49
 7685 02cc 13       		.uleb128 0x13
 7686 02cd 38       		.uleb128 0x38
 7687 02ce 0B       		.uleb128 0xb
 7688 02cf 00       		.byte	0
 7689 02d0 00       		.byte	0
 7690 02d1 30       		.uleb128 0x30
 7691 02d2 2E       		.uleb128 0x2e
 7692 02d3 01       		.byte	0x1
 7693 02d4 3F       		.uleb128 0x3f
 7694 02d5 19       		.uleb128 0x19
 7695 02d6 03       		.uleb128 0x3
 7696 02d7 0E       		.uleb128 0xe
 7697 02d8 3A       		.uleb128 0x3a
 7698 02d9 0B       		.uleb128 0xb
 7699 02da 3B       		.uleb128 0x3b
 7700 02db 0B       		.uleb128 0xb
 7701 02dc 6E       		.uleb128 0x6e
 7702 02dd 0E       		.uleb128 0xe
 7703 02de 49       		.uleb128 0x49
 7704 02df 13       		.uleb128 0x13
 7705 02e0 3C       		.uleb128 0x3c
 7706 02e1 19       		.uleb128 0x19
 7707 02e2 64       		.uleb128 0x64
 7708 02e3 13       		.uleb128 0x13
 7709 02e4 01       		.uleb128 0x1
 7710 02e5 13       		.uleb128 0x13
 7711 02e6 00       		.byte	0
 7712 02e7 00       		.byte	0
 7713 02e8 31       		.uleb128 0x31
 7714 02e9 2E       		.uleb128 0x2e
 7715 02ea 01       		.byte	0x1
 7716 02eb 3F       		.uleb128 0x3f
 7717 02ec 19       		.uleb128 0x19
 7718 02ed 03       		.uleb128 0x3
 7719 02ee 0E       		.uleb128 0xe
 7720 02ef 3A       		.uleb128 0x3a
 7721 02f0 0B       		.uleb128 0xb
 7722 02f1 3B       		.uleb128 0x3b
 7723 02f2 05       		.uleb128 0x5
 7724 02f3 6E       		.uleb128 0x6e
 7725 02f4 0E       		.uleb128 0xe
 7726 02f5 4C       		.uleb128 0x4c
 7727 02f6 0B       		.uleb128 0xb
 7728 02f7 4D       		.uleb128 0x4d
 7729 02f8 18       		.uleb128 0x18
 7730 02f9 1D       		.uleb128 0x1d
 7731 02fa 13       		.uleb128 0x13
 7732 02fb 32       		.uleb128 0x32
 7733 02fc 0B       		.uleb128 0xb
 7734 02fd 3C       		.uleb128 0x3c
 7735 02fe 19       		.uleb128 0x19
 7736 02ff 64       		.uleb128 0x64
 7737 0300 13       		.uleb128 0x13
 7738 0301 01       		.uleb128 0x1
ARM GAS  C:\Users\jrdia\AppData\Local\Temp\ccJ9Fnzg.s 			page 155


 7739 0302 13       		.uleb128 0x13
 7740 0303 00       		.byte	0
 7741 0304 00       		.byte	0
 7742 0305 32       		.uleb128 0x32
 7743 0306 26       		.uleb128 0x26
 7744 0307 00       		.byte	0
 7745 0308 49       		.uleb128 0x49
 7746 0309 13       		.uleb128 0x13
 7747 030a 00       		.byte	0
 7748 030b 00       		.byte	0
 7749 030c 33       		.uleb128 0x33
 7750 030d 15       		.uleb128 0x15
 7751 030e 01       		.byte	0x1
 7752 030f 49       		.uleb128 0x49
 7753 0310 13       		.uleb128 0x13
 7754 0311 01       		.uleb128 0x1
 7755 0312 13       		.uleb128 0x13
 7756 0313 00       		.byte	0
 7757 0314 00       		.byte	0
 7758 0315 34       		.uleb128 0x34
 7759 0316 18       		.uleb128 0x18
 7760 0317 00       		.byte	0
 7761 0318 00       		.byte	0
 7762 0319 00       		.byte	0
 7763 031a 35       		.uleb128 0x35
 7764 031b 0F       		.uleb128 0xf
 7765 031c 00       		.byte	0
 7766 031d 0B       		.uleb128 0xb
 7767 031e 0B       		.uleb128 0xb
 7768 031f 03       		.uleb128 0x3
 7769 0320 0E       		.uleb128 0xe
 7770 0321 49       		.uleb128 0x49
 7771 0322 13       		.uleb128 0x13
 7772 0323 00       		.byte	0
 7773 0324 00       		.byte	0
 7774 0325 36       		.uleb128 0x36
 7775 0326 2E       		.uleb128 0x2e
 7776 0327 01       		.byte	0x1
 7777 0328 47       		.uleb128 0x47
 7778 0329 13       		.uleb128 0x13
 7779 032a 20       		.uleb128 0x20
 7780 032b 0B       		.uleb128 0xb
 7781 032c 64       		.uleb128 0x64
 7782 032d 13       		.uleb128 0x13
 7783 032e 01       		.uleb128 0x1
 7784 032f 13       		.uleb128 0x13
 7785 0330 00       		.byte	0
 7786 0331 00       		.byte	0
 7787 0332 37       		.uleb128 0x37
 7788 0333 05       		.uleb128 0x5
 7789 0334 00       		.byte	0
 7790 0335 03       		.uleb128 0x3
 7791 0336 0E       		.uleb128 0xe
 7792 0337 49       		.uleb128 0x49
 7793 0338 13       		.uleb128 0x13
 7794 0339 34       		.uleb128 0x34
 7795 033a 19       		.uleb128 0x19
ARM GAS  C:\Users\jrdia\AppData\Local\Temp\ccJ9Fnzg.s 			page 156


 7796 033b 00       		.byte	0
 7797 033c 00       		.byte	0
 7798 033d 38       		.uleb128 0x38
 7799 033e 05       		.uleb128 0x5
 7800 033f 00       		.byte	0
 7801 0340 03       		.uleb128 0x3
 7802 0341 08       		.uleb128 0x8
 7803 0342 3A       		.uleb128 0x3a
 7804 0343 0B       		.uleb128 0xb
 7805 0344 3B       		.uleb128 0x3b
 7806 0345 0B       		.uleb128 0xb
 7807 0346 49       		.uleb128 0x49
 7808 0347 13       		.uleb128 0x13
 7809 0348 00       		.byte	0
 7810 0349 00       		.byte	0
 7811 034a 39       		.uleb128 0x39
 7812 034b 05       		.uleb128 0x5
 7813 034c 00       		.byte	0
 7814 034d 03       		.uleb128 0x3
 7815 034e 0E       		.uleb128 0xe
 7816 034f 3A       		.uleb128 0x3a
 7817 0350 0B       		.uleb128 0xb
 7818 0351 3B       		.uleb128 0x3b
 7819 0352 0B       		.uleb128 0xb
 7820 0353 49       		.uleb128 0x49
 7821 0354 13       		.uleb128 0x13
 7822 0355 00       		.byte	0
 7823 0356 00       		.byte	0
 7824 0357 3A       		.uleb128 0x3a
 7825 0358 2E       		.uleb128 0x2e
 7826 0359 01       		.byte	0x1
 7827 035a 47       		.uleb128 0x47
 7828 035b 13       		.uleb128 0x13
 7829 035c 3A       		.uleb128 0x3a
 7830 035d 0B       		.uleb128 0xb
 7831 035e 3B       		.uleb128 0x3b
 7832 035f 0B       		.uleb128 0xb
 7833 0360 20       		.uleb128 0x20
 7834 0361 0B       		.uleb128 0xb
 7835 0362 64       		.uleb128 0x64
 7836 0363 13       		.uleb128 0x13
 7837 0364 01       		.uleb128 0x1
 7838 0365 13       		.uleb128 0x13
 7839 0366 00       		.byte	0
 7840 0367 00       		.byte	0
 7841 0368 3B       		.uleb128 0x3b
 7842 0369 0B       		.uleb128 0xb
 7843 036a 01       		.byte	0x1
 7844 036b 00       		.byte	0
 7845 036c 00       		.byte	0
 7846 036d 3C       		.uleb128 0x3c
 7847 036e 34       		.uleb128 0x34
 7848 036f 00       		.byte	0
 7849 0370 03       		.uleb128 0x3
 7850 0371 08       		.uleb128 0x8
 7851 0372 3A       		.uleb128 0x3a
 7852 0373 0B       		.uleb128 0xb
ARM GAS  C:\Users\jrdia\AppData\Local\Temp\ccJ9Fnzg.s 			page 157


 7853 0374 3B       		.uleb128 0x3b
 7854 0375 0B       		.uleb128 0xb
 7855 0376 49       		.uleb128 0x49
 7856 0377 13       		.uleb128 0x13
 7857 0378 00       		.byte	0
 7858 0379 00       		.byte	0
 7859 037a 3D       		.uleb128 0x3d
 7860 037b 34       		.uleb128 0x34
 7861 037c 00       		.byte	0
 7862 037d 03       		.uleb128 0x3
 7863 037e 0E       		.uleb128 0xe
 7864 037f 3A       		.uleb128 0x3a
 7865 0380 0B       		.uleb128 0xb
 7866 0381 3B       		.uleb128 0x3b
 7867 0382 0B       		.uleb128 0xb
 7868 0383 49       		.uleb128 0x49
 7869 0384 13       		.uleb128 0x13
 7870 0385 00       		.byte	0
 7871 0386 00       		.byte	0
 7872 0387 3E       		.uleb128 0x3e
 7873 0388 2E       		.uleb128 0x2e
 7874 0389 01       		.byte	0x1
 7875 038a 47       		.uleb128 0x47
 7876 038b 13       		.uleb128 0x13
 7877 038c 11       		.uleb128 0x11
 7878 038d 01       		.uleb128 0x1
 7879 038e 12       		.uleb128 0x12
 7880 038f 06       		.uleb128 0x6
 7881 0390 40       		.uleb128 0x40
 7882 0391 18       		.uleb128 0x18
 7883 0392 64       		.uleb128 0x64
 7884 0393 13       		.uleb128 0x13
 7885 0394 9742     		.uleb128 0x2117
 7886 0396 19       		.uleb128 0x19
 7887 0397 01       		.uleb128 0x1
 7888 0398 13       		.uleb128 0x13
 7889 0399 00       		.byte	0
 7890 039a 00       		.byte	0
 7891 039b 3F       		.uleb128 0x3f
 7892 039c 05       		.uleb128 0x5
 7893 039d 00       		.byte	0
 7894 039e 03       		.uleb128 0x3
 7895 039f 0E       		.uleb128 0xe
 7896 03a0 49       		.uleb128 0x49
 7897 03a1 13       		.uleb128 0x13
 7898 03a2 34       		.uleb128 0x34
 7899 03a3 19       		.uleb128 0x19
 7900 03a4 02       		.uleb128 0x2
 7901 03a5 17       		.uleb128 0x17
 7902 03a6 00       		.byte	0
 7903 03a7 00       		.byte	0
 7904 03a8 40       		.uleb128 0x40
 7905 03a9 05       		.uleb128 0x5
 7906 03aa 00       		.byte	0
 7907 03ab 03       		.uleb128 0x3
 7908 03ac 0E       		.uleb128 0xe
 7909 03ad 3A       		.uleb128 0x3a
ARM GAS  C:\Users\jrdia\AppData\Local\Temp\ccJ9Fnzg.s 			page 158


 7910 03ae 0B       		.uleb128 0xb
 7911 03af 3B       		.uleb128 0x3b
 7912 03b0 0B       		.uleb128 0xb
 7913 03b1 49       		.uleb128 0x49
 7914 03b2 13       		.uleb128 0x13
 7915 03b3 02       		.uleb128 0x2
 7916 03b4 18       		.uleb128 0x18
 7917 03b5 00       		.byte	0
 7918 03b6 00       		.byte	0
 7919 03b7 41       		.uleb128 0x41
 7920 03b8 05       		.uleb128 0x5
 7921 03b9 00       		.byte	0
 7922 03ba 03       		.uleb128 0x3
 7923 03bb 0E       		.uleb128 0xe
 7924 03bc 49       		.uleb128 0x49
 7925 03bd 13       		.uleb128 0x13
 7926 03be 34       		.uleb128 0x34
 7927 03bf 19       		.uleb128 0x19
 7928 03c0 02       		.uleb128 0x2
 7929 03c1 18       		.uleb128 0x18
 7930 03c2 00       		.byte	0
 7931 03c3 00       		.byte	0
 7932 03c4 42       		.uleb128 0x42
 7933 03c5 05       		.uleb128 0x5
 7934 03c6 00       		.byte	0
 7935 03c7 03       		.uleb128 0x3
 7936 03c8 08       		.uleb128 0x8
 7937 03c9 3A       		.uleb128 0x3a
 7938 03ca 0B       		.uleb128 0xb
 7939 03cb 3B       		.uleb128 0x3b
 7940 03cc 0B       		.uleb128 0xb
 7941 03cd 49       		.uleb128 0x49
 7942 03ce 13       		.uleb128 0x13
 7943 03cf 02       		.uleb128 0x2
 7944 03d0 18       		.uleb128 0x18
 7945 03d1 00       		.byte	0
 7946 03d2 00       		.byte	0
 7947 03d3 43       		.uleb128 0x43
 7948 03d4 05       		.uleb128 0x5
 7949 03d5 00       		.byte	0
 7950 03d6 03       		.uleb128 0x3
 7951 03d7 0E       		.uleb128 0xe
 7952 03d8 3A       		.uleb128 0x3a
 7953 03d9 0B       		.uleb128 0xb
 7954 03da 3B       		.uleb128 0x3b
 7955 03db 0B       		.uleb128 0xb
 7956 03dc 49       		.uleb128 0x49
 7957 03dd 13       		.uleb128 0x13
 7958 03de 02       		.uleb128 0x2
 7959 03df 17       		.uleb128 0x17
 7960 03e0 00       		.byte	0
 7961 03e1 00       		.byte	0
 7962 03e2 44       		.uleb128 0x44
 7963 03e3 2E       		.uleb128 0x2e
 7964 03e4 01       		.byte	0x1
 7965 03e5 47       		.uleb128 0x47
 7966 03e6 13       		.uleb128 0x13
ARM GAS  C:\Users\jrdia\AppData\Local\Temp\ccJ9Fnzg.s 			page 159


 7967 03e7 11       		.uleb128 0x11
 7968 03e8 01       		.uleb128 0x1
 7969 03e9 12       		.uleb128 0x12
 7970 03ea 06       		.uleb128 0x6
 7971 03eb 40       		.uleb128 0x40
 7972 03ec 18       		.uleb128 0x18
 7973 03ed 64       		.uleb128 0x64
 7974 03ee 13       		.uleb128 0x13
 7975 03ef 9642     		.uleb128 0x2116
 7976 03f1 19       		.uleb128 0x19
 7977 03f2 01       		.uleb128 0x1
 7978 03f3 13       		.uleb128 0x13
 7979 03f4 00       		.byte	0
 7980 03f5 00       		.byte	0
 7981 03f6 45       		.uleb128 0x45
 7982 03f7 1D       		.uleb128 0x1d
 7983 03f8 01       		.byte	0x1
 7984 03f9 31       		.uleb128 0x31
 7985 03fa 13       		.uleb128 0x13
 7986 03fb 52       		.uleb128 0x52
 7987 03fc 01       		.uleb128 0x1
 7988 03fd 55       		.uleb128 0x55
 7989 03fe 17       		.uleb128 0x17
 7990 03ff 58       		.uleb128 0x58
 7991 0400 0B       		.uleb128 0xb
 7992 0401 59       		.uleb128 0x59
 7993 0402 0B       		.uleb128 0xb
 7994 0403 00       		.byte	0
 7995 0404 00       		.byte	0
 7996 0405 46       		.uleb128 0x46
 7997 0406 05       		.uleb128 0x5
 7998 0407 00       		.byte	0
 7999 0408 31       		.uleb128 0x31
 8000 0409 13       		.uleb128 0x13
 8001 040a 02       		.uleb128 0x2
 8002 040b 17       		.uleb128 0x17
 8003 040c 00       		.byte	0
 8004 040d 00       		.byte	0
 8005 040e 47       		.uleb128 0x47
 8006 040f 0A       		.uleb128 0xa
 8007 0410 00       		.byte	0
 8008 0411 03       		.uleb128 0x3
 8009 0412 0E       		.uleb128 0xe
 8010 0413 3A       		.uleb128 0x3a
 8011 0414 0B       		.uleb128 0xb
 8012 0415 3B       		.uleb128 0x3b
 8013 0416 0B       		.uleb128 0xb
 8014 0417 00       		.byte	0
 8015 0418 00       		.byte	0
 8016 0419 48       		.uleb128 0x48
 8017 041a 34       		.uleb128 0x34
 8018 041b 00       		.byte	0
 8019 041c 03       		.uleb128 0x3
 8020 041d 08       		.uleb128 0x8
 8021 041e 3A       		.uleb128 0x3a
 8022 041f 0B       		.uleb128 0xb
 8023 0420 3B       		.uleb128 0x3b
ARM GAS  C:\Users\jrdia\AppData\Local\Temp\ccJ9Fnzg.s 			page 160


 8024 0421 0B       		.uleb128 0xb
 8025 0422 49       		.uleb128 0x49
 8026 0423 13       		.uleb128 0x13
 8027 0424 02       		.uleb128 0x2
 8028 0425 18       		.uleb128 0x18
 8029 0426 00       		.byte	0
 8030 0427 00       		.byte	0
 8031 0428 49       		.uleb128 0x49
 8032 0429 34       		.uleb128 0x34
 8033 042a 00       		.byte	0
 8034 042b 03       		.uleb128 0x3
 8035 042c 08       		.uleb128 0x8
 8036 042d 3A       		.uleb128 0x3a
 8037 042e 0B       		.uleb128 0xb
 8038 042f 3B       		.uleb128 0x3b
 8039 0430 0B       		.uleb128 0xb
 8040 0431 49       		.uleb128 0x49
 8041 0432 13       		.uleb128 0x13
 8042 0433 02       		.uleb128 0x2
 8043 0434 17       		.uleb128 0x17
 8044 0435 00       		.byte	0
 8045 0436 00       		.byte	0
 8046 0437 4A       		.uleb128 0x4a
 8047 0438 34       		.uleb128 0x34
 8048 0439 00       		.byte	0
 8049 043a 03       		.uleb128 0x3
 8050 043b 0E       		.uleb128 0xe
 8051 043c 3A       		.uleb128 0x3a
 8052 043d 0B       		.uleb128 0xb
 8053 043e 3B       		.uleb128 0x3b
 8054 043f 0B       		.uleb128 0xb
 8055 0440 49       		.uleb128 0x49
 8056 0441 13       		.uleb128 0x13
 8057 0442 02       		.uleb128 0x2
 8058 0443 17       		.uleb128 0x17
 8059 0444 00       		.byte	0
 8060 0445 00       		.byte	0
 8061 0446 4B       		.uleb128 0x4b
 8062 0447 1D       		.uleb128 0x1d
 8063 0448 01       		.byte	0x1
 8064 0449 31       		.uleb128 0x31
 8065 044a 13       		.uleb128 0x13
 8066 044b 11       		.uleb128 0x11
 8067 044c 01       		.uleb128 0x1
 8068 044d 12       		.uleb128 0x12
 8069 044e 06       		.uleb128 0x6
 8070 044f 58       		.uleb128 0x58
 8071 0450 0B       		.uleb128 0xb
 8072 0451 59       		.uleb128 0x59
 8073 0452 0B       		.uleb128 0xb
 8074 0453 01       		.uleb128 0x1
 8075 0454 13       		.uleb128 0x13
 8076 0455 00       		.byte	0
 8077 0456 00       		.byte	0
 8078 0457 4C       		.uleb128 0x4c
 8079 0458 898201   		.uleb128 0x4109
 8080 045b 01       		.byte	0x1
ARM GAS  C:\Users\jrdia\AppData\Local\Temp\ccJ9Fnzg.s 			page 161


 8081 045c 11       		.uleb128 0x11
 8082 045d 01       		.uleb128 0x1
 8083 045e 31       		.uleb128 0x31
 8084 045f 13       		.uleb128 0x13
 8085 0460 00       		.byte	0
 8086 0461 00       		.byte	0
 8087 0462 4D       		.uleb128 0x4d
 8088 0463 8A8201   		.uleb128 0x410a
 8089 0466 00       		.byte	0
 8090 0467 02       		.uleb128 0x2
 8091 0468 18       		.uleb128 0x18
 8092 0469 9142     		.uleb128 0x2111
 8093 046b 18       		.uleb128 0x18
 8094 046c 00       		.byte	0
 8095 046d 00       		.byte	0
 8096 046e 4E       		.uleb128 0x4e
 8097 046f 0B       		.uleb128 0xb
 8098 0470 01       		.byte	0x1
 8099 0471 11       		.uleb128 0x11
 8100 0472 01       		.uleb128 0x1
 8101 0473 12       		.uleb128 0x12
 8102 0474 06       		.uleb128 0x6
 8103 0475 01       		.uleb128 0x1
 8104 0476 13       		.uleb128 0x13
 8105 0477 00       		.byte	0
 8106 0478 00       		.byte	0
 8107 0479 4F       		.uleb128 0x4f
 8108 047a 34       		.uleb128 0x34
 8109 047b 00       		.byte	0
 8110 047c 03       		.uleb128 0x3
 8111 047d 0E       		.uleb128 0xe
 8112 047e 3A       		.uleb128 0x3a
 8113 047f 0B       		.uleb128 0xb
 8114 0480 3B       		.uleb128 0x3b
 8115 0481 0B       		.uleb128 0xb
 8116 0482 49       		.uleb128 0x49
 8117 0483 13       		.uleb128 0x13
 8118 0484 02       		.uleb128 0x2
 8119 0485 18       		.uleb128 0x18
 8120 0486 00       		.byte	0
 8121 0487 00       		.byte	0
 8122 0488 50       		.uleb128 0x50
 8123 0489 1D       		.uleb128 0x1d
 8124 048a 01       		.byte	0x1
 8125 048b 31       		.uleb128 0x31
 8126 048c 13       		.uleb128 0x13
 8127 048d 52       		.uleb128 0x52
 8128 048e 01       		.uleb128 0x1
 8129 048f 55       		.uleb128 0x55
 8130 0490 17       		.uleb128 0x17
 8131 0491 58       		.uleb128 0x58
 8132 0492 0B       		.uleb128 0xb
 8133 0493 59       		.uleb128 0x59
 8134 0494 0B       		.uleb128 0xb
 8135 0495 01       		.uleb128 0x1
 8136 0496 13       		.uleb128 0x13
 8137 0497 00       		.byte	0
ARM GAS  C:\Users\jrdia\AppData\Local\Temp\ccJ9Fnzg.s 			page 162


 8138 0498 00       		.byte	0
 8139 0499 51       		.uleb128 0x51
 8140 049a 05       		.uleb128 0x5
 8141 049b 00       		.byte	0
 8142 049c 31       		.uleb128 0x31
 8143 049d 13       		.uleb128 0x13
 8144 049e 02       		.uleb128 0x2
 8145 049f 18       		.uleb128 0x18
 8146 04a0 00       		.byte	0
 8147 04a1 00       		.byte	0
 8148 04a2 52       		.uleb128 0x52
 8149 04a3 898201   		.uleb128 0x4109
 8150 04a6 01       		.byte	0x1
 8151 04a7 11       		.uleb128 0x11
 8152 04a8 01       		.uleb128 0x1
 8153 04a9 01       		.uleb128 0x1
 8154 04aa 13       		.uleb128 0x13
 8155 04ab 00       		.byte	0
 8156 04ac 00       		.byte	0
 8157 04ad 53       		.uleb128 0x53
 8158 04ae 898201   		.uleb128 0x4109
 8159 04b1 01       		.byte	0x1
 8160 04b2 11       		.uleb128 0x11
 8161 04b3 01       		.uleb128 0x1
 8162 04b4 31       		.uleb128 0x31
 8163 04b5 13       		.uleb128 0x13
 8164 04b6 01       		.uleb128 0x1
 8165 04b7 13       		.uleb128 0x13
 8166 04b8 00       		.byte	0
 8167 04b9 00       		.byte	0
 8168 04ba 54       		.uleb128 0x54
 8169 04bb 898201   		.uleb128 0x4109
 8170 04be 01       		.byte	0x1
 8171 04bf 11       		.uleb128 0x11
 8172 04c0 01       		.uleb128 0x1
 8173 04c1 9342     		.uleb128 0x2113
 8174 04c3 18       		.uleb128 0x18
 8175 04c4 01       		.uleb128 0x1
 8176 04c5 13       		.uleb128 0x13
 8177 04c6 00       		.byte	0
 8178 04c7 00       		.byte	0
 8179 04c8 55       		.uleb128 0x55
 8180 04c9 05       		.uleb128 0x5
 8181 04ca 00       		.byte	0
 8182 04cb 03       		.uleb128 0x3
 8183 04cc 0E       		.uleb128 0xe
 8184 04cd 3A       		.uleb128 0x3a
 8185 04ce 0B       		.uleb128 0xb
 8186 04cf 3B       		.uleb128 0x3b
 8187 04d0 05       		.uleb128 0x5
 8188 04d1 49       		.uleb128 0x49
 8189 04d2 13       		.uleb128 0x13
 8190 04d3 02       		.uleb128 0x2
 8191 04d4 17       		.uleb128 0x17
 8192 04d5 00       		.byte	0
 8193 04d6 00       		.byte	0
 8194 04d7 56       		.uleb128 0x56
ARM GAS  C:\Users\jrdia\AppData\Local\Temp\ccJ9Fnzg.s 			page 163


 8195 04d8 34       		.uleb128 0x34
 8196 04d9 00       		.byte	0
 8197 04da 03       		.uleb128 0x3
 8198 04db 08       		.uleb128 0x8
 8199 04dc 3A       		.uleb128 0x3a
 8200 04dd 0B       		.uleb128 0xb
 8201 04de 3B       		.uleb128 0x3b
 8202 04df 05       		.uleb128 0x5
 8203 04e0 49       		.uleb128 0x49
 8204 04e1 13       		.uleb128 0x13
 8205 04e2 02       		.uleb128 0x2
 8206 04e3 18       		.uleb128 0x18
 8207 04e4 00       		.byte	0
 8208 04e5 00       		.byte	0
 8209 04e6 57       		.uleb128 0x57
 8210 04e7 34       		.uleb128 0x34
 8211 04e8 00       		.byte	0
 8212 04e9 03       		.uleb128 0x3
 8213 04ea 0E       		.uleb128 0xe
 8214 04eb 3A       		.uleb128 0x3a
 8215 04ec 0B       		.uleb128 0xb
 8216 04ed 3B       		.uleb128 0x3b
 8217 04ee 05       		.uleb128 0x5
 8218 04ef 49       		.uleb128 0x49
 8219 04f0 13       		.uleb128 0x13
 8220 04f1 02       		.uleb128 0x2
 8221 04f2 17       		.uleb128 0x17
 8222 04f3 00       		.byte	0
 8223 04f4 00       		.byte	0
 8224 04f5 58       		.uleb128 0x58
 8225 04f6 1D       		.uleb128 0x1d
 8226 04f7 01       		.byte	0x1
 8227 04f8 31       		.uleb128 0x31
 8228 04f9 13       		.uleb128 0x13
 8229 04fa 52       		.uleb128 0x52
 8230 04fb 01       		.uleb128 0x1
 8231 04fc 55       		.uleb128 0x55
 8232 04fd 17       		.uleb128 0x17
 8233 04fe 58       		.uleb128 0x58
 8234 04ff 0B       		.uleb128 0xb
 8235 0500 59       		.uleb128 0x59
 8236 0501 05       		.uleb128 0x5
 8237 0502 01       		.uleb128 0x1
 8238 0503 13       		.uleb128 0x13
 8239 0504 00       		.byte	0
 8240 0505 00       		.byte	0
 8241 0506 59       		.uleb128 0x59
 8242 0507 05       		.uleb128 0x5
 8243 0508 00       		.byte	0
 8244 0509 31       		.uleb128 0x31
 8245 050a 13       		.uleb128 0x13
 8246 050b 00       		.byte	0
 8247 050c 00       		.byte	0
 8248 050d 5A       		.uleb128 0x5a
 8249 050e 1D       		.uleb128 0x1d
 8250 050f 01       		.byte	0x1
 8251 0510 31       		.uleb128 0x31
ARM GAS  C:\Users\jrdia\AppData\Local\Temp\ccJ9Fnzg.s 			page 164


 8252 0511 13       		.uleb128 0x13
 8253 0512 11       		.uleb128 0x11
 8254 0513 01       		.uleb128 0x1
 8255 0514 12       		.uleb128 0x12
 8256 0515 06       		.uleb128 0x6
 8257 0516 58       		.uleb128 0x58
 8258 0517 0B       		.uleb128 0xb
 8259 0518 59       		.uleb128 0x59
 8260 0519 05       		.uleb128 0x5
 8261 051a 01       		.uleb128 0x1
 8262 051b 13       		.uleb128 0x13
 8263 051c 00       		.byte	0
 8264 051d 00       		.byte	0
 8265 051e 5B       		.uleb128 0x5b
 8266 051f 05       		.uleb128 0x5
 8267 0520 00       		.byte	0
 8268 0521 31       		.uleb128 0x31
 8269 0522 13       		.uleb128 0x13
 8270 0523 1C       		.uleb128 0x1c
 8271 0524 0B       		.uleb128 0xb
 8272 0525 00       		.byte	0
 8273 0526 00       		.byte	0
 8274 0527 5C       		.uleb128 0x5c
 8275 0528 34       		.uleb128 0x34
 8276 0529 00       		.byte	0
 8277 052a 03       		.uleb128 0x3
 8278 052b 08       		.uleb128 0x8
 8279 052c 3A       		.uleb128 0x3a
 8280 052d 0B       		.uleb128 0xb
 8281 052e 3B       		.uleb128 0x3b
 8282 052f 05       		.uleb128 0x5
 8283 0530 49       		.uleb128 0x49
 8284 0531 13       		.uleb128 0x13
 8285 0532 02       		.uleb128 0x2
 8286 0533 17       		.uleb128 0x17
 8287 0534 00       		.byte	0
 8288 0535 00       		.byte	0
 8289 0536 5D       		.uleb128 0x5d
 8290 0537 2E       		.uleb128 0x2e
 8291 0538 01       		.byte	0x1
 8292 0539 31       		.uleb128 0x31
 8293 053a 13       		.uleb128 0x13
 8294 053b 6E       		.uleb128 0x6e
 8295 053c 0E       		.uleb128 0xe
 8296 053d 11       		.uleb128 0x11
 8297 053e 01       		.uleb128 0x1
 8298 053f 12       		.uleb128 0x12
 8299 0540 06       		.uleb128 0x6
 8300 0541 40       		.uleb128 0x40
 8301 0542 18       		.uleb128 0x18
 8302 0543 64       		.uleb128 0x64
 8303 0544 13       		.uleb128 0x13
 8304 0545 9742     		.uleb128 0x2117
 8305 0547 19       		.uleb128 0x19
 8306 0548 01       		.uleb128 0x1
 8307 0549 13       		.uleb128 0x13
 8308 054a 00       		.byte	0
ARM GAS  C:\Users\jrdia\AppData\Local\Temp\ccJ9Fnzg.s 			page 165


 8309 054b 00       		.byte	0
 8310 054c 5E       		.uleb128 0x5e
 8311 054d 0B       		.uleb128 0xb
 8312 054e 01       		.byte	0x1
 8313 054f 55       		.uleb128 0x55
 8314 0550 17       		.uleb128 0x17
 8315 0551 00       		.byte	0
 8316 0552 00       		.byte	0
 8317 0553 5F       		.uleb128 0x5f
 8318 0554 34       		.uleb128 0x34
 8319 0555 00       		.byte	0
 8320 0556 31       		.uleb128 0x31
 8321 0557 13       		.uleb128 0x13
 8322 0558 02       		.uleb128 0x2
 8323 0559 17       		.uleb128 0x17
 8324 055a 00       		.byte	0
 8325 055b 00       		.byte	0
 8326 055c 60       		.uleb128 0x60
 8327 055d 05       		.uleb128 0x5
 8328 055e 00       		.byte	0
 8329 055f 03       		.uleb128 0x3
 8330 0560 08       		.uleb128 0x8
 8331 0561 3A       		.uleb128 0x3a
 8332 0562 0B       		.uleb128 0xb
 8333 0563 3B       		.uleb128 0x3b
 8334 0564 05       		.uleb128 0x5
 8335 0565 49       		.uleb128 0x49
 8336 0566 13       		.uleb128 0x13
 8337 0567 02       		.uleb128 0x2
 8338 0568 17       		.uleb128 0x17
 8339 0569 00       		.byte	0
 8340 056a 00       		.byte	0
 8341 056b 61       		.uleb128 0x61
 8342 056c 34       		.uleb128 0x34
 8343 056d 00       		.byte	0
 8344 056e 03       		.uleb128 0x3
 8345 056f 08       		.uleb128 0x8
 8346 0570 3A       		.uleb128 0x3a
 8347 0571 0B       		.uleb128 0xb
 8348 0572 3B       		.uleb128 0x3b
 8349 0573 05       		.uleb128 0x5
 8350 0574 49       		.uleb128 0x49
 8351 0575 13       		.uleb128 0x13
 8352 0576 00       		.byte	0
 8353 0577 00       		.byte	0
 8354 0578 62       		.uleb128 0x62
 8355 0579 898201   		.uleb128 0x4109
 8356 057c 00       		.byte	0
 8357 057d 11       		.uleb128 0x11
 8358 057e 01       		.uleb128 0x1
 8359 057f 31       		.uleb128 0x31
 8360 0580 13       		.uleb128 0x13
 8361 0581 00       		.byte	0
 8362 0582 00       		.byte	0
 8363 0583 63       		.uleb128 0x63
 8364 0584 0B       		.uleb128 0xb
 8365 0585 01       		.byte	0x1
ARM GAS  C:\Users\jrdia\AppData\Local\Temp\ccJ9Fnzg.s 			page 166


 8366 0586 55       		.uleb128 0x55
 8367 0587 17       		.uleb128 0x17
 8368 0588 01       		.uleb128 0x1
 8369 0589 13       		.uleb128 0x13
 8370 058a 00       		.byte	0
 8371 058b 00       		.byte	0
 8372 058c 64       		.uleb128 0x64
 8373 058d 34       		.uleb128 0x34
 8374 058e 00       		.byte	0
 8375 058f 31       		.uleb128 0x31
 8376 0590 13       		.uleb128 0x13
 8377 0591 1C       		.uleb128 0x1c
 8378 0592 0B       		.uleb128 0xb
 8379 0593 00       		.byte	0
 8380 0594 00       		.byte	0
 8381 0595 65       		.uleb128 0x65
 8382 0596 0B       		.uleb128 0xb
 8383 0597 01       		.byte	0x1
 8384 0598 11       		.uleb128 0x11
 8385 0599 01       		.uleb128 0x1
 8386 059a 12       		.uleb128 0x12
 8387 059b 06       		.uleb128 0x6
 8388 059c 00       		.byte	0
 8389 059d 00       		.byte	0
 8390 059e 66       		.uleb128 0x66
 8391 059f 34       		.uleb128 0x34
 8392 05a0 00       		.byte	0
 8393 05a1 03       		.uleb128 0x3
 8394 05a2 0E       		.uleb128 0xe
 8395 05a3 3A       		.uleb128 0x3a
 8396 05a4 0B       		.uleb128 0xb
 8397 05a5 3B       		.uleb128 0x3b
 8398 05a6 0B       		.uleb128 0xb
 8399 05a7 49       		.uleb128 0x49
 8400 05a8 13       		.uleb128 0x13
 8401 05a9 3F       		.uleb128 0x3f
 8402 05aa 19       		.uleb128 0x19
 8403 05ab 3C       		.uleb128 0x3c
 8404 05ac 19       		.uleb128 0x19
 8405 05ad 00       		.byte	0
 8406 05ae 00       		.byte	0
 8407 05af 67       		.uleb128 0x67
 8408 05b0 34       		.uleb128 0x34
 8409 05b1 00       		.byte	0
 8410 05b2 47       		.uleb128 0x47
 8411 05b3 13       		.uleb128 0x13
 8412 05b4 6E       		.uleb128 0x6e
 8413 05b5 0E       		.uleb128 0xe
 8414 05b6 02       		.uleb128 0x2
 8415 05b7 18       		.uleb128 0x18
 8416 05b8 00       		.byte	0
 8417 05b9 00       		.byte	0
 8418 05ba 68       		.uleb128 0x68
 8419 05bb 2E       		.uleb128 0x2e
 8420 05bc 00       		.byte	0
 8421 05bd 3F       		.uleb128 0x3f
 8422 05be 19       		.uleb128 0x19
ARM GAS  C:\Users\jrdia\AppData\Local\Temp\ccJ9Fnzg.s 			page 167


 8423 05bf 3C       		.uleb128 0x3c
 8424 05c0 19       		.uleb128 0x19
 8425 05c1 6E       		.uleb128 0x6e
 8426 05c2 0E       		.uleb128 0xe
 8427 05c3 03       		.uleb128 0x3
 8428 05c4 0E       		.uleb128 0xe
 8429 05c5 3A       		.uleb128 0x3a
 8430 05c6 0B       		.uleb128 0xb
 8431 05c7 3B       		.uleb128 0x3b
 8432 05c8 0B       		.uleb128 0xb
 8433 05c9 00       		.byte	0
 8434 05ca 00       		.byte	0
 8435 05cb 00       		.byte	0
 8436              		.section	.debug_loc,"",%progbits
 8437              	.Ldebug_loc0:
 8438              	.LLST0:
 8439 0000 00000000 		.4byte	.LVL0
 8440 0004 02000000 		.4byte	.LVL1
 8441 0008 0100     		.2byte	0x1
 8442 000a 50       		.byte	0x50
 8443 000b 02000000 		.4byte	.LVL1
 8444 000f 04000000 		.4byte	.LFE179
 8445 0013 0400     		.2byte	0x4
 8446 0015 F3       		.byte	0xf3
 8447 0016 01       		.uleb128 0x1
 8448 0017 50       		.byte	0x50
 8449 0018 9F       		.byte	0x9f
 8450 0019 00000000 		.4byte	0
 8451 001d 00000000 		.4byte	0
 8452              	.LLST1:
 8453 0021 00000000 		.4byte	.LVL2
 8454 0025 02000000 		.4byte	.LVL3
 8455 0029 0100     		.2byte	0x1
 8456 002b 50       		.byte	0x50
 8457 002c 02000000 		.4byte	.LVL3
 8458 0030 04000000 		.4byte	.LFE180
 8459 0034 0400     		.2byte	0x4
 8460 0036 F3       		.byte	0xf3
 8461 0037 01       		.uleb128 0x1
 8462 0038 50       		.byte	0x50
 8463 0039 9F       		.byte	0x9f
 8464 003a 00000000 		.4byte	0
 8465 003e 00000000 		.4byte	0
 8466              	.LLST2:
 8467 0042 00000000 		.4byte	.LVL4
 8468 0046 02000000 		.4byte	.LVL5
 8469 004a 0100     		.2byte	0x1
 8470 004c 50       		.byte	0x50
 8471 004d 02000000 		.4byte	.LVL5
 8472 0051 04000000 		.4byte	.LFE181
 8473 0055 0400     		.2byte	0x4
 8474 0057 F3       		.byte	0xf3
 8475 0058 01       		.uleb128 0x1
 8476 0059 50       		.byte	0x50
 8477 005a 9F       		.byte	0x9f
 8478 005b 00000000 		.4byte	0
 8479 005f 00000000 		.4byte	0
ARM GAS  C:\Users\jrdia\AppData\Local\Temp\ccJ9Fnzg.s 			page 168


 8480              	.LLST3:
 8481 0063 00000000 		.4byte	.LVL6
 8482 0067 02000000 		.4byte	.LVL7
 8483 006b 0100     		.2byte	0x1
 8484 006d 50       		.byte	0x50
 8485 006e 02000000 		.4byte	.LVL7
 8486 0072 04000000 		.4byte	.LFE182
 8487 0076 0400     		.2byte	0x4
 8488 0078 F3       		.byte	0xf3
 8489 0079 01       		.uleb128 0x1
 8490 007a 50       		.byte	0x50
 8491 007b 9F       		.byte	0x9f
 8492 007c 00000000 		.4byte	0
 8493 0080 00000000 		.4byte	0
 8494              	.LLST4:
 8495 0084 00000000 		.4byte	.LVL8
 8496 0088 02000000 		.4byte	.LVL9
 8497 008c 0100     		.2byte	0x1
 8498 008e 50       		.byte	0x50
 8499 008f 02000000 		.4byte	.LVL9
 8500 0093 04000000 		.4byte	.LFE183
 8501 0097 0400     		.2byte	0x4
 8502 0099 F3       		.byte	0xf3
 8503 009a 01       		.uleb128 0x1
 8504 009b 50       		.byte	0x50
 8505 009c 9F       		.byte	0x9f
 8506 009d 00000000 		.4byte	0
 8507 00a1 00000000 		.4byte	0
 8508              	.LLST5:
 8509 00a5 00000000 		.4byte	.LVL11
 8510 00a9 02000000 		.4byte	.LVL12
 8511 00ad 0100     		.2byte	0x1
 8512 00af 50       		.byte	0x50
 8513 00b0 02000000 		.4byte	.LVL12
 8514 00b4 04000000 		.4byte	.LFE185
 8515 00b8 0400     		.2byte	0x4
 8516 00ba F3       		.byte	0xf3
 8517 00bb 01       		.uleb128 0x1
 8518 00bc 50       		.byte	0x50
 8519 00bd 9F       		.byte	0x9f
 8520 00be 00000000 		.4byte	0
 8521 00c2 00000000 		.4byte	0
 8522              	.LLST6:
 8523 00c6 00000000 		.4byte	.LVL13
 8524 00ca 02000000 		.4byte	.LVL14
 8525 00ce 0100     		.2byte	0x1
 8526 00d0 50       		.byte	0x50
 8527 00d1 02000000 		.4byte	.LVL14
 8528 00d5 04000000 		.4byte	.LFE186
 8529 00d9 0400     		.2byte	0x4
 8530 00db F3       		.byte	0xf3
 8531 00dc 01       		.uleb128 0x1
 8532 00dd 50       		.byte	0x50
 8533 00de 9F       		.byte	0x9f
 8534 00df 00000000 		.4byte	0
 8535 00e3 00000000 		.4byte	0
 8536              	.LLST7:
ARM GAS  C:\Users\jrdia\AppData\Local\Temp\ccJ9Fnzg.s 			page 169


 8537 00e7 00000000 		.4byte	.LVL15
 8538 00eb 02000000 		.4byte	.LVL16
 8539 00ef 0100     		.2byte	0x1
 8540 00f1 50       		.byte	0x50
 8541 00f2 02000000 		.4byte	.LVL16
 8542 00f6 04000000 		.4byte	.LFE187
 8543 00fa 0400     		.2byte	0x4
 8544 00fc F3       		.byte	0xf3
 8545 00fd 01       		.uleb128 0x1
 8546 00fe 50       		.byte	0x50
 8547 00ff 9F       		.byte	0x9f
 8548 0100 00000000 		.4byte	0
 8549 0104 00000000 		.4byte	0
 8550              	.LLST8:
 8551 0108 00000000 		.4byte	.LVL17
 8552 010c 02000000 		.4byte	.LVL18
 8553 0110 0100     		.2byte	0x1
 8554 0112 50       		.byte	0x50
 8555 0113 02000000 		.4byte	.LVL18
 8556 0117 04000000 		.4byte	.LFE213
 8557 011b 0400     		.2byte	0x4
 8558 011d F3       		.byte	0xf3
 8559 011e 01       		.uleb128 0x1
 8560 011f 50       		.byte	0x50
 8561 0120 9F       		.byte	0x9f
 8562 0121 00000000 		.4byte	0
 8563 0125 00000000 		.4byte	0
 8564              	.LLST9:
 8565 0129 00000000 		.4byte	.LVL19
 8566 012d 06000000 		.4byte	.LVL21
 8567 0131 0100     		.2byte	0x1
 8568 0133 50       		.byte	0x50
 8569 0134 06000000 		.4byte	.LVL21
 8570 0138 0A000000 		.4byte	.LFE214
 8571 013c 0400     		.2byte	0x4
 8572 013e F3       		.byte	0xf3
 8573 013f 01       		.uleb128 0x1
 8574 0140 50       		.byte	0x50
 8575 0141 9F       		.byte	0x9f
 8576 0142 00000000 		.4byte	0
 8577 0146 00000000 		.4byte	0
 8578              	.LLST10:
 8579 014a 00000000 		.4byte	.LVL19
 8580 014e 02000000 		.4byte	.LVL20
 8581 0152 0100     		.2byte	0x1
 8582 0154 51       		.byte	0x51
 8583 0155 02000000 		.4byte	.LVL20
 8584 0159 0A000000 		.4byte	.LFE214
 8585 015d 0400     		.2byte	0x4
 8586 015f F3       		.byte	0xf3
 8587 0160 01       		.uleb128 0x1
 8588 0161 51       		.byte	0x51
 8589 0162 9F       		.byte	0x9f
 8590 0163 00000000 		.4byte	0
 8591 0167 00000000 		.4byte	0
 8592              	.LLST11:
 8593 016b 00000000 		.4byte	.LVL22
ARM GAS  C:\Users\jrdia\AppData\Local\Temp\ccJ9Fnzg.s 			page 170


 8594 016f 06000000 		.4byte	.LVL23
 8595 0173 0100     		.2byte	0x1
 8596 0175 50       		.byte	0x50
 8597 0176 06000000 		.4byte	.LVL23
 8598 017a 2C000000 		.4byte	.LVL27
 8599 017e 0100     		.2byte	0x1
 8600 0180 54       		.byte	0x54
 8601 0181 2C000000 		.4byte	.LVL27
 8602 0185 2E000000 		.4byte	.LFE230
 8603 0189 0400     		.2byte	0x4
 8604 018b F3       		.byte	0xf3
 8605 018c 01       		.uleb128 0x1
 8606 018d 50       		.byte	0x50
 8607 018e 9F       		.byte	0x9f
 8608 018f 00000000 		.4byte	0
 8609 0193 00000000 		.4byte	0
 8610              	.LLST12:
 8611 0197 1A000000 		.4byte	.LVL25
 8612 019b 20000000 		.4byte	.LVL26
 8613 019f 0100     		.2byte	0x1
 8614 01a1 51       		.byte	0x51
 8615 01a2 00000000 		.4byte	0
 8616 01a6 00000000 		.4byte	0
 8617              	.LLST13:
 8618 01aa 00000000 		.4byte	.LVL28
 8619 01ae 1E000000 		.4byte	.LVL30
 8620 01b2 0100     		.2byte	0x1
 8621 01b4 50       		.byte	0x50
 8622 01b5 1E000000 		.4byte	.LVL30
 8623 01b9 22000000 		.4byte	.LVL31
 8624 01bd 0100     		.2byte	0x1
 8625 01bf 54       		.byte	0x54
 8626 01c0 22000000 		.4byte	.LVL31
 8627 01c4 2E000000 		.4byte	.LVL32
 8628 01c8 0400     		.2byte	0x4
 8629 01ca F3       		.byte	0xf3
 8630 01cb 01       		.uleb128 0x1
 8631 01cc 50       		.byte	0x50
 8632 01cd 9F       		.byte	0x9f
 8633 01ce 2E000000 		.4byte	.LVL32
 8634 01d2 38000000 		.4byte	.LVL35
 8635 01d6 0100     		.2byte	0x1
 8636 01d8 50       		.byte	0x50
 8637 01d9 38000000 		.4byte	.LVL35
 8638 01dd 3C020000 		.4byte	.LFE229
 8639 01e1 0100     		.2byte	0x1
 8640 01e3 54       		.byte	0x54
 8641 01e4 00000000 		.4byte	0
 8642 01e8 00000000 		.4byte	0
 8643              	.LLST14:
 8644 01ec 00000000 		.4byte	.LVL28
 8645 01f0 1E000000 		.4byte	.LVL30
 8646 01f4 0100     		.2byte	0x1
 8647 01f6 51       		.byte	0x51
 8648 01f7 1E000000 		.4byte	.LVL30
 8649 01fb 2E000000 		.4byte	.LVL32
 8650 01ff 0400     		.2byte	0x4
ARM GAS  C:\Users\jrdia\AppData\Local\Temp\ccJ9Fnzg.s 			page 171


 8651 0201 F3       		.byte	0xf3
 8652 0202 01       		.uleb128 0x1
 8653 0203 51       		.byte	0x51
 8654 0204 9F       		.byte	0x9f
 8655 0205 2E000000 		.4byte	.LVL32
 8656 0209 32000000 		.4byte	.LVL34
 8657 020d 0100     		.2byte	0x1
 8658 020f 51       		.byte	0x51
 8659 0210 32000000 		.4byte	.LVL34
 8660 0214 3C020000 		.4byte	.LFE229
 8661 0218 0400     		.2byte	0x4
 8662 021a F3       		.byte	0xf3
 8663 021b 01       		.uleb128 0x1
 8664 021c 51       		.byte	0x51
 8665 021d 9F       		.byte	0x9f
 8666 021e 00000000 		.4byte	0
 8667 0222 00000000 		.4byte	0
 8668              	.LLST15:
 8669 0226 00000000 		.4byte	.LVL28
 8670 022a 1E000000 		.4byte	.LVL30
 8671 022e 0100     		.2byte	0x1
 8672 0230 52       		.byte	0x52
 8673 0231 1E000000 		.4byte	.LVL30
 8674 0235 2E000000 		.4byte	.LVL32
 8675 0239 0400     		.2byte	0x4
 8676 023b F3       		.byte	0xf3
 8677 023c 01       		.uleb128 0x1
 8678 023d 52       		.byte	0x52
 8679 023e 9F       		.byte	0x9f
 8680 023f 2E000000 		.4byte	.LVL32
 8681 0243 3B000000 		.4byte	.LVL36-1
 8682 0247 0100     		.2byte	0x1
 8683 0249 52       		.byte	0x52
 8684 024a 3B000000 		.4byte	.LVL36-1
 8685 024e 3C020000 		.4byte	.LFE229
 8686 0252 0400     		.2byte	0x4
 8687 0254 F3       		.byte	0xf3
 8688 0255 01       		.uleb128 0x1
 8689 0256 52       		.byte	0x52
 8690 0257 9F       		.byte	0x9f
 8691 0258 00000000 		.4byte	0
 8692 025c 00000000 		.4byte	0
 8693              	.LLST16:
 8694 0260 00000000 		.4byte	.LVL28
 8695 0264 1E000000 		.4byte	.LVL30
 8696 0268 0100     		.2byte	0x1
 8697 026a 53       		.byte	0x53
 8698 026b 1E000000 		.4byte	.LVL30
 8699 026f 2E000000 		.4byte	.LVL32
 8700 0273 0400     		.2byte	0x4
 8701 0275 F3       		.byte	0xf3
 8702 0276 01       		.uleb128 0x1
 8703 0277 53       		.byte	0x53
 8704 0278 9F       		.byte	0x9f
 8705 0279 2E000000 		.4byte	.LVL32
 8706 027d 30000000 		.4byte	.LVL33
 8707 0281 0100     		.2byte	0x1
ARM GAS  C:\Users\jrdia\AppData\Local\Temp\ccJ9Fnzg.s 			page 172


 8708 0283 53       		.byte	0x53
 8709 0284 30000000 		.4byte	.LVL33
 8710 0288 3C020000 		.4byte	.LFE229
 8711 028c 0400     		.2byte	0x4
 8712 028e F3       		.byte	0xf3
 8713 028f 01       		.uleb128 0x1
 8714 0290 53       		.byte	0x53
 8715 0291 9F       		.byte	0x9f
 8716 0292 00000000 		.4byte	0
 8717 0296 00000000 		.4byte	0
 8718              	.LLST17:
 8719 029a 10000000 		.4byte	.LVL29
 8720 029e 7E000000 		.4byte	.LVL40
 8721 02a2 0400     		.2byte	0x4
 8722 02a4 91       		.byte	0x91
 8723 02a5 B87F     		.sleb128 -72
 8724 02a7 9F       		.byte	0x9f
 8725 02a8 7E000000 		.4byte	.LVL40
 8726 02ac 84000000 		.4byte	.LVL41
 8727 02b0 0100     		.2byte	0x1
 8728 02b2 53       		.byte	0x53
 8729 02b3 84000000 		.4byte	.LVL41
 8730 02b7 8B000000 		.4byte	.LVL43-1
 8731 02bb 0200     		.2byte	0x2
 8732 02bd 7D       		.byte	0x7d
 8733 02be 00       		.sleb128 0
 8734 02bf 8B000000 		.4byte	.LVL43-1
 8735 02c3 0E010000 		.4byte	.LVL54
 8736 02c7 0400     		.2byte	0x4
 8737 02c9 91       		.byte	0x91
 8738 02ca B87F     		.sleb128 -72
 8739 02cc 9F       		.byte	0x9f
 8740 02cd 0E010000 		.4byte	.LVL54
 8741 02d1 12010000 		.4byte	.LVL55
 8742 02d5 0100     		.2byte	0x1
 8743 02d7 53       		.byte	0x53
 8744 02d8 12010000 		.4byte	.LVL55
 8745 02dc 2F010000 		.4byte	.LVL57-1
 8746 02e0 0300     		.2byte	0x3
 8747 02e2 91       		.byte	0x91
 8748 02e3 907F     		.sleb128 -112
 8749 02e5 2F010000 		.4byte	.LVL57-1
 8750 02e9 44010000 		.4byte	.LVL59
 8751 02ed 0400     		.2byte	0x4
 8752 02ef 91       		.byte	0x91
 8753 02f0 B87F     		.sleb128 -72
 8754 02f2 9F       		.byte	0x9f
 8755 02f3 44010000 		.4byte	.LVL59
 8756 02f7 4C010000 		.4byte	.LVL60
 8757 02fb 0100     		.2byte	0x1
 8758 02fd 53       		.byte	0x53
 8759 02fe 4C010000 		.4byte	.LVL60
 8760 0302 51010000 		.4byte	.LVL62-1
 8761 0306 0300     		.2byte	0x3
 8762 0308 91       		.byte	0x91
 8763 0309 FC7E     		.sleb128 -132
 8764 030b 51010000 		.4byte	.LVL62-1
ARM GAS  C:\Users\jrdia\AppData\Local\Temp\ccJ9Fnzg.s 			page 173


 8765 030f 96010000 		.4byte	.LVL70
 8766 0313 0400     		.2byte	0x4
 8767 0315 91       		.byte	0x91
 8768 0316 B87F     		.sleb128 -72
 8769 0318 9F       		.byte	0x9f
 8770 0319 96010000 		.4byte	.LVL70
 8771 031d 9E010000 		.4byte	.LVL71
 8772 0321 0100     		.2byte	0x1
 8773 0323 52       		.byte	0x52
 8774 0324 9E010000 		.4byte	.LVL71
 8775 0328 A3010000 		.4byte	.LVL73-1
 8776 032c 0200     		.2byte	0x2
 8777 032e 7D       		.byte	0x7d
 8778 032f 00       		.sleb128 0
 8779 0330 A3010000 		.4byte	.LVL73-1
 8780 0334 AE010000 		.4byte	.LVL76
 8781 0338 0400     		.2byte	0x4
 8782 033a 91       		.byte	0x91
 8783 033b B87F     		.sleb128 -72
 8784 033d 9F       		.byte	0x9f
 8785 033e AE010000 		.4byte	.LVL76
 8786 0342 BA010000 		.4byte	.LVL77
 8787 0346 0100     		.2byte	0x1
 8788 0348 52       		.byte	0x52
 8789 0349 BA010000 		.4byte	.LVL77
 8790 034d BF010000 		.4byte	.LVL79-1
 8791 0351 0300     		.2byte	0x3
 8792 0353 91       		.byte	0x91
 8793 0354 FC7E     		.sleb128 -132
 8794 0356 BF010000 		.4byte	.LVL79-1
 8795 035a 3C020000 		.4byte	.LFE229
 8796 035e 0400     		.2byte	0x4
 8797 0360 91       		.byte	0x91
 8798 0361 B87F     		.sleb128 -72
 8799 0363 9F       		.byte	0x9f
 8800 0364 00000000 		.4byte	0
 8801 0368 00000000 		.4byte	0
 8802              	.LLST20:
 8803 036c 90000000 		.4byte	.LVL44
 8804 0370 B8000000 		.4byte	.LVL46
 8805 0374 0100     		.2byte	0x1
 8806 0376 50       		.byte	0x50
 8807 0377 DA000000 		.4byte	.LVL49
 8808 037b FA000000 		.4byte	.LVL50
 8809 037f 0100     		.2byte	0x1
 8810 0381 50       		.byte	0x50
 8811 0382 08010000 		.4byte	.LVL52
 8812 0386 2C010000 		.4byte	.LVL56
 8813 038a 0100     		.2byte	0x1
 8814 038c 50       		.byte	0x50
 8815 038d 2C010000 		.4byte	.LVL56
 8816 0391 2F010000 		.4byte	.LVL57-1
 8817 0395 0100     		.2byte	0x1
 8818 0397 52       		.byte	0x52
 8819 0398 2F010000 		.4byte	.LVL57-1
 8820 039c 32010000 		.4byte	.LVL58
 8821 03a0 0100     		.2byte	0x1
ARM GAS  C:\Users\jrdia\AppData\Local\Temp\ccJ9Fnzg.s 			page 174


 8822 03a2 55       		.byte	0x55
 8823 03a3 32010000 		.4byte	.LVL58
 8824 03a7 4E010000 		.4byte	.LVL61
 8825 03ab 0100     		.2byte	0x1
 8826 03ad 50       		.byte	0x50
 8827 03ae 52010000 		.4byte	.LVL62
 8828 03b2 6E010000 		.4byte	.LVL65
 8829 03b6 0100     		.2byte	0x1
 8830 03b8 50       		.byte	0x50
 8831 03b9 72010000 		.4byte	.LVL66
 8832 03bd 76010000 		.4byte	.LVL67
 8833 03c1 0100     		.2byte	0x1
 8834 03c3 50       		.byte	0x50
 8835 03c4 94010000 		.4byte	.LVL69
 8836 03c8 A0010000 		.4byte	.LVL72
 8837 03cc 0100     		.2byte	0x1
 8838 03ce 50       		.byte	0x50
 8839 03cf A6010000 		.4byte	.LVL74
 8840 03d3 BC010000 		.4byte	.LVL78
 8841 03d7 0100     		.2byte	0x1
 8842 03d9 50       		.byte	0x50
 8843 03da C0010000 		.4byte	.LVL79
 8844 03de D8010000 		.4byte	.LVL80
 8845 03e2 0100     		.2byte	0x1
 8846 03e4 50       		.byte	0x50
 8847 03e5 DC010000 		.4byte	.LVL81
 8848 03e9 EE010000 		.4byte	.LVL82
 8849 03ed 0100     		.2byte	0x1
 8850 03ef 50       		.byte	0x50
 8851 03f0 F2010000 		.4byte	.LVL83
 8852 03f4 FE010000 		.4byte	.LVL85
 8853 03f8 0100     		.2byte	0x1
 8854 03fa 50       		.byte	0x50
 8855 03fb 00000000 		.4byte	0
 8856 03ff 00000000 		.4byte	0
 8857              	.LLST21:
 8858 0403 10000000 		.4byte	.LVL29
 8859 0407 1E000000 		.4byte	.LVL30
 8860 040b 0200     		.2byte	0x2
 8861 040d 30       		.byte	0x30
 8862 040e 9F       		.byte	0x9f
 8863 040f 2E000000 		.4byte	.LVL32
 8864 0413 3E000000 		.4byte	.LVL37
 8865 0417 0200     		.2byte	0x2
 8866 0419 30       		.byte	0x30
 8867 041a 9F       		.byte	0x9f
 8868 041b 3E000000 		.4byte	.LVL37
 8869 041f 88000000 		.4byte	.LVL42
 8870 0423 0100     		.2byte	0x1
 8871 0425 50       		.byte	0x50
 8872 0426 88000000 		.4byte	.LVL42
 8873 042a 6E010000 		.4byte	.LVL65
 8874 042e 0100     		.2byte	0x1
 8875 0430 57       		.byte	0x57
 8876 0431 6E010000 		.4byte	.LVL65
 8877 0435 72010000 		.4byte	.LVL66
 8878 0439 0100     		.2byte	0x1
ARM GAS  C:\Users\jrdia\AppData\Local\Temp\ccJ9Fnzg.s 			page 175


 8879 043b 50       		.byte	0x50
 8880 043c 72010000 		.4byte	.LVL66
 8881 0440 F8010000 		.4byte	.LVL84
 8882 0444 0100     		.2byte	0x1
 8883 0446 57       		.byte	0x57
 8884 0447 00000000 		.4byte	0
 8885 044b 00000000 		.4byte	0
 8886              	.LLST22:
 8887 044f 10000000 		.4byte	.LVL29
 8888 0453 1E000000 		.4byte	.LVL30
 8889 0457 0200     		.2byte	0x2
 8890 0459 30       		.byte	0x30
 8891 045a 9F       		.byte	0x9f
 8892 045b 2E000000 		.4byte	.LVL32
 8893 045f 5E000000 		.4byte	.LVL38
 8894 0463 0200     		.2byte	0x2
 8895 0465 30       		.byte	0x30
 8896 0466 9F       		.byte	0x9f
 8897 0467 5E000000 		.4byte	.LVL38
 8898 046b 68000000 		.4byte	.LVL39
 8899 046f 0100     		.2byte	0x1
 8900 0471 52       		.byte	0x52
 8901 0472 68000000 		.4byte	.LVL39
 8902 0476 6E010000 		.4byte	.LVL65
 8903 047a 0300     		.2byte	0x3
 8904 047c 91       		.byte	0x91
 8905 047d 987F     		.sleb128 -104
 8906 047f 6E010000 		.4byte	.LVL65
 8907 0483 72010000 		.4byte	.LVL66
 8908 0487 0200     		.2byte	0x2
 8909 0489 30       		.byte	0x30
 8910 048a 9F       		.byte	0x9f
 8911 048b 72010000 		.4byte	.LVL66
 8912 048f 3C020000 		.4byte	.LFE229
 8913 0493 0300     		.2byte	0x3
 8914 0495 91       		.byte	0x91
 8915 0496 987F     		.sleb128 -104
 8916 0498 00000000 		.4byte	0
 8917 049c 00000000 		.4byte	0
 8918              	.LLST23:
 8919 04a0 10000000 		.4byte	.LVL29
 8920 04a4 1E000000 		.4byte	.LVL30
 8921 04a8 0200     		.2byte	0x2
 8922 04aa 30       		.byte	0x30
 8923 04ab 9F       		.byte	0x9f
 8924 04ac 2E000000 		.4byte	.LVL32
 8925 04b0 94000000 		.4byte	.LVL45
 8926 04b4 0200     		.2byte	0x2
 8927 04b6 30       		.byte	0x30
 8928 04b7 9F       		.byte	0x9f
 8929 04b8 94000000 		.4byte	.LVL45
 8930 04bc B9000000 		.4byte	.LVL47-1
 8931 04c0 1700     		.2byte	0x17
 8932 04c2 91       		.byte	0x91
 8933 04c3 B87F     		.sleb128 -72
 8934 04c5 94       		.byte	0x94
 8935 04c6 01       		.byte	0x1
ARM GAS  C:\Users\jrdia\AppData\Local\Temp\ccJ9Fnzg.s 			page 176


 8936 04c7 12       		.byte	0x12
 8937 04c8 08       		.byte	0x8
 8938 04c9 FF       		.byte	0xff
 8939 04ca 1A       		.byte	0x1a
 8940 04cb 08       		.byte	0x8
 8941 04cc 20       		.byte	0x20
 8942 04cd 16       		.byte	0x16
 8943 04ce 14       		.byte	0x14
 8944 04cf 08       		.byte	0x8
 8945 04d0 FF       		.byte	0xff
 8946 04d1 1A       		.byte	0x1a
 8947 04d2 2D       		.byte	0x2d
 8948 04d3 28       		.byte	0x28
 8949 04d4 0100     		.2byte	0x1
 8950 04d6 16       		.byte	0x16
 8951 04d7 13       		.byte	0x13
 8952 04d8 9F       		.byte	0x9f
 8953 04d9 5A010000 		.4byte	.LVL64
 8954 04dd 72010000 		.4byte	.LVL66
 8955 04e1 0200     		.2byte	0x2
 8956 04e3 30       		.byte	0x30
 8957 04e4 9F       		.byte	0x9f
 8958 04e5 00000000 		.4byte	0
 8959 04e9 00000000 		.4byte	0
 8960              	.LLST24:
 8961 04ed 10000000 		.4byte	.LVL29
 8962 04f1 1E000000 		.4byte	.LVL30
 8963 04f5 0200     		.2byte	0x2
 8964 04f7 30       		.byte	0x30
 8965 04f8 9F       		.byte	0x9f
 8966 04f9 2E000000 		.4byte	.LVL32
 8967 04fd 56010000 		.4byte	.LVL63
 8968 0501 0200     		.2byte	0x2
 8969 0503 30       		.byte	0x30
 8970 0504 9F       		.byte	0x9f
 8971 0505 5A010000 		.4byte	.LVL64
 8972 0509 AC010000 		.4byte	.LVL75
 8973 050d 0200     		.2byte	0x2
 8974 050f 30       		.byte	0x30
 8975 0510 9F       		.byte	0x9f
 8976 0511 AC010000 		.4byte	.LVL75
 8977 0515 BF010000 		.4byte	.LVL79-1
 8978 0519 0300     		.2byte	0x3
 8979 051b 91       		.byte	0x91
 8980 051c BA7F     		.sleb128 -70
 8981 051e 00000000 		.4byte	0
 8982 0522 00000000 		.4byte	0
 8983              	.LLST25:
 8984 0526 0C010000 		.4byte	.LVL53
 8985 052a 5A010000 		.4byte	.LVL64
 8986 052e 0100     		.2byte	0x1
 8987 0530 54       		.byte	0x54
 8988 0531 AC010000 		.4byte	.LVL75
 8989 0535 3C020000 		.4byte	.LFE229
 8990 0539 0100     		.2byte	0x1
 8991 053b 54       		.byte	0x54
 8992 053c 00000000 		.4byte	0
ARM GAS  C:\Users\jrdia\AppData\Local\Temp\ccJ9Fnzg.s 			page 177


 8993 0540 00000000 		.4byte	0
 8994              	.LLST27:
 8995 0544 0C010000 		.4byte	.LVL53
 8996 0548 0E010000 		.4byte	.LVL54
 8997 054c 0400     		.2byte	0x4
 8998 054e 91       		.byte	0x91
 8999 054f B87F     		.sleb128 -72
 9000 0551 9F       		.byte	0x9f
 9001 0552 0E010000 		.4byte	.LVL54
 9002 0556 12010000 		.4byte	.LVL55
 9003 055a 0100     		.2byte	0x1
 9004 055c 53       		.byte	0x53
 9005 055d 12010000 		.4byte	.LVL55
 9006 0561 2F010000 		.4byte	.LVL57-1
 9007 0565 0300     		.2byte	0x3
 9008 0567 91       		.byte	0x91
 9009 0568 907F     		.sleb128 -112
 9010 056a 2F010000 		.4byte	.LVL57-1
 9011 056e 32010000 		.4byte	.LVL58
 9012 0572 0400     		.2byte	0x4
 9013 0574 91       		.byte	0x91
 9014 0575 B87F     		.sleb128 -72
 9015 0577 9F       		.byte	0x9f
 9016 0578 00000000 		.4byte	0
 9017 057c 00000000 		.4byte	0
 9018              	.LLST28:
 9019 0580 0C010000 		.4byte	.LVL53
 9020 0584 32010000 		.4byte	.LVL58
 9021 0588 0200     		.2byte	0x2
 9022 058a 38       		.byte	0x38
 9023 058b 9F       		.byte	0x9f
 9024 058c 00000000 		.4byte	0
 9025 0590 00000000 		.4byte	0
 9026              	.LLST29:
 9027 0594 0C010000 		.4byte	.LVL53
 9028 0598 32010000 		.4byte	.LVL58
 9029 059c 0200     		.2byte	0x2
 9030 059e 30       		.byte	0x30
 9031 059f 9F       		.byte	0x9f
 9032 05a0 00000000 		.4byte	0
 9033 05a4 00000000 		.4byte	0
 9034              	.LLST30:
 9035 05a8 FE010000 		.4byte	.LVL85
 9036 05ac 22020000 		.4byte	.LVL87
 9037 05b0 0100     		.2byte	0x1
 9038 05b2 57       		.byte	0x57
 9039 05b3 28020000 		.4byte	.LVL89
 9040 05b7 3C020000 		.4byte	.LFE229
 9041 05bb 0100     		.2byte	0x1
 9042 05bd 57       		.byte	0x57
 9043 05be 00000000 		.4byte	0
 9044 05c2 00000000 		.4byte	0
 9045              	.LLST31:
 9046 05c6 04020000 		.4byte	.LVL86
 9047 05ca 26020000 		.4byte	.LVL88
 9048 05ce 0200     		.2byte	0x2
 9049 05d0 30       		.byte	0x30
ARM GAS  C:\Users\jrdia\AppData\Local\Temp\ccJ9Fnzg.s 			page 178


 9050 05d1 9F       		.byte	0x9f
 9051 05d2 00000000 		.4byte	0
 9052 05d6 00000000 		.4byte	0
 9053              	.LLST32:
 9054 05da 04020000 		.4byte	.LVL86
 9055 05de 2A020000 		.4byte	.LVL90
 9056 05e2 0100     		.2byte	0x1
 9057 05e4 54       		.byte	0x54
 9058 05e5 00000000 		.4byte	0
 9059 05e9 00000000 		.4byte	0
 9060              	.LLST34:
 9061 05ed 04020000 		.4byte	.LVL86
 9062 05f1 22020000 		.4byte	.LVL87
 9063 05f5 0100     		.2byte	0x1
 9064 05f7 57       		.byte	0x57
 9065 05f8 00000000 		.4byte	0
 9066 05fc 00000000 		.4byte	0
 9067              	.LLST35:
 9068 0600 04020000 		.4byte	.LVL86
 9069 0604 26020000 		.4byte	.LVL88
 9070 0608 0200     		.2byte	0x2
 9071 060a 38       		.byte	0x38
 9072 060b 9F       		.byte	0x9f
 9073 060c 00000000 		.4byte	0
 9074 0610 00000000 		.4byte	0
 9075              	.LLST36:
 9076 0614 00000000 		.4byte	.LVL92
 9077 0618 2E000000 		.4byte	.LVL94
 9078 061c 0100     		.2byte	0x1
 9079 061e 50       		.byte	0x50
 9080 061f 2E000000 		.4byte	.LVL94
 9081 0623 0A010000 		.4byte	.LVL108
 9082 0627 0100     		.2byte	0x1
 9083 0629 55       		.byte	0x55
 9084 062a 0A010000 		.4byte	.LVL108
 9085 062e 1C010000 		.4byte	.LFE233
 9086 0632 0400     		.2byte	0x4
 9087 0634 F3       		.byte	0xf3
 9088 0635 01       		.uleb128 0x1
 9089 0636 50       		.byte	0x50
 9090 0637 9F       		.byte	0x9f
 9091 0638 00000000 		.4byte	0
 9092 063c 00000000 		.4byte	0
 9093              	.LLST37:
 9094 0640 00000000 		.4byte	.LVL92
 9095 0644 16000000 		.4byte	.LVL93
 9096 0648 0100     		.2byte	0x1
 9097 064a 51       		.byte	0x51
 9098 064b 16000000 		.4byte	.LVL93
 9099 064f 1C010000 		.4byte	.LFE233
 9100 0653 0400     		.2byte	0x4
 9101 0655 F3       		.byte	0xf3
 9102 0656 01       		.uleb128 0x1
 9103 0657 51       		.byte	0x51
 9104 0658 9F       		.byte	0x9f
 9105 0659 00000000 		.4byte	0
 9106 065d 00000000 		.4byte	0
ARM GAS  C:\Users\jrdia\AppData\Local\Temp\ccJ9Fnzg.s 			page 179


 9107              	.LLST38:
 9108 0661 9E000000 		.4byte	.LVL100
 9109 0665 B0000000 		.4byte	.LVL101
 9110 0669 0100     		.2byte	0x1
 9111 066b 50       		.byte	0x50
 9112 066c 00000000 		.4byte	0
 9113 0670 00000000 		.4byte	0
 9114              	.LLST39:
 9115 0674 30000000 		.4byte	.LVL95
 9116 0678 34000000 		.4byte	.LVL96
 9117 067c 0200     		.2byte	0x2
 9118 067e 30       		.byte	0x30
 9119 067f 9F       		.byte	0x9f
 9120 0680 00000000 		.4byte	0
 9121 0684 00000000 		.4byte	0
 9122              	.LLST40:
 9123 0688 34000000 		.4byte	.LVL96
 9124 068c 0A010000 		.4byte	.LVL108
 9125 0690 0100     		.2byte	0x1
 9126 0692 55       		.byte	0x55
 9127 0693 0A010000 		.4byte	.LVL108
 9128 0697 1C010000 		.4byte	.LFE233
 9129 069b 0400     		.2byte	0x4
 9130 069d F3       		.byte	0xf3
 9131 069e 01       		.uleb128 0x1
 9132 069f 50       		.byte	0x50
 9133 06a0 9F       		.byte	0x9f
 9134 06a1 00000000 		.4byte	0
 9135 06a5 00000000 		.4byte	0
 9136              	.LLST41:
 9137 06a9 34000000 		.4byte	.LVL96
 9138 06ad 0A010000 		.4byte	.LVL108
 9139 06b1 0100     		.2byte	0x1
 9140 06b3 55       		.byte	0x55
 9141 06b4 0A010000 		.4byte	.LVL108
 9142 06b8 1C010000 		.4byte	.LFE233
 9143 06bc 0400     		.2byte	0x4
 9144 06be F3       		.byte	0xf3
 9145 06bf 01       		.uleb128 0x1
 9146 06c0 50       		.byte	0x50
 9147 06c1 9F       		.byte	0x9f
 9148 06c2 00000000 		.4byte	0
 9149 06c6 00000000 		.4byte	0
 9150              	.LLST42:
 9151 06ca 30000000 		.4byte	.LVL95
 9152 06ce 34000000 		.4byte	.LVL96
 9153 06d2 0200     		.2byte	0x2
 9154 06d4 41       		.byte	0x41
 9155 06d5 9F       		.byte	0x9f
 9156 06d6 00000000 		.4byte	0
 9157 06da 00000000 		.4byte	0
 9158              	.LLST43:
 9159 06de 34000000 		.4byte	.LVL96
 9160 06e2 52000000 		.4byte	.LVL97
 9161 06e6 0200     		.2byte	0x2
 9162 06e8 30       		.byte	0x30
 9163 06e9 9F       		.byte	0x9f
ARM GAS  C:\Users\jrdia\AppData\Local\Temp\ccJ9Fnzg.s 			page 180


 9164 06ea 00000000 		.4byte	0
 9165 06ee 00000000 		.4byte	0
 9166              	.LLST44:
 9167 06f2 34000000 		.4byte	.LVL96
 9168 06f6 0A010000 		.4byte	.LVL108
 9169 06fa 0100     		.2byte	0x1
 9170 06fc 55       		.byte	0x55
 9171 06fd 0A010000 		.4byte	.LVL108
 9172 0701 1C010000 		.4byte	.LFE233
 9173 0705 0400     		.2byte	0x4
 9174 0707 F3       		.byte	0xf3
 9175 0708 01       		.uleb128 0x1
 9176 0709 50       		.byte	0x50
 9177 070a 9F       		.byte	0x9f
 9178 070b 00000000 		.4byte	0
 9179 070f 00000000 		.4byte	0
 9180              	.LLST45:
 9181 0713 34000000 		.4byte	.LVL96
 9182 0717 0A010000 		.4byte	.LVL108
 9183 071b 0100     		.2byte	0x1
 9184 071d 55       		.byte	0x55
 9185 071e 0A010000 		.4byte	.LVL108
 9186 0722 1C010000 		.4byte	.LFE233
 9187 0726 0400     		.2byte	0x4
 9188 0728 F3       		.byte	0xf3
 9189 0729 01       		.uleb128 0x1
 9190 072a 50       		.byte	0x50
 9191 072b 9F       		.byte	0x9f
 9192 072c 00000000 		.4byte	0
 9193 0730 00000000 		.4byte	0
 9194              	.LLST46:
 9195 0734 34000000 		.4byte	.LVL96
 9196 0738 52000000 		.4byte	.LVL97
 9197 073c 0200     		.2byte	0x2
 9198 073e 40       		.byte	0x40
 9199 073f 9F       		.byte	0x9f
 9200 0740 00000000 		.4byte	0
 9201 0744 00000000 		.4byte	0
 9202              	.LLST47:
 9203 0748 52000000 		.4byte	.LVL97
 9204 074c 0A010000 		.4byte	.LVL108
 9205 0750 0100     		.2byte	0x1
 9206 0752 55       		.byte	0x55
 9207 0753 0A010000 		.4byte	.LVL108
 9208 0757 1C010000 		.4byte	.LFE233
 9209 075b 0400     		.2byte	0x4
 9210 075d F3       		.byte	0xf3
 9211 075e 01       		.uleb128 0x1
 9212 075f 50       		.byte	0x50
 9213 0760 9F       		.byte	0x9f
 9214 0761 00000000 		.4byte	0
 9215 0765 00000000 		.4byte	0
 9216              	.LLST48:
 9217 0769 52000000 		.4byte	.LVL97
 9218 076d 0A010000 		.4byte	.LVL108
 9219 0771 0100     		.2byte	0x1
 9220 0773 55       		.byte	0x55
ARM GAS  C:\Users\jrdia\AppData\Local\Temp\ccJ9Fnzg.s 			page 181


 9221 0774 0A010000 		.4byte	.LVL108
 9222 0778 1C010000 		.4byte	.LFE233
 9223 077c 0400     		.2byte	0x4
 9224 077e F3       		.byte	0xf3
 9225 077f 01       		.uleb128 0x1
 9226 0780 50       		.byte	0x50
 9227 0781 9F       		.byte	0x9f
 9228 0782 00000000 		.4byte	0
 9229 0786 00000000 		.4byte	0
 9230              	.LLST49:
 9231 078a 72000000 		.4byte	.LVL98
 9232 078e 80000000 		.4byte	.LVL99
 9233 0792 0200     		.2byte	0x2
 9234 0794 30       		.byte	0x30
 9235 0795 9F       		.byte	0x9f
 9236 0796 80000000 		.4byte	.LVL99
 9237 079a B4000000 		.4byte	.LVL102
 9238 079e 0500     		.2byte	0x5
 9239 07a0 33       		.byte	0x33
 9240 07a1 78       		.byte	0x78
 9241 07a2 00       		.sleb128 0
 9242 07a3 1C       		.byte	0x1c
 9243 07a4 9F       		.byte	0x9f
 9244 07a5 B4000000 		.4byte	.LVL102
 9245 07a9 BC000000 		.4byte	.LVL103
 9246 07ad 0500     		.2byte	0x5
 9247 07af 34       		.byte	0x34
 9248 07b0 78       		.byte	0x78
 9249 07b1 00       		.sleb128 0
 9250 07b2 1C       		.byte	0x1c
 9251 07b3 9F       		.byte	0x9f
 9252 07b4 BC000000 		.4byte	.LVL103
 9253 07b8 C2000000 		.4byte	.LVL104
 9254 07bc 0500     		.2byte	0x5
 9255 07be 33       		.byte	0x33
 9256 07bf 78       		.byte	0x78
 9257 07c0 00       		.sleb128 0
 9258 07c1 1C       		.byte	0x1c
 9259 07c2 9F       		.byte	0x9f
 9260 07c3 00000000 		.4byte	0
 9261 07c7 00000000 		.4byte	0
 9262              	.LLST50:
 9263 07cb 80000000 		.4byte	.LVL99
 9264 07cf 0A010000 		.4byte	.LVL108
 9265 07d3 0100     		.2byte	0x1
 9266 07d5 55       		.byte	0x55
 9267 07d6 0A010000 		.4byte	.LVL108
 9268 07da 1C010000 		.4byte	.LFE233
 9269 07de 0400     		.2byte	0x4
 9270 07e0 F3       		.byte	0xf3
 9271 07e1 01       		.uleb128 0x1
 9272 07e2 50       		.byte	0x50
 9273 07e3 9F       		.byte	0x9f
 9274 07e4 00000000 		.4byte	0
 9275 07e8 00000000 		.4byte	0
 9276              	.LLST51:
 9277 07ec 80000000 		.4byte	.LVL99
ARM GAS  C:\Users\jrdia\AppData\Local\Temp\ccJ9Fnzg.s 			page 182


 9278 07f0 0A010000 		.4byte	.LVL108
 9279 07f4 0100     		.2byte	0x1
 9280 07f6 55       		.byte	0x55
 9281 07f7 0A010000 		.4byte	.LVL108
 9282 07fb 1C010000 		.4byte	.LFE233
 9283 07ff 0400     		.2byte	0x4
 9284 0801 F3       		.byte	0xf3
 9285 0802 01       		.uleb128 0x1
 9286 0803 50       		.byte	0x50
 9287 0804 9F       		.byte	0x9f
 9288 0805 00000000 		.4byte	0
 9289 0809 00000000 		.4byte	0
 9290              	.LLST52:
 9291 080d 80000000 		.4byte	.LVL99
 9292 0811 9E000000 		.4byte	.LVL100
 9293 0815 0100     		.2byte	0x1
 9294 0817 57       		.byte	0x57
 9295 0818 00000000 		.4byte	0
 9296 081c 00000000 		.4byte	0
 9297              	.LLST53:
 9298 0820 80000000 		.4byte	.LVL99
 9299 0824 9E000000 		.4byte	.LVL100
 9300 0828 0200     		.2byte	0x2
 9301 082a 34       		.byte	0x34
 9302 082b 9F       		.byte	0x9f
 9303 082c 00000000 		.4byte	0
 9304 0830 00000000 		.4byte	0
 9305              	.LLST54:
 9306 0834 C2000000 		.4byte	.LVL104
 9307 0838 E4000000 		.4byte	.LVL105
 9308 083c 0200     		.2byte	0x2
 9309 083e 30       		.byte	0x30
 9310 083f 9F       		.byte	0x9f
 9311 0840 00000000 		.4byte	0
 9312 0844 00000000 		.4byte	0
 9313              	.LLST55:
 9314 0848 C2000000 		.4byte	.LVL104
 9315 084c 0A010000 		.4byte	.LVL108
 9316 0850 0100     		.2byte	0x1
 9317 0852 55       		.byte	0x55
 9318 0853 0A010000 		.4byte	.LVL108
 9319 0857 1C010000 		.4byte	.LFE233
 9320 085b 0400     		.2byte	0x4
 9321 085d F3       		.byte	0xf3
 9322 085e 01       		.uleb128 0x1
 9323 085f 50       		.byte	0x50
 9324 0860 9F       		.byte	0x9f
 9325 0861 00000000 		.4byte	0
 9326 0865 00000000 		.4byte	0
 9327              	.LLST56:
 9328 0869 C2000000 		.4byte	.LVL104
 9329 086d 0A010000 		.4byte	.LVL108
 9330 0871 0100     		.2byte	0x1
 9331 0873 55       		.byte	0x55
 9332 0874 0A010000 		.4byte	.LVL108
 9333 0878 1C010000 		.4byte	.LFE233
 9334 087c 0400     		.2byte	0x4
ARM GAS  C:\Users\jrdia\AppData\Local\Temp\ccJ9Fnzg.s 			page 183


 9335 087e F3       		.byte	0xf3
 9336 087f 01       		.uleb128 0x1
 9337 0880 50       		.byte	0x50
 9338 0881 9F       		.byte	0x9f
 9339 0882 00000000 		.4byte	0
 9340 0886 00000000 		.4byte	0
 9341              	.LLST57:
 9342 088a C2000000 		.4byte	.LVL104
 9343 088e E4000000 		.4byte	.LVL105
 9344 0892 0200     		.2byte	0x2
 9345 0894 44       		.byte	0x44
 9346 0895 9F       		.byte	0x9f
 9347 0896 00000000 		.4byte	0
 9348 089a 00000000 		.4byte	0
 9349              	.LLST58:
 9350 089e E4000000 		.4byte	.LVL105
 9351 08a2 02010000 		.4byte	.LVL106
 9352 08a6 0200     		.2byte	0x2
 9353 08a8 30       		.byte	0x30
 9354 08a9 9F       		.byte	0x9f
 9355 08aa 00000000 		.4byte	0
 9356 08ae 00000000 		.4byte	0
 9357              	.LLST59:
 9358 08b2 E4000000 		.4byte	.LVL105
 9359 08b6 0A010000 		.4byte	.LVL108
 9360 08ba 0100     		.2byte	0x1
 9361 08bc 55       		.byte	0x55
 9362 08bd 0A010000 		.4byte	.LVL108
 9363 08c1 1C010000 		.4byte	.LFE233
 9364 08c5 0400     		.2byte	0x4
 9365 08c7 F3       		.byte	0xf3
 9366 08c8 01       		.uleb128 0x1
 9367 08c9 50       		.byte	0x50
 9368 08ca 9F       		.byte	0x9f
 9369 08cb 00000000 		.4byte	0
 9370 08cf 00000000 		.4byte	0
 9371              	.LLST60:
 9372 08d3 E4000000 		.4byte	.LVL105
 9373 08d7 0A010000 		.4byte	.LVL108
 9374 08db 0100     		.2byte	0x1
 9375 08dd 55       		.byte	0x55
 9376 08de 0A010000 		.4byte	.LVL108
 9377 08e2 1C010000 		.4byte	.LFE233
 9378 08e6 0400     		.2byte	0x4
 9379 08e8 F3       		.byte	0xf3
 9380 08e9 01       		.uleb128 0x1
 9381 08ea 50       		.byte	0x50
 9382 08eb 9F       		.byte	0x9f
 9383 08ec 00000000 		.4byte	0
 9384 08f0 00000000 		.4byte	0
 9385              	.LLST61:
 9386 08f4 E4000000 		.4byte	.LVL105
 9387 08f8 02010000 		.4byte	.LVL106
 9388 08fc 0200     		.2byte	0x2
 9389 08fe 40       		.byte	0x40
 9390 08ff 9F       		.byte	0x9f
 9391 0900 00000000 		.4byte	0
ARM GAS  C:\Users\jrdia\AppData\Local\Temp\ccJ9Fnzg.s 			page 184


 9392 0904 00000000 		.4byte	0
 9393              	.LLST62:
 9394 0908 44000000 		.4byte	.LVL110
 9395 090c 58000000 		.4byte	.LVL114
 9396 0910 0100     		.2byte	0x1
 9397 0912 50       		.byte	0x50
 9398 0913 5A000000 		.4byte	.LVL115
 9399 0917 68000000 		.4byte	.LFE227
 9400 091b 0100     		.2byte	0x1
 9401 091d 50       		.byte	0x50
 9402 091e 00000000 		.4byte	0
 9403 0922 00000000 		.4byte	0
 9404              	.LLST63:
 9405 0926 44000000 		.4byte	.LVL110
 9406 092a 58000000 		.4byte	.LVL114
 9407 092e 0100     		.2byte	0x1
 9408 0930 51       		.byte	0x51
 9409 0931 5A000000 		.4byte	.LVL115
 9410 0935 68000000 		.4byte	.LFE227
 9411 0939 0100     		.2byte	0x1
 9412 093b 51       		.byte	0x51
 9413 093c 00000000 		.4byte	0
 9414 0940 00000000 		.4byte	0
 9415              	.LLST64:
 9416 0944 44000000 		.4byte	.LVL110
 9417 0948 4A000000 		.4byte	.LVL111
 9418 094c 0200     		.2byte	0x2
 9419 094e 30       		.byte	0x30
 9420 094f 9F       		.byte	0x9f
 9421 0950 4A000000 		.4byte	.LVL111
 9422 0954 50000000 		.4byte	.LVL112
 9423 0958 0100     		.2byte	0x1
 9424 095a 53       		.byte	0x53
 9425 095b 50000000 		.4byte	.LVL112
 9426 095f 52000000 		.4byte	.LVL113
 9427 0963 0300     		.2byte	0x3
 9428 0965 73       		.byte	0x73
 9429 0966 01       		.sleb128 1
 9430 0967 9F       		.byte	0x9f
 9431 0968 5A000000 		.4byte	.LVL115
 9432 096c 5C000000 		.4byte	.LVL116
 9433 0970 0100     		.2byte	0x1
 9434 0972 53       		.byte	0x53
 9435 0973 00000000 		.4byte	0
 9436 0977 00000000 		.4byte	0
 9437              	.LLST65:
 9438 097b 00000000 		.4byte	.LVL117
 9439 097f 58000000 		.4byte	.LVL122
 9440 0983 0100     		.2byte	0x1
 9441 0985 50       		.byte	0x50
 9442 0986 58000000 		.4byte	.LVL122
 9443 098a 96000000 		.4byte	.LVL127
 9444 098e 0100     		.2byte	0x1
 9445 0990 56       		.byte	0x56
 9446 0991 96000000 		.4byte	.LVL127
 9447 0995 9E000000 		.4byte	.LVL128
 9448 0999 0400     		.2byte	0x4
ARM GAS  C:\Users\jrdia\AppData\Local\Temp\ccJ9Fnzg.s 			page 185


 9449 099b F3       		.byte	0xf3
 9450 099c 01       		.uleb128 0x1
 9451 099d 50       		.byte	0x50
 9452 099e 9F       		.byte	0x9f
 9453 099f 9E000000 		.4byte	.LVL128
 9454 09a3 CE000000 		.4byte	.LVL132
 9455 09a7 0100     		.2byte	0x1
 9456 09a9 50       		.byte	0x50
 9457 09aa CE000000 		.4byte	.LVL132
 9458 09ae 1A010000 		.4byte	.LVL136
 9459 09b2 0100     		.2byte	0x1
 9460 09b4 56       		.byte	0x56
 9461 09b5 1A010000 		.4byte	.LVL136
 9462 09b9 4E010000 		.4byte	.LVL139
 9463 09bd 0100     		.2byte	0x1
 9464 09bf 50       		.byte	0x50
 9465 09c0 4E010000 		.4byte	.LVL139
 9466 09c4 B0010000 		.4byte	.LFE234
 9467 09c8 0100     		.2byte	0x1
 9468 09ca 56       		.byte	0x56
 9469 09cb 00000000 		.4byte	0
 9470 09cf 00000000 		.4byte	0
 9471              	.LLST66:
 9472 09d3 00000000 		.4byte	.LVL117
 9473 09d7 44000000 		.4byte	.LVL121
 9474 09db 0100     		.2byte	0x1
 9475 09dd 51       		.byte	0x51
 9476 09de 44000000 		.4byte	.LVL121
 9477 09e2 9E000000 		.4byte	.LVL128
 9478 09e6 0400     		.2byte	0x4
 9479 09e8 F3       		.byte	0xf3
 9480 09e9 01       		.uleb128 0x1
 9481 09ea 51       		.byte	0x51
 9482 09eb 9F       		.byte	0x9f
 9483 09ec 9E000000 		.4byte	.LVL128
 9484 09f0 BA000000 		.4byte	.LVL131
 9485 09f4 0100     		.2byte	0x1
 9486 09f6 51       		.byte	0x51
 9487 09f7 BA000000 		.4byte	.LVL131
 9488 09fb 1A010000 		.4byte	.LVL136
 9489 09ff 0400     		.2byte	0x4
 9490 0a01 F3       		.byte	0xf3
 9491 0a02 01       		.uleb128 0x1
 9492 0a03 51       		.byte	0x51
 9493 0a04 9F       		.byte	0x9f
 9494 0a05 1A010000 		.4byte	.LVL136
 9495 0a09 3C010000 		.4byte	.LVL138
 9496 0a0d 0100     		.2byte	0x1
 9497 0a0f 51       		.byte	0x51
 9498 0a10 3C010000 		.4byte	.LVL138
 9499 0a14 B0010000 		.4byte	.LFE234
 9500 0a18 0400     		.2byte	0x4
 9501 0a1a F3       		.byte	0xf3
 9502 0a1b 01       		.uleb128 0x1
 9503 0a1c 51       		.byte	0x51
 9504 0a1d 9F       		.byte	0x9f
 9505 0a1e 00000000 		.4byte	0
ARM GAS  C:\Users\jrdia\AppData\Local\Temp\ccJ9Fnzg.s 			page 186


 9506 0a22 00000000 		.4byte	0
 9507              	.LLST67:
 9508 0a26 00000000 		.4byte	.LVL117
 9509 0a2a 0E000000 		.4byte	.LVL118
 9510 0a2e 0100     		.2byte	0x1
 9511 0a30 52       		.byte	0x52
 9512 0a31 0E000000 		.4byte	.LVL118
 9513 0a35 40000000 		.4byte	.LVL120
 9514 0a39 0100     		.2byte	0x1
 9515 0a3b 55       		.byte	0x55
 9516 0a3c 40000000 		.4byte	.LVL120
 9517 0a40 9E000000 		.4byte	.LVL128
 9518 0a44 0400     		.2byte	0x4
 9519 0a46 F3       		.byte	0xf3
 9520 0a47 01       		.uleb128 0x1
 9521 0a48 52       		.byte	0x52
 9522 0a49 9F       		.byte	0x9f
 9523 0a4a 9E000000 		.4byte	.LVL128
 9524 0a4e A6000000 		.4byte	.LVL129
 9525 0a52 0100     		.2byte	0x1
 9526 0a54 55       		.byte	0x55
 9527 0a55 A6000000 		.4byte	.LVL129
 9528 0a59 1A010000 		.4byte	.LVL136
 9529 0a5d 0400     		.2byte	0x4
 9530 0a5f F3       		.byte	0xf3
 9531 0a60 01       		.uleb128 0x1
 9532 0a61 52       		.byte	0x52
 9533 0a62 9F       		.byte	0x9f
 9534 0a63 1A010000 		.4byte	.LVL136
 9535 0a67 B0010000 		.4byte	.LFE234
 9536 0a6b 0100     		.2byte	0x1
 9537 0a6d 55       		.byte	0x55
 9538 0a6e 00000000 		.4byte	0
 9539 0a72 00000000 		.4byte	0
 9540              	.LLST68:
 9541 0a76 36000000 		.4byte	.LVL119
 9542 0a7a 5C000000 		.4byte	.LVL123
 9543 0a7e 0200     		.2byte	0x2
 9544 0a80 30       		.byte	0x30
 9545 0a81 9F       		.byte	0x9f
 9546 0a82 00000000 		.4byte	0
 9547 0a86 00000000 		.4byte	0
 9548              	.LLST69:
 9549 0a8a 36000000 		.4byte	.LVL119
 9550 0a8e 58000000 		.4byte	.LVL122
 9551 0a92 0100     		.2byte	0x1
 9552 0a94 50       		.byte	0x50
 9553 0a95 58000000 		.4byte	.LVL122
 9554 0a99 92000000 		.4byte	.LVL126
 9555 0a9d 0100     		.2byte	0x1
 9556 0a9f 56       		.byte	0x56
 9557 0aa0 00000000 		.4byte	0
 9558 0aa4 00000000 		.4byte	0
 9559              	.LLST71:
 9560 0aa8 36000000 		.4byte	.LVL119
 9561 0aac 44000000 		.4byte	.LVL121
 9562 0ab0 0100     		.2byte	0x1
ARM GAS  C:\Users\jrdia\AppData\Local\Temp\ccJ9Fnzg.s 			page 187


 9563 0ab2 51       		.byte	0x51
 9564 0ab3 44000000 		.4byte	.LVL121
 9565 0ab7 5C000000 		.4byte	.LVL123
 9566 0abb 0100     		.2byte	0x1
 9567 0abd 57       		.byte	0x57
 9568 0abe 00000000 		.4byte	0
 9569 0ac2 00000000 		.4byte	0
 9570              	.LLST72:
 9571 0ac6 36000000 		.4byte	.LVL119
 9572 0aca 5C000000 		.4byte	.LVL123
 9573 0ace 0200     		.2byte	0x2
 9574 0ad0 41       		.byte	0x41
 9575 0ad1 9F       		.byte	0x9f
 9576 0ad2 00000000 		.4byte	0
 9577 0ad6 00000000 		.4byte	0
 9578              	.LLST73:
 9579 0ada 5C000000 		.4byte	.LVL123
 9580 0ade 7C000000 		.4byte	.LVL124
 9581 0ae2 0200     		.2byte	0x2
 9582 0ae4 30       		.byte	0x30
 9583 0ae5 9F       		.byte	0x9f
 9584 0ae6 00000000 		.4byte	0
 9585 0aea 00000000 		.4byte	0
 9586              	.LLST74:
 9587 0aee 5C000000 		.4byte	.LVL123
 9588 0af2 92000000 		.4byte	.LVL126
 9589 0af6 0100     		.2byte	0x1
 9590 0af8 56       		.byte	0x56
 9591 0af9 00000000 		.4byte	0
 9592 0afd 00000000 		.4byte	0
 9593              	.LLST76:
 9594 0b01 5C000000 		.4byte	.LVL123
 9595 0b05 7C000000 		.4byte	.LVL124
 9596 0b09 0100     		.2byte	0x1
 9597 0b0b 57       		.byte	0x57
 9598 0b0c 00000000 		.4byte	0
 9599 0b10 00000000 		.4byte	0
 9600              	.LLST77:
 9601 0b14 5C000000 		.4byte	.LVL123
 9602 0b18 7C000000 		.4byte	.LVL124
 9603 0b1c 0200     		.2byte	0x2
 9604 0b1e 40       		.byte	0x40
 9605 0b1f 9F       		.byte	0x9f
 9606 0b20 00000000 		.4byte	0
 9607 0b24 00000000 		.4byte	0
 9608              	.LLST78:
 9609 0b28 AE000000 		.4byte	.LVL130
 9610 0b2c D2000000 		.4byte	.LVL133
 9611 0b30 0200     		.2byte	0x2
 9612 0b32 30       		.byte	0x30
 9613 0b33 9F       		.byte	0x9f
 9614 0b34 00000000 		.4byte	0
 9615 0b38 00000000 		.4byte	0
 9616              	.LLST79:
 9617 0b3c AE000000 		.4byte	.LVL130
 9618 0b40 CE000000 		.4byte	.LVL132
 9619 0b44 0100     		.2byte	0x1
ARM GAS  C:\Users\jrdia\AppData\Local\Temp\ccJ9Fnzg.s 			page 188


 9620 0b46 50       		.byte	0x50
 9621 0b47 CE000000 		.4byte	.LVL132
 9622 0b4b 1A010000 		.4byte	.LVL136
 9623 0b4f 0100     		.2byte	0x1
 9624 0b51 56       		.byte	0x56
 9625 0b52 00000000 		.4byte	0
 9626 0b56 00000000 		.4byte	0
 9627              	.LLST81:
 9628 0b5a AE000000 		.4byte	.LVL130
 9629 0b5e BA000000 		.4byte	.LVL131
 9630 0b62 0100     		.2byte	0x1
 9631 0b64 51       		.byte	0x51
 9632 0b65 00000000 		.4byte	0
 9633 0b69 00000000 		.4byte	0
 9634              	.LLST82:
 9635 0b6d AE000000 		.4byte	.LVL130
 9636 0b71 D2000000 		.4byte	.LVL133
 9637 0b75 0200     		.2byte	0x2
 9638 0b77 41       		.byte	0x41
 9639 0b78 9F       		.byte	0x9f
 9640 0b79 00000000 		.4byte	0
 9641 0b7d 00000000 		.4byte	0
 9642              	.LLST83:
 9643 0b81 D2000000 		.4byte	.LVL133
 9644 0b85 F2000000 		.4byte	.LVL134
 9645 0b89 0200     		.2byte	0x2
 9646 0b8b 30       		.byte	0x30
 9647 0b8c 9F       		.byte	0x9f
 9648 0b8d 00000000 		.4byte	0
 9649 0b91 00000000 		.4byte	0
 9650              	.LLST84:
 9651 0b95 D2000000 		.4byte	.LVL133
 9652 0b99 1A010000 		.4byte	.LVL136
 9653 0b9d 0100     		.2byte	0x1
 9654 0b9f 56       		.byte	0x56
 9655 0ba0 00000000 		.4byte	0
 9656 0ba4 00000000 		.4byte	0
 9657              	.LLST86:
 9658 0ba8 D2000000 		.4byte	.LVL133
 9659 0bac F2000000 		.4byte	.LVL134
 9660 0bb0 0200     		.2byte	0x2
 9661 0bb2 40       		.byte	0x40
 9662 0bb3 9F       		.byte	0x9f
 9663 0bb4 00000000 		.4byte	0
 9664 0bb8 00000000 		.4byte	0
 9665              	.LLST87:
 9666 0bbc F2000000 		.4byte	.LVL134
 9667 0bc0 14010000 		.4byte	.LVL135
 9668 0bc4 0200     		.2byte	0x2
 9669 0bc6 30       		.byte	0x30
 9670 0bc7 9F       		.byte	0x9f
 9671 0bc8 00000000 		.4byte	0
 9672 0bcc 00000000 		.4byte	0
 9673              	.LLST88:
 9674 0bd0 F2000000 		.4byte	.LVL134
 9675 0bd4 1A010000 		.4byte	.LVL136
 9676 0bd8 0100     		.2byte	0x1
ARM GAS  C:\Users\jrdia\AppData\Local\Temp\ccJ9Fnzg.s 			page 189


 9677 0bda 56       		.byte	0x56
 9678 0bdb 00000000 		.4byte	0
 9679 0bdf 00000000 		.4byte	0
 9680              	.LLST90:
 9681 0be3 F2000000 		.4byte	.LVL134
 9682 0be7 14010000 		.4byte	.LVL135
 9683 0beb 0200     		.2byte	0x2
 9684 0bed 34       		.byte	0x34
 9685 0bee 9F       		.byte	0x9f
 9686 0bef 00000000 		.4byte	0
 9687 0bf3 00000000 		.4byte	0
 9688              	.LLST91:
 9689 0bf7 2A010000 		.4byte	.LVL137
 9690 0bfb 52010000 		.4byte	.LVL140
 9691 0bff 0200     		.2byte	0x2
 9692 0c01 30       		.byte	0x30
 9693 0c02 9F       		.byte	0x9f
 9694 0c03 00000000 		.4byte	0
 9695 0c07 00000000 		.4byte	0
 9696              	.LLST92:
 9697 0c0b 2A010000 		.4byte	.LVL137
 9698 0c0f 4E010000 		.4byte	.LVL139
 9699 0c13 0100     		.2byte	0x1
 9700 0c15 50       		.byte	0x50
 9701 0c16 4E010000 		.4byte	.LVL139
 9702 0c1a B0010000 		.4byte	.LFE234
 9703 0c1e 0100     		.2byte	0x1
 9704 0c20 56       		.byte	0x56
 9705 0c21 00000000 		.4byte	0
 9706 0c25 00000000 		.4byte	0
 9707              	.LLST94:
 9708 0c29 2A010000 		.4byte	.LVL137
 9709 0c2d 3C010000 		.4byte	.LVL138
 9710 0c31 0100     		.2byte	0x1
 9711 0c33 51       		.byte	0x51
 9712 0c34 3C010000 		.4byte	.LVL138
 9713 0c38 52010000 		.4byte	.LVL140
 9714 0c3c 0100     		.2byte	0x1
 9715 0c3e 57       		.byte	0x57
 9716 0c3f 00000000 		.4byte	0
 9717 0c43 00000000 		.4byte	0
 9718              	.LLST95:
 9719 0c47 2A010000 		.4byte	.LVL137
 9720 0c4b 52010000 		.4byte	.LVL140
 9721 0c4f 0200     		.2byte	0x2
 9722 0c51 44       		.byte	0x44
 9723 0c52 9F       		.byte	0x9f
 9724 0c53 00000000 		.4byte	0
 9725 0c57 00000000 		.4byte	0
 9726              	.LLST96:
 9727 0c5b 52010000 		.4byte	.LVL140
 9728 0c5f 74010000 		.4byte	.LVL141
 9729 0c63 0200     		.2byte	0x2
 9730 0c65 30       		.byte	0x30
 9731 0c66 9F       		.byte	0x9f
 9732 0c67 00000000 		.4byte	0
 9733 0c6b 00000000 		.4byte	0
ARM GAS  C:\Users\jrdia\AppData\Local\Temp\ccJ9Fnzg.s 			page 190


 9734              	.LLST97:
 9735 0c6f 52010000 		.4byte	.LVL140
 9736 0c73 74010000 		.4byte	.LVL141
 9737 0c77 0100     		.2byte	0x1
 9738 0c79 57       		.byte	0x57
 9739 0c7a 00000000 		.4byte	0
 9740 0c7e 00000000 		.4byte	0
 9741              	.LLST98:
 9742 0c82 52010000 		.4byte	.LVL140
 9743 0c86 74010000 		.4byte	.LVL141
 9744 0c8a 0200     		.2byte	0x2
 9745 0c8c 40       		.byte	0x40
 9746 0c8d 9F       		.byte	0x9f
 9747 0c8e 00000000 		.4byte	0
 9748 0c92 00000000 		.4byte	0
 9749              	.LLST99:
 9750 0c96 00000000 		.4byte	.LVL144
 9751 0c9a 26000000 		.4byte	.LVL145
 9752 0c9e 0100     		.2byte	0x1
 9753 0ca0 50       		.byte	0x50
 9754 0ca1 26000000 		.4byte	.LVL145
 9755 0ca5 96000000 		.4byte	.LVL161
 9756 0ca9 0100     		.2byte	0x1
 9757 0cab 56       		.byte	0x56
 9758 0cac 96000000 		.4byte	.LVL161
 9759 0cb0 A2000000 		.4byte	.LVL162
 9760 0cb4 0400     		.2byte	0x4
 9761 0cb6 F3       		.byte	0xf3
 9762 0cb7 01       		.uleb128 0x1
 9763 0cb8 50       		.byte	0x50
 9764 0cb9 9F       		.byte	0x9f
 9765 0cba A2000000 		.4byte	.LVL162
 9766 0cbe 22010000 		.4byte	.LFE232
 9767 0cc2 0100     		.2byte	0x1
 9768 0cc4 56       		.byte	0x56
 9769 0cc5 00000000 		.4byte	0
 9770 0cc9 00000000 		.4byte	0
 9771              	.LLST100:
 9772 0ccd 2A000000 		.4byte	.LVL146
 9773 0cd1 3C000000 		.4byte	.LVL147
 9774 0cd5 0100     		.2byte	0x1
 9775 0cd7 50       		.byte	0x50
 9776 0cd8 7A000000 		.4byte	.LVL156
 9777 0cdc 84000000 		.4byte	.LVL157
 9778 0ce0 0100     		.2byte	0x1
 9779 0ce2 50       		.byte	0x50
 9780 0ce3 84000000 		.4byte	.LVL157
 9781 0ce7 88000000 		.4byte	.LVL158
 9782 0ceb 0100     		.2byte	0x1
 9783 0ced 58       		.byte	0x58
 9784 0cee 88000000 		.4byte	.LVL158
 9785 0cf2 92000000 		.4byte	.LVL160
 9786 0cf6 0100     		.2byte	0x1
 9787 0cf8 50       		.byte	0x50
 9788 0cf9 BA000000 		.4byte	.LVL164
 9789 0cfd C4000000 		.4byte	.LVL167
 9790 0d01 0100     		.2byte	0x1
ARM GAS  C:\Users\jrdia\AppData\Local\Temp\ccJ9Fnzg.s 			page 191


 9791 0d03 50       		.byte	0x50
 9792 0d04 E6000000 		.4byte	.LVL170
 9793 0d08 02010000 		.4byte	.LVL171
 9794 0d0c 0100     		.2byte	0x1
 9795 0d0e 50       		.byte	0x50
 9796 0d0f 02010000 		.4byte	.LVL171
 9797 0d13 0A010000 		.4byte	.LVL172
 9798 0d17 0100     		.2byte	0x1
 9799 0d19 58       		.byte	0x58
 9800 0d1a 0A010000 		.4byte	.LVL172
 9801 0d1e 1C010000 		.4byte	.LVL175
 9802 0d22 0100     		.2byte	0x1
 9803 0d24 50       		.byte	0x50
 9804 0d25 00000000 		.4byte	0
 9805 0d29 00000000 		.4byte	0
 9806              	.LLST101:
 9807 0d2d 3C000000 		.4byte	.LVL147
 9808 0d31 44000000 		.4byte	.LVL149
 9809 0d35 0100     		.2byte	0x1
 9810 0d37 5A       		.byte	0x5a
 9811 0d38 4C000000 		.4byte	.LVL151
 9812 0d3c 90000000 		.4byte	.LVL159
 9813 0d40 0100     		.2byte	0x1
 9814 0d42 5A       		.byte	0x5a
 9815 0d43 00000000 		.4byte	0
 9816 0d47 00000000 		.4byte	0
 9817              	.LLST102:
 9818 0d4b 3C000000 		.4byte	.LVL147
 9819 0d4f 40000000 		.4byte	.LVL148
 9820 0d53 0100     		.2byte	0x1
 9821 0d55 57       		.byte	0x57
 9822 0d56 44000000 		.4byte	.LVL149
 9823 0d5a 48000000 		.4byte	.LVL150
 9824 0d5e 0100     		.2byte	0x1
 9825 0d60 57       		.byte	0x57
 9826 0d61 4C000000 		.4byte	.LVL151
 9827 0d65 90000000 		.4byte	.LVL159
 9828 0d69 0100     		.2byte	0x1
 9829 0d6b 57       		.byte	0x57
 9830 0d6c A2000000 		.4byte	.LVL162
 9831 0d70 A8000000 		.4byte	.LVL163
 9832 0d74 0100     		.2byte	0x1
 9833 0d76 57       		.byte	0x57
 9834 0d77 00000000 		.4byte	0
 9835 0d7b 00000000 		.4byte	0
 9836              	.LLST103:
 9837 0d7f 56000000 		.4byte	.LVL152
 9838 0d83 90000000 		.4byte	.LVL159
 9839 0d87 0100     		.2byte	0x1
 9840 0d89 56       		.byte	0x56
 9841 0d8a 00000000 		.4byte	0
 9842 0d8e 00000000 		.4byte	0
 9843              	.LLST105:
 9844 0d92 56000000 		.4byte	.LVL152
 9845 0d96 5A000000 		.4byte	.LVL153
 9846 0d9a 0300     		.2byte	0x3
 9847 0d9c 91       		.byte	0x91
ARM GAS  C:\Users\jrdia\AppData\Local\Temp\ccJ9Fnzg.s 			page 192


 9848 0d9d 4C       		.sleb128 -52
 9849 0d9e 9F       		.byte	0x9f
 9850 0d9f 5A000000 		.4byte	.LVL153
 9851 0da3 5E000000 		.4byte	.LVL154
 9852 0da7 0100     		.2byte	0x1
 9853 0da9 53       		.byte	0x53
 9854 0daa 5E000000 		.4byte	.LVL154
 9855 0dae 77000000 		.4byte	.LVL155-1
 9856 0db2 0200     		.2byte	0x2
 9857 0db4 91       		.byte	0x91
 9858 0db5 40       		.sleb128 -64
 9859 0db6 77000000 		.4byte	.LVL155-1
 9860 0dba 7A000000 		.4byte	.LVL156
 9861 0dbe 0300     		.2byte	0x3
 9862 0dc0 91       		.byte	0x91
 9863 0dc1 4C       		.sleb128 -52
 9864 0dc2 9F       		.byte	0x9f
 9865 0dc3 00000000 		.4byte	0
 9866 0dc7 00000000 		.4byte	0
 9867              	.LLST106:
 9868 0dcb 56000000 		.4byte	.LVL152
 9869 0dcf 7A000000 		.4byte	.LVL156
 9870 0dd3 0200     		.2byte	0x2
 9871 0dd5 34       		.byte	0x34
 9872 0dd6 9F       		.byte	0x9f
 9873 0dd7 00000000 		.4byte	0
 9874 0ddb 00000000 		.4byte	0
 9875              	.LLST107:
 9876 0ddf 56000000 		.4byte	.LVL152
 9877 0de3 7A000000 		.4byte	.LVL156
 9878 0de7 0100     		.2byte	0x1
 9879 0de9 5A       		.byte	0x5a
 9880 0dea 00000000 		.4byte	0
 9881 0dee 00000000 		.4byte	0
 9882              	.LLST108:
 9883 0df2 A2000000 		.4byte	.LVL162
 9884 0df6 BA000000 		.4byte	.LVL164
 9885 0dfa 0200     		.2byte	0x2
 9886 0dfc 31       		.byte	0x31
 9887 0dfd 9F       		.byte	0x9f
 9888 0dfe BA000000 		.4byte	.LVL164
 9889 0e02 BC000000 		.4byte	.LVL165
 9890 0e06 0100     		.2byte	0x1
 9891 0e08 54       		.byte	0x54
 9892 0e09 C0000000 		.4byte	.LVL166
 9893 0e0d 14010000 		.4byte	.LVL173
 9894 0e11 0100     		.2byte	0x1
 9895 0e13 54       		.byte	0x54
 9896 0e14 18010000 		.4byte	.LVL174
 9897 0e18 1C010000 		.4byte	.LVL175
 9898 0e1c 0100     		.2byte	0x1
 9899 0e1e 54       		.byte	0x54
 9900 0e1f 00000000 		.4byte	0
 9901 0e23 00000000 		.4byte	0
 9902              	.LLST109:
 9903 0e27 BA000000 		.4byte	.LVL164
 9904 0e2b C4000000 		.4byte	.LVL167
ARM GAS  C:\Users\jrdia\AppData\Local\Temp\ccJ9Fnzg.s 			page 193


 9905 0e2f 0100     		.2byte	0x1
 9906 0e31 56       		.byte	0x56
 9907 0e32 C8000000 		.4byte	.LVL168
 9908 0e36 1C010000 		.4byte	.LVL175
 9909 0e3a 0100     		.2byte	0x1
 9910 0e3c 56       		.byte	0x56
 9911 0e3d 00000000 		.4byte	0
 9912 0e41 00000000 		.4byte	0
 9913              	.LLST111:
 9914 0e45 C8000000 		.4byte	.LVL168
 9915 0e49 E6000000 		.4byte	.LVL170
 9916 0e4d 0100     		.2byte	0x1
 9917 0e4f 57       		.byte	0x57
 9918 0e50 00000000 		.4byte	0
 9919 0e54 00000000 		.4byte	0
 9920              	.LLST112:
 9921 0e58 C8000000 		.4byte	.LVL168
 9922 0e5c E6000000 		.4byte	.LVL170
 9923 0e60 0200     		.2byte	0x2
 9924 0e62 34       		.byte	0x34
 9925 0e63 9F       		.byte	0x9f
 9926 0e64 00000000 		.4byte	0
 9927 0e68 00000000 		.4byte	0
 9928              	.LLST113:
 9929 0e6c C8000000 		.4byte	.LVL168
 9930 0e70 E6000000 		.4byte	.LVL170
 9931 0e74 0100     		.2byte	0x1
 9932 0e76 54       		.byte	0x54
 9933 0e77 00000000 		.4byte	0
 9934 0e7b 00000000 		.4byte	0
 9935              	.LLST114:
 9936 0e7f 00000000 		.4byte	.LVL176
 9937 0e83 0A000000 		.4byte	.LVL177
 9938 0e87 0100     		.2byte	0x1
 9939 0e89 50       		.byte	0x50
 9940 0e8a 0A000000 		.4byte	.LVL177
 9941 0e8e 0C000000 		.4byte	.LVL178
 9942 0e92 0100     		.2byte	0x1
 9943 0e94 54       		.byte	0x54
 9944 0e95 0C000000 		.4byte	.LVL178
 9945 0e99 0E000000 		.4byte	.LVL179
 9946 0e9d 0400     		.2byte	0x4
 9947 0e9f F3       		.byte	0xf3
 9948 0ea0 01       		.uleb128 0x1
 9949 0ea1 50       		.byte	0x50
 9950 0ea2 9F       		.byte	0x9f
 9951 0ea3 0E000000 		.4byte	.LVL179
 9952 0ea7 11000000 		.4byte	.LVL180-1
 9953 0eab 0100     		.2byte	0x1
 9954 0ead 50       		.byte	0x50
 9955 0eae 11000000 		.4byte	.LVL180-1
 9956 0eb2 2C000000 		.4byte	.LFE231
 9957 0eb6 0100     		.2byte	0x1
 9958 0eb8 54       		.byte	0x54
 9959 0eb9 00000000 		.4byte	0
 9960 0ebd 00000000 		.4byte	0
 9961              	.LLST115:
ARM GAS  C:\Users\jrdia\AppData\Local\Temp\ccJ9Fnzg.s 			page 194


 9962 0ec1 18000000 		.4byte	.LVL181
 9963 0ec5 28000000 		.4byte	.LVL185
 9964 0ec9 0100     		.2byte	0x1
 9965 0ecb 54       		.byte	0x54
 9966 0ecc 00000000 		.4byte	0
 9967 0ed0 00000000 		.4byte	0
 9968              	.LLST116:
 9969 0ed4 20000000 		.4byte	.LVL183
 9970 0ed8 28000000 		.4byte	.LVL185
 9971 0edc 0100     		.2byte	0x1
 9972 0ede 55       		.byte	0x55
 9973 0edf 00000000 		.4byte	0
 9974 0ee3 00000000 		.4byte	0
 9975              		.section	.debug_aranges,"",%progbits
 9976 0000 A4000000 		.4byte	0xa4
 9977 0004 0200     		.2byte	0x2
 9978 0006 00000000 		.4byte	.Ldebug_info0
 9979 000a 04       		.byte	0x4
 9980 000b 00       		.byte	0
 9981 000c 0000     		.2byte	0
 9982 000e 0000     		.2byte	0
 9983 0010 00000000 		.4byte	.LFB179
 9984 0014 04000000 		.4byte	.LFE179-.LFB179
 9985 0018 00000000 		.4byte	.LFB180
 9986 001c 04000000 		.4byte	.LFE180-.LFB180
 9987 0020 00000000 		.4byte	.LFB181
 9988 0024 04000000 		.4byte	.LFE181-.LFB181
 9989 0028 00000000 		.4byte	.LFB182
 9990 002c 04000000 		.4byte	.LFE182-.LFB182
 9991 0030 00000000 		.4byte	.LFB183
 9992 0034 04000000 		.4byte	.LFE183-.LFB183
 9993 0038 00000000 		.4byte	.LFB184
 9994 003c 02000000 		.4byte	.LFE184-.LFB184
 9995 0040 00000000 		.4byte	.LFB185
 9996 0044 04000000 		.4byte	.LFE185-.LFB185
 9997 0048 00000000 		.4byte	.LFB186
 9998 004c 04000000 		.4byte	.LFE186-.LFB186
 9999 0050 00000000 		.4byte	.LFB187
 10000 0054 04000000 		.4byte	.LFE187-.LFB187
 10001 0058 00000000 		.4byte	.LFB213
 10002 005c 04000000 		.4byte	.LFE213-.LFB213
 10003 0060 00000000 		.4byte	.LFB214
 10004 0064 0A000000 		.4byte	.LFE214-.LFB214
 10005 0068 00000000 		.4byte	.LFB230
 10006 006c 2E000000 		.4byte	.LFE230-.LFB230
 10007 0070 00000000 		.4byte	.LFB229
 10008 0074 3C020000 		.4byte	.LFE229-.LFB229
 10009 0078 00000000 		.4byte	.LFB233
 10010 007c 1C010000 		.4byte	.LFE233-.LFB233
 10011 0080 00000000 		.4byte	.LFB227
 10012 0084 68000000 		.4byte	.LFE227-.LFB227
 10013 0088 00000000 		.4byte	.LFB234
 10014 008c B0010000 		.4byte	.LFE234-.LFB234
 10015 0090 00000000 		.4byte	.LFB232
 10016 0094 22010000 		.4byte	.LFE232-.LFB232
 10017 0098 00000000 		.4byte	.LFB231
 10018 009c 2C000000 		.4byte	.LFE231-.LFB231
ARM GAS  C:\Users\jrdia\AppData\Local\Temp\ccJ9Fnzg.s 			page 195


 10019 00a0 00000000 		.4byte	0
 10020 00a4 00000000 		.4byte	0
 10021              		.section	.debug_ranges,"",%progbits
 10022              	.Ldebug_ranges0:
 10023 0000 14000000 		.4byte	.LBB33
 10024 0004 18000000 		.4byte	.LBE33
 10025 0008 1A000000 		.4byte	.LBB36
 10026 000c 20000000 		.4byte	.LBE36
 10027 0010 00000000 		.4byte	0
 10028 0014 00000000 		.4byte	0
 10029 0018 F8010000 		.4byte	.LBB51
 10030 001c FE010000 		.4byte	.LBE51
 10031 0020 04020000 		.4byte	.LBB55
 10032 0024 20020000 		.4byte	.LBE55
 10033 0028 22020000 		.4byte	.LBB56
 10034 002c 26020000 		.4byte	.LBE56
 10035 0030 00000000 		.4byte	0
 10036 0034 00000000 		.4byte	0
 10037 0038 2A020000 		.4byte	.LBB57
 10038 003c 2E020000 		.4byte	.LBE57
 10039 0040 30020000 		.4byte	.LBB60
 10040 0044 36020000 		.4byte	.LBE60
 10041 0048 00000000 		.4byte	0
 10042 004c 00000000 		.4byte	0
 10043 0050 0C000000 		.4byte	.LBB74
 10044 0054 10000000 		.4byte	.LBE74
 10045 0058 12000000 		.4byte	.LBB79
 10046 005c 26000000 		.4byte	.LBE79
 10047 0060 28000000 		.4byte	.LBB80
 10048 0064 2E000000 		.4byte	.LBE80
 10049 0068 30000000 		.4byte	.LBB81
 10050 006c 34000000 		.4byte	.LBE81
 10051 0070 00000000 		.4byte	0
 10052 0074 00000000 		.4byte	0
 10053 0078 76000000 		.4byte	.LBB87
 10054 007c 7A000000 		.4byte	.LBE87
 10055 0080 80000000 		.4byte	.LBB90
 10056 0084 9E000000 		.4byte	.LBE90
 10057 0088 00000000 		.4byte	0
 10058 008c 00000000 		.4byte	0
 10059 0090 4A000000 		.4byte	.LBB96
 10060 0094 58000000 		.4byte	.LBE96
 10061 0098 5A000000 		.4byte	.LBB99
 10062 009c 68000000 		.4byte	.LBE99
 10063 00a0 00000000 		.4byte	0
 10064 00a4 00000000 		.4byte	0
 10065 00a8 36000000 		.4byte	.LBB118
 10066 00ac 92000000 		.4byte	.LBE118
 10067 00b0 A4000000 		.4byte	.LBB133
 10068 00b4 1A010000 		.4byte	.LBE133
 10069 00b8 2A010000 		.4byte	.LBB134
 10070 00bc B0010000 		.4byte	.LBE134
 10071 00c0 00000000 		.4byte	0
 10072 00c4 00000000 		.4byte	0
 10073 00c8 30000000 		.4byte	.LBB139
 10074 00cc 32000000 		.4byte	.LBE139
 10075 00d0 36000000 		.4byte	.LBB152
ARM GAS  C:\Users\jrdia\AppData\Local\Temp\ccJ9Fnzg.s 			page 196


 10076 00d4 90000000 		.4byte	.LBE152
 10077 00d8 00000000 		.4byte	0
 10078 00dc 00000000 		.4byte	0
 10079 00e0 30000000 		.4byte	.LBB141
 10080 00e4 32000000 		.4byte	.LBE141
 10081 00e8 36000000 		.4byte	.LBB148
 10082 00ec 3E000000 		.4byte	.LBE148
 10083 00f0 52000000 		.4byte	.LBB149
 10084 00f4 90000000 		.4byte	.LBE149
 10085 00f8 00000000 		.4byte	0
 10086 00fc 00000000 		.4byte	0
 10087 0100 30000000 		.4byte	.LBB142
 10088 0104 32000000 		.4byte	.LBE142
 10089 0108 38000000 		.4byte	.LBB146
 10090 010c 3E000000 		.4byte	.LBE146
 10091 0110 56000000 		.4byte	.LBB147
 10092 0114 7A000000 		.4byte	.LBE147
 10093 0118 00000000 		.4byte	0
 10094 011c 00000000 		.4byte	0
 10095 0120 90000000 		.4byte	.LBB153
 10096 0124 92000000 		.4byte	.LBE153
 10097 0128 A2000000 		.4byte	.LBB163
 10098 012c 1C010000 		.4byte	.LBE163
 10099 0130 00000000 		.4byte	0
 10100 0134 00000000 		.4byte	0
 10101 0138 90000000 		.4byte	.LBB154
 10102 013c 92000000 		.4byte	.LBE154
 10103 0140 AC000000 		.4byte	.LBB161
 10104 0144 BA000000 		.4byte	.LBE161
 10105 0148 C4000000 		.4byte	.LBB162
 10106 014c 12010000 		.4byte	.LBE162
 10107 0150 00000000 		.4byte	0
 10108 0154 00000000 		.4byte	0
 10109 0158 AC000000 		.4byte	.LBB155
 10110 015c B0000000 		.4byte	.LBE155
 10111 0160 C4000000 		.4byte	.LBB159
 10112 0164 C6000000 		.4byte	.LBE159
 10113 0168 C8000000 		.4byte	.LBB160
 10114 016c E6000000 		.4byte	.LBE160
 10115 0170 00000000 		.4byte	0
 10116 0174 00000000 		.4byte	0
 10117 0178 00000000 		.4byte	.LFB179
 10118 017c 04000000 		.4byte	.LFE179
 10119 0180 00000000 		.4byte	.LFB180
 10120 0184 04000000 		.4byte	.LFE180
 10121 0188 00000000 		.4byte	.LFB181
 10122 018c 04000000 		.4byte	.LFE181
 10123 0190 00000000 		.4byte	.LFB182
 10124 0194 04000000 		.4byte	.LFE182
 10125 0198 00000000 		.4byte	.LFB183
 10126 019c 04000000 		.4byte	.LFE183
 10127 01a0 00000000 		.4byte	.LFB184
 10128 01a4 02000000 		.4byte	.LFE184
 10129 01a8 00000000 		.4byte	.LFB185
 10130 01ac 04000000 		.4byte	.LFE185
 10131 01b0 00000000 		.4byte	.LFB186
 10132 01b4 04000000 		.4byte	.LFE186
ARM GAS  C:\Users\jrdia\AppData\Local\Temp\ccJ9Fnzg.s 			page 197


 10133 01b8 00000000 		.4byte	.LFB187
 10134 01bc 04000000 		.4byte	.LFE187
 10135 01c0 00000000 		.4byte	.LFB213
 10136 01c4 04000000 		.4byte	.LFE213
 10137 01c8 00000000 		.4byte	.LFB214
 10138 01cc 0A000000 		.4byte	.LFE214
 10139 01d0 00000000 		.4byte	.LFB230
 10140 01d4 2E000000 		.4byte	.LFE230
 10141 01d8 00000000 		.4byte	.LFB229
 10142 01dc 3C020000 		.4byte	.LFE229
 10143 01e0 00000000 		.4byte	.LFB233
 10144 01e4 1C010000 		.4byte	.LFE233
 10145 01e8 00000000 		.4byte	.LFB227
 10146 01ec 68000000 		.4byte	.LFE227
 10147 01f0 00000000 		.4byte	.LFB234
 10148 01f4 B0010000 		.4byte	.LFE234
 10149 01f8 00000000 		.4byte	.LFB232
 10150 01fc 22010000 		.4byte	.LFE232
 10151 0200 00000000 		.4byte	.LFB231
 10152 0204 2C000000 		.4byte	.LFE231
 10153 0208 00000000 		.4byte	0
 10154 020c 00000000 		.4byte	0
 10155              		.section	.debug_line,"",%progbits
 10156              	.Ldebug_line0:
 10157 0000 02050000 		.section	.debug_str,"MS",%progbits,1
 10157      02009701 
 10157      00000201 
 10157      FB0E0D00 
 10157      01010101 
 10158              	.LASF60:
 10159 0000 6950726F 		.ascii	"iProduct\000"
 10159      64756374 
 10159      00
 10160              	.LASF14:
 10161 0009 696E7438 		.ascii	"int8_t\000"
 10161      5F7400
 10162              	.LASF164:
 10163 0010 5F5A4E33 		.ascii	"_ZN3USB11OutTransferEP6EpInfottPh\000"
 10163      55534231 
 10163      314F7574 
 10163      5472616E 
 10163      73666572 
 10164              	.LASF44:
 10165 0032 6570636F 		.ascii	"epcount\000"
 10165      756E7400 
 10166              	.LASF19:
 10167 003a 73697A65 		.ascii	"sizetype\000"
 10167      74797065 
 10167      00
 10168              	.LASF239:
 10169 0043 5F5A4E36 		.ascii	"_ZN6USBHub13SetHubFeatureEh\000"
 10169      55534248 
 10169      75623133 
 10169      53657448 
 10169      75624665 
 10170              	.LASF169:
 10171 005f 5F5A4E33 		.ascii	"_ZN3USB4initEv\000"
ARM GAS  C:\Users\jrdia\AppData\Local\Temp\ccJ9Fnzg.s 			page 198


 10171      55534234 
 10171      696E6974 
 10171      457600
 10172              	.LASF122:
 10173 006e 5F5A4E33 		.ascii	"_ZN3USB16ForEachUsbDeviceEPFvP9UsbDeviceE\000"
 10173      55534231 
 10173      36466F72 
 10173      45616368 
 10173      55736244 
 10174              	.LASF183:
 10175 0098 5F5A4E31 		.ascii	"_ZN15USBDeviceConfig4PollEv\000"
 10175      35555342 
 10175      44657669 
 10175      6365436F 
 10175      6E666967 
 10176              	.LASF17:
 10177 00b4 696E7433 		.ascii	"int32_t\000"
 10177      325F7400 
 10178              	.LASF238:
 10179 00bc 53657448 		.ascii	"SetHubFeature\000"
 10179      75624665 
 10179      61747572 
 10179      6500
 10180              	.LASF53:
 10181 00ca 62446576 		.ascii	"bDeviceSubClass\000"
 10181      69636553 
 10181      7562436C 
 10181      61737300 
 10182              	.LASF246:
 10183 00da 5F5A4E36 		.ascii	"_ZN6USBHub4PollEv\000"
 10183      55534248 
 10183      75623450 
 10183      6F6C6C45 
 10183      7600
 10184              	.LASF150:
 10185 00ec 64697370 		.ascii	"dispatchPkt\000"
 10185      61746368 
 10185      506B7400 
 10186              	.LASF271:
 10187 00f8 55736244 		.ascii	"UsbDEBUGlvl\000"
 10187      45425547 
 10187      6C766C00 
 10188              	.LASF205:
 10189 0104 62507772 		.ascii	"bPwrOn2PwrGood\000"
 10189      4F6E3250 
 10189      7772476F 
 10189      6F6400
 10190              	.LASF286:
 10191 0113 5F5F7674 		.ascii	"__vtbl_ptr_type\000"
 10191      626C5F70 
 10191      74725F74 
 10191      79706500 
 10192              	.LASF243:
 10193 0123 5F5A4E36 		.ascii	"_ZN6USBHub14PrintHubStatusEv\000"
 10193      55534248 
 10193      75623134 
 10193      5072696E 
ARM GAS  C:\Users\jrdia\AppData\Local\Temp\ccJ9Fnzg.s 			page 199


 10193      74487562 
 10194              	.LASF229:
 10195 0140 5F5A4E36 		.ascii	"_ZN6USBHub16ClearPortFeatureEhhh\000"
 10195      55534248 
 10195      75623136 
 10195      436C6561 
 10195      72506F72 
 10196              	.LASF191:
 10197 0161 44455653 		.ascii	"DEVSUBCLASSOK\000"
 10197      5542434C 
 10197      4153534F 
 10197      4B00
 10198              	.LASF204:
 10199 016f 624E6272 		.ascii	"bNbrPorts\000"
 10199      506F7274 
 10199      7300
 10200              	.LASF41:
 10201 0179 55736244 		.ascii	"UsbDevice\000"
 10201      65766963 
 10201      6500
 10202              	.LASF225:
 10203 0183 5F5A4E36 		.ascii	"_ZN6USBHubC4EP3USB\000"
 10203      55534248 
 10203      75624334 
 10203      45503355 
 10203      534200
 10204              	.LASF171:
 10205 0196 5F767074 		.ascii	"_vptr.USBDeviceConfig\000"
 10205      722E5553 
 10205      42446576 
 10205      69636543 
 10205      6F6E6669 
 10206              	.LASF252:
 10207 01ac 6E627974 		.ascii	"nbytes\000"
 10207      657300
 10208              	.LASF244:
 10209 01b3 5F5A4E36 		.ascii	"_ZN6USBHub4InitEhhb\000"
 10209      55534248 
 10209      75623449 
 10209      6E697445 
 10209      68686200 
 10210              	.LASF157:
 10211 01c7 52656C65 		.ascii	"ReleaseDevice\000"
 10211      61736544 
 10211      65766963 
 10211      6500
 10212              	.LASF264:
 10213 01d5 4661696C 		.ascii	"FailSetDevTblEntry\000"
 10213      53657444 
 10213      65765462 
 10213      6C456E74 
 10213      727900
 10214              	.LASF73:
 10215 01e8 76627573 		.ascii	"vbus_on\000"
 10215      5F6F6E00 
 10216              	.LASF178:
 10217 01f0 5F5A4E31 		.ascii	"_ZN15USBDeviceConfig4InitEhhb\000"
ARM GAS  C:\Users\jrdia\AppData\Local\Temp\ccJ9Fnzg.s 			page 200


 10217      35555342 
 10217      44657669 
 10217      6365436F 
 10217      6E666967 
 10218              	.LASF284:
 10219 020e 4D41585F 		.ascii	"MAX_DEVICES_ALLOWED\000"
 10219      44455649 
 10219      4345535F 
 10219      414C4C4F 
 10219      57454400 
 10220              	.LASF51:
 10221 0222 62636455 		.ascii	"bcdUSB\000"
 10221      534200
 10222              	.LASF47:
 10223 0229 5450696E 		.ascii	"TPin<Portb, 1u>\000"
 10223      3C506F72 
 10223      74622C20 
 10223      31753E00 
 10224              	.LASF224:
 10225 0239 5F5A4E36 		.ascii	"_ZN6USBHub16PortStatusChangeEhR8HubEvent\000"
 10225      55534248 
 10225      75623136 
 10225      506F7274 
 10225      53746174 
 10226              	.LASF45:
 10227 0262 6C6F7773 		.ascii	"lowspeed\000"
 10227      70656564 
 10227      00
 10228              	.LASF101:
 10229 026b 47707848 		.ascii	"GpxHandler\000"
 10229      616E646C 
 10229      657200
 10230              	.LASF76:
 10231 0276 4D415833 		.ascii	"MAX3421e\000"
 10231      34323165 
 10231      00
 10232              	.LASF215:
 10233 027f 70557362 		.ascii	"pUsb\000"
 10233      00
 10234              	.LASF175:
 10235 0284 5F5A4E31 		.ascii	"_ZN15USBDeviceConfigC4ERKS_\000"
 10235      35555342 
 10235      44657669 
 10235      6365436F 
 10235      6E666967 
 10236              	.LASF142:
 10237 02a0 6374726C 		.ascii	"ctrlData\000"
 10237      44617461 
 10237      00
 10238              	.LASF128:
 10239 02a9 5F5A4E33 		.ascii	"_ZN3USB14getEpInfoEntryEhh\000"
 10239      55534231 
 10239      34676574 
 10239      4570496E 
 10239      666F456E 
 10240              	.LASF1:
 10241 02c4 5F5F7569 		.ascii	"__uint8_t\000"
ARM GAS  C:\Users\jrdia\AppData\Local\Temp\ccJ9Fnzg.s 			page 201


 10241      6E74385F 
 10241      7400
 10242              	.LASF27:
 10243 02ce 534B4950 		.ascii	"SKIP_WHITESPACE\000"
 10243      5F574849 
 10243      54455350 
 10243      41434500 
 10244              	.LASF176:
 10245 02de 5F5A4E31 		.ascii	"_ZN15USBDeviceConfigC4Ev\000"
 10245      35555342 
 10245      44657669 
 10245      6365436F 
 10245      6E666967 
 10246              	.LASF39:
 10247 02f7 65704174 		.ascii	"epAttribs\000"
 10247      74726962 
 10247      7300
 10248              	.LASF26:
 10249 0301 534B4950 		.ascii	"SKIP_NONE\000"
 10249      5F4E4F4E 
 10249      4500
 10250              	.LASF139:
 10251 030b 5F5A4E33 		.ascii	"_ZN3USB7setAddrEhhh\000"
 10251      55534237 
 10251      73657441 
 10251      64647245 
 10251      68686800 
 10252              	.LASF220:
 10253 031f 5F5A4E36 		.ascii	"_ZN6USBHubC4ERKS_\000"
 10253      55534248 
 10253      75624334 
 10253      45524B53 
 10253      5F00
 10254              	.LASF54:
 10255 0331 62446576 		.ascii	"bDeviceProtocol\000"
 10255      69636550 
 10255      726F746F 
 10255      636F6C00 
 10256              	.LASF8:
 10257 0341 6C6F6E67 		.ascii	"long int\000"
 10257      20696E74 
 10257      00
 10258              	.LASF223:
 10259 034a 506F7274 		.ascii	"PortStatusChange\000"
 10259      53746174 
 10259      75734368 
 10259      616E6765 
 10259      00
 10260              	.LASF63:
 10261 035b 5553425F 		.ascii	"USB_DEVICE_DESCRIPTOR\000"
 10261      44455649 
 10261      43455F44 
 10261      45534352 
 10261      4950544F 
 10262              	.LASF254:
 10263 0371 70646576 		.ascii	"pdev\000"
 10263      00
ARM GAS  C:\Users\jrdia\AppData\Local\Temp\ccJ9Fnzg.s 			page 202


 10264              	.LASF162:
 10265 0376 5F5A4E33 		.ascii	"_ZN3USB10SetAddressEhhPP6EpInfoPt\000"
 10265      55534231 
 10265      30536574 
 10265      41646472 
 10265      65737345 
 10266              	.LASF197:
 10267 0398 4C6F6750 		.ascii	"LogPwrSwitchMode\000"
 10267      77725377 
 10267      69746368 
 10267      4D6F6465 
 10267      00
 10268              	.LASF135:
 10269 03a9 5F5A4E33 		.ascii	"_ZN3USB12getConfDescrEhhhP13USBReadParser\000"
 10269      55534231 
 10269      32676574 
 10269      436F6E66 
 10269      44657363 
 10270              	.LASF31:
 10271 03d3 65704164 		.ascii	"epAddr\000"
 10271      647200
 10272              	.LASF179:
 10273 03da 5F5A4E31 		.ascii	"_ZN15USBDeviceConfig15ConfigureDeviceEhhb\000"
 10273      35555342 
 10273      44657669 
 10273      6365436F 
 10273      6E666967 
 10274              	.LASF28:
 10275 0404 626D536E 		.ascii	"bmSndToggle\000"
 10275      64546F67 
 10275      676C6500 
 10276              	.LASF36:
 10277 0410 626D5061 		.ascii	"bmParent\000"
 10277      72656E74 
 10277      00
 10278              	.LASF262:
 10279 0419 4661696C 		.ascii	"FailGetConfDescr\000"
 10279      47657443 
 10279      6F6E6644 
 10279      65736372 
 10279      00
 10280              	.LASF2:
 10281 042a 7369676E 		.ascii	"signed char\000"
 10281      65642063 
 10281      68617200 
 10282              	.LASF15:
 10283 0436 75696E74 		.ascii	"uint8_t\000"
 10283      385F7400 
 10284              	.LASF181:
 10285 043e 5F5A4E31 		.ascii	"_ZN15USBDeviceConfig7ReleaseEv\000"
 10285      35555342 
 10285      44657669 
 10285      6365436F 
 10285      6E666967 
 10286              	.LASF140:
 10287 045d 73657443 		.ascii	"setConf\000"
 10287      6F6E6600 
ARM GAS  C:\Users\jrdia\AppData\Local\Temp\ccJ9Fnzg.s 			page 203


 10288              	.LASF165:
 10289 0465 496E5472 		.ascii	"InTransfer\000"
 10289      616E7366 
 10289      657200
 10290              	.LASF153:
 10291 0470 44656661 		.ascii	"DefaultAddressing\000"
 10291      756C7441 
 10291      64647265 
 10291      7373696E 
 10291      6700
 10292              	.LASF221:
 10293 0482 43686563 		.ascii	"CheckHubStatus\000"
 10293      6B487562 
 10293      53746174 
 10293      757300
 10294              	.LASF58:
 10295 0491 62636444 		.ascii	"bcdDevice\000"
 10295      65766963 
 10295      6500
 10296              	.LASF177:
 10297 049b 436F6E66 		.ascii	"ConfigureDevice\000"
 10297      69677572 
 10297      65446576 
 10297      69636500 
 10298              	.LASF3:
 10299 04ab 756E7369 		.ascii	"unsigned char\000"
 10299      676E6564 
 10299      20636861 
 10299      7200
 10300              	.LASF222:
 10301 04b9 5F5A4E36 		.ascii	"_ZN6USBHub14CheckHubStatusEv\000"
 10301      55534248 
 10301      75623134 
 10301      43686563 
 10301      6B487562 
 10302              	.LASF86:
 10303 04d6 6770696F 		.ascii	"gpioRd\000"
 10303      526400
 10304              	.LASF85:
 10305 04dd 5F5A4E38 		.ascii	"_ZN8MAX3421eI4TPinI5PortbLh2EES0_IS1_Lh1EEE7bytesRd"
 10305      4D415833 
 10305      34323165 
 10305      49345450 
 10305      696E4935 
 10306 0510 45686850 		.ascii	"EhhPh\000"
 10306      6800
 10307              	.LASF143:
 10308 0516 5F5A4E33 		.ascii	"_ZN3USB8ctrlDataEhhtPhb\000"
 10308      55534238 
 10308      6374726C 
 10308      44617461 
 10308      45686874 
 10309              	.LASF141:
 10310 052e 5F5A4E33 		.ascii	"_ZN3USB7setConfEhhh\000"
 10310      55534237 
 10310      73657443 
 10310      6F6E6645 
ARM GAS  C:\Users\jrdia\AppData\Local\Temp\ccJ9Fnzg.s 			page 204


 10310      68686800 
 10311              	.LASF20:
 10312 0542 63686172 		.ascii	"char\000"
 10312      00
 10313              	.LASF277:
 10314 0547 474E5520 		.ascii	"GNU C++ 5.4.1 20160609 (release) [ARM/embedded-5-br"
 10314      432B2B20 
 10314      352E342E 
 10314      31203230 
 10314      31363036 
 10315 057a 616E6368 		.ascii	"anch revision 237715] -mcpu=cortex-m0 -mthumb -g -O"
 10315      20726576 
 10315      6973696F 
 10315      6E203233 
 10315      37373135 
 10316 05ad 32202D66 		.ascii	"2 -ffunction-sections -ffat-lto-objects\000"
 10316      66756E63 
 10316      74696F6E 
 10316      2D736563 
 10316      74696F6E 
 10317              	.LASF94:
 10318 05d5 5F5A4E38 		.ascii	"_ZN8MAX3421eI4TPinI5PortbLh2EES0_IS1_Lh1EEE5regWrEh"
 10318      4D415833 
 10318      34323165 
 10318      49345450 
 10318      696E4935 
 10319 0608 6800     		.ascii	"h\000"
 10320              	.LASF266:
 10321 060a 63645F6C 		.ascii	"cd_len\000"
 10321      656E00
 10322              	.LASF5:
 10323 0611 5F5F7569 		.ascii	"__uint16_t\000"
 10323      6E743136 
 10323      5F7400
 10324              	.LASF193:
 10325 061c 5F5A4E31 		.ascii	"_ZN15USBDeviceConfig13DEVSUBCLASSOKEh\000"
 10325      35555342 
 10325      44657669 
 10325      6365436F 
 10325      6E666967 
 10326              	.LASF206:
 10327 0642 62487562 		.ascii	"bHubContrCurrent\000"
 10327      436F6E74 
 10327      72437572 
 10327      72656E74 
 10327      00
 10328              	.LASF216:
 10329 0653 6570496E 		.ascii	"epInfo\000"
 10329      666F00
 10330              	.LASF48:
 10331 065a 5450696E 		.ascii	"TPin<Portb, 2u>\000"
 10331      3C506F72 
 10331      74622C20 
 10331      32753E00 
 10332              	.LASF184:
 10333 066a 47657441 		.ascii	"GetAddress\000"
 10333      64647265 
ARM GAS  C:\Users\jrdia\AppData\Local\Temp\ccJ9Fnzg.s 			page 205


 10333      737300
 10334              	.LASF217:
 10335 0675 62416464 		.ascii	"bAddress\000"
 10335      72657373 
 10335      00
 10336              	.LASF65:
 10337 067e 32385553 		.ascii	"28USB_CONFIGURATION_DESCRIPTOR\000"
 10337      425F434F 
 10337      4E464947 
 10337      55524154 
 10337      494F4E5F 
 10338              	.LASF35:
 10339 069d 626D4164 		.ascii	"bmAddress\000"
 10339      64726573 
 10339      7300
 10340              	.LASF282:
 10341 06a7 5F5A4E33 		.ascii	"_ZN3USBC4Ev\000"
 10341      55534243 
 10341      34457600 
 10342              	.LASF98:
 10343 06b3 62757370 		.ascii	"busprobe\000"
 10343      726F6265 
 10343      00
 10344              	.LASF78:
 10345 06bc 5F5A4E38 		.ascii	"_ZN8MAX3421eI4TPinI5PortbLh2EES0_IS1_Lh1EEEC4Ev\000"
 10345      4D415833 
 10345      34323165 
 10345      49345450 
 10345      696E4935 
 10346              	.LASF112:
 10347 06ec 626D4875 		.ascii	"bmHubPre\000"
 10347      62507265 
 10347      00
 10348              	.LASF276:
 10349 06f5 6D696C6C 		.ascii	"millis\000"
 10349      697300
 10350              	.LASF186:
 10351 06fc 56494450 		.ascii	"VIDPIDOK\000"
 10351      49444F4B 
 10351      00
 10352              	.LASF151:
 10353 0705 5F5A4E33 		.ascii	"_ZN3USB11dispatchPktEhht\000"
 10353      55534231 
 10353      31646973 
 10353      70617463 
 10353      68506B74 
 10354              	.LASF25:
 10355 071e 534B4950 		.ascii	"SKIP_ALL\000"
 10355      5F414C4C 
 10355      00
 10356              	.LASF83:
 10357 0727 62797465 		.ascii	"bytesRd\000"
 10357      73526400 
 10358              	.LASF97:
 10359 072f 5F5A4E38 		.ascii	"_ZN8MAX3421eI4TPinI5PortbLh2EES0_IS1_Lh1EEE12getVbu"
 10359      4D415833 
 10359      34323165 
ARM GAS  C:\Users\jrdia\AppData\Local\Temp\ccJ9Fnzg.s 			page 206


 10359      49345450 
 10359      696E4935 
 10360 0762 73537461 		.ascii	"sStateEv\000"
 10360      74654576 
 10360      00
 10361              	.LASF148:
 10362 076b 6F757454 		.ascii	"outTransfer\000"
 10362      72616E73 
 10362      66657200 
 10363              	.LASF96:
 10364 0777 67657456 		.ascii	"getVbusState\000"
 10364      62757353 
 10364      74617465 
 10364      00
 10365              	.LASF33:
 10366 0784 4570496E 		.ascii	"EpInfo\000"
 10366      666F00
 10367              	.LASF125:
 10368 078b 73657455 		.ascii	"setUsbTaskState\000"
 10368      73625461 
 10368      736B5374 
 10368      61746500 
 10369              	.LASF185:
 10370 079b 5F5A4E31 		.ascii	"_ZN15USBDeviceConfig10GetAddressEv\000"
 10370      35555342 
 10370      44657669 
 10370      6365436F 
 10370      6E666967 
 10371              	.LASF188:
 10372 07be 44455643 		.ascii	"DEVCLASSOK\000"
 10372      4C415353 
 10372      4F4B00
 10373              	.LASF213:
 10374 07c9 76627573 		.ascii	"vbusState\000"
 10374      53746174 
 10374      6500
 10375              	.LASF144:
 10376 07d3 6374726C 		.ascii	"ctrlStatus\000"
 10376      53746174 
 10376      757300
 10377              	.LASF32:
 10378 07de 6D617850 		.ascii	"maxPktSize\000"
 10378      6B745369 
 10378      7A6500
 10379              	.LASF234:
 10380 07e9 47657450 		.ascii	"GetPortStatus\000"
 10380      6F727453 
 10380      74617475 
 10380      7300
 10381              	.LASF251:
 10382 07f7 696E6465 		.ascii	"index\000"
 10382      7800
 10383              	.LASF50:
 10384 07fd 62446573 		.ascii	"bDescriptorType\000"
 10384      63726970 
 10384      746F7254 
 10384      79706500 
ARM GAS  C:\Users\jrdia\AppData\Local\Temp\ccJ9Fnzg.s 			page 207


 10385              	.LASF152:
 10386 080d 5F5A4E33 		.ascii	"_ZN3USB4TaskEv\000"
 10386      55534234 
 10386      5461736B 
 10386      457600
 10387              	.LASF81:
 10388 081c 6770696F 		.ascii	"gpioWr\000"
 10388      577200
 10389              	.LASF115:
 10390 0823 52657365 		.ascii	"ResetHubPreMask\000"
 10390      74487562 
 10390      5072654D 
 10390      61736B00 
 10391              	.LASF79:
 10392 0833 5F5A4E38 		.ascii	"_ZN8MAX3421eI4TPinI5PortbLh2EES0_IS1_Lh1EEE7bytesWr"
 10392      4D415833 
 10392      34323165 
 10392      49345450 
 10392      696E4935 
 10393 0866 45686850 		.ascii	"EhhPh\000"
 10393      6800
 10394              	.LASF195:
 10395 086c 55534252 		.ascii	"USBReadParser\000"
 10395      65616450 
 10395      61727365 
 10395      7200
 10396              	.LASF10:
 10397 087a 6C6F6E67 		.ascii	"long unsigned int\000"
 10397      20756E73 
 10397      69676E65 
 10397      6420696E 
 10397      7400
 10398              	.LASF55:
 10399 088c 624D6178 		.ascii	"bMaxPacketSize0\000"
 10399      5061636B 
 10399      65745369 
 10399      7A653000 
 10400              	.LASF261:
 10401 089c 4661696C 		.ascii	"FailSetConfDescr\000"
 10401      53657443 
 10401      6F6E6644 
 10401      65736372 
 10401      00
 10402              	.LASF61:
 10403 08ad 69536572 		.ascii	"iSerialNumber\000"
 10403      69616C4E 
 10403      756D6265 
 10403      7200
 10404              	.LASF226:
 10405 08bb 436C6561 		.ascii	"ClearHubFeature\000"
 10405      72487562 
 10405      46656174 
 10405      75726500 
 10406              	.LASF43:
 10407 08cb 61646472 		.ascii	"address\000"
 10407      65737300 
 10408              	.LASF247:
ARM GAS  C:\Users\jrdia\AppData\Local\Temp\ccJ9Fnzg.s 			page 208


 10409 08d3 5F5A4E36 		.ascii	"_ZN6USBHub10GetAddressEv\000"
 10409      55534248 
 10409      75623130 
 10409      47657441 
 10409      64647265 
 10410              	.LASF182:
 10411 08ec 506F6C6C 		.ascii	"Poll\000"
 10411      00
 10412              	.LASF249:
 10413 08f1 74686973 		.ascii	"this\000"
 10413      00
 10414              	.LASF134:
 10415 08f6 5F5A4E33 		.ascii	"_ZN3USB12getConfDescrEhhthPh\000"
 10415      55534231 
 10415      32676574 
 10415      436F6E66 
 10415      44657363 
 10416              	.LASF102:
 10417 0913 5F5A4E38 		.ascii	"_ZN8MAX3421eI4TPinI5PortbLh2EES0_IS1_Lh1EEE10GpxHan"
 10417      4D415833 
 10417      34323165 
 10417      49345450 
 10417      696E4935 
 10418 0946 646C6572 		.ascii	"dlerEv\000"
 10418      457600
 10419              	.LASF108:
 10420 094d 494E5452 		.ascii	"INTR\000"
 10420      00
 10421              	.LASF203:
 10422 0952 62446573 		.ascii	"bDescLength\000"
 10422      634C656E 
 10422      67746800 
 10423              	.LASF275:
 10424 095e 64656C61 		.ascii	"delay\000"
 10424      7900
 10425              	.LASF30:
 10426 0964 626D4E61 		.ascii	"bmNakPower\000"
 10426      6B506F77 
 10426      657200
 10427              	.LASF42:
 10428 096f 6570696E 		.ascii	"epinfo\000"
 10428      666F00
 10429              	.LASF260:
 10430 0976 4661696C 		.ascii	"Fail\000"
 10430      00
 10431              	.LASF131:
 10432 097b 67657444 		.ascii	"getDevDescr\000"
 10432      65764465 
 10432      73637200 
 10433              	.LASF207:
 10434 0987 48756245 		.ascii	"HubEvent\000"
 10434      76656E74 
 10434      00
 10435              	.LASF123:
 10436 0990 67657455 		.ascii	"getUsbTaskState\000"
 10436      73625461 
 10436      736B5374 
ARM GAS  C:\Users\jrdia\AppData\Local\Temp\ccJ9Fnzg.s 			page 209


 10436      61746500 
 10437              	.LASF70:
 10438 09a0 626D4174 		.ascii	"bmAttributes\000"
 10438      74726962 
 10438      75746573 
 10438      00
 10439              	.LASF242:
 10440 09ad 5072696E 		.ascii	"PrintHubStatus\000"
 10440      74487562 
 10440      53746174 
 10440      757300
 10441              	.LASF235:
 10442 09bc 5F5A4E36 		.ascii	"_ZN6USBHub13GetPortStatusEhtPh\000"
 10442      55534248 
 10442      75623133 
 10442      47657450 
 10442      6F727453 
 10443              	.LASF9:
 10444 09db 5F5F7569 		.ascii	"__uint32_t\000"
 10444      6E743332 
 10444      5F7400
 10445              	.LASF11:
 10446 09e6 6C6F6E67 		.ascii	"long long int\000"
 10446      206C6F6E 
 10446      6720696E 
 10446      7400
 10447              	.LASF87:
 10448 09f4 5F5A4E38 		.ascii	"_ZN8MAX3421eI4TPinI5PortbLh2EES0_IS1_Lh1EEE6gpioRdE"
 10448      4D415833 
 10448      34323165 
 10448      49345450 
 10448      696E4935 
 10449 0a27 7600     		.ascii	"v\000"
 10450              	.LASF265:
 10451 0a29 6F6C6465 		.ascii	"oldep_ptr\000"
 10451      705F7074 
 10451      7200
 10452              	.LASF173:
 10453 0a33 55534244 		.ascii	"USBDeviceConfig\000"
 10453      65766963 
 10453      65436F6E 
 10453      66696700 
 10454              	.LASF129:
 10455 0a43 73657445 		.ascii	"setEpInfoEntry\000"
 10455      70496E66 
 10455      6F456E74 
 10455      727900
 10456              	.LASF267:
 10457 0a52 62756632 		.ascii	"buf2\000"
 10457      00
 10458              	.LASF130:
 10459 0a57 5F5A4E33 		.ascii	"_ZN3USB14setEpInfoEntryEhhP6EpInfo\000"
 10459      55534231 
 10459      34736574 
 10459      4570496E 
 10459      666F456E 
 10460              	.LASF21:
ARM GAS  C:\Users\jrdia\AppData\Local\Temp\ccJ9Fnzg.s 			page 210


 10461 0a7a 646F7562 		.ascii	"double\000"
 10461      6C6500
 10462              	.LASF199:
 10463 0a81 4F766572 		.ascii	"OverCurrentProtectMode\000"
 10463      43757272 
 10463      656E7450 
 10463      726F7465 
 10463      63744D6F 
 10464              	.LASF77:
 10465 0a98 62797465 		.ascii	"bytesWr\000"
 10465      73577200 
 10466              	.LASF269:
 10467 0aa0 6D61736B 		.ascii	"mask\000"
 10467      00
 10468              	.LASF114:
 10469 0aa5 5F5A4E33 		.ascii	"_ZN3USB13SetHubPreMaskEv\000"
 10469      55534231 
 10469      33536574 
 10469      48756250 
 10469      72654D61 
 10470              	.LASF256:
 10471 0abe 70617265 		.ascii	"parent\000"
 10471      6E7400
 10472              	.LASF59:
 10473 0ac5 694D616E 		.ascii	"iManufacturer\000"
 10473      75666163 
 10473      74757265 
 10473      7200
 10474              	.LASF279:
 10475 0ad3 433A5C55 		.ascii	"C:\\Users\\jrdia\\OneDrive\\Sync\\Documents\\GitHub"
 10475      73657273 
 10475      5C6A7264 
 10475      69615C4F 
 10475      6E654472 
 10476 0b00 5C50536F 		.ascii	"\\PSoC-Bluetooth-Dualshock\\Bluetooth_Dev.cydsn\000"
 10476      432D426C 
 10476      7565746F 
 10476      6F74682D 
 10476      4475616C 
 10477              	.LASF232:
 10478 0b2e 47657448 		.ascii	"GetHubStatus\000"
 10478      75625374 
 10478      61747573 
 10478      00
 10479              	.LASF22:
 10480 0b3b 666C6F61 		.ascii	"float\000"
 10480      7400
 10481              	.LASF111:
 10482 0b41 64657643 		.ascii	"devConfig\000"
 10482      6F6E6669 
 10482      6700
 10483              	.LASF93:
 10484 0b4b 76627573 		.ascii	"vbusPower\000"
 10484      506F7765 
 10484      7200
 10485              	.LASF268:
 10486 0b55 72656164 		.ascii	"read\000"
ARM GAS  C:\Users\jrdia\AppData\Local\Temp\ccJ9Fnzg.s 			page 211


 10486      00
 10487              	.LASF13:
 10488 0b5a 756E7369 		.ascii	"unsigned int\000"
 10488      676E6564 
 10488      20696E74 
 10488      00
 10489              	.LASF230:
 10490 0b67 47657448 		.ascii	"GetHubDescriptor\000"
 10490      75624465 
 10490      73637269 
 10490      70746F72 
 10490      00
 10491              	.LASF236:
 10492 0b78 53657448 		.ascii	"SetHubDescriptor\000"
 10492      75624465 
 10492      73637269 
 10492      70746F72 
 10492      00
 10493              	.LASF117:
 10494 0b89 47657441 		.ascii	"GetAddressPool\000"
 10494      64647265 
 10494      7373506F 
 10494      6F6C00
 10495              	.LASF67:
 10496 0b98 624E756D 		.ascii	"bNumInterfaces\000"
 10496      496E7465 
 10496      72666163 
 10496      657300
 10497              	.LASF107:
 10498 0ba7 5350495F 		.ascii	"SPI_SS\000"
 10498      535300
 10499              	.LASF95:
 10500 0bae 5F5A4E38 		.ascii	"_ZN8MAX3421eI4TPinI5PortbLh2EES0_IS1_Lh1EEE9vbusPow"
 10500      4D415833 
 10500      34323165 
 10500      49345450 
 10500      696E4935 
 10501 0be1 65724536 		.ascii	"erE6VBUS_t\000"
 10501      56425553 
 10501      5F7400
 10502              	.LASF68:
 10503 0bec 62436F6E 		.ascii	"bConfigurationValue\000"
 10503      66696775 
 10503      72617469 
 10503      6F6E5661 
 10503      6C756500 
 10504              	.LASF118:
 10505 0c00 5F5A4E33 		.ascii	"_ZN3USB14GetAddressPoolEv\000"
 10505      55534231 
 10505      34476574 
 10505      41646472 
 10505      65737350 
 10506              	.LASF92:
 10507 0c1a 5F5A4E38 		.ascii	"_ZN8MAX3421eI4TPinI5PortbLh2EES0_IS1_Lh1EEE4InitEi\000"
 10507      4D415833 
 10507      34323165 
 10507      49345450 
ARM GAS  C:\Users\jrdia\AppData\Local\Temp\ccJ9Fnzg.s 			page 212


 10507      696E4935 
 10508              	.LASF106:
 10509 0c4d 5F5A4E38 		.ascii	"_ZN8MAX3421eI4TPinI5PortbLh2EES0_IS1_Lh1EEE4TaskEv\000"
 10509      4D415833 
 10509      34323165 
 10509      49345450 
 10509      696E4935 
 10510              	.LASF202:
 10511 0c80 52657365 		.ascii	"Reserved\000"
 10511      72766564 
 10511      00
 10512              	.LASF91:
 10513 0c89 5F5A4E38 		.ascii	"_ZN8MAX3421eI4TPinI5PortbLh2EES0_IS1_Lh1EEE4InitEv\000"
 10513      4D415833 
 10513      34323165 
 10513      49345450 
 10513      696E4935 
 10514              	.LASF154:
 10515 0cbc 5F5A4E33 		.ascii	"_ZN3USB17DefaultAddressingEhhb\000"
 10515      55534231 
 10515      37446566 
 10515      61756C74 
 10515      41646472 
 10516              	.LASF263:
 10517 0cdb 4661696C 		.ascii	"FailGetHubDescr\000"
 10517      47657448 
 10517      75624465 
 10517      73637200 
 10518              	.LASF100:
 10519 0ceb 5F5A4E38 		.ascii	"_ZN8MAX3421eI4TPinI5PortbLh2EES0_IS1_Lh1EEE8busprob"
 10519      4D415833 
 10519      34323165 
 10519      49345450 
 10519      696E4935 
 10520 0d1e 65457600 		.ascii	"eEv\000"
 10521              	.LASF280:
 10522 0d22 4C6F6F6B 		.ascii	"LookaheadMode\000"
 10522      61686561 
 10522      644D6F64 
 10522      6500
 10523              	.LASF69:
 10524 0d30 69436F6E 		.ascii	"iConfiguration\000"
 10524      66696775 
 10524      72617469 
 10524      6F6E00
 10525              	.LASF233:
 10526 0d3f 5F5A4E36 		.ascii	"_ZN6USBHub12GetHubStatusEtPh\000"
 10526      55534248 
 10526      75623132 
 10526      47657448 
 10526      75625374 
 10527              	.LASF110:
 10528 0d5c 61646472 		.ascii	"addrPool\000"
 10528      506F6F6C 
 10528      00
 10529              	.LASF90:
 10530 0d65 496E6974 		.ascii	"Init\000"
ARM GAS  C:\Users\jrdia\AppData\Local\Temp\ccJ9Fnzg.s 			page 213


 10530      00
 10531              	.LASF212:
 10532 0d6a 55534248 		.ascii	"USBHub\000"
 10532      756200
 10533              	.LASF136:
 10534 0d71 67657453 		.ascii	"getStrDescr\000"
 10534      74724465 
 10534      73637200 
 10535              	.LASF24:
 10536 0d7d 626F6F6C 		.ascii	"bool\000"
 10536      00
 10537              	.LASF174:
 10538 0d82 5F5A4E31 		.ascii	"_ZN15USBDeviceConfigD4Ev\000"
 10538      35555342 
 10538      44657669 
 10538      6365436F 
 10538      6E666967 
 10539              	.LASF109:
 10540 0d9b 4D415833 		.ascii	"MAX3421e<TPin<Portb, 2u>, TPin<Portb, 1u> >\000"
 10540      34323165 
 10540      3C545069 
 10540      6E3C506F 
 10540      7274622C 
 10541              	.LASF196:
 10542 0dc7 48756244 		.ascii	"HubDescriptor\000"
 10542      65736372 
 10542      6970746F 
 10542      7200
 10543              	.LASF166:
 10544 0dd5 5F5A4E33 		.ascii	"_ZN3USB10InTransferEP6EpInfotPtPhh\000"
 10544      55534231 
 10544      30496E54 
 10544      72616E73 
 10544      66657245 
 10545              	.LASF23:
 10546 0df8 6C6F6E67 		.ascii	"long double\000"
 10546      20646F75 
 10546      626C6500 
 10547              	.LASF72:
 10548 0e04 5553425F 		.ascii	"USB_CONFIGURATION_DESCRIPTOR\000"
 10548      434F4E46 
 10548      49475552 
 10548      4154494F 
 10548      4E5F4445 
 10549              	.LASF210:
 10550 0e21 626D4576 		.ascii	"bmEvent\000"
 10550      656E7400 
 10551              	.LASF66:
 10552 0e29 77546F74 		.ascii	"wTotalLength\000"
 10552      616C4C65 
 10552      6E677468 
 10552      00
 10553              	.LASF138:
 10554 0e36 73657441 		.ascii	"setAddr\000"
 10554      64647200 
 10555              	.LASF227:
 10556 0e3e 5F5A4E36 		.ascii	"_ZN6USBHub15ClearHubFeatureEh\000"
ARM GAS  C:\Users\jrdia\AppData\Local\Temp\ccJ9Fnzg.s 			page 214


 10556      55534248 
 10556      75623135 
 10556      436C6561 
 10556      72487562 
 10557              	.LASF180:
 10558 0e5c 52656C65 		.ascii	"Release\000"
 10558      61736500 
 10559              	.LASF237:
 10560 0e64 5F5A4E36 		.ascii	"_ZN6USBHub16SetHubDescriptorEhtPh\000"
 10560      55534248 
 10560      75623136 
 10560      53657448 
 10560      75624465 
 10561              	.LASF228:
 10562 0e86 436C6561 		.ascii	"ClearPortFeature\000"
 10562      72506F72 
 10562      74466561 
 10562      74757265 
 10562      00
 10563              	.LASF156:
 10564 0e97 5F5A4E33 		.ascii	"_ZN3USB11ConfiguringEhhb\000"
 10564      55534231 
 10564      31436F6E 
 10564      66696775 
 10564      72696E67 
 10565              	.LASF0:
 10566 0eb0 5F5F696E 		.ascii	"__int8_t\000"
 10566      74385F74 
 10566      00
 10567              	.LASF49:
 10568 0eb9 624C656E 		.ascii	"bLength\000"
 10568      67746800 
 10569              	.LASF12:
 10570 0ec1 6C6F6E67 		.ascii	"long long unsigned int\000"
 10570      206C6F6E 
 10570      6720756E 
 10570      7369676E 
 10570      65642069 
 10571              	.LASF283:
 10572 0ed8 41646472 		.ascii	"AddressPoolImpl<16u>\000"
 10572      65737350 
 10572      6F6F6C49 
 10572      6D706C3C 
 10572      3136753E 
 10573              	.LASF16:
 10574 0eed 75696E74 		.ascii	"uint16_t\000"
 10574      31365F74 
 10574      00
 10575              	.LASF40:
 10576 0ef6 64657641 		.ascii	"devAddress\000"
 10576      64647265 
 10576      737300
 10577              	.LASF119:
 10578 0f01 52656769 		.ascii	"RegisterDeviceClass\000"
 10578      73746572 
 10578      44657669 
 10578      6365436C 
ARM GAS  C:\Users\jrdia\AppData\Local\Temp\ccJ9Fnzg.s 			page 215


 10578      61737300 
 10579              	.LASF259:
 10580 0f15 4661696C 		.ascii	"FailGetDevDescr\000"
 10580      47657444 
 10580      65764465 
 10580      73637200 
 10581              	.LASF158:
 10582 0f25 5F5A4E33 		.ascii	"_ZN3USB13ReleaseDeviceEh\000"
 10582      55534231 
 10582      3352656C 
 10582      65617365 
 10582      44657669 
 10583              	.LASF62:
 10584 0f3e 624E756D 		.ascii	"bNumConfigurations\000"
 10584      436F6E66 
 10584      69677572 
 10584      6174696F 
 10584      6E7300
 10585              	.LASF211:
 10586 0f51 65767442 		.ascii	"evtBuff\000"
 10586      75666600 
 10587              	.LASF240:
 10588 0f59 53657450 		.ascii	"SetPortFeature\000"
 10588      6F727446 
 10588      65617475 
 10588      726500
 10589              	.LASF74:
 10590 0f68 76627573 		.ascii	"vbus_off\000"
 10590      5F6F6666 
 10590      00
 10591              	.LASF57:
 10592 0f71 69645072 		.ascii	"idProduct\000"
 10592      6F647563 
 10592      7400
 10593              	.LASF200:
 10594 0f7b 54545468 		.ascii	"TTThinkTime\000"
 10594      696E6B54 
 10594      696D6500 
 10595              	.LASF38:
 10596 0f87 626D5265 		.ascii	"bmReserved\000"
 10596      73657276 
 10596      656400
 10597              	.LASF281:
 10598 0f92 36564255 		.ascii	"6VBUS_t\000"
 10598      535F7400 
 10599              	.LASF160:
 10600 0f9a 5F5A4E33 		.ascii	"_ZN3USB7ctrlReqEhhhhhhtttPhP13USBReadParser\000"
 10600      55534237 
 10600      6374726C 
 10600      52657145 
 10600      68686868 
 10601              	.LASF272:
 10602 0fc6 504F5254 		.ascii	"PORTB\000"
 10602      4200
 10603              	.LASF194:
 10604 0fcc 41646472 		.ascii	"AddressPool\000"
 10604      65737350 
ARM GAS  C:\Users\jrdia\AppData\Local\Temp\ccJ9Fnzg.s 			page 216


 10604      6F6F6C00 
 10605              	.LASF56:
 10606 0fd8 69645665 		.ascii	"idVendor\000"
 10606      6E646F72 
 10606      00
 10607              	.LASF64:
 10608 0fe1 32315553 		.ascii	"21USB_DEVICE_DESCRIPTOR\000"
 10608      425F4445 
 10608      56494345 
 10608      5F444553 
 10608      43524950 
 10609              	.LASF82:
 10610 0ff9 72656752 		.ascii	"regRd\000"
 10610      6400
 10611              	.LASF187:
 10612 0fff 5F5A4E31 		.ascii	"_ZN15USBDeviceConfig8VIDPIDOKEtt\000"
 10612      35555342 
 10612      44657669 
 10612      6365436F 
 10612      6E666967 
 10613              	.LASF287:
 10614 1020 5F5A4E36 		.ascii	"_ZN6USBHub15bResetInitiatedE\000"
 10614      55534248 
 10614      75623135 
 10614      62526573 
 10614      6574496E 
 10615              	.LASF104:
 10616 103d 5F5A4E38 		.ascii	"_ZN8MAX3421eI4TPinI5PortbLh2EES0_IS1_Lh1EEE10IntHan"
 10616      4D415833 
 10616      34323165 
 10616      49345450 
 10616      696E4935 
 10617 1070 646C6572 		.ascii	"dlerEv\000"
 10617      457600
 10618              	.LASF218:
 10619 1077 714E6578 		.ascii	"qNextPollTime\000"
 10619      74506F6C 
 10619      6C54696D 
 10619      6500
 10620              	.LASF201:
 10621 1085 506F7274 		.ascii	"PortIndicatorsSupported\000"
 10621      496E6469 
 10621      6361746F 
 10621      72735375 
 10621      70706F72 
 10622              	.LASF103:
 10623 109d 496E7448 		.ascii	"IntHandler\000"
 10623      616E646C 
 10623      657200
 10624              	.LASF137:
 10625 10a8 5F5A4E33 		.ascii	"_ZN3USB11getStrDescrEhhthtPh\000"
 10625      55534231 
 10625      31676574 
 10625      53747244 
 10625      65736372 
 10626              	.LASF167:
 10627 10c5 696E6974 		.ascii	"init\000"
ARM GAS  C:\Users\jrdia\AppData\Local\Temp\ccJ9Fnzg.s 			page 217


 10627      00
 10628              	.LASF241:
 10629 10ca 5F5A4E36 		.ascii	"_ZN6USBHub14SetPortFeatureEhhh\000"
 10629      55534248 
 10629      75623134 
 10629      53657450 
 10629      6F727446 
 10630              	.LASF190:
 10631 10e9 52657365 		.ascii	"ResetHubPort\000"
 10631      74487562 
 10631      506F7274 
 10631      00
 10632              	.LASF163:
 10633 10f6 4F757454 		.ascii	"OutTransfer\000"
 10633      72616E73 
 10633      66657200 
 10634              	.LASF155:
 10635 1102 436F6E66 		.ascii	"Configuring\000"
 10635      69677572 
 10635      696E6700 
 10636              	.LASF88:
 10637 110e 72657365 		.ascii	"reset\000"
 10637      7400
 10638              	.LASF52:
 10639 1114 62446576 		.ascii	"bDeviceClass\000"
 10639      69636543 
 10639      6C617373 
 10639      00
 10640              	.LASF146:
 10641 1121 696E5472 		.ascii	"inTransfer\000"
 10641      616E7366 
 10641      657200
 10642              	.LASF250:
 10643 112c 706F7274 		.ascii	"port\000"
 10643      00
 10644              	.LASF209:
 10645 1131 626D4368 		.ascii	"bmChange\000"
 10645      616E6765 
 10645      00
 10646              	.LASF192:
 10647 113a 5F5A4E31 		.ascii	"_ZN15USBDeviceConfig12ResetHubPortEh\000"
 10647      35555342 
 10647      44657669 
 10647      6365436F 
 10647      6E666967 
 10648              	.LASF161:
 10649 115f 53657441 		.ascii	"SetAddress\000"
 10649      64647265 
 10649      737300
 10650              	.LASF4:
 10651 116a 73686F72 		.ascii	"short int\000"
 10651      7420696E 
 10651      7400
 10652              	.LASF124:
 10653 1174 5F5A4E33 		.ascii	"_ZN3USB15getUsbTaskStateEv\000"
 10653      55534231 
 10653      35676574 
ARM GAS  C:\Users\jrdia\AppData\Local\Temp\ccJ9Fnzg.s 			page 218


 10653      55736254 
 10653      61736B53 
 10654              	.LASF231:
 10655 118f 5F5A4E36 		.ascii	"_ZN6USBHub16GetHubDescriptorEhtPh\000"
 10655      55534248 
 10655      75623136 
 10655      47657448 
 10655      75624465 
 10656              	.LASF159:
 10657 11b1 6374726C 		.ascii	"ctrlReq\000"
 10657      52657100 
 10658              	.LASF274:
 10659 11b9 50494E42 		.ascii	"PINB\000"
 10659      00
 10660              	.LASF273:
 10661 11be 44445242 		.ascii	"DDRB\000"
 10661      00
 10662              	.LASF99:
 10663 11c3 5F5A4E38 		.ascii	"_ZN8MAX3421eI4TPinI5PortbLh2EES0_IS1_Lh1EEE6gpioWrE"
 10663      4D415833 
 10663      34323165 
 10663      49345450 
 10663      696E4935 
 10664 11f6 6800     		.ascii	"h\000"
 10665              	.LASF113:
 10666 11f8 53657448 		.ascii	"SetHubPreMask\000"
 10666      75625072 
 10666      654D6173 
 10666      6B00
 10667              	.LASF147:
 10668 1206 5F5A4E33 		.ascii	"_ZN3USB10inTransferEhhPtPhh\000"
 10668      55534231 
 10668      30696E54 
 10668      72616E73 
 10668      66657245 
 10669              	.LASF37:
 10670 1222 626D4875 		.ascii	"bmHub\000"
 10670      6200
 10671              	.LASF89:
 10672 1228 5F5A4E38 		.ascii	"_ZN8MAX3421eI4TPinI5PortbLh2EES0_IS1_Lh1EEE5resetEv"
 10672      4D415833 
 10672      34323165 
 10672      49345450 
 10672      696E4935 
 10673 125b 00       		.ascii	"\000"
 10674              	.LASF149:
 10675 125c 5F5A4E33 		.ascii	"_ZN3USB11outTransferEhhtPh\000"
 10675      55534231 
 10675      316F7574 
 10675      5472616E 
 10675      73666572 
 10676              	.LASF258:
 10677 1277 7375626B 		.ascii	"subklass\000"
 10677      6C617373 
 10677      00
 10678              	.LASF105:
 10679 1280 5461736B 		.ascii	"Task\000"
ARM GAS  C:\Users\jrdia\AppData\Local\Temp\ccJ9Fnzg.s 			page 219


 10679      00
 10680              	.LASF208:
 10681 1285 626D5374 		.ascii	"bmStatus\000"
 10681      61747573 
 10681      00
 10682              	.LASF29:
 10683 128e 626D5263 		.ascii	"bmRcvToggle\000"
 10683      76546F67 
 10683      676C6500 
 10684              	.LASF84:
 10685 129a 5F5A4E38 		.ascii	"_ZN8MAX3421eI4TPinI5PortbLh2EES0_IS1_Lh1EEE5regRdEh"
 10685      4D415833 
 10685      34323165 
 10685      49345450 
 10685      696E4935 
 10686 12cd 00       		.ascii	"\000"
 10687              	.LASF116:
 10688 12ce 5F5A4E33 		.ascii	"_ZN3USB15ResetHubPreMaskEv\000"
 10688      55534231 
 10688      35526573 
 10688      65744875 
 10688      62507265 
 10689              	.LASF170:
 10690 12e9 5F5A4E33 		.ascii	"_ZN3USB13AttemptConfigEhhhb\000"
 10690      55534231 
 10690      33417474 
 10690      656D7074 
 10690      436F6E66 
 10691              	.LASF189:
 10692 1305 5F5A4E31 		.ascii	"_ZN15USBDeviceConfig10DEVCLASSOKEh\000"
 10692      35555342 
 10692      44657669 
 10692      6365436F 
 10692      6E666967 
 10693              	.LASF145:
 10694 1328 5F5A4E33 		.ascii	"_ZN3USB10ctrlStatusEhbt\000"
 10694      55534231 
 10694      30637472 
 10694      6C537461 
 10694      74757345 
 10695              	.LASF127:
 10696 1340 67657445 		.ascii	"getEpInfoEntry\000"
 10696      70496E66 
 10696      6F456E74 
 10696      727900
 10697              	.LASF18:
 10698 134f 75696E74 		.ascii	"uint32_t\000"
 10698      33325F74 
 10698      00
 10699              	.LASF253:
 10700 1358 64617461 		.ascii	"dataptr\000"
 10700      70747200 
 10701              	.LASF46:
 10702 1360 55736244 		.ascii	"UsbDeviceHandleFunc\000"
 10702      65766963 
 10702      6548616E 
 10702      646C6546 
ARM GAS  C:\Users\jrdia\AppData\Local\Temp\ccJ9Fnzg.s 			page 220


 10702      756E6300 
 10703              	.LASF245:
 10704 1374 5F5A4E36 		.ascii	"_ZN6USBHub7ReleaseEv\000"
 10704      55534248 
 10704      75623752 
 10704      656C6561 
 10704      73654576 
 10705              	.LASF80:
 10706 1389 72656757 		.ascii	"regWr\000"
 10706      7200
 10707              	.LASF71:
 10708 138f 624D6178 		.ascii	"bMaxPower\000"
 10708      506F7765 
 10708      7200
 10709              	.LASF168:
 10710 1399 41747465 		.ascii	"AttemptConfig\000"
 10710      6D707443 
 10710      6F6E6669 
 10710      6700
 10711              	.LASF126:
 10712 13a7 5F5A4E33 		.ascii	"_ZN3USB15setUsbTaskStateEh\000"
 10712      55534231 
 10712      35736574 
 10712      55736254 
 10712      61736B53 
 10713              	.LASF214:
 10714 13c2 62526573 		.ascii	"bResetInitiated\000"
 10714      6574496E 
 10714      69746961 
 10714      74656400 
 10715              	.LASF257:
 10716 13d2 6B6C6173 		.ascii	"klass\000"
 10716      7300
 10717              	.LASF172:
 10718 13d8 7E555342 		.ascii	"~USBDeviceConfig\000"
 10718      44657669 
 10718      6365436F 
 10718      6E666967 
 10718      00
 10719              	.LASF133:
 10720 13e9 67657443 		.ascii	"getConfDescr\000"
 10720      6F6E6644 
 10720      65736372 
 10720      00
 10721              	.LASF6:
 10722 13f6 73686F72 		.ascii	"short unsigned int\000"
 10722      7420756E 
 10722      7369676E 
 10722      65642069 
 10722      6E7400
 10723              	.LASF255:
 10724 1409 72636F64 		.ascii	"rcode\000"
 10724      6500
 10725              	.LASF7:
 10726 140f 5F5F696E 		.ascii	"__int32_t\000"
 10726      7433325F 
 10726      7400
ARM GAS  C:\Users\jrdia\AppData\Local\Temp\ccJ9Fnzg.s 			page 221


 10727              	.LASF248:
 10728 1419 5F5A4E36 		.ascii	"_ZN6USBHub10DEVCLASSOKEh\000"
 10728      55534248 
 10728      75623130 
 10728      44455643 
 10728      4C415353 
 10729              	.LASF75:
 10730 1432 56425553 		.ascii	"VBUS_t\000"
 10730      5F7400
 10731              	.LASF121:
 10732 1439 466F7245 		.ascii	"ForEachUsbDevice\000"
 10732      61636855 
 10732      73624465 
 10732      76696365 
 10732      00
 10733              	.LASF120:
 10734 144a 5F5A4E33 		.ascii	"_ZN3USB19RegisterDeviceClassEP15USBDeviceConfig\000"
 10734      55534231 
 10734      39526567 
 10734      69737465 
 10734      72446576 
 10735              	.LASF198:
 10736 147a 436F6D70 		.ascii	"CompoundDevice\000"
 10736      6F756E64 
 10736      44657669 
 10736      636500
 10737              	.LASF278:
 10738 1489 75736268 		.ascii	"usbhub.c\000"
 10738      75622E63 
 10738      00
 10739              	.LASF270:
 10740 1492 5F5A4E36 		.ascii	"_ZN6USBHubC2EP3USB\000"
 10740      55534248 
 10740      75624332 
 10740      45503355 
 10740      534200
 10741              	.LASF219:
 10742 14a5 62506F6C 		.ascii	"bPollEnable\000"
 10742      6C456E61 
 10742      626C6500 
 10743              	.LASF285:
 10744 14b1 5F5A4E36 		.ascii	"_ZN6USBHub12ResetHubPortEh\000"
 10744      55534248 
 10744      75623132 
 10744      52657365 
 10744      74487562 
 10745              	.LASF34:
 10746 14cc 55736244 		.ascii	"UsbDeviceAddress\000"
 10746      65766963 
 10746      65416464 
 10746      72657373 
 10746      00
 10747              	.LASF132:
 10748 14dd 5F5A4E33 		.ascii	"_ZN3USB11getDevDescrEhhtPh\000"
 10748      55534231 
 10748      31676574 
 10748      44657644 
ARM GAS  C:\Users\jrdia\AppData\Local\Temp\ccJ9Fnzg.s 			page 222


 10748      65736372 
 10749              		.ident	"GCC: (GNU Tools for ARM Embedded Processors) 5.4.1 20160609 (release) [ARM/embedded-5-bran
